ccopy_reg
_reconstructor
p1
(csolution
AlternationSolution
p2
c__builtin__
object
p3
NtRp4
(dp5
S'rules'
p6
(lp7
(irule
Rule
p8
(dp9
S'leftTriggers'
p10
(irule
Guard
p11
(dp12
S'endOfString'
p13
I00
sS'specifications'
p14
(lp15
sS'optionalEnding'
p16
I00
sS'representation'
p17
V
sS'starred'
p18
I00
sS'side'
p19
S'L'
sbsS'structuralChange'
p20
(irule
FeatureMatrix
p21
(dp22
S'featuresAndPolarities'
p23
(lp24
(I00
S'anterior'
p25
tp26
a(I01
S'sibilant'
p27
tp28
asg17
V[ +sibilant -anterior ]
p29
sbsS'rightTriggers'
p30
(irule
Guard
p31
(dp32
g13
I00
sg14
(lp33
(irule
FeatureMatrix
p34
(dp35
g23
(lp36
(I01
S'high'
p37
tp38
asg17
V[ +high ]
p39
sbasg16
I00
sg17
g39
sg18
I00
sg19
S'R'
sbsS'focus'
p40
(irule
FeatureMatrix
p41
(dp42
g23
(lp43
(I00
S'nasal'
p44
tp45
a(I01
S'coronal'
p46
tp47
a(I00
S'retroflex'
p48
tp49
asg17
V[ +coronal -nasal -retroflex ]
p50
sbsg17
V[ +coronal -nasal -retroflex ] ---> [ +sibilant -anterior ] /  _ [ +high ]
p51
sba(irule
Rule
p52
(dp53
g10
(irule
Guard
p54
(dp55
g13
I00
sg14
(lp56
sg16
I00
sg17
V
sg18
I00
sg19
S'L'
sbsg20
(irule
FeatureMatrix
p57
(dp58
g23
(lp59
sg17
V[  ]
p60
sbsg30
(irule
Guard
p61
(dp62
g13
I00
sg14
(lp63
sg16
I00
sg17
V
sg18
I00
sg19
S'R'
sbsg40
(irule
FeatureMatrix
p64
(dp65
g23
(lp66
sg17
V[  ]
p67
sbsg17
V[  ] ---> [  ] /  _ 
p68
sbasS'data'
p69
(lp70
(imorph
Morph
p71
(dp72
S'phonemes'
p73
(lp74
Vb
aVi\u0301
p75
aVj\u030c
p76
aVi
aVm
asba(imorph
Morph
p77
(dp78
g73
(lp79
Vt
aVa\u0301:
p80
aVp
aVa
aVn
asba(imorph
Morph
p81
(dp82
g73
(lp83
Vh
aVi\u0301
p84
aVd
aVo
aVd\u0323
p85
asba(imorph
Morph
p86
(dp87
g73
(lp88
Vc\u030c
p89
aV\u0268\u0301
p90
aVk
aVi
aVd
asba(imorph
Morph
p91
(dp92
g73
(lp93
Vg
aVa\u0301
p94
aVt
aVw
aVi
aVd
asba(imorph
Morph
p95
(dp96
g73
(lp97
Vc\u030c
p98
aVu\u0301
p99
aVk
aVu
asba(imorph
Morph
p100
(dp101
g73
(lp102
Vd
aVa\u0301
p103
aVg
aV\u1e63
aVp
asba(imorph
Morph
p104
(dp105
g73
(lp106
Vt
aVo\u0301
p107
aVh
aVa
asba(imorph
Morph
p108
(dp109
g73
(lp110
Vj\u030c
p111
aVu\u0301:
p112
aVk
aVi\u030c
p113
asba(imorph
Morph
p114
(dp115
g73
(lp116
Vh
aV\u0268\u0301
p117
aVw
aVg
aVi
aVd
asba(imorph
Morph
p118
(dp119
g73
(lp120
Vc\u030c
p121
aVi\u0301
p122
aVh
aVa
aV\u014b
asba(imorph
Morph
p123
(dp124
g73
(lp125
Vt
aVo\u0301
p126
aVn\u0303
p127
aVi
asba(imorph
Morph
p128
(dp129
g73
(lp130
Vw
aVi\u0301
p131
aVd\u0323
p132
aVu
aVt
asba(imorph
Morph
p133
(dp134
g73
(lp135
Vt
aVa\u0301:
p136
aVt
aVa
aVd\u0323
p137
asba(imorph
Morph
p138
(dp139
g73
(lp140
Vk
aVi\u0301:
p141
aVc\u030c
p142
aVu
aVd
asba(imorph
Morph
p143
(dp144
g73
(lp145
Vd
aVo\u0301:
p146
aVd
aVo
aVm
asba(imorph
Morph
p147
(dp148
g73
(lp149
Vt
aVa\u0301:
p150
aVt
aVa
aVm
asbasS'substitution'
p151
(dp152
Vj\u030c
p153
Vd
sVc\u030c
p154
Vt
ssb.