ccopy_reg
_reconstructor
p1
(csolution
AlternationSolution
p2
c__builtin__
object
p3
NtRp4
(dp5
S'rules'
p6
(lp7
(irule
Rule
p8
(dp9
S'leftTriggers'
p10
(irule
Guard
p11
(dp12
S'endOfString'
p13
I00
sS'specifications'
p14
(lp15
sS'optionalEnding'
p16
I00
sS'representation'
p17
V
sS'starred'
p18
I00
sS'side'
p19
S'L'
sbsS'structuralChange'
p20
(irule
FeatureMatrix
p21
(dp22
S'featuresAndPolarities'
p23
(lp24
(I01
S'voice'
p25
tp26
asg17
V[ +voice ]
p27
sbsS'rightTriggers'
p28
(irule
Guard
p29
(dp30
g13
I00
sg14
(lp31
(irule
FeatureMatrix
p32
(dp33
g23
(lp34
(I00
S'coronal'
p35
tp36
asg17
V[ -coronal ]
p37
sbasg16
I00
sg17
g37
sg18
I00
sg19
S'R'
sbsS'focus'
p38
(irule
FeatureMatrix
p39
(dp40
g23
(lp41
(I00
S'continuant'
p42
tp43
asg17
V[ -continuant ]
p44
sbsg17
V[ -continuant ] ---> [ +voice ] /  _ [ -coronal ]
p45
sba(irule
Rule
p46
(dp47
g10
(irule
Guard
p48
(dp49
g13
I00
sg14
(lp50
sg16
I00
sg17
V
sg18
I00
sg19
S'L'
sbsg20
(irule
FeatureMatrix
p51
(dp52
g23
(lp53
sg17
V[  ]
p54
sbsg28
(irule
Guard
p55
(dp56
g13
I00
sg14
(lp57
sg16
I00
sg17
V
sg18
I00
sg19
S'R'
sbsg38
(irule
FeatureMatrix
p58
(dp59
g23
(lp60
sg17
V[  ]
p61
sbsg17
V[  ] ---> [  ] /  _ 
p62
sbasS'data'
p63
(lp64
(imorph
Morph
p65
(dp66
S'phonemes'
p67
(lp68
Vo
aVl
aVi:
p69
aVd
aVe
aV\u0294
asba(imorph
Morph
p70
(dp71
g67
(lp72
Vz
aVa
aVh
aVs
aVe
aVt
asba(imorph
Morph
p73
(dp74
g67
(lp75
Vg
aVa:
p76
aVl
aVi
aVs
asba(imorph
Morph
p77
(dp78
g67
(lp79
Vo
aVd
aVa
aVh
aVs
aVa
asba(imorph
Morph
p80
(dp81
g67
(lp82
Vw
aVi
aVs
aVk
asba(imorph
Morph
p83
(dp84
g67
(lp85
Vd
aVe
aVg
aVe
aVn
aVi
asba(imorph
Morph
p86
(dp87
g67
(lp88
Va
aVp
aVl
aVa
aVm
asba(imorph
Morph
p89
(dp90
g67
(lp91
Vo
aVy
aVa:
p92
aVg
aVa
aVl
aVa
asba(imorph
Morph
p93
(dp94
g67
(lp95
Vo
aVh
aVy
aVo
aVt
aVs
aVa
aVh
asba(imorph
Morph
p96
(dp97
g67
(lp98
Vl
aVa
aVb
aVa
aVh
aVb
aVe
aVt
asba(imorph
Morph
p99
(dp100
g67
(lp101
Vs
aVd
aVu:
p102
aVh
aVa
asba(imorph
Morph
p103
(dp104
g67
(lp105
Vj\u030c
p106
aVi
aVk
aVs
asba(imorph
Morph
p107
(dp108
g67
(lp109
Vd
aVe
aVs
aVd
aVa
aV\u0294
aVn\u0325
p110
asba(imorph
Morph
p111
(dp112
g67
(lp113
Vd
aVe:
p114
aVz
aVe
aVk
aVn
aVw\u0325
p115
asbasS'substitution'
p116
(dp117
Vb
Vp
sVd
Vt
sVg
Vk
ssb.