ccopy_reg
_reconstructor
p1
(csolution
AlternationSolution
p2
c__builtin__
object
p3
NtRp4
(dp5
S'rules'
p6
(lp7
(irule
Rule
p8
(dp9
S'leftTriggers'
p10
(irule
Guard
p11
(dp12
S'endOfString'
p13
I00
sS'specifications'
p14
(lp15
sS'optionalEnding'
p16
I00
sS'representation'
p17
V
sS'starred'
p18
I00
sS'side'
p19
S'L'
sbsS'structuralChange'
p20
(irule
FeatureMatrix
p21
(dp22
S'featuresAndPolarities'
p23
(lp24
sg17
V[  ]
p25
sbsS'rightTriggers'
p26
(irule
Guard
p27
(dp28
g13
I00
sg14
(lp29
sg16
I00
sg17
V
sg18
I00
sg19
S'R'
sbsS'focus'
p30
(irule
FeatureMatrix
p31
(dp32
g23
(lp33
sg17
V[  ]
p34
sbsg17
V[  ] ---> [  ] /  _ 
p35
sba(irule
Rule
p36
(dp37
g10
(irule
Guard
p38
(dp39
g13
I00
sg14
(lp40
(irule
FeatureMatrix
p41
(dp42
g23
(lp43
(I01
S'front'
p44
tp45
asg17
V[ +front ]
p46
sbasg16
I00
sg17
g46
sg18
I00
sg19
S'L'
sbsg20
(irule
ConstantPhoneme
p47
(dp48
S'p'
Vr
sbsg26
(irule
Guard
p49
(dp50
g13
I00
sg14
(lp51
sg16
I00
sg17
V
sg18
I00
sg19
S'R'
sbsg30
(irule
FeatureMatrix
p52
(dp53
g23
(lp54
(I01
S'liquid'
p55
tp56
asg17
V[ +liquid ]
p57
sbsg17
V[ +liquid ] ---> r / [ +front ] _ 
p58
sbasS'substitution'
p59
(dp60
Vr
Vl
ssS'data'
p61
(lp62
(imorph
Morph
p63
(dp64
S'phonemes'
p65
(lp66
Vk
aVo
aVl
aVa
asba(imorph
Morph
p67
(dp68
g65
(lp69
Vl
aVw
aVa
aVn
aVa
asba(imorph
Morph
p70
(dp71
g65
(lp72
Vb
aVu
aVu
aVl
aVi
aVr
aVa
asba(imorph
Morph
p73
(dp74
g65
(lp75
Vl
aVj
aVa
asba(imorph
Morph
p76
(dp77
g65
(lp78
Vl
aVu
aVu
aVl
aVa
asba(imorph
Morph
p79
(dp80
g65
(lp81
Vo
aVm
aVu
aVg
aVo
aVl
aVe
asba(imorph
Morph
p82
(dp83
g65
(lp84
Vl
aVu
aVm
aVo
aVn
aVd
aVe
asba(imorph
Morph
p85
(dp86
g65
(lp87
Ve
aVd
aVd
aVw
aVa
aVl
aVi
aVr
aVo
asba(imorph
Morph
p88
(dp89
g65
(lp90
Vo
aVl
aVu
aVg
aVa
aVn
aVd
aVa
asba(imorph
Morph
p91
(dp92
g65
(lp93
Vo
aVl
aVu
aVl
aVi
aVm
aVi
asba(imorph
Morph
p94
(dp95
g65
(lp96
Vw
aVu
aVl
aVi
aVr
aVa
asba(imorph
Morph
p97
(dp98
g65
(lp99
Vb
aVe
aVe
aVr
aVa
asba(imorph
Morph
p100
(dp101
g65
(lp102
Vj
aVj
aVu
aVk
aVi
aVr
aVa
asba(imorph
Morph
p103
(dp104
g65
(lp105
Ve
aVr
aVj
aVa
aVt
aVo
asba(imorph
Morph
p106
(dp107
g65
(lp108
Vo
aVm
aVu
aVl
aVi
aVr
aVo
asba(imorph
Morph
p109
(dp110
g65
(lp111
Ve
aVf
aVf
aVi
aVr
aVi
aVm
aVb
aVi
asba(imorph
Morph
p112
(dp113
g65
(lp114
Ve
aVm
aVm
aVe
aVe
aVr
aVi
asba(imorph
Morph
p115
(dp116
g65
(lp117
Ve
aVr
aVa
aVd
aVd
aVu
asba(imorph
Morph
p118
(dp119
g65
(lp120
Vw
aVa
aVw
aVa
aVa
aVb
aVi
aVr
aVa
asba(imorph
Morph
p121
(dp122
g65
(lp123
Vl
aVa
aVg
aVi
aVr
aVa
asba(imorph
Morph
p124
(dp125
g65
(lp126
Ve
aVb
aVe
aVn
aVd
aVe
aVr
aVa
asba(imorph
Morph
p127
(dp128
g65
(lp129
Vl
aVe
aVe
aVr
aVw
aVe
asba(imorph
Morph
p130
(dp131
g65
(lp132
Vl
aVu
aVu
aVl
aVa
asba(imorph
Morph
p133
(dp134
g65
(lp135
Vs
aVs
aVa
aVf
aVf
aVa
aVa
aVl
aVi
asbasS'time'
p136
F65.589041948318481
sb.