ccopy_reg
_reconstructor
p1
(csolution
AlternationSolution
p2
c__builtin__
object
p3
NtRp4
(dp5
S'rules'
p6
(lp7
(irule
Rule
p8
(dp9
S'leftTriggers'
p10
(irule
Guard
p11
(dp12
S'endOfString'
p13
I00
sS'specifications'
p14
(lp15
(irule
FeatureMatrix
p16
(dp17
S'featuresAndPolarities'
p18
(lp19
(I00
S'vowel'
p20
tp21
asS'representation'
p22
V[ -vowel ]
p23
sbasS'optionalEnding'
p24
I00
sg22
g23
sS'starred'
p25
I00
sS'side'
p26
S'L'
sbsS'structuralChange'
p27
(irule
FeatureMatrix
p28
(dp29
g18
(lp30
(I01
S'anterior'
p31
tp32
a(I00
S'liquid'
p33
tp34
a(I00
S'continuant'
p35
tp36
a(I00
S'lateral'
p37
tp38
a(I00
S'sonorant'
p39
tp40
asg22
V[ +anterior -continuant -lateral -liquid -sonorant ]
p41
sbsS'rightTriggers'
p42
(irule
Guard
p43
(dp44
g13
I00
sg14
(lp45
sg24
I00
sg22
V
sg25
I00
sg26
S'R'
sbsS'focus'
p46
(irule
FeatureMatrix
p47
(dp48
g18
(lp49
(I00
S'back'
p50
tp51
a(I00
g20
tp52
asg22
V[ -back -vowel ]
p53
sbsg22
V[ -back -vowel ] ---> [ +anterior -continuant -lateral -liquid -sonorant ] / [ -vowel ] _ 
p54
sba(irule
Rule
p55
(dp56
g10
(irule
Guard
p57
(dp58
g13
I00
sg14
(lp59
(irule
ConstantPhoneme
p60
(dp61
S'p'
V\u014b
sbasg24
I00
sg22
V\u014b
sg25
I00
sg26
S'L'
sbsg27
(irule
ConstantPhoneme
p62
(dp63
S'p'
Vg
sbsg42
(irule
Guard
p64
(dp65
g13
I00
sg14
(lp66
sg24
I00
sg22
V
sg25
I00
sg26
S'R'
sbsg46
(irule
FeatureMatrix
p67
(dp68
g18
(lp69
sg22
V[  ]
p70
sbsg22
V[  ] ---> g / \u014b _ 
p71
sbasS'data'
p72
(lp73
(imorph
Morph
p74
(dp75
S'phonemes'
p76
(lp77
V\u03b2
aVa
aVl
aVe
asba(imorph
Morph
p78
(dp79
g76
(lp80
Vl
aVe
aVm
aVe
asba(imorph
Morph
p81
(dp82
g76
(lp83
Vt
aVa
aV\u03b2
aVe
asba(imorph
Morph
p84
(dp85
g76
(lp86
Vp
aVa
aVl
aVa
asba(imorph
Morph
p87
(dp88
g76
(lp89
Vk
aVo
aVn
aVd
aV\u025b
asba(imorph
Morph
p90
(dp91
g76
(lp92
Vz
aV\u0254
aV\u014b
aVg
aV\u0254
asba(imorph
Morph
p93
(dp94
g76
(lp95
V\u03b2
aV\u025b
aV\u0263
aVa
asba(imorph
Morph
p96
(dp97
g76
(lp98
V\u03b2
aV\u025b
aVm
aVb
aVe
asba(imorph
Morph
p99
(dp100
g76
(lp101
Vl
aVi
aVm
aVo
asba(imorph
Morph
p102
(dp103
g76
(lp104
Vk
aVa
aV\u014b
aVg
aVa
asba(imorph
Morph
p105
(dp106
g76
(lp107
V\u0263
aV\u0254
aVm
aVb
aV\u025b
asba(imorph
Morph
p108
(dp109
g76
(lp110
Vl
aVe
aVl
aV\u0254
asba(imorph
Morph
p111
(dp112
g76
(lp113
Vk
aVi
aV\u0263
aVa
asba(imorph
Morph
p114
(dp115
g76
(lp116
V\u0263
aVi
aV\u0263
aV\u025b
asba(imorph
Morph
p117
(dp118
g76
(lp119
Vk
aVu
aVl
aVu
asba(imorph
Morph
p120
(dp121
g76
(lp122
Vo
aV\u014b
aVg
aVo
asba(imorph
Morph
p123
(dp124
g76
(lp125
Vt
aV\u025b
aVn
aVd
aV\u025b
asba(imorph
Morph
p126
(dp127
g76
(lp128
Vz
aVa
aVl
aVa
asba(imorph
Morph
p129
(dp130
g76
(lp131
Vz
aV\u0254
aV\u0263
aVu
asba(imorph
Morph
p132
(dp133
g76
(lp134
V\u03b2
aVe
aVl
aVe
asba(imorph
Morph
p135
(dp136
g76
(lp137
Vl
aV\u025b
aVl
aVu
asba(imorph
Morph
p138
(dp139
g76
(lp140
Ve
aV\u0263
aVi
asba(imorph
Morph
p141
(dp142
g76
(lp143
Vk
aVi
aV\u014b
aVg
aV\u0254
asba(imorph
Morph
p144
(dp145
g76
(lp146
Vn
aVt
aVo
asbasS'substitution'
p147
(dp148
Vb
V\u03b2
sVd
Vl
sVg
V\u0263
ssb.