ccopy_reg
_reconstructor
p1
(csolution
AlternationSolution
p2
c__builtin__
object
p3
NtRp4
(dp5
S'rules'
p6
(lp7
(irule
Rule
p8
(dp9
S'leftTriggers'
p10
(irule
Guard
p11
(dp12
S'endOfString'
p13
I00
sS'specifications'
p14
(lp15
sS'optionalEnding'
p16
I00
sS'representation'
p17
V
sS'starred'
p18
I00
sS'side'
p19
S'L'
sbsS'structuralChange'
p20
(irule
FeatureMatrix
p21
(dp22
S'featuresAndPolarities'
p23
(lp24
sg17
V[  ]
p25
sbsS'rightTriggers'
p26
(irule
Guard
p27
(dp28
g13
I00
sg14
(lp29
sg16
I00
sg17
V
sg18
I00
sg19
S'R'
sbsS'focus'
p30
(irule
FeatureMatrix
p31
(dp32
g23
(lp33
sg17
V[  ]
p34
sbsg17
V[  ] ---> [  ] /  _ 
p35
sba(irule
Rule
p36
(dp37
g10
(irule
Guard
p38
(dp39
g13
I00
sg14
(lp40
(irule
FeatureMatrix
p41
(dp42
g23
(lp43
(I00
S'palletized'
p44
tp45
a(I00
S'coronal'
p46
tp47
asg17
V[ -coronal -palletized ]
p48
sbasg16
I01
sg17
V{#,[ -coronal -palletized ]}
p49
sg18
I00
sg19
S'L'
sbsg20
(irule
ConstantPhoneme
p50
(dp51
S'p'
Vl
sbsg26
(irule
Guard
p52
(dp53
g13
I00
sg14
(lp54
sg16
I00
sg17
V
sg18
I00
sg19
S'R'
sbsg30
(irule
ConstantPhoneme
p55
(dp56
S'p'
Vr
sbsg17
Vr ---> l / {#,[ -coronal -palletized ]} _ 
p57
sbasS'substitution'
p58
(dp59
Vl
Vr
ssS'data'
p60
(lp61
(imorph
Morph
p62
(dp63
S'phonemes'
p64
(lp65
Vz
aVr
aV\u0254\u0303
p66
asba(imorph
Morph
p67
(dp68
g64
(lp69
Vn\u0303
p70
aVr
aVa
asba(imorph
Morph
p71
(dp72
g64
(lp73
Vl
aV\u0254\u0303
p74
asba(imorph
Morph
p75
(dp76
g64
(lp77
Vk
aVp
aVl
aVa
asba(imorph
Morph
p78
(dp79
g64
(lp80
Vm
aVl
aVa
aVg
aVo
aVo
asba(imorph
Morph
p81
(dp82
g64
(lp83
Vg
aVb
aVl
aVa
aVa
asba(imorph
Morph
p84
(dp85
g64
(lp86
Vl
aVo
aVl
aVo
asba(imorph
Morph
p87
(dp88
g64
(lp89
Vw
aVl
aVu
asba(imorph
Morph
p90
(dp91
g64
(lp92
V\u03b2|
p93
aVl
aVa
asba(imorph
Morph
p94
(dp95
g64
(lp96
Vs
aVr
aV\u0254\u0303
p97
asba(imorph
Morph
p98
(dp99
g64
(lp100
Vl
aVa\u0303
p101
aVk
aVl
aVe
asba(imorph
Morph
p102
(dp103
g64
(lp104
Vh
aVl
aVe
asba(imorph
Morph
p105
(dp106
g64
(lp107
Vv
aVl
aV\u0254
asba(imorph
Morph
p108
(dp109
g64
(lp110
Va
aVt
aVr
aVa
asba(imorph
Morph
p111
(dp112
g64
(lp113
Vd
aVr
aVu
asba(imorph
Morph
p114
(dp115
g64
(lp116
Vf
aVl
aVe
asba(imorph
Morph
p117
(dp118
g64
(lp119
Vg
aVl
aVa
aVm
aVa
aVa
asba(imorph
Morph
p120
(dp121
g64
(lp122
Vl
aVi
aVt
aVs
aVa
asba(imorph
Morph
p123
(dp124
g64
(lp125
Vd
aVz
aVr
aVe
asba(imorph
Morph
p126
(dp127
g64
(lp128
V\u0263
aVl
aVa
asba(imorph
Morph
p129
(dp130
g64
(lp131
Vx
aVl
aVo
aVl
aVo
aVo
asba(imorph
Morph
p132
(dp133
g64
(lp134
Vt
aVs
aVr
aVo
asba(imorph
Morph
p135
(dp136
g64
(lp137
V\u03c6|
p138
aVl
aVe
asba(imorph
Morph
p139
(dp140
g64
(lp141
Vb
aVl
aVe
aVm
aVa
asba(imorph
Morph
p142
(dp143
g64
(lp144
Vd
aV\u0254
aVl
aVe
aVl
aVe
asba(imorph
Morph
p145
(dp146
g64
(lp147
V\u014b
aVl
aV\u0254
asba(imorph
Morph
p148
(dp149
g64
(lp150
Vy
aVr
aVe
asba(imorph
Morph
p151
(dp152
g64
(lp153
Va
aVd
aVo
aVg
aVl
aVo
asba(imorph
Morph
p154
(dp155
g64
(lp156
Vk
aVp
aVl
aVu
asba(imorph
Morph
p157
(dp158
g64
(lp159
Vk
aVp
aVa
aVl
aVi
asba(imorph
Morph
p160
(dp161
g64
(lp162
Vk
aVl
aVa
aVl
aVo
asba(imorph
Morph
p163
(dp164
g64
(lp165
Va
aVt
aVr
aVa
aVk
aVp
aVo
aVe
asbasS'time'
p166
F82.427318096160889
sb.