ccopy_reg
_reconstructor
p1
(csolution
AlternationSolution
p2
c__builtin__
object
p3
NtRp4
(dp5
S'rules'
p6
(lp7
(irule
Rule
p8
(dp9
S'leftTriggers'
p10
(irule
Guard
p11
(dp12
S'endOfString'
p13
I00
sS'specifications'
p14
(lp15
sS'optionalEnding'
p16
I00
sS'representation'
p17
V
sS'starred'
p18
I00
sS'side'
p19
S'L'
sbsS'structuralChange'
p20
(irule
FeatureMatrix
p21
(dp22
S'featuresAndPolarities'
p23
(lp24
sg17
V[  ]
p25
sbsS'rightTriggers'
p26
(irule
Guard
p27
(dp28
g13
I00
sg14
(lp29
sg16
I00
sg17
V
sg18
I00
sg19
S'R'
sbsS'focus'
p30
(irule
FeatureMatrix
p31
(dp32
g23
(lp33
sg17
V[  ]
p34
sbsg17
V[  ] ---> [  ] /  _ 
p35
sba(irule
Rule
p36
(dp37
g10
(irule
Guard
p38
(dp39
g13
I00
sg14
(lp40
(irule
FeatureMatrix
p41
(dp42
g23
(lp43
(I00
S'back'
p44
tp45
asg17
V[ -back ]
p46
sbasg16
I00
sg17
g46
sg18
I00
sg19
S'L'
sbsg20
(irule
FeatureMatrix
p47
(dp48
g23
(lp49
(I00
S'lateral'
p50
tp51
asg17
V[ -lateral ]
p52
sbsg26
(irule
Guard
p53
(dp54
g13
I00
sg14
(lp55
sg16
I00
sg17
V
sg18
I00
sg19
S'R'
sbsg30
(irule
FeatureMatrix
p56
(dp57
g23
(lp58
sg17
V[  ]
p59
sbsg17
V[  ] ---> [ -lateral ] / [ -back ] _ 
p60
sbasS'substitution'
p61
(dp62
Vr
Vl
ssS'data'
p63
(lp64
(imorph
Morph
p65
(dp66
S'phonemes'
p67
(lp68
Vk
aVo
aVl
aVa
asba(imorph
Morph
p69
(dp70
g67
(lp71
Vl
aVw
aVa
aVn
aVa
asba(imorph
Morph
p72
(dp73
g67
(lp74
Vb
aVu
aVu
aVl
aVi
aVr
aVa
asba(imorph
Morph
p75
(dp76
g67
(lp77
Vl
aVj
aVa
asba(imorph
Morph
p78
(dp79
g67
(lp80
Vl
aVu
aVu
aVl
aVa
asba(imorph
Morph
p81
(dp82
g67
(lp83
Vo
aVm
aVu
aVg
aVo
aVl
aVe
asba(imorph
Morph
p84
(dp85
g67
(lp86
Vl
aVu
aVm
aVo
aVn
aVd
aVe
asba(imorph
Morph
p87
(dp88
g67
(lp89
Ve
aVd
aVd
aVw
aVa
aVl
aVi
aVr
aVo
asba(imorph
Morph
p90
(dp91
g67
(lp92
Vo
aVl
aVu
aVg
aVa
aVn
aVd
aVa
asba(imorph
Morph
p93
(dp94
g67
(lp95
Vo
aVl
aVu
aVl
aVi
aVm
aVi
asba(imorph
Morph
p96
(dp97
g67
(lp98
Vw
aVu
aVl
aVi
aVr
aVa
asba(imorph
Morph
p99
(dp100
g67
(lp101
Vb
aVe
aVe
aVr
aVa
asba(imorph
Morph
p102
(dp103
g67
(lp104
Vj
aVj
aVu
aVk
aVi
aVr
aVa
asba(imorph
Morph
p105
(dp106
g67
(lp107
Ve
aVr
aVj
aVa
aVt
aVo
asba(imorph
Morph
p108
(dp109
g67
(lp110
Vo
aVm
aVu
aVl
aVi
aVr
aVo
asba(imorph
Morph
p111
(dp112
g67
(lp113
Ve
aVf
aVf
aVi
aVr
aVi
aVm
aVb
aVi
asba(imorph
Morph
p114
(dp115
g67
(lp116
Ve
aVm
aVm
aVe
aVe
aVr
aVi
asba(imorph
Morph
p117
(dp118
g67
(lp119
Ve
aVr
aVa
aVd
aVd
aVu
asba(imorph
Morph
p120
(dp121
g67
(lp122
Vw
aVa
aVw
aVa
aVa
aVb
aVi
aVr
aVa
asba(imorph
Morph
p123
(dp124
g67
(lp125
Vl
aVa
aVg
aVi
aVr
aVa
asba(imorph
Morph
p126
(dp127
g67
(lp128
Ve
aVb
aVe
aVn
aVd
aVe
aVr
aVa
asba(imorph
Morph
p129
(dp130
g67
(lp131
Vl
aVe
aVe
aVr
aVw
aVe
asba(imorph
Morph
p132
(dp133
g67
(lp134
Vl
aVu
aVu
aVl
aVa
asba(imorph
Morph
p135
(dp136
g67
(lp137
Vs
aVs
aVa
aVf
aVf
aVa
aVa
aVl
aVi
asbasS'time'
p138
F59.448678970336914
sb.