ccopy_reg
_reconstructor
p1
(csolution
AlternationSolution
p2
c__builtin__
object
p3
NtRp4
(dp5
S'rules'
p6
(lp7
(irule
Rule
p8
(dp9
S'leftTriggers'
p10
(irule
Guard
p11
(dp12
S'endOfString'
p13
I00
sS'specifications'
p14
(lp15
(irule
ConstantPhoneme
p16
(dp17
S'p'
Vi
sbasS'optionalEnding'
p18
I00
sS'representation'
p19
Vi
sS'starred'
p20
I00
sS'side'
p21
S'L'
sbsS'structuralChange'
p22
(irule
ConstantPhoneme
p23
(dp24
S'p'
Vr
sbsS'rightTriggers'
p25
(irule
Guard
p26
(dp27
g13
I00
sg14
(lp28
sg18
I00
sg19
V
sg20
I00
sg21
S'R'
sbsS'focus'
p29
(irule
ConstantPhoneme
p30
(dp31
S'p'
Vl
sbsg19
Vl ---> r / i _ 
p32
sba(irule
Rule
p33
(dp34
g10
(irule
Guard
p35
(dp36
g13
I00
sg14
(lp37
(irule
ConstantPhoneme
p38
(dp39
S'p'
Ve
sbasg18
I00
sg19
Ve
sg20
I00
sg21
S'L'
sbsg22
(irule
ConstantPhoneme
p40
(dp41
S'p'
Vr
sbsg25
(irule
Guard
p42
(dp43
g13
I00
sg14
(lp44
sg18
I00
sg19
V
sg20
I00
sg21
S'R'
sbsg29
(irule
ConstantPhoneme
p45
(dp46
S'p'
Vl
sbsg19
Vl ---> r / e _ 
p47
sbasS'substitution'
p48
(dp49
Vr
Vl
ssS'data'
p50
(lp51
(imorph
Morph
p52
(dp53
S'phonemes'
p54
(lp55
Vk
aVo
aVl
aVa
asba(imorph
Morph
p56
(dp57
g54
(lp58
Vl
aVw
aVa
aVn
aVa
asba(imorph
Morph
p59
(dp60
g54
(lp61
Vb
aVu
aVu
aVl
aVi
aVr
aVa
asba(imorph
Morph
p62
(dp63
g54
(lp64
Vl
aVj
aVa
asba(imorph
Morph
p65
(dp66
g54
(lp67
Vl
aVu
aVu
aVl
aVa
asba(imorph
Morph
p68
(dp69
g54
(lp70
Vo
aVm
aVu
aVg
aVo
aVl
aVe
asba(imorph
Morph
p71
(dp72
g54
(lp73
Vl
aVu
aVm
aVo
aVn
aVd
aVe
asba(imorph
Morph
p74
(dp75
g54
(lp76
Ve
aVd
aVd
aVw
aVa
aVl
aVi
aVr
aVo
asba(imorph
Morph
p77
(dp78
g54
(lp79
Vo
aVl
aVu
aVg
aVa
aVn
aVd
aVa
asba(imorph
Morph
p80
(dp81
g54
(lp82
Vo
aVl
aVu
aVl
aVi
aVm
aVi
asba(imorph
Morph
p83
(dp84
g54
(lp85
Vw
aVu
aVl
aVi
aVr
aVa
asba(imorph
Morph
p86
(dp87
g54
(lp88
Vb
aVe
aVe
aVr
aVa
asba(imorph
Morph
p89
(dp90
g54
(lp91
Vj
aVj
aVu
aVk
aVi
aVr
aVa
asba(imorph
Morph
p92
(dp93
g54
(lp94
Ve
aVr
aVj
aVa
aVt
aVo
asba(imorph
Morph
p95
(dp96
g54
(lp97
Vo
aVm
aVu
aVl
aVi
aVr
aVo
asba(imorph
Morph
p98
(dp99
g54
(lp100
Ve
aVf
aVf
aVi
aVr
aVi
aVm
aVb
aVi
asba(imorph
Morph
p101
(dp102
g54
(lp103
Ve
aVm
aVm
aVe
aVe
aVr
aVi
asba(imorph
Morph
p104
(dp105
g54
(lp106
Ve
aVr
aVa
aVd
aVd
aVu
asba(imorph
Morph
p107
(dp108
g54
(lp109
Vw
aVa
aVw
aVa
aVa
aVb
aVi
aVr
aVa
asba(imorph
Morph
p110
(dp111
g54
(lp112
Vl
aVa
aVg
aVi
aVr
aVa
asba(imorph
Morph
p113
(dp114
g54
(lp115
Ve
aVb
aVe
aVn
aVd
aVe
aVr
aVa
asba(imorph
Morph
p116
(dp117
g54
(lp118
Vl
aVe
aVe
aVr
aVw
aVe
asba(imorph
Morph
p119
(dp120
g54
(lp121
Vl
aVu
aVu
aVl
aVa
asba(imorph
Morph
p122
(dp123
g54
(lp124
Vs
aVs
aVa
aVf
aVf
aVa
aVa
aVl
aVi
asbasS'time'
p125
F36.181339025497437
sb.