ccopy_reg
_reconstructor
p1
(csolution
AlternationSolution
p2
c__builtin__
object
p3
NtRp4
(dp5
S'rules'
p6
(lp7
(irule
Rule
p8
(dp9
S'leftTriggers'
p10
(irule
Guard
p11
(dp12
S'endOfString'
p13
I00
sS'specifications'
p14
(lp15
(irule
FeatureMatrix
p16
(dp17
S'featuresAndPolarities'
p18
(lp19
sS'representation'
p20
V[  ]
p21
sbasS'optionalEnding'
p22
I00
sg20
g21
sS'starred'
p23
I00
sS'side'
p24
S'L'
sbsS'structuralChange'
p25
(irule
ConstantPhoneme
p26
(dp27
S'p'
Vr
sbsS'rightTriggers'
p28
(irule
Guard
p29
(dp30
g13
I00
sg14
(lp31
sg22
I00
sg20
V
sg23
I00
sg24
S'R'
sbsS'focus'
p32
(irule
FeatureMatrix
p33
(dp34
g18
(lp35
(I01
S'lateral'
p36
tp37
asg20
V[ +lateral ]
p38
sbsg20
V[ +lateral ] ---> r / [  ] _ 
p39
sba(irule
Rule
p40
(dp41
g10
(irule
Guard
p42
(dp43
g13
I00
sg14
(lp44
(irule
FeatureMatrix
p45
(dp46
g18
(lp47
(I00
S'alveolar'
p48
tp49
a(I00
S'alveopalatal'
p50
tp51
asg20
V[ -alveolar -alveopalatal ]
p52
sbasg22
I00
sg20
g52
sg23
I00
sg24
S'L'
sbsg25
(irule
ConstantPhoneme
p53
(dp54
S'p'
Vl
sbsg28
(irule
Guard
p55
(dp56
g13
I00
sg14
(lp57
sg22
I00
sg20
V
sg23
I00
sg24
S'R'
sbsg32
(irule
ConstantPhoneme
p58
(dp59
S'p'
Vr
sbsg20
Vr ---> l / [ -alveolar -alveopalatal ] _ 
p60
sbasS'substitution'
p61
(dp62
Vr
Vl
ssS'data'
p63
(lp64
(imorph
Morph
p65
(dp66
S'phonemes'
p67
(lp68
Va
aVg
aVb
aVl
aVe
asba(imorph
Morph
p69
(dp70
g67
(lp71
Va
aVg
aVo
aV\u014b
aVg
aVl
aVo
asba(imorph
Morph
p72
(dp73
g67
(lp74
Va
aV\u014b
aV\u0254
aVl
aVi
asba(imorph
Morph
p75
(dp76
g67
(lp77
Va
aVk
aVp
aVl
aV\u0254
asba(imorph
Morph
p78
(dp79
g67
(lp80
Vs
aVa
aVb
aVu
aVl
aV\u025b
asba(imorph
Morph
p81
(dp82
g67
(lp83
Vs
aVr
aVa
asba(imorph
Morph
p84
(dp85
g67
(lp86
Va
aVl
aV\u0254
asba(imorph
Morph
p87
(dp88
g67
(lp89
Va
aVt
aVi
aVt
aVr
aVw
aV\u025b
asba(imorph
Morph
p90
(dp91
g67
(lp92
Va
aVv
aVl
aV\u0254
asba(imorph
Morph
p93
(dp94
g67
(lp95
Vb
aVl
aVa
aVf
aVo
aVg
aVb
aVe
asba(imorph
Morph
p96
(dp97
g67
(lp98
Vd
aVr
aV\u025b
asba(imorph
Morph
p99
(dp100
g67
(lp101
Ve
aVd
aVr
aV\u0254
asba(imorph
Morph
p102
(dp103
g67
(lp104
Ve
aVx
aVl
aV\u0254
asba(imorph
Morph
p105
(dp106
g67
(lp107
Ve
aVx
aVl
aVe
asba(imorph
Morph
p108
(dp109
g67
(lp110
Vh
aVl
aV\u025b
asba(imorph
Morph
p111
(dp112
g67
(lp113
V\u014b
aVl
aV\u0254
asba(imorph
Morph
p114
(dp115
g67
(lp116
Vc\u030c
p117
aVr
aV\u0254\u0303
p118
asba(imorph
Morph
p119
(dp120
g67
(lp121
Vn\u0303
p122
aVr
aVa\u0303
p123
asba(imorph
Morph
p124
(dp125
g67
(lp126
Vk
aVl
aV\u0254
asba(imorph
Morph
p127
(dp128
g67
(lp129
Vt
aVr
aVe
asba(imorph
Morph
p130
(dp131
g67
(lp132
Vv
aVl
aVu
asba(imorph
Morph
p133
(dp134
g67
(lp135
Vl
aV\u0254
asba(imorph
Morph
p136
(dp137
g67
(lp138
Vm
aVl
aVa
asba(imorph
Morph
p139
(dp140
g67
(lp141
Vp
aVl
aVe
aVp
aVl
aVe
aVl
aVu
asba(imorph
Morph
p142
(dp143
g67
(lp144
Vw
aVl
aVa
asba(imorph
Morph
p145
(dp146
g67
(lp147
Vz
aVr
aVo
asba(imorph
Morph
p148
(dp149
g67
(lp150
Ve
aVs
aVr
aV\u0254
asba(imorph
Morph
p151
(dp152
g67
(lp153
Ve
aVt
aVr
aVo
asba(imorph
Morph
p154
(dp155
g67
(lp156
Ve
aVn\u0303
p157
aVr
aV\u0254\u0303
p158
asba(imorph
Morph
p159
(dp160
g67
(lp161
Vj\u030c
p162
aVr
aVo
asbasS'time'
p163
F108.84336400032043
sb.