ccopy_reg
_reconstructor
p1
(csolution
AlternationSolution
p2
c__builtin__
object
p3
NtRp4
(dp5
S'rules'
p6
(lp7
(irule
Rule
p8
(dp9
S'leftTriggers'
p10
(irule
Guard
p11
(dp12
S'endOfString'
p13
I00
sS'specifications'
p14
(lp15
sS'optionalEnding'
p16
I00
sS'representation'
p17
V
sS'starred'
p18
I00
sS'side'
p19
S'L'
sbsS'structuralChange'
p20
(irule
ConstantPhoneme
p21
(dp22
S'p'
VN
sbsS'rightTriggers'
p23
(irule
Guard
p24
(dp25
g13
I00
sg14
(lp26
(irule
ConstantPhoneme
p27
(dp28
S'p'
Vq
sbasg16
I00
sg17
Vq
sg18
I00
sg19
S'R'
sbsS'focus'
p29
(irule
ConstantPhoneme
p30
(dp31
S'p'
V\u014b
sbsg17
V\u014b ---> N /  _ q
p32
sba(irule
Rule
p33
(dp34
g10
(irule
Guard
p35
(dp36
g13
I00
sg14
(lp37
sg16
I00
sg17
V
sg18
I00
sg19
S'L'
sbsg20
(irule
FeatureMatrix
p38
(dp39
S'featuresAndPolarities'
p40
(lp41
sg17
V[  ]
p42
sbsg23
(irule
Guard
p43
(dp44
g13
I00
sg14
(lp45
sg16
I00
sg17
V
sg18
I00
sg19
S'R'
sbsg29
(irule
FeatureMatrix
p46
(dp47
g40
(lp48
sg17
V[  ]
p49
sbsg17
V[  ] ---> [  ] /  _ 
p50
sba(irule
Rule
p51
(dp52
g10
(irule
Guard
p53
(dp54
g13
I00
sg14
(lp55
(irule
FeatureMatrix
p56
(dp57
g40
(lp58
(I00
S'uvular'
p59
tp60
asg17
V[ -uvular ]
p61
sbasg16
I00
sg17
g61
sg18
I00
sg19
S'L'
sbsg20
(irule
ConstantPhoneme
p62
(dp63
S'p'
Vu
sbsg23
(irule
Guard
p64
(dp65
g13
I00
sg14
(lp66
sg16
I00
sg17
V
sg18
I00
sg19
S'R'
sbsg29
(irule
FeatureMatrix
p67
(dp68
g40
(lp69
(I01
S'back'
p70
tp71
asg17
V[ +back ]
p72
sbsg17
V[ +back ] ---> u / [ -uvular ] _ 
p73
sba(irule
Rule
p74
(dp75
g10
(irule
Guard
p76
(dp77
g13
I00
sg14
(lp78
sg16
I00
sg17
V
sg18
I00
sg19
S'L'
sbsg20
(irule
ConstantPhoneme
p79
(dp80
S'p'
Vo
sbsg23
(irule
Guard
p81
(dp82
g13
I00
sg14
(lp83
(irule
FeatureMatrix
p84
(dp85
g40
(lp86
(I01
g59
tp87
asg17
V[ +uvular ]
p88
sbasg16
I00
sg17
g88
sg18
I00
sg19
S'R'
sbsg29
(irule
ConstantPhoneme
p89
(dp90
S'p'
Vu
sbsg17
Vu ---> o /  _ [ +uvular ]
p91
sba(irule
Rule
p92
(dp93
g10
(irule
Guard
p94
(dp95
g13
I00
sg14
(lp96
(irule
FeatureMatrix
p97
(dp98
g40
(lp99
(I00
S'laryngeal'
p100
tp101
a(I00
g59
tp102
asg17
V[ -laryngeal -uvular ]
p103
sbasg16
I00
sg17
g103
sg18
I00
sg19
S'L'
sbsg20
(irule
ConstantPhoneme
p104
(dp105
S'p'
Vi
sbsg23
(irule
Guard
p106
(dp107
g13
I00
sg14
(lp108
sg16
I00
sg17
V
sg18
I00
sg19
S'R'
sbsg29
(irule
FeatureMatrix
p109
(dp110
g40
(lp111
(I01
S'middle'
p112
tp113
asg17
V[ +middle ]
p114
sbsg17
V[ +middle ] ---> i / [ -laryngeal -uvular ] _ 
p115
sba(irule
Rule
p116
(dp117
g10
(irule
Guard
p118
(dp119
g13
I00
sg14
(lp120
sg16
I00
sg17
V
sg18
I00
sg19
S'L'
sbsg20
(irule
ConstantPhoneme
p121
(dp122
S'p'
Ve
sbsg23
(irule
Guard
p123
(dp124
g13
I00
sg14
(lp125
(irule
FeatureMatrix
p126
(dp127
g40
(lp128
(I01
g59
tp129
asg17
V[ +uvular ]
p130
sbasg16
I00
sg17
g130
sg18
I00
sg19
S'R'
sbsg29
(irule
FeatureMatrix
p131
(dp132
g40
(lp133
(I01
S'front'
p134
tp135
asg17
V[ +front ]
p136
sbsg17
V[ +front ] ---> e /  _ [ +uvular ]
p137
sbasS'substitution'
p138
(dp139
Vi
Ve
sVu
Vo
sVN
V\u014b
ssS'data'
p140
(lp141
(imorph
Morph
p142
(dp143
S'phonemes'
p144
(lp145
Vq
aVo
aVr
aVi
asba(imorph
Morph
p146
(dp147
g144
(lp148
Vc\u030c
p149
aVo
aVX
aVl
aVu
asba(imorph
Morph
p150
(dp151
g144
(lp152
Vq
aVo
aVm
aVi
aVr
asba(imorph
Morph
p153
(dp154
g144
(lp155
Vn
aVi
aV\u014b
aVr
aVi
asba(imorph
Morph
p156
(dp157
g144
(lp158
Vm
aVo
aVq
aVo
asba(imorph
Morph
p159
(dp160
g144
(lp161
Vh
aVo
aVq
aVa
aVr
aVa
asba(imorph
Morph
p162
(dp163
g144
(lp164
Vp^h
p165
aVu
aVl
aVy
aVu
asba(imorph
Morph
p166
(dp167
g144
(lp168
Vy
aVu
aVy
aVa
aV\u014b
asba(imorph
Morph
p169
(dp170
g144
(lp171
Vt
aVu
aVl
aVy
aVu
asba(imorph
Morph
p172
(dp173
g144
(lp174
Va
aVp
aVi
asba(imorph
Morph
p175
(dp176
g144
(lp177
Vs
aVu
aVt
aVi
asba(imorph
Morph
p178
(dp179
g144
(lp180
Vo
aVN
aVq
aVo
aVy
asba(imorph
Morph
p181
(dp182
g144
(lp183
Vc\u030c
p184
aVi
aVl
aVw
aVi
asba(imorph
Morph
p185
(dp186
g144
(lp187
Vc\u030c^h
p188
aVi
aVc\u030c
p189
aVi
aV\u014b
asba(imorph
Morph
p190
(dp191
g144
(lp192
Vc\u030c^h
p193
aVa
aVN
aVq
aVa
aVy
asba(imorph
Morph
p194
(dp195
g144
(lp196
Va
aVN
aVq
aVo
aVs
aVa
aVy
asba(imorph
Morph
p197
(dp198
g144
(lp199
Vq
aVe
aVc\u030c
p200
aVu
aV\u014b
asba(imorph
Morph
p201
(dp202
g144
(lp203
Vp
aVi
aVs
aVq
aVo
asba(imorph
Morph
p204
(dp205
g144
(lp206
Vm
aVu
aVs
aVo
aVX
asba(imorph
Morph
p207
(dp208
g144
(lp209
Vc\u030c
p210
aVu
aV\u014b
aVk
aVa
asba(imorph
Morph
p211
(dp212
g144
(lp213
Vy
aVa
aVN
aVq
aVa
aV\u014b
asba(imorph
Morph
p214
(dp215
g144
(lp216
Vc\u030c
p217
aVu
aVl
aVy
aVu
asba(imorph
Morph
p218
(dp219
g144
(lp220
Vq
aVh
aVe
aVl
aVy
aVa
asba(imorph
Morph
p221
(dp222
g144
(lp223
Vq
aVe
aVN
aVq
aVo
asba(imorph
Morph
p224
(dp225
g144
(lp226
Vc\u030c
p227
aVe
aVq
aVa
aV\u014b
asba(imorph
Morph
p228
(dp229
g144
(lp230
Vq
aVa
aV\u014b
asba(imorph
Morph
p231
(dp232
g144
(lp233
Vn
aVo
aVq
aVa
asba(imorph
Morph
p234
(dp235
g144
(lp236
Vc\u030c
p237
aVa
aVx
aVr
aVa
asba(imorph
Morph
p238
(dp239
g144
(lp240
Vc\u030c
p241
aVe
aVX
aVn
aVi
aV\u014b
asba(imorph
Morph
p242
(dp243
g144
(lp244
Vs
aVo
aVX
aVt
aVa
asba(imorph
Morph
p245
(dp246
g144
(lp247
Va
aVX
aVn
aVa
asba(imorph
Morph
p248
(dp249
g144
(lp250
Vl
aVy
aVi
aVx
aVl
aVy
aVa
asba(imorph
Morph
p251
(dp252
g144
(lp253
Vq
aVo
aVs
aVa
asba(imorph
Morph
p254
(dp255
g144
(lp256
Vq
aVa
aVr
aVa
asba(imorph
Morph
p257
(dp258
g144
(lp259
Va
aVl
aVq
aVo
asba(imorph
Morph
p260
(dp261
g144
(lp262
Vs
aVe
aVN
aVq
aVa
asba(imorph
Morph
p263
(dp264
g144
(lp265
Vk
aVa
aVr
aVu
asba(imorph
Morph
p266
(dp267
g144
(lp268
Va
aVt
aVo
aVX
asba(imorph
Morph
p269
(dp270
g144
(lp271
Vq
aVa
aV\u014b
aVk
aVu
aVn
aVa
asba(imorph
Morph
p272
(dp273
g144
(lp274
Vp
aVu
aVs
aVa
aVX
asba(imorph
Morph
p275
(dp276
g144
(lp277
Vt
aVe
aVX
aVw
aVa
aVy
asba(imorph
Morph
p278
(dp279
g144
(lp280
Vc\u030c
p281
aVa
aVk
aVi
asba(imorph
Morph
p282
(dp283
g144
(lp284
Vw
aVa
aVt
aVe
aVX
asba(imorph
Morph
p285
(dp286
g144
(lp287
Va
aV\u014b
aVk
aVa
asba(imorph
Morph
p288
(dp289
g144
(lp290
Vw
aVa
aVX
aVt
aVa
aVy
asba(imorph
Morph
p291
(dp292
g144
(lp293
Vh
aVa
aVk
aVu
asba(imorph
Morph
p294
(dp295
g144
(lp296
Vw
aVa
aVq
aVa
aVy
asba(imorph
Morph
p297
(dp298
g144
(lp299
Vk
aVa
aV\u014b
aVk
aVa
asba(imorph
Morph
p300
(dp301
g144
(lp302
Vw
aVa
aVx
aVc\u030c
p303
aVa
asba(imorph
Morph
p304
(dp305
g144
(lp306
Vw
aVa
aVl
aVe
aVX
asba(imorph
Morph
p307
(dp308
g144
(lp309
Vt^h
p310
aVa
aVk
aVa
aVy
asba(imorph
Morph
p311
(dp312
g144
(lp313
Vr
aVe
aVX
aVs
aVi
aVs
aVq
aVa
asbasS'time'
p314
F321.28930997848511
sb.