ccopy_reg
_reconstructor
p1
(csolution
AlternationSolution
p2
c__builtin__
object
p3
NtRp4
(dp5
S'rules'
p6
(lp7
(irule
Rule
p8
(dp9
S'leftTriggers'
p10
(irule
Guard
p11
(dp12
S'endOfString'
p13
I00
sS'specifications'
p14
(lp15
sS'optionalEnding'
p16
I00
sS'representation'
p17
V
sS'starred'
p18
I00
sS'side'
p19
S'L'
sbsS'structuralChange'
p20
(irule
FeatureMatrix
p21
(dp22
S'featuresAndPolarities'
p23
(lp24
sg17
V[  ]
p25
sbsS'rightTriggers'
p26
(irule
Guard
p27
(dp28
g13
I00
sg14
(lp29
sg16
I00
sg17
V
sg18
I00
sg19
S'R'
sbsS'focus'
p30
(irule
FeatureMatrix
p31
(dp32
g23
(lp33
sg17
V[  ]
p34
sbsg17
V[  ] ---> [  ] /  _ 
p35
sba(irule
Rule
p36
(dp37
g10
(irule
Guard
p38
(dp39
g13
I00
sg14
(lp40
sg16
I00
sg17
V
sg18
I00
sg19
S'L'
sbsg20
(irule
FeatureMatrix
p41
(dp42
g23
(lp43
(I01
S'palletized'
p44
tp45
asg17
V[ +palletized ]
p46
sbsg26
(irule
Guard
p47
(dp48
g13
I00
sg14
(lp49
(irule
FeatureMatrix
p50
(dp51
g23
(lp52
(I00
S'back'
p53
tp54
a(I01
S'tense'
p55
tp56
asg17
V[ +tense -back ]
p57
sbasg16
I00
sg17
g57
sg18
I00
sg19
S'R'
sbsg30
(irule
FeatureMatrix
p58
(dp59
g23
(lp60
(I01
g53
tp61
asg17
V[ +back ]
p62
sbsg17
V[ +back ] ---> [ +palletized ] /  _ [ +tense -back ]
p63
sbasS'data'
p64
(lp65
(imorph
Morph
p66
(dp67
S'phonemes'
p68
(lp69
Vk
aVa
aVn
aVo
asba(imorph
Morph
p70
(dp71
g68
(lp72
Vk
aVo
aVr
aVi
asba(imorph
Morph
p73
(dp74
g68
(lp75
Vx
aVa
aVn
aVo
asba(imorph
Morph
p76
(dp77
g68
(lp78
Vx
aVo
aVr
aVi
asba(imorph
Morph
p79
(dp80
g68
(lp81
Vx^y
p82
aVi
aVn
aVo
asba(imorph
Morph
p83
(dp84
g68
(lp85
Vk^y
p86
aVi
aVn
aVo
asba(imorph
Morph
p87
(dp88
g68
(lp89
Vk
aVr
aVi
aVm
aVa
asba(imorph
Morph
p90
(dp91
g68
(lp92
Vx
aVr
aVi
aVm
aVa
asba(imorph
Morph
p93
(dp94
g68
(lp95
Vx
aVu
aVf
aVt
aVa
asba(imorph
Morph
p96
(dp97
g68
(lp98
Vk
aVu
aVf
aVe
aVt
aVa
asba(imorph
Morph
p99
(dp100
g68
(lp101
Vk
aVa
aVl
aVi
asba(imorph
Morph
p102
(dp103
g68
(lp104
Vx
aVa
aVl
aVi
asba(imorph
Morph
p105
(dp106
g68
(lp107
Vx^y
p108
aVe
aVl
aVi
asba(imorph
Morph
p109
(dp110
g68
(lp111
Vk^y
p112
aVe
aVr
aVi
asba(imorph
Morph
p113
(dp114
g68
(lp115
Vx^y
p116
aVe
aVr
aVi
asba(imorph
Morph
p117
(dp118
g68
(lp119
Vo
aVx^y
p120
aVi
asbasS'substitution'
p121
(dp122
Vx^y
p123
Vx
sVk^y
p124
Vk
ssb.