ccopy_reg
_reconstructor
p1
(csolution
AlternationSolution
p2
c__builtin__
object
p3
NtRp4
(dp5
S'rules'
p6
(lp7
(irule
Rule
p8
(dp9
S'leftTriggers'
p10
(irule
Guard
p11
(dp12
S'endOfString'
p13
I00
sS'specifications'
p14
(lp15
sS'optionalEnding'
p16
I00
sS'representation'
p17
V
sS'starred'
p18
I00
sS'side'
p19
S'L'
sbsS'structuralChange'
p20
(irule
ConstantPhoneme
p21
(dp22
S'p'
VN
sbsS'rightTriggers'
p23
(irule
Guard
p24
(dp25
g13
I00
sg14
(lp26
(irule
ConstantPhoneme
p27
(dp28
S'p'
Vq
sbasg16
I00
sg17
Vq
sg18
I00
sg19
S'R'
sbsS'focus'
p29
(irule
FeatureMatrix
p30
(dp31
S'featuresAndPolarities'
p32
(lp33
(I01
S'back'
p34
tp35
asg17
V[ +back ]
p36
sbsg17
V[ +back ] ---> N /  _ q
p37
sba(irule
Rule
p38
(dp39
g10
(irule
Guard
p40
(dp41
g13
I00
sg14
(lp42
sg16
I00
sg17
V
sg18
I00
sg19
S'L'
sbsg20
(irule
FeatureMatrix
p43
(dp44
g32
(lp45
sg17
V[  ]
p46
sbsg23
(irule
Guard
p47
(dp48
g13
I00
sg14
(lp49
sg16
I00
sg17
V
sg18
I00
sg19
S'R'
sbsg29
(irule
FeatureMatrix
p50
(dp51
g32
(lp52
sg17
V[  ]
p53
sbsg17
V[  ] ---> [  ] /  _ 
p54
sba(irule
Rule
p55
(dp56
g10
(irule
Guard
p57
(dp58
g13
I00
sg14
(lp59
(irule
ConstantPhoneme
p60
(dp61
S'p'
Vq
sbasg16
I00
sg17
Vq
sg18
I00
sg19
S'L'
sbsg20
(irule
ConstantPhoneme
p62
(dp63
S'p'
Vo
sbsg23
(irule
Guard
p64
(dp65
g13
I00
sg14
(lp66
sg16
I00
sg17
V
sg18
I00
sg19
S'R'
sbsg29
(irule
FeatureMatrix
p67
(dp68
g32
(lp69
(I01
S'rounded'
p70
tp71
asg17
V[ +rounded ]
p72
sbsg17
V[ +rounded ] ---> o / q _ 
p73
sba(irule
Rule
p74
(dp75
g10
(irule
Guard
p76
(dp77
g13
I00
sg14
(lp78
sg16
I00
sg17
V
sg18
I00
sg19
S'L'
sbsg20
(irule
ConstantPhoneme
p79
(dp80
S'p'
Vo
sbsg23
(irule
Guard
p81
(dp82
g13
I00
sg14
(lp83
(irule
FeatureMatrix
p84
(dp85
g32
(lp86
(I00
S'sonorant'
p87
tp88
a(I00
S'coronal'
p89
tp90
asg17
V[ -coronal -sonorant ]
p91
sbasg16
I00
sg17
g91
sg18
I00
sg19
S'R'
sbsg29
(irule
FeatureMatrix
p92
(dp93
g32
(lp94
(I01
g70
tp95
asg17
V[ +rounded ]
p96
sbsg17
V[ +rounded ] ---> o /  _ [ -coronal -sonorant ]
p97
sba(irule
Rule
p98
(dp99
g10
(irule
Guard
p100
(dp101
g13
I00
sg14
(lp102
sg16
I00
sg17
V
sg18
I00
sg19
S'L'
sbsg20
(irule
FeatureMatrix
p103
(dp104
g32
(lp105
sg17
V[  ]
p106
sbsg23
(irule
Guard
p107
(dp108
g13
I00
sg14
(lp109
sg16
I00
sg17
V
sg18
I00
sg19
S'R'
sbsg29
(irule
FeatureMatrix
p110
(dp111
g32
(lp112
sg17
V[  ]
p113
sbsg17
V[  ] ---> [  ] /  _ 
p114
sba(irule
Rule
p115
(dp116
g10
(irule
Guard
p117
(dp118
g13
I00
sg14
(lp119
(irule
FeatureMatrix
p120
(dp121
g32
(lp122
(I00
S'palletized'
p123
tp124
asg17
V[ -palletized ]
p125
sbasg16
I00
sg17
g125
sg18
I00
sg19
S'L'
sbsg20
(irule
FeatureMatrix
p126
(dp127
g32
(lp128
(I00
S'high'
p129
tp130
asg17
V[ -high ]
p131
sbsg23
(irule
Guard
p132
(dp133
g13
I00
sg14
(lp134
(irule
FeatureMatrix
p135
(dp136
g32
(lp137
(I00
S'anterior'
p138
tp139
asg17
V[ -anterior ]
p140
sba(irule
FeatureMatrix
p141
(dp142
g32
(lp143
(I01
S'continuant'
p144
tp145
a(I01
g34
tp146
asg17
V[ +back +continuant ]
p147
sbasg16
I00
sg17
V[ -anterior ]* [ +back +continuant ]
p148
sg18
I01
sg19
S'R'
sbsg29
(irule
FeatureMatrix
p149
(dp150
g32
(lp151
(I01
g87
tp152
asg17
V[ +sonorant ]
p153
sbsg17
V[ +sonorant ] ---> [ -high ] / [ -palletized ] _ [ -anterior ]* [ +back +continuant ]
p154
sbasS'data'
p155
(lp156
(imorph
Morph
p157
(dp158
S'phonemes'
p159
(lp160
Vq
aVo
aVr
aVi
asba(imorph
Morph
p161
(dp162
g159
(lp163
Vc\u030c
p164
aVo
aVX
aVl
aVu
asba(imorph
Morph
p165
(dp166
g159
(lp167
Vq
aVo
aVm
aVi
aVr
asba(imorph
Morph
p168
(dp169
g159
(lp170
Vn
aVi
aV\u014b
aVr
aVi
asba(imorph
Morph
p171
(dp172
g159
(lp173
Vm
aVo
aVq
aVo
asba(imorph
Morph
p174
(dp175
g159
(lp176
Vh
aVo
aVq
aVa
aVr
aVa
asba(imorph
Morph
p177
(dp178
g159
(lp179
Vp^h
p180
aVu
aVl
aVy
aVu
asba(imorph
Morph
p181
(dp182
g159
(lp183
Vy
aVu
aVy
aVa
aV\u014b
asba(imorph
Morph
p184
(dp185
g159
(lp186
Vt
aVu
aVl
aVy
aVu
asba(imorph
Morph
p187
(dp188
g159
(lp189
Va
aVp
aVi
asba(imorph
Morph
p190
(dp191
g159
(lp192
Vs
aVu
aVt
aVi
asba(imorph
Morph
p193
(dp194
g159
(lp195
Vo
aVN
aVq
aVo
aVy
asba(imorph
Morph
p196
(dp197
g159
(lp198
Vc\u030c
p199
aVi
aVl
aVw
aVi
asba(imorph
Morph
p200
(dp201
g159
(lp202
Vc\u030c^h
p203
aVi
aVc\u030c
p204
aVi
aV\u014b
asba(imorph
Morph
p205
(dp206
g159
(lp207
Vc\u030c^h
p208
aVa
aVN
aVq
aVa
aVy
asba(imorph
Morph
p209
(dp210
g159
(lp211
Va
aVN
aVq
aVo
aVs
aVa
aVy
asba(imorph
Morph
p212
(dp213
g159
(lp214
Vq
aVe
aVc\u030c
p215
aVu
aV\u014b
asba(imorph
Morph
p216
(dp217
g159
(lp218
Vp
aVi
aVs
aVq
aVo
asba(imorph
Morph
p219
(dp220
g159
(lp221
Vm
aVu
aVs
aVo
aVX
asba(imorph
Morph
p222
(dp223
g159
(lp224
Vc\u030c
p225
aVu
aV\u014b
aVk
aVa
asba(imorph
Morph
p226
(dp227
g159
(lp228
Vy
aVa
aVN
aVq
aVa
aV\u014b
asba(imorph
Morph
p229
(dp230
g159
(lp231
Vc\u030c
p232
aVu
aVl
aVy
aVu
asba(imorph
Morph
p233
(dp234
g159
(lp235
Vq
aVh
aVe
aVl
aVy
aVa
asba(imorph
Morph
p236
(dp237
g159
(lp238
Vq
aVe
aVN
aVq
aVo
asba(imorph
Morph
p239
(dp240
g159
(lp241
Vc\u030c
p242
aVe
aVq
aVa
aV\u014b
asba(imorph
Morph
p243
(dp244
g159
(lp245
Vq
aVa
aV\u014b
asba(imorph
Morph
p246
(dp247
g159
(lp248
Vn
aVo
aVq
aVa
asba(imorph
Morph
p249
(dp250
g159
(lp251
Vc\u030c
p252
aVa
aVx
aVr
aVa
asba(imorph
Morph
p253
(dp254
g159
(lp255
Vc\u030c
p256
aVe
aVX
aVn
aVi
aV\u014b
asba(imorph
Morph
p257
(dp258
g159
(lp259
Vs
aVo
aVX
aVt
aVa
asba(imorph
Morph
p260
(dp261
g159
(lp262
Va
aVX
aVn
aVa
asba(imorph
Morph
p263
(dp264
g159
(lp265
Vl
aVy
aVi
aVx
aVl
aVy
aVa
asba(imorph
Morph
p266
(dp267
g159
(lp268
Vq
aVo
aVs
aVa
asba(imorph
Morph
p269
(dp270
g159
(lp271
Vq
aVa
aVr
aVa
asba(imorph
Morph
p272
(dp273
g159
(lp274
Va
aVl
aVq
aVo
asba(imorph
Morph
p275
(dp276
g159
(lp277
Vs
aVe
aVN
aVq
aVa
asba(imorph
Morph
p278
(dp279
g159
(lp280
Vk
aVa
aVr
aVu
asba(imorph
Morph
p281
(dp282
g159
(lp283
Va
aVt
aVo
aVX
asba(imorph
Morph
p284
(dp285
g159
(lp286
Vq
aVa
aV\u014b
aVk
aVu
aVn
aVa
asba(imorph
Morph
p287
(dp288
g159
(lp289
Vp
aVu
aVs
aVa
aVX
asba(imorph
Morph
p290
(dp291
g159
(lp292
Vt
aVe
aVX
aVw
aVa
aVy
asba(imorph
Morph
p293
(dp294
g159
(lp295
Vc\u030c
p296
aVa
aVk
aVi
asba(imorph
Morph
p297
(dp298
g159
(lp299
Vw
aVa
aVt
aVe
aVX
asba(imorph
Morph
p300
(dp301
g159
(lp302
Va
aV\u014b
aVk
aVa
asba(imorph
Morph
p303
(dp304
g159
(lp305
Vw
aVa
aVX
aVt
aVa
aVy
asba(imorph
Morph
p306
(dp307
g159
(lp308
Vh
aVa
aVk
aVu
asba(imorph
Morph
p309
(dp310
g159
(lp311
Vw
aVa
aVq
aVa
aVy
asba(imorph
Morph
p312
(dp313
g159
(lp314
Vk
aVa
aV\u014b
aVk
aVa
asba(imorph
Morph
p315
(dp316
g159
(lp317
Vw
aVa
aVx
aVc\u030c
p318
aVa
asba(imorph
Morph
p319
(dp320
g159
(lp321
Vw
aVa
aVl
aVe
aVX
asba(imorph
Morph
p322
(dp323
g159
(lp324
Vt^h
p325
aVa
aVk
aVa
aVy
asba(imorph
Morph
p326
(dp327
g159
(lp328
Vr
aVe
aVX
aVs
aVi
aVs
aVq
aVa
asbasS'substitution'
p329
(dp330
Ve
Vi
sVo
Vu
sVN
V\u014b
ssb.