ccopy_reg
_reconstructor
p1
(csolution
AlternationSolution
p2
c__builtin__
object
p3
NtRp4
(dp5
S'rules'
p6
(lp7
(irule
Rule
p8
(dp9
S'leftTriggers'
p10
(irule
Guard
p11
(dp12
S'endOfString'
p13
I00
sS'specifications'
p14
(lp15
sS'optionalEnding'
p16
I00
sS'representation'
p17
V
sS'starred'
p18
I00
sS'side'
p19
S'L'
sbsS'structuralChange'
p20
(irule
FeatureMatrix
p21
(dp22
S'featuresAndPolarities'
p23
(lp24
(I00
S'high'
p25
tp26
asg17
V[ -high ]
p27
sbsS'rightTriggers'
p28
(irule
Guard
p29
(dp30
g13
I00
sg14
(lp31
(irule
FeatureMatrix
p32
(dp33
g23
(lp34
(I00
g25
tp35
asg17
V[ -high ]
p36
sbasg16
I00
sg17
g36
sg18
I00
sg19
S'R'
sbsS'focus'
p37
(irule
ConstantPhoneme
p38
(dp39
S'p'
Vg
sbsg17
Vg ---> [ -high ] /  _ [ -high ]
p40
sba(irule
Rule
p41
(dp42
g10
(irule
Guard
p43
(dp44
g13
I00
sg14
(lp45
sg16
I00
sg17
V
sg18
I00
sg19
S'L'
sbsg20
(irule
FeatureMatrix
p46
(dp47
g23
(lp48
(I00
S'sonorant'
p49
tp50
a(I00
g25
tp51
asg17
V[ -high -sonorant ]
p52
sbsg28
(irule
Guard
p53
(dp54
g13
I00
sg14
(lp55
(irule
FeatureMatrix
p56
(dp57
g23
(lp58
(I01
S'back'
p59
tp60
a(I00
g25
tp61
asg17
V[ +back -high ]
p62
sbasg16
I00
sg17
g62
sg18
I00
sg19
S'R'
sbsg37
(irule
FeatureMatrix
p63
(dp64
g23
(lp65
(I01
g25
tp66
asg17
V[ +high ]
p67
sbsg17
V[ +high ] ---> [ -high -sonorant ] /  _ [ +back -high ]
p68
sba(irule
Rule
p69
(dp70
g10
(irule
Guard
p71
(dp72
g13
I00
sg14
(lp73
sg16
I00
sg17
V
sg18
I00
sg19
S'L'
sbsg20
(irule
FeatureMatrix
p74
(dp75
g23
(lp76
sg17
V[  ]
p77
sbsg28
(irule
Guard
p78
(dp79
g13
I00
sg14
(lp80
sg16
I00
sg17
V
sg18
I00
sg19
S'R'
sbsg37
(irule
FeatureMatrix
p81
(dp82
g23
(lp83
sg17
V[  ]
p84
sbsg17
V[  ] ---> [  ] /  _ 
p85
sba(irule
Rule
p86
(dp87
g10
(irule
Guard
p88
(dp89
g13
I00
sg14
(lp90
(irule
FeatureMatrix
p91
(dp92
g23
(lp93
(I00
S'continuant'
p94
tp95
asg17
V[ -continuant ]
p96
sbasg16
I00
sg17
g96
sg18
I00
sg19
S'L'
sbsg20
(irule
FeatureMatrix
p97
(dp98
g23
(lp99
(I01
S'voice'
p100
tp101
asg17
V[ +voice ]
p102
sbsg28
(irule
Guard
p103
(dp104
g13
I00
sg14
(lp105
sg16
I00
sg17
V
sg18
I00
sg19
S'R'
sbsg37
(irule
FeatureMatrix
p106
(dp107
g23
(lp108
(I00
S'coronal'
p109
tp110
asg17
V[ -coronal ]
p111
sbsg17
V[ -coronal ] ---> [ +voice ] / [ -continuant ] _ 
p112
sbasS'data'
p113
(lp114
(imorph
Morph
p115
(dp116
S'phonemes'
p117
(lp118
Va
aV\u014b
aVg
aVu
asba(imorph
Morph
p119
(dp120
g117
(lp121
Va
aV\u014b
aVt\u0323
p122
aVa\u0303
p123
aVa\u0303
p124
asba(imorph
Morph
p125
(dp126
g117
(lp127
Va
aV\u014b
aVb
aVa
asba(imorph
Morph
p128
(dp129
g117
(lp130
Va
aVp
aVs
aVo
aVo
asba(imorph
Morph
p131
(dp132
g117
(lp133
Va
aVm
aVc\u030c
p134
aV\u0254
aV\u0254
asba(imorph
Morph
p135
(dp136
g117
(lp137
Vt
aVu
aVk
aVt\u0323
p138
aVu\u0308
p139
aVu\u0308
p140
asba(imorph
Morph
p141
(dp142
g117
(lp143
Va
aVm
aVt
aVo
asba(imorph
Morph
p144
(dp145
g117
(lp146
V\u0268
aV\u0263
aVu
asba(imorph
Morph
p147
(dp148
g117
(lp149
V\u0268
aVm
aVc\u030c
p150
aVi
asba(imorph
Morph
p151
(dp152
g117
(lp153
Vu
aVt\u0323
p154
aV\u0268
asba(imorph
Morph
p155
(dp156
g117
(lp157
Vu
aV\u03b2
aV\u0269
aV\u0269
asba(imorph
Morph
p158
(dp159
g117
(lp160
Ve
aVa
asba(imorph
Morph
p161
(dp162
g117
(lp163
Ve
aVm
aVb
aVo
asba(imorph
Morph
p164
(dp165
g117
(lp166
V\u028a
aV\u028a
aVt
aVs
aVi
asba(imorph
Morph
p167
(dp168
g117
(lp169
Vq
aVa
asba(imorph
Morph
p170
(dp171
g117
(lp172
Vq
aVa
aVa
asba(imorph
Morph
p173
(dp174
g117
(lp175
Vq
aVa
aV\u014b
aVb
aVa
asba(imorph
Morph
p176
(dp177
g117
(lp178
Vq
aVa
aVm
aVb
aVa
asba(imorph
Morph
p179
(dp180
g117
(lp181
Vq
aVa
aVm
asba(imorph
Morph
p182
(dp183
g117
(lp184
Vq
aVa
aVm
aVt
aVo
aVo
asba(imorph
Morph
p185
(dp186
g117
(lp187
Vq
aVa
aVa
aV\u03b2
aVo
asba(imorph
Morph
p188
(dp189
g117
(lp190
Vk
aV\u0268
aVk
aVt\u0323
p191
aVi
asba(imorph
Morph
p192
(dp193
g117
(lp194
Vk
aV\u0268
aV\u03b2
aVu
asba(imorph
Morph
p195
(dp196
g117
(lp197
Vk
aV\u0268
aV\u0268
aV\u014b
aVg
aVu
aVu
asba(imorph
Morph
p198
(dp199
g117
(lp200
Vk
aVi
aVk
asba(imorph
Morph
p201
(dp202
g117
(lp203
Vk
aVi
aVt\u0323
p204
aVu
aVu
asba(imorph
Morph
p205
(dp206
g117
(lp207
Vk
aV\u0269
aV\u0269
aVc
aVu
aVu
asba(imorph
Morph
p208
(dp209
g117
(lp210
Vk
aV\u0269
aV\u0269
aVr
aVi
aVi
asba(imorph
Morph
p211
(dp212
g117
(lp213
Vk
aVi
aVi
aV\u0263
aVu
aVu
asba(imorph
Morph
p214
(dp215
g117
(lp216
Vk
aVu
asba(imorph
Morph
p217
(dp218
g117
(lp219
Vk
aVu
aVp
aVc
aV\u0268
asba(imorph
Morph
p220
(dp221
g117
(lp222
Vk
aVu
aVp
aVc
aVa
aVa
asba(imorph
Morph
p223
(dp224
g117
(lp225
Vk
aV\u025b
aVn
aVc
aVa
asba(imorph
Morph
p226
(dp227
g117
(lp228
Vk
aV\u025b
aVm
aVb
aVo
asba(imorph
Morph
p229
(dp230
g117
(lp231
Vk
aVe
aV\u0263
aVo\u0308
p232
aVo\u0308
p233
asba(imorph
Morph
p234
(dp235
g117
(lp236
Vk
aVe
aVr
aV\u03b2
aVa
asba(imorph
Morph
p237
(dp238
g117
(lp239
Vq
aVo
asba(imorph
Morph
p240
(dp241
g117
(lp242
Vq
aVo
aVm
aVb
aVa
asba(imorph
Morph
p243
(dp244
g117
(lp245
Vq
aV\u0254
aVr
asba(imorph
Morph
p246
(dp247
g117
(lp248
Vq
aV\u0254
aV\u0254
aV\u0254
aV\u0254
asba(imorph
Morph
p249
(dp250
g117
(lp251
Vc\u030c^h
p252
aVe
aVa
asba(imorph
Morph
p253
(dp254
g117
(lp255
Vc\u030c^h
p256
aVu
aV\u0263
aVu
aVm
asba(imorph
Morph
p257
(dp258
g117
(lp259
Vt
aVo
aVp
aVc
aVa
aVa
asba(imorph
Morph
p260
(dp261
g117
(lp262
Vt^h
p263
aVo
aVo\u0303
p264
aVo\u0303
p265
asba(imorph
Morph
p266
(dp267
g117
(lp268
Vt\u0323
p269
aVa
aVa
aVa\u0303
p270
aVa\u0303
p271
asba(imorph
Morph
p272
(dp273
g117
(lp274
Vt\u0323
p275
aVu
aV\u0263
aV\u0268
asba(imorph
Morph
p276
(dp277
g117
(lp278
Vt\u0323
p279
aVu
aVN
aVG
aVo
asba(imorph
Morph
p280
(dp281
g117
(lp282
Vn
aV\u025b
aVN
aVG
aVa
aVa
asba(imorph
Morph
p283
(dp284
g117
(lp285
Vp
aVa
aVN
aVG
aV\u0254
aV\u0254
asba(imorph
Morph
p286
(dp287
g117
(lp288
Vp
aV\u025b
aV\u025b
aV\u03b2
aVa\u0303
p289
aVa\u0303
p290
asba(imorph
Morph
p291
(dp292
g117
(lp293
Vs
aVi
aVm
aVG
aVa\u0303
p294
aVa\u0303
p295
asbasS'substitution'
p296
(dp297
Vb
Vp
sVd
Vt
sVg
Vk
sVG
Vg
sVd\u0323
p298
Vt\u0323
p299
sVN
V\u014b
sVq
Vk
ssb.