ccopy_reg
_reconstructor
p1
(csolution
AlternationSolution
p2
c__builtin__
object
p3
NtRp4
(dp5
S'rules'
p6
(lp7
(irule
Rule
p8
(dp9
S'leftTriggers'
p10
(irule
Guard
p11
(dp12
S'endOfString'
p13
I00
sS'specifications'
p14
(lp15
(irule
FeatureMatrix
p16
(dp17
S'featuresAndPolarities'
p18
(lp19
(I00
S'anterior'
p20
tp21
a(I00
S'liquid'
p22
tp23
a(I00
S'back'
p24
tp25
asS'representation'
p26
V[ -anterior -back -liquid ]
p27
sbasS'optionalEnding'
p28
I00
sg26
g27
sS'starred'
p29
I00
sS'side'
p30
S'L'
sbsS'structuralChange'
p31
(irule
ConstantPhoneme
p32
(dp33
S'p'
V\u025b
sbsS'rightTriggers'
p34
(irule
Guard
p35
(dp36
g13
I00
sg14
(lp37
sg28
I00
sg26
V
sg29
I00
sg30
S'R'
sbsS'focus'
p38
(irule
FeatureMatrix
p39
(dp40
g18
(lp41
(I01
S'vowel'
p42
tp43
asg26
V[ +vowel ]
p44
sbsg26
V[ +vowel ] ---> \u025b / [ -anterior -back -liquid ] _ 
p45
sba(irule
Rule
p46
(dp47
g10
(irule
Guard
p48
(dp49
g13
I00
sg14
(lp50
sg28
I00
sg26
V
sg29
I00
sg30
S'L'
sbsg31
(irule
FeatureMatrix
p51
(dp52
g18
(lp53
sg26
V[  ]
p54
sbsg34
(irule
Guard
p55
(dp56
g13
I00
sg14
(lp57
sg28
I00
sg26
V
sg29
I00
sg30
S'R'
sbsg38
(irule
FeatureMatrix
p58
(dp59
g18
(lp60
sg26
V[  ]
p61
sbsg26
V[  ] ---> [  ] /  _ 
p62
sbasS'data'
p63
(lp64
(imorph
Morph
p65
(dp66
S'phonemes'
p67
(lp68
Vf
aV\u0259
aVr
aV\u0259
aVs
asba(imorph
Morph
p69
(dp70
g67
(lp71
Vt
aV\u0259
aVn
aV\u0259
aVs
aVa
asba(imorph
Morph
p72
(dp73
g67
(lp74
Vy
aV\u025b
aVl
aV\u0268
aV\u0161
aVl
aV\u0268
aV\u0161
asba(imorph
Morph
p75
(dp76
g67
(lp77
Vm
aVa
aVy
aV\u025b
aVt
asba(imorph
Morph
p78
(dp79
g67
(lp80
Vg
aV\u0259
aVn
aVz
aV\u0259
aVb
asba(imorph
Morph
p81
(dp82
g67
(lp83
V\u0161
aV\u025b
aVg
aVn
aVa
asba(imorph
Morph
p84
(dp85
g67
(lp86
Vn
aV\u0259
aVn\u0303
p87
asba(imorph
Morph
p88
(dp89
g67
(lp90
Vm
aV\u0259
aVw
aVd
aV\u0259
aVd
asba(imorph
Morph
p91
(dp92
g67
(lp93
Vm
aV\u0259
aVn
aVn
aV\u0259
aVs
aVa
aVt
asba(imorph
Morph
p94
(dp95
g67
(lp96
Vm
aV\u0259
aVm
aVk
aV\u0259
aVr
asba(imorph
Morph
p97
(dp98
g67
(lp99
Vz\u030c
p100
aV\u025b
aVl
aVe
asba(imorph
Morph
p101
(dp102
g67
(lp103
Vy
aV\u025b
aVl
aVl
aV\u0259
aVm
asba(imorph
Morph
p104
(dp105
g67
(lp106
Vm
aV\u0259
aVc\u030c
p107
asba(imorph
Morph
p108
(dp109
g67
(lp110
Vm
aV\u0259
aVs
aVt
aV\u0259
aVt
asba(imorph
Morph
p111
(dp112
g67
(lp113
Vf
aV\u0259
aVl
aVl
aV\u0259
aVg
aV\u0259
asba(imorph
Morph
p114
(dp115
g67
(lp116
Va
aVg
aV\u0259
aVn\u0303
p117
aVn\u0303
p118
aV\u025b
asba(imorph
Morph
p119
(dp120
g67
(lp121
Vt
aV\u0259
aVm
aV\u0259
aVc\u030c
p122
aVc\u030c
p123
aV\u025b
asba(imorph
Morph
p124
(dp125
g67
(lp126
Vm
aVo
aVk
aVk
aV\u0259
aVr
aV\u0259
asba(imorph
Morph
p127
(dp128
g67
(lp129
Vk
aVa
aVz\u030c
p130
aVz\u030c
p131
aV\u025b
asba(imorph
Morph
p132
(dp133
g67
(lp134
Vz\u030c
p135
aV\u025b
aVm
aVm
aV\u0259
aVr
aV\u0259
asba(imorph
Morph
p136
(dp137
g67
(lp138
Vl
aVa
aVc\u030c
p139
aVc\u030c
p140
aV\u025b
asba(imorph
Morph
p141
(dp142
g67
(lp143
Va
aV\u0161
aV\u0161
aV\u025b
asba(imorph
Morph
p144
(dp145
g67
(lp146
Vb
aV\u0259
aVk
aVk
aV\u0259
aVl
aV\u0259
asba(imorph
Morph
p147
(dp148
g67
(lp149
V\u0161
aV\u025b
aVm
aV\u0259
aVg
aVg
aV\u0259
aVl
aV\u0259
asbasS'substitution'
p150
(dp151
V\u025b
V\u0259
ssb.