ccopy_reg
_reconstructor
p1
(csolution
AlternationSolution
p2
c__builtin__
object
p3
NtRp4
(dp5
S'rules'
p6
(lp7
(irule
Rule
p8
(dp9
S'leftTriggers'
p10
(irule
Guard
p11
(dp12
S'endOfString'
p13
I00
sS'specifications'
p14
(lp15
(irule
FeatureMatrix
p16
(dp17
S'featuresAndPolarities'
p18
(lp19
(I00
S'vowel'
p20
tp21
asS'representation'
p22
V[ -vowel ]
p23
sbasS'optionalEnding'
p24
I00
sg22
g23
sS'starred'
p25
I00
sS'side'
p26
S'L'
sbsS'structuralChange'
p27
(irule
FeatureMatrix
p28
(dp29
g18
(lp30
(I01
S'anterior'
p31
tp32
a(I00
S'liquid'
p33
tp34
a(I00
S'continuant'
p35
tp36
a(I00
S'sonorant'
p37
tp38
asg22
V[ +anterior -continuant -liquid -sonorant ]
p39
sbsS'rightTriggers'
p40
(irule
Guard
p41
(dp42
g13
I00
sg14
(lp43
sg24
I00
sg22
V
sg25
I00
sg26
S'R'
sbsS'focus'
p44
(irule
FeatureMatrix
p45
(dp46
g18
(lp47
(I00
S'glide'
p48
tp49
a(I00
S'back'
p50
tp51
a(I00
g20
tp52
asg22
V[ -back -glide -vowel ]
p53
sbsg22
V[ -back -glide -vowel ] ---> [ +anterior -continuant -liquid -sonorant ] / [ -vowel ] _ 
p54
sba(irule
Rule
p55
(dp56
g10
(irule
Guard
p57
(dp58
g13
I00
sg14
(lp59
(irule
ConstantPhoneme
p60
(dp61
S'p'
V\u014b
sbasg24
I00
sg22
V\u014b
sg25
I00
sg26
S'L'
sbsg27
(irule
FeatureMatrix
p62
(dp63
g18
(lp64
(I00
g35
tp65
asg22
V[ -continuant ]
p66
sbsg40
(irule
Guard
p67
(dp68
g13
I00
sg14
(lp69
sg24
I00
sg22
V
sg25
I00
sg26
S'R'
sbsg44
(irule
FeatureMatrix
p70
(dp71
g18
(lp72
sg22
V[  ]
p73
sbsg22
V[  ] ---> [ -continuant ] / \u014b _ 
p74
sbasS'substitution'
p75
(dp76
Vb
V\u03b2
sVd
Vr
sVg
V\u0263
ssS'data'
p77
(lp78
(imorph
Morph
p79
(dp80
S'phonemes'
p81
(lp82
Va
aV\u03b2
aVa
aVa\u0301
p83
aVn
aVt
aVo
asba(imorph
Morph
p84
(dp85
g81
(lp86
Va
aV\u03b2
aVa
aVm
aVu\u0301
p87
aVr
aVa
asba(imorph
Morph
p88
(dp89
g81
(lp90
Va
aVm
aVa
aVh
aVi\u0301
p91
aVi\u0301
p92
aVn
aVd
aVi
asba(imorph
Morph
p93
(dp94
g81
(lp95
Va
aVm
aVa
aVk
aV\u025b\u0301
p96
aV\u025b\u0301
p97
aVn
aVd
aV\u0254
asba(imorph
Morph
p98
(dp99
g81
(lp100
Ve
aV\u03b2
aVa\u030c
p101
asba(imorph
Morph
p102
(dp103
g81
(lp104
Ve
aVe
aV\u014b
aVg
aVw
aVe\u0301
p105
asba(imorph
Morph
p106
(dp107
g81
(lp108
Ve
aV\u0263
aVa\u030c
p109
asba(imorph
Morph
p110
(dp111
g81
(lp112
Ve
aVk
aVe
aV\u03b2
aVw
aV\u025b\u0301
p113
asba(imorph
Morph
p114
(dp115
g81
(lp116
Vh
aVo
aVo
aVr
aVa\u0301
p117
asba(imorph
Morph
p118
(dp119
g81
(lp120
Vi
aV\u03b2
aVi
aV\u0263
aVu\u0301
p121
aVr
aVu\u0301
p122
aV\u03b2
aVe
asba(imorph
Morph
p123
(dp124
g81
(lp125
Vi
aV\u03b2
aVi
aVr
aVu\u0301
p126
aVu\u0301
p127
aV\u014b
aVg
aVu\u0301
p128
aVu
aVr
aVi
asba(imorph
Morph
p129
(dp130
g81
(lp131
Vu
aV\u0263
aVu
aVs
aVi\u0301
p132
aVr
aVi
asba(imorph
Morph
p133
(dp134
g81
(lp135
V\u03b2
aVa\u0301
p136
aVi
aVn
aVu
asba(imorph
Morph
p137
(dp138
g81
(lp139
V\u03b2
aVo
aVr
aVy
aVo\u0301
p140
asba(imorph
Morph
p141
(dp142
g81
(lp143
Vi
aVc\u030c
p144
aVi
aVi
aV\u014b
aVg
aV\u025b\u0301
p145
aVn
aVa
asba(imorph
Morph
p146
(dp147
g81
(lp148
Vi
aVc\u030c
p149
aVi
aVi
aV\u014b
aVg
aVu\u0301
p150
aVr
aVu\u0301
p151
aV\u03b2
aVe
asba(imorph
Morph
p152
(dp153
g81
(lp154
V\u0263
aVa
aV\u03b2
aVa\u030c
p155
asba(imorph
Morph
p156
(dp157
g81
(lp158
Vi
aVc\u030c
p159
aVi
aVi
aV\u014b
aVg
aVu\u0301
p160
aVt
aVa
asba(imorph
Morph
p161
(dp162
g81
(lp163
V\u03b2
aV\u025b
aVr
aV\u025b
aVk
aVa\u0301
p164
asba(imorph
Morph
p165
(dp166
g81
(lp167
Vi
aV\u0263
aVi
aVt
aVu\u0301
p168
aVu\u0301
p169
aVm
aVb
aVe
asba(imorph
Morph
p170
(dp171
g81
(lp172
V\u0263
aVu\u0301
p173
aVu\u0301
p174
aVk
aVa\u0301
p175
asba(imorph
Morph
p176
(dp177
g81
(lp178
Vr
aVe
aVm
aVa\u030c
p179
asba(imorph
Morph
p180
(dp181
g81
(lp182
Vr
aV\u025b
aV\u025b
aVn
aVt
aVa\u0301
p183
asba(imorph
Morph
p184
(dp185
g81
(lp186
Vo
aV\u03b2
aVo
aV\u0263
aVa\u0301
p187
aVa\u0301
p188
aVk
aVa\u0301
p189
asba(imorph
Morph
p190
(dp191
g81
(lp192
Vo
aV\u03b2
aVo
aVt
aVe\u0301
p193
aVe\u0301
p194
aVn
aVd
aVe\u0301
p195
aVe\u0301
p196
aVr
aVu
asba(imorph
Morph
p197
(dp198
g81
(lp199
Vo
aVk
aVo
aV\u0263
aVe\u0301
p200
aVe\u0301
p201
aVm
aVb
aVa\u0301
p202
asba(imorph
Morph
p203
(dp204
g81
(lp205
Vo
aVk
aVo
aVo\u0301
p206
aVm
aVb
aVa\u0301
p207
aVr
aVa
asba(imorph
Morph
p208
(dp209
g81
(lp210
Vo
aVk
aVo
aV\u03b2
aVa\u0301
p211
aVr
aVa
asba(imorph
Morph
p212
(dp213
g81
(lp214
Vo
aVk
aVo
aVo\u0301
p215
aVn
aVd
aV\u0254\u0301
p216
aV\u0263
aVa
asba(imorph
Morph
p217
(dp218
g81
(lp219
Vo
aVk
aVo
aVr
aV\u0254\u0301
p220
aV\u0263
aVa
asba(imorph
Morph
p221
(dp222
g81
(lp223
Vr
aVo
aVm
aVa\u030c
p224
asba(imorph
Morph
p225
(dp226
g81
(lp227
Vt
aVe
aV\u0263
aVe
aVt
aVa\u0301
p228
asba(imorph
Morph
p229
(dp230
g81
(lp231
Vu
aVk
aVu
aVu\u0301
p232
aVm
aVb
aVu
aVu
aVr
aVy
aVa\u0301
p233
asba(imorph
Morph
p234
(dp235
g81
(lp236
Vu
aVr
aVu
aV\u0263
aVu\u0301
p237
aVt
aVa
asbasS'time'
p238
F241.97029900550842
sb.