ccopy_reg
_reconstructor
p1
(csolution
AlternationSolution
p2
c__builtin__
object
p3
NtRp4
(dp5
S'rules'
p6
(lp7
(irule
Rule
p8
(dp9
S'leftTriggers'
p10
(irule
Guard
p11
(dp12
S'endOfString'
p13
I00
sS'specifications'
p14
(lp15
sS'optionalEnding'
p16
I00
sS'representation'
p17
V
sS'starred'
p18
I00
sS'side'
p19
S'L'
sbsS'structuralChange'
p20
(irule
FeatureMatrix
p21
(dp22
S'featuresAndPolarities'
p23
(lp24
sg17
V[  ]
p25
sbsS'rightTriggers'
p26
(irule
Guard
p27
(dp28
g13
I00
sg14
(lp29
sg16
I00
sg17
V
sg18
I00
sg19
S'R'
sbsS'focus'
p30
(irule
FeatureMatrix
p31
(dp32
g23
(lp33
sg17
V[  ]
p34
sbsg17
V[  ] ---> [  ] /  _ 
p35
sba(irule
Rule
p36
(dp37
g10
(irule
Guard
p38
(dp39
g13
I00
sg14
(lp40
(irule
FeatureMatrix
p41
(dp42
g23
(lp43
(I01
S'coronal'
p44
tp45
asg17
V[ +coronal ]
p46
sbasg16
I00
sg17
g46
sg18
I00
sg19
S'L'
sbsg20
(irule
FeatureMatrix
p47
(dp48
g23
(lp49
(I00
S'lateral'
p50
tp51
asg17
V[ -lateral ]
p52
sbsg26
(irule
Guard
p53
(dp54
g13
I00
sg14
(lp55
sg16
I00
sg17
V
sg18
I00
sg19
S'R'
sbsg30
(irule
FeatureMatrix
p56
(dp57
g23
(lp58
sg17
V[  ]
p59
sbsg17
V[  ] ---> [ -lateral ] / [ +coronal ] _ 
p60
sbasS'data'
p61
(lp62
(imorph
Morph
p63
(dp64
S'phonemes'
p65
(lp66
Va
aVg
aVb
aVl
aVe
asba(imorph
Morph
p67
(dp68
g65
(lp69
Va
aVg
aVo
aV\u014b
aVg
aVl
aVo
asba(imorph
Morph
p70
(dp71
g65
(lp72
Va
aV\u014b
aV\u0254
aVl
aVi
asba(imorph
Morph
p73
(dp74
g65
(lp75
Va
aVk
aVp
aVl
aV\u0254
asba(imorph
Morph
p76
(dp77
g65
(lp78
Vs
aVa
aVb
aVu
aVl
aV\u025b
asba(imorph
Morph
p79
(dp80
g65
(lp81
Vs
aVr
aVa
asba(imorph
Morph
p82
(dp83
g65
(lp84
Va
aVl
aV\u0254
asba(imorph
Morph
p85
(dp86
g65
(lp87
Va
aVt
aVi
aVt
aVr
aVw
aV\u025b
asba(imorph
Morph
p88
(dp89
g65
(lp90
Va
aVv
aVl
aV\u0254
asba(imorph
Morph
p91
(dp92
g65
(lp93
Vb
aVl
aVa
aVf
aVo
aVg
aVb
aVe
asba(imorph
Morph
p94
(dp95
g65
(lp96
Vd
aVr
aV\u025b
asba(imorph
Morph
p97
(dp98
g65
(lp99
Ve
aVd
aVr
aV\u0254
asba(imorph
Morph
p100
(dp101
g65
(lp102
Ve
aVx
aVl
aV\u0254
asba(imorph
Morph
p103
(dp104
g65
(lp105
Ve
aVx
aVl
aVe
asba(imorph
Morph
p106
(dp107
g65
(lp108
Vh
aVl
aV\u025b
asba(imorph
Morph
p109
(dp110
g65
(lp111
V\u014b
aVl
aV\u0254
asba(imorph
Morph
p112
(dp113
g65
(lp114
Vc\u030c
p115
aVr
aV\u0254\u0303
p116
asba(imorph
Morph
p117
(dp118
g65
(lp119
Vn\u0303
p120
aVr
aVa\u0303
p121
asba(imorph
Morph
p122
(dp123
g65
(lp124
Vk
aVl
aV\u0254
asba(imorph
Morph
p125
(dp126
g65
(lp127
Vt
aVr
aVe
asba(imorph
Morph
p128
(dp129
g65
(lp130
Vv
aVl
aVu
asba(imorph
Morph
p131
(dp132
g65
(lp133
Vl
aV\u0254
asba(imorph
Morph
p134
(dp135
g65
(lp136
Vm
aVl
aVa
asba(imorph
Morph
p137
(dp138
g65
(lp139
Vp
aVl
aVe
aVp
aVl
aVe
aVl
aVu
asba(imorph
Morph
p140
(dp141
g65
(lp142
Vw
aVl
aVa
asba(imorph
Morph
p143
(dp144
g65
(lp145
Vz
aVr
aVo
asba(imorph
Morph
p146
(dp147
g65
(lp148
Ve
aVs
aVr
aV\u0254
asba(imorph
Morph
p149
(dp150
g65
(lp151
Ve
aVt
aVr
aVo
asba(imorph
Morph
p152
(dp153
g65
(lp154
Ve
aVn\u0303
p155
aVr
aV\u0254\u0303
p156
asba(imorph
Morph
p157
(dp158
g65
(lp159
Vj\u030c
p160
aVr
aVo
asbasS'substitution'
p161
(dp162
Vr
Vl
ssb.