ccopy_reg
_reconstructor
p1
(csolution
AlternationSolution
p2
c__builtin__
object
p3
NtRp4
(dp5
S'rules'
p6
(lp7
(irule
Rule
p8
(dp9
S'leftTriggers'
p10
(irule
Guard
p11
(dp12
S'endOfString'
p13
I00
sS'specifications'
p14
(lp15
sS'optionalEnding'
p16
I00
sS'representation'
p17
V
sS'starred'
p18
I00
sS'side'
p19
S'L'
sbsS'structuralChange'
p20
(irule
FeatureMatrix
p21
(dp22
S'featuresAndPolarities'
p23
(lp24
(I00
S'palletized'
p25
tp26
asg17
V[ -palletized ]
p27
sbsS'rightTriggers'
p28
(irule
Guard
p29
(dp30
g13
I00
sg14
(lp31
(irule
FeatureMatrix
p32
(dp33
g23
(lp34
(I00
S'front'
p35
tp36
asg17
V[ -front ]
p37
sbasg16
I00
sg17
g37
sg18
I00
sg19
S'R'
sbsS'focus'
p38
(irule
FeatureMatrix
p39
(dp40
g23
(lp41
sg17
V[  ]
p42
sbsg17
V[  ] ---> [ -palletized ] /  _ [ -front ]
p43
sba(irule
Rule
p44
(dp45
g10
(irule
Guard
p46
(dp47
g13
I00
sg14
(lp48
sg16
I00
sg17
V
sg18
I00
sg19
S'L'
sbsg20
(irule
FeatureMatrix
p49
(dp50
g23
(lp51
sg17
V[  ]
p52
sbsg28
(irule
Guard
p53
(dp54
g13
I00
sg14
(lp55
sg16
I00
sg17
V
sg18
I00
sg19
S'R'
sbsg38
(irule
FeatureMatrix
p56
(dp57
g23
(lp58
sg17
V[  ]
p59
sbsg17
V[  ] ---> [  ] /  _ 
p60
sbasS'substitution'
p61
(dp62
Vx
Vx^y
p63
sVk
Vk^y
p64
ssS'data'
p65
(lp66
(imorph
Morph
p67
(dp68
S'phonemes'
p69
(lp70
Vk
aVa
aVn
aVo
asba(imorph
Morph
p71
(dp72
g69
(lp73
Vk
aVo
aVr
aVi
asba(imorph
Morph
p74
(dp75
g69
(lp76
Vx
aVa
aVn
aVo
asba(imorph
Morph
p77
(dp78
g69
(lp79
Vx
aVo
aVr
aVi
asba(imorph
Morph
p80
(dp81
g69
(lp82
Vx^y
p83
aVi
aVn
aVo
asba(imorph
Morph
p84
(dp85
g69
(lp86
Vk^y
p87
aVi
aVn
aVo
asba(imorph
Morph
p88
(dp89
g69
(lp90
Vk
aVr
aVi
aVm
aVa
asba(imorph
Morph
p91
(dp92
g69
(lp93
Vx
aVr
aVi
aVm
aVa
asba(imorph
Morph
p94
(dp95
g69
(lp96
Vx
aVu
aVf
aVt
aVa
asba(imorph
Morph
p97
(dp98
g69
(lp99
Vk
aVu
aVf
aVe
aVt
aVa
asba(imorph
Morph
p100
(dp101
g69
(lp102
Vk
aVa
aVl
aVi
asba(imorph
Morph
p103
(dp104
g69
(lp105
Vx
aVa
aVl
aVi
asba(imorph
Morph
p106
(dp107
g69
(lp108
Vx^y
p109
aVe
aVl
aVi
asba(imorph
Morph
p110
(dp111
g69
(lp112
Vk^y
p113
aVe
aVr
aVi
asba(imorph
Morph
p114
(dp115
g69
(lp116
Vx^y
p117
aVe
aVr
aVi
asba(imorph
Morph
p118
(dp119
g69
(lp120
Vo
aVx^y
p121
aVi
asbasS'time'
p122
F26.679957866668701
sb.