ccopy_reg
_reconstructor
p1
(csolution
AlternationSolution
p2
c__builtin__
object
p3
NtRp4
(dp5
S'rules'
p6
(lp7
(irule
Rule
p8
(dp9
S'leftTriggers'
p10
(irule
Guard
p11
(dp12
S'endOfString'
p13
I00
sS'specifications'
p14
(lp15
sS'optionalEnding'
p16
I00
sS'representation'
p17
V
sS'starred'
p18
I00
sS'side'
p19
S'L'
sbsS'structuralChange'
p20
(irule
FeatureMatrix
p21
(dp22
S'featuresAndPolarities'
p23
(lp24
(I01
S'voice'
p25
tp26
asg17
V[ +voice ]
p27
sbsS'rightTriggers'
p28
(irule
Guard
p29
(dp30
g13
I00
sg14
(lp31
(irule
FeatureMatrix
p32
(dp33
g23
(lp34
(I00
S'aspirated'
p35
tp36
asg17
V[ -aspirated ]
p37
sbasg16
I00
sg17
g37
sg18
I00
sg19
S'R'
sbsS'focus'
p38
(irule
FeatureMatrix
p39
(dp40
g23
(lp41
(I01
S'nasal'
p42
tp43
asg17
V[ +nasal ]
p44
sbsg17
V[ +nasal ] ---> [ +voice ] /  _ [ -aspirated ]
p45
sba(irule
Rule
p46
(dp47
g10
(irule
Guard
p48
(dp49
g13
I00
sg14
(lp50
sg16
I00
sg17
V
sg18
I00
sg19
S'L'
sbsg20
(irule
FeatureMatrix
p51
(dp52
g23
(lp53
sg17
V[  ]
p54
sbsg28
(irule
Guard
p55
(dp56
g13
I00
sg14
(lp57
sg16
I00
sg17
V
sg18
I00
sg19
S'R'
sbsg38
(irule
FeatureMatrix
p58
(dp59
g23
(lp60
sg17
V[  ]
p61
sbsg17
V[  ] ---> [  ] /  _ 
p62
sbasS'data'
p63
(lp64
(imorph
Morph
p65
(dp66
S'phonemes'
p67
(lp68
Vt
aVa
aVg
aVi
asba(imorph
Morph
p69
(dp70
g67
(lp71
Vk
aVi
aVt
aVa
aVb
aVu
asba(imorph
Morph
p72
(dp73
g67
(lp74
Vp
aVa
aVa
aVl
aVi
aVk
aVa
asba(imorph
Morph
p75
(dp76
g67
(lp77
Vn
aVi
asba(imorph
Morph
p78
(dp79
g67
(lp80
V\u014b
aVo
aVm
aVb
aVe
asba(imorph
Morph
p81
(dp82
g67
(lp83
Vm
aVa
aVt
aVa
aVg
aVi
asba(imorph
Morph
p84
(dp85
g67
(lp86
Vd
aVo
aVd
aVo
aVa
asba(imorph
Morph
p87
(dp88
g67
(lp89
Vg
aVo
aV\u0161
aVa
asba(imorph
Morph
p90
(dp91
g67
(lp92
Vb
aVa
aVb
aVu
asba(imorph
Morph
p93
(dp94
g67
(lp95
Vn
aVd
aVi
aVm
aVi
asba(imorph
Morph
p96
(dp97
g67
(lp98
V\u014b
aVg
aVo
aVt
aVo
asba(imorph
Morph
p99
(dp100
g67
(lp101
Vm
aVb
aVe
aVu
asba(imorph
Morph
p102
(dp103
g67
(lp104
Vn\u0325
p105
aVt^h
p106
aVu
aVm
aVb
aVi
aVi
asba(imorph
Morph
p107
(dp108
g67
(lp109
V\u014b
aVo
aVk^h
p110
aVu
aV\u014b
aVg
aVu
aVn
aVi
asba(imorph
Morph
p111
(dp112
g67
(lp113
Vm\u0325
p114
aVp^h
p115
aVe
aVh
aVo
asbasS'substitution'
p116
(dp117
Vm
Vm\u0325
p118
sVn
Vn\u0325
p119
ssb.