ccopy_reg
_reconstructor
p1
(csolution
AlternationSolution
p2
c__builtin__
object
p3
NtRp4
(dp5
S'rules'
p6
(lp7
(irule
Rule
p8
(dp9
S'leftTriggers'
p10
(irule
Guard
p11
(dp12
S'endOfString'
p13
I00
sS'specifications'
p14
(lp15
(irule
FeatureMatrix
p16
(dp17
S'featuresAndPolarities'
p18
(lp19
(I00
S'glide'
p20
tp21
a(I00
S'alveopalatal'
p22
tp23
asS'representation'
p24
V[ -alveopalatal -glide ]
p25
sbasS'optionalEnding'
p26
I00
sg24
g25
sS'starred'
p27
I00
sS'side'
p28
S'L'
sbsS'structuralChange'
p29
(irule
ConstantPhoneme
p30
(dp31
S'p'
V\u0259
sbsS'rightTriggers'
p32
(irule
Guard
p33
(dp34
g13
I00
sg14
(lp35
sg26
I00
sg24
V
sg27
I00
sg28
S'R'
sbsS'focus'
p36
(irule
ConstantPhoneme
p37
(dp38
S'p'
V\u025b
sbsg24
V\u025b ---> \u0259 / [ -alveopalatal -glide ] _ 
p39
sba(irule
Rule
p40
(dp41
g10
(irule
Guard
p42
(dp43
g13
I00
sg14
(lp44
sg26
I00
sg24
V
sg27
I00
sg28
S'L'
sbsg29
(irule
FeatureMatrix
p45
(dp46
g18
(lp47
sg24
V[  ]
p48
sbsg32
(irule
Guard
p49
(dp50
g13
I00
sg14
(lp51
sg26
I00
sg24
V
sg27
I00
sg28
S'R'
sbsg36
(irule
FeatureMatrix
p52
(dp53
g18
(lp54
sg24
V[  ]
p55
sbsg24
V[  ] ---> [  ] /  _ 
p56
sbasS'substitution'
p57
(dp58
V\u0259
V\u025b
ssS'data'
p59
(lp60
(imorph
Morph
p61
(dp62
S'phonemes'
p63
(lp64
Vf
aV\u0259
aVr
aV\u0259
aVs
asba(imorph
Morph
p65
(dp66
g63
(lp67
Vt
aV\u0259
aVn
aV\u0259
aVs
aVa
asba(imorph
Morph
p68
(dp69
g63
(lp70
Vy
aV\u025b
aVl
aV\u0268
aV\u0161
aVl
aV\u0268
aV\u0161
asba(imorph
Morph
p71
(dp72
g63
(lp73
Vm
aVa
aVy
aV\u025b
aVt
asba(imorph
Morph
p74
(dp75
g63
(lp76
Vg
aV\u0259
aVn
aVz
aV\u0259
aVb
asba(imorph
Morph
p77
(dp78
g63
(lp79
V\u0161
aV\u025b
aVg
aVn
aVa
asba(imorph
Morph
p80
(dp81
g63
(lp82
Vn
aV\u0259
aVn\u0303
p83
asba(imorph
Morph
p84
(dp85
g63
(lp86
Vm
aV\u0259
aVw
aVd
aV\u0259
aVd
asba(imorph
Morph
p87
(dp88
g63
(lp89
Vm
aV\u0259
aVn
aVn
aV\u0259
aVs
aVa
aVt
asba(imorph
Morph
p90
(dp91
g63
(lp92
Vm
aV\u0259
aVm
aVk
aV\u0259
aVr
asba(imorph
Morph
p93
(dp94
g63
(lp95
Vz\u030c
p96
aV\u025b
aVl
aVe
asba(imorph
Morph
p97
(dp98
g63
(lp99
Vy
aV\u025b
aVl
aVl
aV\u0259
aVm
asba(imorph
Morph
p100
(dp101
g63
(lp102
Vm
aV\u0259
aVc\u030c
p103
asba(imorph
Morph
p104
(dp105
g63
(lp106
Vm
aV\u0259
aVs
aVt
aV\u0259
aVt
asba(imorph
Morph
p107
(dp108
g63
(lp109
Vf
aV\u0259
aVl
aVl
aV\u0259
aVg
aV\u0259
asba(imorph
Morph
p110
(dp111
g63
(lp112
Va
aVg
aV\u0259
aVn\u0303
p113
aVn\u0303
p114
aV\u025b
asba(imorph
Morph
p115
(dp116
g63
(lp117
Vt
aV\u0259
aVm
aV\u0259
aVc\u030c
p118
aVc\u030c
p119
aV\u025b
asba(imorph
Morph
p120
(dp121
g63
(lp122
Vm
aVo
aVk
aVk
aV\u0259
aVr
aV\u0259
asba(imorph
Morph
p123
(dp124
g63
(lp125
Vk
aVa
aVz\u030c
p126
aVz\u030c
p127
aV\u025b
asba(imorph
Morph
p128
(dp129
g63
(lp130
Vz\u030c
p131
aV\u025b
aVm
aVm
aV\u0259
aVr
aV\u0259
asba(imorph
Morph
p132
(dp133
g63
(lp134
Vl
aVa
aVc\u030c
p135
aVc\u030c
p136
aV\u025b
asba(imorph
Morph
p137
(dp138
g63
(lp139
Va
aV\u0161
aV\u0161
aV\u025b
asba(imorph
Morph
p140
(dp141
g63
(lp142
Vb
aV\u0259
aVk
aVk
aV\u0259
aVl
aV\u0259
asba(imorph
Morph
p143
(dp144
g63
(lp145
V\u0161
aV\u025b
aVm
aV\u0259
aVg
aVg
aV\u0259
aVl
aV\u0259
asbasS'time'
p146
F90.899132013320923
sb.