ccopy_reg
_reconstructor
p1
(csolution
AlternationSolution
p2
c__builtin__
object
p3
NtRp4
(dp5
S'rules'
p6
(lp7
(irule
Rule
p8
(dp9
S'leftTriggers'
p10
(irule
Guard
p11
(dp12
S'endOfString'
p13
I00
sS'specifications'
p14
(lp15
sS'optionalEnding'
p16
I00
sS'representation'
p17
V
sS'starred'
p18
I00
sS'side'
p19
S'L'
sbsS'structuralChange'
p20
(irule
FeatureMatrix
p21
(dp22
S'featuresAndPolarities'
p23
(lp24
(I01
S'unreleased'
p25
tp26
asg17
V[ +unreleased ]
p27
sbsS'rightTriggers'
p28
(irule
Guard
p29
(dp30
g13
I01
sg14
(lp31
sg16
I00
sg17
V#
sg18
I00
sg19
S'R'
sbsS'focus'
p32
(irule
FeatureMatrix
p33
(dp34
g23
(lp35
(I01
S'stop'
p36
tp37
asg17
V[ +stop ]
p38
sbsg17
V[ +stop ] ---> [ +unreleased ] /  _ #
p39
sba(irule
Rule
p40
(dp41
g10
(irule
Guard
p42
(dp43
g13
I00
sg14
(lp44
sg16
I00
sg17
V
sg18
I00
sg19
S'L'
sbsg20
(irule
FeatureMatrix
p45
(dp46
g23
(lp47
sg17
V[  ]
p48
sbsg28
(irule
Guard
p49
(dp50
g13
I00
sg14
(lp51
sg16
I00
sg17
V
sg18
I00
sg19
S'R'
sbsg32
(irule
FeatureMatrix
p52
(dp53
g23
(lp54
sg17
V[  ]
p55
sbsg17
V[  ] ---> [  ] /  _ 
p56
sbasS'substitution'
p57
(dp58
Vp\u031a
p59
Vp
sVk\u031a
p60
Vk
sVt\u031a
p61
Vt
ssS'data'
p62
(lp63
(imorph
Morph
p64
(dp65
S'phonemes'
p66
(lp67
Vb
aVi
aVl
asba(imorph
Morph
p68
(dp69
g66
(lp70
Vm
aVu\u0308
p71
aVu\u0308
p72
asba(imorph
Morph
p73
(dp74
g66
(lp75
Vr
aVa
aVk\u031a
p76
asba(imorph
Morph
p77
(dp78
g66
(lp79
Vb
aVa
aVa
asba(imorph
Morph
p80
(dp81
g66
(lp82
Vl
aVo
aV\u014b
asba(imorph
Morph
p83
(dp84
g66
(lp85
Vb
aVr
aVu\u0308
p86
aVu\u0308
p87
asba(imorph
Morph
p88
(dp89
g66
(lp90
Vh
aVa
aVa
asba(imorph
Morph
p91
(dp92
g66
(lp93
Vp
aVl
aVa
aVa
asba(imorph
Morph
p94
(dp95
g66
(lp96
Vd
aVi
aVi
asba(imorph
Morph
p97
(dp98
g66
(lp99
Vc\u030c
p100
aVa
aVa
aVn
asba(imorph
Morph
p101
(dp102
g66
(lp103
Vt^h
p104
aVe
aVe
asba(imorph
Morph
p105
(dp106
g66
(lp107
Vt^h
p108
aVr
aVu
aVu
aVm
aV\u025b
aV\u025b
aVn
asba(imorph
Morph
p109
(dp110
g66
(lp111
Vk^h
p112
aV\u025b
aV\u014b
asba(imorph
Morph
p113
(dp114
g66
(lp115
Vp
aVa
aVn
aVy
aVa
aVa
asba(imorph
Morph
p116
(dp117
g66
(lp118
Vl
aV\u0259
aV\u0259
aVy
asba(imorph
Morph
p119
(dp120
g66
(lp121
Vp^h
p122
aVy
aVa
aVa
asba(imorph
Morph
p123
(dp124
g66
(lp125
Vl
aVu\u0308
p126
aVa
aVk\u031a
p127
asba(imorph
Morph
p128
(dp129
g66
(lp130
Vk
aVl
aVa
aVa
aV\u014b
asba(imorph
Morph
p131
(dp132
g66
(lp133
Vc\u030c^h
p134
aVa
aVt\u031a
p135
asba(imorph
Morph
p136
(dp137
g66
(lp138
Vt
aVr
aVa
aVa
asba(imorph
Morph
p139
(dp140
g66
(lp141
Vr
aVi
aVi
aVp\u031a
p142
asba(imorph
Morph
p143
(dp144
g66
(lp145
V\u0254
aV\u0254
aVk\u031a
p146
asba(imorph
Morph
p147
(dp148
g66
(lp149
Vp^h
p150
aVr
aV\u025b
aV\u025b
asba(imorph
Morph
p151
(dp152
g66
(lp153
Vk
aVi
aV\u0259
asba(imorph
Morph
p154
(dp155
g66
(lp156
Vk^h
p157
aVw
aVa
aVa
asba(imorph
Morph
p158
(dp159
g66
(lp160
Vk
aV\u025b
aV\u025b
asba(imorph
Morph
p161
(dp162
g66
(lp163
Vd
aVr
aVa
aVy
asba(imorph
Morph
p164
(dp165
g66
(lp166
Vd
aVu\u0308
p167
aV\u014b
asba(imorph
Morph
p168
(dp169
g66
(lp170
Vk
aVa
aVn
asba(imorph
Morph
p171
(dp172
g66
(lp173
Vc\u030c
p174
aVu
aV\u0259
aVk\u031a
p175
asba(imorph
Morph
p176
(dp177
g66
(lp178
Vp^h
p179
aVl
aVe
aVe
aV\u014b
asba(imorph
Morph
p180
(dp181
g66
(lp182
Vc\u030c^h
p183
aVa
aVn
asba(imorph
Morph
p184
(dp185
g66
(lp186
Vs
aVt
aVa
aVa
aV\u014b
asba(imorph
Morph
p187
(dp188
g66
(lp189
Vr
aVa
aVp\u031a
p190
asba(imorph
Morph
p191
(dp192
g66
(lp193
Vy
aVi
aVi
aVs
aVi
aVp\u031a
p194
asba(imorph
Morph
p195
(dp196
g66
(lp197
Vp^h
p198
aVa
aVa
asba(imorph
Morph
p199
(dp200
g66
(lp201
Vk^h
p202
aVa
aVa
asba(imorph
Morph
p203
(dp204
g66
(lp205
Vd
aVa
aVm
asba(imorph
Morph
p206
(dp207
g66
(lp208
Vr
aVa
aVa
aVy
asba(imorph
Morph
p209
(dp210
g66
(lp211
Vt
aVi
aVt\u031a
p212
asba(imorph
Morph
p213
(dp214
g66
(lp215
Vs
aVi
aVp\u031a
p216
asba(imorph
Morph
p217
(dp218
g66
(lp219
Vp
aVe
aVn
asbasS'time'
p220
F106.28608083724976
sb.