ccopy_reg
_reconstructor
p1
(csolution
AlternationSolution
p2
c__builtin__
object
p3
NtRp4
(dp5
S'rules'
p6
(lp7
(irule
Rule
p8
(dp9
S'leftTriggers'
p10
(irule
Guard
p11
(dp12
S'endOfString'
p13
I00
sS'specifications'
p14
(lp15
(irule
FeatureMatrix
p16
(dp17
S'featuresAndPolarities'
p18
(lp19
(I01
S'nasal'
p20
tp21
asS'representation'
p22
V[ +nasal ]
p23
sbasS'optionalEnding'
p24
I00
sg22
g23
sS'starred'
p25
I00
sS'side'
p26
S'L'
sbsS'structuralChange'
p27
(irule
OffsetSpecification
p28
(dp29
S'offset'
p30
I-1
sbsS'rightTriggers'
p31
(irule
Guard
p32
(dp33
g13
I00
sg14
(lp34
sg24
I00
sg22
V
sg25
I00
sg26
S'R'
sbsS'focus'
p35
(irule
FeatureMatrix
p36
(dp37
g18
(lp38
(I00
S'alveolar'
p39
tp40
a(I00
S'tense'
p41
tp42
asg22
V[ -alveolar -tense ]
p43
sbsg22
V[ -alveolar -tense ] ---> -1 / [ +nasal ] _ 
p44
sba(irule
Rule
p45
(dp46
g10
(irule
Guard
p47
(dp48
g13
I00
sg14
(lp49
(irule
FeatureMatrix
p50
(dp51
g18
(lp52
(I01
g20
tp53
asg22
V[ +nasal ]
p54
sbasg24
I00
sg22
g54
sg25
I00
sg26
S'L'
sbsg27
(irule
FeatureMatrix
p55
(dp56
g18
(lp57
(I01
S'stop'
p58
tp59
a(I00
g20
tp60
a(I00
S'sonorant'
p61
tp62
asg22
V[ +stop -nasal -sonorant ]
p63
sbsg31
(irule
Guard
p64
(dp65
g13
I00
sg14
(lp66
sg24
I00
sg22
V
sg25
I00
sg26
S'R'
sbsg35
(irule
FeatureMatrix
p67
(dp68
g18
(lp69
(I01
g20
tp70
asg22
V[ +nasal ]
p71
sbsg22
V[ +nasal ] ---> [ +stop -nasal -sonorant ] / [ +nasal ] _ 
p72
sbasS'substitution'
p73
(dp74
Vb
V\u03b2
sVd
Vr
sVg
V\u0263
ssS'data'
p75
(lp76
(imorph
Morph
p77
(dp78
S'phonemes'
p79
(lp80
Va
aV\u03b2
aVa
aVa\u0301
p81
aVn
aVt
aVo
asba(imorph
Morph
p82
(dp83
g79
(lp84
Va
aV\u03b2
aVa
aVm
aVu\u0301
p85
aVr
aVa
asba(imorph
Morph
p86
(dp87
g79
(lp88
Va
aVm
aVa
aVh
aVi\u0301
p89
aVi\u0301
p90
aVn
aVd
aVi
asba(imorph
Morph
p91
(dp92
g79
(lp93
Va
aVm
aVa
aVk
aV\u025b\u0301
p94
aV\u025b\u0301
p95
aVn
aVd
aV\u0254
asba(imorph
Morph
p96
(dp97
g79
(lp98
Ve
aV\u03b2
aVa\u030c
p99
asba(imorph
Morph
p100
(dp101
g79
(lp102
Ve
aVe
aV\u014b
aVg
aVw
aVe\u0301
p103
asba(imorph
Morph
p104
(dp105
g79
(lp106
Ve
aV\u0263
aVa\u030c
p107
asba(imorph
Morph
p108
(dp109
g79
(lp110
Ve
aVk
aVe
aV\u03b2
aVw
aV\u025b\u0301
p111
asba(imorph
Morph
p112
(dp113
g79
(lp114
Vh
aVo
aVo
aVr
aVa\u0301
p115
asba(imorph
Morph
p116
(dp117
g79
(lp118
Vi
aV\u03b2
aVi
aV\u0263
aVu\u0301
p119
aVr
aVu\u0301
p120
aV\u03b2
aVe
asba(imorph
Morph
p121
(dp122
g79
(lp123
Vi
aV\u03b2
aVi
aVr
aVu\u0301
p124
aVu\u0301
p125
aV\u014b
aVg
aVu\u0301
p126
aVu
aVr
aVi
asba(imorph
Morph
p127
(dp128
g79
(lp129
Vu
aV\u0263
aVu
aVs
aVi\u0301
p130
aVr
aVi
asba(imorph
Morph
p131
(dp132
g79
(lp133
V\u03b2
aVa\u0301
p134
aVi
aVn
aVu
asba(imorph
Morph
p135
(dp136
g79
(lp137
V\u03b2
aVo
aVr
aVy
aVo\u0301
p138
asba(imorph
Morph
p139
(dp140
g79
(lp141
Vi
aVc\u030c
p142
aVi
aVi
aV\u014b
aVg
aV\u025b\u0301
p143
aVn
aVa
asba(imorph
Morph
p144
(dp145
g79
(lp146
Vi
aVc\u030c
p147
aVi
aVi
aV\u014b
aVg
aVu\u0301
p148
aVr
aVu\u0301
p149
aV\u03b2
aVe
asba(imorph
Morph
p150
(dp151
g79
(lp152
V\u0263
aVa
aV\u03b2
aVa\u030c
p153
asba(imorph
Morph
p154
(dp155
g79
(lp156
Vi
aVc\u030c
p157
aVi
aVi
aV\u014b
aVg
aVu\u0301
p158
aVt
aVa
asba(imorph
Morph
p159
(dp160
g79
(lp161
V\u03b2
aV\u025b
aVr
aV\u025b
aVk
aVa\u0301
p162
asba(imorph
Morph
p163
(dp164
g79
(lp165
Vi
aV\u0263
aVi
aVt
aVu\u0301
p166
aVu\u0301
p167
aVm
aVb
aVe
asba(imorph
Morph
p168
(dp169
g79
(lp170
V\u0263
aVu\u0301
p171
aVu\u0301
p172
aVk
aVa\u0301
p173
asba(imorph
Morph
p174
(dp175
g79
(lp176
Vr
aVe
aVm
aVa\u030c
p177
asba(imorph
Morph
p178
(dp179
g79
(lp180
Vr
aV\u025b
aV\u025b
aVn
aVt
aVa\u0301
p181
asba(imorph
Morph
p182
(dp183
g79
(lp184
Vo
aV\u03b2
aVo
aV\u0263
aVa\u0301
p185
aVa\u0301
p186
aVk
aVa\u0301
p187
asba(imorph
Morph
p188
(dp189
g79
(lp190
Vo
aV\u03b2
aVo
aVt
aVe\u0301
p191
aVe\u0301
p192
aVn
aVd
aVe\u0301
p193
aVe\u0301
p194
aVr
aVu
asba(imorph
Morph
p195
(dp196
g79
(lp197
Vo
aVk
aVo
aV\u0263
aVe\u0301
p198
aVe\u0301
p199
aVm
aVb
aVa\u0301
p200
asba(imorph
Morph
p201
(dp202
g79
(lp203
Vo
aVk
aVo
aVo\u0301
p204
aVm
aVb
aVa\u0301
p205
aVr
aVa
asba(imorph
Morph
p206
(dp207
g79
(lp208
Vo
aVk
aVo
aV\u03b2
aVa\u0301
p209
aVr
aVa
asba(imorph
Morph
p210
(dp211
g79
(lp212
Vo
aVk
aVo
aVo\u0301
p213
aVn
aVd
aV\u0254\u0301
p214
aV\u0263
aVa
asba(imorph
Morph
p215
(dp216
g79
(lp217
Vo
aVk
aVo
aVr
aV\u0254\u0301
p218
aV\u0263
aVa
asba(imorph
Morph
p219
(dp220
g79
(lp221
Vr
aVo
aVm
aVa\u030c
p222
asba(imorph
Morph
p223
(dp224
g79
(lp225
Vt
aVe
aV\u0263
aVe
aVt
aVa\u0301
p226
asba(imorph
Morph
p227
(dp228
g79
(lp229
Vu
aVk
aVu
aVu\u0301
p230
aVm
aVb
aVu
aVu
aVr
aVy
aVa\u0301
p231
asba(imorph
Morph
p232
(dp233
g79
(lp234
Vu
aVr
aVu
aV\u0263
aVu\u0301
p235
aVt
aVa
asbasS'time'
p236
F206.06930994987488
sb.