ccopy_reg
_reconstructor
p1
(csolution
AlternationSolution
p2
c__builtin__
object
p3
NtRp4
(dp5
S'rules'
p6
(lp7
(irule
Rule
p8
(dp9
S'leftTriggers'
p10
(irule
Guard
p11
(dp12
S'endOfString'
p13
I00
sS'specifications'
p14
(lp15
sS'optionalEnding'
p16
I00
sS'representation'
p17
V
sS'starred'
p18
I00
sS'side'
p19
S'L'
sbsS'structuralChange'
p20
(irule
FeatureMatrix
p21
(dp22
S'featuresAndPolarities'
p23
(lp24
sg17
V[  ]
p25
sbsS'rightTriggers'
p26
(irule
Guard
p27
(dp28
g13
I00
sg14
(lp29
sg16
I00
sg17
V
sg18
I00
sg19
S'R'
sbsS'focus'
p30
(irule
FeatureMatrix
p31
(dp32
g23
(lp33
sg17
V[  ]
p34
sbsg17
V[  ] ---> [  ] /  _ 
p35
sba(irule
Rule
p36
(dp37
g10
(irule
Guard
p38
(dp39
g13
I00
sg14
(lp40
sg16
I00
sg17
V
sg18
I00
sg19
S'L'
sbsg20
(irule
FeatureMatrix
p41
(dp42
g23
(lp43
(I00
S'voice'
p44
tp45
asg17
V[ -voice ]
p46
sbsg26
(irule
Guard
p47
(dp48
g13
I00
sg14
(lp49
(irule
FeatureMatrix
p50
(dp51
g23
(lp52
(I00
g44
tp53
asg17
V[ -voice ]
p54
sbasg16
I00
sg17
g54
sg18
I00
sg19
S'R'
sbsg30
(irule
FeatureMatrix
p55
(dp56
g23
(lp57
(I01
S'nasal'
p58
tp59
asg17
V[ +nasal ]
p60
sbsg17
V[ +nasal ] ---> [ -voice ] /  _ [ -voice ]
p61
sbasS'substitution'
p62
(dp63
Vm\u0325
p64
Vm
sVn\u0325
p65
Vn
ssS'data'
p66
(lp67
(imorph
Morph
p68
(dp69
S'phonemes'
p70
(lp71
Vt
aVa
aVg
aVi
asba(imorph
Morph
p72
(dp73
g70
(lp74
Vk
aVi
aVt
aVa
aVb
aVu
asba(imorph
Morph
p75
(dp76
g70
(lp77
Vp
aVa
aVa
aVl
aVi
aVk
aVa
asba(imorph
Morph
p78
(dp79
g70
(lp80
Vn
aVi
asba(imorph
Morph
p81
(dp82
g70
(lp83
V\u014b
aVo
aVm
aVb
aVe
asba(imorph
Morph
p84
(dp85
g70
(lp86
Vm
aVa
aVt
aVa
aVg
aVi
asba(imorph
Morph
p87
(dp88
g70
(lp89
Vd
aVo
aVd
aVo
aVa
asba(imorph
Morph
p90
(dp91
g70
(lp92
Vg
aVo
aV\u0161
aVa
asba(imorph
Morph
p93
(dp94
g70
(lp95
Vb
aVa
aVb
aVu
asba(imorph
Morph
p96
(dp97
g70
(lp98
Vn
aVd
aVi
aVm
aVi
asba(imorph
Morph
p99
(dp100
g70
(lp101
V\u014b
aVg
aVo
aVt
aVo
asba(imorph
Morph
p102
(dp103
g70
(lp104
Vm
aVb
aVe
aVu
asba(imorph
Morph
p105
(dp106
g70
(lp107
Vn\u0325
p108
aVt^h
p109
aVu
aVm
aVb
aVi
aVi
asba(imorph
Morph
p110
(dp111
g70
(lp112
V\u014b
aVo
aVk^h
p113
aVu
aV\u014b
aVg
aVu
aVn
aVi
asba(imorph
Morph
p114
(dp115
g70
(lp116
Vm\u0325
p117
aVp^h
p118
aVe
aVh
aVo
asbasS'time'
p119
F14.730291128158569
sb.