ccopy_reg
_reconstructor
p1
(csolution
AlternationSolution
p2
c__builtin__
object
p3
NtRp4
(dp5
S'rules'
p6
(lp7
(irule
Rule
p8
(dp9
S'leftTriggers'
p10
(irule
Guard
p11
(dp12
S'endOfString'
p13
I00
sS'specifications'
p14
(lp15
sS'optionalEnding'
p16
I00
sS'representation'
p17
V
sS'starred'
p18
I00
sS'side'
p19
S'L'
sbsS'structuralChange'
p20
(irule
FeatureMatrix
p21
(dp22
S'featuresAndPolarities'
p23
(lp24
sg17
V[  ]
p25
sbsS'rightTriggers'
p26
(irule
Guard
p27
(dp28
g13
I00
sg14
(lp29
sg16
I00
sg17
V
sg18
I00
sg19
S'R'
sbsS'focus'
p30
(irule
FeatureMatrix
p31
(dp32
g23
(lp33
sg17
V[  ]
p34
sbsg17
V[  ] ---> [  ] /  _ 
p35
sba(irule
Rule
p36
(dp37
g10
(irule
Guard
p38
(dp39
g13
I00
sg14
(lp40
sg16
I00
sg17
V
sg18
I00
sg19
S'L'
sbsg20
(irule
FeatureMatrix
p41
(dp42
g23
(lp43
(I00
S'unreleased'
p44
tp45
asg17
V[ -unreleased ]
p46
sbsg26
(irule
Guard
p47
(dp48
g13
I00
sg14
(lp49
(irule
FeatureMatrix
p50
(dp51
g23
(lp52
sg17
V[  ]
p53
sbasg16
I00
sg17
g53
sg18
I00
sg19
S'R'
sbsg30
(irule
FeatureMatrix
p54
(dp55
g23
(lp56
sg17
V[  ]
p57
sbsg17
V[  ] ---> [ -unreleased ] /  _ [  ]
p58
sbasS'data'
p59
(lp60
(imorph
Morph
p61
(dp62
S'phonemes'
p63
(lp64
Vb
aVi
aVl
asba(imorph
Morph
p65
(dp66
g63
(lp67
Vm
aVu\u0308
p68
aVu\u0308
p69
asba(imorph
Morph
p70
(dp71
g63
(lp72
Vr
aVa
aVk\u031a
p73
asba(imorph
Morph
p74
(dp75
g63
(lp76
Vb
aVa
aVa
asba(imorph
Morph
p77
(dp78
g63
(lp79
Vl
aVo
aV\u014b
asba(imorph
Morph
p80
(dp81
g63
(lp82
Vb
aVr
aVu\u0308
p83
aVu\u0308
p84
asba(imorph
Morph
p85
(dp86
g63
(lp87
Vh
aVa
aVa
asba(imorph
Morph
p88
(dp89
g63
(lp90
Vp
aVl
aVa
aVa
asba(imorph
Morph
p91
(dp92
g63
(lp93
Vd
aVi
aVi
asba(imorph
Morph
p94
(dp95
g63
(lp96
Vc\u030c
p97
aVa
aVa
aVn
asba(imorph
Morph
p98
(dp99
g63
(lp100
Vt^h
p101
aVe
aVe
asba(imorph
Morph
p102
(dp103
g63
(lp104
Vt^h
p105
aVr
aVu
aVu
aVm
aV\u025b
aV\u025b
aVn
asba(imorph
Morph
p106
(dp107
g63
(lp108
Vk^h
p109
aV\u025b
aV\u014b
asba(imorph
Morph
p110
(dp111
g63
(lp112
Vp
aVa
aVn
aVy
aVa
aVa
asba(imorph
Morph
p113
(dp114
g63
(lp115
Vl
aV\u0259
aV\u0259
aVy
asba(imorph
Morph
p116
(dp117
g63
(lp118
Vp^h
p119
aVy
aVa
aVa
asba(imorph
Morph
p120
(dp121
g63
(lp122
Vl
aVu\u0308
p123
aVa
aVk\u031a
p124
asba(imorph
Morph
p125
(dp126
g63
(lp127
Vk
aVl
aVa
aVa
aV\u014b
asba(imorph
Morph
p128
(dp129
g63
(lp130
Vc\u030c^h
p131
aVa
aVt\u031a
p132
asba(imorph
Morph
p133
(dp134
g63
(lp135
Vt
aVr
aVa
aVa
asba(imorph
Morph
p136
(dp137
g63
(lp138
Vr
aVi
aVi
aVp\u031a
p139
asba(imorph
Morph
p140
(dp141
g63
(lp142
V\u0254
aV\u0254
aVk\u031a
p143
asba(imorph
Morph
p144
(dp145
g63
(lp146
Vp^h
p147
aVr
aV\u025b
aV\u025b
asba(imorph
Morph
p148
(dp149
g63
(lp150
Vk
aVi
aV\u0259
asba(imorph
Morph
p151
(dp152
g63
(lp153
Vk^h
p154
aVw
aVa
aVa
asba(imorph
Morph
p155
(dp156
g63
(lp157
Vk
aV\u025b
aV\u025b
asba(imorph
Morph
p158
(dp159
g63
(lp160
Vd
aVr
aVa
aVy
asba(imorph
Morph
p161
(dp162
g63
(lp163
Vd
aVu\u0308
p164
aV\u014b
asba(imorph
Morph
p165
(dp166
g63
(lp167
Vk
aVa
aVn
asba(imorph
Morph
p168
(dp169
g63
(lp170
Vc\u030c
p171
aVu
aV\u0259
aVk\u031a
p172
asba(imorph
Morph
p173
(dp174
g63
(lp175
Vp^h
p176
aVl
aVe
aVe
aV\u014b
asba(imorph
Morph
p177
(dp178
g63
(lp179
Vc\u030c^h
p180
aVa
aVn
asba(imorph
Morph
p181
(dp182
g63
(lp183
Vs
aVt
aVa
aVa
aV\u014b
asba(imorph
Morph
p184
(dp185
g63
(lp186
Vr
aVa
aVp\u031a
p187
asba(imorph
Morph
p188
(dp189
g63
(lp190
Vy
aVi
aVi
aVs
aVi
aVp\u031a
p191
asba(imorph
Morph
p192
(dp193
g63
(lp194
Vp^h
p195
aVa
aVa
asba(imorph
Morph
p196
(dp197
g63
(lp198
Vk^h
p199
aVa
aVa
asba(imorph
Morph
p200
(dp201
g63
(lp202
Vd
aVa
aVm
asba(imorph
Morph
p203
(dp204
g63
(lp205
Vr
aVa
aVa
aVy
asba(imorph
Morph
p206
(dp207
g63
(lp208
Vt
aVi
aVt\u031a
p209
asba(imorph
Morph
p210
(dp211
g63
(lp212
Vs
aVi
aVp\u031a
p213
asba(imorph
Morph
p214
(dp215
g63
(lp216
Vp
aVe
aVn
asbasS'substitution'
p217
(dp218
Vp
Vp\u031a
p219
sVk
Vk\u031a
p220
sVt
Vt\u031a
p221
ssb.