ccopy_reg
_reconstructor
p1
(csolution
AlternationSolution
p2
c__builtin__
object
p3
NtRp4
(dp5
S'rules'
p6
(lp7
(irule
Rule
p8
(dp9
S'leftTriggers'
p10
(irule
Guard
p11
(dp12
S'endOfString'
p13
I00
sS'specifications'
p14
(lp15
sS'optionalEnding'
p16
I00
sS'representation'
p17
V
sS'starred'
p18
I00
sS'side'
p19
S'L'
sbsS'structuralChange'
p20
(irule
ConstantPhoneme
p21
(dp22
S'p'
Vm\u0325
p23
sbsS'rightTriggers'
p24
(irule
Guard
p25
(dp26
g13
I00
sg14
(lp27
(irule
ConstantPhoneme
p28
(dp29
S'p'
Vp^h
p30
sbasg16
I00
sg17
g30
sg18
I00
sg19
S'R'
sbsS'focus'
p31
(irule
FeatureMatrix
p32
(dp33
S'featuresAndPolarities'
p34
(lp35
sg17
V[  ]
p36
sbsg17
V[  ] ---> m\u0325 /  _ p^h
p37
sba(irule
Rule
p38
(dp39
g10
(irule
Guard
p40
(dp41
g13
I00
sg14
(lp42
sg16
I00
sg17
V
sg18
I00
sg19
S'L'
sbsg20
(irule
ConstantPhoneme
p43
(dp44
S'p'
Vn\u0325
p45
sbsg24
(irule
Guard
p46
(dp47
g13
I00
sg14
(lp48
(irule
ConstantPhoneme
p49
(dp50
S'p'
Vt^h
p51
sbasg16
I00
sg17
g51
sg18
I00
sg19
S'R'
sbsg31
(irule
FeatureMatrix
p52
(dp53
g34
(lp54
sg17
V[  ]
p55
sbsg17
V[  ] ---> n\u0325 /  _ t^h
p56
sbasS'substitution'
p57
(dp58
Vm\u0325
p59
Vm
sVn\u0325
p60
Vn
ssS'data'
p61
(lp62
(imorph
Morph
p63
(dp64
S'phonemes'
p65
(lp66
Vt
aVa
aVg
aVi
asba(imorph
Morph
p67
(dp68
g65
(lp69
Vk
aVi
aVt
aVa
aVb
aVu
asba(imorph
Morph
p70
(dp71
g65
(lp72
Vp
aVa
aVa
aVl
aVi
aVk
aVa
asba(imorph
Morph
p73
(dp74
g65
(lp75
Vn
aVi
asba(imorph
Morph
p76
(dp77
g65
(lp78
V\u014b
aVo
aVm
aVb
aVe
asba(imorph
Morph
p79
(dp80
g65
(lp81
Vm
aVa
aVt
aVa
aVg
aVi
asba(imorph
Morph
p82
(dp83
g65
(lp84
Vd
aVo
aVd
aVo
aVa
asba(imorph
Morph
p85
(dp86
g65
(lp87
Vg
aVo
aV\u0161
aVa
asba(imorph
Morph
p88
(dp89
g65
(lp90
Vb
aVa
aVb
aVu
asba(imorph
Morph
p91
(dp92
g65
(lp93
Vn
aVd
aVi
aVm
aVi
asba(imorph
Morph
p94
(dp95
g65
(lp96
V\u014b
aVg
aVo
aVt
aVo
asba(imorph
Morph
p97
(dp98
g65
(lp99
Vm
aVb
aVe
aVu
asba(imorph
Morph
p100
(dp101
g65
(lp102
Vn\u0325
p103
aVt^h
p104
aVu
aVm
aVb
aVi
aVi
asba(imorph
Morph
p105
(dp106
g65
(lp107
V\u014b
aVo
aVk^h
p108
aVu
aV\u014b
aVg
aVu
aVn
aVi
asba(imorph
Morph
p109
(dp110
g65
(lp111
Vm\u0325
p112
aVp^h
p113
aVe
aVh
aVo
asbasS'time'
p114
F57.440834999084473
sb.