ccopy_reg
_reconstructor
p1
(csolution
AlternationSolution
p2
c__builtin__
object
p3
NtRp4
(dp5
S'rules'
p6
(lp7
(irule
Rule
p8
(dp9
S'leftTriggers'
p10
(irule
Guard
p11
(dp12
S'endOfString'
p13
I00
sS'specifications'
p14
(lp15
sS'optionalEnding'
p16
I00
sS'representation'
p17
V
sS'starred'
p18
I00
sS'side'
p19
S'L'
sbsS'structuralChange'
p20
(irule
FeatureMatrix
p21
(dp22
S'featuresAndPolarities'
p23
(lp24
(I00
S'velar'
p25
tp26
a(I00
S'sonorant'
p27
tp28
a(I01
S'uvular'
p29
tp30
asg17
V[ +uvular -sonorant -velar ]
p31
sbsS'rightTriggers'
p32
(irule
Guard
p33
(dp34
g13
I00
sg14
(lp35
(irule
FeatureMatrix
p36
(dp37
g23
(lp38
(I01
g25
tp39
asg17
V[ +velar ]
p40
sba(irule
FeatureMatrix
p41
(dp42
g23
(lp43
(I00
S'stop'
p44
tp45
a(I00
S'high'
p46
tp47
a(I00
S'front'
p48
tp49
asg17
V[ -front -high -stop ]
p50
sbasg16
I00
sg17
V[ +velar ]* [ -front -high -stop ]
p51
sg18
I01
sg19
S'R'
sbsS'focus'
p52
(irule
FeatureMatrix
p53
(dp54
g23
(lp55
(I01
g25
tp56
asg17
V[ +velar ]
p57
sbsg17
V[ +velar ] ---> [ +uvular -sonorant -velar ] /  _ [ +velar ]* [ -front -high -stop ]
p58
sba(irule
Rule
p59
(dp60
g10
(irule
Guard
p61
(dp62
g13
I00
sg14
(lp63
sg16
I00
sg17
V
sg18
I00
sg19
S'L'
sbsg20
(irule
FeatureMatrix
p64
(dp65
g23
(lp66
sg17
V[  ]
p67
sbsg32
(irule
Guard
p68
(dp69
g13
I00
sg14
(lp70
sg16
I00
sg17
V
sg18
I00
sg19
S'R'
sbsg52
(irule
FeatureMatrix
p71
(dp72
g23
(lp73
sg17
V[  ]
p74
sbsg17
V[  ] ---> [  ] /  _ 
p75
sba(irule
Rule
p76
(dp77
g10
(irule
Guard
p78
(dp79
g13
I00
sg14
(lp80
(irule
FeatureMatrix
p81
(dp82
g23
(lp83
(I00
S'tense'
p84
tp85
asg17
V[ -tense ]
p86
sbasg16
I00
sg17
g86
sg18
I00
sg19
S'L'
sbsg20
(irule
FeatureMatrix
p87
(dp88
g23
(lp89
(I01
S'voice'
p90
tp91
asg17
V[ +voice ]
p92
sbsg32
(irule
Guard
p93
(dp94
g13
I00
sg14
(lp95
sg16
I00
sg17
V
sg18
I00
sg19
S'R'
sbsg52
(irule
FeatureMatrix
p96
(dp97
g23
(lp98
(I00
S'palatal'
p99
tp100
a(I00
S'alveolar'
p101
tp102
asg17
V[ -alveolar -palatal ]
p103
sbsg17
V[ -alveolar -palatal ] ---> [ +voice ] / [ -tense ] _ 
p104
sba(irule
Rule
p105
(dp106
g10
(irule
Guard
p107
(dp108
g13
I00
sg14
(lp109
sg16
I00
sg17
V
sg18
I00
sg19
S'L'
sbsg20
(irule
FeatureMatrix
p110
(dp111
g23
(lp112
sg17
V[  ]
p113
sbsg32
(irule
Guard
p114
(dp115
g13
I00
sg14
(lp116
sg16
I00
sg17
V
sg18
I00
sg19
S'R'
sbsg52
(irule
FeatureMatrix
p117
(dp118
g23
(lp119
sg17
V[  ]
p120
sbsg17
V[  ] ---> [  ] /  _ 
p121
sbasS'substitution'
p122
(dp123
Vb
Vp
sVd
Vt
sVg
Vk
sVG
Vg
sVd\u0323
p124
Vt\u0323
p125
sVN
V\u014b
sVq
Vk
ssS'data'
p126
(lp127
(imorph
Morph
p128
(dp129
S'phonemes'
p130
(lp131
Va
aV\u014b
aVg
aVu
asba(imorph
Morph
p132
(dp133
g130
(lp134
Va
aV\u014b
aVt\u0323
p135
aVa\u0303
p136
aVa\u0303
p137
asba(imorph
Morph
p138
(dp139
g130
(lp140
Va
aV\u014b
aVb
aVa
asba(imorph
Morph
p141
(dp142
g130
(lp143
Va
aVp
aVs
aVo
aVo
asba(imorph
Morph
p144
(dp145
g130
(lp146
Va
aVm
aVc\u030c
p147
aV\u0254
aV\u0254
asba(imorph
Morph
p148
(dp149
g130
(lp150
Vt
aVu
aVk
aVt\u0323
p151
aVu\u0308
p152
aVu\u0308
p153
asba(imorph
Morph
p154
(dp155
g130
(lp156
Va
aVm
aVt
aVo
asba(imorph
Morph
p157
(dp158
g130
(lp159
V\u0268
aV\u0263
aVu
asba(imorph
Morph
p160
(dp161
g130
(lp162
V\u0268
aVm
aVc\u030c
p163
aVi
asba(imorph
Morph
p164
(dp165
g130
(lp166
Vu
aVt\u0323
p167
aV\u0268
asba(imorph
Morph
p168
(dp169
g130
(lp170
Vu
aV\u03b2
aV\u0269
aV\u0269
asba(imorph
Morph
p171
(dp172
g130
(lp173
Ve
aVa
asba(imorph
Morph
p174
(dp175
g130
(lp176
Ve
aVm
aVb
aVo
asba(imorph
Morph
p177
(dp178
g130
(lp179
V\u028a
aV\u028a
aVt
aVs
aVi
asba(imorph
Morph
p180
(dp181
g130
(lp182
Vq
aVa
asba(imorph
Morph
p183
(dp184
g130
(lp185
Vq
aVa
aVa
asba(imorph
Morph
p186
(dp187
g130
(lp188
Vq
aVa
aV\u014b
aVb
aVa
asba(imorph
Morph
p189
(dp190
g130
(lp191
Vq
aVa
aVm
aVb
aVa
asba(imorph
Morph
p192
(dp193
g130
(lp194
Vq
aVa
aVm
asba(imorph
Morph
p195
(dp196
g130
(lp197
Vq
aVa
aVm
aVt
aVo
aVo
asba(imorph
Morph
p198
(dp199
g130
(lp200
Vq
aVa
aVa
aV\u03b2
aVo
asba(imorph
Morph
p201
(dp202
g130
(lp203
Vk
aV\u0268
aVk
aVt\u0323
p204
aVi
asba(imorph
Morph
p205
(dp206
g130
(lp207
Vk
aV\u0268
aV\u03b2
aVu
asba(imorph
Morph
p208
(dp209
g130
(lp210
Vk
aV\u0268
aV\u0268
aV\u014b
aVg
aVu
aVu
asba(imorph
Morph
p211
(dp212
g130
(lp213
Vk
aVi
aVk
asba(imorph
Morph
p214
(dp215
g130
(lp216
Vk
aVi
aVt\u0323
p217
aVu
aVu
asba(imorph
Morph
p218
(dp219
g130
(lp220
Vk
aV\u0269
aV\u0269
aVc
aVu
aVu
asba(imorph
Morph
p221
(dp222
g130
(lp223
Vk
aV\u0269
aV\u0269
aVr
aVi
aVi
asba(imorph
Morph
p224
(dp225
g130
(lp226
Vk
aVi
aVi
aV\u0263
aVu
aVu
asba(imorph
Morph
p227
(dp228
g130
(lp229
Vk
aVu
asba(imorph
Morph
p230
(dp231
g130
(lp232
Vk
aVu
aVp
aVc
aV\u0268
asba(imorph
Morph
p233
(dp234
g130
(lp235
Vk
aVu
aVp
aVc
aVa
aVa
asba(imorph
Morph
p236
(dp237
g130
(lp238
Vk
aV\u025b
aVn
aVc
aVa
asba(imorph
Morph
p239
(dp240
g130
(lp241
Vk
aV\u025b
aVm
aVb
aVo
asba(imorph
Morph
p242
(dp243
g130
(lp244
Vk
aVe
aV\u0263
aVo\u0308
p245
aVo\u0308
p246
asba(imorph
Morph
p247
(dp248
g130
(lp249
Vk
aVe
aVr
aV\u03b2
aVa
asba(imorph
Morph
p250
(dp251
g130
(lp252
Vq
aVo
asba(imorph
Morph
p253
(dp254
g130
(lp255
Vq
aVo
aVm
aVb
aVa
asba(imorph
Morph
p256
(dp257
g130
(lp258
Vq
aV\u0254
aVr
asba(imorph
Morph
p259
(dp260
g130
(lp261
Vq
aV\u0254
aV\u0254
aV\u0254
aV\u0254
asba(imorph
Morph
p262
(dp263
g130
(lp264
Vc\u030c^h
p265
aVe
aVa
asba(imorph
Morph
p266
(dp267
g130
(lp268
Vc\u030c^h
p269
aVu
aV\u0263
aVu
aVm
asba(imorph
Morph
p270
(dp271
g130
(lp272
Vt
aVo
aVp
aVc
aVa
aVa
asba(imorph
Morph
p273
(dp274
g130
(lp275
Vt^h
p276
aVo
aVo\u0303
p277
aVo\u0303
p278
asba(imorph
Morph
p279
(dp280
g130
(lp281
Vt\u0323
p282
aVa
aVa
aVa\u0303
p283
aVa\u0303
p284
asba(imorph
Morph
p285
(dp286
g130
(lp287
Vt\u0323
p288
aVu
aV\u0263
aV\u0268
asba(imorph
Morph
p289
(dp290
g130
(lp291
Vt\u0323
p292
aVu
aVN
aVG
aVo
asba(imorph
Morph
p293
(dp294
g130
(lp295
Vn
aV\u025b
aVN
aVG
aVa
aVa
asba(imorph
Morph
p296
(dp297
g130
(lp298
Vp
aVa
aVN
aVG
aV\u0254
aV\u0254
asba(imorph
Morph
p299
(dp300
g130
(lp301
Vp
aV\u025b
aV\u025b
aV\u03b2
aVa\u0303
p302
aVa\u0303
p303
asba(imorph
Morph
p304
(dp305
g130
(lp306
Vs
aVi
aVm
aVG
aVa\u0303
p307
aVa\u0303
p308
asbasS'time'
p309
F244.83956503868103
sb.