(dp1
(I4
I5
tp2
ccopy_reg
_reconstructor
p3
(csolution
Solution
p4
c__builtin__
object
p5
NtRp6
(dp7
S'rules'
p8
(lp9
sS'prefixes'
p10
(lp11
(imorph
Morph
p12
(dp13
S'phonemes'
p14
(lp15
Vl
asbasS'underlyingForms'
p16
(dp17
((imorph
Morph
(dp18
g14
(lp19
Vl
aVe
aVl
aVe
aVd
aVi
asbtp20
(imorph
Morph
p21
(dp22
g14
(lp23
Ve
aVl
aVe
aVd
aVi
asbssS'suffixes'
p24
(lp25
(imorph
Morph
p26
(dp27
g14
(lp28
sbasbs(I20
I1
tp29
g3
(g4
g5
NtRp30
(dp31
g8
(lp32
sg10
(lp33
(imorph
Morph
p34
(dp35
g14
(lp36
Vl
aVe
aVl
aVe
aVd
asbasg16
(dp37
g20
(imorph
Morph
p38
(dp39
g14
(lp40
Vi
asbssg24
(lp41
(imorph
Morph
p42
(dp43
g14
(lp44
sbasbs(I16
I2
tp45
g3
(g4
g5
NtRp46
(dp47
g8
(lp48
sg10
(lp49
(imorph
Morph
p50
(dp51
g14
(lp52
Vl
aVe
aVl
aVe
asbasg16
(dp53
g20
(imorph
Morph
p54
(dp55
g14
(lp56
Vd
aVi
asbssg24
(lp57
(imorph
Morph
p58
(dp59
g14
(lp60
sbasbs(I0
I6
tp61
g3
(g4
g5
NtRp62
(dp63
g8
(lp64
sg10
(lp65
(imorph
Morph
p66
(dp67
g14
(lp68
sbasg16
(dp69
g20
(imorph
Morph
p70
(dp71
g14
(lp72
Vl
aVe
aVl
aVe
aVd
aVi
asbssg24
(lp73
(imorph
Morph
p74
(dp75
g14
(lp76
sbasbs(I24
I0
tp77
g3
(g4
g5
NtRp78
(dp79
g8
(lp80
sg10
(lp81
(imorph
Morph
p82
(dp83
g14
(lp84
Vl
aVe
aVl
aVe
asbasg16
(dp85
g20
(imorph
Morph
p86
(dp87
g14
(lp88
sbssg24
(lp89
(imorph
Morph
p90
(dp91
g14
(lp92
Vd
aVi
asbasbs(I12
I3
tp93
g3
(g4
g5
NtRp94
(dp95
g8
(lp96
sg10
(lp97
(imorph
Morph
p98
(dp99
g14
(lp100
Vl
aVe
asbasg16
(dp101
g20
(imorph
Morph
p102
(dp103
g14
(lp104
Vl
aVe
aVd
asbssg24
(lp105
(imorph
Morph
p106
(dp107
g14
(lp108
Vi
asbasbs(I8
I4
tp109
g3
(g4
g5
NtRp110
(dp111
g8
(lp112
sg10
(lp113
(imorph
Morph
p114
(dp115
g14
(lp116
sbasg16
(dp117
g20
(imorph
Morph
p118
(dp119
g14
(lp120
Vl
aVe
aVl
aVe
asbssg24
(lp121
(imorph
Morph
p122
(dp123
g14
(lp124
Vd
aVi
asbasbs.