((lp1
ccopy_reg
_reconstructor
p2
(csolution
Solution
p3
c__builtin__
object
p4
NtRp5
(dp6
S'rules'
p7
(lp8
(irule
Rule
p9
(dp10
S'leftTriggers'
p11
(irule
Guard
p12
(dp13
S'endOfString'
p14
I00
sS'specifications'
p15
(lp16
sS'optionalEnding'
p17
I00
sS'representation'
p18
V
sS'starred'
p19
I00
sS'side'
p20
S'L'
sbsS'structuralChange'
p21
(irule
FeatureMatrix
p22
(dp23
S'featuresAndPolarities'
p24
(lp25
(I00
S'voice'
p26
tp27
asg18
V[ -voice ]
p28
sbsS'rightTriggers'
p29
(irule
Guard
p30
(dp31
g14
I01
sg15
(lp32
sg17
I00
sg18
V#
sg19
I00
sg20
S'R'
sbsS'focus'
p33
(irule
FeatureMatrix
p34
(dp35
g24
(lp36
(I00
S'sonorant'
p37
tp38
asg18
V[ -sonorant ]
p39
sbsg18
V[ -sonorant ] ---> [ -voice ] /  _ #
p40
sba(irule
Rule
p41
(dp42
g11
(irule
Guard
p43
(dp44
g14
I00
sg15
(lp45
(irule
FeatureMatrix
p46
(dp47
g24
(lp48
(I00
S'back'
p49
tp50
asg18
V[ -back ]
p51
sbasg17
I00
sg18
g51
sg19
I00
sg20
S'L'
sbsg21
(irule
ConstantPhoneme
p52
(dp53
S'p'
Vu
sbsg29
(irule
Guard
p54
(dp55
g14
I00
sg15
(lp56
(irule
FeatureMatrix
p57
(dp58
g24
(lp59
(I00
g26
tp60
asg18
V[ -voice ]
p61
sbasg17
I00
sg18
g61
sg19
I00
sg20
S'R'
sbsg33
(irule
FeatureMatrix
p62
(dp63
g24
(lp64
sg18
V[  ]
p65
sbsg18
V[  ] ---> u / [ -back ] _ [ -voice ]
p66
sbasS'prefixes'
p67
(lp68
(imorph
Morph
p69
(dp70
S'phonemes'
p71
(lp72
sba(imorph
Morph
p73
(dp74
g71
(lp75
sbasS'underlyingForms'
p76
(dp77
((imorph
Morph
(dp78
g71
(lp79
Vw
aVu
aVk
asb(imorph
Morph
(dp80
g71
(lp81
Vw
aVu
aVk
aVi
asbtp82
(imorph
Morph
p83
(dp84
g71
(lp85
Vw
aVu
aVk
asbs((imorph
Morph
(dp86
g71
(lp87
Vd
aVo
aVm
asb(imorph
Morph
(dp88
g71
(lp89
Vd
aVo
aVm
aVi
asbtp90
(imorph
Morph
p91
(dp92
g71
(lp93
Vd
aVo
aVm
asbs((imorph
Morph
(dp94
g71
(lp95
Vl
aVu
aVt
asb(imorph
Morph
(dp96
g71
(lp97
Vl
aVo
aVd
aVi
asbtp98
(imorph
Morph
p99
(dp100
g71
(lp101
Vl
aVo
aVd
asbs((imorph
Morph
(dp102
g71
(lp103
Vv
aVu
aVs
asb(imorph
Morph
(dp104
g71
(lp105
Vv
aVo
aVz
aVi
asbtp106
(imorph
Morph
p107
(dp108
g71
(lp109
Vv
aVo
aVz
asbs((imorph
Morph
(dp110
g71
(lp111
Vw
aVu
aVk
asb(imorph
Morph
(dp112
g71
(lp113
Vw
aVu
aVg
aVi
asbtp114
(imorph
Morph
p115
(dp116
g71
(lp117
Vw
aVu
aVg
asbs((imorph
Morph
(dp118
g71
(lp119
Vk
aVo
aVt
asb(imorph
Morph
(dp120
g71
(lp121
Vk
aVo
aVt
aVi
asbtp122
(imorph
Morph
p123
(dp124
g71
(lp125
Vk
aVo
aVt
asbs((imorph
Morph
(dp126
g71
(lp127
Vr
aVu
aVk
asb(imorph
Morph
(dp128
g71
(lp129
Vr
aVo
aVg
aVi
asbtp130
(imorph
Morph
p131
(dp132
g71
(lp133
Vr
aVo
aVg
asbs((imorph
Morph
(dp134
g71
(lp135
Vk
aVl
aVu
aVp
asb(imorph
Morph
(dp136
g71
(lp137
Vk
aVl
aVu
aVb
aVi
asbtp138
(imorph
Morph
p139
(dp140
g71
(lp141
Vk
aVl
aVu
aVb
asbssS'suffixes'
p142
(lp143
(imorph
Morph
p144
(dp145
g71
(lp146
sba(imorph
Morph
p147
(dp148
g71
(lp149
Vi
asbasba(lp150
(I13
I25
tp151
atp152
.