(iresult
Result
p1
(dp2
S'startTime'
p3
F1565820529.265198
sS'solutionSequence'
p4
(lp5
(ccopy_reg
_reconstructor
p6
(csolution
Solution
p7
c__builtin__
object
p8
NtRp9
(dp10
S'rules'
p11
(lp12
(irule
Rule
p13
(dp14
S'leftTriggers'
p15
(irule
Guard
p16
(dp17
S'endOfString'
p18
I00
sS'specifications'
p19
(lp20
(irule
FeatureMatrix
p21
(dp22
S'featuresAndPolarities'
p23
(lp24
sS'representation'
p25
V[  ]
p26
sbasS'optionalEnding'
p27
I00
sg25
g26
sS'starred'
p28
I00
sS'side'
p29
S'L'
sbsS'structuralChange'
p30
(irule
ConstantPhoneme
p31
(dp32
S'p'
Vh
sbsS'rightTriggers'
p33
(irule
Guard
p34
(dp35
g18
I00
sg19
(lp36
sg27
I00
sg25
V
sg28
I00
sg29
S'R'
sbsS'focus'
p37
(irule
FeatureMatrix
p38
(dp39
g23
(lp40
(I00
S'voice'
p41
tp42
asg25
V[ -voice ]
p43
sbsg25
V[ -voice ] ---> h / [  ] _ 
p44
sba(irule
Rule
p45
(dp46
g15
(irule
Guard
p47
(dp48
g18
I00
sg19
(lp49
(irule
FeatureMatrix
p50
(dp51
g23
(lp52
(I00
S'tense'
p53
tp54
asg25
V[ -tense ]
p55
sbasg27
I00
sg25
g55
sg28
I00
sg29
S'L'
sbsg30
(irule
ConstantPhoneme
p56
(dp57
S'p'
V\u0294
sbsg33
(irule
Guard
p58
(dp59
g18
I00
sg19
(lp60
sg27
I00
sg25
V
sg28
I00
sg29
S'R'
sbsg37
(irule
FeatureMatrix
p61
(dp62
g23
(lp63
(I01
S'secondStress'
p64
tp65
asg25
V[ +secondStress ]
p66
sbsg25
V[ +secondStress ] ---> \u0294 / [ -tense ] _ 
p67
sba(irule
Rule
p68
(dp69
g15
(irule
Guard
p70
(dp71
g18
I00
sg19
(lp72
(irule
FeatureMatrix
p73
(dp74
g23
(lp75
(I01
S'middle'
p76
tp77
asg25
V[ +middle ]
p78
sbasg27
I00
sg25
g78
sg28
I00
sg29
S'L'
sbsg30
(irule
ConstantPhoneme
p79
(dp80
S'p'
Vl
sbsg33
(irule
Guard
p81
(dp82
g18
I00
sg19
(lp83
sg27
I00
sg25
V
sg28
I00
sg29
S'R'
sbsg37
(irule
FeatureMatrix
p84
(dp85
g23
(lp86
sg25
V[  ]
p87
sbsg25
V[  ] ---> l / [ +middle ] _ 
p88
sbasS'prefixes'
p89
(lp90
(imorph
Morph
p91
(dp92
S'phonemes'
p93
(lp94
sbasS'underlyingForms'
p95
(dp96
((imorph
Morph
p97
(dp98
g93
(lp99
Vp
aVa:
p100
aVl
aVh
aVa
asbtp101
(imorph
Morph
p102
(dp103
g93
(lp104
Vp
aVa:
p105
aVl
aVl\u0325
p106
aVa
asbs((imorph
Morph
p107
(dp108
g93
(lp109
Vh
aVo
aVl
aVh
asbtp110
(imorph
Morph
p111
(dp112
g93
(lp113
Vh
aVo
aVn
aVl\u0325
p114
asbs((imorph
Morph
p115
(dp116
g93
(lp117
Vh
aVo
aVl
aV\u0294
aVa:
p118
aVl`
p119
aVa
asbtp120
(imorph
Morph
p121
(dp122
g93
(lp123
Vh
aVo
aVn
aVl`
p124
aVa:
p125
aVl`
p126
aVa
asbs((imorph
Morph
p127
(dp128
g93
(lp129
Vy
aVa
aVl
aVy
aVa
aVl
aV\u0294
aVi
asbtp130
(imorph
Morph
p131
(dp132
g93
(lp133
Vy
aVa
aVl
aVy
aVa
aVl
aVl`
p134
aVi
asbs((imorph
Morph
p135
(dp136
g93
(lp137
Vh
aVo
aVl
aVl
aVi:
p138
aVn
aVa
asbtp139
(imorph
Morph
p140
(dp141
g93
(lp142
Vh
aVo
aVn
aVl
aVi:
p143
aVn
aVa
asbssS'suffixes'
p144
(lp145
(imorph
Morph
p146
(dp147
g93
(lp148
sbasbF336.43716192245483
tp149
asS'problem'
p150
S'Halle_113_Klamath'
p151
sS'finalFrontier'
p152
g6
(csolution
Frontier
p153
g8
NtRp154
(dp155
g89
g90
sg144
g145
sg95
g96
sS'frontiers'
p156
(lp157
(lp158
g13
aa(lp159
g45
aa(lp160
g68
aasbsS'parameters'
p161
g6
(cargparse
Namespace
p162
g8
NtRp163
(dp164
S'restore'
p165
NsS'features'
p166
S'simple'
p167
sS'universal'
p168
NsS'restrict'
p169
NsS'seed'
p170
S'0'
sS'serial'
p171
I00
sS'alignment'
p172
I00
sS'top'
p173
I1
sS'maximumDepth'
p174
I3
sS'window'
p175
NsS'minimizeBits'
p176
I5
sS'samples'
p177
I30
sS'save'
p178
NsS'resume'
p179
I00
sS'disableClean'
p180
I00
sS'stemBaseline'
p181
I30
sS'dummy'
p182
I00
sS'task'
p183
S'incremental'
p184
sS'geometry'
p185
NsS'verbosity'
p186
I0
sS'timeout'
p187
F24
sS'debug'
p188
NsS'cores'
p189
I40
sg150
S'Halle_113_Klamath'
p190
sS'mergeFrontiers'
p191
I00
sbsb.