(iresult
Result
p1
(dp2
S'startTime'
p3
F1565820524.1045661
sS'solutionSequence'
p4
(lp5
(ccopy_reg
_reconstructor
p6
(csolution
Solution
p7
c__builtin__
object
p8
NtRp9
(dp10
S'rules'
p11
(lp12
(irule
Rule
p13
(dp14
S'leftTriggers'
p15
(irule
Guard
p16
(dp17
S'endOfString'
p18
I00
sS'specifications'
p19
(lp20
sS'optionalEnding'
p21
I00
sS'representation'
p22
V
sS'starred'
p23
I00
sS'side'
p24
S'L'
sbsS'structuralChange'
p25
(irule
FeatureMatrix
p26
(dp27
S'featuresAndPolarities'
p28
(lp29
sg22
V[  ]
p30
sbsS'rightTriggers'
p31
(irule
Guard
p32
(dp33
g18
I00
sg19
(lp34
sg21
I00
sg22
V
sg23
I00
sg24
S'R'
sbsS'focus'
p35
(irule
FeatureMatrix
p36
(dp37
g28
(lp38
sg22
V[  ]
p39
sbsg22
V[  ] ---> [  ] /  _ 
p40
sbasS'prefixes'
p41
(lp42
(imorph
Morph
p43
(dp44
S'phonemes'
p45
(lp46
Va
aVt
asba(imorph
Morph
p47
(dp48
g45
(lp49
Vb^y
p50
aVi
aVz
asba(imorph
Morph
p51
(dp52
g45
(lp53
Vu
asbasS'underlyingForms'
p54
(dp55
((imorph
Morph
p56
(dp57
g45
(lp58
Va
aVt
aVa\u0301
p59
aVl
aV\u0268
asb(imorph
Morph
p60
(dp61
g45
(lp62
Vb^y
p63
aVi
aVz
aVa\u0301
p64
aVl
aV\u0268
asb(imorph
Morph
p65
(dp66
g45
(lp67
Vu
aVa\u0301
p68
aVl
aV\u0268
asbtp69
(imorph
Morph
p70
(dp71
g45
(lp72
Va\u0301
p73
aVl
asbs((imorph
Morph
p74
(dp75
g45
(lp76
Va
aVt
aVr
aVo\u0301
p77
aVz
aV\u0268
asb(imorph
Morph
p78
(dp79
g45
(lp80
Vb^y
p81
aVi
aVz
aVr
aVo\u0301
p82
aVz
aV\u0268
asb(imorph
Morph
p83
(dp84
g45
(lp85
Vu
aVr
aVo\u0301
p86
aVz
aV\u0268
asbtp87
(imorph
Morph
p88
(dp89
g45
(lp90
Vr
aVo\u0301
p91
aVz
asbs((imorph
Morph
p92
(dp93
g45
(lp94
Va
aVt
aVk
aVa
aVr
aVo\u0301
p95
aVv
aV\u0268
asb(imorph
Morph
p96
(dp97
g45
(lp98
Vb^y
p99
aVi
aVz
aVk
aVa
aVr
aVo\u0301
p100
aVv
aV\u0268
asb(imorph
Morph
p101
(dp102
g45
(lp103
Vu
aVk
aVa
aVr
aVo\u0301
p104
aVv
aV\u0268
asbtp105
(imorph
Morph
p106
(dp107
g45
(lp108
Vk
aVa
aVr
ag91
aVv
asbssS'suffixes'
p109
(lp110
(imorph
Morph
p111
(dp112
g45
(lp113
V\u0268
asba(imorph
Morph
p114
(dp115
g45
(lp116
V\u0268
asba(imorph
Morph
p117
(dp118
g45
(lp119
V\u0268
asbasbF127.86140584945679
tp120
a(g6
(g7
g8
NtRp121
(dp122
g11
(lp123
(irule
Rule
p124
(dp125
g15
(irule
Guard
p126
(dp127
g18
I00
sg19
(lp128
sg21
I00
sg22
V
sg23
I00
sg24
S'L'
sbsg25
(irule
FeatureMatrix
p129
(dp130
g28
(lp131
(I01
S'voice'
p132
tp133
asg22
V[ +voice ]
p134
sbsg31
(irule
Guard
p135
(dp136
g18
I00
sg19
(lp137
(irule
FeatureMatrix
p138
(dp139
g28
(lp140
(I01
S'bilabial'
p141
tp142
asg22
V[ +bilabial ]
p143
sbasg21
I00
sg22
g143
sg23
I00
sg24
S'R'
sbsg35
(irule
FeatureMatrix
p144
(dp145
g28
(lp146
sg22
V[  ]
p147
sbsg22
V[  ] ---> [ +voice ] /  _ [ +bilabial ]
p148
sbasg41
(lp149
(imorph
Morph
p150
(dp151
g45
(lp152
Va
aVt
asba(imorph
Morph
p153
(dp154
g45
(lp155
g50
aVi
aVz
asba(imorph
Morph
p156
(dp157
g45
(lp158
Vu
asbasg54
(dp159
(g56
g60
g65
tp160
(imorph
Morph
p161
(dp162
g45
(lp163
g73
aVl
aV\u0268
asbs((imorph
Morph
p164
(dp165
g45
(lp166
Va
aVd
aVb
aVa
aVr
aVa
aVd
aV\u0268\u0301
p167
asb(imorph
Morph
p168
(dp169
g45
(lp170
Vb^y
p171
aVi
aVz
aVb
aVa
aVr
aVa
aVd
aV\u0268\u0301
p172
asb(imorph
Morph
p173
(dp174
g45
(lp175
Vu
aVb
aVa
aVr
aVa
aVd
aV\u0268\u0301
p176
asbtp177
(imorph
Morph
p178
(dp179
g45
(lp180
Vb
aVa
aVr
aVa
aVd
aV\u0268\u0301
p181
asbs(g74
g78
g83
tp182
(imorph
Morph
p183
(dp184
g45
(lp185
Vr
ag91
aVz
aV\u0268
asbs(g92
g96
g101
tp186
(imorph
Morph
p187
(dp188
g45
(lp189
Vk
aVa
aVr
ag91
aVv
aV\u0268
asbssg109
(lp190
(imorph
Morph
p191
(dp192
g45
(lp193
sba(imorph
Morph
p194
(dp195
g45
(lp196
sba(imorph
Morph
p197
(dp198
g45
(lp199
sbasbF800.64944386482239
tp200
a(g6
(g7
g8
NtRp201
(dp202
g11
(lp203
(irule
Rule
p204
(dp205
g15
(irule
Guard
p206
(dp207
g18
I00
sg19
(lp208
sg21
I00
sg22
V
sg23
I00
sg24
S'L'
sbsg25
(irule
ConstantPhoneme
p209
(dp210
S'p'
Vs
sbsg31
(irule
Guard
p211
(dp212
g18
I00
sg19
(lp213
(irule
FeatureMatrix
p214
(dp215
g28
(lp216
(I01
S'alveolar'
p217
tp218
asg22
V[ +alveolar ]
p219
sbasg21
I00
sg22
g219
sg23
I00
sg24
S'R'
sbsg35
(irule
FeatureMatrix
p220
(dp221
g28
(lp222
(I01
S'fricative'
p223
tp224
asg22
V[ +fricative ]
p225
sbsg22
V[ +fricative ] ---> s /  _ [ +alveolar ]
p226
sba(irule
Rule
p227
(dp228
g15
(irule
Guard
p229
(dp230
g18
I00
sg19
(lp231
sg21
I00
sg22
V
sg23
I00
sg24
S'L'
sbsg25
(irule
FeatureMatrix
p232
(dp233
g28
(lp234
(I01
g132
tp235
asg22
V[ +voice ]
p236
sbsg31
(irule
Guard
p237
(dp238
g18
I00
sg19
(lp239
(irule
ConstantPhoneme
p240
(dp241
S'p'
Vb
sbasg21
I00
sg22
Vb
sg23
I00
sg24
S'R'
sbsg35
(irule
FeatureMatrix
p242
(dp243
g28
(lp244
sg22
V[  ]
p245
sbsg22
V[  ] ---> [ +voice ] /  _ b
p246
sbasg41
(lp247
(imorph
Morph
p248
(dp249
g45
(lp250
Va
aVt
asba(imorph
Morph
p251
(dp252
g45
(lp253
g50
aVi
aVz
asba(imorph
Morph
p254
(dp255
g45
(lp256
Vu
asbasg54
(dp257
(g56
g60
g65
tp258
(imorph
Morph
p259
(dp260
g45
(lp261
g73
aVl
aV\u0268
asbs(g164
g168
g173
tp262
(imorph
Morph
p263
(dp264
g45
(lp265
Vb
aVa
aVr
aVa
aVd
ag181
asbs(g74
g78
g83
tp266
(imorph
Morph
p267
(dp268
g45
(lp269
Vr
ag91
aVz
aV\u0268
asbs((imorph
Morph
p270
(dp271
g45
(lp272
Va
aVt
aVs^y
p273
aVi
aVs
aVt
aVr
aV\u0268\u0301
p274
asb(imorph
Morph
p275
(dp276
g45
(lp277
Vb^y
p278
aVi
aVs
aVs^y
p279
aVi
aVs
aVt
aVr
aV\u0268\u0301
p280
asb(imorph
Morph
p281
(dp282
g45
(lp283
Vu
aVs^y
p284
aVi
aVs
aVt
aVr
aV\u0268\u0301
p285
asbtp286
(imorph
Morph
p287
(dp288
g45
(lp289
Vs^y
p290
aVi
aVv
aVt
aVr
ag181
asbs(g92
g96
g101
tp291
(imorph
Morph
p292
(dp293
g45
(lp294
Vk
aVa
aVr
ag91
aVv
aV\u0268
asbssg109
(lp295
(imorph
Morph
p296
(dp297
g45
(lp298
sba(imorph
Morph
p299
(dp300
g45
(lp301
sba(imorph
Morph
p302
(dp303
g45
(lp304
sbasbF9464.5584709644318
tp305
asS'problem'
p306
S'Halle_109_Russian'
p307
sS'finalFrontier'
p308
g6
(csolution
Frontier
p309
g8
NtRp310
(dp311
g41
g247
sg109
g295
sg54
g257
sS'frontiers'
p312
(lp313
(lp314
g204
aa(lp315
g227
aasbsS'parameters'
p316
g6
(cargparse
Namespace
p317
g8
NtRp318
(dp319
S'restore'
p320
NsS'features'
p321
S'simple'
p322
sS'universal'
p323
NsS'restrict'
p324
NsS'seed'
p325
S'0'
sS'serial'
p326
I00
sS'alignment'
p327
I00
sS'top'
p328
I1
sS'maximumDepth'
p329
I3
sS'window'
p330
NsS'minimizeBits'
p331
I5
sS'samples'
p332
I30
sS'save'
p333
NsS'resume'
p334
I00
sS'disableClean'
p335
I00
sS'stemBaseline'
p336
I30
sS'dummy'
p337
I00
sS'task'
p338
S'CEGIS'
p339
sS'geometry'
p340
NsS'verbosity'
p341
I0
sS'timeout'
p342
F24
sS'debug'
p343
NsS'cores'
p344
I40
sg306
S'Halle_109_Russian'
p345
sS'mergeFrontiers'
p346
I00
sbsb.