(iresult
Result
p1
(dp2
S'startTime'
p3
F1591191713.964519
sS'solutionSequence'
p4
(lp5
(ccopy_reg
_reconstructor
p6
(csolution
Solution
p7
c__builtin__
object
p8
NtRp9
(dp10
S'rules'
p11
(lp12
(irule
Rule
p13
(dp14
S'leftTriggers'
p15
(irule
Guard
p16
(dp17
S'endOfString'
p18
I00
sS'specifications'
p19
(lp20
sS'optionalEnding'
p21
I00
sS'representation'
p22
V
sS'starred'
p23
I00
sS'side'
p24
S'L'
sbsS'structuralChange'
p25
(irule
FeatureMatrix
p26
(dp27
S'featuresAndPolarities'
p28
(lp29
sg22
V[  ]
p30
sbsS'rightTriggers'
p31
(irule
Guard
p32
(dp33
g18
I00
sg19
(lp34
sg21
I00
sg22
V
sg23
I00
sg24
S'R'
sbsS'focus'
p35
(irule
FeatureMatrix
p36
(dp37
g28
(lp38
sg22
V[  ]
p39
sbsg22
V[  ] ---> [  ] /  _ 
p40
sbasS'prefixes'
p41
(lp42
(imorph
Morph
p43
(dp44
S'phonemes'
p45
(lp46
sba(imorph
Morph
p47
(dp48
g45
(lp49
sba(imorph
Morph
p50
(dp51
g45
(lp52
sba(imorph
Morph
p53
(dp54
g45
(lp55
sba(imorph
Morph
p56
(dp57
g45
(lp58
sbasS'underlyingForms'
p59
(dp60
((imorph
Morph
(dp61
g45
(lp62
Vm
aVi
aVr
aVu
asb(imorph
Morph
(dp63
g45
(lp64
Vm
aVi
aVn
aVa
aVi
asb(imorph
Morph
(dp65
g45
(lp66
Vm
aVi
aVt
aVa
aVi
asb(imorph
Morph
(dp67
g45
(lp68
Vm
aVi
aVt
aVa
asb(imorph
Morph
(dp69
g45
(lp70
Vm
aVi
aVy
aVo
aVo
asbtp71
(imorph
Morph
p72
(dp73
g45
(lp74
Vm
aVi
asbs((imorph
Morph
p75
(dp76
g45
(lp77
Vn
aVe
aVr
aVu
asb(imorph
Morph
p78
(dp79
g45
(lp80
Vn
aVe
aVn
aVa
aVi
asb(imorph
Morph
p81
(dp82
g45
(lp83
Vn
aVe
aVt
aVa
aVi
asb(imorph
Morph
p84
(dp85
g45
(lp86
Vn
aVe
aVt
aVa
asb(imorph
Morph
p87
(dp88
g45
(lp89
Vn
aVe
aVy
aVo
aVo
asbtp90
(imorph
Morph
p91
(dp92
g45
(lp93
Vn
aVe
asbssS'suffixes'
p94
(lp95
(imorph
Morph
p96
(dp97
g45
(lp98
Vr
aVu
asba(imorph
Morph
p99
(dp100
g45
(lp101
Vn
aVa
aVi
asba(imorph
Morph
p102
(dp103
g45
(lp104
Vt
aVa
aVi
asba(imorph
Morph
p105
(dp106
g45
(lp107
Vt
aVa
asba(imorph
Morph
p108
(dp109
g45
(lp110
Vy
aVo
aVo
asbasbF15.470424890518188
tp111
asS'problem'
p112
S'Halle_127_Japanese'
p113
sS'finalFrontier'
p114
g6
(csolution
Frontier
p115
g8
NtRp116
(dp117
g41
g42
sg94
g95
sg59
g60
sS'frontiers'
p118
(lp119
(lp120
g13
aasbsS'parameters'
p121
g6
(cargparse
Namespace
p122
g8
NtRp123
(dp124
S'restore'
p125
NsS'features'
p126
S'none'
p127
sS'universal'
p128
NsS'restrict'
p129
NsS'seed'
p130
NsS'serial'
p131
I00
sS'cv'
p132
I00
sS'alignment'
p133
I00
sS'top'
p134
I1
sS'maximumDepth'
p135
I3
sS'window'
p136
NsS'minimizeBits'
p137
I5
sS'samples'
p138
I30
sS'save'
p139
NsS'resume'
p140
I00
sS'disableClean'
p141
I01
sS'stemBaseline'
p142
I30
sS'dummy'
p143
I00
sS'task'
p144
S'CEGIS'
p145
sS'geometry'
p146
NsS'verbosity'
p147
I0
sS'noConstant'
p148
I00
sS'timeout'
p149
F24
sS'debug'
p150
NsS'cores'
p151
I40
sg112
S'Halle_127_Japanese'
p152
sS'mergeFrontiers'
p153
I00
sbsb.