(iresult
Result
p1
(dp2
S'startTime'
p3
F1551020006.3888581
sS'solutionSequence'
p4
(lp5
(ccopy_reg
_reconstructor
p6
(csolution
Solution
p7
c__builtin__
object
p8
NtRp9
(dp10
S'rules'
p11
(lp12
(irule
Rule
p13
(dp14
S'leftTriggers'
p15
(irule
Guard
p16
(dp17
S'endOfString'
p18
I00
sS'specifications'
p19
(lp20
sS'optionalEnding'
p21
I00
sS'representation'
p22
V
sS'starred'
p23
I00
sS'side'
p24
S'L'
sbsS'structuralChange'
p25
(irule
FeatureMatrix
p26
(dp27
S'featuresAndPolarities'
p28
(lp29
sg22
V[  ]
p30
sbsS'rightTriggers'
p31
(irule
Guard
p32
(dp33
g18
I00
sg19
(lp34
sg21
I00
sg22
V
sg23
I00
sg24
S'R'
sbsS'focus'
p35
(irule
FeatureMatrix
p36
(dp37
g28
(lp38
sg22
V[  ]
p39
sbsg22
V[  ] ---> [  ] /  _ 
p40
sbasS'prefixes'
p41
(lp42
(imorph
Morph
p43
(dp44
S'phonemes'
p45
(lp46
Va
aVt
asba(imorph
Morph
p47
(dp48
g45
(lp49
Vb^y
p50
aVi
aVz
asba(imorph
Morph
p51
(dp52
g45
(lp53
Vu
asbasS'underlyingForms'
p54
(dp55
((imorph
Morph
p56
(dp57
g45
(lp58
Va
aVt
aVa\u0301
p59
aVl
aV\u0268
asb(imorph
Morph
p60
(dp61
g45
(lp62
Vb^y
p63
aVi
aVz
aVa\u0301
p64
aVl
aV\u0268
asb(imorph
Morph
p65
(dp66
g45
(lp67
Vu
aVa\u0301
p68
aVl
aV\u0268
asbtp69
(imorph
Morph
p70
(dp71
g45
(lp72
Va\u0301
p73
aVl
asbs((imorph
Morph
p74
(dp75
g45
(lp76
Va
aVt
aVr
aVo\u0301
p77
aVz
aV\u0268
asb(imorph
Morph
p78
(dp79
g45
(lp80
Vb^y
p81
aVi
aVz
aVr
aVo\u0301
p82
aVz
aV\u0268
asb(imorph
Morph
p83
(dp84
g45
(lp85
Vu
aVr
aVo\u0301
p86
aVz
aV\u0268
asbtp87
(imorph
Morph
p88
(dp89
g45
(lp90
Vr
aVo\u0301
p91
aVz
asbs((imorph
Morph
p92
(dp93
g45
(lp94
Va
aVt
aVk
aVa
aVr
aVo\u0301
p95
aVv
aV\u0268
asb(imorph
Morph
p96
(dp97
g45
(lp98
Vb^y
p99
aVi
aVz
aVk
aVa
aVr
aVo\u0301
p100
aVv
aV\u0268
asb(imorph
Morph
p101
(dp102
g45
(lp103
Vu
aVk
aVa
aVr
aVo\u0301
p104
aVv
aV\u0268
asbtp105
(imorph
Morph
p106
(dp107
g45
(lp108
Vk
aVa
aVr
ag91
aVv
asbssS'suffixes'
p109
(lp110
(imorph
Morph
p111
(dp112
g45
(lp113
V\u0268
asba(imorph
Morph
p114
(dp115
g45
(lp116
V\u0268
asba(imorph
Morph
p117
(dp118
g45
(lp119
V\u0268
asbasbF25.97379994392395
tp120
a(g6
(g7
g8
NtRp121
(dp122
g11
(lp123
(irule
Rule
p124
(dp125
g15
(irule
Guard
p126
(dp127
g18
I00
sg19
(lp128
sg21
I00
sg22
V
sg23
I00
sg24
S'L'
sbsg25
(irule
ConstantPhoneme
p129
(dp130
S'p'
Vs
sbsg31
(irule
Guard
p131
(dp132
g18
I00
sg19
(lp133
(irule
FeatureMatrix
p134
(dp135
g28
(lp136
(I01
S'anterior'
tp137
asg22
V[ +anterior ]
p138
sbasg21
I00
sg22
g138
sg23
I00
sg24
S'R'
sbsg35
(irule
FeatureMatrix
p139
(dp140
g28
(lp141
(I01
S'sibilant'
tp142
asg22
V[ +sibilant ]
p143
sbsg22
V[ +sibilant ] ---> s /  _ [ +anterior ]
p144
sba(irule
Rule
p145
(dp146
g15
(irule
Guard
p147
(dp148
g18
I00
sg19
(lp149
sg21
I00
sg22
V
sg23
I00
sg24
S'L'
sbsg25
(irule
FeatureMatrix
p150
(dp151
g28
(lp152
(I01
S'voice'
tp153
asg22
V[ +voice ]
p154
sbsg31
(irule
Guard
p155
(dp156
g18
I00
sg19
(lp157
(irule
ConstantPhoneme
p158
(dp159
S'p'
Vb
sbasg21
I00
sg22
Vb
sg23
I00
sg24
S'R'
sbsg35
(irule
FeatureMatrix
p160
(dp161
g28
(lp162
sg22
V[  ]
p163
sbsg22
V[  ] ---> [ +voice ] /  _ b
p164
sbasg41
(lp165
(imorph
Morph
p166
(dp167
g45
(lp168
Va
aVt
asba(imorph
Morph
p169
(dp170
g45
(lp171
Vb^y
p172
aVi
aVz
asba(imorph
Morph
p173
(dp174
g45
(lp175
Vu
asbasg54
(dp176
((imorph
Morph
(dp177
g45
(lp178
Va
aVt
aVa\u0301
p179
aVl
aV\u0268
asb(imorph
Morph
(dp180
g45
(lp181
Vb^y
p182
aVi
aVz
aVa\u0301
p183
aVl
aV\u0268
asb(imorph
Morph
(dp184
g45
(lp185
Vu
aVa\u0301
p186
aVl
aV\u0268
asbtp187
(imorph
Morph
p188
(dp189
g45
(lp190
Va\u0301
p191
aVl
aV\u0268
asbs((imorph
Morph
(dp192
g45
(lp193
Va
aVd
aVb
aVa
aVr
aVa
aVd
aV\u0268\u0301
p194
asb(imorph
Morph
(dp195
g45
(lp196
Vb^y
p197
aVi
aVz
aVb
aVa
aVr
aVa
aVd
aV\u0268\u0301
p198
asb(imorph
Morph
(dp199
g45
(lp200
Vu
aVb
aVa
aVr
aVa
aVd
aV\u0268\u0301
p201
asbtp202
(imorph
Morph
p203
(dp204
g45
(lp205
Vb
aVa
aVr
aVa
aVd
aV\u0268\u0301
p206
asbs((imorph
Morph
(dp207
g45
(lp208
Va
aVt
aVr
aVo\u0301
p209
aVz
aV\u0268
asb(imorph
Morph
(dp210
g45
(lp211
Vb^y
p212
aVi
aVz
aVr
aVo\u0301
p213
aVz
aV\u0268
asb(imorph
Morph
(dp214
g45
(lp215
Vu
aVr
aVo\u0301
p216
aVz
aV\u0268
asbtp217
(imorph
Morph
p218
(dp219
g45
(lp220
Vr
aVo\u0301
p221
aVz
aV\u0268
asbs((imorph
Morph
(dp222
g45
(lp223
Va
aVt
aVs^y
p224
aVi
aVs
aVt
aVr
aV\u0268\u0301
p225
asb(imorph
Morph
(dp226
g45
(lp227
Vb^y
p228
aVi
aVs
aVs^y
p229
aVi
aVs
aVt
aVr
aV\u0268\u0301
p230
asb(imorph
Morph
(dp231
g45
(lp232
Vu
aVs^y
p233
aVi
aVs
aVt
aVr
aV\u0268\u0301
p234
asbtp235
(imorph
Morph
p236
(dp237
g45
(lp238
Vs^y
p239
aVi
aVs
aVt
aVr
ag206
asbs((imorph
Morph
(dp240
g45
(lp241
Va
aVt
aVk
aVa
aVr
aVo\u0301
p242
aVv
aV\u0268
asb(imorph
Morph
(dp243
g45
(lp244
Vb^y
p245
aVi
aVz
aVk
aVa
aVr
aVo\u0301
p246
aVv
aV\u0268
asb(imorph
Morph
(dp247
g45
(lp248
Vu
aVk
aVa
aVr
aVo\u0301
p249
aVv
aV\u0268
asbtp250
(imorph
Morph
p251
(dp252
g45
(lp253
Vk
aVa
aVr
ag221
aVv
aV\u0268
asbssg109
(lp254
(imorph
Morph
p255
(dp256
g45
(lp257
sba(imorph
Morph
p258
(dp259
g45
(lp260
sba(imorph
Morph
p261
(dp262
g45
(lp263
sbasbF3848.9819428920746
tp264
asS'problem'
p265
S'Halle_109_Russian'
p266
sS'finalFrontier'
p267
g6
(csolution
Frontier
p268
g8
NtRp269
(dp270
g41
g165
sg109
g254
sg54
(dp271
(g56
g60
g65
tp272
(imorph
Morph
p273
(dp274
g45
(lp275
g73
aVl
aV\u0268
asbs((imorph
Morph
(dp276
g45
(lp277
Va
aVd
aVb
aVa
aVr
aVa
aVd
aV\u0268\u0301
p278
asb(imorph
Morph
(dp279
g45
(lp280
Vb^y
p281
aVi
aVz
aVb
aVa
aVr
aVa
aVd
aV\u0268\u0301
p282
asb(imorph
Morph
(dp283
g45
(lp284
Vu
aVb
aVa
aVr
aVa
aVd
aV\u0268\u0301
p285
asbtp286
(imorph
Morph
p287
(dp288
g45
(lp289
Vb
aVa
aVr
aVa
aVd
aV\u0268\u0301
p290
asbs(g74
g78
g83
tp291
(imorph
Morph
p292
(dp293
g45
(lp294
Vr
ag91
aVz
aV\u0268
asbs((imorph
Morph
(dp295
g45
(lp296
Va
aVt
aVs^y
p297
aVi
aVs
aVt
aVr
aV\u0268\u0301
p298
asb(imorph
Morph
(dp299
g45
(lp300
Vb^y
p301
aVi
aVs
aVs^y
p302
aVi
aVs
aVt
aVr
aV\u0268\u0301
p303
asb(imorph
Morph
(dp304
g45
(lp305
Vu
aVs^y
p306
aVi
aVs
aVt
aVr
aV\u0268\u0301
p307
asbtp308
(imorph
Morph
p309
(dp310
g45
(lp311
Vs^y
p312
aVi
aVs
aVt
aVr
ag290
asbs(g92
g96
g101
tp313
(imorph
Morph
p314
(dp315
g45
(lp316
Vk
aVa
aVr
ag91
aVv
aV\u0268
asbssS'frontiers'
p317
(lp318
(lp319
(irule
Rule
p320
(dp321
g15
(irule
Guard
p322
(dp323
g18
I00
sg19
(lp324
sg21
I00
sg22
V
sg23
I00
sg24
S'L'
sbsg25
(irule
ConstantPhoneme
p325
(dp326
S'p'
Vs
sbsg31
(irule
Guard
p327
(dp328
g18
I00
sg19
(lp329
(irule
FeatureMatrix
p330
(dp331
g28
(lp332
(I01
S'anterior'
tp333
asg22
V[ +anterior ]
p334
sbasg21
I00
sg22
g334
sg23
I00
sg24
S'R'
sbsg35
(irule
FeatureMatrix
p335
(dp336
g28
(lp337
(I01
S'sibilant'
tp338
asg22
V[ +sibilant ]
p339
sbsg22
V[ +sibilant ] ---> s /  _ [ +anterior ]
p340
sba(irule
Rule
p341
(dp342
g15
(irule
Guard
p343
(dp344
g18
I00
sg19
(lp345
sg21
I00
sg22
Nsg23
I00
sg24
S'L'
sbsg25
(irule
FeatureMatrix
p346
(dp347
g28
(lp348
(I00
S'voice'
p349
tp350
asg22
Nsbsg31
(irule
Guard
p351
(dp352
g18
I00
sg19
(lp353
(irule
FeatureMatrix
p354
(dp355
g28
(lp356
(I01
S'anterior'
p357
tp358
asg22
Nsbasg21
I00
sg22
Nsg23
I00
sg24
S'R'
sbsg35
(irule
FeatureMatrix
p359
(dp360
g28
(lp361
(I01
S'coronal'
p362
tp363
asg22
Nsbsg22
Nsba(irule
Rule
p364
(dp365
g15
(irule
Guard
p366
(dp367
g18
I00
sg19
(lp368
sg21
I00
sg22
Nsg23
I00
sg24
S'L'
sbsg25
(irule
FeatureMatrix
p369
(dp370
g28
(lp371
(I00
g349
tp372
asg22
Nsbsg31
(irule
Guard
p373
(dp374
g18
I00
sg19
(lp375
(irule
FeatureMatrix
p376
(dp377
g28
(lp378
(I01
g357
tp379
asg22
Nsbasg21
I00
sg22
Nsg23
I00
sg24
S'R'
sbsg35
(irule
FeatureMatrix
p380
(dp381
g28
(lp382
(I01
S'sibilant'
p383
tp384
asg22
Nsbsg22
Nsba(irule
Rule
p385
(dp386
g15
(irule
Guard
p387
(dp388
g18
I00
sg19
(lp389
sg21
I00
sg22
Nsg23
I00
sg24
S'L'
sbsg25
(irule
FeatureMatrix
p390
(dp391
g28
(lp392
(I00
g349
tp393
asg22
Nsbsg31
(irule
Guard
p394
(dp395
g18
I00
sg19
(lp396
(irule
FeatureMatrix
p397
(dp398
g28
(lp399
(I01
g357
tp400
asg22
Nsbasg21
I00
sg22
Nsg23
I00
sg24
S'R'
sbsg35
(irule
FeatureMatrix
p401
(dp402
g28
(lp403
(I00
S'vowel'
p404
tp405
asg22
Nsbsg22
Nsba(irule
Rule
p406
(dp407
g15
(irule
Guard
p408
(dp409
g18
I00
sg19
(lp410
sg21
I00
sg22
Nsg23
I00
sg24
S'L'
sbsg25
(irule
FeatureMatrix
p411
(dp412
g28
(lp413
(I00
g349
tp414
asg22
Nsbsg31
(irule
Guard
p415
(dp416
g18
I00
sg19
(lp417
(irule
FeatureMatrix
p418
(dp419
g28
(lp420
(I01
g357
tp421
asg22
Nsbasg21
I00
sg22
Nsg23
I00
sg24
S'R'
sbsg35
(irule
FeatureMatrix
p422
(dp423
g28
(lp424
(I01
g357
tp425
asg22
Nsbsg22
Nsba(irule
Rule
p426
(dp427
g15
(irule
Guard
p428
(dp429
g18
I00
sg19
(lp430
sg21
I00
sg22
Nsg23
I00
sg24
S'L'
sbsg25
(irule
FeatureMatrix
p431
(dp432
g28
(lp433
(I00
g349
tp434
asg22
Nsbsg31
(irule
Guard
p435
(dp436
g18
I00
sg19
(lp437
(irule
FeatureMatrix
p438
(dp439
g28
(lp440
(I01
g357
tp441
asg22
Nsbasg21
I00
sg22
Nsg23
I00
sg24
S'R'
sbsg35
(irule
FeatureMatrix
p442
(dp443
g28
(lp444
(I00
S'sonorant'
p445
tp446
asg22
Nsbsg22
Nsba(irule
Rule
p447
(dp448
g15
(irule
Guard
p449
(dp450
g18
I00
sg19
(lp451
sg21
I00
sg22
Nsg23
I00
sg24
S'L'
sbsg25
(irule
FeatureMatrix
p452
(dp453
g28
(lp454
(I00
g349
tp455
asg22
Nsbsg31
(irule
Guard
p456
(dp457
g18
I00
sg19
(lp458
(irule
FeatureMatrix
p459
(dp460
g28
(lp461
(I01
g357
tp462
asg22
Nsbasg21
I00
sg22
Nsg23
I00
sg24
S'R'
sbsg35
(irule
FeatureMatrix
p463
(dp464
g28
(lp465
(I00
S'tense'
p466
tp467
asg22
Nsbsg22
Nsba(irule
Rule
p468
(dp469
g15
(irule
Guard
p470
(dp471
g18
I00
sg19
(lp472
sg21
I00
sg22
Nsg23
I00
sg24
S'L'
sbsg25
(irule
FeatureMatrix
p473
(dp474
g28
(lp475
(I00
g349
tp476
asg22
Nsbsg31
(irule
Guard
p477
(dp478
g18
I00
sg19
(lp479
(irule
FeatureMatrix
p480
(dp481
g28
(lp482
(I01
g357
tp483
asg22
Nsbasg21
I00
sg22
Nsg23
I00
sg24
S'R'
sbsg35
(irule
ConstantPhoneme
p484
(dp485
S'p'
Vz
sbsg22
Nsba(irule
Rule
p486
(dp487
g15
(irule
Guard
p488
(dp489
g18
I00
sg19
(lp490
sg21
I00
sg22
Nsg23
I00
sg24
S'L'
sbsg25
(irule
ConstantPhoneme
p491
(dp492
S'p'
Vs
sbsg31
(irule
Guard
p493
(dp494
g18
I00
sg19
(lp495
(irule
FeatureMatrix
p496
(dp497
g28
(lp498
(I01
g357
tp499
asg22
Nsbasg21
I00
sg22
Nsg23
I00
sg24
S'R'
sbsg35
(irule
ConstantPhoneme
p500
(dp501
S'p'
Vz
sbsg22
Nsba(irule
Rule
p502
(dp503
g15
(irule
Guard
p504
(dp505
g18
I00
sg19
(lp506
(irule
FeatureMatrix
p507
(dp508
g28
(lp509
(I01
g404
tp510
asg22
Nsbasg21
I00
sg22
Nsg23
I00
sg24
S'L'
sbsg25
(irule
FeatureMatrix
p511
(dp512
g28
(lp513
(I00
g349
tp514
asg22
Nsbsg31
(irule
Guard
p515
(dp516
g18
I00
sg19
(lp517
(irule
FeatureMatrix
p518
(dp519
g28
(lp520
(I01
g357
tp521
asg22
Nsbasg21
I00
sg22
Nsg23
I00
sg24
S'R'
sbsg35
(irule
FeatureMatrix
p522
(dp523
g28
(lp524
sg22
Nsbsg22
Nsba(irule
Rule
p525
(dp526
g15
(irule
Guard
p527
(dp528
g18
I00
sg19
(lp529
(irule
ConstantPhoneme
p530
(dp531
S'p'
Vi
sbasg21
I00
sg22
Nsg23
I00
sg24
S'L'
sbsg25
(irule
FeatureMatrix
p532
(dp533
g28
(lp534
(I00
g349
tp535
asg22
Nsbsg31
(irule
Guard
p536
(dp537
g18
I00
sg19
(lp538
(irule
FeatureMatrix
p539
(dp540
g28
(lp541
(I01
g357
tp542
asg22
Nsbasg21
I00
sg22
Nsg23
I00
sg24
S'R'
sbsg35
(irule
FeatureMatrix
p543
(dp544
g28
(lp545
sg22
Nsbsg22
Nsba(irule
Rule
p546
(dp547
g15
(irule
Guard
p548
(dp549
g18
I00
sg19
(lp550
(irule
FeatureMatrix
p551
(dp552
g28
(lp553
(I01
g466
tp554
asg22
Nsbasg21
I00
sg22
Nsg23
I00
sg24
S'L'
sbsg25
(irule
FeatureMatrix
p555
(dp556
g28
(lp557
(I00
g349
tp558
asg22
Nsbsg31
(irule
Guard
p559
(dp560
g18
I00
sg19
(lp561
(irule
FeatureMatrix
p562
(dp563
g28
(lp564
(I01
g357
tp565
asg22
Nsbasg21
I00
sg22
Nsg23
I00
sg24
S'R'
sbsg35
(irule
FeatureMatrix
p566
(dp567
g28
(lp568
sg22
Nsbsg22
Nsba(irule
Rule
p569
(dp570
g15
(irule
Guard
p571
(dp572
g18
I00
sg19
(lp573
(irule
FeatureMatrix
p574
(dp575
g28
(lp576
sg22
Nsbasg21
I00
sg22
Nsg23
I00
sg24
S'L'
sbsg25
(irule
FeatureMatrix
p577
(dp578
g28
(lp579
(I00
g349
tp580
asg22
Nsbsg31
(irule
Guard
p581
(dp582
g18
I00
sg19
(lp583
(irule
FeatureMatrix
p584
(dp585
g28
(lp586
(I01
g357
tp587
asg22
Nsbasg21
I00
sg22
Nsg23
I00
sg24
S'R'
sbsg35
(irule
FeatureMatrix
p588
(dp589
g28
(lp590
(I01
g383
tp591
asg22
Nsbsg22
Nsba(irule
Rule
p592
(dp593
g15
(irule
Guard
p594
(dp595
g18
I00
sg19
(lp596
sg21
I00
sg22
Nsg23
I00
sg24
S'L'
sbsg25
(irule
FeatureMatrix
p597
(dp598
g28
(lp599
(I00
g404
tp600
a(I00
g349
tp601
asg22
Nsbsg31
(irule
Guard
p602
(dp603
g18
I00
sg19
(lp604
(irule
FeatureMatrix
p605
(dp606
g28
(lp607
(I01
g357
tp608
asg22
Nsbasg21
I00
sg22
Nsg23
I00
sg24
S'R'
sbsg35
(irule
FeatureMatrix
p609
(dp610
g28
(lp611
(I01
g383
tp612
asg22
Nsbsg22
Nsba(irule
Rule
p613
(dp614
g15
(irule
Guard
p615
(dp616
g18
I00
sg19
(lp617
sg21
I00
sg22
Nsg23
I00
sg24
S'L'
sbsg25
(irule
FeatureMatrix
p618
(dp619
g28
(lp620
(I00
g349
tp621
asg22
Nsbsg31
(irule
Guard
p622
(dp623
g18
I00
sg19
(lp624
(irule
FeatureMatrix
p625
(dp626
g28
(lp627
(I01
g357
tp628
asg22
Nsbasg21
I00
sg22
Nsg23
I00
sg24
S'R'
sbsg35
(irule
FeatureMatrix
p629
(dp630
g28
(lp631
(I01
g357
tp632
a(I01
S'continuant'
p633
tp634
asg22
Nsbsg22
Nsba(irule
Rule
p635
(dp636
g15
(irule
Guard
p637
(dp638
g18
I00
sg19
(lp639
(irule
FeatureMatrix
p640
(dp641
g28
(lp642
(I01
S'high'
p643
tp644
asg22
Nsbasg21
I00
sg22
Nsg23
I00
sg24
S'L'
sbsg25
(irule
FeatureMatrix
p645
(dp646
g28
(lp647
(I00
g349
tp648
asg22
Nsbsg31
(irule
Guard
p649
(dp650
g18
I00
sg19
(lp651
(irule
FeatureMatrix
p652
(dp653
g28
(lp654
(I01
g357
tp655
asg22
Nsbasg21
I00
sg22
Nsg23
I00
sg24
S'R'
sbsg35
(irule
FeatureMatrix
p656
(dp657
g28
(lp658
sg22
Nsbsg22
Nsba(irule
Rule
p659
(dp660
g15
(irule
Guard
p661
(dp662
g18
I00
sg19
(lp663
(irule
FeatureMatrix
p664
(dp665
g28
(lp666
sg22
Nsbasg21
I00
sg22
Nsg23
I00
sg24
S'L'
sbsg25
(irule
FeatureMatrix
p667
(dp668
g28
(lp669
(I00
g349
tp670
asg22
Nsbsg31
(irule
Guard
p671
(dp672
g18
I00
sg19
(lp673
(irule
FeatureMatrix
p674
(dp675
g28
(lp676
(I01
g357
tp677
asg22
Nsbasg21
I00
sg22
Nsg23
I00
sg24
S'R'
sbsg35
(irule
FeatureMatrix
p678
(dp679
g28
(lp680
(I00
g404
tp681
asg22
Nsbsg22
Nsba(irule
Rule
p682
(dp683
g15
(irule
Guard
p684
(dp685
g18
I00
sg19
(lp686
(irule
FeatureMatrix
p687
(dp688
g28
(lp689
sg22
Nsbasg21
I00
sg22
Nsg23
I00
sg24
S'L'
sbsg25
(irule
FeatureMatrix
p690
(dp691
g28
(lp692
(I00
g349
tp693
asg22
Nsbsg31
(irule
Guard
p694
(dp695
g18
I00
sg19
(lp696
(irule
FeatureMatrix
p697
(dp698
g28
(lp699
(I01
g357
tp700
asg22
Nsbasg21
I00
sg22
Nsg23
I00
sg24
S'R'
sbsg35
(irule
FeatureMatrix
p701
(dp702
g28
(lp703
(I01
g362
tp704
asg22
Nsbsg22
Nsba(irule
Rule
p705
(dp706
g15
(irule
Guard
p707
(dp708
g18
I00
sg19
(lp709
(irule
FeatureMatrix
p710
(dp711
g28
(lp712
(I01
g643
tp713
asg22
Nsbasg21
I00
sg22
Nsg23
I00
sg24
S'L'
sbsg25
(irule
ConstantPhoneme
p714
(dp715
S'p'
Vs
sbsg31
(irule
Guard
p716
(dp717
g18
I00
sg19
(lp718
(irule
FeatureMatrix
p719
(dp720
g28
(lp721
(I01
g357
tp722
asg22
Nsbasg21
I00
sg22
Nsg23
I00
sg24
S'R'
sbsg35
(irule
FeatureMatrix
p723
(dp724
g28
(lp725
sg22
Nsbsg22
Nsba(irule
Rule
p726
(dp727
g15
(irule
Guard
p728
(dp729
g18
I00
sg19
(lp730
sg21
I00
sg22
Nsg23
I00
sg24
S'L'
sbsg25
(irule
FeatureMatrix
p731
(dp732
g28
(lp733
(I00
S'low'
p734
tp735
a(I00
g349
tp736
asg22
Nsbsg31
(irule
Guard
p737
(dp738
g18
I00
sg19
(lp739
(irule
FeatureMatrix
p740
(dp741
g28
(lp742
(I01
g357
tp743
asg22
Nsbasg21
I00
sg22
Nsg23
I00
sg24
S'R'
sbsg35
(irule
FeatureMatrix
p744
(dp745
g28
(lp746
(I01
g383
tp747
asg22
Nsbsg22
Nsba(irule
Rule
p748
(dp749
g15
(irule
Guard
p750
(dp751
g18
I00
sg19
(lp752
(irule
FeatureMatrix
p753
(dp754
g28
(lp755
sg22
Nsbasg21
I00
sg22
Nsg23
I00
sg24
S'L'
sbsg25
(irule
FeatureMatrix
p756
(dp757
g28
(lp758
(I00
g349
tp759
asg22
Nsbsg31
(irule
Guard
p760
(dp761
g18
I00
sg19
(lp762
(irule
FeatureMatrix
p763
(dp764
g28
(lp765
(I01
g357
tp766
asg22
Nsbasg21
I00
sg22
Nsg23
I00
sg24
S'R'
sbsg35
(irule
FeatureMatrix
p767
(dp768
g28
(lp769
(I00
g466
tp770
asg22
Nsbsg22
Nsba(irule
Rule
p771
(dp772
g15
(irule
Guard
p773
(dp774
g18
I00
sg19
(lp775
(irule
ConstantPhoneme
p776
(dp777
S'p'
Vi
sbasg21
I00
sg22
Nsg23
I00
sg24
S'L'
sbsg25
(irule
ConstantPhoneme
p778
(dp779
S'p'
Vs
sbsg31
(irule
Guard
p780
(dp781
g18
I00
sg19
(lp782
(irule
FeatureMatrix
p783
(dp784
g28
(lp785
(I01
g357
tp786
asg22
Nsbasg21
I00
sg22
Nsg23
I00
sg24
S'R'
sbsg35
(irule
FeatureMatrix
p787
(dp788
g28
(lp789
sg22
Nsbsg22
Nsba(irule
Rule
p790
(dp791
g15
(irule
Guard
p792
(dp793
g18
I00
sg19
(lp794
(irule
FeatureMatrix
p795
(dp796
g28
(lp797
sg22
Nsbasg21
I00
sg22
Nsg23
I00
sg24
S'L'
sbsg25
(irule
ConstantPhoneme
p798
(dp799
S'p'
Vs
sbsg31
(irule
Guard
p800
(dp801
g18
I00
sg19
(lp802
(irule
FeatureMatrix
p803
(dp804
g28
(lp805
(I01
g357
tp806
asg22
Nsbasg21
I00
sg22
Nsg23
I00
sg24
S'R'
sbsg35
(irule
FeatureMatrix
p807
(dp808
g28
(lp809
(I01
g383
tp810
asg22
Nsbsg22
Nsba(irule
Rule
p811
(dp812
g15
(irule
Guard
p813
(dp814
g18
I00
sg19
(lp815
(irule
FeatureMatrix
p816
(dp817
g28
(lp818
sg22
Nsbasg21
I00
sg22
Nsg23
I00
sg24
S'L'
sbsg25
(irule
FeatureMatrix
p819
(dp820
g28
(lp821
(I00
g349
tp822
asg22
Nsbsg31
(irule
Guard
p823
(dp824
g18
I00
sg19
(lp825
(irule
FeatureMatrix
p826
(dp827
g28
(lp828
(I01
g357
tp829
asg22
Nsbasg21
I00
sg22
Nsg23
I00
sg24
S'R'
sbsg35
(irule
FeatureMatrix
p830
(dp831
g28
(lp832
(I01
g357
tp833
asg22
Nsbsg22
Nsba(irule
Rule
p834
(dp835
g15
(irule
Guard
p836
(dp837
g18
I00
sg19
(lp838
sg21
I00
sg22
Nsg23
I00
sg24
S'L'
sbsg25
(irule
FeatureMatrix
p839
(dp840
g28
(lp841
(I00
S'rounded'
p842
tp843
a(I00
g349
tp844
asg22
Nsbsg31
(irule
Guard
p845
(dp846
g18
I00
sg19
(lp847
(irule
FeatureMatrix
p848
(dp849
g28
(lp850
(I01
g357
tp851
asg22
Nsbasg21
I00
sg22
Nsg23
I00
sg24
S'R'
sbsg35
(irule
FeatureMatrix
p852
(dp853
g28
(lp854
(I01
g357
tp855
asg22
Nsbsg22
Nsba(irule
Rule
p856
(dp857
g15
(irule
Guard
p858
(dp859
g18
I00
sg19
(lp860
sg21
I00
sg22
Nsg23
I00
sg24
S'L'
sbsg25
(irule
FeatureMatrix
p861
(dp862
g28
(lp863
(I00
g349
tp864
asg22
Nsbsg31
(irule
Guard
p865
(dp866
g18
I00
sg19
(lp867
(irule
FeatureMatrix
p868
(dp869
g28
(lp870
(I00
S'liquid'
p871
tp872
a(I00
S'back'
p873
tp874
asg22
Nsbasg21
I00
sg22
Nsg23
I00
sg24
S'R'
sbsg35
(irule
FeatureMatrix
p875
(dp876
g28
(lp877
(I01
g362
tp878
asg22
Nsbsg22
Nsba(irule
Rule
p879
(dp880
g15
(irule
Guard
p881
(dp882
g18
I00
sg19
(lp883
sg21
I00
sg22
Nsg23
I00
sg24
S'L'
sbsg25
(irule
FeatureMatrix
p884
(dp885
g28
(lp886
(I00
g404
tp887
a(I00
g349
tp888
asg22
Nsbsg31
(irule
Guard
p889
(dp890
g18
I00
sg19
(lp891
(irule
FeatureMatrix
p892
(dp893
g28
(lp894
(I01
g357
tp895
asg22
Nsbasg21
I00
sg22
Nsg23
I00
sg24
S'R'
sbsg35
(irule
FeatureMatrix
p896
(dp897
g28
(lp898
(I01
g357
tp899
asg22
Nsbsg22
Nsba(irule
Rule
p900
(dp901
g15
(irule
Guard
p902
(dp903
g18
I00
sg19
(lp904
sg21
I00
sg22
Nsg23
I00
sg24
S'L'
sbsg25
(irule
FeatureMatrix
p905
(dp906
g28
(lp907
(I01
g357
tp908
a(I00
g349
tp909
asg22
Nsbsg31
(irule
Guard
p910
(dp911
g18
I00
sg19
(lp912
(irule
FeatureMatrix
p913
(dp914
g28
(lp915
(I01
g357
tp916
asg22
Nsbasg21
I00
sg22
Nsg23
I00
sg24
S'R'
sbsg35
(irule
FeatureMatrix
p917
(dp918
g28
(lp919
(I01
g362
tp920
asg22
Nsbsg22
Nsba(irule
Rule
p921
(dp922
g15
(irule
Guard
p923
(dp924
g18
I00
sg19
(lp925
sg21
I00
sg22
Nsg23
I00
sg24
S'L'
sbsg25
(irule
FeatureMatrix
p926
(dp927
g28
(lp928
(I00
g466
tp929
a(I00
g349
tp930
asg22
Nsbsg31
(irule
Guard
p931
(dp932
g18
I00
sg19
(lp933
(irule
FeatureMatrix
p934
(dp935
g28
(lp936
(I01
g357
tp937
asg22
Nsbasg21
I00
sg22
Nsg23
I00
sg24
S'R'
sbsg35
(irule
FeatureMatrix
p938
(dp939
g28
(lp940
(I01
g383
tp941
asg22
Nsbsg22
Nsba(irule
Rule
p942
(dp943
g15
(irule
Guard
p944
(dp945
g18
I00
sg19
(lp946
(irule
FeatureMatrix
p947
(dp948
g28
(lp949
sg22
Nsbasg21
I00
sg22
Nsg23
I00
sg24
S'L'
sbsg25
(irule
FeatureMatrix
p950
(dp951
g28
(lp952
(I00
g349
tp953
asg22
Nsbsg31
(irule
Guard
p954
(dp955
g18
I00
sg19
(lp956
(irule
FeatureMatrix
p957
(dp958
g28
(lp959
(I01
g357
tp960
asg22
Nsbasg21
I00
sg22
Nsg23
I00
sg24
S'R'
sbsg35
(irule
FeatureMatrix
p961
(dp962
g28
(lp963
(I00
g445
tp964
asg22
Nsbsg22
Nsba(irule
Rule
p965
(dp966
g15
(irule
Guard
p967
(dp968
g18
I00
sg19
(lp969
sg21
I00
sg22
Nsg23
I00
sg24
S'L'
sbsg25
(irule
FeatureMatrix
p970
(dp971
g28
(lp972
(I01
g383
tp973
a(I00
g349
tp974
asg22
Nsbsg31
(irule
Guard
p975
(dp976
g18
I00
sg19
(lp977
(irule
FeatureMatrix
p978
(dp979
g28
(lp980
(I01
g357
tp981
asg22
Nsbasg21
I00
sg22
Nsg23
I00
sg24
S'R'
sbsg35
(irule
FeatureMatrix
p982
(dp983
g28
(lp984
(I01
g383
tp985
asg22
Nsbsg22
Nsba(irule
Rule
p986
(dp987
g15
(irule
Guard
p988
(dp989
g18
I00
sg19
(lp990
sg21
I00
sg22
Nsg23
I00
sg24
S'L'
sbsg25
(irule
FeatureMatrix
p991
(dp992
g28
(lp993
(I00
g349
tp994
asg22
Nsbsg31
(irule
Guard
p995
(dp996
g18
I00
sg19
(lp997
(irule
FeatureMatrix
p998
(dp999
g28
(lp1000
(I01
g357
tp1001
asg22
Nsba(irule
FeatureMatrix
p1002
(dp1003
g28
(lp1004
sg22
Nsbasg21
I00
sg22
Nsg23
I00
sg24
S'R'
sbsg35
(irule
FeatureMatrix
p1005
(dp1006
g28
(lp1007
(I01
g357
tp1008
asg22
Nsbsg22
Nsba(irule
Rule
p1009
(dp1010
g15
(irule
Guard
p1011
(dp1012
g18
I00
sg19
(lp1013
(irule
FeatureMatrix
p1014
(dp1015
g28
(lp1016
sg22
Nsbasg21
I00
sg22
Nsg23
I00
sg24
S'L'
sbsg25
(irule
FeatureMatrix
p1017
(dp1018
g28
(lp1019
(I00
g349
tp1020
asg22
Nsbsg31
(irule
Guard
p1021
(dp1022
g18
I00
sg19
(lp1023
(irule
FeatureMatrix
p1024
(dp1025
g28
(lp1026
(I01
g357
tp1027
asg22
Nsbasg21
I00
sg22
Nsg23
I00
sg24
S'R'
sbsg35
(irule
ConstantPhoneme
p1028
(dp1029
S'p'
Vz
sbsg22
Nsba(irule
Rule
p1030
(dp1031
g15
(irule
Guard
p1032
(dp1033
g18
I00
sg19
(lp1034
sg21
I00
sg22
Nsg23
I00
sg24
S'L'
sbsg25
(irule
FeatureMatrix
p1035
(dp1036
g28
(lp1037
(I00
g349
tp1038
asg22
Nsbsg31
(irule
Guard
p1039
(dp1040
g18
I00
sg19
(lp1041
(irule
FeatureMatrix
p1042
(dp1043
g28
(lp1044
(I01
g357
tp1045
asg22
Nsbasg21
I00
sg22
Nsg23
I00
sg24
S'R'
sbsg35
(irule
FeatureMatrix
p1046
(dp1047
g28
(lp1048
(I01
g357
tp1049
a(I00
S'lateral'
p1050
tp1051
asg22
Nsbsg22
Nsba(irule
Rule
p1052
(dp1053
g15
(irule
Guard
p1054
(dp1055
g18
I00
sg19
(lp1056
sg21
I00
sg22
Nsg23
I00
sg24
S'L'
sbsg25
(irule
FeatureMatrix
p1057
(dp1058
g28
(lp1059
(I00
g445
tp1060
a(I00
g349
tp1061
asg22
Nsbsg31
(irule
Guard
p1062
(dp1063
g18
I00
sg19
(lp1064
(irule
FeatureMatrix
p1065
(dp1066
g28
(lp1067
(I01
g357
tp1068
asg22
Nsbasg21
I00
sg22
Nsg23
I00
sg24
S'R'
sbsg35
(irule
FeatureMatrix
p1069
(dp1070
g28
(lp1071
(I01
g383
tp1072
asg22
Nsbsg22
Nsba(irule
Rule
p1073
(dp1074
g15
(irule
Guard
p1075
(dp1076
g18
I00
sg19
(lp1077
(irule
FeatureMatrix
p1078
(dp1079
g28
(lp1080
sg22
Nsbasg21
I00
sg22
Nsg23
I00
sg24
S'L'
sbsg25
(irule
ConstantPhoneme
p1081
(dp1082
S'p'
Vs
sbsg31
(irule
Guard
p1083
(dp1084
g18
I00
sg19
(lp1085
(irule
FeatureMatrix
p1086
(dp1087
g28
(lp1088
(I01
g357
tp1089
asg22
Nsbasg21
I00
sg22
Nsg23
I00
sg24
S'R'
sbsg35
(irule
ConstantPhoneme
p1090
(dp1091
S'p'
Vz
sbsg22
Nsba(irule
Rule
p1092
(dp1093
g15
(irule
Guard
p1094
(dp1095
g18
I00
sg19
(lp1096
sg21
I00
sg22
Nsg23
I00
sg24
S'L'
sbsg25
(irule
FeatureMatrix
p1097
(dp1098
g28
(lp1099
(I00
g349
tp1100
asg22
Nsbsg31
(irule
Guard
p1101
(dp1102
g18
I00
sg19
(lp1103
(irule
FeatureMatrix
p1104
(dp1105
g28
(lp1106
(I00
g873
tp1107
a(I00
g445
tp1108
asg22
Nsbasg21
I00
sg22
Nsg23
I00
sg24
S'R'
sbsg35
(irule
FeatureMatrix
p1109
(dp1110
g28
(lp1111
(I01
g362
tp1112
asg22
Nsbsg22
Nsba(irule
Rule
p1113
(dp1114
g15
(irule
Guard
p1115
(dp1116
g18
I00
sg19
(lp1117
sg21
I00
sg22
Nsg23
I00
sg24
S'L'
sbsg25
(irule
FeatureMatrix
p1118
(dp1119
g28
(lp1120
(I00
g349
tp1121
asg22
Nsbsg31
(irule
Guard
p1122
(dp1123
g18
I00
sg19
(lp1124
(irule
FeatureMatrix
p1125
(dp1126
g28
(lp1127
(I01
g357
tp1128
asg22
Nsbasg21
I00
sg22
Nsg23
I00
sg24
S'R'
sbsg35
(irule
FeatureMatrix
p1129
(dp1130
g28
(lp1131
(I00
g734
tp1132
a(I00
g404
tp1133
asg22
Nsbsg22
Nsba(irule
Rule
p1134
(dp1135
g15
(irule
Guard
p1136
(dp1137
g18
I00
sg19
(lp1138
sg21
I00
sg22
Nsg23
I00
sg24
S'L'
sbsg25
(irule
FeatureMatrix
p1139
(dp1140
g28
(lp1141
(I00
g871
tp1142
a(I00
g349
tp1143
asg22
Nsbsg31
(irule
Guard
p1144
(dp1145
g18
I00
sg19
(lp1146
(irule
FeatureMatrix
p1147
(dp1148
g28
(lp1149
(I01
g357
tp1150
asg22
Nsbasg21
I00
sg22
Nsg23
I00
sg24
S'R'
sbsg35
(irule
FeatureMatrix
p1151
(dp1152
g28
(lp1153
(I01
g383
tp1154
asg22
Nsbsg22
Nsba(irule
Rule
p1155
(dp1156
g15
(irule
Guard
p1157
(dp1158
g18
I00
sg19
(lp1159
sg21
I00
sg22
Nsg23
I00
sg24
S'L'
sbsg25
(irule
FeatureMatrix
p1160
(dp1161
g28
(lp1162
(I00
g349
tp1163
asg22
Nsbsg31
(irule
Guard
p1164
(dp1165
g18
I00
sg19
(lp1166
(irule
FeatureMatrix
p1167
(dp1168
g28
(lp1169
(I01
g357
tp1170
asg22
Nsbasg21
I00
sg22
Nsg23
I00
sg24
S'R'
sbsg35
(irule
FeatureMatrix
p1171
(dp1172
g28
(lp1173
(I00
S'palletized'
p1174
tp1175
a(I01
g362
tp1176
asg22
Nsbsg22
Nsba(irule
Rule
p1177
(dp1178
g15
(irule
Guard
p1179
(dp1180
g18
I00
sg19
(lp1181
sg21
I00
sg22
Nsg23
I00
sg24
S'L'
sbsg25
(irule
FeatureMatrix
p1182
(dp1183
g28
(lp1184
(I00
g349
tp1185
asg22
Nsbsg31
(irule
Guard
p1186
(dp1187
g18
I00
sg19
(lp1188
(irule
FeatureMatrix
p1189
(dp1190
g28
(lp1191
(I01
g357
tp1192
asg22
Nsba(irule
FeatureMatrix
p1193
(dp1194
g28
(lp1195
sg22
Nsbasg21
I00
sg22
Nsg23
I00
sg24
S'R'
sbsg35
(irule
FeatureMatrix
p1196
(dp1197
g28
(lp1198
(I01
g383
tp1199
asg22
Nsbsg22
Nsba(irule
Rule
p1200
(dp1201
g15
(irule
Guard
p1202
(dp1203
g18
I00
sg19
(lp1204
sg21
I00
sg22
Nsg23
I00
sg24
S'L'
sbsg25
(irule
FeatureMatrix
p1205
(dp1206
g28
(lp1207
(I00
g349
tp1208
asg22
Nsbsg31
(irule
Guard
p1209
(dp1210
g18
I00
sg19
(lp1211
(irule
FeatureMatrix
p1212
(dp1213
g28
(lp1214
(I01
g357
tp1215
asg22
Nsbasg21
I00
sg22
Nsg23
I00
sg24
S'R'
sbsg35
(irule
FeatureMatrix
p1216
(dp1217
g28
(lp1218
(I01
g633
tp1219
a(I01
g362
tp1220
asg22
Nsbsg22
Nsba(irule
Rule
p1221
(dp1222
g15
(irule
Guard
p1223
(dp1224
g18
I00
sg19
(lp1225
sg21
I00
sg22
Nsg23
I00
sg24
S'L'
sbsg25
(irule
FeatureMatrix
p1226
(dp1227
g28
(lp1228
(I01
g357
tp1229
a(I00
g349
tp1230
asg22
Nsbsg31
(irule
Guard
p1231
(dp1232
g18
I00
sg19
(lp1233
(irule
FeatureMatrix
p1234
(dp1235
g28
(lp1236
(I01
g357
tp1237
asg22
Nsbasg21
I00
sg22
Nsg23
I00
sg24
S'R'
sbsg35
(irule
FeatureMatrix
p1238
(dp1239
g28
(lp1240
(I01
g357
tp1241
asg22
Nsbsg22
Nsba(irule
Rule
p1242
(dp1243
g15
(irule
Guard
p1244
(dp1245
g18
I00
sg19
(lp1246
sg21
I00
sg22
Nsg23
I00
sg24
S'L'
sbsg25
(irule
FeatureMatrix
p1247
(dp1248
g28
(lp1249
(I00
g349
tp1250
asg22
Nsbsg31
(irule
Guard
p1251
(dp1252
g18
I00
sg19
(lp1253
(irule
FeatureMatrix
p1254
(dp1255
g28
(lp1256
(I01
g357
tp1257
asg22
Nsba(irule
FeatureMatrix
p1258
(dp1259
g28
(lp1260
sg22
Nsbasg21
I00
sg22
Nsg23
I00
sg24
S'R'
sbsg35
(irule
ConstantPhoneme
p1261
(dp1262
S'p'
Vz
sbsg22
Nsba(irule
Rule
p1263
(dp1264
g15
(irule
Guard
p1265
(dp1266
g18
I00
sg19
(lp1267
sg21
I00
sg22
Nsg23
I00
sg24
S'L'
sbsg25
(irule
FeatureMatrix
p1268
(dp1269
g28
(lp1270
(I00
g349
tp1271
asg22
Nsbsg31
(irule
Guard
p1272
(dp1273
g18
I00
sg19
(lp1274
(irule
FeatureMatrix
p1275
(dp1276
g28
(lp1277
(I01
g357
tp1278
asg22
Nsbasg21
I00
sg22
Nsg23
I00
sg24
S'R'
sbsg35
(irule
FeatureMatrix
p1279
(dp1280
g28
(lp1281
(I00
g445
tp1282
a(I00
g1174
tp1283
asg22
Nsbsg22
Nsba(irule
Rule
p1284
(dp1285
g15
(irule
Guard
p1286
(dp1287
g18
I00
sg19
(lp1288
sg21
I00
sg22
Nsg23
I00
sg24
S'L'
sbsg25
(irule
FeatureMatrix
p1289
(dp1290
g28
(lp1291
(I00
g349
tp1292
asg22
Nsbsg31
(irule
Guard
p1293
(dp1294
g18
I00
sg19
(lp1295
(irule
FeatureMatrix
p1296
(dp1297
g28
(lp1298
(I01
g357
tp1299
asg22
Nsbasg21
I00
sg22
Nsg23
I00
sg24
S'R'
sbsg35
(irule
FeatureMatrix
p1300
(dp1301
g28
(lp1302
(I00
g871
tp1303
a(I01
g362
tp1304
asg22
Nsbsg22
Nsba(irule
Rule
p1305
(dp1306
g15
(irule
Guard
p1307
(dp1308
g18
I00
sg19
(lp1309
sg21
I00
sg22
Nsg23
I00
sg24
S'L'
sbsg25
(irule
FeatureMatrix
p1310
(dp1311
g28
(lp1312
(I00
g349
tp1313
asg22
Nsbsg31
(irule
Guard
p1314
(dp1315
g18
I00
sg19
(lp1316
(irule
FeatureMatrix
p1317
(dp1318
g28
(lp1319
(I01
g357
tp1320
asg22
Nsbasg21
I00
sg22
Nsg23
I00
sg24
S'R'
sbsg35
(irule
FeatureMatrix
p1321
(dp1322
g28
(lp1323
(I00
g873
tp1324
a(I00
g643
tp1325
asg22
Nsbsg22
Nsba(irule
Rule
p1326
(dp1327
g15
(irule
Guard
p1328
(dp1329
g18
I00
sg19
(lp1330
sg21
I00
sg22
Nsg23
I00
sg24
S'L'
sbsg25
(irule
FeatureMatrix
p1331
(dp1332
g28
(lp1333
(I00
g404
tp1334
a(I00
g349
tp1335
asg22
Nsbsg31
(irule
Guard
p1336
(dp1337
g18
I00
sg19
(lp1338
(irule
FeatureMatrix
p1339
(dp1340
g28
(lp1341
(I01
g357
tp1342
asg22
Nsbasg21
I00
sg22
Nsg23
I00
sg24
S'R'
sbsg35
(irule
FeatureMatrix
p1343
(dp1344
g28
(lp1345
(I00
g404
tp1346
asg22
Nsbsg22
Nsba(irule
Rule
p1347
(dp1348
g15
(irule
Guard
p1349
(dp1350
g18
I00
sg19
(lp1351
sg21
I00
sg22
Nsg23
I00
sg24
S'L'
sbsg25
(irule
FeatureMatrix
p1352
(dp1353
g28
(lp1354
(I00
g349
tp1355
asg22
Nsbsg31
(irule
Guard
p1356
(dp1357
g18
I00
sg19
(lp1358
(irule
FeatureMatrix
p1359
(dp1360
g28
(lp1361
(I00
g873
tp1362
a(I00
g445
tp1363
asg22
Nsbasg21
I00
sg22
Nsg23
I00
sg24
S'R'
sbsg35
(irule
FeatureMatrix
p1364
(dp1365
g28
(lp1366
(I01
g357
tp1367
asg22
Nsbsg22
Nsba(irule
Rule
p1368
(dp1369
g15
(irule
Guard
p1370
(dp1371
g18
I00
sg19
(lp1372
sg21
I00
sg22
Nsg23
I00
sg24
S'L'
sbsg25
(irule
ConstantPhoneme
p1373
(dp1374
S'p'
Vs
sbsg31
(irule
Guard
p1375
(dp1376
g18
I00
sg19
(lp1377
(irule
FeatureMatrix
p1378
(dp1379
g28
(lp1380
(I01
g357
tp1381
asg22
Nsbasg21
I00
sg22
Nsg23
I00
sg24
S'R'
sbsg35
(irule
FeatureMatrix
p1382
(dp1383
g28
(lp1384
(I01
g633
tp1385
a(I01
g362
tp1386
asg22
Nsbsg22
Nsba(irule
Rule
p1387
(dp1388
g15
(irule
Guard
p1389
(dp1390
g18
I00
sg19
(lp1391
sg21
I00
sg22
Nsg23
I00
sg24
S'L'
sbsg25
(irule
FeatureMatrix
p1392
(dp1393
g28
(lp1394
(I00
g349
tp1395
asg22
Nsbsg31
(irule
Guard
p1396
(dp1397
g18
I00
sg19
(lp1398
(irule
FeatureMatrix
p1399
(dp1400
g28
(lp1401
(I01
g357
tp1402
asg22
Nsbasg21
I00
sg22
Nsg23
I00
sg24
S'R'
sbsg35
(irule
FeatureMatrix
p1403
(dp1404
g28
(lp1405
(I00
g466
tp1406
a(I00
g734
tp1407
asg22
Nsbsg22
Nsba(irule
Rule
p1408
(dp1409
g15
(irule
Guard
p1410
(dp1411
g18
I00
sg19
(lp1412
sg21
I00
sg22
Nsg23
I00
sg24
S'L'
sbsg25
(irule
FeatureMatrix
p1413
(dp1414
g28
(lp1415
(I00
g466
tp1416
a(I00
g349
tp1417
asg22
Nsbsg31
(irule
Guard
p1418
(dp1419
g18
I00
sg19
(lp1420
(irule
FeatureMatrix
p1421
(dp1422
g28
(lp1423
(I01
g357
tp1424
asg22
Nsbasg21
I00
sg22
Nsg23
I00
sg24
S'R'
sbsg35
(irule
FeatureMatrix
p1425
(dp1426
g28
(lp1427
(I00
g404
tp1428
asg22
Nsbsg22
Nsba(irule
Rule
p1429
(dp1430
g15
(irule
Guard
p1431
(dp1432
g18
I00
sg19
(lp1433
sg21
I00
sg22
Nsg23
I00
sg24
S'L'
sbsg25
(irule
ConstantPhoneme
p1434
(dp1435
S'p'
Vs
sbsg31
(irule
Guard
p1436
(dp1437
g18
I00
sg19
(lp1438
(irule
FeatureMatrix
p1439
(dp1440
g28
(lp1441
(I01
g357
tp1442
asg22
Nsba(irule
FeatureMatrix
p1443
(dp1444
g28
(lp1445
sg22
Nsbasg21
I00
sg22
Nsg23
I00
sg24
S'R'
sbsg35
(irule
FeatureMatrix
p1446
(dp1447
g28
(lp1448
(I01
g383
tp1449
asg22
Nsbsg22
Nsba(irule
Rule
p1450
(dp1451
g15
(irule
Guard
p1452
(dp1453
g18
I00
sg19
(lp1454
sg21
I00
sg22
Nsg23
I00
sg24
S'L'
sbsg25
(irule
ConstantPhoneme
p1455
(dp1456
S'p'
Vs
sbsg31
(irule
Guard
p1457
(dp1458
g18
I00
sg19
(lp1459
(irule
FeatureMatrix
p1460
(dp1461
g28
(lp1462
(I01
g357
tp1463
asg22
Nsbasg21
I00
sg22
Nsg23
I00
sg24
S'R'
sbsg35
(irule
FeatureMatrix
p1464
(dp1465
g28
(lp1466
(I01
g357
tp1467
a(I01
g633
tp1468
asg22
Nsbsg22
Nsba(irule
Rule
p1469
(dp1470
g15
(irule
Guard
p1471
(dp1472
g18
I00
sg19
(lp1473
sg21
I00
sg22
Nsg23
I00
sg24
S'L'
sbsg25
(irule
FeatureMatrix
p1474
(dp1475
g28
(lp1476
(I00
g349
tp1477
asg22
Nsbsg31
(irule
Guard
p1478
(dp1479
g18
I00
sg19
(lp1480
(irule
FeatureMatrix
p1481
(dp1482
g28
(lp1483
(I01
g357
tp1484
asg22
Nsbasg21
I00
sg22
Nsg23
I00
sg24
S'R'
sbsg35
(irule
FeatureMatrix
p1485
(dp1486
g28
(lp1487
(I01
g633
tp1488
a(I00
g404
tp1489
asg22
Nsbsg22
Nsba(irule
Rule
p1490
(dp1491
g15
(irule
Guard
p1492
(dp1493
g18
I00
sg19
(lp1494
sg21
I00
sg22
Nsg23
I00
sg24
S'L'
sbsg25
(irule
FeatureMatrix
p1495
(dp1496
g28
(lp1497
(I00
g349
tp1498
asg22
Nsbsg31
(irule
Guard
p1499
(dp1500
g18
I00
sg19
(lp1501
(irule
FeatureMatrix
p1502
(dp1503
g28
(lp1504
(I01
g357
tp1505
asg22
Nsbasg21
I00
sg22
Nsg23
I00
sg24
S'R'
sbsg35
(irule
FeatureMatrix
p1506
(dp1507
g28
(lp1508
(I00
g842
tp1509
a(I01
g362
tp1510
asg22
Nsbsg22
Nsba(irule
Rule
p1511
(dp1512
g15
(irule
Guard
p1513
(dp1514
g18
I00
sg19
(lp1515
sg21
I00
sg22
Nsg23
I00
sg24
S'L'
sbsg25
(irule
FeatureMatrix
p1516
(dp1517
g28
(lp1518
(I00
g349
tp1519
asg22
Nsbsg31
(irule
Guard
p1520
(dp1521
g18
I00
sg19
(lp1522
(irule
FeatureMatrix
p1523
(dp1524
g28
(lp1525
(I01
g357
tp1526
a(I00
g842
tp1527
asg22
Nsbasg21
I00
sg22
Nsg23
I00
sg24
S'R'
sbsg35
(irule
ConstantPhoneme
p1528
(dp1529
S'p'
Vz
sbsg22
Nsba(irule
Rule
p1530
(dp1531
g15
(irule
Guard
p1532
(dp1533
g18
I00
sg19
(lp1534
sg21
I00
sg22
Nsg23
I00
sg24
S'L'
sbsg25
(irule
FeatureMatrix
p1535
(dp1536
g28
(lp1537
(I00
g349
tp1538
asg22
Nsbsg31
(irule
Guard
p1539
(dp1540
g18
I00
sg19
(lp1541
(irule
FeatureMatrix
p1542
(dp1543
g28
(lp1544
(I01
g357
tp1545
asg22
Nsba(irule
FeatureMatrix
p1546
(dp1547
g28
(lp1548
sg22
Nsbasg21
I00
sg22
Nsg23
I00
sg24
S'R'
sbsg35
(irule
FeatureMatrix
p1549
(dp1550
g28
(lp1551
(I01
g362
tp1552
asg22
Nsbsg22
Nsba(irule
Rule
p1553
(dp1554
g15
(irule
Guard
p1555
(dp1556
g18
I00
sg19
(lp1557
sg21
I00
sg22
Nsg23
I00
sg24
S'L'
sbsg25
(irule
FeatureMatrix
p1558
(dp1559
g28
(lp1560
(I00
g349
tp1561
asg22
Nsbsg31
(irule
Guard
p1562
(dp1563
g18
I00
sg19
(lp1564
(irule
FeatureMatrix
p1565
(dp1566
g28
(lp1567
(I01
g357
tp1568
asg22
Nsbasg21
I00
sg22
Nsg23
I00
sg24
S'R'
sbsg35
(irule
FeatureMatrix
p1569
(dp1570
g28
(lp1571
(I01
g357
tp1572
a(I01
g362
tp1573
asg22
Nsbsg22
Nsba(irule
Rule
p1574
(dp1575
g15
(irule
Guard
p1576
(dp1577
g18
I00
sg19
(lp1578
sg21
I00
sg22
Nsg23
I00
sg24
S'L'
sbsg25
(irule
FeatureMatrix
p1579
(dp1580
g28
(lp1581
(I00
g349
tp1582
asg22
Nsbsg31
(irule
Guard
p1583
(dp1584
g18
I00
sg19
(lp1585
(irule
FeatureMatrix
p1586
(dp1587
g28
(lp1588
(I01
g357
tp1589
asg22
Nsba(irule
FeatureMatrix
p1590
(dp1591
g28
(lp1592
sg22
Nsbasg21
I00
sg22
Nsg23
I00
sg24
S'R'
sbsg35
(irule
FeatureMatrix
p1593
(dp1594
g28
(lp1595
(I00
g404
tp1596
asg22
Nsbsg22
Nsba(irule
Rule
p1597
(dp1598
g15
(irule
Guard
p1599
(dp1600
g18
I00
sg19
(lp1601
sg21
I00
sg22
Nsg23
I00
sg24
S'L'
sbsg25
(irule
FeatureMatrix
p1602
(dp1603
g28
(lp1604
(I00
g349
tp1605
asg22
Nsbsg31
(irule
Guard
p1606
(dp1607
g18
I00
sg19
(lp1608
(irule
FeatureMatrix
p1609
(dp1610
g28
(lp1611
(I01
g357
tp1612
asg22
Nsbasg21
I00
sg22
Nsg23
I00
sg24
S'R'
sbsg35
(irule
FeatureMatrix
p1613
(dp1614
g28
(lp1615
(I00
g643
tp1616
a(I01
g383
tp1617
asg22
Nsbsg22
Nsba(irule
Rule
p1618
(dp1619
g15
(irule
Guard
p1620
(dp1621
g18
I00
sg19
(lp1622
sg21
I00
sg22
Nsg23
I00
sg24
S'L'
sbsg25
(irule
FeatureMatrix
p1623
(dp1624
g28
(lp1625
(I01
g362
tp1626
a(I00
g349
tp1627
asg22
Nsbsg31
(irule
Guard
p1628
(dp1629
g18
I00
sg19
(lp1630
(irule
FeatureMatrix
p1631
(dp1632
g28
(lp1633
(I01
g357
tp1634
asg22
Nsbasg21
I00
sg22
Nsg23
I00
sg24
S'R'
sbsg35
(irule
FeatureMatrix
p1635
(dp1636
g28
(lp1637
(I01
g383
tp1638
asg22
Nsbsg22
Nsba(irule
Rule
p1639
(dp1640
g15
(irule
Guard
p1641
(dp1642
g18
I00
sg19
(lp1643
sg21
I00
sg22
Nsg23
I00
sg24
S'L'
sbsg25
(irule
FeatureMatrix
p1644
(dp1645
g28
(lp1646
(I00
g349
tp1647
asg22
Nsbsg31
(irule
Guard
p1648
(dp1649
g18
I00
sg19
(lp1650
(irule
FeatureMatrix
p1651
(dp1652
g28
(lp1653
(I01
g357
tp1654
asg22
Nsbasg21
I00
sg22
Nsg23
I00
sg24
S'R'
sbsg35
(irule
FeatureMatrix
p1655
(dp1656
g28
(lp1657
(I00
g734
tp1658
a(I01
g383
tp1659
asg22
Nsbsg22
Nsba(irule
Rule
p1660
(dp1661
g15
(irule
Guard
p1662
(dp1663
g18
I00
sg19
(lp1664
sg21
I00
sg22
Nsg23
I00
sg24
S'L'
sbsg25
(irule
FeatureMatrix
p1665
(dp1666
g28
(lp1667
(I01
g383
tp1668
a(I00
g349
tp1669
asg22
Nsbsg31
(irule
Guard
p1670
(dp1671
g18
I00
sg19
(lp1672
(irule
FeatureMatrix
p1673
(dp1674
g28
(lp1675
(I01
g357
tp1676
asg22
Nsbasg21
I00
sg22
Nsg23
I00
sg24
S'R'
sbsg35
(irule
ConstantPhoneme
p1677
(dp1678
S'p'
Vz
sbsg22
Nsba(irule
Rule
p1679
(dp1680
g15
(irule
Guard
p1681
(dp1682
g18
I00
sg19
(lp1683
sg21
I00
sg22
Nsg23
I00
sg24
S'L'
sbsg25
(irule
FeatureMatrix
p1684
(dp1685
g28
(lp1686
(I00
g1174
tp1687
a(I00
g349
tp1688
asg22
Nsbsg31
(irule
Guard
p1689
(dp1690
g18
I00
sg19
(lp1691
(irule
FeatureMatrix
p1692
(dp1693
g28
(lp1694
(I01
g357
tp1695
asg22
Nsbasg21
I00
sg22
Nsg23
I00
sg24
S'R'
sbsg35
(irule
FeatureMatrix
p1696
(dp1697
g28
(lp1698
(I01
g383
tp1699
asg22
Nsbsg22
Nsba(irule
Rule
p1700
(dp1701
g15
(irule
Guard
p1702
(dp1703
g18
I00
sg19
(lp1704
sg21
I00
sg22
Nsg23
I00
sg24
S'L'
sbsg25
(irule
FeatureMatrix
p1705
(dp1706
g28
(lp1707
(I00
g349
tp1708
asg22
Nsbsg31
(irule
Guard
p1709
(dp1710
g18
I00
sg19
(lp1711
(irule
FeatureMatrix
p1712
(dp1713
g28
(lp1714
(I01
g357
tp1715
asg22
Nsbasg21
I00
sg22
Nsg23
I00
sg24
S'R'
sbsg35
(irule
FeatureMatrix
p1716
(dp1717
g28
(lp1718
(I00
g404
tp1719
a(I01
g383
tp1720
asg22
Nsbsg22
Nsba(irule
Rule
p1721
(dp1722
g15
(irule
Guard
p1723
(dp1724
g18
I00
sg19
(lp1725
sg21
I00
sg22
Nsg23
I00
sg24
S'L'
sbsg25
(irule
FeatureMatrix
p1726
(dp1727
g28
(lp1728
(I00
g643
tp1729
a(I00
g349
tp1730
asg22
Nsbsg31
(irule
Guard
p1731
(dp1732
g18
I00
sg19
(lp1733
(irule
FeatureMatrix
p1734
(dp1735
g28
(lp1736
(I01
g357
tp1737
asg22
Nsbasg21
I00
sg22
Nsg23
I00
sg24
S'R'
sbsg35
(irule
FeatureMatrix
p1738
(dp1739
g28
(lp1740
(I01
g383
tp1741
asg22
Nsbsg22
Nsba(irule
Rule
p1742
(dp1743
g15
(irule
Guard
p1744
(dp1745
g18
I00
sg19
(lp1746
sg21
I00
sg22
Nsg23
I00
sg24
S'L'
sbsg25
(irule
FeatureMatrix
p1747
(dp1748
g28
(lp1749
(I00
g349
tp1750
asg22
Nsbsg31
(irule
Guard
p1751
(dp1752
g18
I00
sg19
(lp1753
(irule
FeatureMatrix
p1754
(dp1755
g28
(lp1756
(I01
g357
tp1757
asg22
Nsbasg21
I00
sg22
Nsg23
I00
sg24
S'R'
sbsg35
(irule
FeatureMatrix
p1758
(dp1759
g28
(lp1760
(I00
g404
tp1761
a(I01
g349
tp1762
asg22
Nsbsg22
Nsba(irule
Rule
p1763
(dp1764
g15
(irule
Guard
p1765
(dp1766
g18
I00
sg19
(lp1767
sg21
I00
sg22
Nsg23
I00
sg24
S'L'
sbsg25
(irule
FeatureMatrix
p1768
(dp1769
g28
(lp1770
(I00
g349
tp1771
asg22
Nsbsg31
(irule
Guard
p1772
(dp1773
g18
I00
sg19
(lp1774
(irule
FeatureMatrix
p1775
(dp1776
g28
(lp1777
(I01
g357
tp1778
a(I00
g734
tp1779
asg22
Nsbasg21
I00
sg22
Nsg23
I00
sg24
S'R'
sbsg35
(irule
FeatureMatrix
p1780
(dp1781
g28
(lp1782
(I01
g383
tp1783
asg22
Nsbsg22
Nsba(irule
Rule
p1784
(dp1785
g15
(irule
Guard
p1786
(dp1787
g18
I00
sg19
(lp1788
sg21
I00
sg22
Nsg23
I00
sg24
S'L'
sbsg25
(irule
FeatureMatrix
p1789
(dp1790
g28
(lp1791
(I00
g349
tp1792
asg22
Nsbsg31
(irule
Guard
p1793
(dp1794
g18
I00
sg19
(lp1795
(irule
FeatureMatrix
p1796
(dp1797
g28
(lp1798
(I00
g871
tp1799
a(I00
g873
tp1800
asg22
Nsbasg21
I00
sg22
Nsg23
I00
sg24
S'R'
sbsg35
(irule
FeatureMatrix
p1801
(dp1802
g28
(lp1803
(I01
g383
tp1804
asg22
Nsbsg22
Nsba(irule
Rule
p1805
(dp1806
g15
(irule
Guard
p1807
(dp1808
g18
I00
sg19
(lp1809
sg21
I00
sg22
Nsg23
I00
sg24
S'L'
sbsg25
(irule
FeatureMatrix
p1810
(dp1811
g28
(lp1812
(I00
g349
tp1813
asg22
Nsbsg31
(irule
Guard
p1814
(dp1815
g18
I00
sg19
(lp1816
(irule
FeatureMatrix
p1817
(dp1818
g28
(lp1819
(I01
g357
tp1820
asg22
Nsbasg21
I00
sg22
Nsg23
I00
sg24
S'R'
sbsg35
(irule
FeatureMatrix
p1821
(dp1822
g28
(lp1823
(I01
g633
tp1824
a(I00
g445
tp1825
asg22
Nsbsg22
Nsba(irule
Rule
p1826
(dp1827
g15
(irule
Guard
p1828
(dp1829
g18
I00
sg19
(lp1830
sg21
I00
sg22
Nsg23
I00
sg24
S'L'
sbsg25
(irule
FeatureMatrix
p1831
(dp1832
g28
(lp1833
(I00
g349
tp1834
asg22
Nsbsg31
(irule
Guard
p1835
(dp1836
g18
I00
sg19
(lp1837
(irule
FeatureMatrix
p1838
(dp1839
g28
(lp1840
(I01
g357
tp1841
asg22
Nsbasg21
I00
sg22
Nsg23
I00
sg24
S'R'
sbsg35
(irule
FeatureMatrix
p1842
(dp1843
g28
(lp1844
(I00
g1174
tp1845
a(I01
g383
tp1846
asg22
Nsbsg22
Nsba(irule
Rule
p1847
(dp1848
g15
(irule
Guard
p1849
(dp1850
g18
I00
sg19
(lp1851
sg21
I00
sg22
Nsg23
I00
sg24
S'L'
sbsg25
(irule
FeatureMatrix
p1852
(dp1853
g28
(lp1854
(I00
g349
tp1855
asg22
Nsbsg31
(irule
Guard
p1856
(dp1857
g18
I00
sg19
(lp1858
(irule
FeatureMatrix
p1859
(dp1860
g28
(lp1861
(I01
g357
tp1862
asg22
Nsbasg21
I00
sg22
Nsg23
I00
sg24
S'R'
sbsg35
(irule
FeatureMatrix
p1863
(dp1864
g28
(lp1865
(I01
g383
tp1866
a(I01
g349
tp1867
asg22
Nsbsg22
Nsba(irule
Rule
p1868
(dp1869
g15
(irule
Guard
p1870
(dp1871
g18
I00
sg19
(lp1872
sg21
I00
sg22
Nsg23
I00
sg24
S'L'
sbsg25
(irule
FeatureMatrix
p1873
(dp1874
g28
(lp1875
(I01
g357
tp1876
a(I00
g349
tp1877
asg22
Nsbsg31
(irule
Guard
p1878
(dp1879
g18
I00
sg19
(lp1880
(irule
FeatureMatrix
p1881
(dp1882
g28
(lp1883
(I01
g357
tp1884
asg22
Nsbasg21
I00
sg22
Nsg23
I00
sg24
S'R'
sbsg35
(irule
FeatureMatrix
p1885
(dp1886
g28
(lp1887
(I01
g383
tp1888
asg22
Nsbsg22
Nsba(irule
Rule
p1889
(dp1890
g15
(irule
Guard
p1891
(dp1892
g18
I00
sg19
(lp1893
sg21
I00
sg22
Nsg23
I00
sg24
S'L'
sbsg25
(irule
FeatureMatrix
p1894
(dp1895
g28
(lp1896
(I00
g349
tp1897
asg22
Nsbsg31
(irule
Guard
p1898
(dp1899
g18
I00
sg19
(lp1900
(irule
FeatureMatrix
p1901
(dp1902
g28
(lp1903
(I01
g357
tp1904
asg22
Nsbasg21
I00
sg22
Nsg23
I00
sg24
S'R'
sbsg35
(irule
FeatureMatrix
p1905
(dp1906
g28
(lp1907
(I00
g445
tp1908
a(I00
g643
tp1909
asg22
Nsbsg22
Nsba(irule
Rule
p1910
(dp1911
g15
(irule
Guard
p1912
(dp1913
g18
I00
sg19
(lp1914
sg21
I00
sg22
Nsg23
I00
sg24
S'L'
sbsg25
(irule
FeatureMatrix
p1915
(dp1916
g28
(lp1917
(I01
g633
tp1918
a(I00
g349
tp1919
asg22
Nsbsg31
(irule
Guard
p1920
(dp1921
g18
I00
sg19
(lp1922
(irule
FeatureMatrix
p1923
(dp1924
g28
(lp1925
(I01
g357
tp1926
asg22
Nsbasg21
I00
sg22
Nsg23
I00
sg24
S'R'
sbsg35
(irule
FeatureMatrix
p1927
(dp1928
g28
(lp1929
(I01
g383
tp1930
asg22
Nsbsg22
Nsba(irule
Rule
p1931
(dp1932
g15
(irule
Guard
p1933
(dp1934
g18
I00
sg19
(lp1935
sg21
I00
sg22
Nsg23
I00
sg24
S'L'
sbsg25
(irule
FeatureMatrix
p1936
(dp1937
g28
(lp1938
(I00
g734
tp1939
a(I00
g349
tp1940
asg22
Nsbsg31
(irule
Guard
p1941
(dp1942
g18
I00
sg19
(lp1943
(irule
FeatureMatrix
p1944
(dp1945
g28
(lp1946
(I01
g357
tp1947
asg22
Nsbasg21
I00
sg22
Nsg23
I00
sg24
S'R'
sbsg35
(irule
FeatureMatrix
p1948
(dp1949
g28
(lp1950
(I01
g357
tp1951
asg22
Nsbsg22
Nsba(irule
Rule
p1952
(dp1953
g15
(irule
Guard
p1954
(dp1955
g18
I00
sg19
(lp1956
sg21
I00
sg22
Nsg23
I00
sg24
S'L'
sbsg25
(irule
FeatureMatrix
p1957
(dp1958
g28
(lp1959
(I00
g842
tp1960
a(I00
g349
tp1961
asg22
Nsbsg31
(irule
Guard
p1962
(dp1963
g18
I00
sg19
(lp1964
(irule
FeatureMatrix
p1965
(dp1966
g28
(lp1967
(I01
g357
tp1968
asg22
Nsbasg21
I00
sg22
Nsg23
I00
sg24
S'R'
sbsg35
(irule
FeatureMatrix
p1969
(dp1970
g28
(lp1971
(I01
g383
tp1972
asg22
Nsbsg22
Nsba(irule
Rule
p1973
(dp1974
g15
(irule
Guard
p1975
(dp1976
g18
I00
sg19
(lp1977
sg21
I00
sg22
Nsg23
I00
sg24
S'L'
sbsg25
(irule
FeatureMatrix
p1978
(dp1979
g28
(lp1980
(I00
g349
tp1981
asg22
Nsbsg31
(irule
Guard
p1982
(dp1983
g18
I00
sg19
(lp1984
(irule
FeatureMatrix
p1985
(dp1986
g28
(lp1987
(I00
g445
tp1988
a(I00
g643
tp1989
asg22
Nsbasg21
I00
sg22
Nsg23
I00
sg24
S'R'
sbsg35
(irule
FeatureMatrix
p1990
(dp1991
g28
(lp1992
(I01
g383
tp1993
asg22
Nsbsg22
Nsba(irule
Rule
p1994
(dp1995
g15
(irule
Guard
p1996
(dp1997
g18
I00
sg19
(lp1998
sg21
I00
sg22
Nsg23
I00
sg24
S'L'
sbsg25
(irule
ConstantPhoneme
p1999
(dp2000
S'p'
Vs
sbsg31
(irule
Guard
p2001
(dp2002
g18
I00
sg19
(lp2003
(irule
FeatureMatrix
p2004
(dp2005
g28
(lp2006
(I01
g357
tp2007
asg22
Nsbasg21
I00
sg22
Nsg23
I00
sg24
S'R'
sbsg35
(irule
FeatureMatrix
p2008
(dp2009
g28
(lp2010
(I01
g383
tp2011
a(I01
g349
tp2012
asg22
Nsbsg22
Nsba(irule
Rule
p2013
(dp2014
g15
(irule
Guard
p2015
(dp2016
g18
I00
sg19
(lp2017
sg21
I00
sg22
Nsg23
I00
sg24
S'L'
sbsg25
(irule
FeatureMatrix
p2018
(dp2019
g28
(lp2020
(I00
g349
tp2021
asg22
Nsbsg31
(irule
Guard
p2022
(dp2023
g18
I00
sg19
(lp2024
(irule
FeatureMatrix
p2025
(dp2026
g28
(lp2027
(I01
g357
tp2028
asg22
Nsbasg21
I00
sg22
Nsg23
I00
sg24
S'R'
sbsg35
(irule
FeatureMatrix
p2029
(dp2030
g28
(lp2031
(I00
g466
tp2032
a(I00
g404
tp2033
asg22
Nsbsg22
Nsba(irule
Rule
p2034
(dp2035
g15
(irule
Guard
p2036
(dp2037
g18
I00
sg19
(lp2038
sg21
I00
sg22
Nsg23
I00
sg24
S'L'
sbsg25
(irule
FeatureMatrix
p2039
(dp2040
g28
(lp2041
(I00
g349
tp2042
asg22
Nsbsg31
(irule
Guard
p2043
(dp2044
g18
I00
sg19
(lp2045
(irule
FeatureMatrix
p2046
(dp2047
g28
(lp2048
(I01
g357
tp2049
a(I00
g404
tp2050
asg22
Nsbasg21
I00
sg22
Nsg23
I00
sg24
S'R'
sbsg35
(irule
FeatureMatrix
p2051
(dp2052
g28
(lp2053
(I01
g357
tp2054
asg22
Nsbsg22
Nsba(irule
Rule
p2055
(dp2056
g15
(irule
Guard
p2057
(dp2058
g18
I00
sg19
(lp2059
sg21
I00
sg22
Nsg23
I00
sg24
S'L'
sbsg25
(irule
FeatureMatrix
p2060
(dp2061
g28
(lp2062
(I00
g349
tp2063
asg22
Nsbsg31
(irule
Guard
p2064
(dp2065
g18
I00
sg19
(lp2066
(irule
FeatureMatrix
p2067
(dp2068
g28
(lp2069
(I01
g357
tp2070
asg22
Nsbasg21
I00
sg22
Nsg23
I00
sg24
S'R'
sbsg35
(irule
FeatureMatrix
p2071
(dp2072
g28
(lp2073
(I01
g633
tp2074
a(I00
g466
tp2075
asg22
Nsbsg22
Nsba(irule
Rule
p2076
(dp2077
g15
(irule
Guard
p2078
(dp2079
g18
I00
sg19
(lp2080
sg21
I00
sg22
Nsg23
I00
sg24
S'L'
sbsg25
(irule
FeatureMatrix
p2081
(dp2082
g28
(lp2083
(I00
g349
tp2084
asg22
Nsbsg31
(irule
Guard
p2085
(dp2086
g18
I00
sg19
(lp2087
(irule
FeatureMatrix
p2088
(dp2089
g28
(lp2090
(I01
g357
tp2091
a(I00
g1050
tp2092
asg22
Nsbasg21
I00
sg22
Nsg23
I00
sg24
S'R'
sbsg35
(irule
FeatureMatrix
p2093
(dp2094
g28
(lp2095
(I01
g357
tp2096
asg22
Nsbsg22
Nsba(irule
Rule
p2097
(dp2098
g15
(irule
Guard
p2099
(dp2100
g18
I00
sg19
(lp2101
sg21
I00
sg22
Nsg23
I00
sg24
S'L'
sbsg25
(irule
FeatureMatrix
p2102
(dp2103
g28
(lp2104
(I00
g1050
tp2105
a(I00
g349
tp2106
asg22
Nsbsg31
(irule
Guard
p2107
(dp2108
g18
I00
sg19
(lp2109
(irule
FeatureMatrix
p2110
(dp2111
g28
(lp2112
(I01
g357
tp2113
asg22
Nsbasg21
I00
sg22
Nsg23
I00
sg24
S'R'
sbsg35
(irule
FeatureMatrix
p2114
(dp2115
g28
(lp2116
(I01
g357
tp2117
asg22
Nsbsg22
Nsba(irule
Rule
p2118
(dp2119
g15
(irule
Guard
p2120
(dp2121
g18
I00
sg19
(lp2122
sg21
I00
sg22
Nsg23
I00
sg24
S'L'
sbsg25
(irule
FeatureMatrix
p2123
(dp2124
g28
(lp2125
(I00
g349
tp2126
asg22
Nsbsg31
(irule
Guard
p2127
(dp2128
g18
I00
sg19
(lp2129
(irule
FeatureMatrix
p2130
(dp2131
g28
(lp2132
(I01
g357
tp2133
asg22
Nsbasg21
I00
sg22
Nsg23
I00
sg24
S'R'
sbsg35
(irule
FeatureMatrix
p2134
(dp2135
g28
(lp2136
(I01
g633
tp2137
a(I01
g383
tp2138
asg22
Nsbsg22
Nsba(irule
Rule
p2139
(dp2140
g15
(irule
Guard
p2141
(dp2142
g18
I00
sg19
(lp2143
sg21
I00
sg22
Nsg23
I00
sg24
S'L'
sbsg25
(irule
FeatureMatrix
p2144
(dp2145
g28
(lp2146
(I00
g349
tp2147
asg22
Nsbsg31
(irule
Guard
p2148
(dp2149
g18
I00
sg19
(lp2150
(irule
FeatureMatrix
p2151
(dp2152
g28
(lp2153
(I01
g357
tp2154
a(I00
g871
tp2155
asg22
Nsbasg21
I00
sg22
Nsg23
I00
sg24
S'R'
sbsg35
(irule
FeatureMatrix
p2156
(dp2157
g28
(lp2158
(I01
g362
tp2159
asg22
Nsbsg22
Nsba(irule
Rule
p2160
(dp2161
g15
(irule
Guard
p2162
(dp2163
g18
I00
sg19
(lp2164
sg21
I00
sg22
Nsg23
I00
sg24
S'L'
sbsg25
(irule
FeatureMatrix
p2165
(dp2166
g28
(lp2167
(I00
g871
tp2168
a(I00
g349
tp2169
asg22
Nsbsg31
(irule
Guard
p2170
(dp2171
g18
I00
sg19
(lp2172
(irule
FeatureMatrix
p2173
(dp2174
g28
(lp2175
(I01
g357
tp2176
asg22
Nsbasg21
I00
sg22
Nsg23
I00
sg24
S'R'
sbsg35
(irule
FeatureMatrix
p2177
(dp2178
g28
(lp2179
(I01
g357
tp2180
asg22
Nsbsg22
Nsba(irule
Rule
p2181
(dp2182
g15
(irule
Guard
p2183
(dp2184
g18
I00
sg19
(lp2185
sg21
I00
sg22
Nsg23
I00
sg24
S'L'
sbsg25
(irule
FeatureMatrix
p2186
(dp2187
g28
(lp2188
(I00
g349
tp2189
asg22
Nsbsg31
(irule
Guard
p2190
(dp2191
g18
I00
sg19
(lp2192
(irule
FeatureMatrix
p2193
(dp2194
g28
(lp2195
(I01
g357
tp2196
a(I00
g404
tp2197
asg22
Nsbasg21
I00
sg22
Nsg23
I00
sg24
S'R'
sbsg35
(irule
ConstantPhoneme
p2198
(dp2199
S'p'
Vz
sbsg22
Nsba(irule
Rule
p2200
(dp2201
g15
(irule
Guard
p2202
(dp2203
g18
I00
sg19
(lp2204
sg21
I00
sg22
Nsg23
I00
sg24
S'L'
sbsg25
(irule
FeatureMatrix
p2205
(dp2206
g28
(lp2207
(I00
g842
tp2208
a(I00
g349
tp2209
asg22
Nsbsg31
(irule
Guard
p2210
(dp2211
g18
I00
sg19
(lp2212
(irule
FeatureMatrix
p2213
(dp2214
g28
(lp2215
(I01
g357
tp2216
asg22
Nsbasg21
I00
sg22
Nsg23
I00
sg24
S'R'
sbsg35
(irule
FeatureMatrix
p2217
(dp2218
g28
(lp2219
(I01
g362
tp2220
asg22
Nsbsg22
Nsba(irule
Rule
p2221
(dp2222
g15
(irule
Guard
p2223
(dp2224
g18
I00
sg19
(lp2225
sg21
I00
sg22
Nsg23
I00
sg24
S'L'
sbsg25
(irule
FeatureMatrix
p2226
(dp2227
g28
(lp2228
(I00
g349
tp2229
asg22
Nsbsg31
(irule
Guard
p2230
(dp2231
g18
I00
sg19
(lp2232
(irule
FeatureMatrix
p2233
(dp2234
g28
(lp2235
(I01
g357
tp2236
a(I00
g466
tp2237
asg22
Nsbasg21
I00
sg22
Nsg23
I00
sg24
S'R'
sbsg35
(irule
FeatureMatrix
p2238
(dp2239
g28
(lp2240
(I01
g383
tp2241
asg22
Nsbsg22
Nsba(irule
Rule
p2242
(dp2243
g15
(irule
Guard
p2244
(dp2245
g18
I00
sg19
(lp2246
sg21
I00
sg22
Nsg23
I00
sg24
S'L'
sbsg25
(irule
FeatureMatrix
p2247
(dp2248
g28
(lp2249
(I00
g466
tp2250
a(I00
g349
tp2251
asg22
Nsbsg31
(irule
Guard
p2252
(dp2253
g18
I00
sg19
(lp2254
(irule
FeatureMatrix
p2255
(dp2256
g28
(lp2257
(I01
g357
tp2258
asg22
Nsbasg21
I00
sg22
Nsg23
I00
sg24
S'R'
sbsg35
(irule
FeatureMatrix
p2259
(dp2260
g28
(lp2261
(I01
g357
tp2262
asg22
Nsbsg22
Nsba(irule
Rule
p2263
(dp2264
g15
(irule
Guard
p2265
(dp2266
g18
I00
sg19
(lp2267
sg21
I00
sg22
Nsg23
I00
sg24
S'L'
sbsg25
(irule
FeatureMatrix
p2268
(dp2269
g28
(lp2270
(I00
g871
tp2271
a(I00
g349
tp2272
asg22
Nsbsg31
(irule
Guard
p2273
(dp2274
g18
I00
sg19
(lp2275
(irule
FeatureMatrix
p2276
(dp2277
g28
(lp2278
(I01
g357
tp2279
asg22
Nsbasg21
I00
sg22
Nsg23
I00
sg24
S'R'
sbsg35
(irule
ConstantPhoneme
p2280
(dp2281
S'p'
Vz
sbsg22
Nsba(irule
Rule
p2282
(dp2283
g15
(irule
Guard
p2284
(dp2285
g18
I00
sg19
(lp2286
sg21
I00
sg22
Nsg23
I00
sg24
S'L'
sbsg25
(irule
FeatureMatrix
p2287
(dp2288
g28
(lp2289
(I00
g349
tp2290
asg22
Nsbsg31
(irule
Guard
p2291
(dp2292
g18
I00
sg19
(lp2293
(irule
FeatureMatrix
p2294
(dp2295
g28
(lp2296
(I01
g357
tp2297
asg22
Nsbasg21
I00
sg22
Nsg23
I00
sg24
S'R'
sbsg35
(irule
FeatureMatrix
p2298
(dp2299
g28
(lp2300
(I00
g1050
tp2301
a(I01
g362
tp2302
asg22
Nsbsg22
Nsba(irule
Rule
p2303
(dp2304
g15
(irule
Guard
p2305
(dp2306
g18
I00
sg19
(lp2307
sg21
I00
sg22
Nsg23
I00
sg24
S'L'
sbsg25
(irule
ConstantPhoneme
p2308
(dp2309
S'p'
Vs
sbsg31
(irule
Guard
p2310
(dp2311
g18
I00
sg19
(lp2312
(irule
FeatureMatrix
p2313
(dp2314
g28
(lp2315
(I01
g357
tp2316
asg22
Nsbasg21
I00
sg22
Nsg23
I00
sg24
S'R'
sbsg35
(irule
FeatureMatrix
p2317
(dp2318
g28
(lp2319
(I01
g633
tp2320
a(I00
g445
tp2321
asg22
Nsbsg22
Nsba(irule
Rule
p2322
(dp2323
g15
(irule
Guard
p2324
(dp2325
g18
I00
sg19
(lp2326
sg21
I00
sg22
Nsg23
I00
sg24
S'L'
sbsg25
(irule
FeatureMatrix
p2327
(dp2328
g28
(lp2329
(I00
g349
tp2330
asg22
Nsbsg31
(irule
Guard
p2331
(dp2332
g18
I00
sg19
(lp2333
(irule
FeatureMatrix
p2334
(dp2335
g28
(lp2336
(I01
g357
tp2337
asg22
Nsbasg21
I00
sg22
Nsg23
I00
sg24
S'R'
sbsg35
(irule
FeatureMatrix
p2338
(dp2339
g28
(lp2340
(I01
g362
tp2341
a(I00
g734
tp2342
asg22
Nsbsg22
Nsba(irule
Rule
p2343
(dp2344
g15
(irule
Guard
p2345
(dp2346
g18
I00
sg19
(lp2347
sg21
I00
sg22
Nsg23
I00
sg24
S'L'
sbsg25
(irule
FeatureMatrix
p2348
(dp2349
g28
(lp2350
(I00
g349
tp2351
asg22
Nsbsg31
(irule
Guard
p2352
(dp2353
g18
I00
sg19
(lp2354
(irule
FeatureMatrix
p2355
(dp2356
g28
(lp2357
(I01
g357
tp2358
asg22
Nsbasg21
I00
sg22
Nsg23
I00
sg24
S'R'
sbsg35
(irule
FeatureMatrix
p2359
(dp2360
g28
(lp2361
(I00
g873
tp2362
a(I01
g383
tp2363
asg22
Nsbsg22
Nsba(irule
Rule
p2364
(dp2365
g15
(irule
Guard
p2366
(dp2367
g18
I00
sg19
(lp2368
sg21
I00
sg22
Nsg23
I00
sg24
S'L'
sbsg25
(irule
FeatureMatrix
p2369
(dp2370
g28
(lp2371
(I00
g349
tp2372
asg22
Nsbsg31
(irule
Guard
p2373
(dp2374
g18
I00
sg19
(lp2375
(irule
FeatureMatrix
p2376
(dp2377
g28
(lp2378
(I01
g357
tp2379
asg22
Nsba(irule
FeatureMatrix
p2380
(dp2381
g28
(lp2382
sg22
Nsbasg21
I00
sg22
Nsg23
I00
sg24
S'R'
sbsg35
(irule
FeatureMatrix
p2383
(dp2384
g28
(lp2385
(I00
g466
tp2386
asg22
Nsbsg22
Nsba(irule
Rule
p2387
(dp2388
g15
(irule
Guard
p2389
(dp2390
g18
I00
sg19
(lp2391
sg21
I00
sg22
Nsg23
I00
sg24
S'L'
sbsg25
(irule
FeatureMatrix
p2392
(dp2393
g28
(lp2394
(I00
g734
tp2395
a(I00
g349
tp2396
asg22
Nsbsg31
(irule
Guard
p2397
(dp2398
g18
I00
sg19
(lp2399
(irule
FeatureMatrix
p2400
(dp2401
g28
(lp2402
(I01
g357
tp2403
asg22
Nsbasg21
I00
sg22
Nsg23
I00
sg24
S'R'
sbsg35
(irule
FeatureMatrix
p2404
(dp2405
g28
(lp2406
(I00
g404
tp2407
asg22
Nsbsg22
Nsba(irule
Rule
p2408
(dp2409
g15
(irule
Guard
p2410
(dp2411
g18
I00
sg19
(lp2412
sg21
I00
sg22
Nsg23
I00
sg24
S'L'
sbsg25
(irule
FeatureMatrix
p2413
(dp2414
g28
(lp2415
(I00
g349
tp2416
asg22
Nsbsg31
(irule
Guard
p2417
(dp2418
g18
I00
sg19
(lp2419
(irule
FeatureMatrix
p2420
(dp2421
g28
(lp2422
(I01
g357
tp2423
asg22
Nsbasg21
I00
sg22
Nsg23
I00
sg24
S'R'
sbsg35
(irule
FeatureMatrix
p2424
(dp2425
g28
(lp2426
(I00
g466
tp2427
a(I01
g349
tp2428
asg22
Nsbsg22
Nsbaa(lp2429
(irule
Rule
p2430
(dp2431
g15
(irule
Guard
p2432
(dp2433
g18
I00
sg19
(lp2434
sg21
I00
sg22
V
sg23
I00
sg24
S'L'
sbsg25
(irule
FeatureMatrix
p2435
(dp2436
g28
(lp2437
(I01
S'voice'
tp2438
asg22
V[ +voice ]
p2439
sbsg31
(irule
Guard
p2440
(dp2441
g18
I00
sg19
(lp2442
(irule
ConstantPhoneme
p2443
(dp2444
S'p'
Vb
sbasg21
I00
sg22
Vb
sg23
I00
sg24
S'R'
sbsg35
(irule
FeatureMatrix
p2445
(dp2446
g28
(lp2447
sg22
V[  ]
p2448
sbsg22
V[  ] ---> [ +voice ] /  _ b
p2449
sba(irule
Rule
p2450
(dp2451
g15
(irule
Guard
p2452
(dp2453
g18
I00
sg19
(lp2454
sg21
I00
sg22
Nsg23
I00
sg24
S'L'
sbsg25
(irule
FeatureMatrix
p2455
(dp2456
g28
(lp2457
(I01
S'voice'
p2458
tp2459
asg22
Nsbsg31
(irule
Guard
p2460
(dp2461
g18
I00
sg19
(lp2462
(irule
ConstantPhoneme
p2463
(dp2464
S'p'
Vb
sba(irule
FeatureMatrix
p2465
(dp2466
g28
(lp2467
sg22
Nsbasg21
I00
sg22
Nsg23
I00
sg24
S'R'
sbsg35
(irule
FeatureMatrix
p2468
(dp2469
g28
(lp2470
sg22
Nsbsg22
Nsba(irule
Rule
p2471
(dp2472
g15
(irule
Guard
p2473
(dp2474
g18
I00
sg19
(lp2475
sg21
I00
sg22
Nsg23
I00
sg24
S'L'
sbsg25
(irule
FeatureMatrix
p2476
(dp2477
g28
(lp2478
(I01
g2458
tp2479
asg22
Nsbsg31
(irule
Guard
p2480
(dp2481
g18
I00
sg19
(lp2482
(irule
FeatureMatrix
p2483
(dp2484
g28
(lp2485
(I00
S'sonorant'
p2486
tp2487
a(I01
g2458
tp2488
asg22
Nsbasg21
I00
sg22
Nsg23
I00
sg24
S'R'
sbsg35
(irule
FeatureMatrix
p2489
(dp2490
g28
(lp2491
sg22
Nsbsg22
Nsba(irule
Rule
p2492
(dp2493
g15
(irule
Guard
p2494
(dp2495
g18
I00
sg19
(lp2496
sg21
I00
sg22
Nsg23
I00
sg24
S'L'
sbsg25
(irule
FeatureMatrix
p2497
(dp2498
g28
(lp2499
(I00
S'low'
p2500
tp2501
a(I01
g2458
tp2502
asg22
Nsbsg31
(irule
Guard
p2503
(dp2504
g18
I00
sg19
(lp2505
(irule
ConstantPhoneme
p2506
(dp2507
S'p'
Vb
sbasg21
I00
sg22
Nsg23
I00
sg24
S'R'
sbsg35
(irule
FeatureMatrix
p2508
(dp2509
g28
(lp2510
sg22
Nsbsg22
Nsba(irule
Rule
p2511
(dp2512
g15
(irule
Guard
p2513
(dp2514
g18
I00
sg19
(lp2515
sg21
I00
sg22
Nsg23
I00
sg24
S'L'
sbsg25
(irule
FeatureMatrix
p2516
(dp2517
g28
(lp2518
(I01
g2458
tp2519
asg22
Nsbsg31
(irule
Guard
p2520
(dp2521
g18
I00
sg19
(lp2522
(irule
ConstantPhoneme
p2523
(dp2524
S'p'
Vb
sbasg21
I00
sg22
Nsg23
I00
sg24
S'R'
sbsg35
(irule
FeatureMatrix
p2525
(dp2526
g28
(lp2527
(I00
g2458
tp2528
asg22
Nsbsg22
Nsba(irule
Rule
p2529
(dp2530
g15
(irule
Guard
p2531
(dp2532
g18
I00
sg19
(lp2533
sg21
I00
sg22
Nsg23
I00
sg24
S'L'
sbsg25
(irule
FeatureMatrix
p2534
(dp2535
g28
(lp2536
(I01
g2458
tp2537
asg22
Nsbsg31
(irule
Guard
p2538
(dp2539
g18
I00
sg19
(lp2540
(irule
FeatureMatrix
p2541
(dp2542
g28
(lp2543
(I01
S'anterior'
p2544
tp2545
a(I01
g2458
tp2546
asg22
Nsbasg21
I00
sg22
Nsg23
I00
sg24
S'R'
sbsg35
(irule
FeatureMatrix
p2547
(dp2548
g28
(lp2549
sg22
Nsbsg22
Nsba(irule
Rule
p2550
(dp2551
g15
(irule
Guard
p2552
(dp2553
g18
I00
sg19
(lp2554
sg21
I00
sg22
Nsg23
I00
sg24
S'L'
sbsg25
(irule
FeatureMatrix
p2555
(dp2556
g28
(lp2557
(I01
g2458
tp2558
asg22
Nsbsg31
(irule
Guard
p2559
(dp2560
g18
I00
sg19
(lp2561
(irule
ConstantPhoneme
p2562
(dp2563
S'p'
Vb
sbasg21
I00
sg22
Nsg23
I00
sg24
S'R'
sbsg35
(irule
FeatureMatrix
p2564
(dp2565
g28
(lp2566
(I00
S'tense'
p2567
tp2568
asg22
Nsbsg22
Nsba(irule
Rule
p2569
(dp2570
g15
(irule
Guard
p2571
(dp2572
g18
I00
sg19
(lp2573
sg21
I00
sg22
Nsg23
I00
sg24
S'L'
sbsg25
(irule
FeatureMatrix
p2574
(dp2575
g28
(lp2576
(I00
S'palletized'
p2577
tp2578
a(I01
g2458
tp2579
asg22
Nsbsg31
(irule
Guard
p2580
(dp2581
g18
I00
sg19
(lp2582
(irule
ConstantPhoneme
p2583
(dp2584
S'p'
Vb
sbasg21
I00
sg22
Nsg23
I00
sg24
S'R'
sbsg35
(irule
FeatureMatrix
p2585
(dp2586
g28
(lp2587
sg22
Nsbsg22
Nsba(irule
Rule
p2588
(dp2589
g15
(irule
Guard
p2590
(dp2591
g18
I00
sg19
(lp2592
sg21
I00
sg22
Nsg23
I00
sg24
S'L'
sbsg25
(irule
FeatureMatrix
p2593
(dp2594
g28
(lp2595
(I00
S'highTone'
p2596
tp2597
a(I01
g2458
tp2598
asg22
Nsbsg31
(irule
Guard
p2599
(dp2600
g18
I00
sg19
(lp2601
(irule
ConstantPhoneme
p2602
(dp2603
S'p'
Vb
sbasg21
I00
sg22
Nsg23
I00
sg24
S'R'
sbsg35
(irule
FeatureMatrix
p2604
(dp2605
g28
(lp2606
sg22
Nsbsg22
Nsba(irule
Rule
p2607
(dp2608
g15
(irule
Guard
p2609
(dp2610
g18
I00
sg19
(lp2611
sg21
I00
sg22
Nsg23
I00
sg24
S'L'
sbsg25
(irule
FeatureMatrix
p2612
(dp2613
g28
(lp2614
(I00
S'liquid'
p2615
tp2616
a(I01
g2458
tp2617
asg22
Nsbsg31
(irule
Guard
p2618
(dp2619
g18
I00
sg19
(lp2620
(irule
ConstantPhoneme
p2621
(dp2622
S'p'
Vb
sbasg21
I00
sg22
Nsg23
I00
sg24
S'R'
sbsg35
(irule
FeatureMatrix
p2623
(dp2624
g28
(lp2625
sg22
Nsbsg22
Nsba(irule
Rule
p2626
(dp2627
g15
(irule
Guard
p2628
(dp2629
g18
I00
sg19
(lp2630
(irule
FeatureMatrix
p2631
(dp2632
g28
(lp2633
sg22
Nsbasg21
I00
sg22
Nsg23
I00
sg24
S'L'
sbsg25
(irule
FeatureMatrix
p2634
(dp2635
g28
(lp2636
(I01
g2458
tp2637
asg22
Nsbsg31
(irule
Guard
p2638
(dp2639
g18
I00
sg19
(lp2640
(irule
ConstantPhoneme
p2641
(dp2642
S'p'
Vb
sbasg21
I00
sg22
Nsg23
I00
sg24
S'R'
sbsg35
(irule
FeatureMatrix
p2643
(dp2644
g28
(lp2645
sg22
Nsbsg22
Nsba(irule
Rule
p2646
(dp2647
g15
(irule
Guard
p2648
(dp2649
g18
I00
sg19
(lp2650
sg21
I00
sg22
Nsg23
I00
sg24
S'L'
sbsg25
(irule
FeatureMatrix
p2651
(dp2652
g28
(lp2653
(I01
g2458
tp2654
asg22
Nsbsg31
(irule
Guard
p2655
(dp2656
g18
I00
sg19
(lp2657
(irule
FeatureMatrix
p2658
(dp2659
g28
(lp2660
(I01
g2544
tp2661
a(I00
S'coronal'
p2662
tp2663
asg22
Nsbasg21
I00
sg22
Nsg23
I00
sg24
S'R'
sbsg35
(irule
FeatureMatrix
p2664
(dp2665
g28
(lp2666
sg22
Nsbsg22
Nsba(irule
Rule
p2667
(dp2668
g15
(irule
Guard
p2669
(dp2670
g18
I00
sg19
(lp2671
sg21
I00
sg22
Nsg23
I00
sg24
S'L'
sbsg25
(irule
FeatureMatrix
p2672
(dp2673
g28
(lp2674
(I01
g2458
tp2675
asg22
Nsbsg31
(irule
Guard
p2676
(dp2677
g18
I00
sg19
(lp2678
(irule
FeatureMatrix
p2679
(dp2680
g28
(lp2681
(I00
S'continuant'
p2682
tp2683
a(I01
g2458
tp2684
asg22
Nsbasg21
I00
sg22
Nsg23
I00
sg24
S'R'
sbsg35
(irule
FeatureMatrix
p2685
(dp2686
g28
(lp2687
sg22
Nsbsg22
Nsba(irule
Rule
p2688
(dp2689
g15
(irule
Guard
p2690
(dp2691
g18
I00
sg19
(lp2692
sg21
I00
sg22
Nsg23
I00
sg24
S'L'
sbsg25
(irule
FeatureMatrix
p2693
(dp2694
g28
(lp2695
(I01
g2458
tp2696
asg22
Nsbsg31
(irule
Guard
p2697
(dp2698
g18
I00
sg19
(lp2699
(irule
ConstantPhoneme
p2700
(dp2701
S'p'
Vb
sbasg21
I00
sg22
Nsg23
I00
sg24
S'R'
sbsg35
(irule
FeatureMatrix
p2702
(dp2703
g28
(lp2704
(I00
g2500
tp2705
asg22
Nsbsg22
Nsba(irule
Rule
p2706
(dp2707
g15
(irule
Guard
p2708
(dp2709
g18
I00
sg19
(lp2710
sg21
I00
sg22
Nsg23
I00
sg24
S'L'
sbsg25
(irule
FeatureMatrix
p2711
(dp2712
g28
(lp2713
(I01
g2458
tp2714
asg22
Nsbsg31
(irule
Guard
p2715
(dp2716
g18
I00
sg19
(lp2717
(irule
ConstantPhoneme
p2718
(dp2719
S'p'
Vb
sbasg21
I00
sg22
Nsg23
I00
sg24
S'R'
sbsg35
(irule
FeatureMatrix
p2720
(dp2721
g28
(lp2722
(I00
S'back'
p2723
tp2724
asg22
Nsbsg22
Nsba(irule
Rule
p2725
(dp2726
g15
(irule
Guard
p2727
(dp2728
g18
I00
sg19
(lp2729
sg21
I00
sg22
Nsg23
I00
sg24
S'L'
sbsg25
(irule
FeatureMatrix
p2730
(dp2731
g28
(lp2732
(I01
g2458
tp2733
asg22
Nsbsg31
(irule
Guard
p2734
(dp2735
g18
I00
sg19
(lp2736
(irule
ConstantPhoneme
p2737
(dp2738
S'p'
Vb
sbasg21
I00
sg22
Nsg23
I00
sg24
S'R'
sbsg35
(irule
FeatureMatrix
p2739
(dp2740
g28
(lp2741
(I00
S'vowel'
p2742
tp2743
asg22
Nsbsg22
Nsba(irule
Rule
p2744
(dp2745
g15
(irule
Guard
p2746
(dp2747
g18
I00
sg19
(lp2748
sg21
I00
sg22
Nsg23
I00
sg24
S'L'
sbsg25
(irule
FeatureMatrix
p2749
(dp2750
g28
(lp2751
(I01
g2458
tp2752
asg22
Nsbsg31
(irule
Guard
p2753
(dp2754
g18
I00
sg19
(lp2755
(irule
ConstantPhoneme
p2756
(dp2757
S'p'
Vb
sbasg21
I00
sg22
Nsg23
I00
sg24
S'R'
sbsg35
(irule
FeatureMatrix
p2758
(dp2759
g28
(lp2760
(I00
S'high'
p2761
tp2762
asg22
Nsbsg22
Nsba(irule
Rule
p2763
(dp2764
g15
(irule
Guard
p2765
(dp2766
g18
I00
sg19
(lp2767
sg21
I00
sg22
Nsg23
I00
sg24
S'L'
sbsg25
(irule
FeatureMatrix
p2768
(dp2769
g28
(lp2770
(I01
g2458
tp2771
asg22
Nsbsg31
(irule
Guard
p2772
(dp2773
g18
I00
sg19
(lp2774
(irule
ConstantPhoneme
p2775
(dp2776
S'p'
Vb
sbasg21
I00
sg22
Nsg23
I00
sg24
S'R'
sbsg35
(irule
FeatureMatrix
p2777
(dp2778
g28
(lp2779
(I01
g2662
tp2780
asg22
Nsbsg22
Nsba(irule
Rule
p2781
(dp2782
g15
(irule
Guard
p2783
(dp2784
g18
I00
sg19
(lp2785
sg21
I00
sg22
Nsg23
I00
sg24
S'L'
sbsg25
(irule
FeatureMatrix
p2786
(dp2787
g28
(lp2788
(I01
g2458
tp2789
asg22
Nsbsg31
(irule
Guard
p2790
(dp2791
g18
I00
sg19
(lp2792
(irule
ConstantPhoneme
p2793
(dp2794
S'p'
Vb
sbasg21
I00
sg22
Nsg23
I00
sg24
S'R'
sbsg35
(irule
FeatureMatrix
p2795
(dp2796
g28
(lp2797
(I00
g2486
tp2798
asg22
Nsbsg22
Nsba(irule
Rule
p2799
(dp2800
g15
(irule
Guard
p2801
(dp2802
g18
I00
sg19
(lp2803
sg21
I00
sg22
Nsg23
I00
sg24
S'L'
sbsg25
(irule
FeatureMatrix
p2804
(dp2805
g28
(lp2806
(I01
g2458
tp2807
asg22
Nsbsg31
(irule
Guard
p2808
(dp2809
g18
I00
sg19
(lp2810
(irule
ConstantPhoneme
p2811
(dp2812
S'p'
Vb
sbasg21
I00
sg22
Nsg23
I00
sg24
S'R'
sbsg35
(irule
FeatureMatrix
p2813
(dp2814
g28
(lp2815
(I00
S'rounded'
p2816
tp2817
asg22
Nsbsg22
Nsba(irule
Rule
p2818
(dp2819
g15
(irule
Guard
p2820
(dp2821
g18
I00
sg19
(lp2822
sg21
I00
sg22
Nsg23
I00
sg24
S'L'
sbsg25
(irule
FeatureMatrix
p2823
(dp2824
g28
(lp2825
(I00
S'lateral'
p2826
tp2827
a(I01
g2458
tp2828
asg22
Nsbsg31
(irule
Guard
p2829
(dp2830
g18
I00
sg19
(lp2831
(irule
ConstantPhoneme
p2832
(dp2833
S'p'
Vb
sbasg21
I00
sg22
Nsg23
I00
sg24
S'R'
sbsg35
(irule
FeatureMatrix
p2834
(dp2835
g28
(lp2836
sg22
Nsbsg22
Nsba(irule
Rule
p2837
(dp2838
g15
(irule
Guard
p2839
(dp2840
g18
I00
sg19
(lp2841
sg21
I00
sg22
Nsg23
I00
sg24
S'L'
sbsg25
(irule
FeatureMatrix
p2842
(dp2843
g28
(lp2844
(I01
g2458
tp2845
asg22
Nsbsg31
(irule
Guard
p2846
(dp2847
g18
I00
sg19
(lp2848
(irule
ConstantPhoneme
p2849
(dp2850
S'p'
Vb
sbasg21
I00
sg22
Nsg23
I00
sg24
S'R'
sbsg35
(irule
FeatureMatrix
p2851
(dp2852
g28
(lp2853
(I00
g2615
tp2854
asg22
Nsbsg22
Nsba(irule
Rule
p2855
(dp2856
g15
(irule
Guard
p2857
(dp2858
g18
I00
sg19
(lp2859
sg21
I00
sg22
Nsg23
I00
sg24
S'L'
sbsg25
(irule
FeatureMatrix
p2860
(dp2861
g28
(lp2862
(I01
g2458
tp2863
asg22
Nsbsg31
(irule
Guard
p2864
(dp2865
g18
I00
sg19
(lp2866
(irule
ConstantPhoneme
p2867
(dp2868
S'p'
Vb
sbasg21
I00
sg22
Nsg23
I00
sg24
S'R'
sbsg35
(irule
FeatureMatrix
p2869
(dp2870
g28
(lp2871
(I00
g2826
tp2872
asg22
Nsbsg22
Nsba(irule
Rule
p2873
(dp2874
g15
(irule
Guard
p2875
(dp2876
g18
I00
sg19
(lp2877
sg21
I00
sg22
Nsg23
I00
sg24
S'L'
sbsg25
(irule
FeatureMatrix
p2878
(dp2879
g28
(lp2880
(I01
g2458
tp2881
asg22
Nsbsg31
(irule
Guard
p2882
(dp2883
g18
I00
sg19
(lp2884
(irule
ConstantPhoneme
p2885
(dp2886
S'p'
Vb
sbasg21
I00
sg22
Nsg23
I00
sg24
S'R'
sbsg35
(irule
FeatureMatrix
p2887
(dp2888
g28
(lp2889
(I00
g2577
tp2890
asg22
Nsbsg22
Nsba(irule
Rule
p2891
(dp2892
g15
(irule
Guard
p2893
(dp2894
g18
I00
sg19
(lp2895
sg21
I00
sg22
Nsg23
I00
sg24
S'L'
sbsg25
(irule
FeatureMatrix
p2896
(dp2897
g28
(lp2898
(I01
g2458
tp2899
asg22
Nsbsg31
(irule
Guard
p2900
(dp2901
g18
I00
sg19
(lp2902
(irule
ConstantPhoneme
p2903
(dp2904
S'p'
Vb
sbasg21
I00
sg22
Nsg23
I00
sg24
S'R'
sbsg35
(irule
FeatureMatrix
p2905
(dp2906
g28
(lp2907
(I01
g2544
tp2908
asg22
Nsbsg22
Nsba(irule
Rule
p2909
(dp2910
g15
(irule
Guard
p2911
(dp2912
g18
I00
sg19
(lp2913
sg21
I00
sg22
Nsg23
I00
sg24
S'L'
sbsg25
(irule
FeatureMatrix
p2914
(dp2915
g28
(lp2916
(I01
g2458
tp2917
asg22
Nsbsg31
(irule
Guard
p2918
(dp2919
g18
I00
sg19
(lp2920
(irule
ConstantPhoneme
p2921
(dp2922
S'p'
Vb
sbasg21
I00
sg22
Nsg23
I00
sg24
S'R'
sbsg35
(irule
FeatureMatrix
p2923
(dp2924
g28
(lp2925
(I00
g2596
tp2926
asg22
Nsbsg22
Nsba(irule
Rule
p2927
(dp2928
g15
(irule
Guard
p2929
(dp2930
g18
I00
sg19
(lp2931
sg21
I00
sg22
Nsg23
I00
sg24
S'L'
sbsg25
(irule
FeatureMatrix
p2932
(dp2933
g28
(lp2934
(I01
g2458
tp2935
asg22
Nsbsg31
(irule
Guard
p2936
(dp2937
g18
I00
sg19
(lp2938
(irule
ConstantPhoneme
p2939
(dp2940
S'p'
Vb
sba(irule
FeatureMatrix
p2941
(dp2942
g28
(lp2943
sg22
Nsbasg21
I00
sg22
Nsg23
I00
sg24
S'R'
sbsg35
(irule
FeatureMatrix
p2944
(dp2945
g28
(lp2946
(I00
g2458
tp2947
asg22
Nsbsg22
Nsba(irule
Rule
p2948
(dp2949
g15
(irule
Guard
p2950
(dp2951
g18
I00
sg19
(lp2952
sg21
I00
sg22
Nsg23
I00
sg24
S'L'
sbsg25
(irule
FeatureMatrix
p2953
(dp2954
g28
(lp2955
(I00
g2742
tp2956
a(I01
g2458
tp2957
asg22
Nsbsg31
(irule
Guard
p2958
(dp2959
g18
I00
sg19
(lp2960
(irule
ConstantPhoneme
p2961
(dp2962
S'p'
Vb
sbasg21
I00
sg22
Nsg23
I00
sg24
S'R'
sbsg35
(irule
FeatureMatrix
p2963
(dp2964
g28
(lp2965
(I00
g2816
tp2966
asg22
Nsbsg22
Nsba(irule
Rule
p2967
(dp2968
g15
(irule
Guard
p2969
(dp2970
g18
I00
sg19
(lp2971
sg21
I00
sg22
Nsg23
I00
sg24
S'L'
sbsg25
(irule
FeatureMatrix
p2972
(dp2973
g28
(lp2974
(I00
g2577
tp2975
a(I00
g2500
tp2976
a(I01
g2458
tp2977
asg22
Nsbsg31
(irule
Guard
p2978
(dp2979
g18
I00
sg19
(lp2980
(irule
ConstantPhoneme
p2981
(dp2982
S'p'
Vb
sbasg21
I00
sg22
Nsg23
I00
sg24
S'R'
sbsg35
(irule
FeatureMatrix
p2983
(dp2984
g28
(lp2985
sg22
Nsbsg22
Nsba(irule
Rule
p2986
(dp2987
g15
(irule
Guard
p2988
(dp2989
g18
I00
sg19
(lp2990
sg21
I00
sg22
Nsg23
I00
sg24
S'L'
sbsg25
(irule
FeatureMatrix
p2991
(dp2992
g28
(lp2993
(I00
g2615
tp2994
a(I01
g2458
tp2995
asg22
Nsbsg31
(irule
Guard
p2996
(dp2997
g18
I00
sg19
(lp2998
(irule
ConstantPhoneme
p2999
(dp3000
S'p'
Vb
sbasg21
I00
sg22
Nsg23
I00
sg24
S'R'
sbsg35
(irule
FeatureMatrix
p3001
(dp3002
g28
(lp3003
(I00
g2816
tp3004
asg22
Nsbsg22
Nsba(irule
Rule
p3005
(dp3006
g15
(irule
Guard
p3007
(dp3008
g18
I00
sg19
(lp3009
(irule
FeatureMatrix
p3010
(dp3011
g28
(lp3012
(I01
g2742
tp3013
asg22
Nsbasg21
I00
sg22
Nsg23
I00
sg24
S'L'
sbsg25
(irule
FeatureMatrix
p3014
(dp3015
g28
(lp3016
(I01
g2458
tp3017
asg22
Nsbsg31
(irule
Guard
p3018
(dp3019
g18
I00
sg19
(lp3020
(irule
ConstantPhoneme
p3021
(dp3022
S'p'
Vb
sbasg21
I00
sg22
Nsg23
I00
sg24
S'R'
sbsg35
(irule
FeatureMatrix
p3023
(dp3024
g28
(lp3025
sg22
Nsbsg22
Nsba(irule
Rule
p3026
(dp3027
g15
(irule
Guard
p3028
(dp3029
g18
I00
sg19
(lp3030
sg21
I00
sg22
Nsg23
I00
sg24
S'L'
sbsg25
(irule
FeatureMatrix
p3031
(dp3032
g28
(lp3033
(I00
g2577
tp3034
a(I01
g2458
tp3035
asg22
Nsbsg31
(irule
Guard
p3036
(dp3037
g18
I00
sg19
(lp3038
(irule
FeatureMatrix
p3039
(dp3040
g28
(lp3041
(I00
g2682
tp3042
a(I01
g2458
tp3043
asg22
Nsbasg21
I00
sg22
Nsg23
I00
sg24
S'R'
sbsg35
(irule
FeatureMatrix
p3044
(dp3045
g28
(lp3046
sg22
Nsbsg22
Nsba(irule
Rule
p3047
(dp3048
g15
(irule
Guard
p3049
(dp3050
g18
I00
sg19
(lp3051
(irule
FeatureMatrix
p3052
(dp3053
g28
(lp3054
sg22
Nsbasg21
I00
sg22
Nsg23
I00
sg24
S'L'
sbsg25
(irule
FeatureMatrix
p3055
(dp3056
g28
(lp3057
(I01
g2458
tp3058
asg22
Nsbsg31
(irule
Guard
p3059
(dp3060
g18
I00
sg19
(lp3061
(irule
FeatureMatrix
p3062
(dp3063
g28
(lp3064
(I01
g2544
tp3065
a(I01
g2458
tp3066
asg22
Nsbasg21
I00
sg22
Nsg23
I00
sg24
S'R'
sbsg35
(irule
FeatureMatrix
p3067
(dp3068
g28
(lp3069
sg22
Nsbsg22
Nsba(irule
Rule
p3070
(dp3071
g15
(irule
Guard
p3072
(dp3073
g18
I00
sg19
(lp3074
sg21
I00
sg22
Nsg23
I00
sg24
S'L'
sbsg25
(irule
FeatureMatrix
p3075
(dp3076
g28
(lp3077
(I01
g2458
tp3078
asg22
Nsbsg31
(irule
Guard
p3079
(dp3080
g18
I00
sg19
(lp3081
(irule
FeatureMatrix
p3082
(dp3083
g28
(lp3084
(I00
g2682
tp3085
a(I01
g2458
tp3086
asg22
Nsba(irule
FeatureMatrix
p3087
(dp3088
g28
(lp3089
sg22
Nsbasg21
I00
sg22
Nsg23
I00
sg24
S'R'
sbsg35
(irule
FeatureMatrix
p3090
(dp3091
g28
(lp3092
sg22
Nsbsg22
Nsba(irule
Rule
p3093
(dp3094
g15
(irule
Guard
p3095
(dp3096
g18
I00
sg19
(lp3097
(irule
FeatureMatrix
p3098
(dp3099
g28
(lp3100
sg22
Nsbasg21
I00
sg22
Nsg23
I00
sg24
S'L'
sbsg25
(irule
FeatureMatrix
p3101
(dp3102
g28
(lp3103
(I00
g2500
tp3104
a(I01
g2458
tp3105
asg22
Nsbsg31
(irule
Guard
p3106
(dp3107
g18
I00
sg19
(lp3108
(irule
ConstantPhoneme
p3109
(dp3110
S'p'
Vb
sbasg21
I00
sg22
Nsg23
I00
sg24
S'R'
sbsg35
(irule
FeatureMatrix
p3111
(dp3112
g28
(lp3113
sg22
Nsbsg22
Nsba(irule
Rule
p3114
(dp3115
g15
(irule
Guard
p3116
(dp3117
g18
I00
sg19
(lp3118
(irule
FeatureMatrix
p3119
(dp3120
g28
(lp3121
sg22
Nsbasg21
I00
sg22
Nsg23
I00
sg24
S'L'
sbsg25
(irule
FeatureMatrix
p3122
(dp3123
g28
(lp3124
(I01
g2458
tp3125
asg22
Nsbsg31
(irule
Guard
p3126
(dp3127
g18
I00
sg19
(lp3128
(irule
ConstantPhoneme
p3129
(dp3130
S'p'
Vb
sbasg21
I00
sg22
Nsg23
I00
sg24
S'R'
sbsg35
(irule
FeatureMatrix
p3131
(dp3132
g28
(lp3133
(I00
g2816
tp3134
asg22
Nsbsg22
Nsba(irule
Rule
p3135
(dp3136
g15
(irule
Guard
p3137
(dp3138
g18
I00
sg19
(lp3139
(irule
FeatureMatrix
p3140
(dp3141
g28
(lp3142
sg22
Nsbasg21
I00
sg22
Nsg23
I00
sg24
S'L'
sbsg25
(irule
FeatureMatrix
p3143
(dp3144
g28
(lp3145
(I01
g2458
tp3146
asg22
Nsbsg31
(irule
Guard
p3147
(dp3148
g18
I00
sg19
(lp3149
(irule
ConstantPhoneme
p3150
(dp3151
S'p'
Vb
sba(irule
FeatureMatrix
p3152
(dp3153
g28
(lp3154
sg22
Nsbasg21
I00
sg22
Nsg23
I00
sg24
S'R'
sbsg35
(irule
FeatureMatrix
p3155
(dp3156
g28
(lp3157
sg22
Nsbsg22
Nsba(irule
Rule
p3158
(dp3159
g15
(irule
Guard
p3160
(dp3161
g18
I00
sg19
(lp3162
(irule
FeatureMatrix
p3163
(dp3164
g28
(lp3165
(I01
g2458
tp3166
asg22
Nsbasg21
I00
sg22
Nsg23
I00
sg24
S'L'
sbsg25
(irule
FeatureMatrix
p3167
(dp3168
g28
(lp3169
(I01
g2458
tp3170
asg22
Nsbsg31
(irule
Guard
p3171
(dp3172
g18
I00
sg19
(lp3173
(irule
ConstantPhoneme
p3174
(dp3175
S'p'
Vb
sbasg21
I00
sg22
Nsg23
I00
sg24
S'R'
sbsg35
(irule
FeatureMatrix
p3176
(dp3177
g28
(lp3178
sg22
Nsbsg22
Nsba(irule
Rule
p3179
(dp3180
g15
(irule
Guard
p3181
(dp3182
g18
I00
sg19
(lp3183
sg21
I00
sg22
Nsg23
I00
sg24
S'L'
sbsg25
(irule
FeatureMatrix
p3184
(dp3185
g28
(lp3186
(I00
g2500
tp3187
a(I01
g2458
tp3188
asg22
Nsbsg31
(irule
Guard
p3189
(dp3190
g18
I00
sg19
(lp3191
(irule
ConstantPhoneme
p3192
(dp3193
S'p'
Vb
sba(irule
FeatureMatrix
p3194
(dp3195
g28
(lp3196
sg22
Nsbasg21
I00
sg22
Nsg23
I00
sg24
S'R'
sbsg35
(irule
FeatureMatrix
p3197
(dp3198
g28
(lp3199
sg22
Nsbsg22
Nsba(irule
Rule
p3200
(dp3201
g15
(irule
Guard
p3202
(dp3203
g18
I00
sg19
(lp3204
sg21
I00
sg22
Nsg23
I00
sg24
S'L'
sbsg25
(irule
FeatureMatrix
p3205
(dp3206
g28
(lp3207
(I01
g2458
tp3208
asg22
Nsbsg31
(irule
Guard
p3209
(dp3210
g18
I00
sg19
(lp3211
(irule
FeatureMatrix
p3212
(dp3213
g28
(lp3214
(I00
g2682
tp3215
a(I00
g2596
tp3216
a(I01
g2458
tp3217
asg22
Nsbasg21
I00
sg22
Nsg23
I00
sg24
S'R'
sbsg35
(irule
FeatureMatrix
p3218
(dp3219
g28
(lp3220
sg22
Nsbsg22
Nsba(irule
Rule
p3221
(dp3222
g15
(irule
Guard
p3223
(dp3224
g18
I00
sg19
(lp3225
(irule
FeatureMatrix
p3226
(dp3227
g28
(lp3228
sg22
Nsbasg21
I00
sg22
Nsg23
I00
sg24
S'L'
sbsg25
(irule
FeatureMatrix
p3229
(dp3230
g28
(lp3231
(I00
g2742
tp3232
a(I01
g2458
tp3233
asg22
Nsbsg31
(irule
Guard
p3234
(dp3235
g18
I00
sg19
(lp3236
(irule
ConstantPhoneme
p3237
(dp3238
S'p'
Vb
sbasg21
I00
sg22
Nsg23
I00
sg24
S'R'
sbsg35
(irule
FeatureMatrix
p3239
(dp3240
g28
(lp3241
sg22
Nsbsg22
Nsba(irule
Rule
p3242
(dp3243
g15
(irule
Guard
p3244
(dp3245
g18
I00
sg19
(lp3246
(irule
FeatureMatrix
p3247
(dp3248
g28
(lp3249
(I00
S'sibilant'
p3250
tp3251
asg22
Nsbasg21
I00
sg22
Nsg23
I00
sg24
S'L'
sbsg25
(irule
FeatureMatrix
p3252
(dp3253
g28
(lp3254
(I01
g2458
tp3255
asg22
Nsbsg31
(irule
Guard
p3256
(dp3257
g18
I00
sg19
(lp3258
(irule
ConstantPhoneme
p3259
(dp3260
S'p'
Vb
sbasg21
I00
sg22
Nsg23
I00
sg24
S'R'
sbsg35
(irule
FeatureMatrix
p3261
(dp3262
g28
(lp3263
sg22
Nsbsg22
Nsba(irule
Rule
p3264
(dp3265
g15
(irule
Guard
p3266
(dp3267
g18
I00
sg19
(lp3268
(irule
FeatureMatrix
p3269
(dp3270
g28
(lp3271
sg22
Nsbasg21
I00
sg22
Nsg23
I00
sg24
S'L'
sbsg25
(irule
FeatureMatrix
p3272
(dp3273
g28
(lp3274
(I00
g2567
tp3275
a(I01
g2458
tp3276
asg22
Nsbsg31
(irule
Guard
p3277
(dp3278
g18
I00
sg19
(lp3279
(irule
ConstantPhoneme
p3280
(dp3281
S'p'
Vb
sbasg21
I00
sg22
Nsg23
I00
sg24
S'R'
sbsg35
(irule
FeatureMatrix
p3282
(dp3283
g28
(lp3284
sg22
Nsbsg22
Nsba(irule
Rule
p3285
(dp3286
g15
(irule
Guard
p3287
(dp3288
g18
I00
sg19
(lp3289
sg21
I00
sg22
Nsg23
I00
sg24
S'L'
sbsg25
(irule
FeatureMatrix
p3290
(dp3291
g28
(lp3292
(I01
g2458
tp3293
asg22
Nsbsg31
(irule
Guard
p3294
(dp3295
g18
I00
sg19
(lp3296
(irule
FeatureMatrix
p3297
(dp3298
g28
(lp3299
(I01
g2544
tp3300
a(I01
g2458
tp3301
asg22
Nsbasg21
I00
sg22
Nsg23
I00
sg24
S'R'
sbsg35
(irule
FeatureMatrix
p3302
(dp3303
g28
(lp3304
(I00
g2458
tp3305
asg22
Nsbsg22
Nsba(irule
Rule
p3306
(dp3307
g15
(irule
Guard
p3308
(dp3309
g18
I00
sg19
(lp3310
sg21
I00
sg22
Nsg23
I00
sg24
S'L'
sbsg25
(irule
FeatureMatrix
p3311
(dp3312
g28
(lp3313
(I00
g2826
tp3314
a(I00
g2500
tp3315
a(I01
g2458
tp3316
asg22
Nsbsg31
(irule
Guard
p3317
(dp3318
g18
I00
sg19
(lp3319
(irule
ConstantPhoneme
p3320
(dp3321
S'p'
Vb
sbasg21
I00
sg22
Nsg23
I00
sg24
S'R'
sbsg35
(irule
FeatureMatrix
p3322
(dp3323
g28
(lp3324
sg22
Nsbsg22
Nsba(irule
Rule
p3325
(dp3326
g15
(irule
Guard
p3327
(dp3328
g18
I00
sg19
(lp3329
sg21
I00
sg22
Nsg23
I00
sg24
S'L'
sbsg25
(irule
FeatureMatrix
p3330
(dp3331
g28
(lp3332
(I00
g2596
tp3333
a(I00
g2500
tp3334
a(I01
g2458
tp3335
asg22
Nsbsg31
(irule
Guard
p3336
(dp3337
g18
I00
sg19
(lp3338
(irule
ConstantPhoneme
p3339
(dp3340
S'p'
Vb
sbasg21
I00
sg22
Nsg23
I00
sg24
S'R'
sbsg35
(irule
FeatureMatrix
p3341
(dp3342
g28
(lp3343
sg22
Nsbsg22
Nsba(irule
Rule
p3344
(dp3345
g15
(irule
Guard
p3346
(dp3347
g18
I00
sg19
(lp3348
sg21
I00
sg22
Nsg23
I00
sg24
S'L'
sbsg25
(irule
FeatureMatrix
p3349
(dp3350
g28
(lp3351
(I00
g2567
tp3352
a(I01
g2458
tp3353
asg22
Nsbsg31
(irule
Guard
p3354
(dp3355
g18
I00
sg19
(lp3356
(irule
ConstantPhoneme
p3357
(dp3358
S'p'
Vb
sbasg21
I00
sg22
Nsg23
I00
sg24
S'R'
sbsg35
(irule
FeatureMatrix
p3359
(dp3360
g28
(lp3361
(I00
g2816
tp3362
asg22
Nsbsg22
Nsba(irule
Rule
p3363
(dp3364
g15
(irule
Guard
p3365
(dp3366
g18
I00
sg19
(lp3367
(irule
FeatureMatrix
p3368
(dp3369
g28
(lp3370
sg22
Nsbasg21
I00
sg22
Nsg23
I00
sg24
S'L'
sbsg25
(irule
FeatureMatrix
p3371
(dp3372
g28
(lp3373
(I01
g2458
tp3374
asg22
Nsbsg31
(irule
Guard
p3375
(dp3376
g18
I00
sg19
(lp3377
(irule
FeatureMatrix
p3378
(dp3379
g28
(lp3380
(I01
g2544
tp3381
a(I00
g2662
tp3382
asg22
Nsbasg21
I00
sg22
Nsg23
I00
sg24
S'R'
sbsg35
(irule
FeatureMatrix
p3383
(dp3384
g28
(lp3385
sg22
Nsbsg22
Nsba(irule
Rule
p3386
(dp3387
g15
(irule
Guard
p3388
(dp3389
g18
I00
sg19
(lp3390
(irule
FeatureMatrix
p3391
(dp3392
g28
(lp3393
sg22
Nsbasg21
I00
sg22
Nsg23
I00
sg24
S'L'
sbsg25
(irule
FeatureMatrix
p3394
(dp3395
g28
(lp3396
(I01
g2458
tp3397
asg22
Nsbsg31
(irule
Guard
p3398
(dp3399
g18
I00
sg19
(lp3400
(irule
ConstantPhoneme
p3401
(dp3402
S'p'
Vb
sbasg21
I00
sg22
Nsg23
I00
sg24
S'R'
sbsg35
(irule
FeatureMatrix
p3403
(dp3404
g28
(lp3405
(I00
g2458
tp3406
asg22
Nsbsg22
Nsba(irule
Rule
p3407
(dp3408
g15
(irule
Guard
p3409
(dp3410
g18
I00
sg19
(lp3411
sg21
I00
sg22
Nsg23
I00
sg24
S'L'
sbsg25
(irule
FeatureMatrix
p3412
(dp3413
g28
(lp3414
(I00
g2742
tp3415
a(I01
g2458
tp3416
asg22
Nsbsg31
(irule
Guard
p3417
(dp3418
g18
I00
sg19
(lp3419
(irule
ConstantPhoneme
p3420
(dp3421
S'p'
Vb
sbasg21
I00
sg22
Nsg23
I00
sg24
S'R'
sbsg35
(irule
FeatureMatrix
p3422
(dp3423
g28
(lp3424
(I00
g2458
tp3425
asg22
Nsbsg22
Nsba(irule
Rule
p3426
(dp3427
g15
(irule
Guard
p3428
(dp3429
g18
I00
sg19
(lp3430
(irule
FeatureMatrix
p3431
(dp3432
g28
(lp3433
sg22
Nsbasg21
I00
sg22
Nsg23
I00
sg24
S'L'
sbsg25
(irule
FeatureMatrix
p3434
(dp3435
g28
(lp3436
(I01
g2662
tp3437
a(I01
g2458
tp3438
asg22
Nsbsg31
(irule
Guard
p3439
(dp3440
g18
I00
sg19
(lp3441
(irule
ConstantPhoneme
p3442
(dp3443
S'p'
Vb
sbasg21
I00
sg22
Nsg23
I00
sg24
S'R'
sbsg35
(irule
FeatureMatrix
p3444
(dp3445
g28
(lp3446
sg22
Nsbsg22
Nsba(irule
Rule
p3447
(dp3448
g15
(irule
Guard
p3449
(dp3450
g18
I00
sg19
(lp3451
(irule
FeatureMatrix
p3452
(dp3453
g28
(lp3454
sg22
Nsbasg21
I00
sg22
Nsg23
I00
sg24
S'L'
sbsg25
(irule
FeatureMatrix
p3455
(dp3456
g28
(lp3457
(I00
g2577
tp3458
a(I01
g2458
tp3459
asg22
Nsbsg31
(irule
Guard
p3460
(dp3461
g18
I00
sg19
(lp3462
(irule
ConstantPhoneme
p3463
(dp3464
S'p'
Vb
sbasg21
I00
sg22
Nsg23
I00
sg24
S'R'
sbsg35
(irule
FeatureMatrix
p3465
(dp3466
g28
(lp3467
sg22
Nsbsg22
Nsba(irule
Rule
p3468
(dp3469
g15
(irule
Guard
p3470
(dp3471
g18
I00
sg19
(lp3472
(irule
FeatureMatrix
p3473
(dp3474
g28
(lp3475
(I00
g2577
tp3476
asg22
Nsbasg21
I00
sg22
Nsg23
I00
sg24
S'L'
sbsg25
(irule
FeatureMatrix
p3477
(dp3478
g28
(lp3479
(I01
g2458
tp3480
asg22
Nsbsg31
(irule
Guard
p3481
(dp3482
g18
I00
sg19
(lp3483
(irule
ConstantPhoneme
p3484
(dp3485
S'p'
Vb
sbasg21
I00
sg22
Nsg23
I00
sg24
S'R'
sbsg35
(irule
FeatureMatrix
p3486
(dp3487
g28
(lp3488
sg22
Nsbsg22
Nsba(irule
Rule
p3489
(dp3490
g15
(irule
Guard
p3491
(dp3492
g18
I00
sg19
(lp3493
sg21
I00
sg22
Nsg23
I00
sg24
S'L'
sbsg25
(irule
FeatureMatrix
p3494
(dp3495
g28
(lp3496
(I01
g2458
tp3497
asg22
Nsbsg31
(irule
Guard
p3498
(dp3499
g18
I00
sg19
(lp3500
(irule
FeatureMatrix
p3501
(dp3502
g28
(lp3503
(I00
g2682
tp3504
a(I01
g2458
tp3505
asg22
Nsbasg21
I00
sg22
Nsg23
I00
sg24
S'R'
sbsg35
(irule
FeatureMatrix
p3506
(dp3507
g28
(lp3508
(I00
g2458
tp3509
asg22
Nsbsg22
Nsba(irule
Rule
p3510
(dp3511
g15
(irule
Guard
p3512
(dp3513
g18
I00
sg19
(lp3514
(irule
FeatureMatrix
p3515
(dp3516
g28
(lp3517
sg22
Nsbasg21
I00
sg22
Nsg23
I00
sg24
S'L'
sbsg25
(irule
FeatureMatrix
p3518
(dp3519
g28
(lp3520
(I00
g2761
tp3521
a(I01
g2458
tp3522
asg22
Nsbsg31
(irule
Guard
p3523
(dp3524
g18
I00
sg19
(lp3525
(irule
ConstantPhoneme
p3526
(dp3527
S'p'
Vb
sbasg21
I00
sg22
Nsg23
I00
sg24
S'R'
sbsg35
(irule
FeatureMatrix
p3528
(dp3529
g28
(lp3530
sg22
Nsbsg22
Nsba(irule
Rule
p3531
(dp3532
g15
(irule
Guard
p3533
(dp3534
g18
I00
sg19
(lp3535
(irule
FeatureMatrix
p3536
(dp3537
g28
(lp3538
(I01
g2486
tp3539
asg22
Nsbasg21
I00
sg22
Nsg23
I00
sg24
S'L'
sbsg25
(irule
FeatureMatrix
p3540
(dp3541
g28
(lp3542
(I01
g2458
tp3543
asg22
Nsbsg31
(irule
Guard
p3544
(dp3545
g18
I00
sg19
(lp3546
(irule
ConstantPhoneme
p3547
(dp3548
S'p'
Vb
sbasg21
I00
sg22
Nsg23
I00
sg24
S'R'
sbsg35
(irule
FeatureMatrix
p3549
(dp3550
g28
(lp3551
sg22
Nsbsg22
Nsba(irule
Rule
p3552
(dp3553
g15
(irule
Guard
p3554
(dp3555
g18
I00
sg19
(lp3556
sg21
I00
sg22
Nsg23
I00
sg24
S'L'
sbsg25
(irule
FeatureMatrix
p3557
(dp3558
g28
(lp3559
(I00
g2577
tp3560
a(I01
g2458
tp3561
asg22
Nsbsg31
(irule
Guard
p3562
(dp3563
g18
I00
sg19
(lp3564
(irule
ConstantPhoneme
p3565
(dp3566
S'p'
Vb
sbasg21
I00
sg22
Nsg23
I00
sg24
S'R'
sbsg35
(irule
FeatureMatrix
p3567
(dp3568
g28
(lp3569
(I00
g2816
tp3570
asg22
Nsbsg22
Nsba(irule
Rule
p3571
(dp3572
g15
(irule
Guard
p3573
(dp3574
g18
I00
sg19
(lp3575
sg21
I00
sg22
Nsg23
I00
sg24
S'L'
sbsg25
(irule
FeatureMatrix
p3576
(dp3577
g28
(lp3578
(I01
g2458
tp3579
asg22
Nsbsg31
(irule
Guard
p3580
(dp3581
g18
I00
sg19
(lp3582
(irule
ConstantPhoneme
p3583
(dp3584
S'p'
Vb
sba(irule
FeatureMatrix
p3585
(dp3586
g28
(lp3587
sg22
Nsbasg21
I00
sg22
Nsg23
I00
sg24
S'R'
sbsg35
(irule
FeatureMatrix
p3588
(dp3589
g28
(lp3590
(I00
g2500
tp3591
asg22
Nsbsg22
Nsba(irule
Rule
p3592
(dp3593
g15
(irule
Guard
p3594
(dp3595
g18
I00
sg19
(lp3596
sg21
I00
sg22
Nsg23
I00
sg24
S'L'
sbsg25
(irule
FeatureMatrix
p3597
(dp3598
g28
(lp3599
(I01
g2458
tp3600
asg22
Nsbsg31
(irule
Guard
p3601
(dp3602
g18
I00
sg19
(lp3603
(irule
FeatureMatrix
p3604
(dp3605
g28
(lp3606
(I00
g2761
tp3607
asg22
Nsba(irule
ConstantPhoneme
p3608
(dp3609
S'p'
Va
sbasg21
I00
sg22
Nsg23
I00
sg24
S'R'
sbsg35
(irule
FeatureMatrix
p3610
(dp3611
g28
(lp3612
sg22
Nsbsg22
Nsba(irule
Rule
p3613
(dp3614
g15
(irule
Guard
p3615
(dp3616
g18
I00
sg19
(lp3617
sg21
I00
sg22
Nsg23
I00
sg24
S'L'
sbsg25
(irule
FeatureMatrix
p3618
(dp3619
g28
(lp3620
(I00
g2826
tp3621
a(I01
g2458
tp3622
asg22
Nsbsg31
(irule
Guard
p3623
(dp3624
g18
I00
sg19
(lp3625
(irule
FeatureMatrix
p3626
(dp3627
g28
(lp3628
(I01
g2544
tp3629
a(I01
g2458
tp3630
asg22
Nsbasg21
I00
sg22
Nsg23
I00
sg24
S'R'
sbsg35
(irule
FeatureMatrix
p3631
(dp3632
g28
(lp3633
sg22
Nsbsg22
Nsba(irule
Rule
p3634
(dp3635
g15
(irule
Guard
p3636
(dp3637
g18
I00
sg19
(lp3638
sg21
I00
sg22
Nsg23
I00
sg24
S'L'
sbsg25
(irule
FeatureMatrix
p3639
(dp3640
g28
(lp3641
(I00
g2596
tp3642
a(I00
g2577
tp3643
a(I01
g2458
tp3644
asg22
Nsbsg31
(irule
Guard
p3645
(dp3646
g18
I00
sg19
(lp3647
(irule
ConstantPhoneme
p3648
(dp3649
S'p'
Vb
sbasg21
I00
sg22
Nsg23
I00
sg24
S'R'
sbsg35
(irule
FeatureMatrix
p3650
(dp3651
g28
(lp3652
sg22
Nsbsg22
Nsba(irule
Rule
p3653
(dp3654
g15
(irule
Guard
p3655
(dp3656
g18
I00
sg19
(lp3657
(irule
FeatureMatrix
p3658
(dp3659
g28
(lp3660
(I00
g2662
tp3661
asg22
Nsbasg21
I00
sg22
Nsg23
I00
sg24
S'L'
sbsg25
(irule
FeatureMatrix
p3662
(dp3663
g28
(lp3664
(I01
g2458
tp3665
asg22
Nsbsg31
(irule
Guard
p3666
(dp3667
g18
I00
sg19
(lp3668
(irule
ConstantPhoneme
p3669
(dp3670
S'p'
Vb
sbasg21
I00
sg22
Nsg23
I00
sg24
S'R'
sbsg35
(irule
FeatureMatrix
p3671
(dp3672
g28
(lp3673
sg22
Nsbsg22
Nsba(irule
Rule
p3674
(dp3675
g15
(irule
Guard
p3676
(dp3677
g18
I00
sg19
(lp3678
sg21
I00
sg22
Nsg23
I00
sg24
S'L'
sbsg25
(irule
FeatureMatrix
p3679
(dp3680
g28
(lp3681
(I00
g2577
tp3682
a(I01
g2458
tp3683
asg22
Nsbsg31
(irule
Guard
p3684
(dp3685
g18
I00
sg19
(lp3686
(irule
FeatureMatrix
p3687
(dp3688
g28
(lp3689
(I01
g2544
tp3690
a(I01
g2458
tp3691
asg22
Nsbasg21
I00
sg22
Nsg23
I00
sg24
S'R'
sbsg35
(irule
FeatureMatrix
p3692
(dp3693
g28
(lp3694
sg22
Nsbsg22
Nsba(irule
Rule
p3695
(dp3696
g15
(irule
Guard
p3697
(dp3698
g18
I00
sg19
(lp3699
sg21
I00
sg22
Nsg23
I00
sg24
S'L'
sbsg25
(irule
FeatureMatrix
p3700
(dp3701
g28
(lp3702
(I00
g2500
tp3703
a(I01
g2458
tp3704
asg22
Nsbsg31
(irule
Guard
p3705
(dp3706
g18
I00
sg19
(lp3707
(irule
ConstantPhoneme
p3708
(dp3709
S'p'
Vb
sbasg21
I00
sg22
Nsg23
I00
sg24
S'R'
sbsg35
(irule
FeatureMatrix
p3710
(dp3711
g28
(lp3712
(I00
g2816
tp3713
asg22
Nsbsg22
Nsba(irule
Rule
p3714
(dp3715
g15
(irule
Guard
p3716
(dp3717
g18
I00
sg19
(lp3718
(irule
FeatureMatrix
p3719
(dp3720
g28
(lp3721
sg22
Nsbasg21
I00
sg22
Nsg23
I00
sg24
S'L'
sbsg25
(irule
FeatureMatrix
p3722
(dp3723
g28
(lp3724
(I00
g2486
tp3725
a(I01
g2458
tp3726
asg22
Nsbsg31
(irule
Guard
p3727
(dp3728
g18
I00
sg19
(lp3729
(irule
ConstantPhoneme
p3730
(dp3731
S'p'
Vb
sbasg21
I00
sg22
Nsg23
I00
sg24
S'R'
sbsg35
(irule
FeatureMatrix
p3732
(dp3733
g28
(lp3734
sg22
Nsbsg22
Nsba(irule
Rule
p3735
(dp3736
g15
(irule
Guard
p3737
(dp3738
g18
I00
sg19
(lp3739
(irule
FeatureMatrix
p3740
(dp3741
g28
(lp3742
sg22
Nsbasg21
I00
sg22
Nsg23
I00
sg24
S'L'
sbsg25
(irule
FeatureMatrix
p3743
(dp3744
g28
(lp3745
(I01
g2458
tp3746
asg22
Nsbsg31
(irule
Guard
p3747
(dp3748
g18
I00
sg19
(lp3749
(irule
ConstantPhoneme
p3750
(dp3751
S'p'
Vb
sbasg21
I00
sg22
Nsg23
I00
sg24
S'R'
sbsg35
(irule
FeatureMatrix
p3752
(dp3753
g28
(lp3754
(I00
g2742
tp3755
asg22
Nsbsg22
Nsba(irule
Rule
p3756
(dp3757
g15
(irule
Guard
p3758
(dp3759
g18
I00
sg19
(lp3760
(irule
FeatureMatrix
p3761
(dp3762
g28
(lp3763
sg22
Nsbasg21
I00
sg22
Nsg23
I00
sg24
S'L'
sbsg25
(irule
FeatureMatrix
p3764
(dp3765
g28
(lp3766
(I01
g2458
tp3767
asg22
Nsbsg31
(irule
Guard
p3768
(dp3769
g18
I00
sg19
(lp3770
(irule
FeatureMatrix
p3771
(dp3772
g28
(lp3773
(I00
g2682
tp3774
a(I01
g2458
tp3775
asg22
Nsbasg21
I00
sg22
Nsg23
I00
sg24
S'R'
sbsg35
(irule
FeatureMatrix
p3776
(dp3777
g28
(lp3778
sg22
Nsbsg22
Nsba(irule
Rule
p3779
(dp3780
g15
(irule
Guard
p3781
(dp3782
g18
I00
sg19
(lp3783
(irule
FeatureMatrix
p3784
(dp3785
g28
(lp3786
(I01
g2567
tp3787
asg22
Nsbasg21
I00
sg22
Nsg23
I00
sg24
S'L'
sbsg25
(irule
FeatureMatrix
p3788
(dp3789
g28
(lp3790
(I01
g2458
tp3791
asg22
Nsbsg31
(irule
Guard
p3792
(dp3793
g18
I00
sg19
(lp3794
(irule
ConstantPhoneme
p3795
(dp3796
S'p'
Vb
sbasg21
I00
sg22
Nsg23
I00
sg24
S'R'
sbsg35
(irule
FeatureMatrix
p3797
(dp3798
g28
(lp3799
sg22
Nsbsg22
Nsba(irule
Rule
p3800
(dp3801
g15
(irule
Guard
p3802
(dp3803
g18
I00
sg19
(lp3804
sg21
I00
sg22
Nsg23
I00
sg24
S'L'
sbsg25
(irule
FeatureMatrix
p3805
(dp3806
g28
(lp3807
(I01
g2458
tp3808
asg22
Nsbsg31
(irule
Guard
p3809
(dp3810
g18
I00
sg19
(lp3811
(irule
FeatureMatrix
p3812
(dp3813
g28
(lp3814
(I01
g2544
tp3815
a(I01
g2458
tp3816
asg22
Nsbasg21
I00
sg22
Nsg23
I00
sg24
S'R'
sbsg35
(irule
FeatureMatrix
p3817
(dp3818
g28
(lp3819
(I00
g2816
tp3820
asg22
Nsbsg22
Nsba(irule
Rule
p3821
(dp3822
g15
(irule
Guard
p3823
(dp3824
g18
I00
sg19
(lp3825
sg21
I00
sg22
Nsg23
I00
sg24
S'L'
sbsg25
(irule
FeatureMatrix
p3826
(dp3827
g28
(lp3828
(I01
g2458
tp3829
asg22
Nsbsg31
(irule
Guard
p3830
(dp3831
g18
I00
sg19
(lp3832
(irule
FeatureMatrix
p3833
(dp3834
g28
(lp3835
(I01
g2544
tp3836
a(I00
g2662
tp3837
asg22
Nsba(irule
FeatureMatrix
p3838
(dp3839
g28
(lp3840
sg22
Nsbasg21
I00
sg22
Nsg23
I00
sg24
S'R'
sbsg35
(irule
FeatureMatrix
p3841
(dp3842
g28
(lp3843
sg22
Nsbsg22
Nsba(irule
Rule
p3844
(dp3845
g15
(irule
Guard
p3846
(dp3847
g18
I00
sg19
(lp3848
sg21
I00
sg22
Nsg23
I00
sg24
S'L'
sbsg25
(irule
FeatureMatrix
p3849
(dp3850
g28
(lp3851
(I01
g2458
tp3852
asg22
Nsbsg31
(irule
Guard
p3853
(dp3854
g18
I00
sg19
(lp3855
(irule
FeatureMatrix
p3856
(dp3857
g28
(lp3858
(I01
g2544
tp3859
a(I00
g2662
tp3860
asg22
Nsbasg21
I00
sg22
Nsg23
I00
sg24
S'R'
sbsg35
(irule
FeatureMatrix
p3861
(dp3862
g28
(lp3863
(I00
g2500
tp3864
asg22
Nsbsg22
Nsba(irule
Rule
p3865
(dp3866
g15
(irule
Guard
p3867
(dp3868
g18
I00
sg19
(lp3869
sg21
I00
sg22
Nsg23
I00
sg24
S'L'
sbsg25
(irule
FeatureMatrix
p3870
(dp3871
g28
(lp3872
(I00
g2615
tp3873
a(I00
g2826
tp3874
a(I01
g2458
tp3875
asg22
Nsbsg31
(irule
Guard
p3876
(dp3877
g18
I00
sg19
(lp3878
(irule
ConstantPhoneme
p3879
(dp3880
S'p'
Vb
sbasg21
I00
sg22
Nsg23
I00
sg24
S'R'
sbsg35
(irule
FeatureMatrix
p3881
(dp3882
g28
(lp3883
sg22
Nsbsg22
Nsba(irule
Rule
p3884
(dp3885
g15
(irule
Guard
p3886
(dp3887
g18
I00
sg19
(lp3888
sg21
I00
sg22
Nsg23
I00
sg24
S'L'
sbsg25
(irule
FeatureMatrix
p3889
(dp3890
g28
(lp3891
(I00
g2826
tp3892
a(I00
g2596
tp3893
a(I01
g2458
tp3894
asg22
Nsbsg31
(irule
Guard
p3895
(dp3896
g18
I00
sg19
(lp3897
(irule
ConstantPhoneme
p3898
(dp3899
S'p'
Vb
sbasg21
I00
sg22
Nsg23
I00
sg24
S'R'
sbsg35
(irule
FeatureMatrix
p3900
(dp3901
g28
(lp3902
sg22
Nsbsg22
Nsba(irule
Rule
p3903
(dp3904
g15
(irule
Guard
p3905
(dp3906
g18
I00
sg19
(lp3907
sg21
I00
sg22
Nsg23
I00
sg24
S'L'
sbsg25
(irule
FeatureMatrix
p3908
(dp3909
g28
(lp3910
(I00
g2615
tp3911
a(I01
g2458
tp3912
asg22
Nsbsg31
(irule
Guard
p3913
(dp3914
g18
I00
sg19
(lp3915
(irule
FeatureMatrix
p3916
(dp3917
g28
(lp3918
(I01
g2544
tp3919
a(I01
g2458
tp3920
asg22
Nsbasg21
I00
sg22
Nsg23
I00
sg24
S'R'
sbsg35
(irule
FeatureMatrix
p3921
(dp3922
g28
(lp3923
sg22
Nsbsg22
Nsba(irule
Rule
p3924
(dp3925
g15
(irule
Guard
p3926
(dp3927
g18
I00
sg19
(lp3928
sg21
I00
sg22
Nsg23
I00
sg24
S'L'
sbsg25
(irule
FeatureMatrix
p3929
(dp3930
g28
(lp3931
(I01
g2458
tp3932
asg22
Nsbsg31
(irule
Guard
p3933
(dp3934
g18
I00
sg19
(lp3935
(irule
FeatureMatrix
p3936
(dp3937
g28
(lp3938
(I01
g2544
tp3939
a(I00
g2662
tp3940
a(I00
g3250
tp3941
asg22
Nsbasg21
I00
sg22
Nsg23
I00
sg24
S'R'
sbsg35
(irule
FeatureMatrix
p3942
(dp3943
g28
(lp3944
sg22
Nsbsg22
Nsba(irule
Rule
p3945
(dp3946
g15
(irule
Guard
p3947
(dp3948
g18
I00
sg19
(lp3949
sg21
I00
sg22
Nsg23
I00
sg24
S'L'
sbsg25
(irule
FeatureMatrix
p3950
(dp3951
g28
(lp3952
(I01
g2458
tp3953
asg22
Nsbsg31
(irule
Guard
p3954
(dp3955
g18
I00
sg19
(lp3956
(irule
ConstantPhoneme
p3957
(dp3958
S'p'
Vb
sba(irule
FeatureMatrix
p3959
(dp3960
g28
(lp3961
(I01
g2458
tp3962
asg22
Nsbasg21
I00
sg22
Nsg23
I00
sg24
S'R'
sbsg35
(irule
FeatureMatrix
p3963
(dp3964
g28
(lp3965
sg22
Nsbsg22
Nsba(irule
Rule
p3966
(dp3967
g15
(irule
Guard
p3968
(dp3969
g18
I00
sg19
(lp3970
(irule
FeatureMatrix
p3971
(dp3972
g28
(lp3973
(I00
g2596
tp3974
asg22
Nsbasg21
I00
sg22
Nsg23
I00
sg24
S'L'
sbsg25
(irule
FeatureMatrix
p3975
(dp3976
g28
(lp3977
(I01
g2458
tp3978
asg22
Nsbsg31
(irule
Guard
p3979
(dp3980
g18
I00
sg19
(lp3981
(irule
ConstantPhoneme
p3982
(dp3983
S'p'
Vb
sbasg21
I00
sg22
Nsg23
I00
sg24
S'R'
sbsg35
(irule
FeatureMatrix
p3984
(dp3985
g28
(lp3986
sg22
Nsbsg22
Nsba(irule
Rule
p3987
(dp3988
g15
(irule
Guard
p3989
(dp3990
g18
I00
sg19
(lp3991
sg21
I00
sg22
Nsg23
I00
sg24
S'L'
sbsg25
(irule
FeatureMatrix
p3992
(dp3993
g28
(lp3994
(I01
g2458
tp3995
asg22
Nsbsg31
(irule
Guard
p3996
(dp3997
g18
I00
sg19
(lp3998
(irule
FeatureMatrix
p3999
(dp4000
g28
(lp4001
(I01
g2544
tp4002
a(I01
g2458
tp4003
asg22
Nsbasg21
I00
sg22
Nsg23
I00
sg24
S'R'
sbsg35
(irule
FeatureMatrix
p4004
(dp4005
g28
(lp4006
(I00
g2500
tp4007
asg22
Nsbsg22
Nsba(irule
Rule
p4008
(dp4009
g15
(irule
Guard
p4010
(dp4011
g18
I00
sg19
(lp4012
sg21
I00
sg22
Nsg23
I00
sg24
S'L'
sbsg25
(irule
FeatureMatrix
p4013
(dp4014
g28
(lp4015
(I01
g2458
tp4016
asg22
Nsbsg31
(irule
Guard
p4017
(dp4018
g18
I00
sg19
(lp4019
(irule
ConstantPhoneme
p4020
(dp4021
S'p'
Vb
sba(irule
FeatureMatrix
p4022
(dp4023
g28
(lp4024
sg22
Nsbasg21
I00
sg22
Nsg23
I00
sg24
S'R'
sbsg35
(irule
FeatureMatrix
p4025
(dp4026
g28
(lp4027
(I00
g2596
tp4028
asg22
Nsbsg22
Nsba(irule
Rule
p4029
(dp4030
g15
(irule
Guard
p4031
(dp4032
g18
I00
sg19
(lp4033
sg21
I00
sg22
Nsg23
I00
sg24
S'L'
sbsg25
(irule
FeatureMatrix
p4034
(dp4035
g28
(lp4036
(I00
g2577
tp4037
a(I01
g2458
tp4038
asg22
Nsbsg31
(irule
Guard
p4039
(dp4040
g18
I00
sg19
(lp4041
(irule
FeatureMatrix
p4042
(dp4043
g28
(lp4044
(I00
g2486
tp4045
a(I01
g2458
tp4046
asg22
Nsbasg21
I00
sg22
Nsg23
I00
sg24
S'R'
sbsg35
(irule
FeatureMatrix
p4047
(dp4048
g28
(lp4049
sg22
Nsbsg22
Nsba(irule
Rule
p4050
(dp4051
g15
(irule
Guard
p4052
(dp4053
g18
I00
sg19
(lp4054
sg21
I00
sg22
Nsg23
I00
sg24
S'L'
sbsg25
(irule
FeatureMatrix
p4055
(dp4056
g28
(lp4057
(I01
g2458
tp4058
asg22
Nsbsg31
(irule
Guard
p4059
(dp4060
g18
I00
sg19
(lp4061
(irule
FeatureMatrix
p4062
(dp4063
g28
(lp4064
(I01
g2544
tp4065
a(I01
g2458
tp4066
asg22
Nsba(irule
FeatureMatrix
p4067
(dp4068
g28
(lp4069
sg22
Nsbasg21
I00
sg22
Nsg23
I00
sg24
S'R'
sbsg35
(irule
FeatureMatrix
p4070
(dp4071
g28
(lp4072
sg22
Nsbsg22
Nsba(irule
Rule
p4073
(dp4074
g15
(irule
Guard
p4075
(dp4076
g18
I00
sg19
(lp4077
(irule
FeatureMatrix
p4078
(dp4079
g28
(lp4080
(I00
g2826
tp4081
asg22
Nsbasg21
I00
sg22
Nsg23
I00
sg24
S'L'
sbsg25
(irule
FeatureMatrix
p4082
(dp4083
g28
(lp4084
(I01
g2458
tp4085
asg22
Nsbsg31
(irule
Guard
p4086
(dp4087
g18
I00
sg19
(lp4088
(irule
ConstantPhoneme
p4089
(dp4090
S'p'
Vb
sbasg21
I00
sg22
Nsg23
I00
sg24
S'R'
sbsg35
(irule
FeatureMatrix
p4091
(dp4092
g28
(lp4093
sg22
Nsbsg22
Nsba(irule
Rule
p4094
(dp4095
g15
(irule
Guard
p4096
(dp4097
g18
I00
sg19
(lp4098
(irule
FeatureMatrix
p4099
(dp4100
g28
(lp4101
sg22
Nsbasg21
I00
sg22
Nsg23
I00
sg24
S'L'
sbsg25
(irule
FeatureMatrix
p4102
(dp4103
g28
(lp4104
(I01
g2458
tp4105
asg22
Nsbsg31
(irule
Guard
p4106
(dp4107
g18
I00
sg19
(lp4108
(irule
ConstantPhoneme
p4109
(dp4110
S'p'
Vb
sbasg21
I00
sg22
Nsg23
I00
sg24
S'R'
sbsg35
(irule
FeatureMatrix
p4111
(dp4112
g28
(lp4113
(I00
g2500
tp4114
asg22
Nsbsg22
Nsba(irule
Rule
p4115
(dp4116
g15
(irule
Guard
p4117
(dp4118
g18
I00
sg19
(lp4119
sg21
I00
sg22
Nsg23
I00
sg24
S'L'
sbsg25
(irule
FeatureMatrix
p4120
(dp4121
g28
(lp4122
(I01
g2458
tp4123
asg22
Nsbsg31
(irule
Guard
p4124
(dp4125
g18
I00
sg19
(lp4126
(irule
ConstantPhoneme
p4127
(dp4128
S'p'
Vb
sbasg21
I00
sg22
Nsg23
I00
sg24
S'R'
sbsg35
(irule
FeatureMatrix
p4129
(dp4130
g28
(lp4131
(I00
g2826
tp4132
a(I00
g2500
tp4133
asg22
Nsbsg22
Nsba(irule
Rule
p4134
(dp4135
g15
(irule
Guard
p4136
(dp4137
g18
I00
sg19
(lp4138
(irule
FeatureMatrix
p4139
(dp4140
g28
(lp4141
sg22
Nsbasg21
I00
sg22
Nsg23
I00
sg24
S'L'
sbsg25
(irule
FeatureMatrix
p4142
(dp4143
g28
(lp4144
(I01
g2458
tp4145
asg22
Nsbsg31
(irule
Guard
p4146
(dp4147
g18
I00
sg19
(lp4148
(irule
FeatureMatrix
p4149
(dp4150
g28
(lp4151
(I00
g2486
tp4152
a(I01
g2458
tp4153
asg22
Nsbasg21
I00
sg22
Nsg23
I00
sg24
S'R'
sbsg35
(irule
FeatureMatrix
p4154
(dp4155
g28
(lp4156
sg22
Nsbsg22
Nsba(irule
Rule
p4157
(dp4158
g15
(irule
Guard
p4159
(dp4160
g18
I00
sg19
(lp4161
sg21
I00
sg22
Nsg23
I00
sg24
S'L'
sbsg25
(irule
FeatureMatrix
p4162
(dp4163
g28
(lp4164
(I00
g2615
tp4165
a(I00
g2577
tp4166
a(I01
g2458
tp4167
asg22
Nsbsg31
(irule
Guard
p4168
(dp4169
g18
I00
sg19
(lp4170
(irule
ConstantPhoneme
p4171
(dp4172
S'p'
Vb
sbasg21
I00
sg22
Nsg23
I00
sg24
S'R'
sbsg35
(irule
FeatureMatrix
p4173
(dp4174
g28
(lp4175
sg22
Nsbsg22
Nsba(irule
Rule
p4176
(dp4177
g15
(irule
Guard
p4178
(dp4179
g18
I00
sg19
(lp4180
sg21
I00
sg22
Nsg23
I00
sg24
S'L'
sbsg25
(irule
FeatureMatrix
p4181
(dp4182
g28
(lp4183
(I01
g2458
tp4184
asg22
Nsbsg31
(irule
Guard
p4185
(dp4186
g18
I00
sg19
(lp4187
(irule
ConstantPhoneme
p4188
(dp4189
S'p'
Vb
sbasg21
I00
sg22
Nsg23
I00
sg24
S'R'
sbsg35
(irule
FeatureMatrix
p4190
(dp4191
g28
(lp4192
(I00
g2500
tp4193
a(I00
g2742
tp4194
asg22
Nsbsg22
Nsba(irule
Rule
p4195
(dp4196
g15
(irule
Guard
p4197
(dp4198
g18
I00
sg19
(lp4199
sg21
I00
sg22
Nsg23
I00
sg24
S'L'
sbsg25
(irule
FeatureMatrix
p4200
(dp4201
g28
(lp4202
(I00
g2615
tp4203
a(I00
g2596
tp4204
a(I01
g2458
tp4205
asg22
Nsbsg31
(irule
Guard
p4206
(dp4207
g18
I00
sg19
(lp4208
(irule
ConstantPhoneme
p4209
(dp4210
S'p'
Vb
sbasg21
I00
sg22
Nsg23
I00
sg24
S'R'
sbsg35
(irule
FeatureMatrix
p4211
(dp4212
g28
(lp4213
sg22
Nsbsg22
Nsba(irule
Rule
p4214
(dp4215
g15
(irule
Guard
p4216
(dp4217
g18
I00
sg19
(lp4218
(irule
FeatureMatrix
p4219
(dp4220
g28
(lp4221
sg22
Nsbasg21
I00
sg22
Nsg23
I00
sg24
S'L'
sbsg25
(irule
FeatureMatrix
p4222
(dp4223
g28
(lp4224
(I00
g2723
tp4225
a(I01
g2458
tp4226
asg22
Nsbsg31
(irule
Guard
p4227
(dp4228
g18
I00
sg19
(lp4229
(irule
ConstantPhoneme
p4230
(dp4231
S'p'
Vb
sbasg21
I00
sg22
Nsg23
I00
sg24
S'R'
sbsg35
(irule
FeatureMatrix
p4232
(dp4233
g28
(lp4234
sg22
Nsbsg22
Nsba(irule
Rule
p4235
(dp4236
g15
(irule
Guard
p4237
(dp4238
g18
I00
sg19
(lp4239
sg21
I00
sg22
Nsg23
I00
sg24
S'L'
sbsg25
(irule
FeatureMatrix
p4240
(dp4241
g28
(lp4242
(I01
g2458
tp4243
asg22
Nsbsg31
(irule
Guard
p4244
(dp4245
g18
I00
sg19
(lp4246
(irule
ConstantPhoneme
p4247
(dp4248
S'p'
Vb
sba(irule
FeatureMatrix
p4249
(dp4250
g28
(lp4251
sg22
Nsbasg21
I00
sg22
Nsg23
I00
sg24
S'R'
sbsg35
(irule
FeatureMatrix
p4252
(dp4253
g28
(lp4254
(I00
g2816
tp4255
asg22
Nsbsg22
Nsba(irule
Rule
p4256
(dp4257
g15
(irule
Guard
p4258
(dp4259
g18
I00
sg19
(lp4260
sg21
I00
sg22
Nsg23
I00
sg24
S'L'
sbsg25
(irule
FeatureMatrix
p4261
(dp4262
g28
(lp4263
(I00
g2615
tp4264
a(I00
g2500
tp4265
a(I01
g2458
tp4266
asg22
Nsbsg31
(irule
Guard
p4267
(dp4268
g18
I00
sg19
(lp4269
(irule
ConstantPhoneme
p4270
(dp4271
S'p'
Vb
sbasg21
I00
sg22
Nsg23
I00
sg24
S'R'
sbsg35
(irule
FeatureMatrix
p4272
(dp4273
g28
(lp4274
sg22
Nsbsg22
Nsba(irule
Rule
p4275
(dp4276
g15
(irule
Guard
p4277
(dp4278
g18
I00
sg19
(lp4279
sg21
I00
sg22
Nsg23
I00
sg24
S'L'
sbsg25
(irule
FeatureMatrix
p4280
(dp4281
g28
(lp4282
(I01
g2458
tp4283
asg22
Nsbsg31
(irule
Guard
p4284
(dp4285
g18
I00
sg19
(lp4286
(irule
ConstantPhoneme
p4287
(dp4288
S'p'
Vb
sbasg21
I00
sg22
Nsg23
I00
sg24
S'R'
sbsg35
(irule
FeatureMatrix
p4289
(dp4290
g28
(lp4291
(I00
g2742
tp4292
a(I00
g2458
tp4293
asg22
Nsbsg22
Nsba(irule
Rule
p4294
(dp4295
g15
(irule
Guard
p4296
(dp4297
g18
I00
sg19
(lp4298
sg21
I00
sg22
Nsg23
I00
sg24
S'L'
sbsg25
(irule
FeatureMatrix
p4299
(dp4300
g28
(lp4301
(I00
g2826
tp4302
a(I00
g2577
tp4303
a(I01
g2458
tp4304
asg22
Nsbsg31
(irule
Guard
p4305
(dp4306
g18
I00
sg19
(lp4307
(irule
ConstantPhoneme
p4308
(dp4309
S'p'
Vb
sbasg21
I00
sg22
Nsg23
I00
sg24
S'R'
sbsg35
(irule
FeatureMatrix
p4310
(dp4311
g28
(lp4312
sg22
Nsbsg22
Nsba(irule
Rule
p4313
(dp4314
g15
(irule
Guard
p4315
(dp4316
g18
I00
sg19
(lp4317
sg21
I00
sg22
Nsg23
I00
sg24
S'L'
sbsg25
(irule
FeatureMatrix
p4318
(dp4319
g28
(lp4320
(I01
g2458
tp4321
asg22
Nsbsg31
(irule
Guard
p4322
(dp4323
g18
I00
sg19
(lp4324
(irule
FeatureMatrix
p4325
(dp4326
g28
(lp4327
(I01
g2544
tp4328
a(I00
g2662
tp4329
asg22
Nsbasg21
I00
sg22
Nsg23
I00
sg24
S'R'
sbsg35
(irule
FeatureMatrix
p4330
(dp4331
g28
(lp4332
(I00
g2816
tp4333
asg22
Nsbsg22
Nsba(irule
Rule
p4334
(dp4335
g15
(irule
Guard
p4336
(dp4337
g18
I00
sg19
(lp4338
(irule
FeatureMatrix
p4339
(dp4340
g28
(lp4341
sg22
Nsbasg21
I00
sg22
Nsg23
I00
sg24
S'L'
sbsg25
(irule
FeatureMatrix
p4342
(dp4343
g28
(lp4344
(I00
g2596
tp4345
a(I01
g2458
tp4346
asg22
Nsbsg31
(irule
Guard
p4347
(dp4348
g18
I00
sg19
(lp4349
(irule
ConstantPhoneme
p4350
(dp4351
S'p'
Vb
sbasg21
I00
sg22
Nsg23
I00
sg24
S'R'
sbsg35
(irule
FeatureMatrix
p4352
(dp4353
g28
(lp4354
sg22
Nsbsg22
Nsba(irule
Rule
p4355
(dp4356
g15
(irule
Guard
p4357
(dp4358
g18
I00
sg19
(lp4359
sg21
I00
sg22
Nsg23
I00
sg24
S'L'
sbsg25
(irule
FeatureMatrix
p4360
(dp4361
g28
(lp4362
(I01
g2458
tp4363
asg22
Nsbsg31
(irule
Guard
p4364
(dp4365
g18
I00
sg19
(lp4366
(irule
FeatureMatrix
p4367
(dp4368
g28
(lp4369
(I01
g2544
tp4370
a(I00
g2662
tp4371
a(I01
g2458
tp4372
asg22
Nsbasg21
I00
sg22
Nsg23
I00
sg24
S'R'
sbsg35
(irule
FeatureMatrix
p4373
(dp4374
g28
(lp4375
sg22
Nsbsg22
Nsba(irule
Rule
p4376
(dp4377
g15
(irule
Guard
p4378
(dp4379
g18
I00
sg19
(lp4380
(irule
FeatureMatrix
p4381
(dp4382
g28
(lp4383
sg22
Nsbasg21
I00
sg22
Nsg23
I00
sg24
S'L'
sbsg25
(irule
FeatureMatrix
p4384
(dp4385
g28
(lp4386
(I00
g2826
tp4387
a(I01
g2458
tp4388
asg22
Nsbsg31
(irule
Guard
p4389
(dp4390
g18
I00
sg19
(lp4391
(irule
ConstantPhoneme
p4392
(dp4393
S'p'
Vb
sbasg21
I00
sg22
Nsg23
I00
sg24
S'R'
sbsg35
(irule
FeatureMatrix
p4394
(dp4395
g28
(lp4396
sg22
Nsbsg22
Nsba(irule
Rule
p4397
(dp4398
g15
(irule
Guard
p4399
(dp4400
g18
I00
sg19
(lp4401
sg21
I00
sg22
Nsg23
I00
sg24
S'L'
sbsg25
(irule
FeatureMatrix
p4402
(dp4403
g28
(lp4404
(I01
g2458
tp4405
asg22
Nsbsg31
(irule
Guard
p4406
(dp4407
g18
I00
sg19
(lp4408
(irule
FeatureMatrix
p4409
(dp4410
g28
(lp4411
sg22
Nsba(irule
ConstantPhoneme
p4412
(dp4413
S'p'
Vb
sbasg21
I00
sg22
Nsg23
I01
sg24
S'R'
sbsg35
(irule
FeatureMatrix
p4414
(dp4415
g28
(lp4416
sg22
Nsbsg22
Nsba(irule
Rule
p4417
(dp4418
g15
(irule
Guard
p4419
(dp4420
g18
I00
sg19
(lp4421
sg21
I00
sg22
Nsg23
I00
sg24
S'L'
sbsg25
(irule
FeatureMatrix
p4422
(dp4423
g28
(lp4424
(I01
g2458
tp4425
asg22
Nsbsg31
(irule
Guard
p4426
(dp4427
g18
I00
sg19
(lp4428
(irule
FeatureMatrix
p4429
(dp4430
g28
(lp4431
(I00
g2486
tp4432
a(I01
g2458
tp4433
asg22
Nsba(irule
FeatureMatrix
p4434
(dp4435
g28
(lp4436
sg22
Nsbasg21
I00
sg22
Nsg23
I00
sg24
S'R'
sbsg35
(irule
FeatureMatrix
p4437
(dp4438
g28
(lp4439
sg22
Nsbsg22
Nsba(irule
Rule
p4440
(dp4441
g15
(irule
Guard
p4442
(dp4443
g18
I00
sg19
(lp4444
(irule
FeatureMatrix
p4445
(dp4446
g28
(lp4447
sg22
Nsbasg21
I00
sg22
Nsg23
I00
sg24
S'L'
sbsg25
(irule
FeatureMatrix
p4448
(dp4449
g28
(lp4450
(I01
g2458
tp4451
asg22
Nsbsg31
(irule
Guard
p4452
(dp4453
g18
I00
sg19
(lp4454
(irule
ConstantPhoneme
p4455
(dp4456
S'p'
Vb
sbasg21
I00
sg22
Nsg23
I00
sg24
S'R'
sbsg35
(irule
FeatureMatrix
p4457
(dp4458
g28
(lp4459
(I00
g2567
tp4460
asg22
Nsbsg22
NsbaasbsS'parameters'
p4461
g6
(cargparse
Namespace
p4462
g8
NtRp4463
(dp4464
S'dummy'
p4465
I00
sS'task'
p4466
S'incremental'
p4467
sS'features'
p4468
S'sophisticated'
p4469
sS'resume'
p4470
I00
sS'geometry'
p4471
I01
sS'top'
p4472
I100
sS'disableClean'
p4473
I00
sS'universal'
p4474
NsS'restrict'
p4475
NsS'window'
p4476
NsS'seed'
p4477
S'0'
sS'restore'
p4478
NsS'verbosity'
p4479
I0
sS'timeout'
p4480
F24
sS'debug'
p4481
NsS'cores'
p4482
I40
sg265
S'Halle_109_Russian'
p4483
sS'save'
p4484
NsS'serial'
p4485
I00
sS'alignment'
p4486
I00
sS'samples'
p4487
I30
sbsb.