(iresult
Result
p1
(dp2
S'startTime'
p3
F1559660899.4145889
sS'solutionSequence'
p4
(lp5
(ccopy_reg
_reconstructor
p6
(csolution
Solution
p7
c__builtin__
object
p8
NtRp9
(dp10
S'rules'
p11
(lp12
(irule
Rule
p13
(dp14
S'leftTriggers'
p15
(irule
Guard
p16
(dp17
S'endOfString'
p18
I00
sS'specifications'
p19
(lp20
sS'optionalEnding'
p21
I00
sS'representation'
p22
V
sS'starred'
p23
I00
sS'side'
p24
S'L'
sbsS'structuralChange'
p25
(irule
FeatureMatrix
p26
(dp27
S'featuresAndPolarities'
p28
(lp29
sg22
V[  ]
p30
sbsS'rightTriggers'
p31
(irule
Guard
p32
(dp33
g18
I00
sg19
(lp34
sg21
I00
sg22
V
sg23
I00
sg24
S'R'
sbsS'focus'
p35
(irule
FeatureMatrix
p36
(dp37
g28
(lp38
sg22
V[  ]
p39
sbsg22
V[  ] ---> [  ] /  _ 
p40
sbasS'prefixes'
p41
(lp42
(imorph
Morph
p43
(dp44
S'phonemes'
p45
(lp46
Va
aVt
asba(imorph
Morph
p47
(dp48
g45
(lp49
Vb^y
p50
aVi
aVz
asba(imorph
Morph
p51
(dp52
g45
(lp53
Vu
asbasS'underlyingForms'
p54
(dp55
((imorph
Morph
p56
(dp57
g45
(lp58
Va
aVt
aVa\u0301
p59
aVl
aV\u0268
asb(imorph
Morph
p60
(dp61
g45
(lp62
Vb^y
p63
aVi
aVz
aVa\u0301
p64
aVl
aV\u0268
asb(imorph
Morph
p65
(dp66
g45
(lp67
Vu
aVa\u0301
p68
aVl
aV\u0268
asbtp69
(imorph
Morph
p70
(dp71
g45
(lp72
Va\u0301
p73
aVl
aV\u0268
asbs((imorph
Morph
p74
(dp75
g45
(lp76
Va
aVt
aVr
aVo\u0301
p77
aVz
aV\u0268
asb(imorph
Morph
p78
(dp79
g45
(lp80
Vb^y
p81
aVi
aVz
aVr
aVo\u0301
p82
aVz
aV\u0268
asb(imorph
Morph
p83
(dp84
g45
(lp85
Vu
aVr
aVo\u0301
p86
aVz
aV\u0268
asbtp87
(imorph
Morph
p88
(dp89
g45
(lp90
Vr
aVo\u0301
p91
aVz
aV\u0268
asbssS'suffixes'
p92
(lp93
(imorph
Morph
p94
(dp95
g45
(lp96
sba(imorph
Morph
p97
(dp98
g45
(lp99
sba(imorph
Morph
p100
(dp101
g45
(lp102
sbasbF48.554903984069824
tp103
a(g6
(g7
g8
NtRp104
(dp105
g11
(lp106
(irule
Rule
p107
(dp108
g15
(irule
Guard
p109
(dp110
g18
I00
sg19
(lp111
sg21
I00
sg22
V
sg23
I00
sg24
S'L'
sbsg25
(irule
ConstantPhoneme
p112
(dp113
S'p'
Vd
sbsg31
(irule
Guard
p114
(dp115
g18
I00
sg19
(lp116
(irule
ConstantPhoneme
p117
(dp118
S'p'
Vb
sbasg21
I00
sg22
Vb
sg23
I00
sg24
S'R'
sbsg35
(irule
ConstantPhoneme
p119
(dp120
S'p'
Vt
sbsg22
Vt ---> d /  _ b
p121
sbasg41
(lp122
(imorph
Morph
p123
(dp124
g45
(lp125
Va
aVt
asba(imorph
Morph
p126
(dp127
g45
(lp128
g50
aVi
aVz
asba(imorph
Morph
p129
(dp130
g45
(lp131
Vu
asbasg54
(dp132
(g56
g60
g65
tp133
(imorph
Morph
p134
(dp135
g45
(lp136
g73
aVl
aV\u0268
asbs((imorph
Morph
p137
(dp138
g45
(lp139
Va
aVd
aVb
aVa
aVr
aVa
aVd
aV\u0268\u0301
p140
asb(imorph
Morph
p141
(dp142
g45
(lp143
Vb^y
p144
aVi
aVz
aVb
aVa
aVr
aVa
aVd
aV\u0268\u0301
p145
asb(imorph
Morph
p146
(dp147
g45
(lp148
Vu
aVb
aVa
aVr
aVa
aVd
aV\u0268\u0301
p149
asbtp150
(imorph
Morph
p151
(dp152
g45
(lp153
Vb
aVa
aVr
aVa
aVd
aV\u0268\u0301
p154
asbs(g74
g78
g83
tp155
(imorph
Morph
p156
(dp157
g45
(lp158
Vr
ag91
aVz
aV\u0268
asbssg92
(lp159
(imorph
Morph
p160
(dp161
g45
(lp162
sba(imorph
Morph
p163
(dp164
g45
(lp165
sba(imorph
Morph
p166
(dp167
g45
(lp168
sbasbF158.06693911552429
tp169
a(g6
(g7
g8
NtRp170
(dp171
g11
(lp172
(irule
Rule
p173
(dp174
g15
(irule
Guard
p175
(dp176
g18
I00
sg19
(lp177
sg21
I00
sg22
V
sg23
I00
sg24
S'L'
sbsg25
(irule
ConstantPhoneme
p178
(dp179
S'p'
Vd
sbsg31
(irule
Guard
p180
(dp181
g18
I00
sg19
(lp182
(irule
ConstantPhoneme
p183
(dp184
S'p'
Vb
sbasg21
I00
sg22
Vb
sg23
I00
sg24
S'R'
sbsg35
(irule
ConstantPhoneme
p185
(dp186
S'p'
Vt
sbsg22
Vt ---> d /  _ b
p187
sba(irule
Rule
p188
(dp189
g15
(irule
Guard
p190
(dp191
g18
I00
sg19
(lp192
sg21
I00
sg22
V
sg23
I00
sg24
S'L'
sbsg25
(irule
ConstantPhoneme
p193
(dp194
S'p'
Vs
sbsg31
(irule
Guard
p195
(dp196
g18
I00
sg19
(lp197
(irule
ConstantPhoneme
p198
(dp199
S'p'
Vs^y
p200
sbasg21
I00
sg22
g200
sg23
I00
sg24
S'R'
sbsg35
(irule
ConstantPhoneme
p201
(dp202
S'p'
Vz
sbsg22
Vz ---> s /  _ s^y
p203
sbasg41
(lp204
(imorph
Morph
p205
(dp206
g45
(lp207
Va
aVt
asba(imorph
Morph
p208
(dp209
g45
(lp210
g50
aVi
aVz
asba(imorph
Morph
p211
(dp212
g45
(lp213
Vu
asbasg54
(dp214
(g56
g60
g65
tp215
(imorph
Morph
p216
(dp217
g45
(lp218
g73
aVl
aV\u0268
asbs(g137
g141
g146
tp219
(imorph
Morph
p220
(dp221
g45
(lp222
Vb
aVa
aVr
aVa
aVd
ag154
asbs(g74
g78
g83
tp223
(imorph
Morph
p224
(dp225
g45
(lp226
Vr
ag91
aVz
aV\u0268
asbs((imorph
Morph
p227
(dp228
g45
(lp229
Va
aVt
aVs^y
p230
aVi
aVs
aVt
aVr
aV\u0268\u0301
p231
asb(imorph
Morph
p232
(dp233
g45
(lp234
Vb^y
p235
aVi
aVs
aVs^y
p236
aVi
aVs
aVt
aVr
aV\u0268\u0301
p237
asb(imorph
Morph
p238
(dp239
g45
(lp240
Vu
aVs^y
p241
aVi
aVs
aVt
aVr
aV\u0268\u0301
p242
asbtp243
(imorph
Morph
p244
(dp245
g45
(lp246
g200
aVi
aVs
aVt
aVr
ag154
asbs((imorph
Morph
(dp247
g45
(lp248
Va
aVt
aVk
aVa
aVr
aVo\u0301
p249
aVv
aV\u0268
asb(imorph
Morph
(dp250
g45
(lp251
Vb^y
p252
aVi
aVz
aVk
aVa
aVr
aVo\u0301
p253
aVv
aV\u0268
asb(imorph
Morph
(dp254
g45
(lp255
Vu
aVk
aVa
aVr
aVo\u0301
p256
aVv
aV\u0268
asbtp257
(imorph
Morph
p258
(dp259
g45
(lp260
Vk
aVa
aVr
ag91
aVv
aV\u0268
asbssg92
(lp261
(imorph
Morph
p262
(dp263
g45
(lp264
sba(imorph
Morph
p265
(dp266
g45
(lp267
sba(imorph
Morph
p268
(dp269
g45
(lp270
sbasbF2303.4618661403656
tp271
asS'problem'
p272
S'Halle_109_Russian'
p273
sS'finalFrontier'
p274
g6
(csolution
Frontier
p275
g8
NtRp276
(dp277
g41
g204
sg92
g261
sg54
g214
sS'frontiers'
p278
(lp279
(lp280
g173
aa(lp281
g188
aasbsS'parameters'
p282
g6
(cargparse
Namespace
p283
g8
NtRp284
(dp285
S'restore'
p286
NsS'features'
p287
S'none'
p288
sS'universal'
p289
NsS'restrict'
p290
NsS'seed'
p291
S'0'
sS'serial'
p292
I00
sS'alignment'
p293
I00
sS'top'
p294
I1
sS'maximumDepth'
p295
I3
sS'window'
p296
NsS'minimizeBits'
p297
I5
sS'samples'
p298
I30
sS'save'
p299
NsS'resume'
p300
I00
sS'disableClean'
p301
I01
sS'stemBaseline'
p302
I30
sS'dummy'
p303
I00
sS'task'
p304
S'CEGIS'
p305
sS'geometry'
p306
NsS'verbosity'
p307
I0
sS'timeout'
p308
F24
sS'debug'
p309
NsS'cores'
p310
I64
sg272
S'Halle_109_Russian'
p311
sS'mergeFrontiers'
p312
I00
sbsb.