(iresult
Result
p1
(dp2
S'startTime'
p3
F1559660956.051275
sS'solutionSequence'
p4
(lp5
(ccopy_reg
_reconstructor
p6
(csolution
Solution
p7
c__builtin__
object
p8
NtRp9
(dp10
S'rules'
p11
(lp12
(irule
Rule
p13
(dp14
S'leftTriggers'
p15
(irule
Guard
p16
(dp17
S'endOfString'
p18
I00
sS'specifications'
p19
(lp20
sS'optionalEnding'
p21
I00
sS'representation'
p22
V
sS'starred'
p23
I00
sS'side'
p24
S'L'
sbsS'structuralChange'
p25
(irule
FeatureMatrix
p26
(dp27
S'featuresAndPolarities'
p28
(lp29
sg22
V[  ]
p30
sbsS'rightTriggers'
p31
(irule
Guard
p32
(dp33
g18
I00
sg19
(lp34
sg21
I00
sg22
V
sg23
I00
sg24
S'R'
sbsS'focus'
p35
(irule
FeatureMatrix
p36
(dp37
g28
(lp38
sg22
V[  ]
p39
sbsg22
V[  ] ---> [  ] /  _ 
p40
sbasS'prefixes'
p41
(lp42
(imorph
Morph
p43
(dp44
S'phonemes'
p45
(lp46
sba(imorph
Morph
p47
(dp48
g45
(lp49
sba(imorph
Morph
p50
(dp51
g45
(lp52
sbasS'underlyingForms'
p53
(dp54
((imorph
Morph
p55
(dp56
g45
(lp57
Vg
aVo
aVp
aVi
aVt
asb(imorph
Morph
p58
(dp59
g45
(lp60
Vg
aVo
aVp
aVh
aVi
aVn
asb(imorph
Morph
p61
(dp62
g45
(lp63
Vg
aVo
aVp
aVn
aVi
aVt
asbtp64
(imorph
Morph
p65
(dp66
g45
(lp67
Vg
aVo
aVp
asbs((imorph
Morph
p68
(dp69
g45
(lp70
Vx
aVa
aVt
aVi
aVt
asb(imorph
Morph
p71
(dp72
g45
(lp73
Vx
aVa
aVt
aVh
aVi
aVn
asb(imorph
Morph
p74
(dp75
g45
(lp76
Vx
aVa
aVt
aVn
aVi
aVt
asbtp77
(imorph
Morph
p78
(dp79
g45
(lp80
Vx
aVa
aVt
asbssS'suffixes'
p81
(lp82
(imorph
Morph
p83
(dp84
g45
(lp85
Vi
aVt
asba(imorph
Morph
p86
(dp87
g45
(lp88
Vh
aVi
aVn
asba(imorph
Morph
p89
(dp90
g45
(lp91
Vn
aVi
aVt
asbasbF67.761193990707397
tp92
a(g6
(g7
g8
NtRp93
(dp94
g11
(lp95
(irule
Rule
p96
(dp97
g15
(irule
Guard
p98
(dp99
g18
I00
sg19
(lp100
(irule
FeatureMatrix
p101
(dp102
g28
(lp103
sg22
V[  ]
p104
sba(irule
ConstantPhoneme
p105
(dp106
S'p'
Vu
sbasg21
I00
sg22
Vu [  ]
p107
sg23
I00
sg24
S'L'
sbsg25
(irule
OffsetSpecification
p108
(dp109
S'offset'
p110
I-2
sbsg31
(irule
Guard
p111
(dp112
g18
I00
sg19
(lp113
sg21
I00
sg22
V
sg23
I00
sg24
S'R'
sbsg35
(irule
ConstantPhoneme
p114
(dp115
S'p'
Vi
sbsg22
Vi ---> -2 / u [  ] _ 
p116
sba(irule
Rule
p117
(dp118
g15
(irule
Guard
p119
(dp120
g18
I00
sg19
(lp121
(irule
FeatureMatrix
p122
(dp123
g28
(lp124
sg22
V[  ]
p125
sba(irule
ConstantPhoneme
p126
(dp127
S'p'
Vm
sbasg21
I00
sg22
Vm [  ]
p128
sg23
I00
sg24
S'L'
sbsg25
(irule
ConstantPhoneme
p129
(dp130
S'p'
Vt
sbsg31
(irule
Guard
p131
(dp132
g18
I00
sg19
(lp133
sg21
I00
sg22
V
sg23
I00
sg24
S'R'
sbsg35
(irule
FeatureMatrix
p134
(dp135
g28
(lp136
sg22
V[  ]
p137
sbsg22
V[  ] ---> t / m [  ] _ 
p138
sbasg41
(lp139
(imorph
Morph
p140
(dp141
g45
(lp142
sba(imorph
Morph
p143
(dp144
g45
(lp145
sba(imorph
Morph
p146
(dp147
g45
(lp148
sbasg53
(dp149
(g55
g58
g61
tp150
(imorph
Morph
p151
(dp152
g45
(lp153
Vg
aVo
aVp
asbs((imorph
Morph
p154
(dp155
g45
(lp156
Vm
aVu
aVt
aVu
aVt
asb(imorph
Morph
p157
(dp158
g45
(lp159
Vm
aVu
aVt
aVh
aVu
aVn
asb(imorph
Morph
p160
(dp161
g45
(lp162
Vm
aVu
aVt
aVn
aVu
aVt
asbtp163
(imorph
Morph
p164
(dp165
g45
(lp166
Vm
aVu
aVu
asbs(g68
g71
g74
tp167
(imorph
Morph
p168
(dp169
g45
(lp170
Vx
aVa
aVt
asbssg81
(lp171
(imorph
Morph
p172
(dp173
g45
(lp174
Vi
aVt
asba(imorph
Morph
p175
(dp176
g45
(lp177
Vh
aVi
aVn
asba(imorph
Morph
p178
(dp179
g45
(lp180
Vn
aVi
aVt
asbasbF1687.8509950637817
tp181
a(g6
(g7
g8
NtRp182
(dp183
g11
(lp184
(irule
Rule
p185
(dp186
g15
(irule
Guard
p187
(dp188
g18
I00
sg19
(lp189
sg21
I00
sg22
V
sg23
I00
sg24
S'L'
sbsg25
(irule
ConstantPhoneme
p190
(dp191
S'p'
Va:
p192
sbsg31
(irule
Guard
p193
(dp194
g18
I00
sg19
(lp195
(irule
ConstantPhoneme
p196
(dp197
S'p'
Vp
sba(irule
ConstantPhoneme
p198
(dp199
S'p'
Vi
sbasg21
I00
sg22
Vp i
p200
sg23
I00
sg24
S'R'
sbsg35
(irule
ConstantPhoneme
p201
(dp202
S'p'
Va
sbsg22
Va ---> a: /  _ p i
p203
sba(irule
Rule
p204
(dp205
g15
(irule
Guard
p206
(dp207
g18
I00
sg19
(lp208
(irule
FeatureMatrix
p209
(dp210
g28
(lp211
sg22
V[  ]
p212
sba(irule
ConstantPhoneme
p213
(dp214
S'p'
Vu
sbasg21
I00
sg22
Vu [  ]
p215
sg23
I00
sg24
S'L'
sbsg25
(irule
OffsetSpecification
p216
(dp217
g110
I-2
sbsg31
(irule
Guard
p218
(dp219
g18
I00
sg19
(lp220
sg21
I00
sg22
V
sg23
I00
sg24
S'R'
sbsg35
(irule
ConstantPhoneme
p221
(dp222
S'p'
Vi
sbsg22
Vi ---> -2 / u [  ] _ 
p223
sba(irule
Rule
p224
(dp225
g15
(irule
Guard
p226
(dp227
g18
I00
sg19
(lp228
(irule
FeatureMatrix
p229
(dp230
g28
(lp231
sg22
V[  ]
p232
sba(irule
ConstantPhoneme
p233
(dp234
S'p'
Vm
sbasg21
I00
sg22
Vm [  ]
p235
sg23
I00
sg24
S'L'
sbsg25
(irule
ConstantPhoneme
p236
(dp237
S'p'
Vt
sbsg31
(irule
Guard
p238
(dp239
g18
I00
sg19
(lp240
sg21
I00
sg22
V
sg23
I00
sg24
S'R'
sbsg35
(irule
FeatureMatrix
p241
(dp242
g28
(lp243
sg22
V[  ]
p244
sbsg22
V[  ] ---> t / m [  ] _ 
p245
sbasg41
(lp246
(imorph
Morph
p247
(dp248
g45
(lp249
sba(imorph
Morph
p250
(dp251
g45
(lp252
sba(imorph
Morph
p253
(dp254
g45
(lp255
sbasg53
(dp256
(g55
g58
g61
tp257
(imorph
Morph
p258
(dp259
g45
(lp260
Vg
aVo
aVp
asbs((imorph
Morph
p261
(dp262
g45
(lp263
Vs
aVa:
p264
aVp
aVi
aVt
asb(imorph
Morph
p265
(dp266
g45
(lp267
Vs
aVa
aVp
aVh
aVi
aVn
asb(imorph
Morph
p268
(dp269
g45
(lp270
Vs
aVa
aVp
aVn
aVi
aVt
asbtp271
(imorph
Morph
p272
(dp273
g45
(lp274
Vs
aVa
aVp
asbs((imorph
Morph
(dp275
g45
(lp276
Vg
aVi
aVy
aVi
aVt
asb(imorph
Morph
(dp277
g45
(lp278
Vg
aVi
aVy
aVh
aVi
aVn
asb(imorph
Morph
(dp279
g45
(lp280
Vg
aVi
aVy
aVn
aVi
aVt
asbtp281
(imorph
Morph
p282
(dp283
g45
(lp284
Vg
aVi
aVy
asbs(g154
g157
g160
tp285
(imorph
Morph
p286
(dp287
g45
(lp288
Vm
aVu
aVu
asbs(g68
g71
g74
tp289
(imorph
Morph
p290
(dp291
g45
(lp292
Vx
aVa
aVt
asbssg81
(lp293
(imorph
Morph
p294
(dp295
g45
(lp296
Vi
aVt
asba(imorph
Morph
p297
(dp298
g45
(lp299
Vh
aVi
aVn
asba(imorph
Morph
p300
(dp301
g45
(lp302
Vn
aVi
aVt
asbasbF40949.149950027466
tp303
asS'problem'
p304
S'Halle_153_Yokuts'
p305
sS'finalFrontier'
p306
g6
(csolution
Frontier
p307
g8
NtRp308
(dp309
g41
g246
sg81
g293
sg53
g256
sS'frontiers'
p310
(lp311
(lp312
g185
aa(lp313
g204
aa(lp314
g224
aasbsS'parameters'
p315
g6
(cargparse
Namespace
p316
g8
NtRp317
(dp318
S'restore'
p319
NsS'features'
p320
S'none'
p321
sS'universal'
p322
NsS'restrict'
p323
NsS'seed'
p324
S'0'
sS'serial'
p325
I00
sS'alignment'
p326
I00
sS'top'
p327
I1
sS'maximumDepth'
p328
I3
sS'window'
p329
NsS'minimizeBits'
p330
I5
sS'samples'
p331
I30
sS'save'
p332
NsS'resume'
p333
I00
sS'disableClean'
p334
I01
sS'stemBaseline'
p335
I30
sS'dummy'
p336
I00
sS'task'
p337
S'CEGIS'
p338
sS'geometry'
p339
NsS'verbosity'
p340
I0
sS'timeout'
p341
F24
sS'debug'
p342
NsS'cores'
p343
I64
sg304
S'Halle_153_Yokuts'
p344
sS'mergeFrontiers'
p345
I00
sbsb.