(iresult
Result
p1
(dp2
S'startTime'
p3
F1565820579.1118441
sS'solutionSequence'
p4
(lp5
(ccopy_reg
_reconstructor
p6
(csolution
Solution
p7
c__builtin__
object
p8
NtRp9
(dp10
S'rules'
p11
(lp12
(irule
Rule
p13
(dp14
S'leftTriggers'
p15
(irule
Guard
p16
(dp17
S'endOfString'
p18
I00
sS'specifications'
p19
(lp20
sS'optionalEnding'
p21
I00
sS'representation'
p22
V
sS'starred'
p23
I00
sS'side'
p24
S'L'
sbsS'structuralChange'
p25
(irule
FeatureMatrix
p26
(dp27
S'featuresAndPolarities'
p28
(lp29
sg22
V[  ]
p30
sbsS'rightTriggers'
p31
(irule
Guard
p32
(dp33
g18
I00
sg19
(lp34
sg21
I00
sg22
V
sg23
I00
sg24
S'R'
sbsS'focus'
p35
(irule
FeatureMatrix
p36
(dp37
g28
(lp38
sg22
V[  ]
p39
sbsg22
V[  ] ---> [  ] /  _ 
p40
sbasS'prefixes'
p41
(lp42
(imorph
Morph
p43
(dp44
S'phonemes'
p45
(lp46
sba(imorph
Morph
p47
(dp48
g45
(lp49
sba(imorph
Morph
p50
(dp51
g45
(lp52
sbasS'underlyingForms'
p53
(dp54
((imorph
Morph
p55
(dp56
g45
(lp57
Vg
aVo
aVp
aVi
aVt
asb(imorph
Morph
p58
(dp59
g45
(lp60
Vg
aVo
aVp
aVh
aVi
aVn
asb(imorph
Morph
p61
(dp62
g45
(lp63
Vg
aVo
aVp
aVn
aVi
aVt
asbtp64
(imorph
Morph
p65
(dp66
g45
(lp67
Vg
aVo
aVp
asbs((imorph
Morph
p68
(dp69
g45
(lp70
Vg
aVi
aVy
aVi
aVt
asb(imorph
Morph
p71
(dp72
g45
(lp73
Vg
aVi
aVy
aVh
aVi
aVn
asb(imorph
Morph
p74
(dp75
g45
(lp76
Vg
aVi
aVy
aVn
aVi
aVt
asbtp77
(imorph
Morph
p78
(dp79
g45
(lp80
Vg
aVi
aVy
asbs((imorph
Morph
p81
(dp82
g45
(lp83
Vx
aVa
aVt
aVi
aVt
asb(imorph
Morph
p84
(dp85
g45
(lp86
Vx
aVa
aVt
aVh
aVi
aVn
asb(imorph
Morph
p87
(dp88
g45
(lp89
Vx
aVa
aVt
aVn
aVi
aVt
asbtp90
(imorph
Morph
p91
(dp92
g45
(lp93
Vx
aVa
aVt
asbssS'suffixes'
p94
(lp95
(imorph
Morph
p96
(dp97
g45
(lp98
Vi
aVt
asba(imorph
Morph
p99
(dp100
g45
(lp101
Vh
aVi
aVn
asba(imorph
Morph
p102
(dp103
g45
(lp104
Vn
aVi
aVt
asbasbF141.11894798278809
tp105
a(g6
(g7
g8
NtRp106
(dp107
g11
(lp108
(irule
Rule
p109
(dp110
g15
(irule
Guard
p111
(dp112
g18
I00
sg19
(lp113
(irule
FeatureMatrix
p114
(dp115
g28
(lp116
sg22
V[  ]
p117
sba(irule
ConstantPhoneme
p118
(dp119
S'p'
Vm
sbasg21
I00
sg22
Vm [  ]*
p120
sg23
I01
sg24
S'L'
sbsg25
(irule
ConstantPhoneme
p121
(dp122
S'p'
Vu
sbsg31
(irule
Guard
p123
(dp124
g18
I00
sg19
(lp125
sg21
I00
sg22
V
sg23
I00
sg24
S'R'
sbsg35
(irule
FeatureMatrix
p126
(dp127
g28
(lp128
(I01
S'high'
p129
tp130
asg22
V[ +high ]
p131
sbsg22
V[ +high ] ---> u / m [  ]* _ 
p132
sbasg41
(lp133
(imorph
Morph
p134
(dp135
g45
(lp136
sba(imorph
Morph
p137
(dp138
g45
(lp139
sba(imorph
Morph
p140
(dp141
g45
(lp142
sbasg53
(dp143
(g55
g58
g61
tp144
(imorph
Morph
p145
(dp146
g45
(lp147
Vg
aVo
aVp
asbs(g68
g71
g74
tp148
(imorph
Morph
p149
(dp150
g45
(lp151
Vg
aVi
aVy
asbs((imorph
Morph
p152
(dp153
g45
(lp154
Vm
aVu
aVt
aVu
aVt
asb(imorph
Morph
p155
(dp156
g45
(lp157
Vm
aVu
aVt
aVh
aVu
aVn
asb(imorph
Morph
p158
(dp159
g45
(lp160
Vm
aVu
aVt
aVn
aVu
aVt
asbtp161
(imorph
Morph
p162
(dp163
g45
(lp164
Vm
aVi
aVt
asbs(g81
g84
g87
tp165
(imorph
Morph
p166
(dp167
g45
(lp168
Vx
aVa
aVt
asbssg94
(lp169
(imorph
Morph
p170
(dp171
g45
(lp172
Vi
aVt
asba(imorph
Morph
p173
(dp174
g45
(lp175
Vh
aVi
aVn
asba(imorph
Morph
p176
(dp177
g45
(lp178
Vn
aVi
aVt
asbasbF834.40457487106323
tp179
a(g6
(g7
g8
NtRp180
(dp181
g11
(lp182
(irule
Rule
p183
(dp184
g15
(irule
Guard
p185
(dp186
g18
I00
sg19
(lp187
sg21
I00
sg22
V
sg23
I00
sg24
S'L'
sbsg25
(irule
FeatureMatrix
p188
(dp189
g28
(lp190
(I00
S'long'
p191
tp192
asg22
V[ -long ]
p193
sbsg31
(irule
Guard
p194
(dp195
g18
I00
sg19
(lp196
(irule
FeatureMatrix
p197
(dp198
g28
(lp199
sg22
V[  ]
p200
sba(irule
FeatureMatrix
p201
(dp202
g28
(lp203
(I00
g129
tp204
asg22
V[ -high ]
p205
sbasg21
I00
sg22
V[  ] [ -high ]
p206
sg23
I00
sg24
S'R'
sbsg35
(irule
FeatureMatrix
p207
(dp208
g28
(lp209
sg22
V[  ]
p210
sbsg22
V[  ] ---> [ -long ] /  _ [  ] [ -high ]
p211
sba(irule
Rule
p212
(dp213
g15
(irule
Guard
p214
(dp215
g18
I00
sg19
(lp216
(irule
FeatureMatrix
p217
(dp218
g28
(lp219
sg22
V[  ]
p220
sba(irule
ConstantPhoneme
p221
(dp222
S'p'
Vu
sbasg21
I00
sg22
Vu [  ]*
p223
sg23
I01
sg24
S'L'
sbsg25
(irule
ConstantPhoneme
p224
(dp225
S'p'
Vu
sbsg31
(irule
Guard
p226
(dp227
g18
I00
sg19
(lp228
sg21
I00
sg22
V
sg23
I00
sg24
S'R'
sbsg35
(irule
ConstantPhoneme
p229
(dp230
S'p'
Vi
sbsg22
Vi ---> u / u [  ]* _ 
p231
sbasg41
(lp232
(imorph
Morph
p233
(dp234
g45
(lp235
sba(imorph
Morph
p236
(dp237
g45
(lp238
sba(imorph
Morph
p239
(dp240
g45
(lp241
sbasg53
(dp242
(g55
g58
g61
tp243
(imorph
Morph
p244
(dp245
g45
(lp246
Vg
aVo
aVp
asbs((imorph
Morph
p247
(dp248
g45
(lp249
Vs
aVa:
p250
aVp
aVi
aVt
asb(imorph
Morph
p251
(dp252
g45
(lp253
Vs
aVa
aVp
aVh
aVi
aVn
asb(imorph
Morph
p254
(dp255
g45
(lp256
Vs
aVa
aVp
aVn
aVi
aVt
asbtp257
(imorph
Morph
p258
(dp259
g45
(lp260
Vs
aVa:
p261
aVp
asbs(g68
g71
g74
tp262
(imorph
Morph
p263
(dp264
g45
(lp265
Vg
aVi
aVy
asbs(g152
g155
g158
tp266
(imorph
Morph
p267
(dp268
g45
(lp269
Vm
aVu
aVt
asbs(g81
g84
g87
tp270
(imorph
Morph
p271
(dp272
g45
(lp273
Vx
aVa
aVt
asbssg94
(lp274
(imorph
Morph
p275
(dp276
g45
(lp277
Vi
aVt
asba(imorph
Morph
p278
(dp279
g45
(lp280
Vh
aVi
aVn
asba(imorph
Morph
p281
(dp282
g45
(lp283
Vn
aVi
aVt
asbasbF4371.7457530498505
tp284
a(g6
(g7
g8
NtRp285
(dp286
g11
(lp287
(irule
Rule
p288
(dp289
g15
(irule
Guard
p290
(dp291
g18
I00
sg19
(lp292
(irule
FeatureMatrix
p293
(dp294
g28
(lp295
(I00
S'bilabial'
p296
tp297
asg22
V[ -bilabial ]
p298
sba(irule
FeatureMatrix
p299
(dp300
g28
(lp301
(I01
S'rounded'
p302
tp303
asg22
V[ +rounded ]
p304
sbasg21
I00
sg22
V[ +rounded ] [ -bilabial ]*
p305
sg23
I01
sg24
S'L'
sbsg25
(irule
ConstantPhoneme
p306
(dp307
S'p'
Vu
sbsg31
(irule
Guard
p308
(dp309
g18
I00
sg19
(lp310
sg21
I00
sg22
V
sg23
I00
sg24
S'R'
sbsg35
(irule
FeatureMatrix
p311
(dp312
g28
(lp313
(I01
S'front'
p314
tp315
asg22
V[ +front ]
p316
sbsg22
V[ +front ] ---> u / [ +rounded ] [ -bilabial ]* _ 
p317
sba(irule
Rule
p318
(dp319
g15
(irule
Guard
p320
(dp321
g18
I00
sg19
(lp322
sg21
I00
sg22
V
sg23
I00
sg24
S'L'
sbsg25
(irule
FeatureMatrix
p323
(dp324
g28
(lp325
(I00
g191
tp326
asg22
V[ -long ]
p327
sbsg31
(irule
Guard
p328
(dp329
g18
I00
sg19
(lp330
(irule
FeatureMatrix
p331
(dp332
g28
(lp333
sg22
V[  ]
p334
sba(irule
FeatureMatrix
p335
(dp336
g28
(lp337
(I00
g129
tp338
asg22
V[ -high ]
p339
sbasg21
I00
sg22
V[  ] [ -high ]
p340
sg23
I00
sg24
S'R'
sbsg35
(irule
FeatureMatrix
p341
(dp342
g28
(lp343
sg22
V[  ]
p344
sbsg22
V[  ] ---> [ -long ] /  _ [  ] [ -high ]
p345
sbasg41
(lp346
(imorph
Morph
p347
(dp348
g45
(lp349
sba(imorph
Morph
p350
(dp351
g45
(lp352
sba(imorph
Morph
p353
(dp354
g45
(lp355
sbasg53
(dp356
(g55
g58
g61
tp357
(imorph
Morph
p358
(dp359
g45
(lp360
Vg
aVo
aVp
asbs((imorph
Morph
(dp361
g45
(lp362
Vs
aVu
aVd
aVo:
p363
aVk
aVu
aVt
asb(imorph
Morph
(dp364
g45
(lp365
Vs
aVu
aVd
aVo
aVk
aVh
aVu
aVn
asb(imorph
Morph
(dp366
g45
(lp367
Vs
aVu
aVd
aVo
aVk
aVn
aVu
aVt
asbtp368
(imorph
Morph
p369
(dp370
g45
(lp371
Vs
aVu
aVd
aVo:
p372
aVk
asbs((imorph
Morph
(dp373
g45
(lp374
Vg
aVo:
p375
aVb
aVi
aVt
asb(imorph
Morph
(dp376
g45
(lp377
Vg
aVo
aVb
aVh
aVi
aVn
asb(imorph
Morph
(dp378
g45
(lp379
Vg
aVo
aVb
aVn
aVi
aVt
asbtp380
(imorph
Morph
p381
(dp382
g45
(lp383
Vg
ag372
aVb
asbs((imorph
Morph
(dp384
g45
(lp385
Vh
aVi
aVb
aVe:
p386
aVy
aVi
aVt
asb(imorph
Morph
(dp387
g45
(lp388
Vh
aVi
aVb
aVe
aVy
aVh
aVi
aVn
asb(imorph
Morph
(dp389
g45
(lp390
Vh
aVi
aVb
aVe
aVy
aVn
aVi
aVt
asbtp391
(imorph
Morph
p392
(dp393
g45
(lp394
Vh
aVi
aVb
aVe:
p395
aVy
asbs(g81
g84
g87
tp396
(imorph
Morph
p397
(dp398
g45
(lp399
Vx
aVa
aVt
asbs(g68
g71
g74
tp400
(imorph
Morph
p401
(dp402
g45
(lp403
Vg
aVi
aVy
asbs((imorph
Morph
(dp404
g45
(lp405
Vp
aVa
aVx
aVa:
p406
aVt
aVi
aVt
asb(imorph
Morph
(dp407
g45
(lp408
Vp
aVa
aVx
aVa
aVt
aVh
aVi
aVn
asb(imorph
Morph
(dp409
g45
(lp410
Vp
aVa
aVx
aVa
aVt
aVn
aVi
aVt
asbtp411
(imorph
Morph
p412
(dp413
g45
(lp414
Vp
aVa
aVx
ag261
aVt
asbs((imorph
Morph
(dp415
g45
(lp416
Vm
aVe:
p417
aVk
aVi
aVt
asb(imorph
Morph
(dp418
g45
(lp419
Vm
aVe
aVk
aVh
aVi
aVn
asb(imorph
Morph
(dp420
g45
(lp421
Vm
aVe
aVk
aVn
aVi
aVt
asbtp422
(imorph
Morph
p423
(dp424
g45
(lp425
Vm
ag395
aVk
asbs(g152
g155
g158
tp426
(imorph
Morph
p427
(dp428
g45
(lp429
Vm
aVu
aVt
asbs(g247
g251
g254
tp430
(imorph
Morph
p431
(dp432
g45
(lp433
Vs
ag261
aVp
asbs((imorph
Morph
p434
(dp435
g45
(lp436
V\u0294
aVo:
p437
aVt
aVu
aVt
asb(imorph
Morph
p438
(dp439
g45
(lp440
V\u0294
aVo
aVt
aVh
aVu
aVn
asb(imorph
Morph
p441
(dp442
g45
(lp443
V\u0294
aVo
aVt
aVn
aVu
aVt
asbtp444
(imorph
Morph
p445
(dp446
g45
(lp447
V\u0294
ag372
aVt
asbssg94
(lp448
(imorph
Morph
p449
(dp450
g45
(lp451
Vi
aVt
asba(imorph
Morph
p452
(dp453
g45
(lp454
Vh
aVi
aVn
asba(imorph
Morph
p455
(dp456
g45
(lp457
Vn
aVi
aVt
asbasbF9584.0327579975128
tp458
asS'problem'
p459
S'Halle_153_Yokuts'
p460
sS'finalFrontier'
p461
g6
(csolution
Frontier
p462
g8
NtRp463
(dp464
g41
g346
sg94
g448
sg53
g356
sS'frontiers'
p465
(lp466
(lp467
g288
aa(lp468
g318
aasbsS'parameters'
p469
g6
(cargparse
Namespace
p470
g8
NtRp471
(dp472
S'restore'
p473
NsS'features'
p474
S'simple'
p475
sS'universal'
p476
NsS'restrict'
p477
NsS'seed'
p478
S'0'
sS'serial'
p479
I00
sS'alignment'
p480
I00
sS'top'
p481
I1
sS'maximumDepth'
p482
I3
sS'window'
p483
NsS'minimizeBits'
p484
I5
sS'samples'
p485
I30
sS'save'
p486
NsS'resume'
p487
I00
sS'disableClean'
p488
I00
sS'stemBaseline'
p489
I30
sS'dummy'
p490
I00
sS'task'
p491
S'CEGIS'
p492
sS'geometry'
p493
NsS'verbosity'
p494
I0
sS'timeout'
p495
F24
sS'debug'
p496
NsS'cores'
p497
I40
sg459
S'Halle_153_Yokuts'
p498
sS'mergeFrontiers'
p499
I00
sbsb.