(iresult
Result
p1
(dp2
S'startTime'
p3
F1592313660.9871099
sS'solutionSequence'
p4
(lp5
(ccopy_reg
_reconstructor
p6
(csolution
Solution
p7
c__builtin__
object
p8
NtRp9
(dp10
S'rules'
p11
(lp12
(irule
Rule
p13
(dp14
S'leftTriggers'
p15
(irule
Guard
p16
(dp17
S'endOfString'
p18
I00
sS'specifications'
p19
(lp20
(irule
FeatureMatrix
p21
(dp22
S'featuresAndPolarities'
p23
(lp24
(I00
S'continuant'
p25
tp26
asS'representation'
p27
V[ -continuant ]
p28
sbasS'optionalEnding'
p29
I00
sg27
g28
sS'starred'
p30
I00
sS'side'
p31
S'L'
sbsS'structuralChange'
p32
(irule
ConstantPhoneme
p33
(dp34
S'p'
Vu\u0301
p35
sbsS'rightTriggers'
p36
(irule
Guard
p37
(dp38
g18
I00
sg19
(lp39
sg29
I00
sg27
V
sg30
I00
sg31
S'R'
sbsS'focus'
p40
(irule
FeatureMatrix
p41
(dp42
g23
(lp43
sg27
V[  ]
p44
sbsg27
V[  ] ---> u\u0301 / [ -continuant ] _ 
p45
sba(irule
Rule
p46
(dp47
g15
(irule
Guard
p48
(dp49
g18
I00
sg19
(lp50
(irule
FeatureMatrix
p51
(dp52
g23
(lp53
sg27
V[  ]
p54
sba(irule
ConstantPhoneme
p55
(dp56
S'p'
g35
sbasg29
I00
sg27
Vu\u0301 [  ]
p57
sg30
I00
sg31
S'L'
sbsg32
(irule
FeatureMatrix
p58
(dp59
g23
(lp60
(I00
S'highTone'
p61
tp62
asg27
V[ -highTone ]
p63
sbsg36
(irule
Guard
p64
(dp65
g18
I00
sg19
(lp66
sg29
I00
sg27
V
sg30
I00
sg31
S'R'
sbsg40
(irule
FeatureMatrix
p67
(dp68
g23
(lp69
sg27
V[  ]
p70
sbsg27
V[  ] ---> [ -highTone ] / u\u0301 [  ] _ 
p71
sbasS'prefixes'
p72
(lp73
(imorph
Morph
p74
(dp75
S'phonemes'
p76
(lp77
sba(imorph
Morph
p78
(dp79
g76
(lp80
sba(imorph
Morph
p81
(dp82
g76
(lp83
sba(imorph
Morph
p84
(dp85
g76
(lp86
sbasS'underlyingForms'
p87
(dp88
((imorph
Morph
p89
(dp90
g76
(lp91
Vv
aVr
aVu\u0301
p92
asb(imorph
Morph
p93
(dp94
g76
(lp95
Vv
aVr
aVa\u0301
p96
aVl
asb(imorph
Morph
p97
(dp98
g76
(lp99
Vv
aVr
aVa
aVl
aVa\u0301
p100
asb(imorph
Morph
p101
(dp102
g76
(lp103
Vv
aVr
aVa\u0301
p104
aVl^y
p105
aVi
asbtp106
(imorph
Morph
p107
(dp108
g76
(lp109
Vv
aVr
asbs((imorph
Morph
p110
(dp111
g76
(lp112
Vv^y
p113
aVi
aVr
aVn
aVu\u0301
p114
asb(imorph
Morph
p115
(dp116
g76
(lp117
Vv^y
p118
aVi
aVr
aVn
aVu\u0301
p119
aVl
asb(imorph
Morph
p120
(dp121
g76
(lp122
Vv^y
p123
aVi
aVr
aVn
aVu\u0301
p124
aVl
aVa
asb(imorph
Morph
p125
(dp126
g76
(lp127
Vv^y
p128
aVi
aVr
aVn
aVu\u0301
p129
aVl^y
p130
aVi
asbtp131
(imorph
Morph
p132
(dp133
g76
(lp134
Vv^y
p135
aVi
aVr
aVn
asbssS'suffixes'
p136
(lp137
(imorph
Morph
p138
(dp139
g76
(lp140
g35
asba(imorph
Morph
p141
(dp142
g76
(lp143
Va\u0301
p144
aVl
asba(imorph
Morph
p145
(dp146
g76
(lp147
Va
aVl
ag144
asba(imorph
Morph
p148
(dp149
g76
(lp150
g144
aVl^y
p151
aVi
asbasbF473.59925603866577
tp152
asS'problem'
p153
S'Halle_115_Russian'
p154
sS'finalFrontier'
p155
g6
(csolution
Frontier
p156
g8
NtRp157
(dp158
g72
g73
sg136
g137
sg87
g88
sS'frontiers'
p159
(lp160
(lp161
(irule
Rule
p162
(dp163
g15
(irule
Guard
p164
(dp165
g18
I00
sg19
(lp166
(irule
FeatureMatrix
p167
(dp168
g23
(lp169
(I00
S'continuant'
p170
tp171
asg27
V[ -continuant ]
p172
sbasg29
I00
sg27
g172
sg30
I00
sg31
S'L'
sbsg32
(irule
ConstantPhoneme
p173
(dp174
S'p'
Vu\u0301
p175
sbsg36
(irule
Guard
p176
(dp177
g18
I00
sg19
(lp178
sg29
I00
sg27
V
sg30
I00
sg31
S'R'
sbsg40
(irule
FeatureMatrix
p179
(dp180
g23
(lp181
sg27
V[  ]
p182
sbsg27
V[  ] ---> u\u0301 / [ -continuant ] _ 
p183
sba(irule
Rule
p184
(dp185
g15
(irule
Guard
p186
(dp187
g18
I00
sg19
(lp188
(irule
ConstantPhoneme
p189
(dp190
S'p'
Vn
sbasg29
I00
sg27
Vn
sg30
I00
sg31
S'L'
sbsg32
(irule
ConstantPhoneme
p191
(dp192
S'p'
g175
sbsg36
(irule
Guard
p193
(dp194
g18
I00
sg19
(lp195
sg29
I00
sg27
V
sg30
I00
sg31
S'R'
sbsg40
(irule
FeatureMatrix
p196
(dp197
g23
(lp198
sg27
V[  ]
p199
sbsg27
V[  ] ---> u\u0301 / n _ 
p200
sba(irule
Rule
p201
(dp202
g15
(irule
Guard
p203
(dp204
g18
I00
sg19
(lp205
(irule
FeatureMatrix
p206
(dp207
g23
(lp208
(I01
S'nasal'
p209
tp210
asg27
V[ +nasal ]
p211
sbasg29
I00
sg27
g211
sg30
I00
sg31
S'L'
sbsg32
(irule
ConstantPhoneme
p212
(dp213
S'p'
g175
sbsg36
(irule
Guard
p214
(dp215
g18
I00
sg19
(lp216
sg29
I00
sg27
V
sg30
I00
sg31
S'R'
sbsg40
(irule
FeatureMatrix
p217
(dp218
g23
(lp219
sg27
V[  ]
p220
sbsg27
V[  ] ---> u\u0301 / [ +nasal ] _ 
p221
sba(irule
Rule
p222
(dp223
g15
(irule
Guard
p224
(dp225
g18
I00
sg19
(lp226
(irule
ConstantPhoneme
p227
(dp228
S'p'
Vn
sbasg29
I00
sg27
Vn
sg30
I00
sg31
S'L'
sbsg32
(irule
ConstantPhoneme
p229
(dp230
S'p'
g175
sbsg36
(irule
Guard
p231
(dp232
g18
I00
sg19
(lp233
(irule
FeatureMatrix
p234
(dp235
g23
(lp236
sg27
V[  ]
p237
sbasg29
I00
sg27
g237
sg30
I00
sg31
S'R'
sbsg40
(irule
FeatureMatrix
p238
(dp239
g23
(lp240
sg27
V[  ]
p241
sbsg27
V[  ] ---> u\u0301 / n _ [  ]
p242
sba(irule
Rule
p243
(dp244
g15
(irule
Guard
p245
(dp246
g18
I00
sg19
(lp247
(irule
ConstantPhoneme
p248
(dp249
S'p'
Vn
sbasg29
I00
sg27
Vn
sg30
I00
sg31
S'L'
sbsg32
(irule
ConstantPhoneme
p250
(dp251
S'p'
g175
sbsg36
(irule
Guard
p252
(dp253
g18
I00
sg19
(lp254
sg29
I00
sg27
V
sg30
I00
sg31
S'R'
sbsg40
(irule
FeatureMatrix
p255
(dp256
g23
(lp257
(I00
S'anterior'
p258
tp259
asg27
V[ -anterior ]
p260
sbsg27
V[ -anterior ] ---> u\u0301 / n _ 
p261
sba(irule
Rule
p262
(dp263
g15
(irule
Guard
p264
(dp265
g18
I00
sg19
(lp266
(irule
FeatureMatrix
p267
(dp268
g23
(lp269
(I01
g209
tp270
asg27
V[ +nasal ]
p271
sbasg29
I00
sg27
g271
sg30
I00
sg31
S'L'
sbsg32
(irule
ConstantPhoneme
p272
(dp273
S'p'
g175
sbsg36
(irule
Guard
p274
(dp275
g18
I00
sg19
(lp276
(irule
FeatureMatrix
p277
(dp278
g23
(lp279
sg27
V[  ]
p280
sbasg29
I00
sg27
g280
sg30
I00
sg31
S'R'
sbsg40
(irule
FeatureMatrix
p281
(dp282
g23
(lp283
sg27
V[  ]
p284
sbsg27
V[  ] ---> u\u0301 / [ +nasal ] _ [  ]
p285
sba(irule
Rule
p286
(dp287
g15
(irule
Guard
p288
(dp289
g18
I00
sg19
(lp290
(irule
FeatureMatrix
p291
(dp292
g23
(lp293
(I00
g170
tp294
asg27
V[ -continuant ]
p295
sbasg29
I00
sg27
g295
sg30
I00
sg31
S'L'
sbsg32
(irule
ConstantPhoneme
p296
(dp297
S'p'
g175
sbsg36
(irule
Guard
p298
(dp299
g18
I00
sg19
(lp300
(irule
FeatureMatrix
p301
(dp302
g23
(lp303
sg27
V[  ]
p304
sbasg29
I00
sg27
g304
sg30
I00
sg31
S'R'
sbsg40
(irule
FeatureMatrix
p305
(dp306
g23
(lp307
sg27
V[  ]
p308
sbsg27
V[  ] ---> u\u0301 / [ -continuant ] _ [  ]
p309
sba(irule
Rule
p310
(dp311
g15
(irule
Guard
p312
(dp313
g18
I00
sg19
(lp314
(irule
ConstantPhoneme
p315
(dp316
S'p'
Vn
sbasg29
I00
sg27
Vn
sg30
I00
sg31
S'L'
sbsg32
(irule
ConstantPhoneme
p317
(dp318
S'p'
g175
sbsg36
(irule
Guard
p319
(dp320
g18
I00
sg19
(lp321
sg29
I00
sg27
V
sg30
I00
sg31
S'R'
sbsg40
(irule
FeatureMatrix
p322
(dp323
g23
(lp324
(I01
S'voice'
p325
tp326
asg27
V[ +voice ]
p327
sbsg27
V[ +voice ] ---> u\u0301 / n _ 
p328
sba(irule
Rule
p329
(dp330
g15
(irule
Guard
p331
(dp332
g18
I00
sg19
(lp333
(irule
FeatureMatrix
p334
(dp335
g23
(lp336
(I01
g209
tp337
a(I01
S'sonorant'
p338
tp339
asg27
V[ +nasal +sonorant ]
p340
sbasg29
I00
sg27
g340
sg30
I00
sg31
S'L'
sbsg32
(irule
ConstantPhoneme
p341
(dp342
S'p'
g175
sbsg36
(irule
Guard
p343
(dp344
g18
I00
sg19
(lp345
sg29
I00
sg27
V
sg30
I00
sg31
S'R'
sbsg40
(irule
FeatureMatrix
p346
(dp347
g23
(lp348
sg27
V[  ]
p349
sbsg27
V[  ] ---> u\u0301 / [ +nasal +sonorant ] _ 
p350
sba(irule
Rule
p351
(dp352
g15
(irule
Guard
p353
(dp354
g18
I00
sg19
(lp355
(irule
ConstantPhoneme
p356
(dp357
S'p'
Vn
sbasg29
I00
sg27
Vn
sg30
I00
sg31
S'L'
sbsg32
(irule
ConstantPhoneme
p358
(dp359
S'p'
g175
sbsg36
(irule
Guard
p360
(dp361
g18
I00
sg19
(lp362
sg29
I00
sg27
V
sg30
I00
sg31
S'R'
sbsg40
(irule
FeatureMatrix
p363
(dp364
g23
(lp365
(I01
S'vowel'
p366
tp367
asg27
V[ +vowel ]
p368
sbsg27
V[ +vowel ] ---> u\u0301 / n _ 
p369
sba(irule
Rule
p370
(dp371
g15
(irule
Guard
p372
(dp373
g18
I00
sg19
(lp374
(irule
FeatureMatrix
p375
(dp376
g23
(lp377
(I01
g209
tp378
a(I00
S'sibilant'
p379
tp380
asg27
V[ +nasal -sibilant ]
p381
sbasg29
I00
sg27
g381
sg30
I00
sg31
S'L'
sbsg32
(irule
ConstantPhoneme
p382
(dp383
S'p'
g175
sbsg36
(irule
Guard
p384
(dp385
g18
I00
sg19
(lp386
sg29
I00
sg27
V
sg30
I00
sg31
S'R'
sbsg40
(irule
FeatureMatrix
p387
(dp388
g23
(lp389
sg27
V[  ]
p390
sbsg27
V[  ] ---> u\u0301 / [ +nasal -sibilant ] _ 
p391
sba(irule
Rule
p392
(dp393
g15
(irule
Guard
p394
(dp395
g18
I00
sg19
(lp396
(irule
ConstantPhoneme
p397
(dp398
S'p'
Vn
sbasg29
I00
sg27
Vn
sg30
I00
sg31
S'L'
sbsg32
(irule
ConstantPhoneme
p399
(dp400
S'p'
g175
sbsg36
(irule
Guard
p401
(dp402
g18
I00
sg19
(lp403
sg29
I00
sg27
V
sg30
I00
sg31
S'R'
sbsg40
(irule
FeatureMatrix
p404
(dp405
g23
(lp406
(I00
g379
tp407
asg27
V[ -sibilant ]
p408
sbsg27
V[ -sibilant ] ---> u\u0301 / n _ 
p409
sba(irule
Rule
p410
(dp411
g15
(irule
Guard
p412
(dp413
g18
I00
sg19
(lp414
(irule
FeatureMatrix
p415
(dp416
g23
(lp417
(I01
g209
tp418
a(I00
S'back'
p419
tp420
asg27
V[ +nasal -back ]
p421
sbasg29
I00
sg27
g421
sg30
I00
sg31
S'L'
sbsg32
(irule
ConstantPhoneme
p422
(dp423
S'p'
g175
sbsg36
(irule
Guard
p424
(dp425
g18
I00
sg19
(lp426
sg29
I00
sg27
V
sg30
I00
sg31
S'R'
sbsg40
(irule
FeatureMatrix
p427
(dp428
g23
(lp429
sg27
V[  ]
p430
sbsg27
V[  ] ---> u\u0301 / [ +nasal -back ] _ 
p431
sba(irule
Rule
p432
(dp433
g15
(irule
Guard
p434
(dp435
g18
I00
sg19
(lp436
(irule
ConstantPhoneme
p437
(dp438
S'p'
Vn
sba(irule
FeatureMatrix
p439
(dp440
g23
(lp441
sg27
V[  ]
p442
sbasg29
I00
sg27
V[  ] n
p443
sg30
I00
sg31
S'L'
sbsg32
(irule
ConstantPhoneme
p444
(dp445
S'p'
g175
sbsg36
(irule
Guard
p446
(dp447
g18
I00
sg19
(lp448
sg29
I00
sg27
V
sg30
I00
sg31
S'R'
sbsg40
(irule
FeatureMatrix
p449
(dp450
g23
(lp451
sg27
V[  ]
p452
sbsg27
V[  ] ---> u\u0301 / [  ] n _ 
p453
sba(irule
Rule
p454
(dp455
g15
(irule
Guard
p456
(dp457
g18
I00
sg19
(lp458
(irule
ConstantPhoneme
p459
(dp460
S'p'
Vn
sbasg29
I00
sg27
Vn
sg30
I00
sg31
S'L'
sbsg32
(irule
ConstantPhoneme
p461
(dp462
S'p'
g175
sbsg36
(irule
Guard
p463
(dp464
g18
I00
sg19
(lp465
sg29
I00
sg27
V
sg30
I00
sg31
S'R'
sbsg40
(irule
FeatureMatrix
p466
(dp467
g23
(lp468
(I00
g209
tp469
asg27
V[ -nasal ]
p470
sbsg27
V[ -nasal ] ---> u\u0301 / n _ 
p471
sba(irule
Rule
p472
(dp473
g15
(irule
Guard
p474
(dp475
g18
I00
sg19
(lp476
(irule
ConstantPhoneme
p477
(dp478
S'p'
Vn
sbasg29
I00
sg27
Vn
sg30
I00
sg31
S'L'
sbsg32
(irule
ConstantPhoneme
p479
(dp480
S'p'
g175
sbsg36
(irule
Guard
p481
(dp482
g18
I00
sg19
(lp483
sg29
I00
sg27
V
sg30
I00
sg31
S'R'
sbsg40
(irule
FeatureMatrix
p484
(dp485
g23
(lp486
(I00
S'high'
p487
tp488
asg27
V[ -high ]
p489
sbsg27
V[ -high ] ---> u\u0301 / n _ 
p490
sba(irule
Rule
p491
(dp492
g15
(irule
Guard
p493
(dp494
g18
I00
sg19
(lp495
(irule
FeatureMatrix
p496
(dp497
g23
(lp498
(I01
g209
tp499
a(I00
S'highTone'
p500
tp501
asg27
V[ +nasal -highTone ]
p502
sbasg29
I00
sg27
g502
sg30
I00
sg31
S'L'
sbsg32
(irule
ConstantPhoneme
p503
(dp504
S'p'
g175
sbsg36
(irule
Guard
p505
(dp506
g18
I00
sg19
(lp507
sg29
I00
sg27
V
sg30
I00
sg31
S'R'
sbsg40
(irule
FeatureMatrix
p508
(dp509
g23
(lp510
sg27
V[  ]
p511
sbsg27
V[  ] ---> u\u0301 / [ +nasal -highTone ] _ 
p512
sba(irule
Rule
p513
(dp514
g15
(irule
Guard
p515
(dp516
g18
I00
sg19
(lp517
(irule
FeatureMatrix
p518
(dp519
g23
(lp520
(I01
g209
tp521
a(I01
g325
tp522
asg27
V[ +nasal +voice ]
p523
sbasg29
I00
sg27
g523
sg30
I00
sg31
S'L'
sbsg32
(irule
ConstantPhoneme
p524
(dp525
S'p'
g175
sbsg36
(irule
Guard
p526
(dp527
g18
I00
sg19
(lp528
sg29
I00
sg27
V
sg30
I00
sg31
S'R'
sbsg40
(irule
FeatureMatrix
p529
(dp530
g23
(lp531
sg27
V[  ]
p532
sbsg27
V[  ] ---> u\u0301 / [ +nasal +voice ] _ 
p533
sba(irule
Rule
p534
(dp535
g15
(irule
Guard
p536
(dp537
g18
I00
sg19
(lp538
(irule
FeatureMatrix
p539
(dp540
g23
(lp541
(I01
g209
tp542
a(I00
g366
tp543
asg27
V[ +nasal -vowel ]
p544
sbasg29
I00
sg27
g544
sg30
I00
sg31
S'L'
sbsg32
(irule
ConstantPhoneme
p545
(dp546
S'p'
g175
sbsg36
(irule
Guard
p547
(dp548
g18
I00
sg19
(lp549
sg29
I00
sg27
V
sg30
I00
sg31
S'R'
sbsg40
(irule
FeatureMatrix
p550
(dp551
g23
(lp552
sg27
V[  ]
p553
sbsg27
V[  ] ---> u\u0301 / [ +nasal -vowel ] _ 
p554
sba(irule
Rule
p555
(dp556
g15
(irule
Guard
p557
(dp558
g18
I00
sg19
(lp559
(irule
ConstantPhoneme
p560
(dp561
S'p'
Vn
sbasg29
I00
sg27
Vn
sg30
I00
sg31
S'L'
sbsg32
(irule
ConstantPhoneme
p562
(dp563
S'p'
g175
sbsg36
(irule
Guard
p564
(dp565
g18
I00
sg19
(lp566
sg29
I00
sg27
V
sg30
I00
sg31
S'R'
sbsg40
(irule
FeatureMatrix
p567
(dp568
g23
(lp569
(I00
S'glide'
p570
tp571
asg27
V[ -glide ]
p572
sbsg27
V[ -glide ] ---> u\u0301 / n _ 
p573
sba(irule
Rule
p574
(dp575
g15
(irule
Guard
p576
(dp577
g18
I00
sg19
(lp578
(irule
ConstantPhoneme
p579
(dp580
S'p'
Vn
sbasg29
I00
sg27
Vn
sg30
I00
sg31
S'L'
sbsg32
(irule
ConstantPhoneme
p581
(dp582
S'p'
g175
sbsg36
(irule
Guard
p583
(dp584
g18
I00
sg19
(lp585
sg29
I00
sg27
V
sg30
I00
sg31
S'R'
sbsg40
(irule
FeatureMatrix
p586
(dp587
g23
(lp588
(I00
S'lateral'
p589
tp590
asg27
V[ -lateral ]
p591
sbsg27
V[ -lateral ] ---> u\u0301 / n _ 
p592
sba(irule
Rule
p593
(dp594
g15
(irule
Guard
p595
(dp596
g18
I00
sg19
(lp597
(irule
FeatureMatrix
p598
(dp599
g23
(lp600
(I01
g209
tp601
a(I00
g589
tp602
asg27
V[ +nasal -lateral ]
p603
sbasg29
I00
sg27
g603
sg30
I00
sg31
S'L'
sbsg32
(irule
ConstantPhoneme
p604
(dp605
S'p'
g175
sbsg36
(irule
Guard
p606
(dp607
g18
I00
sg19
(lp608
sg29
I00
sg27
V
sg30
I00
sg31
S'R'
sbsg40
(irule
FeatureMatrix
p609
(dp610
g23
(lp611
sg27
V[  ]
p612
sbsg27
V[  ] ---> u\u0301 / [ +nasal -lateral ] _ 
p613
sba(irule
Rule
p614
(dp615
g15
(irule
Guard
p616
(dp617
g18
I00
sg19
(lp618
(irule
FeatureMatrix
p619
(dp620
g23
(lp621
(I01
g209
tp622
asg27
V[ +nasal ]
p623
sbasg29
I00
sg27
g623
sg30
I00
sg31
S'L'
sbsg32
(irule
ConstantPhoneme
p624
(dp625
S'p'
g175
sbsg36
(irule
Guard
p626
(dp627
g18
I00
sg19
(lp628
sg29
I00
sg27
V
sg30
I00
sg31
S'R'
sbsg40
(irule
FeatureMatrix
p629
(dp630
g23
(lp631
(I01
g325
tp632
asg27
V[ +voice ]
p633
sbsg27
V[ +voice ] ---> u\u0301 / [ +nasal ] _ 
p634
sba(irule
Rule
p635
(dp636
g15
(irule
Guard
p637
(dp638
g18
I00
sg19
(lp639
(irule
FeatureMatrix
p640
(dp641
g23
(lp642
(I01
g209
tp643
asg27
V[ +nasal ]
p644
sbasg29
I00
sg27
g644
sg30
I00
sg31
S'L'
sbsg32
(irule
ConstantPhoneme
p645
(dp646
S'p'
g175
sbsg36
(irule
Guard
p647
(dp648
g18
I00
sg19
(lp649
sg29
I00
sg27
V
sg30
I00
sg31
S'R'
sbsg40
(irule
FeatureMatrix
p650
(dp651
g23
(lp652
(I00
g589
tp653
asg27
V[ -lateral ]
p654
sbsg27
V[ -lateral ] ---> u\u0301 / [ +nasal ] _ 
p655
sba(irule
Rule
p656
(dp657
g15
(irule
Guard
p658
(dp659
g18
I00
sg19
(lp660
(irule
FeatureMatrix
p661
(dp662
g23
(lp663
(I01
g209
tp664
asg27
V[ +nasal ]
p665
sba(irule
FeatureMatrix
p666
(dp667
g23
(lp668
sg27
V[  ]
p669
sbasg29
I00
sg27
V[  ] [ +nasal ]
p670
sg30
I00
sg31
S'L'
sbsg32
(irule
ConstantPhoneme
p671
(dp672
S'p'
g175
sbsg36
(irule
Guard
p673
(dp674
g18
I00
sg19
(lp675
sg29
I00
sg27
V
sg30
I00
sg31
S'R'
sbsg40
(irule
FeatureMatrix
p676
(dp677
g23
(lp678
sg27
V[  ]
p679
sbsg27
V[  ] ---> u\u0301 / [  ] [ +nasal ] _ 
p680
sba(irule
Rule
p681
(dp682
g15
(irule
Guard
p683
(dp684
g18
I00
sg19
(lp685
(irule
FeatureMatrix
p686
(dp687
g23
(lp688
(I01
g209
tp689
a(I00
g487
tp690
asg27
V[ +nasal -high ]
p691
sbasg29
I00
sg27
g691
sg30
I00
sg31
S'L'
sbsg32
(irule
ConstantPhoneme
p692
(dp693
S'p'
g175
sbsg36
(irule
Guard
p694
(dp695
g18
I00
sg19
(lp696
sg29
I00
sg27
V
sg30
I00
sg31
S'R'
sbsg40
(irule
FeatureMatrix
p697
(dp698
g23
(lp699
sg27
V[  ]
p700
sbsg27
V[  ] ---> u\u0301 / [ +nasal -high ] _ 
p701
sba(irule
Rule
p702
(dp703
g15
(irule
Guard
p704
(dp705
g18
I00
sg19
(lp706
(irule
FeatureMatrix
p707
(dp708
g23
(lp709
(I00
g170
tp710
a(I00
g419
tp711
asg27
V[ -back -continuant ]
p712
sbasg29
I00
sg27
g712
sg30
I00
sg31
S'L'
sbsg32
(irule
ConstantPhoneme
p713
(dp714
S'p'
g175
sbsg36
(irule
Guard
p715
(dp716
g18
I00
sg19
(lp717
sg29
I00
sg27
V
sg30
I00
sg31
S'R'
sbsg40
(irule
FeatureMatrix
p718
(dp719
g23
(lp720
sg27
V[  ]
p721
sbsg27
V[  ] ---> u\u0301 / [ -back -continuant ] _ 
p722
sba(irule
Rule
p723
(dp724
g15
(irule
Guard
p725
(dp726
g18
I00
sg19
(lp727
(irule
FeatureMatrix
p728
(dp729
g23
(lp730
(I01
g258
tp731
a(I01
g338
tp732
asg27
V[ +anterior +sonorant ]
p733
sbasg29
I00
sg27
g733
sg30
I00
sg31
S'L'
sbsg32
(irule
ConstantPhoneme
p734
(dp735
S'p'
g175
sbsg36
(irule
Guard
p736
(dp737
g18
I00
sg19
(lp738
sg29
I00
sg27
V
sg30
I00
sg31
S'R'
sbsg40
(irule
FeatureMatrix
p739
(dp740
g23
(lp741
sg27
V[  ]
p742
sbsg27
V[  ] ---> u\u0301 / [ +anterior +sonorant ] _ 
p743
sba(irule
Rule
p744
(dp745
g15
(irule
Guard
p746
(dp747
g18
I00
sg19
(lp748
(irule
FeatureMatrix
p749
(dp750
g23
(lp751
(I00
g170
tp752
asg27
V[ -continuant ]
p753
sba(irule
FeatureMatrix
p754
(dp755
g23
(lp756
sg27
V[  ]
p757
sbasg29
I00
sg27
V[  ] [ -continuant ]
p758
sg30
I00
sg31
S'L'
sbsg32
(irule
ConstantPhoneme
p759
(dp760
S'p'
g175
sbsg36
(irule
Guard
p761
(dp762
g18
I00
sg19
(lp763
sg29
I00
sg27
V
sg30
I00
sg31
S'R'
sbsg40
(irule
FeatureMatrix
p764
(dp765
g23
(lp766
sg27
V[  ]
p767
sbsg27
V[  ] ---> u\u0301 / [  ] [ -continuant ] _ 
p768
sba(irule
Rule
p769
(dp770
g15
(irule
Guard
p771
(dp772
g18
I00
sg19
(lp773
(irule
ConstantPhoneme
p774
(dp775
S'p'
Vn
sbasg29
I00
sg27
Vn
sg30
I00
sg31
S'L'
sbsg32
(irule
ConstantPhoneme
p776
(dp777
S'p'
g175
sbsg36
(irule
Guard
p778
(dp779
g18
I00
sg19
(lp780
sg29
I00
sg27
V
sg30
I00
sg31
S'R'
sbsg40
(irule
FeatureMatrix
p781
(dp782
g23
(lp783
(I00
S'palletized'
p784
tp785
asg27
V[ -palletized ]
p786
sbsg27
V[ -palletized ] ---> u\u0301 / n _ 
p787
sba(irule
Rule
p788
(dp789
g15
(irule
Guard
p790
(dp791
g18
I00
sg19
(lp792
(irule
FeatureMatrix
p793
(dp794
g23
(lp795
(I00
g170
tp796
a(I01
g325
tp797
asg27
V[ +voice -continuant ]
p798
sbasg29
I00
sg27
g798
sg30
I00
sg31
S'L'
sbsg32
(irule
ConstantPhoneme
p799
(dp800
S'p'
g175
sbsg36
(irule
Guard
p801
(dp802
g18
I00
sg19
(lp803
sg29
I00
sg27
V
sg30
I00
sg31
S'R'
sbsg40
(irule
FeatureMatrix
p804
(dp805
g23
(lp806
sg27
V[  ]
p807
sbsg27
V[  ] ---> u\u0301 / [ +voice -continuant ] _ 
p808
sba(irule
Rule
p809
(dp810
g15
(irule
Guard
p811
(dp812
g18
I00
sg19
(lp813
(irule
FeatureMatrix
p814
(dp815
g23
(lp816
(I01
g209
tp817
asg27
V[ +nasal ]
p818
sbasg29
I00
sg27
g818
sg30
I00
sg31
S'L'
sbsg32
(irule
ConstantPhoneme
p819
(dp820
S'p'
g175
sbsg36
(irule
Guard
p821
(dp822
g18
I00
sg19
(lp823
sg29
I00
sg27
V
sg30
I00
sg31
S'R'
sbsg40
(irule
FeatureMatrix
p824
(dp825
g23
(lp826
(I00
g379
tp827
asg27
V[ -sibilant ]
p828
sbsg27
V[ -sibilant ] ---> u\u0301 / [ +nasal ] _ 
p829
sba(irule
Rule
p830
(dp831
g15
(irule
Guard
p832
(dp833
g18
I00
sg19
(lp834
(irule
FeatureMatrix
p835
(dp836
g23
(lp837
(I00
S'liquid'
p838
tp839
a(I01
S'coronal'
p840
tp841
asg27
V[ +coronal -liquid ]
p842
sbasg29
I00
sg27
g842
sg30
I00
sg31
S'L'
sbsg32
(irule
ConstantPhoneme
p843
(dp844
S'p'
g175
sbsg36
(irule
Guard
p845
(dp846
g18
I00
sg19
(lp847
sg29
I00
sg27
V
sg30
I00
sg31
S'R'
sbsg40
(irule
FeatureMatrix
p848
(dp849
g23
(lp850
sg27
V[  ]
p851
sbsg27
V[  ] ---> u\u0301 / [ +coronal -liquid ] _ 
p852
sba(irule
Rule
p853
(dp854
g15
(irule
Guard
p855
(dp856
g18
I00
sg19
(lp857
(irule
ConstantPhoneme
p858
(dp859
S'p'
Vn
sbasg29
I00
sg27
Vn
sg30
I00
sg31
S'L'
sbsg32
(irule
ConstantPhoneme
p860
(dp861
S'p'
g175
sbsg36
(irule
Guard
p862
(dp863
g18
I00
sg19
(lp864
sg29
I00
sg27
V
sg30
I00
sg31
S'R'
sbsg40
(irule
FeatureMatrix
p865
(dp866
g23
(lp867
(I01
g338
tp868
asg27
V[ +sonorant ]
p869
sbsg27
V[ +sonorant ] ---> u\u0301 / n _ 
p870
sba(irule
Rule
p871
(dp872
g15
(irule
Guard
p873
(dp874
g18
I00
sg19
(lp875
(irule
FeatureMatrix
p876
(dp877
g23
(lp878
(I00
g170
tp879
asg27
V[ -continuant ]
p880
sbasg29
I00
sg27
g880
sg30
I00
sg31
S'L'
sbsg32
(irule
ConstantPhoneme
p881
(dp882
S'p'
g175
sbsg36
(irule
Guard
p883
(dp884
g18
I00
sg19
(lp885
sg29
I00
sg27
V
sg30
I00
sg31
S'R'
sbsg40
(irule
FeatureMatrix
p886
(dp887
g23
(lp888
(I00
g379
tp889
asg27
V[ -sibilant ]
p890
sbsg27
V[ -sibilant ] ---> u\u0301 / [ -continuant ] _ 
p891
sba(irule
Rule
p892
(dp893
g15
(irule
Guard
p894
(dp895
g18
I00
sg19
(lp896
(irule
ConstantPhoneme
p897
(dp898
S'p'
Vn
sbasg29
I00
sg27
Vn
sg30
I00
sg31
S'L'
sbsg32
(irule
ConstantPhoneme
p899
(dp900
S'p'
g175
sbsg36
(irule
Guard
p901
(dp902
g18
I00
sg19
(lp903
sg29
I00
sg27
V
sg30
I00
sg31
S'R'
sbsg40
(irule
FeatureMatrix
p904
(dp905
g23
(lp906
(I00
g840
tp907
asg27
V[ -coronal ]
p908
sbsg27
V[ -coronal ] ---> u\u0301 / n _ 
p909
sba(irule
Rule
p910
(dp911
g15
(irule
Guard
p912
(dp913
g18
I00
sg19
(lp914
(irule
FeatureMatrix
p915
(dp916
g23
(lp917
(I01
g209
tp918
asg27
V[ +nasal ]
p919
sbasg29
I00
sg27
g919
sg30
I00
sg31
S'L'
sbsg32
(irule
ConstantPhoneme
p920
(dp921
S'p'
g175
sbsg36
(irule
Guard
p922
(dp923
g18
I00
sg19
(lp924
sg29
I00
sg27
V
sg30
I00
sg31
S'R'
sbsg40
(irule
FeatureMatrix
p925
(dp926
g23
(lp927
(I00
g258
tp928
asg27
V[ -anterior ]
p929
sbsg27
V[ -anterior ] ---> u\u0301 / [ +nasal ] _ 
p930
sba(irule
Rule
p931
(dp932
g15
(irule
Guard
p933
(dp934
g18
I00
sg19
(lp935
(irule
FeatureMatrix
p936
(dp937
g23
(lp938
(I01
g258
tp939
a(I01
g840
tp940
asg27
V[ +anterior +coronal ]
p941
sbasg29
I00
sg27
g941
sg30
I00
sg31
S'L'
sbsg32
(irule
ConstantPhoneme
p942
(dp943
S'p'
g175
sbsg36
(irule
Guard
p944
(dp945
g18
I00
sg19
(lp946
sg29
I00
sg27
V
sg30
I00
sg31
S'R'
sbsg40
(irule
FeatureMatrix
p947
(dp948
g23
(lp949
sg27
V[  ]
p950
sbsg27
V[  ] ---> u\u0301 / [ +anterior +coronal ] _ 
p951
sba(irule
Rule
p952
(dp953
g15
(irule
Guard
p954
(dp955
g18
I00
sg19
(lp956
(irule
FeatureMatrix
p957
(dp958
g23
(lp959
(I01
g209
tp960
a(I00
S'low'
p961
tp962
asg27
V[ +nasal -low ]
p963
sbasg29
I00
sg27
g963
sg30
I00
sg31
S'L'
sbsg32
(irule
ConstantPhoneme
p964
(dp965
S'p'
g175
sbsg36
(irule
Guard
p966
(dp967
g18
I00
sg19
(lp968
sg29
I00
sg27
V
sg30
I00
sg31
S'R'
sbsg40
(irule
FeatureMatrix
p969
(dp970
g23
(lp971
sg27
V[  ]
p972
sbsg27
V[  ] ---> u\u0301 / [ +nasal -low ] _ 
p973
sba(irule
Rule
p974
(dp975
g15
(irule
Guard
p976
(dp977
g18
I00
sg19
(lp978
(irule
FeatureMatrix
p979
(dp980
g23
(lp981
(I00
g170
tp982
a(I00
g589
tp983
asg27
V[ -continuant -lateral ]
p984
sbasg29
I00
sg27
g984
sg30
I00
sg31
S'L'
sbsg32
(irule
ConstantPhoneme
p985
(dp986
S'p'
g175
sbsg36
(irule
Guard
p987
(dp988
g18
I00
sg19
(lp989
sg29
I00
sg27
V
sg30
I00
sg31
S'R'
sbsg40
(irule
FeatureMatrix
p990
(dp991
g23
(lp992
sg27
V[  ]
p993
sbsg27
V[  ] ---> u\u0301 / [ -continuant -lateral ] _ 
p994
sba(irule
Rule
p995
(dp996
g15
(irule
Guard
p997
(dp998
g18
I00
sg19
(lp999
(irule
FeatureMatrix
p1000
(dp1001
g23
(lp1002
(I00
g570
tp1003
a(I00
g170
tp1004
asg27
V[ -continuant -glide ]
p1005
sbasg29
I00
sg27
g1005
sg30
I00
sg31
S'L'
sbsg32
(irule
ConstantPhoneme
p1006
(dp1007
S'p'
g175
sbsg36
(irule
Guard
p1008
(dp1009
g18
I00
sg19
(lp1010
sg29
I00
sg27
V
sg30
I00
sg31
S'R'
sbsg40
(irule
FeatureMatrix
p1011
(dp1012
g23
(lp1013
sg27
V[  ]
p1014
sbsg27
V[  ] ---> u\u0301 / [ -continuant -glide ] _ 
p1015
sba(irule
Rule
p1016
(dp1017
g15
(irule
Guard
p1018
(dp1019
g18
I00
sg19
(lp1020
(irule
ConstantPhoneme
p1021
(dp1022
S'p'
Vn
sbasg29
I00
sg27
Vn
sg30
I00
sg31
S'L'
sbsg32
(irule
ConstantPhoneme
p1023
(dp1024
S'p'
g175
sbsg36
(irule
Guard
p1025
(dp1026
g18
I00
sg19
(lp1027
sg29
I00
sg27
V
sg30
I00
sg31
S'R'
sbsg40
(irule
FeatureMatrix
p1028
(dp1029
g23
(lp1030
(I01
g961
tp1031
asg27
V[ +low ]
p1032
sbsg27
V[ +low ] ---> u\u0301 / n _ 
p1033
sba(irule
Rule
p1034
(dp1035
g15
(irule
Guard
p1036
(dp1037
g18
I00
sg19
(lp1038
(irule
ConstantPhoneme
p1039
(dp1040
S'p'
Vn
sbasg29
I00
sg27
Vn
sg30
I00
sg31
S'L'
sbsg32
(irule
ConstantPhoneme
p1041
(dp1042
S'p'
g175
sbsg36
(irule
Guard
p1043
(dp1044
g18
I00
sg19
(lp1045
sg29
I00
sg27
V
sg30
I00
sg31
S'R'
sbsg40
(irule
FeatureMatrix
p1046
(dp1047
g23
(lp1048
(I00
S'rounded'
p1049
tp1050
asg27
V[ -rounded ]
p1051
sbsg27
V[ -rounded ] ---> u\u0301 / n _ 
p1052
sba(irule
Rule
p1053
(dp1054
g15
(irule
Guard
p1055
(dp1056
g18
I00
sg19
(lp1057
(irule
FeatureMatrix
p1058
(dp1059
g23
(lp1060
(I00
g170
tp1061
a(I00
g500
tp1062
asg27
V[ -continuant -highTone ]
p1063
sbasg29
I00
sg27
g1063
sg30
I00
sg31
S'L'
sbsg32
(irule
ConstantPhoneme
p1064
(dp1065
S'p'
g175
sbsg36
(irule
Guard
p1066
(dp1067
g18
I00
sg19
(lp1068
sg29
I00
sg27
V
sg30
I00
sg31
S'R'
sbsg40
(irule
FeatureMatrix
p1069
(dp1070
g23
(lp1071
sg27
V[  ]
p1072
sbsg27
V[  ] ---> u\u0301 / [ -continuant -highTone ] _ 
p1073
sba(irule
Rule
p1074
(dp1075
g15
(irule
Guard
p1076
(dp1077
g18
I00
sg19
(lp1078
(irule
FeatureMatrix
p1079
(dp1080
g23
(lp1081
(I00
g170
tp1082
a(I00
g487
tp1083
asg27
V[ -continuant -high ]
p1084
sbasg29
I00
sg27
g1084
sg30
I00
sg31
S'L'
sbsg32
(irule
ConstantPhoneme
p1085
(dp1086
S'p'
g175
sbsg36
(irule
Guard
p1087
(dp1088
g18
I00
sg19
(lp1089
sg29
I00
sg27
V
sg30
I00
sg31
S'R'
sbsg40
(irule
FeatureMatrix
p1090
(dp1091
g23
(lp1092
sg27
V[  ]
p1093
sbsg27
V[  ] ---> u\u0301 / [ -continuant -high ] _ 
p1094
sba(irule
Rule
p1095
(dp1096
g15
(irule
Guard
p1097
(dp1098
g18
I00
sg19
(lp1099
(irule
FeatureMatrix
p1100
(dp1101
g23
(lp1102
(I00
g170
tp1103
a(I01
g209
tp1104
asg27
V[ +nasal -continuant ]
p1105
sbasg29
I00
sg27
g1105
sg30
I00
sg31
S'L'
sbsg32
(irule
ConstantPhoneme
p1106
(dp1107
S'p'
g175
sbsg36
(irule
Guard
p1108
(dp1109
g18
I00
sg19
(lp1110
sg29
I00
sg27
V
sg30
I00
sg31
S'R'
sbsg40
(irule
FeatureMatrix
p1111
(dp1112
g23
(lp1113
sg27
V[  ]
p1114
sbsg27
V[  ] ---> u\u0301 / [ +nasal -continuant ] _ 
p1115
sba(irule
Rule
p1116
(dp1117
g15
(irule
Guard
p1118
(dp1119
g18
I00
sg19
(lp1120
(irule
FeatureMatrix
p1121
(dp1122
g23
(lp1123
(I00
g1049
tp1124
a(I00
g170
tp1125
asg27
V[ -continuant -rounded ]
p1126
sbasg29
I00
sg27
g1126
sg30
I00
sg31
S'L'
sbsg32
(irule
ConstantPhoneme
p1127
(dp1128
S'p'
g175
sbsg36
(irule
Guard
p1129
(dp1130
g18
I00
sg19
(lp1131
sg29
I00
sg27
V
sg30
I00
sg31
S'R'
sbsg40
(irule
FeatureMatrix
p1132
(dp1133
g23
(lp1134
sg27
V[  ]
p1135
sbsg27
V[  ] ---> u\u0301 / [ -continuant -rounded ] _ 
p1136
sba(irule
Rule
p1137
(dp1138
g15
(irule
Guard
p1139
(dp1140
g18
I00
sg19
(lp1141
(irule
FeatureMatrix
p1142
(dp1143
g23
(lp1144
(I01
g209
tp1145
a(I00
S'tense'
p1146
tp1147
asg27
V[ +nasal -tense ]
p1148
sbasg29
I00
sg27
g1148
sg30
I00
sg31
S'L'
sbsg32
(irule
ConstantPhoneme
p1149
(dp1150
S'p'
g175
sbsg36
(irule
Guard
p1151
(dp1152
g18
I00
sg19
(lp1153
sg29
I00
sg27
V
sg30
I00
sg31
S'R'
sbsg40
(irule
FeatureMatrix
p1154
(dp1155
g23
(lp1156
sg27
V[  ]
p1157
sbsg27
V[  ] ---> u\u0301 / [ +nasal -tense ] _ 
p1158
sba(irule
Rule
p1159
(dp1160
g15
(irule
Guard
p1161
(dp1162
g18
I00
sg19
(lp1163
(irule
ConstantPhoneme
p1164
(dp1165
S'p'
Vn
sbasg29
I00
sg27
Vn
sg30
I00
sg31
S'L'
sbsg32
(irule
ConstantPhoneme
p1166
(dp1167
S'p'
g175
sbsg36
(irule
Guard
p1168
(dp1169
g18
I00
sg19
(lp1170
sg29
I00
sg27
V
sg30
I00
sg31
S'R'
sbsg40
(irule
FeatureMatrix
p1171
(dp1172
g23
(lp1173
(I01
g419
tp1174
asg27
V[ +back ]
p1175
sbsg27
V[ +back ] ---> u\u0301 / n _ 
p1176
sba(irule
Rule
p1177
(dp1178
g15
(irule
Guard
p1179
(dp1180
g18
I00
sg19
(lp1181
(irule
FeatureMatrix
p1182
(dp1183
g23
(lp1184
(I01
g209
tp1185
a(I00
g784
tp1186
asg27
V[ +nasal -palletized ]
p1187
sbasg29
I00
sg27
g1187
sg30
I00
sg31
S'L'
sbsg32
(irule
ConstantPhoneme
p1188
(dp1189
S'p'
g175
sbsg36
(irule
Guard
p1190
(dp1191
g18
I00
sg19
(lp1192
sg29
I00
sg27
V
sg30
I00
sg31
S'R'
sbsg40
(irule
FeatureMatrix
p1193
(dp1194
g23
(lp1195
sg27
V[  ]
p1196
sbsg27
V[  ] ---> u\u0301 / [ +nasal -palletized ] _ 
p1197
sba(irule
Rule
p1198
(dp1199
g15
(irule
Guard
p1200
(dp1201
g18
I00
sg19
(lp1202
(irule
ConstantPhoneme
p1203
(dp1204
S'p'
Vn
sbasg29
I00
sg27
Vn
sg30
I00
sg31
S'L'
sbsg32
(irule
ConstantPhoneme
p1205
(dp1206
S'p'
g175
sbsg36
(irule
Guard
p1207
(dp1208
g18
I00
sg19
(lp1209
sg29
I00
sg27
V
sg30
I00
sg31
S'R'
sbsg40
(irule
FeatureMatrix
p1210
(dp1211
g23
(lp1212
(I01
g1146
tp1213
asg27
V[ +tense ]
p1214
sbsg27
V[ +tense ] ---> u\u0301 / n _ 
p1215
sba(irule
Rule
p1216
(dp1217
g15
(irule
Guard
p1218
(dp1219
g18
I00
sg19
(lp1220
(irule
FeatureMatrix
p1221
(dp1222
g23
(lp1223
(I01
g209
tp1224
asg27
V[ +nasal ]
p1225
sbasg29
I00
sg27
g1225
sg30
I00
sg31
S'L'
sbsg32
(irule
ConstantPhoneme
p1226
(dp1227
S'p'
g175
sbsg36
(irule
Guard
p1228
(dp1229
g18
I00
sg19
(lp1230
sg29
I00
sg27
V
sg30
I00
sg31
S'R'
sbsg40
(irule
FeatureMatrix
p1231
(dp1232
g23
(lp1233
(I00
g784
tp1234
asg27
V[ -palletized ]
p1235
sbsg27
V[ -palletized ] ---> u\u0301 / [ +nasal ] _ 
p1236
sba(irule
Rule
p1237
(dp1238
g15
(irule
Guard
p1239
(dp1240
g18
I00
sg19
(lp1241
(irule
FeatureMatrix
p1242
(dp1243
g23
(lp1244
(I01
g209
tp1245
a(I01
g840
tp1246
asg27
V[ +coronal +nasal ]
p1247
sbasg29
I00
sg27
g1247
sg30
I00
sg31
S'L'
sbsg32
(irule
ConstantPhoneme
p1248
(dp1249
S'p'
g175
sbsg36
(irule
Guard
p1250
(dp1251
g18
I00
sg19
(lp1252
sg29
I00
sg27
V
sg30
I00
sg31
S'R'
sbsg40
(irule
FeatureMatrix
p1253
(dp1254
g23
(lp1255
sg27
V[  ]
p1256
sbsg27
V[  ] ---> u\u0301 / [ +coronal +nasal ] _ 
p1257
sba(irule
Rule
p1258
(dp1259
g15
(irule
Guard
p1260
(dp1261
g18
I00
sg19
(lp1262
(irule
FeatureMatrix
p1263
(dp1264
g23
(lp1265
(I00
g570
tp1266
a(I01
g209
tp1267
asg27
V[ +nasal -glide ]
p1268
sbasg29
I00
sg27
g1268
sg30
I00
sg31
S'L'
sbsg32
(irule
ConstantPhoneme
p1269
(dp1270
S'p'
g175
sbsg36
(irule
Guard
p1271
(dp1272
g18
I00
sg19
(lp1273
sg29
I00
sg27
V
sg30
I00
sg31
S'R'
sbsg40
(irule
FeatureMatrix
p1274
(dp1275
g23
(lp1276
sg27
V[  ]
p1277
sbsg27
V[  ] ---> u\u0301 / [ +nasal -glide ] _ 
p1278
sba(irule
Rule
p1279
(dp1280
g15
(irule
Guard
p1281
(dp1282
g18
I00
sg19
(lp1283
(irule
FeatureMatrix
p1284
(dp1285
g23
(lp1286
(I00
g170
tp1287
asg27
V[ -continuant ]
p1288
sbasg29
I00
sg27
g1288
sg30
I00
sg31
S'L'
sbsg32
(irule
ConstantPhoneme
p1289
(dp1290
S'p'
g175
sbsg36
(irule
Guard
p1291
(dp1292
g18
I00
sg19
(lp1293
sg29
I00
sg27
V
sg30
I00
sg31
S'R'
sbsg40
(irule
FeatureMatrix
p1294
(dp1295
g23
(lp1296
(I00
g1049
tp1297
asg27
V[ -rounded ]
p1298
sbsg27
V[ -rounded ] ---> u\u0301 / [ -continuant ] _ 
p1299
sba(irule
Rule
p1300
(dp1301
g15
(irule
Guard
p1302
(dp1303
g18
I00
sg19
(lp1304
(irule
FeatureMatrix
p1305
(dp1306
g23
(lp1307
(I01
g209
tp1308
asg27
V[ +nasal ]
p1309
sbasg29
I00
sg27
g1309
sg30
I00
sg31
S'L'
sbsg32
(irule
ConstantPhoneme
p1310
(dp1311
S'p'
g175
sbsg36
(irule
Guard
p1312
(dp1313
g18
I00
sg19
(lp1314
sg29
I00
sg27
V
sg30
I00
sg31
S'R'
sbsg40
(irule
FeatureMatrix
p1315
(dp1316
g23
(lp1317
(I01
g338
tp1318
asg27
V[ +sonorant ]
p1319
sbsg27
V[ +sonorant ] ---> u\u0301 / [ +nasal ] _ 
p1320
sba(irule
Rule
p1321
(dp1322
g15
(irule
Guard
p1323
(dp1324
g18
I00
sg19
(lp1325
(irule
ConstantPhoneme
p1326
(dp1327
S'p'
Vn
sbasg29
I00
sg27
Vn
sg30
I00
sg31
S'L'
sbsg32
(irule
ConstantPhoneme
p1328
(dp1329
S'p'
g175
sbsg36
(irule
Guard
p1330
(dp1331
g18
I00
sg19
(lp1332
sg29
I00
sg27
V
sg30
I00
sg31
S'R'
sbsg40
(irule
FeatureMatrix
p1333
(dp1334
g23
(lp1335
(I01
g170
tp1336
asg27
V[ +continuant ]
p1337
sbsg27
V[ +continuant ] ---> u\u0301 / n _ 
p1338
sba(irule
Rule
p1339
(dp1340
g15
(irule
Guard
p1341
(dp1342
g18
I00
sg19
(lp1343
(irule
ConstantPhoneme
p1344
(dp1345
S'p'
Vn
sbasg29
I00
sg27
Vn
sg30
I00
sg31
S'L'
sbsg32
(irule
ConstantPhoneme
p1346
(dp1347
S'p'
g175
sbsg36
(irule
Guard
p1348
(dp1349
g18
I00
sg19
(lp1350
sg29
I00
sg27
V
sg30
I00
sg31
S'R'
sbsg40
(irule
FeatureMatrix
p1351
(dp1352
g23
(lp1353
(I00
g838
tp1354
asg27
V[ -liquid ]
p1355
sbsg27
V[ -liquid ] ---> u\u0301 / n _ 
p1356
sba(irule
Rule
p1357
(dp1358
g15
(irule
Guard
p1359
(dp1360
g18
I00
sg19
(lp1361
(irule
FeatureMatrix
p1362
(dp1363
g23
(lp1364
(I01
g209
tp1365
asg27
V[ +nasal ]
p1366
sbasg29
I00
sg27
g1366
sg30
I00
sg31
S'L'
sbsg32
(irule
ConstantPhoneme
p1367
(dp1368
S'p'
g175
sbsg36
(irule
Guard
p1369
(dp1370
g18
I00
sg19
(lp1371
sg29
I00
sg27
V
sg30
I00
sg31
S'R'
sbsg40
(irule
FeatureMatrix
p1372
(dp1373
g23
(lp1374
(I00
g1049
tp1375
asg27
V[ -rounded ]
p1376
sbsg27
V[ -rounded ] ---> u\u0301 / [ +nasal ] _ 
p1377
sba(irule
Rule
p1378
(dp1379
g15
(irule
Guard
p1380
(dp1381
g18
I00
sg19
(lp1382
(irule
FeatureMatrix
p1383
(dp1384
g23
(lp1385
(I01
g209
tp1386
asg27
V[ +nasal ]
p1387
sbasg29
I00
sg27
g1387
sg30
I00
sg31
S'L'
sbsg32
(irule
ConstantPhoneme
p1388
(dp1389
S'p'
g175
sbsg36
(irule
Guard
p1390
(dp1391
g18
I00
sg19
(lp1392
sg29
I00
sg27
V
sg30
I00
sg31
S'R'
sbsg40
(irule
FeatureMatrix
p1393
(dp1394
g23
(lp1395
(I00
g840
tp1396
asg27
V[ -coronal ]
p1397
sbsg27
V[ -coronal ] ---> u\u0301 / [ +nasal ] _ 
p1398
sba(irule
Rule
p1399
(dp1400
g15
(irule
Guard
p1401
(dp1402
g18
I00
sg19
(lp1403
(irule
FeatureMatrix
p1404
(dp1405
g23
(lp1406
(I01
g209
tp1407
asg27
V[ +nasal ]
p1408
sbasg29
I00
sg27
g1408
sg30
I00
sg31
S'L'
sbsg32
(irule
ConstantPhoneme
p1409
(dp1410
S'p'
g175
sbsg36
(irule
Guard
p1411
(dp1412
g18
I00
sg19
(lp1413
sg29
I00
sg27
V
sg30
I00
sg31
S'R'
sbsg40
(irule
FeatureMatrix
p1414
(dp1415
g23
(lp1416
(I01
g366
tp1417
asg27
V[ +vowel ]
p1418
sbsg27
V[ +vowel ] ---> u\u0301 / [ +nasal ] _ 
p1419
sba(irule
Rule
p1420
(dp1421
g15
(irule
Guard
p1422
(dp1423
g18
I00
sg19
(lp1424
(irule
FeatureMatrix
p1425
(dp1426
g23
(lp1427
(I00
g838
tp1428
a(I01
g209
tp1429
asg27
V[ +nasal -liquid ]
p1430
sbasg29
I00
sg27
g1430
sg30
I00
sg31
S'L'
sbsg32
(irule
ConstantPhoneme
p1431
(dp1432
S'p'
g175
sbsg36
(irule
Guard
p1433
(dp1434
g18
I00
sg19
(lp1435
sg29
I00
sg27
V
sg30
I00
sg31
S'R'
sbsg40
(irule
FeatureMatrix
p1436
(dp1437
g23
(lp1438
sg27
V[  ]
p1439
sbsg27
V[  ] ---> u\u0301 / [ +nasal -liquid ] _ 
p1440
sba(irule
Rule
p1441
(dp1442
g15
(irule
Guard
p1443
(dp1444
g18
I00
sg19
(lp1445
(irule
FeatureMatrix
p1446
(dp1447
g23
(lp1448
(I00
g838
tp1449
a(I00
g170
tp1450
asg27
V[ -continuant -liquid ]
p1451
sbasg29
I00
sg27
g1451
sg30
I00
sg31
S'L'
sbsg32
(irule
ConstantPhoneme
p1452
(dp1453
S'p'
g175
sbsg36
(irule
Guard
p1454
(dp1455
g18
I00
sg19
(lp1456
sg29
I00
sg27
V
sg30
I00
sg31
S'R'
sbsg40
(irule
FeatureMatrix
p1457
(dp1458
g23
(lp1459
sg27
V[  ]
p1460
sbsg27
V[  ] ---> u\u0301 / [ -continuant -liquid ] _ 
p1461
sba(irule
Rule
p1462
(dp1463
g15
(irule
Guard
p1464
(dp1465
g18
I00
sg19
(lp1466
(irule
FeatureMatrix
p1467
(dp1468
g23
(lp1469
(I00
g170
tp1470
a(I00
g961
tp1471
asg27
V[ -continuant -low ]
p1472
sbasg29
I00
sg27
g1472
sg30
I00
sg31
S'L'
sbsg32
(irule
ConstantPhoneme
p1473
(dp1474
S'p'
g175
sbsg36
(irule
Guard
p1475
(dp1476
g18
I00
sg19
(lp1477
sg29
I00
sg27
V
sg30
I00
sg31
S'R'
sbsg40
(irule
FeatureMatrix
p1478
(dp1479
g23
(lp1480
sg27
V[  ]
p1481
sbsg27
V[  ] ---> u\u0301 / [ -continuant -low ] _ 
p1482
sba(irule
Rule
p1483
(dp1484
g15
(irule
Guard
p1485
(dp1486
g18
I00
sg19
(lp1487
(irule
FeatureMatrix
p1488
(dp1489
g23
(lp1490
(I00
g170
tp1491
asg27
V[ -continuant ]
p1492
sbasg29
I00
sg27
g1492
sg30
I00
sg31
S'L'
sbsg32
(irule
ConstantPhoneme
p1493
(dp1494
S'p'
g175
sbsg36
(irule
Guard
p1495
(dp1496
g18
I00
sg19
(lp1497
sg29
I00
sg27
V
sg30
I00
sg31
S'R'
sbsg40
(irule
FeatureMatrix
p1498
(dp1499
g23
(lp1500
(I01
g338
tp1501
asg27
V[ +sonorant ]
p1502
sbsg27
V[ +sonorant ] ---> u\u0301 / [ -continuant ] _ 
p1503
sba(irule
Rule
p1504
(dp1505
g15
(irule
Guard
p1506
(dp1507
g18
I00
sg19
(lp1508
(irule
FeatureMatrix
p1509
(dp1510
g23
(lp1511
(I00
g1049
tp1512
a(I01
g209
tp1513
asg27
V[ +nasal -rounded ]
p1514
sbasg29
I00
sg27
g1514
sg30
I00
sg31
S'L'
sbsg32
(irule
ConstantPhoneme
p1515
(dp1516
S'p'
g175
sbsg36
(irule
Guard
p1517
(dp1518
g18
I00
sg19
(lp1519
sg29
I00
sg27
V
sg30
I00
sg31
S'R'
sbsg40
(irule
FeatureMatrix
p1520
(dp1521
g23
(lp1522
sg27
V[  ]
p1523
sbsg27
V[  ] ---> u\u0301 / [ +nasal -rounded ] _ 
p1524
sba(irule
Rule
p1525
(dp1526
g15
(irule
Guard
p1527
(dp1528
g18
I00
sg19
(lp1529
(irule
FeatureMatrix
p1530
(dp1531
g23
(lp1532
(I00
g170
tp1533
asg27
V[ -continuant ]
p1534
sbasg29
I00
sg27
g1534
sg30
I00
sg31
S'L'
sbsg32
(irule
ConstantPhoneme
p1535
(dp1536
S'p'
g175
sbsg36
(irule
Guard
p1537
(dp1538
g18
I00
sg19
(lp1539
sg29
I00
sg27
V
sg30
I00
sg31
S'R'
sbsg40
(irule
FeatureMatrix
p1540
(dp1541
g23
(lp1542
(I01
g325
tp1543
asg27
V[ +voice ]
p1544
sbsg27
V[ +voice ] ---> u\u0301 / [ -continuant ] _ 
p1545
sba(irule
Rule
p1546
(dp1547
g15
(irule
Guard
p1548
(dp1549
g18
I00
sg19
(lp1550
(irule
FeatureMatrix
p1551
(dp1552
g23
(lp1553
(I00
g170
tp1554
a(I00
g784
tp1555
asg27
V[ -continuant -palletized ]
p1556
sbasg29
I00
sg27
g1556
sg30
I00
sg31
S'L'
sbsg32
(irule
ConstantPhoneme
p1557
(dp1558
S'p'
g175
sbsg36
(irule
Guard
p1559
(dp1560
g18
I00
sg19
(lp1561
sg29
I00
sg27
V
sg30
I00
sg31
S'R'
sbsg40
(irule
FeatureMatrix
p1562
(dp1563
g23
(lp1564
sg27
V[  ]
p1565
sbsg27
V[  ] ---> u\u0301 / [ -continuant -palletized ] _ 
p1566
sba(irule
Rule
p1567
(dp1568
g15
(irule
Guard
p1569
(dp1570
g18
I00
sg19
(lp1571
(irule
FeatureMatrix
p1572
(dp1573
g23
(lp1574
(I00
g170
tp1575
a(I00
g379
tp1576
asg27
V[ -continuant -sibilant ]
p1577
sbasg29
I00
sg27
g1577
sg30
I00
sg31
S'L'
sbsg32
(irule
ConstantPhoneme
p1578
(dp1579
S'p'
g175
sbsg36
(irule
Guard
p1580
(dp1581
g18
I00
sg19
(lp1582
sg29
I00
sg27
V
sg30
I00
sg31
S'R'
sbsg40
(irule
FeatureMatrix
p1583
(dp1584
g23
(lp1585
sg27
V[  ]
p1586
sbsg27
V[  ] ---> u\u0301 / [ -continuant -sibilant ] _ 
p1587
sba(irule
Rule
p1588
(dp1589
g15
(irule
Guard
p1590
(dp1591
g18
I00
sg19
(lp1592
(irule
FeatureMatrix
p1593
(dp1594
g23
(lp1595
(I00
g170
tp1596
asg27
V[ -continuant ]
p1597
sbasg29
I00
sg27
g1597
sg30
I00
sg31
S'L'
sbsg32
(irule
ConstantPhoneme
p1598
(dp1599
S'p'
g175
sbsg36
(irule
Guard
p1600
(dp1601
g18
I00
sg19
(lp1602
sg29
I00
sg27
V
sg30
I00
sg31
S'R'
sbsg40
(irule
FeatureMatrix
p1603
(dp1604
g23
(lp1605
(I00
g784
tp1606
asg27
V[ -palletized ]
p1607
sbsg27
V[ -palletized ] ---> u\u0301 / [ -continuant ] _ 
p1608
sba(irule
Rule
p1609
(dp1610
g15
(irule
Guard
p1611
(dp1612
g18
I00
sg19
(lp1613
(irule
FeatureMatrix
p1614
(dp1615
g23
(lp1616
(I00
g170
tp1617
asg27
V[ -continuant ]
p1618
sbasg29
I00
sg27
g1618
sg30
I00
sg31
S'L'
sbsg32
(irule
ConstantPhoneme
p1619
(dp1620
S'p'
g175
sbsg36
(irule
Guard
p1621
(dp1622
g18
I00
sg19
(lp1623
sg29
I00
sg27
V
sg30
I00
sg31
S'R'
sbsg40
(irule
FeatureMatrix
p1624
(dp1625
g23
(lp1626
(I01
g366
tp1627
asg27
V[ +vowel ]
p1628
sbsg27
V[ +vowel ] ---> u\u0301 / [ -continuant ] _ 
p1629
sba(irule
Rule
p1630
(dp1631
g15
(irule
Guard
p1632
(dp1633
g18
I00
sg19
(lp1634
(irule
FeatureMatrix
p1635
(dp1636
g23
(lp1637
(I01
g258
tp1638
a(I00
g170
tp1639
asg27
V[ +anterior -continuant ]
p1640
sbasg29
I00
sg27
g1640
sg30
I00
sg31
S'L'
sbsg32
(irule
ConstantPhoneme
p1641
(dp1642
S'p'
g175
sbsg36
(irule
Guard
p1643
(dp1644
g18
I00
sg19
(lp1645
sg29
I00
sg27
V
sg30
I00
sg31
S'R'
sbsg40
(irule
FeatureMatrix
p1646
(dp1647
g23
(lp1648
sg27
V[  ]
p1649
sbsg27
V[  ] ---> u\u0301 / [ +anterior -continuant ] _ 
p1650
sba(irule
Rule
p1651
(dp1652
g15
(irule
Guard
p1653
(dp1654
g18
I00
sg19
(lp1655
(irule
FeatureMatrix
p1656
(dp1657
g23
(lp1658
(I00
g170
tp1659
a(I00
g366
tp1660
asg27
V[ -continuant -vowel ]
p1661
sbasg29
I00
sg27
g1661
sg30
I00
sg31
S'L'
sbsg32
(irule
ConstantPhoneme
p1662
(dp1663
S'p'
g175
sbsg36
(irule
Guard
p1664
(dp1665
g18
I00
sg19
(lp1666
sg29
I00
sg27
V
sg30
I00
sg31
S'R'
sbsg40
(irule
FeatureMatrix
p1667
(dp1668
g23
(lp1669
sg27
V[  ]
p1670
sbsg27
V[  ] ---> u\u0301 / [ -continuant -vowel ] _ 
p1671
sba(irule
Rule
p1672
(dp1673
g15
(irule
Guard
p1674
(dp1675
g18
I00
sg19
(lp1676
(irule
FeatureMatrix
p1677
(dp1678
g23
(lp1679
(I00
g170
tp1680
a(I01
g338
tp1681
asg27
V[ +sonorant -continuant ]
p1682
sbasg29
I00
sg27
g1682
sg30
I00
sg31
S'L'
sbsg32
(irule
ConstantPhoneme
p1683
(dp1684
S'p'
g175
sbsg36
(irule
Guard
p1685
(dp1686
g18
I00
sg19
(lp1687
sg29
I00
sg27
V
sg30
I00
sg31
S'R'
sbsg40
(irule
FeatureMatrix
p1688
(dp1689
g23
(lp1690
sg27
V[  ]
p1691
sbsg27
V[  ] ---> u\u0301 / [ +sonorant -continuant ] _ 
p1692
sba(irule
Rule
p1693
(dp1694
g15
(irule
Guard
p1695
(dp1696
g18
I00
sg19
(lp1697
(irule
FeatureMatrix
p1698
(dp1699
g23
(lp1700
(I00
g170
tp1701
a(I00
g1146
tp1702
asg27
V[ -continuant -tense ]
p1703
sbasg29
I00
sg27
g1703
sg30
I00
sg31
S'L'
sbsg32
(irule
ConstantPhoneme
p1704
(dp1705
S'p'
g175
sbsg36
(irule
Guard
p1706
(dp1707
g18
I00
sg19
(lp1708
sg29
I00
sg27
V
sg30
I00
sg31
S'R'
sbsg40
(irule
FeatureMatrix
p1709
(dp1710
g23
(lp1711
sg27
V[  ]
p1712
sbsg27
V[  ] ---> u\u0301 / [ -continuant -tense ] _ 
p1713
sba(irule
Rule
p1714
(dp1715
g15
(irule
Guard
p1716
(dp1717
g18
I00
sg19
(lp1718
(irule
FeatureMatrix
p1719
(dp1720
g23
(lp1721
(I01
g258
tp1722
a(I01
g209
tp1723
asg27
V[ +anterior +nasal ]
p1724
sbasg29
I00
sg27
g1724
sg30
I00
sg31
S'L'
sbsg32
(irule
ConstantPhoneme
p1725
(dp1726
S'p'
g175
sbsg36
(irule
Guard
p1727
(dp1728
g18
I00
sg19
(lp1729
sg29
I00
sg27
V
sg30
I00
sg31
S'R'
sbsg40
(irule
FeatureMatrix
p1730
(dp1731
g23
(lp1732
sg27
V[  ]
p1733
sbsg27
V[  ] ---> u\u0301 / [ +anterior +nasal ] _ 
p1734
sba(irule
Rule
p1735
(dp1736
g15
(irule
Guard
p1737
(dp1738
g18
I00
sg19
(lp1739
(irule
FeatureMatrix
p1740
(dp1741
g23
(lp1742
(I00
g170
tp1743
a(I01
g840
tp1744
asg27
V[ +coronal -continuant ]
p1745
sbasg29
I00
sg27
g1745
sg30
I00
sg31
S'L'
sbsg32
(irule
ConstantPhoneme
p1746
(dp1747
S'p'
g175
sbsg36
(irule
Guard
p1748
(dp1749
g18
I00
sg19
(lp1750
sg29
I00
sg27
V
sg30
I00
sg31
S'R'
sbsg40
(irule
FeatureMatrix
p1751
(dp1752
g23
(lp1753
sg27
V[  ]
p1754
sbsg27
V[  ] ---> u\u0301 / [ +coronal -continuant ] _ 
p1755
sba(irule
Rule
p1756
(dp1757
g15
(irule
Guard
p1758
(dp1759
g18
I00
sg19
(lp1760
(irule
FeatureMatrix
p1761
(dp1762
g23
(lp1763
(I00
g170
tp1764
asg27
V[ -continuant ]
p1765
sbasg29
I00
sg27
g1765
sg30
I00
sg31
S'L'
sbsg32
(irule
ConstantPhoneme
p1766
(dp1767
S'p'
g175
sbsg36
(irule
Guard
p1768
(dp1769
g18
I00
sg19
(lp1770
sg29
I00
sg27
V
sg30
I00
sg31
S'R'
sbsg40
(irule
FeatureMatrix
p1771
(dp1772
g23
(lp1773
(I00
g840
tp1774
asg27
V[ -coronal ]
p1775
sbsg27
V[ -coronal ] ---> u\u0301 / [ -continuant ] _ 
p1776
sba(irule
Rule
p1777
(dp1778
g15
(irule
Guard
p1779
(dp1780
g18
I00
sg19
(lp1781
(irule
FeatureMatrix
p1782
(dp1783
g23
(lp1784
(I01
g209
tp1785
asg27
V[ +nasal ]
p1786
sbasg29
I00
sg27
g1786
sg30
I00
sg31
S'L'
sbsg32
(irule
ConstantPhoneme
p1787
(dp1788
S'p'
g175
sbsg36
(irule
Guard
p1789
(dp1790
g18
I00
sg19
(lp1791
sg29
I00
sg27
V
sg30
I00
sg31
S'R'
sbsg40
(irule
FeatureMatrix
p1792
(dp1793
g23
(lp1794
(I01
g961
tp1795
asg27
V[ +low ]
p1796
sbsg27
V[ +low ] ---> u\u0301 / [ +nasal ] _ 
p1797
sba(irule
Rule
p1798
(dp1799
g15
(irule
Guard
p1800
(dp1801
g18
I00
sg19
(lp1802
(irule
FeatureMatrix
p1803
(dp1804
g23
(lp1805
(I01
g209
tp1806
asg27
V[ +nasal ]
p1807
sbasg29
I00
sg27
g1807
sg30
I00
sg31
S'L'
sbsg32
(irule
ConstantPhoneme
p1808
(dp1809
S'p'
g175
sbsg36
(irule
Guard
p1810
(dp1811
g18
I00
sg19
(lp1812
sg29
I00
sg27
V
sg30
I00
sg31
S'R'
sbsg40
(irule
FeatureMatrix
p1813
(dp1814
g23
(lp1815
(I01
g1146
tp1816
asg27
V[ +tense ]
p1817
sbsg27
V[ +tense ] ---> u\u0301 / [ +nasal ] _ 
p1818
sba(irule
Rule
p1819
(dp1820
g15
(irule
Guard
p1821
(dp1822
g18
I00
sg19
(lp1823
(irule
FeatureMatrix
p1824
(dp1825
g23
(lp1826
(I00
g170
tp1827
asg27
V[ -continuant ]
p1828
sbasg29
I00
sg27
g1828
sg30
I00
sg31
S'L'
sbsg32
(irule
ConstantPhoneme
p1829
(dp1830
S'p'
g175
sbsg36
(irule
Guard
p1831
(dp1832
g18
I00
sg19
(lp1833
sg29
I00
sg27
V
sg30
I00
sg31
S'R'
sbsg40
(irule
FeatureMatrix
p1834
(dp1835
g23
(lp1836
(I00
g838
tp1837
asg27
V[ -liquid ]
p1838
sbsg27
V[ -liquid ] ---> u\u0301 / [ -continuant ] _ 
p1839
sba(irule
Rule
p1840
(dp1841
g15
(irule
Guard
p1842
(dp1843
g18
I00
sg19
(lp1844
(irule
FeatureMatrix
p1845
(dp1846
g23
(lp1847
(I01
g209
tp1848
asg27
V[ +nasal ]
p1849
sbasg29
I00
sg27
g1849
sg30
I00
sg31
S'L'
sbsg32
(irule
ConstantPhoneme
p1850
(dp1851
S'p'
g175
sbsg36
(irule
Guard
p1852
(dp1853
g18
I00
sg19
(lp1854
sg29
I00
sg27
V
sg30
I00
sg31
S'R'
sbsg40
(irule
FeatureMatrix
p1855
(dp1856
g23
(lp1857
(I00
g838
tp1858
asg27
V[ -liquid ]
p1859
sbsg27
V[ -liquid ] ---> u\u0301 / [ +nasal ] _ 
p1860
sba(irule
Rule
p1861
(dp1862
g15
(irule
Guard
p1863
(dp1864
g18
I00
sg19
(lp1865
(irule
FeatureMatrix
p1866
(dp1867
g23
(lp1868
(I01
g209
tp1869
asg27
V[ +nasal ]
p1870
sbasg29
I00
sg27
g1870
sg30
I00
sg31
S'L'
sbsg32
(irule
ConstantPhoneme
p1871
(dp1872
S'p'
g175
sbsg36
(irule
Guard
p1873
(dp1874
g18
I00
sg19
(lp1875
sg29
I00
sg27
V
sg30
I00
sg31
S'R'
sbsg40
(irule
FeatureMatrix
p1876
(dp1877
g23
(lp1878
(I00
g487
tp1879
asg27
V[ -high ]
p1880
sbsg27
V[ -high ] ---> u\u0301 / [ +nasal ] _ 
p1881
sba(irule
Rule
p1882
(dp1883
g15
(irule
Guard
p1884
(dp1885
g18
I00
sg19
(lp1886
(irule
FeatureMatrix
p1887
(dp1888
g23
(lp1889
(I00
g170
tp1890
asg27
V[ -continuant ]
p1891
sbasg29
I00
sg27
g1891
sg30
I00
sg31
S'L'
sbsg32
(irule
ConstantPhoneme
p1892
(dp1893
S'p'
g175
sbsg36
(irule
Guard
p1894
(dp1895
g18
I00
sg19
(lp1896
sg29
I00
sg27
V
sg30
I00
sg31
S'R'
sbsg40
(irule
FeatureMatrix
p1897
(dp1898
g23
(lp1899
(I00
g570
tp1900
asg27
V[ -glide ]
p1901
sbsg27
V[ -glide ] ---> u\u0301 / [ -continuant ] _ 
p1902
sba(irule
Rule
p1903
(dp1904
g15
(irule
Guard
p1905
(dp1906
g18
I00
sg19
(lp1907
(irule
FeatureMatrix
p1908
(dp1909
g23
(lp1910
(I01
g258
tp1911
asg27
V[ +anterior ]
p1912
sba(irule
FeatureMatrix
p1913
(dp1914
g23
(lp1915
sg27
V[  ]
p1916
sbasg29
I00
sg27
V[  ] [ +anterior ]
p1917
sg30
I00
sg31
S'L'
sbsg32
(irule
ConstantPhoneme
p1918
(dp1919
S'p'
g175
sbsg36
(irule
Guard
p1920
(dp1921
g18
I00
sg19
(lp1922
sg29
I00
sg27
V
sg30
I00
sg31
S'R'
sbsg40
(irule
FeatureMatrix
p1923
(dp1924
g23
(lp1925
sg27
V[  ]
p1926
sbsg27
V[  ] ---> u\u0301 / [  ] [ +anterior ] _ 
p1927
sba(irule
Rule
p1928
(dp1929
g15
(irule
Guard
p1930
(dp1931
g18
I00
sg19
(lp1932
(irule
FeatureMatrix
p1933
(dp1934
g23
(lp1935
(I00
g170
tp1936
asg27
V[ -continuant ]
p1937
sbasg29
I00
sg27
g1937
sg30
I00
sg31
S'L'
sbsg32
(irule
ConstantPhoneme
p1938
(dp1939
S'p'
g175
sbsg36
(irule
Guard
p1940
(dp1941
g18
I00
sg19
(lp1942
sg29
I00
sg27
V
sg30
I00
sg31
S'R'
sbsg40
(irule
FeatureMatrix
p1943
(dp1944
g23
(lp1945
(I01
g170
tp1946
asg27
V[ +continuant ]
p1947
sbsg27
V[ +continuant ] ---> u\u0301 / [ -continuant ] _ 
p1948
sba(irule
Rule
p1949
(dp1950
g15
(irule
Guard
p1951
(dp1952
g18
I00
sg19
(lp1953
(irule
FeatureMatrix
p1954
(dp1955
g23
(lp1956
(I00
g170
tp1957
asg27
V[ -continuant ]
p1958
sbasg29
I00
sg27
g1958
sg30
I00
sg31
S'L'
sbsg32
(irule
ConstantPhoneme
p1959
(dp1960
S'p'
g175
sbsg36
(irule
Guard
p1961
(dp1962
g18
I00
sg19
(lp1963
sg29
I00
sg27
V
sg30
I00
sg31
S'R'
sbsg40
(irule
FeatureMatrix
p1964
(dp1965
g23
(lp1966
(I01
g961
tp1967
asg27
V[ +low ]
p1968
sbsg27
V[ +low ] ---> u\u0301 / [ -continuant ] _ 
p1969
sba(irule
Rule
p1970
(dp1971
g15
(irule
Guard
p1972
(dp1973
g18
I00
sg19
(lp1974
(irule
FeatureMatrix
p1975
(dp1976
g23
(lp1977
(I00
g170
tp1978
asg27
V[ -continuant ]
p1979
sbasg29
I00
sg27
g1979
sg30
I00
sg31
S'L'
sbsg32
(irule
ConstantPhoneme
p1980
(dp1981
S'p'
g175
sbsg36
(irule
Guard
p1982
(dp1983
g18
I00
sg19
(lp1984
sg29
I00
sg27
V
sg30
I00
sg31
S'R'
sbsg40
(irule
FeatureMatrix
p1985
(dp1986
g23
(lp1987
(I01
g419
tp1988
asg27
V[ +back ]
p1989
sbsg27
V[ +back ] ---> u\u0301 / [ -continuant ] _ 
p1990
sba(irule
Rule
p1991
(dp1992
g15
(irule
Guard
p1993
(dp1994
g18
I00
sg19
(lp1995
(irule
FeatureMatrix
p1996
(dp1997
g23
(lp1998
(I01
g209
tp1999
asg27
V[ +nasal ]
p2000
sbasg29
I00
sg27
g2000
sg30
I00
sg31
S'L'
sbsg32
(irule
ConstantPhoneme
p2001
(dp2002
S'p'
g175
sbsg36
(irule
Guard
p2003
(dp2004
g18
I00
sg19
(lp2005
sg29
I00
sg27
V
sg30
I00
sg31
S'R'
sbsg40
(irule
FeatureMatrix
p2006
(dp2007
g23
(lp2008
(I01
g170
tp2009
asg27
V[ +continuant ]
p2010
sbsg27
V[ +continuant ] ---> u\u0301 / [ +nasal ] _ 
p2011
sba(irule
Rule
p2012
(dp2013
g15
(irule
Guard
p2014
(dp2015
g18
I00
sg19
(lp2016
(irule
FeatureMatrix
p2017
(dp2018
g23
(lp2019
(I00
g170
tp2020
asg27
V[ -continuant ]
p2021
sbasg29
I00
sg27
g2021
sg30
I00
sg31
S'L'
sbsg32
(irule
ConstantPhoneme
p2022
(dp2023
S'p'
g175
sbsg36
(irule
Guard
p2024
(dp2025
g18
I00
sg19
(lp2026
sg29
I00
sg27
V
sg30
I00
sg31
S'R'
sbsg40
(irule
FeatureMatrix
p2027
(dp2028
g23
(lp2029
(I01
g1146
tp2030
asg27
V[ +tense ]
p2031
sbsg27
V[ +tense ] ---> u\u0301 / [ -continuant ] _ 
p2032
sba(irule
Rule
p2033
(dp2034
g15
(irule
Guard
p2035
(dp2036
g18
I00
sg19
(lp2037
(irule
FeatureMatrix
p2038
(dp2039
g23
(lp2040
(I00
g838
tp2041
asg27
V[ -liquid ]
p2042
sbasg29
I00
sg27
g2042
sg30
I00
sg31
S'L'
sbsg32
(irule
ConstantPhoneme
p2043
(dp2044
S'p'
g175
sbsg36
(irule
Guard
p2045
(dp2046
g18
I00
sg19
(lp2047
sg29
I00
sg27
V
sg30
I00
sg31
S'R'
sbsg40
(irule
FeatureMatrix
p2048
(dp2049
g23
(lp2050
(I01
g961
tp2051
asg27
V[ +low ]
p2052
sbsg27
V[ +low ] ---> u\u0301 / [ -liquid ] _ 
p2053
sba(irule
Rule
p2054
(dp2055
g15
(irule
Guard
p2056
(dp2057
g18
I00
sg19
(lp2058
(irule
FeatureMatrix
p2059
(dp2060
g23
(lp2061
(I00
g170
tp2062
asg27
V[ -continuant ]
p2063
sbasg29
I00
sg27
g2063
sg30
I00
sg31
S'L'
sbsg32
(irule
ConstantPhoneme
p2064
(dp2065
S'p'
g175
sbsg36
(irule
Guard
p2066
(dp2067
g18
I00
sg19
(lp2068
sg29
I00
sg27
V
sg30
I00
sg31
S'R'
sbsg40
(irule
FeatureMatrix
p2069
(dp2070
g23
(lp2071
(I00
g487
tp2072
asg27
V[ -high ]
p2073
sbsg27
V[ -high ] ---> u\u0301 / [ -continuant ] _ 
p2074
sba(irule
Rule
p2075
(dp2076
g15
(irule
Guard
p2077
(dp2078
g18
I00
sg19
(lp2079
(irule
FeatureMatrix
p2080
(dp2081
g23
(lp2082
(I00
g838
tp2083
asg27
V[ -liquid ]
p2084
sbasg29
I00
sg27
g2084
sg30
I00
sg31
S'L'
sbsg32
(irule
ConstantPhoneme
p2085
(dp2086
S'p'
g175
sbsg36
(irule
Guard
p2087
(dp2088
g18
I00
sg19
(lp2089
sg29
I00
sg27
V
sg30
I00
sg31
S'R'
sbsg40
(irule
FeatureMatrix
p2090
(dp2091
g23
(lp2092
(I01
g419
tp2093
asg27
V[ +back ]
p2094
sbsg27
V[ +back ] ---> u\u0301 / [ -liquid ] _ 
p2095
sba(irule
Rule
p2096
(dp2097
g15
(irule
Guard
p2098
(dp2099
g18
I00
sg19
(lp2100
(irule
FeatureMatrix
p2101
(dp2102
g23
(lp2103
(I01
g209
tp2104
asg27
V[ +nasal ]
p2105
sbasg29
I00
sg27
g2105
sg30
I00
sg31
S'L'
sbsg32
(irule
ConstantPhoneme
p2106
(dp2107
S'p'
g175
sbsg36
(irule
Guard
p2108
(dp2109
g18
I00
sg19
(lp2110
sg29
I00
sg27
V
sg30
I00
sg31
S'R'
sbsg40
(irule
FeatureMatrix
p2111
(dp2112
g23
(lp2113
(I01
g419
tp2114
asg27
V[ +back ]
p2115
sbsg27
V[ +back ] ---> u\u0301 / [ +nasal ] _ 
p2116
sba(irule
Rule
p2117
(dp2118
g15
(irule
Guard
p2119
(dp2120
g18
I00
sg19
(lp2121
(irule
FeatureMatrix
p2122
(dp2123
g23
(lp2124
(I01
g209
tp2125
asg27
V[ +nasal ]
p2126
sbasg29
I00
sg27
g2126
sg30
I00
sg31
S'L'
sbsg32
(irule
ConstantPhoneme
p2127
(dp2128
S'p'
g175
sbsg36
(irule
Guard
p2129
(dp2130
g18
I00
sg19
(lp2131
sg29
I00
sg27
V
sg30
I00
sg31
S'R'
sbsg40
(irule
FeatureMatrix
p2132
(dp2133
g23
(lp2134
(I00
g209
tp2135
asg27
V[ -nasal ]
p2136
sbsg27
V[ -nasal ] ---> u\u0301 / [ +nasal ] _ 
p2137
sba(irule
Rule
p2138
(dp2139
g15
(irule
Guard
p2140
(dp2141
g18
I00
sg19
(lp2142
(irule
FeatureMatrix
p2143
(dp2144
g23
(lp2145
(I00
g170
tp2146
asg27
V[ -continuant ]
p2147
sbasg29
I00
sg27
g2147
sg30
I00
sg31
S'L'
sbsg32
(irule
ConstantPhoneme
p2148
(dp2149
S'p'
g175
sbsg36
(irule
Guard
p2150
(dp2151
g18
I00
sg19
(lp2152
sg29
I00
sg27
V
sg30
I00
sg31
S'R'
sbsg40
(irule
FeatureMatrix
p2153
(dp2154
g23
(lp2155
(I00
g258
tp2156
asg27
V[ -anterior ]
p2157
sbsg27
V[ -anterior ] ---> u\u0301 / [ -continuant ] _ 
p2158
sba(irule
Rule
p2159
(dp2160
g15
(irule
Guard
p2161
(dp2162
g18
I00
sg19
(lp2163
(irule
FeatureMatrix
p2164
(dp2165
g23
(lp2166
(I00
g170
tp2167
asg27
V[ -continuant ]
p2168
sbasg29
I00
sg27
g2168
sg30
I00
sg31
S'L'
sbsg32
(irule
ConstantPhoneme
p2169
(dp2170
S'p'
g175
sbsg36
(irule
Guard
p2171
(dp2172
g18
I00
sg19
(lp2173
sg29
I00
sg27
V
sg30
I00
sg31
S'R'
sbsg40
(irule
FeatureMatrix
p2174
(dp2175
g23
(lp2176
(I00
g589
tp2177
asg27
V[ -lateral ]
p2178
sbsg27
V[ -lateral ] ---> u\u0301 / [ -continuant ] _ 
p2179
sba(irule
Rule
p2180
(dp2181
g15
(irule
Guard
p2182
(dp2183
g18
I00
sg19
(lp2184
(irule
FeatureMatrix
p2185
(dp2186
g23
(lp2187
(I01
g258
tp2188
asg27
V[ +anterior ]
p2189
sbasg29
I00
sg27
g2189
sg30
I00
sg31
S'L'
sbsg32
(irule
ConstantPhoneme
p2190
(dp2191
S'p'
g175
sbsg36
(irule
Guard
p2192
(dp2193
g18
I00
sg19
(lp2194
sg29
I00
sg27
V
sg30
I00
sg31
S'R'
sbsg40
(irule
FeatureMatrix
p2195
(dp2196
g23
(lp2197
(I01
g961
tp2198
asg27
V[ +low ]
p2199
sbsg27
V[ +low ] ---> u\u0301 / [ +anterior ] _ 
p2200
sba(irule
Rule
p2201
(dp2202
g15
(irule
Guard
p2203
(dp2204
g18
I00
sg19
(lp2205
(irule
FeatureMatrix
p2206
(dp2207
g23
(lp2208
(I01
g209
tp2209
asg27
V[ +nasal ]
p2210
sbasg29
I00
sg27
g2210
sg30
I00
sg31
S'L'
sbsg32
(irule
ConstantPhoneme
p2211
(dp2212
S'p'
g175
sbsg36
(irule
Guard
p2213
(dp2214
g18
I00
sg19
(lp2215
sg29
I00
sg27
V
sg30
I00
sg31
S'R'
sbsg40
(irule
FeatureMatrix
p2216
(dp2217
g23
(lp2218
(I00
g570
tp2219
asg27
V[ -glide ]
p2220
sbsg27
V[ -glide ] ---> u\u0301 / [ +nasal ] _ 
p2221
sba(irule
Rule
p2222
(dp2223
g15
(irule
Guard
p2224
(dp2225
g18
I00
sg19
(lp2226
(irule
FeatureMatrix
p2227
(dp2228
g23
(lp2229
(I00
g170
tp2230
asg27
V[ -continuant ]
p2231
sbasg29
I00
sg27
g2231
sg30
I00
sg31
S'L'
sbsg32
(irule
ConstantPhoneme
p2232
(dp2233
S'p'
g175
sbsg36
(irule
Guard
p2234
(dp2235
g18
I00
sg19
(lp2236
sg29
I00
sg27
V
sg30
I00
sg31
S'R'
sbsg40
(irule
FeatureMatrix
p2237
(dp2238
g23
(lp2239
(I00
g209
tp2240
asg27
V[ -nasal ]
p2241
sbsg27
V[ -nasal ] ---> u\u0301 / [ -continuant ] _ 
p2242
sbaa(lp2243
(irule
Rule
p2244
(dp2245
g15
(irule
Guard
p2246
(dp2247
g18
I00
sg19
(lp2248
(irule
FeatureMatrix
p2249
(dp2250
g23
(lp2251
sg27
V[  ]
p2252
sba(irule
ConstantPhoneme
p2253
(dp2254
S'p'
Vu\u0301
p2255
sbasg29
I00
sg27
Vu\u0301 [  ]
p2256
sg30
I00
sg31
S'L'
sbsg32
(irule
FeatureMatrix
p2257
(dp2258
g23
(lp2259
(I00
S'highTone'
p2260
tp2261
asg27
V[ -highTone ]
p2262
sbsg36
(irule
Guard
p2263
(dp2264
g18
I00
sg19
(lp2265
sg29
I00
sg27
V
sg30
I00
sg31
S'R'
sbsg40
(irule
FeatureMatrix
p2266
(dp2267
g23
(lp2268
sg27
V[  ]
p2269
sbsg27
V[  ] ---> [ -highTone ] / u\u0301 [  ] _ 
p2270
sba(irule
Rule
p2271
(dp2272
g15
(irule
Guard
p2273
(dp2274
g18
I00
sg19
(lp2275
(irule
FeatureMatrix
p2276
(dp2277
g23
(lp2278
sg27
V[  ]
p2279
sba(irule
FeatureMatrix
p2280
(dp2281
g23
(lp2282
(I01
S'high'
p2283
tp2284
asg27
V[ +high ]
p2285
sbasg29
I00
sg27
V[ +high ] [  ]
p2286
sg30
I00
sg31
S'L'
sbsg32
(irule
FeatureMatrix
p2287
(dp2288
g23
(lp2289
(I00
g2260
tp2290
asg27
V[ -highTone ]
p2291
sbsg36
(irule
Guard
p2292
(dp2293
g18
I00
sg19
(lp2294
sg29
I00
sg27
V
sg30
I00
sg31
S'R'
sbsg40
(irule
FeatureMatrix
p2295
(dp2296
g23
(lp2297
sg27
V[  ]
p2298
sbsg27
V[  ] ---> [ -highTone ] / [ +high ] [  ] _ 
p2299
sba(irule
Rule
p2300
(dp2301
g15
(irule
Guard
p2302
(dp2303
g18
I00
sg19
(lp2304
(irule
FeatureMatrix
p2305
(dp2306
g23
(lp2307
sg27
V[  ]
p2308
sba(irule
FeatureMatrix
p2309
(dp2310
g23
(lp2311
(I01
S'rounded'
p2312
tp2313
asg27
V[ +rounded ]
p2314
sbasg29
I00
sg27
V[ +rounded ] [  ]
p2315
sg30
I00
sg31
S'L'
sbsg32
(irule
FeatureMatrix
p2316
(dp2317
g23
(lp2318
(I00
g2260
tp2319
asg27
V[ -highTone ]
p2320
sbsg36
(irule
Guard
p2321
(dp2322
g18
I00
sg19
(lp2323
sg29
I00
sg27
V
sg30
I00
sg31
S'R'
sbsg40
(irule
FeatureMatrix
p2324
(dp2325
g23
(lp2326
sg27
V[  ]
p2327
sbsg27
V[  ] ---> [ -highTone ] / [ +rounded ] [  ] _ 
p2328
sba(irule
Rule
p2329
(dp2330
g15
(irule
Guard
p2331
(dp2332
g18
I00
sg19
(lp2333
(irule
FeatureMatrix
p2334
(dp2335
g23
(lp2336
sg27
V[  ]
p2337
sba(irule
FeatureMatrix
p2338
(dp2339
g23
(lp2340
(I01
g2260
tp2341
asg27
V[ +highTone ]
p2342
sbasg29
I00
sg27
V[ +highTone ] [  ]
p2343
sg30
I00
sg31
S'L'
sbsg32
(irule
FeatureMatrix
p2344
(dp2345
g23
(lp2346
(I00
g2260
tp2347
asg27
V[ -highTone ]
p2348
sbsg36
(irule
Guard
p2349
(dp2350
g18
I00
sg19
(lp2351
sg29
I00
sg27
V
sg30
I00
sg31
S'R'
sbsg40
(irule
FeatureMatrix
p2352
(dp2353
g23
(lp2354
sg27
V[  ]
p2355
sbsg27
V[  ] ---> [ -highTone ] / [ +highTone ] [  ] _ 
p2356
sba(irule
Rule
p2357
(dp2358
g15
(irule
Guard
p2359
(dp2360
g18
I00
sg19
(lp2361
(irule
FeatureMatrix
p2362
(dp2363
g23
(lp2364
sg27
V[  ]
p2365
sba(irule
FeatureMatrix
p2366
(dp2367
g23
(lp2368
(I01
g2283
tp2369
asg27
V[ +high ]
p2370
sbasg29
I00
sg27
V[ +high ] [  ]
p2371
sg30
I00
sg31
S'L'
sbsg32
(irule
FeatureMatrix
p2372
(dp2373
g23
(lp2374
(I00
g2260
tp2375
asg27
V[ -highTone ]
p2376
sbsg36
(irule
Guard
p2377
(dp2378
g18
I00
sg19
(lp2379
sg29
I00
sg27
V
sg30
I00
sg31
S'R'
sbsg40
(irule
FeatureMatrix
p2380
(dp2381
g23
(lp2382
(I00
S'glide'
p2383
tp2384
asg27
V[ -glide ]
p2385
sbsg27
V[ -glide ] ---> [ -highTone ] / [ +high ] [  ] _ 
p2386
sba(irule
Rule
p2387
(dp2388
g15
(irule
Guard
p2389
(dp2390
g18
I00
sg19
(lp2391
(irule
FeatureMatrix
p2392
(dp2393
g23
(lp2394
(I01
S'lateral'
p2395
tp2396
asg27
V[ +lateral ]
p2397
sba(irule
FeatureMatrix
p2398
(dp2399
g23
(lp2400
(I00
S'low'
p2401
tp2402
asg27
V[ -low ]
p2403
sbasg29
I00
sg27
V[ -low ] [ +lateral ]
p2404
sg30
I00
sg31
S'L'
sbsg32
(irule
FeatureMatrix
p2405
(dp2406
g23
(lp2407
(I00
g2260
tp2408
asg27
V[ -highTone ]
p2409
sbsg36
(irule
Guard
p2410
(dp2411
g18
I00
sg19
(lp2412
sg29
I00
sg27
V
sg30
I00
sg31
S'R'
sbsg40
(irule
FeatureMatrix
p2413
(dp2414
g23
(lp2415
sg27
V[  ]
p2416
sbsg27
V[  ] ---> [ -highTone ] / [ -low ] [ +lateral ] _ 
p2417
sba(irule
Rule
p2418
(dp2419
g15
(irule
Guard
p2420
(dp2421
g18
I00
sg19
(lp2422
(irule
FeatureMatrix
p2423
(dp2424
g23
(lp2425
sg27
V[  ]
p2426
sba(irule
FeatureMatrix
p2427
(dp2428
g23
(lp2429
(I00
g2401
tp2430
a(I01
S'vowel'
p2431
tp2432
asg27
V[ +vowel -low ]
p2433
sbasg29
I00
sg27
V[ +vowel -low ] [  ]
p2434
sg30
I00
sg31
S'L'
sbsg32
(irule
FeatureMatrix
p2435
(dp2436
g23
(lp2437
(I00
g2260
tp2438
asg27
V[ -highTone ]
p2439
sbsg36
(irule
Guard
p2440
(dp2441
g18
I00
sg19
(lp2442
sg29
I00
sg27
V
sg30
I00
sg31
S'R'
sbsg40
(irule
FeatureMatrix
p2443
(dp2444
g23
(lp2445
sg27
V[  ]
p2446
sbsg27
V[  ] ---> [ -highTone ] / [ +vowel -low ] [  ] _ 
p2447
sba(irule
Rule
p2448
(dp2449
g15
(irule
Guard
p2450
(dp2451
g18
I00
sg19
(lp2452
(irule
FeatureMatrix
p2453
(dp2454
g23
(lp2455
(I01
g2395
tp2456
asg27
V[ +lateral ]
p2457
sba(irule
FeatureMatrix
p2458
(dp2459
g23
(lp2460
(I01
g2312
tp2461
asg27
V[ +rounded ]
p2462
sbasg29
I00
sg27
V[ +rounded ] [ +lateral ]
p2463
sg30
I00
sg31
S'L'
sbsg32
(irule
FeatureMatrix
p2464
(dp2465
g23
(lp2466
(I00
g2260
tp2467
asg27
V[ -highTone ]
p2468
sbsg36
(irule
Guard
p2469
(dp2470
g18
I00
sg19
(lp2471
sg29
I00
sg27
V
sg30
I00
sg31
S'R'
sbsg40
(irule
FeatureMatrix
p2472
(dp2473
g23
(lp2474
sg27
V[  ]
p2475
sbsg27
V[  ] ---> [ -highTone ] / [ +rounded ] [ +lateral ] _ 
p2476
sba(irule
Rule
p2477
(dp2478
g15
(irule
Guard
p2479
(dp2480
g18
I00
sg19
(lp2481
(irule
ConstantPhoneme
p2482
(dp2483
S'p'
Vl
sba(irule
FeatureMatrix
p2484
(dp2485
g23
(lp2486
(I00
g2401
tp2487
asg27
V[ -low ]
p2488
sbasg29
I00
sg27
V[ -low ] l
p2489
sg30
I00
sg31
S'L'
sbsg32
(irule
FeatureMatrix
p2490
(dp2491
g23
(lp2492
(I00
g2260
tp2493
asg27
V[ -highTone ]
p2494
sbsg36
(irule
Guard
p2495
(dp2496
g18
I00
sg19
(lp2497
sg29
I00
sg27
V
sg30
I00
sg31
S'R'
sbsg40
(irule
FeatureMatrix
p2498
(dp2499
g23
(lp2500
sg27
V[  ]
p2501
sbsg27
V[  ] ---> [ -highTone ] / [ -low ] l _ 
p2502
sba(irule
Rule
p2503
(dp2504
g15
(irule
Guard
p2505
(dp2506
g18
I00
sg19
(lp2507
(irule
FeatureMatrix
p2508
(dp2509
g23
(lp2510
(I00
S'nasal'
p2511
tp2512
asg27
V[ -nasal ]
p2513
sba(irule
FeatureMatrix
p2514
(dp2515
g23
(lp2516
(I01
g2283
tp2517
asg27
V[ +high ]
p2518
sbasg29
I00
sg27
V[ +high ] [ -nasal ]
p2519
sg30
I00
sg31
S'L'
sbsg32
(irule
FeatureMatrix
p2520
(dp2521
g23
(lp2522
(I00
g2260
tp2523
asg27
V[ -highTone ]
p2524
sbsg36
(irule
Guard
p2525
(dp2526
g18
I00
sg19
(lp2527
sg29
I00
sg27
V
sg30
I00
sg31
S'R'
sbsg40
(irule
FeatureMatrix
p2528
(dp2529
g23
(lp2530
sg27
V[  ]
p2531
sbsg27
V[  ] ---> [ -highTone ] / [ +high ] [ -nasal ] _ 
p2532
sba(irule
Rule
p2533
(dp2534
g15
(irule
Guard
p2535
(dp2536
g18
I00
sg19
(lp2537
(irule
FeatureMatrix
p2538
(dp2539
g23
(lp2540
sg27
V[  ]
p2541
sba(irule
FeatureMatrix
p2542
(dp2543
g23
(lp2544
(I01
g2312
tp2545
asg27
V[ +rounded ]
p2546
sbasg29
I00
sg27
V[ +rounded ] [  ]
p2547
sg30
I00
sg31
S'L'
sbsg32
(irule
FeatureMatrix
p2548
(dp2549
g23
(lp2550
(I00
g2260
tp2551
asg27
V[ -highTone ]
p2552
sbsg36
(irule
Guard
p2553
(dp2554
g18
I00
sg19
(lp2555
sg29
I00
sg27
V
sg30
I00
sg31
S'R'
sbsg40
(irule
FeatureMatrix
p2556
(dp2557
g23
(lp2558
(I01
S'voice'
p2559
tp2560
asg27
V[ +voice ]
p2561
sbsg27
V[ +voice ] ---> [ -highTone ] / [ +rounded ] [  ] _ 
p2562
sba(irule
Rule
p2563
(dp2564
g15
(irule
Guard
p2565
(dp2566
g18
I00
sg19
(lp2567
(irule
ConstantPhoneme
p2568
(dp2569
S'p'
Vl
sba(irule
FeatureMatrix
p2570
(dp2571
g23
(lp2572
(I00
g2401
tp2573
asg27
V[ -low ]
p2574
sbasg29
I00
sg27
V[ -low ] l
p2575
sg30
I00
sg31
S'L'
sbsg32
(irule
ConstantPhoneme
p2576
(dp2577
S'p'
Va
sbsg36
(irule
Guard
p2578
(dp2579
g18
I00
sg19
(lp2580
sg29
I00
sg27
V
sg30
I00
sg31
S'R'
sbsg40
(irule
FeatureMatrix
p2581
(dp2582
g23
(lp2583
sg27
V[  ]
p2584
sbsg27
V[  ] ---> a / [ -low ] l _ 
p2585
sba(irule
Rule
p2586
(dp2587
g15
(irule
Guard
p2588
(dp2589
g18
I00
sg19
(lp2590
(irule
FeatureMatrix
p2591
(dp2592
g23
(lp2593
sg27
V[  ]
p2594
sba(irule
FeatureMatrix
p2595
(dp2596
g23
(lp2597
(I01
S'tense'
p2598
tp2599
a(I00
g2401
tp2600
asg27
V[ +tense -low ]
p2601
sbasg29
I00
sg27
V[ +tense -low ] [  ]
p2602
sg30
I00
sg31
S'L'
sbsg32
(irule
FeatureMatrix
p2603
(dp2604
g23
(lp2605
(I00
g2260
tp2606
asg27
V[ -highTone ]
p2607
sbsg36
(irule
Guard
p2608
(dp2609
g18
I00
sg19
(lp2610
sg29
I00
sg27
V
sg30
I00
sg31
S'R'
sbsg40
(irule
FeatureMatrix
p2611
(dp2612
g23
(lp2613
sg27
V[  ]
p2614
sbsg27
V[  ] ---> [ -highTone ] / [ +tense -low ] [  ] _ 
p2615
sba(irule
Rule
p2616
(dp2617
g15
(irule
Guard
p2618
(dp2619
g18
I00
sg19
(lp2620
(irule
FeatureMatrix
p2621
(dp2622
g23
(lp2623
(I01
g2395
tp2624
asg27
V[ +lateral ]
p2625
sba(irule
ConstantPhoneme
p2626
(dp2627
S'p'
g2255
sbasg29
I00
sg27
Vu\u0301 [ +lateral ]
p2628
sg30
I00
sg31
S'L'
sbsg32
(irule
FeatureMatrix
p2629
(dp2630
g23
(lp2631
(I00
g2260
tp2632
asg27
V[ -highTone ]
p2633
sbsg36
(irule
Guard
p2634
(dp2635
g18
I00
sg19
(lp2636
sg29
I00
sg27
V
sg30
I00
sg31
S'R'
sbsg40
(irule
FeatureMatrix
p2637
(dp2638
g23
(lp2639
sg27
V[  ]
p2640
sbsg27
V[  ] ---> [ -highTone ] / u\u0301 [ +lateral ] _ 
p2641
sba(irule
Rule
p2642
(dp2643
g15
(irule
Guard
p2644
(dp2645
g18
I00
sg19
(lp2646
(irule
FeatureMatrix
p2647
(dp2648
g23
(lp2649
sg27
V[  ]
p2650
sba(irule
FeatureMatrix
p2651
(dp2652
g23
(lp2653
(I01
g2312
tp2654
asg27
V[ +rounded ]
p2655
sbasg29
I00
sg27
V[ +rounded ] [  ]
p2656
sg30
I00
sg31
S'L'
sbsg32
(irule
FeatureMatrix
p2657
(dp2658
g23
(lp2659
(I00
g2260
tp2660
a(I01
g2559
tp2661
asg27
V[ +voice -highTone ]
p2662
sbsg36
(irule
Guard
p2663
(dp2664
g18
I00
sg19
(lp2665
sg29
I00
sg27
V
sg30
I00
sg31
S'R'
sbsg40
(irule
FeatureMatrix
p2666
(dp2667
g23
(lp2668
sg27
V[  ]
p2669
sbsg27
V[  ] ---> [ +voice -highTone ] / [ +rounded ] [  ] _ 
p2670
sba(irule
Rule
p2671
(dp2672
g15
(irule
Guard
p2673
(dp2674
g18
I00
sg19
(lp2675
(irule
FeatureMatrix
p2676
(dp2677
g23
(lp2678
sg27
V[  ]
p2679
sba(irule
FeatureMatrix
p2680
(dp2681
g23
(lp2682
(I01
g2283
tp2683
asg27
V[ +high ]
p2684
sbasg29
I00
sg27
V[ +high ] [  ]
p2685
sg30
I00
sg31
S'L'
sbsg32
(irule
FeatureMatrix
p2686
(dp2687
g23
(lp2688
(I00
g2260
tp2689
asg27
V[ -highTone ]
p2690
sbsg36
(irule
Guard
p2691
(dp2692
g18
I01
sg19
(lp2693
sg29
I00
sg27
V#
sg30
I00
sg31
S'R'
sbsg40
(irule
FeatureMatrix
p2694
(dp2695
g23
(lp2696
sg27
V[  ]
p2697
sbsg27
V[  ] ---> [ -highTone ] / [ +high ] [  ] _ #
p2698
sba(irule
Rule
p2699
(dp2700
g15
(irule
Guard
p2701
(dp2702
g18
I00
sg19
(lp2703
(irule
FeatureMatrix
p2704
(dp2705
g23
(lp2706
sg27
V[  ]
p2707
sba(irule
ConstantPhoneme
p2708
(dp2709
S'p'
g2255
sbasg29
I00
sg27
Vu\u0301 [  ]*
p2710
sg30
I01
sg31
S'L'
sbsg32
(irule
FeatureMatrix
p2711
(dp2712
g23
(lp2713
(I00
g2260
tp2714
asg27
V[ -highTone ]
p2715
sbsg36
(irule
Guard
p2716
(dp2717
g18
I00
sg19
(lp2718
sg29
I00
sg27
V
sg30
I00
sg31
S'R'
sbsg40
(irule
FeatureMatrix
p2719
(dp2720
g23
(lp2721
sg27
V[  ]
p2722
sbsg27
V[  ] ---> [ -highTone ] / u\u0301 [  ]* _ 
p2723
sba(irule
Rule
p2724
(dp2725
g15
(irule
Guard
p2726
(dp2727
g18
I00
sg19
(lp2728
(irule
FeatureMatrix
p2729
(dp2730
g23
(lp2731
sg27
V[  ]
p2732
sba(irule
FeatureMatrix
p2733
(dp2734
g23
(lp2735
(I01
g2312
tp2736
asg27
V[ +rounded ]
p2737
sbasg29
I00
sg27
V[ +rounded ] [  ]
p2738
sg30
I00
sg31
S'L'
sbsg32
(irule
FeatureMatrix
p2739
(dp2740
g23
(lp2741
(I00
g2260
tp2742
asg27
V[ -highTone ]
p2743
sbsg36
(irule
Guard
p2744
(dp2745
g18
I00
sg19
(lp2746
sg29
I00
sg27
V
sg30
I00
sg31
S'R'
sbsg40
(irule
ConstantPhoneme
p2747
(dp2748
S'p'
Va\u0301
p2749
sbsg27
Va\u0301 ---> [ -highTone ] / [ +rounded ] [  ] _ 
p2750
sba(irule
Rule
p2751
(dp2752
g15
(irule
Guard
p2753
(dp2754
g18
I00
sg19
(lp2755
(irule
ConstantPhoneme
p2756
(dp2757
S'p'
Vl
sba(irule
FeatureMatrix
p2758
(dp2759
g23
(lp2760
(I01
g2260
tp2761
asg27
V[ +highTone ]
p2762
sbasg29
I00
sg27
V[ +highTone ] l
p2763
sg30
I00
sg31
S'L'
sbsg32
(irule
FeatureMatrix
p2764
(dp2765
g23
(lp2766
(I00
g2260
tp2767
asg27
V[ -highTone ]
p2768
sbsg36
(irule
Guard
p2769
(dp2770
g18
I00
sg19
(lp2771
sg29
I00
sg27
V
sg30
I00
sg31
S'R'
sbsg40
(irule
FeatureMatrix
p2772
(dp2773
g23
(lp2774
sg27
V[  ]
p2775
sbsg27
V[  ] ---> [ -highTone ] / [ +highTone ] l _ 
p2776
sba(irule
Rule
p2777
(dp2778
g15
(irule
Guard
p2779
(dp2780
g18
I00
sg19
(lp2781
(irule
FeatureMatrix
p2782
(dp2783
g23
(lp2784
sg27
V[  ]
p2785
sba(irule
FeatureMatrix
p2786
(dp2787
g23
(lp2788
(I01
g2312
tp2789
a(I00
g2401
tp2790
asg27
V[ +rounded -low ]
p2791
sbasg29
I00
sg27
V[ +rounded -low ] [  ]
p2792
sg30
I00
sg31
S'L'
sbsg32
(irule
FeatureMatrix
p2793
(dp2794
g23
(lp2795
(I00
g2260
tp2796
asg27
V[ -highTone ]
p2797
sbsg36
(irule
Guard
p2798
(dp2799
g18
I00
sg19
(lp2800
sg29
I00
sg27
V
sg30
I00
sg31
S'R'
sbsg40
(irule
FeatureMatrix
p2801
(dp2802
g23
(lp2803
sg27
V[  ]
p2804
sbsg27
V[  ] ---> [ -highTone ] / [ +rounded -low ] [  ] _ 
p2805
sba(irule
Rule
p2806
(dp2807
g15
(irule
Guard
p2808
(dp2809
g18
I00
sg19
(lp2810
(irule
FeatureMatrix
p2811
(dp2812
g23
(lp2813
sg27
V[  ]
p2814
sba(irule
FeatureMatrix
p2815
(dp2816
g23
(lp2817
(I01
g2283
tp2818
asg27
V[ +high ]
p2819
sbasg29
I00
sg27
V[ +high ] [  ]
p2820
sg30
I00
sg31
S'L'
sbsg32
(irule
FeatureMatrix
p2821
(dp2822
g23
(lp2823
(I00
g2260
tp2824
asg27
V[ -highTone ]
p2825
sbsg36
(irule
Guard
p2826
(dp2827
g18
I00
sg19
(lp2828
sg29
I00
sg27
V
sg30
I00
sg31
S'R'
sbsg40
(irule
FeatureMatrix
p2829
(dp2830
g23
(lp2831
(I01
S'continuant'
p2832
tp2833
asg27
V[ +continuant ]
p2834
sbsg27
V[ +continuant ] ---> [ -highTone ] / [ +high ] [  ] _ 
p2835
sba(irule
Rule
p2836
(dp2837
g15
(irule
Guard
p2838
(dp2839
g18
I00
sg19
(lp2840
(irule
FeatureMatrix
p2841
(dp2842
g23
(lp2843
sg27
V[  ]
p2844
sba(irule
FeatureMatrix
p2845
(dp2846
g23
(lp2847
(I01
g2283
tp2848
a(I00
g2401
tp2849
asg27
V[ +high -low ]
p2850
sbasg29
I00
sg27
V[ +high -low ] [  ]
p2851
sg30
I00
sg31
S'L'
sbsg32
(irule
FeatureMatrix
p2852
(dp2853
g23
(lp2854
(I00
g2260
tp2855
asg27
V[ -highTone ]
p2856
sbsg36
(irule
Guard
p2857
(dp2858
g18
I00
sg19
(lp2859
sg29
I00
sg27
V
sg30
I00
sg31
S'R'
sbsg40
(irule
FeatureMatrix
p2860
(dp2861
g23
(lp2862
sg27
V[  ]
p2863
sbsg27
V[  ] ---> [ -highTone ] / [ +high -low ] [  ] _ 
p2864
sba(irule
Rule
p2865
(dp2866
g15
(irule
Guard
p2867
(dp2868
g18
I00
sg19
(lp2869
(irule
FeatureMatrix
p2870
(dp2871
g23
(lp2872
(I01
g2395
tp2873
asg27
V[ +lateral ]
p2874
sba(irule
FeatureMatrix
p2875
(dp2876
g23
(lp2877
(I01
g2283
tp2878
asg27
V[ +high ]
p2879
sbasg29
I00
sg27
V[ +high ] [ +lateral ]
p2880
sg30
I00
sg31
S'L'
sbsg32
(irule
FeatureMatrix
p2881
(dp2882
g23
(lp2883
(I00
g2260
tp2884
asg27
V[ -highTone ]
p2885
sbsg36
(irule
Guard
p2886
(dp2887
g18
I00
sg19
(lp2888
sg29
I00
sg27
V
sg30
I00
sg31
S'R'
sbsg40
(irule
FeatureMatrix
p2889
(dp2890
g23
(lp2891
sg27
V[  ]
p2892
sbsg27
V[  ] ---> [ -highTone ] / [ +high ] [ +lateral ] _ 
p2893
sba(irule
Rule
p2894
(dp2895
g15
(irule
Guard
p2896
(dp2897
g18
I00
sg19
(lp2898
(irule
FeatureMatrix
p2899
(dp2900
g23
(lp2901
sg27
V[  ]
p2902
sba(irule
FeatureMatrix
p2903
(dp2904
g23
(lp2905
(I01
S'back'
p2906
tp2907
a(I00
g2401
tp2908
asg27
V[ +back -low ]
p2909
sbasg29
I00
sg27
V[ +back -low ] [  ]
p2910
sg30
I00
sg31
S'L'
sbsg32
(irule
FeatureMatrix
p2911
(dp2912
g23
(lp2913
(I00
g2260
tp2914
asg27
V[ -highTone ]
p2915
sbsg36
(irule
Guard
p2916
(dp2917
g18
I00
sg19
(lp2918
sg29
I00
sg27
V
sg30
I00
sg31
S'R'
sbsg40
(irule
FeatureMatrix
p2919
(dp2920
g23
(lp2921
sg27
V[  ]
p2922
sbsg27
V[  ] ---> [ -highTone ] / [ +back -low ] [  ] _ 
p2923
sba(irule
Rule
p2924
(dp2925
g15
(irule
Guard
p2926
(dp2927
g18
I00
sg19
(lp2928
(irule
FeatureMatrix
p2929
(dp2930
g23
(lp2931
sg27
V[  ]
p2932
sba(irule
FeatureMatrix
p2933
(dp2934
g23
(lp2935
(I01
g2260
tp2936
asg27
V[ +highTone ]
p2937
sbasg29
I00
sg27
V[ +highTone ] [  ]
p2938
sg30
I00
sg31
S'L'
sbsg32
(irule
FeatureMatrix
p2939
(dp2940
g23
(lp2941
(I00
g2260
tp2942
asg27
V[ -highTone ]
p2943
sbsg36
(irule
Guard
p2944
(dp2945
g18
I00
sg19
(lp2946
sg29
I00
sg27
V
sg30
I00
sg31
S'R'
sbsg40
(irule
FeatureMatrix
p2947
(dp2948
g23
(lp2949
(I01
g2401
tp2950
asg27
V[ +low ]
p2951
sbsg27
V[ +low ] ---> [ -highTone ] / [ +highTone ] [  ] _ 
p2952
sba(irule
Rule
p2953
(dp2954
g15
(irule
Guard
p2955
(dp2956
g18
I00
sg19
(lp2957
(irule
FeatureMatrix
p2958
(dp2959
g23
(lp2960
sg27
V[  ]
p2961
sba(irule
FeatureMatrix
p2962
(dp2963
g23
(lp2964
(I01
g2283
tp2965
asg27
V[ +high ]
p2966
sbasg29
I00
sg27
V[ +high ] [  ]
p2967
sg30
I00
sg31
S'L'
sbsg32
(irule
FeatureMatrix
p2968
(dp2969
g23
(lp2970
(I00
g2260
tp2971
asg27
V[ -highTone ]
p2972
sbsg36
(irule
Guard
p2973
(dp2974
g18
I00
sg19
(lp2975
sg29
I00
sg27
V
sg30
I00
sg31
S'R'
sbsg40
(irule
FeatureMatrix
p2976
(dp2977
g23
(lp2978
(I00
S'palletized'
p2979
tp2980
asg27
V[ -palletized ]
p2981
sbsg27
V[ -palletized ] ---> [ -highTone ] / [ +high ] [  ] _ 
p2982
sba(irule
Rule
p2983
(dp2984
g15
(irule
Guard
p2985
(dp2986
g18
I00
sg19
(lp2987
(irule
FeatureMatrix
p2988
(dp2989
g23
(lp2990
sg27
V[  ]
p2991
sba(irule
FeatureMatrix
p2992
(dp2993
g23
(lp2994
(I01
g2312
tp2995
asg27
V[ +rounded ]
p2996
sbasg29
I00
sg27
V[ +rounded ] [  ]
p2997
sg30
I00
sg31
S'L'
sbsg32
(irule
FeatureMatrix
p2998
(dp2999
g23
(lp3000
(I00
g2260
tp3001
asg27
V[ -highTone ]
p3002
sbsg36
(irule
Guard
p3003
(dp3004
g18
I00
sg19
(lp3005
sg29
I00
sg27
V
sg30
I00
sg31
S'R'
sbsg40
(irule
FeatureMatrix
p3006
(dp3007
g23
(lp3008
(I00
g2312
tp3009
asg27
V[ -rounded ]
p3010
sbsg27
V[ -rounded ] ---> [ -highTone ] / [ +rounded ] [  ] _ 
p3011
sba(irule
Rule
p3012
(dp3013
g15
(irule
Guard
p3014
(dp3015
g18
I00
sg19
(lp3016
(irule
FeatureMatrix
p3017
(dp3018
g23
(lp3019
sg27
V[  ]
p3020
sba(irule
FeatureMatrix
p3021
(dp3022
g23
(lp3023
(I01
g2260
tp3024
a(I00
g2401
tp3025
asg27
V[ +highTone -low ]
p3026
sbasg29
I00
sg27
V[ +highTone -low ] [  ]
p3027
sg30
I00
sg31
S'L'
sbsg32
(irule
FeatureMatrix
p3028
(dp3029
g23
(lp3030
(I00
g2260
tp3031
asg27
V[ -highTone ]
p3032
sbsg36
(irule
Guard
p3033
(dp3034
g18
I00
sg19
(lp3035
sg29
I00
sg27
V
sg30
I00
sg31
S'R'
sbsg40
(irule
FeatureMatrix
p3036
(dp3037
g23
(lp3038
sg27
V[  ]
p3039
sbsg27
V[  ] ---> [ -highTone ] / [ +highTone -low ] [  ] _ 
p3040
sba(irule
Rule
p3041
(dp3042
g15
(irule
Guard
p3043
(dp3044
g18
I00
sg19
(lp3045
(irule
FeatureMatrix
p3046
(dp3047
g23
(lp3048
sg27
V[  ]
p3049
sba(irule
FeatureMatrix
p3050
(dp3051
g23
(lp3052
(I01
g2283
tp3053
asg27
V[ +high ]
p3054
sbasg29
I00
sg27
V[ +high ] [  ]
p3055
sg30
I00
sg31
S'L'
sbsg32
(irule
FeatureMatrix
p3056
(dp3057
g23
(lp3058
(I00
g2260
tp3059
a(I01
S'sonorant'
p3060
tp3061
asg27
V[ +sonorant -highTone ]
p3062
sbsg36
(irule
Guard
p3063
(dp3064
g18
I00
sg19
(lp3065
sg29
I00
sg27
V
sg30
I00
sg31
S'R'
sbsg40
(irule
FeatureMatrix
p3066
(dp3067
g23
(lp3068
sg27
V[  ]
p3069
sbsg27
V[  ] ---> [ +sonorant -highTone ] / [ +high ] [  ] _ 
p3070
sba(irule
Rule
p3071
(dp3072
g15
(irule
Guard
p3073
(dp3074
g18
I00
sg19
(lp3075
(irule
ConstantPhoneme
p3076
(dp3077
S'p'
Vl
sba(irule
ConstantPhoneme
p3078
(dp3079
S'p'
g2255
sbasg29
I00
sg27
Vu\u0301 l
p3080
sg30
I00
sg31
S'L'
sbsg32
(irule
FeatureMatrix
p3081
(dp3082
g23
(lp3083
(I00
g2260
tp3084
asg27
V[ -highTone ]
p3085
sbsg36
(irule
Guard
p3086
(dp3087
g18
I00
sg19
(lp3088
sg29
I00
sg27
V
sg30
I00
sg31
S'R'
sbsg40
(irule
FeatureMatrix
p3089
(dp3090
g23
(lp3091
sg27
V[  ]
p3092
sbsg27
V[  ] ---> [ -highTone ] / u\u0301 l _ 
p3093
sba(irule
Rule
p3094
(dp3095
g15
(irule
Guard
p3096
(dp3097
g18
I00
sg19
(lp3098
(irule
FeatureMatrix
p3099
(dp3100
g23
(lp3101
sg27
V[  ]
p3102
sba(irule
FeatureMatrix
p3103
(dp3104
g23
(lp3105
(I01
g3060
tp3106
a(I01
g2283
tp3107
asg27
V[ +high +sonorant ]
p3108
sbasg29
I00
sg27
V[ +high +sonorant ] [  ]
p3109
sg30
I00
sg31
S'L'
sbsg32
(irule
FeatureMatrix
p3110
(dp3111
g23
(lp3112
(I00
g2260
tp3113
asg27
V[ -highTone ]
p3114
sbsg36
(irule
Guard
p3115
(dp3116
g18
I00
sg19
(lp3117
sg29
I00
sg27
V
sg30
I00
sg31
S'R'
sbsg40
(irule
FeatureMatrix
p3118
(dp3119
g23
(lp3120
sg27
V[  ]
p3121
sbsg27
V[  ] ---> [ -highTone ] / [ +high +sonorant ] [  ] _ 
p3122
sba(irule
Rule
p3123
(dp3124
g15
(irule
Guard
p3125
(dp3126
g18
I00
sg19
(lp3127
(irule
ConstantPhoneme
p3128
(dp3129
S'p'
Vl
sba(irule
FeatureMatrix
p3130
(dp3131
g23
(lp3132
(I01
g2283
tp3133
asg27
V[ +high ]
p3134
sbasg29
I00
sg27
V[ +high ] l
p3135
sg30
I00
sg31
S'L'
sbsg32
(irule
FeatureMatrix
p3136
(dp3137
g23
(lp3138
(I00
g2260
tp3139
asg27
V[ -highTone ]
p3140
sbsg36
(irule
Guard
p3141
(dp3142
g18
I00
sg19
(lp3143
sg29
I00
sg27
V
sg30
I00
sg31
S'R'
sbsg40
(irule
FeatureMatrix
p3144
(dp3145
g23
(lp3146
sg27
V[  ]
p3147
sbsg27
V[  ] ---> [ -highTone ] / [ +high ] l _ 
p3148
sba(irule
Rule
p3149
(dp3150
g15
(irule
Guard
p3151
(dp3152
g18
I00
sg19
(lp3153
(irule
FeatureMatrix
p3154
(dp3155
g23
(lp3156
sg27
V[  ]
p3157
sba(irule
FeatureMatrix
p3158
(dp3159
g23
(lp3160
(I01
g2312
tp3161
asg27
V[ +rounded ]
p3162
sbasg29
I00
sg27
V[ +rounded ] [  ]
p3163
sg30
I00
sg31
S'L'
sbsg32
(irule
FeatureMatrix
p3164
(dp3165
g23
(lp3166
(I00
g2260
tp3167
asg27
V[ -highTone ]
p3168
sbsg36
(irule
Guard
p3169
(dp3170
g18
I00
sg19
(lp3171
sg29
I00
sg27
V
sg30
I00
sg31
S'R'
sbsg40
(irule
FeatureMatrix
p3172
(dp3173
g23
(lp3174
(I00
g2383
tp3175
asg27
V[ -glide ]
p3176
sbsg27
V[ -glide ] ---> [ -highTone ] / [ +rounded ] [  ] _ 
p3177
sba(irule
Rule
p3178
(dp3179
g15
(irule
Guard
p3180
(dp3181
g18
I00
sg19
(lp3182
(irule
FeatureMatrix
p3183
(dp3184
g23
(lp3185
sg27
V[  ]
p3186
sba(irule
FeatureMatrix
p3187
(dp3188
g23
(lp3189
(I01
g2260
tp3190
asg27
V[ +highTone ]
p3191
sbasg29
I00
sg27
V[ +highTone ] [  ]
p3192
sg30
I00
sg31
S'L'
sbsg32
(irule
FeatureMatrix
p3193
(dp3194
g23
(lp3195
(I00
g2260
tp3196
asg27
V[ -highTone ]
p3197
sbsg36
(irule
Guard
p3198
(dp3199
g18
I00
sg19
(lp3200
sg29
I00
sg27
V
sg30
I00
sg31
S'R'
sbsg40
(irule
FeatureMatrix
p3201
(dp3202
g23
(lp3203
(I00
g2312
tp3204
asg27
V[ -rounded ]
p3205
sbsg27
V[ -rounded ] ---> [ -highTone ] / [ +highTone ] [  ] _ 
p3206
sba(irule
Rule
p3207
(dp3208
g15
(irule
Guard
p3209
(dp3210
g18
I00
sg19
(lp3211
(irule
FeatureMatrix
p3212
(dp3213
g23
(lp3214
sg27
V[  ]
p3215
sba(irule
FeatureMatrix
p3216
(dp3217
g23
(lp3218
(I01
g2283
tp3219
asg27
V[ +high ]
p3220
sbasg29
I00
sg27
V[ +high ] [  ]
p3221
sg30
I00
sg31
S'L'
sbsg32
(irule
FeatureMatrix
p3222
(dp3223
g23
(lp3224
(I00
g2260
tp3225
asg27
V[ -highTone ]
p3226
sbsg36
(irule
Guard
p3227
(dp3228
g18
I00
sg19
(lp3229
sg29
I00
sg27
V
sg30
I00
sg31
S'R'
sbsg40
(irule
FeatureMatrix
p3230
(dp3231
g23
(lp3232
(I01
g2559
tp3233
asg27
V[ +voice ]
p3234
sbsg27
V[ +voice ] ---> [ -highTone ] / [ +high ] [  ] _ 
p3235
sba(irule
Rule
p3236
(dp3237
g15
(irule
Guard
p3238
(dp3239
g18
I00
sg19
(lp3240
(irule
FeatureMatrix
p3241
(dp3242
g23
(lp3243
sg27
V[  ]
p3244
sba(irule
FeatureMatrix
p3245
(dp3246
g23
(lp3247
(I01
g2260
tp3248
asg27
V[ +highTone ]
p3249
sbasg29
I00
sg27
V[ +highTone ] [  ]
p3250
sg30
I00
sg31
S'L'
sbsg32
(irule
FeatureMatrix
p3251
(dp3252
g23
(lp3253
(I00
g2260
tp3254
asg27
V[ -highTone ]
p3255
sbsg36
(irule
Guard
p3256
(dp3257
g18
I00
sg19
(lp3258
sg29
I00
sg27
V
sg30
I00
sg31
S'R'
sbsg40
(irule
FeatureMatrix
p3259
(dp3260
g23
(lp3261
(I00
S'anterior'
p3262
tp3263
asg27
V[ -anterior ]
p3264
sbsg27
V[ -anterior ] ---> [ -highTone ] / [ +highTone ] [  ] _ 
p3265
sba(irule
Rule
p3266
(dp3267
g15
(irule
Guard
p3268
(dp3269
g18
I00
sg19
(lp3270
(irule
FeatureMatrix
p3271
(dp3272
g23
(lp3273
(I00
g2401
tp3274
asg27
V[ -low ]
p3275
sba(irule
FeatureMatrix
p3276
(dp3277
g23
(lp3278
(I01
g2283
tp3279
asg27
V[ +high ]
p3280
sbasg29
I00
sg27
V[ +high ] [ -low ]
p3281
sg30
I00
sg31
S'L'
sbsg32
(irule
FeatureMatrix
p3282
(dp3283
g23
(lp3284
(I00
g2260
tp3285
asg27
V[ -highTone ]
p3286
sbsg36
(irule
Guard
p3287
(dp3288
g18
I00
sg19
(lp3289
sg29
I00
sg27
V
sg30
I00
sg31
S'R'
sbsg40
(irule
FeatureMatrix
p3290
(dp3291
g23
(lp3292
sg27
V[  ]
p3293
sbsg27
V[  ] ---> [ -highTone ] / [ +high ] [ -low ] _ 
p3294
sba(irule
Rule
p3295
(dp3296
g15
(irule
Guard
p3297
(dp3298
g18
I00
sg19
(lp3299
(irule
FeatureMatrix
p3300
(dp3301
g23
(lp3302
(I00
g2511
tp3303
asg27
V[ -nasal ]
p3304
sba(irule
FeatureMatrix
p3305
(dp3306
g23
(lp3307
(I01
g2312
tp3308
asg27
V[ +rounded ]
p3309
sbasg29
I00
sg27
V[ +rounded ] [ -nasal ]
p3310
sg30
I00
sg31
S'L'
sbsg32
(irule
FeatureMatrix
p3311
(dp3312
g23
(lp3313
(I00
g2260
tp3314
asg27
V[ -highTone ]
p3315
sbsg36
(irule
Guard
p3316
(dp3317
g18
I00
sg19
(lp3318
sg29
I00
sg27
V
sg30
I00
sg31
S'R'
sbsg40
(irule
FeatureMatrix
p3319
(dp3320
g23
(lp3321
sg27
V[  ]
p3322
sbsg27
V[  ] ---> [ -highTone ] / [ +rounded ] [ -nasal ] _ 
p3323
sba(irule
Rule
p3324
(dp3325
g15
(irule
Guard
p3326
(dp3327
g18
I00
sg19
(lp3328
(irule
FeatureMatrix
p3329
(dp3330
g23
(lp3331
sg27
V[  ]
p3332
sba(irule
FeatureMatrix
p3333
(dp3334
g23
(lp3335
(I01
g2260
tp3336
asg27
V[ +highTone ]
p3337
sbasg29
I00
sg27
V[ +highTone ] [  ]
p3338
sg30
I00
sg31
S'L'
sbsg32
(irule
FeatureMatrix
p3339
(dp3340
g23
(lp3341
(I00
g2260
tp3342
asg27
V[ -highTone ]
p3343
sbsg36
(irule
Guard
p3344
(dp3345
g18
I00
sg19
(lp3346
sg29
I00
sg27
V
sg30
I00
sg31
S'R'
sbsg40
(irule
FeatureMatrix
p3347
(dp3348
g23
(lp3349
(I01
g3060
tp3350
asg27
V[ +sonorant ]
p3351
sbsg27
V[ +sonorant ] ---> [ -highTone ] / [ +highTone ] [  ] _ 
p3352
sba(irule
Rule
p3353
(dp3354
g15
(irule
Guard
p3355
(dp3356
g18
I00
sg19
(lp3357
(irule
FeatureMatrix
p3358
(dp3359
g23
(lp3360
sg27
V[  ]
p3361
sba(irule
ConstantPhoneme
p3362
(dp3363
S'p'
g2255
sbasg29
I00
sg27
Vu\u0301 [  ]
p3364
sg30
I00
sg31
S'L'
sbsg32
(irule
FeatureMatrix
p3365
(dp3366
g23
(lp3367
(I00
g2260
tp3368
asg27
V[ -highTone ]
p3369
sbsg36
(irule
Guard
p3370
(dp3371
g18
I01
sg19
(lp3372
sg29
I00
sg27
V#
sg30
I00
sg31
S'R'
sbsg40
(irule
FeatureMatrix
p3373
(dp3374
g23
(lp3375
sg27
V[  ]
p3376
sbsg27
V[  ] ---> [ -highTone ] / u\u0301 [  ] _ #
p3377
sba(irule
Rule
p3378
(dp3379
g15
(irule
Guard
p3380
(dp3381
g18
I00
sg19
(lp3382
(irule
ConstantPhoneme
p3383
(dp3384
S'p'
Vl
sba(irule
FeatureMatrix
p3385
(dp3386
g23
(lp3387
(I01
g2312
tp3388
asg27
V[ +rounded ]
p3389
sbasg29
I00
sg27
V[ +rounded ] l
p3390
sg30
I00
sg31
S'L'
sbsg32
(irule
FeatureMatrix
p3391
(dp3392
g23
(lp3393
(I00
g2260
tp3394
asg27
V[ -highTone ]
p3395
sbsg36
(irule
Guard
p3396
(dp3397
g18
I00
sg19
(lp3398
sg29
I00
sg27
V
sg30
I00
sg31
S'R'
sbsg40
(irule
FeatureMatrix
p3399
(dp3400
g23
(lp3401
sg27
V[  ]
p3402
sbsg27
V[  ] ---> [ -highTone ] / [ +rounded ] l _ 
p3403
sba(irule
Rule
p3404
(dp3405
g15
(irule
Guard
p3406
(dp3407
g18
I00
sg19
(lp3408
(irule
FeatureMatrix
p3409
(dp3410
g23
(lp3411
sg27
V[  ]
p3412
sba(irule
FeatureMatrix
p3413
(dp3414
g23
(lp3415
(I01
g2312
tp3416
asg27
V[ +rounded ]
p3417
sbasg29
I00
sg27
V[ +rounded ] [  ]
p3418
sg30
I00
sg31
S'L'
sbsg32
(irule
FeatureMatrix
p3419
(dp3420
g23
(lp3421
(I00
g2260
tp3422
asg27
V[ -highTone ]
p3423
sbsg36
(irule
Guard
p3424
(dp3425
g18
I00
sg19
(lp3426
sg29
I00
sg27
V
sg30
I00
sg31
S'R'
sbsg40
(irule
FeatureMatrix
p3427
(dp3428
g23
(lp3429
(I01
g2431
tp3430
asg27
V[ +vowel ]
p3431
sbsg27
V[ +vowel ] ---> [ -highTone ] / [ +rounded ] [  ] _ 
p3432
sba(irule
Rule
p3433
(dp3434
g15
(irule
Guard
p3435
(dp3436
g18
I00
sg19
(lp3437
(irule
FeatureMatrix
p3438
(dp3439
g23
(lp3440
sg27
V[  ]
p3441
sba(irule
FeatureMatrix
p3442
(dp3443
g23
(lp3444
(I01
g2312
tp3445
asg27
V[ +rounded ]
p3446
sbasg29
I00
sg27
V[ +rounded ] [  ]
p3447
sg30
I00
sg31
S'L'
sbsg32
(irule
FeatureMatrix
p3448
(dp3449
g23
(lp3450
(I00
g2260
tp3451
a(I01
g3060
tp3452
asg27
V[ +sonorant -highTone ]
p3453
sbsg36
(irule
Guard
p3454
(dp3455
g18
I00
sg19
(lp3456
sg29
I00
sg27
V
sg30
I00
sg31
S'R'
sbsg40
(irule
FeatureMatrix
p3457
(dp3458
g23
(lp3459
sg27
V[  ]
p3460
sbsg27
V[  ] ---> [ +sonorant -highTone ] / [ +rounded ] [  ] _ 
p3461
sba(irule
Rule
p3462
(dp3463
g15
(irule
Guard
p3464
(dp3465
g18
I00
sg19
(lp3466
(irule
FeatureMatrix
p3467
(dp3468
g23
(lp3469
sg27
V[  ]
p3470
sba(irule
FeatureMatrix
p3471
(dp3472
g23
(lp3473
(I01
g2312
tp3474
asg27
V[ +rounded ]
p3475
sbasg29
I00
sg27
V[ +rounded ] [  ]
p3476
sg30
I00
sg31
S'L'
sbsg32
(irule
FeatureMatrix
p3477
(dp3478
g23
(lp3479
(I00
g2511
tp3480
a(I00
g2260
tp3481
asg27
V[ -highTone -nasal ]
p3482
sbsg36
(irule
Guard
p3483
(dp3484
g18
I00
sg19
(lp3485
sg29
I00
sg27
V
sg30
I00
sg31
S'R'
sbsg40
(irule
FeatureMatrix
p3486
(dp3487
g23
(lp3488
sg27
V[  ]
p3489
sbsg27
V[  ] ---> [ -highTone -nasal ] / [ +rounded ] [  ] _ 
p3490
sba(irule
Rule
p3491
(dp3492
g15
(irule
Guard
p3493
(dp3494
g18
I00
sg19
(lp3495
(irule
FeatureMatrix
p3496
(dp3497
g23
(lp3498
sg27
V[  ]
p3499
sba(irule
FeatureMatrix
p3500
(dp3501
g23
(lp3502
(I00
g3262
tp3503
a(I01
g2312
tp3504
asg27
V[ +rounded -anterior ]
p3505
sbasg29
I00
sg27
V[ +rounded -anterior ] [  ]
p3506
sg30
I00
sg31
S'L'
sbsg32
(irule
FeatureMatrix
p3507
(dp3508
g23
(lp3509
(I00
g2260
tp3510
asg27
V[ -highTone ]
p3511
sbsg36
(irule
Guard
p3512
(dp3513
g18
I00
sg19
(lp3514
sg29
I00
sg27
V
sg30
I00
sg31
S'R'
sbsg40
(irule
FeatureMatrix
p3515
(dp3516
g23
(lp3517
sg27
V[  ]
p3518
sbsg27
V[  ] ---> [ -highTone ] / [ +rounded -anterior ] [  ] _ 
p3519
sba(irule
Rule
p3520
(dp3521
g15
(irule
Guard
p3522
(dp3523
g18
I00
sg19
(lp3524
(irule
FeatureMatrix
p3525
(dp3526
g23
(lp3527
sg27
V[  ]
p3528
sba(irule
FeatureMatrix
p3529
(dp3530
g23
(lp3531
(I01
g2283
tp3532
a(I01
g2559
tp3533
asg27
V[ +high +voice ]
p3534
sbasg29
I00
sg27
V[ +high +voice ] [  ]
p3535
sg30
I00
sg31
S'L'
sbsg32
(irule
FeatureMatrix
p3536
(dp3537
g23
(lp3538
(I00
g2260
tp3539
asg27
V[ -highTone ]
p3540
sbsg36
(irule
Guard
p3541
(dp3542
g18
I00
sg19
(lp3543
sg29
I00
sg27
V
sg30
I00
sg31
S'R'
sbsg40
(irule
FeatureMatrix
p3544
(dp3545
g23
(lp3546
sg27
V[  ]
p3547
sbsg27
V[  ] ---> [ -highTone ] / [ +high +voice ] [  ] _ 
p3548
sba(irule
Rule
p3549
(dp3550
g15
(irule
Guard
p3551
(dp3552
g18
I00
sg19
(lp3553
(irule
FeatureMatrix
p3554
(dp3555
g23
(lp3556
sg27
V[  ]
p3557
sba(irule
ConstantPhoneme
p3558
(dp3559
S'p'
g2255
sbasg29
I00
sg27
Vu\u0301 [  ]
p3560
sg30
I00
sg31
S'L'
sbsg32
(irule
FeatureMatrix
p3561
(dp3562
g23
(lp3563
(I00
g2260
tp3564
asg27
V[ -highTone ]
p3565
sbsg36
(irule
Guard
p3566
(dp3567
g18
I00
sg19
(lp3568
sg29
I00
sg27
V
sg30
I00
sg31
S'R'
sbsg40
(irule
FeatureMatrix
p3569
(dp3570
g23
(lp3571
(I00
g2979
tp3572
asg27
V[ -palletized ]
p3573
sbsg27
V[ -palletized ] ---> [ -highTone ] / u\u0301 [  ] _ 
p3574
sba(irule
Rule
p3575
(dp3576
g15
(irule
Guard
p3577
(dp3578
g18
I00
sg19
(lp3579
(irule
FeatureMatrix
p3580
(dp3581
g23
(lp3582
sg27
V[  ]
p3583
sba(irule
FeatureMatrix
p3584
(dp3585
g23
(lp3586
(I01
g2312
tp3587
asg27
V[ +rounded ]
p3588
sbasg29
I00
sg27
V[ +rounded ] [  ]
p3589
sg30
I00
sg31
S'L'
sbsg32
(irule
FeatureMatrix
p3590
(dp3591
g23
(lp3592
(I00
g2260
tp3593
asg27
V[ -highTone ]
p3594
sbsg36
(irule
Guard
p3595
(dp3596
g18
I01
sg19
(lp3597
sg29
I00
sg27
V#
sg30
I00
sg31
S'R'
sbsg40
(irule
FeatureMatrix
p3598
(dp3599
g23
(lp3600
sg27
V[  ]
p3601
sbsg27
V[  ] ---> [ -highTone ] / [ +rounded ] [  ] _ #
p3602
sba(irule
Rule
p3603
(dp3604
g15
(irule
Guard
p3605
(dp3606
g18
I00
sg19
(lp3607
(irule
ConstantPhoneme
p3608
(dp3609
S'p'
Vl
sba(irule
FeatureMatrix
p3610
(dp3611
g23
(lp3612
(I01
g2312
tp3613
asg27
V[ +rounded ]
p3614
sbasg29
I00
sg27
V[ +rounded ] l
p3615
sg30
I00
sg31
S'L'
sbsg32
(irule
ConstantPhoneme
p3616
(dp3617
S'p'
Va
sbsg36
(irule
Guard
p3618
(dp3619
g18
I00
sg19
(lp3620
sg29
I00
sg27
V
sg30
I00
sg31
S'R'
sbsg40
(irule
FeatureMatrix
p3621
(dp3622
g23
(lp3623
sg27
V[  ]
p3624
sbsg27
V[  ] ---> a / [ +rounded ] l _ 
p3625
sba(irule
Rule
p3626
(dp3627
g15
(irule
Guard
p3628
(dp3629
g18
I00
sg19
(lp3630
(irule
FeatureMatrix
p3631
(dp3632
g23
(lp3633
sg27
V[  ]
p3634
sba(irule
FeatureMatrix
p3635
(dp3636
g23
(lp3637
(I01
g2312
tp3638
asg27
V[ +rounded ]
p3639
sbasg29
I00
sg27
V[ +rounded ] [  ]
p3640
sg30
I00
sg31
S'L'
sbsg32
(irule
FeatureMatrix
p3641
(dp3642
g23
(lp3643
(I00
g2260
tp3644
a(I00
S'sibilant'
p3645
tp3646
asg27
V[ -highTone -sibilant ]
p3647
sbsg36
(irule
Guard
p3648
(dp3649
g18
I00
sg19
(lp3650
sg29
I00
sg27
V
sg30
I00
sg31
S'R'
sbsg40
(irule
FeatureMatrix
p3651
(dp3652
g23
(lp3653
sg27
V[  ]
p3654
sbsg27
V[  ] ---> [ -highTone -sibilant ] / [ +rounded ] [  ] _ 
p3655
sba(irule
Rule
p3656
(dp3657
g15
(irule
Guard
p3658
(dp3659
g18
I00
sg19
(lp3660
(irule
FeatureMatrix
p3661
(dp3662
g23
(lp3663
(I01
g2559
tp3664
asg27
V[ +voice ]
p3665
sba(irule
FeatureMatrix
p3666
(dp3667
g23
(lp3668
(I01
g2312
tp3669
asg27
V[ +rounded ]
p3670
sbasg29
I00
sg27
V[ +rounded ] [ +voice ]
p3671
sg30
I00
sg31
S'L'
sbsg32
(irule
FeatureMatrix
p3672
(dp3673
g23
(lp3674
(I00
g2260
tp3675
asg27
V[ -highTone ]
p3676
sbsg36
(irule
Guard
p3677
(dp3678
g18
I00
sg19
(lp3679
sg29
I00
sg27
V
sg30
I00
sg31
S'R'
sbsg40
(irule
FeatureMatrix
p3680
(dp3681
g23
(lp3682
sg27
V[  ]
p3683
sbsg27
V[  ] ---> [ -highTone ] / [ +rounded ] [ +voice ] _ 
p3684
sba(irule
Rule
p3685
(dp3686
g15
(irule
Guard
p3687
(dp3688
g18
I00
sg19
(lp3689
(irule
FeatureMatrix
p3690
(dp3691
g23
(lp3692
sg27
V[  ]
p3693
sba(irule
ConstantPhoneme
p3694
(dp3695
S'p'
g2255
sbasg29
I00
sg27
Vu\u0301 [  ]
p3696
sg30
I00
sg31
S'L'
sbsg32
(irule
FeatureMatrix
p3697
(dp3698
g23
(lp3699
(I00
g2260
tp3700
asg27
V[ -highTone ]
p3701
sbsg36
(irule
Guard
p3702
(dp3703
g18
I00
sg19
(lp3704
sg29
I00
sg27
V
sg30
I00
sg31
S'R'
sbsg40
(irule
FeatureMatrix
p3705
(dp3706
g23
(lp3707
(I01
g2401
tp3708
asg27
V[ +low ]
p3709
sbsg27
V[ +low ] ---> [ -highTone ] / u\u0301 [  ] _ 
p3710
sba(irule
Rule
p3711
(dp3712
g15
(irule
Guard
p3713
(dp3714
g18
I00
sg19
(lp3715
(irule
FeatureMatrix
p3716
(dp3717
g23
(lp3718
sg27
V[  ]
p3719
sba(irule
FeatureMatrix
p3720
(dp3721
g23
(lp3722
(I01
g2260
tp3723
asg27
V[ +highTone ]
p3724
sbasg29
I00
sg27
V[ +highTone ] [  ]
p3725
sg30
I00
sg31
S'L'
sbsg32
(irule
FeatureMatrix
p3726
(dp3727
g23
(lp3728
(I00
g2260
tp3729
asg27
V[ -highTone ]
p3730
sbsg36
(irule
Guard
p3731
(dp3732
g18
I00
sg19
(lp3733
sg29
I00
sg27
V
sg30
I00
sg31
S'R'
sbsg40
(irule
ConstantPhoneme
p3734
(dp3735
S'p'
g2749
sbsg27
Va\u0301 ---> [ -highTone ] / [ +highTone ] [  ] _ 
p3736
sba(irule
Rule
p3737
(dp3738
g15
(irule
Guard
p3739
(dp3740
g18
I00
sg19
(lp3741
(irule
FeatureMatrix
p3742
(dp3743
g23
(lp3744
sg27
V[  ]
p3745
sba(irule
FeatureMatrix
p3746
(dp3747
g23
(lp3748
(I01
g2283
tp3749
asg27
V[ +high ]
p3750
sbasg29
I00
sg27
V[ +high ] [  ]
p3751
sg30
I00
sg31
S'L'
sbsg32
(irule
FeatureMatrix
p3752
(dp3753
g23
(lp3754
(I00
g2260
tp3755
asg27
V[ -highTone ]
p3756
sbsg36
(irule
Guard
p3757
(dp3758
g18
I00
sg19
(lp3759
sg29
I00
sg27
V
sg30
I00
sg31
S'R'
sbsg40
(irule
FeatureMatrix
p3760
(dp3761
g23
(lp3762
(I01
g2401
tp3763
asg27
V[ +low ]
p3764
sbsg27
V[ +low ] ---> [ -highTone ] / [ +high ] [  ] _ 
p3765
sba(irule
Rule
p3766
(dp3767
g15
(irule
Guard
p3768
(dp3769
g18
I00
sg19
(lp3770
(irule
FeatureMatrix
p3771
(dp3772
g23
(lp3773
sg27
V[  ]
p3774
sba(irule
FeatureMatrix
p3775
(dp3776
g23
(lp3777
(I01
g2312
tp3778
asg27
V[ +rounded ]
p3779
sbasg29
I00
sg27
V[ +rounded ] [  ]
p3780
sg30
I00
sg31
S'L'
sbsg32
(irule
FeatureMatrix
p3781
(dp3782
g23
(lp3783
(I00
g2260
tp3784
asg27
V[ -highTone ]
p3785
sbsg36
(irule
Guard
p3786
(dp3787
g18
I00
sg19
(lp3788
sg29
I00
sg27
V
sg30
I00
sg31
S'R'
sbsg40
(irule
FeatureMatrix
p3789
(dp3790
g23
(lp3791
(I01
g2832
tp3792
asg27
V[ +continuant ]
p3793
sbsg27
V[ +continuant ] ---> [ -highTone ] / [ +rounded ] [  ] _ 
p3794
sba(irule
Rule
p3795
(dp3796
g15
(irule
Guard
p3797
(dp3798
g18
I00
sg19
(lp3799
(irule
FeatureMatrix
p3800
(dp3801
g23
(lp3802
(I01
g2559
tp3803
asg27
V[ +voice ]
p3804
sba(irule
FeatureMatrix
p3805
(dp3806
g23
(lp3807
(I01
g2283
tp3808
asg27
V[ +high ]
p3809
sbasg29
I00
sg27
V[ +high ] [ +voice ]
p3810
sg30
I00
sg31
S'L'
sbsg32
(irule
FeatureMatrix
p3811
(dp3812
g23
(lp3813
(I00
g2260
tp3814
asg27
V[ -highTone ]
p3815
sbsg36
(irule
Guard
p3816
(dp3817
g18
I00
sg19
(lp3818
sg29
I00
sg27
V
sg30
I00
sg31
S'R'
sbsg40
(irule
FeatureMatrix
p3819
(dp3820
g23
(lp3821
sg27
V[  ]
p3822
sbsg27
V[  ] ---> [ -highTone ] / [ +high ] [ +voice ] _ 
p3823
sba(irule
Rule
p3824
(dp3825
g15
(irule
Guard
p3826
(dp3827
g18
I00
sg19
(lp3828
(irule
FeatureMatrix
p3829
(dp3830
g23
(lp3831
sg27
V[  ]
p3832
sba(irule
FeatureMatrix
p3833
(dp3834
g23
(lp3835
(I01
g2260
tp3836
asg27
V[ +highTone ]
p3837
sbasg29
I00
sg27
V[ +highTone ] [  ]
p3838
sg30
I00
sg31
S'L'
sbsg32
(irule
FeatureMatrix
p3839
(dp3840
g23
(lp3841
(I00
g2260
tp3842
asg27
V[ -highTone ]
p3843
sbsg36
(irule
Guard
p3844
(dp3845
g18
I01
sg19
(lp3846
sg29
I00
sg27
V#
sg30
I00
sg31
S'R'
sbsg40
(irule
FeatureMatrix
p3847
(dp3848
g23
(lp3849
sg27
V[  ]
p3850
sbsg27
V[  ] ---> [ -highTone ] / [ +highTone ] [  ] _ #
p3851
sba(irule
Rule
p3852
(dp3853
g15
(irule
Guard
p3854
(dp3855
g18
I00
sg19
(lp3856
(irule
FeatureMatrix
p3857
(dp3858
g23
(lp3859
sg27
V[  ]
p3860
sba(irule
FeatureMatrix
p3861
(dp3862
g23
(lp3863
(I01
g2283
tp3864
asg27
V[ +high ]
p3865
sbasg29
I00
sg27
V[ +high ] [  ]
p3866
sg30
I00
sg31
S'L'
sbsg32
(irule
FeatureMatrix
p3867
(dp3868
g23
(lp3869
(I00
g2260
tp3870
asg27
V[ -highTone ]
p3871
sbsg36
(irule
Guard
p3872
(dp3873
g18
I00
sg19
(lp3874
sg29
I00
sg27
V
sg30
I00
sg31
S'R'
sbsg40
(irule
ConstantPhoneme
p3875
(dp3876
S'p'
g2749
sbsg27
Va\u0301 ---> [ -highTone ] / [ +high ] [  ] _ 
p3877
sba(irule
Rule
p3878
(dp3879
g15
(irule
Guard
p3880
(dp3881
g18
I00
sg19
(lp3882
(irule
FeatureMatrix
p3883
(dp3884
g23
(lp3885
sg27
V[  ]
p3886
sba(irule
FeatureMatrix
p3887
(dp3888
g23
(lp3889
(I01
g2312
tp3890
asg27
V[ +rounded ]
p3891
sbasg29
I00
sg27
V[ +rounded ] [  ]
p3892
sg30
I00
sg31
S'L'
sbsg32
(irule
FeatureMatrix
p3893
(dp3894
g23
(lp3895
(I00
g2260
tp3896
a(I01
g2431
tp3897
asg27
V[ +vowel -highTone ]
p3898
sbsg36
(irule
Guard
p3899
(dp3900
g18
I00
sg19
(lp3901
sg29
I00
sg27
V
sg30
I00
sg31
S'R'
sbsg40
(irule
FeatureMatrix
p3902
(dp3903
g23
(lp3904
sg27
V[  ]
p3905
sbsg27
V[  ] ---> [ +vowel -highTone ] / [ +rounded ] [  ] _ 
p3906
sba(irule
Rule
p3907
(dp3908
g15
(irule
Guard
p3909
(dp3910
g18
I00
sg19
(lp3911
(irule
FeatureMatrix
p3912
(dp3913
g23
(lp3914
sg27
V[  ]
p3915
sba(irule
FeatureMatrix
p3916
(dp3917
g23
(lp3918
(I01
g2283
tp3919
asg27
V[ +high ]
p3920
sbasg29
I00
sg27
V[ +high ] [  ]
p3921
sg30
I00
sg31
S'L'
sbsg32
(irule
FeatureMatrix
p3922
(dp3923
g23
(lp3924
(I00
g2260
tp3925
asg27
V[ -highTone ]
p3926
sbsg36
(irule
Guard
p3927
(dp3928
g18
I00
sg19
(lp3929
sg29
I00
sg27
V
sg30
I00
sg31
S'R'
sbsg40
(irule
FeatureMatrix
p3930
(dp3931
g23
(lp3932
(I00
g3645
tp3933
asg27
V[ -sibilant ]
p3934
sbsg27
V[ -sibilant ] ---> [ -highTone ] / [ +high ] [  ] _ 
p3935
sba(irule
Rule
p3936
(dp3937
g15
(irule
Guard
p3938
(dp3939
g18
I00
sg19
(lp3940
(irule
ConstantPhoneme
p3941
(dp3942
S'p'
Vl
sba(irule
FeatureMatrix
p3943
(dp3944
g23
(lp3945
(I01
g2260
tp3946
asg27
V[ +highTone ]
p3947
sbasg29
I00
sg27
V[ +highTone ] l
p3948
sg30
I00
sg31
S'L'
sbsg32
(irule
ConstantPhoneme
p3949
(dp3950
S'p'
Va
sbsg36
(irule
Guard
p3951
(dp3952
g18
I00
sg19
(lp3953
sg29
I00
sg27
V
sg30
I00
sg31
S'R'
sbsg40
(irule
FeatureMatrix
p3954
(dp3955
g23
(lp3956
sg27
V[  ]
p3957
sbsg27
V[  ] ---> a / [ +highTone ] l _ 
p3958
sba(irule
Rule
p3959
(dp3960
g15
(irule
Guard
p3961
(dp3962
g18
I00
sg19
(lp3963
(irule
FeatureMatrix
p3964
(dp3965
g23
(lp3966
(I00
g3645
tp3967
asg27
V[ -sibilant ]
p3968
sba(irule
ConstantPhoneme
p3969
(dp3970
S'p'
g2255
sbasg29
I00
sg27
Vu\u0301 [ -sibilant ]
p3971
sg30
I00
sg31
S'L'
sbsg32
(irule
FeatureMatrix
p3972
(dp3973
g23
(lp3974
(I00
g2260
tp3975
asg27
V[ -highTone ]
p3976
sbsg36
(irule
Guard
p3977
(dp3978
g18
I00
sg19
(lp3979
sg29
I00
sg27
V
sg30
I00
sg31
S'R'
sbsg40
(irule
FeatureMatrix
p3980
(dp3981
g23
(lp3982
sg27
V[  ]
p3983
sbsg27
V[  ] ---> [ -highTone ] / u\u0301 [ -sibilant ] _ 
p3984
sba(irule
Rule
p3985
(dp3986
g15
(irule
Guard
p3987
(dp3988
g18
I00
sg19
(lp3989
(irule
FeatureMatrix
p3990
(dp3991
g23
(lp3992
sg27
V[  ]
p3993
sba(irule
FeatureMatrix
p3994
(dp3995
g23
(lp3996
(I01
g2283
tp3997
asg27
V[ +high ]
p3998
sbasg29
I00
sg27
V[ +high ] [  ]
p3999
sg30
I00
sg31
S'L'
sbsg32
(irule
FeatureMatrix
p4000
(dp4001
g23
(lp4002
(I00
g2260
tp4003
asg27
V[ -highTone ]
p4004
sbsg36
(irule
Guard
p4005
(dp4006
g18
I00
sg19
(lp4007
sg29
I00
sg27
V
sg30
I00
sg31
S'R'
sbsg40
(irule
FeatureMatrix
p4008
(dp4009
g23
(lp4010
(I00
g2312
tp4011
asg27
V[ -rounded ]
p4012
sbsg27
V[ -rounded ] ---> [ -highTone ] / [ +high ] [  ] _ 
p4013
sba(irule
Rule
p4014
(dp4015
g15
(irule
Guard
p4016
(dp4017
g18
I00
sg19
(lp4018
(irule
FeatureMatrix
p4019
(dp4020
g23
(lp4021
sg27
V[  ]
p4022
sba(irule
FeatureMatrix
p4023
(dp4024
g23
(lp4025
(I01
g2260
tp4026
asg27
V[ +highTone ]
p4027
sbasg29
I00
sg27
V[ +highTone ] [  ]*
p4028
sg30
I01
sg31
S'L'
sbsg32
(irule
FeatureMatrix
p4029
(dp4030
g23
(lp4031
(I00
g2260
tp4032
asg27
V[ -highTone ]
p4033
sbsg36
(irule
Guard
p4034
(dp4035
g18
I00
sg19
(lp4036
sg29
I00
sg27
V
sg30
I00
sg31
S'R'
sbsg40
(irule
FeatureMatrix
p4037
(dp4038
g23
(lp4039
sg27
V[  ]
p4040
sbsg27
V[  ] ---> [ -highTone ] / [ +highTone ] [  ]* _ 
p4041
sba(irule
Rule
p4042
(dp4043
g15
(irule
Guard
p4044
(dp4045
g18
I00
sg19
(lp4046
(irule
FeatureMatrix
p4047
(dp4048
g23
(lp4049
sg27
V[  ]
p4050
sba(irule
FeatureMatrix
p4051
(dp4052
g23
(lp4053
(I01
g2260
tp4054
asg27
V[ +highTone ]
p4055
sbasg29
I00
sg27
V[ +highTone ] [  ]
p4056
sg30
I00
sg31
S'L'
sbsg32
(irule
FeatureMatrix
p4057
(dp4058
g23
(lp4059
(I00
g2260
tp4060
asg27
V[ -highTone ]
p4061
sbsg36
(irule
Guard
p4062
(dp4063
g18
I00
sg19
(lp4064
sg29
I00
sg27
V
sg30
I00
sg31
S'R'
sbsg40
(irule
FeatureMatrix
p4065
(dp4066
g23
(lp4067
(I00
g2383
tp4068
asg27
V[ -glide ]
p4069
sbsg27
V[ -glide ] ---> [ -highTone ] / [ +highTone ] [  ] _ 
p4070
sba(irule
Rule
p4071
(dp4072
g15
(irule
Guard
p4073
(dp4074
g18
I00
sg19
(lp4075
(irule
FeatureMatrix
p4076
(dp4077
g23
(lp4078
sg27
V[  ]
p4079
sba(irule
ConstantPhoneme
p4080
(dp4081
S'p'
g2255
sbasg29
I00
sg27
Vu\u0301 [  ]
p4082
sg30
I00
sg31
S'L'
sbsg32
(irule
FeatureMatrix
p4083
(dp4084
g23
(lp4085
(I00
g2260
tp4086
asg27
V[ -highTone ]
p4087
sbsg36
(irule
Guard
p4088
(dp4089
g18
I00
sg19
(lp4090
sg29
I00
sg27
V
sg30
I00
sg31
S'R'
sbsg40
(irule
FeatureMatrix
p4091
(dp4092
g23
(lp4093
(I00
g2312
tp4094
asg27
V[ -rounded ]
p4095
sbsg27
V[ -rounded ] ---> [ -highTone ] / u\u0301 [  ] _ 
p4096
sba(irule
Rule
p4097
(dp4098
g15
(irule
Guard
p4099
(dp4100
g18
I00
sg19
(lp4101
(irule
FeatureMatrix
p4102
(dp4103
g23
(lp4104
(I01
g2559
tp4105
asg27
V[ +voice ]
p4106
sba(irule
ConstantPhoneme
p4107
(dp4108
S'p'
g2255
sbasg29
I00
sg27
Vu\u0301 [ +voice ]
p4109
sg30
I00
sg31
S'L'
sbsg32
(irule
FeatureMatrix
p4110
(dp4111
g23
(lp4112
(I00
g2260
tp4113
asg27
V[ -highTone ]
p4114
sbsg36
(irule
Guard
p4115
(dp4116
g18
I00
sg19
(lp4117
sg29
I00
sg27
V
sg30
I00
sg31
S'R'
sbsg40
(irule
FeatureMatrix
p4118
(dp4119
g23
(lp4120
sg27
V[  ]
p4121
sbsg27
V[  ] ---> [ -highTone ] / u\u0301 [ +voice ] _ 
p4122
sba(irule
Rule
p4123
(dp4124
g15
(irule
Guard
p4125
(dp4126
g18
I00
sg19
(lp4127
(irule
FeatureMatrix
p4128
(dp4129
g23
(lp4130
sg27
V[  ]
p4131
sba(irule
FeatureMatrix
p4132
(dp4133
g23
(lp4134
(I01
g2283
tp4135
asg27
V[ +high ]
p4136
sbasg29
I00
sg27
V[ +high ] [  ]
p4137
sg30
I00
sg31
S'L'
sbsg32
(irule
FeatureMatrix
p4138
(dp4139
g23
(lp4140
(I00
g2260
tp4141
a(I00
g2979
tp4142
asg27
V[ -highTone -palletized ]
p4143
sbsg36
(irule
Guard
p4144
(dp4145
g18
I00
sg19
(lp4146
sg29
I00
sg27
V
sg30
I00
sg31
S'R'
sbsg40
(irule
FeatureMatrix
p4147
(dp4148
g23
(lp4149
sg27
V[  ]
p4150
sbsg27
V[  ] ---> [ -highTone -palletized ] / [ +high ] [  ] _ 
p4151
sba(irule
Rule
p4152
(dp4153
g15
(irule
Guard
p4154
(dp4155
g18
I00
sg19
(lp4156
(irule
FeatureMatrix
p4157
(dp4158
g23
(lp4159
sg27
V[  ]
p4160
sba(irule
FeatureMatrix
p4161
(dp4162
g23
(lp4163
(I01
g2312
tp4164
a(I00
g2979
tp4165
asg27
V[ +rounded -palletized ]
p4166
sbasg29
I00
sg27
V[ +rounded -palletized ] [  ]
p4167
sg30
I00
sg31
S'L'
sbsg32
(irule
FeatureMatrix
p4168
(dp4169
g23
(lp4170
(I00
g2260
tp4171
asg27
V[ -highTone ]
p4172
sbsg36
(irule
Guard
p4173
(dp4174
g18
I00
sg19
(lp4175
sg29
I00
sg27
V
sg30
I00
sg31
S'R'
sbsg40
(irule
FeatureMatrix
p4176
(dp4177
g23
(lp4178
sg27
V[  ]
p4179
sbsg27
V[  ] ---> [ -highTone ] / [ +rounded -palletized ] [  ] _ 
p4180
sba(irule
Rule
p4181
(dp4182
g15
(irule
Guard
p4183
(dp4184
g18
I00
sg19
(lp4185
(irule
FeatureMatrix
p4186
(dp4187
g23
(lp4188
sg27
V[  ]
p4189
sba(irule
ConstantPhoneme
p4190
(dp4191
S'p'
g2255
sbasg29
I00
sg27
Vu\u0301 [  ]
p4192
sg30
I00
sg31
S'L'
sbsg32
(irule
FeatureMatrix
p4193
(dp4194
g23
(lp4195
(I00
g2260
tp4196
asg27
V[ -highTone ]
p4197
sbsg36
(irule
Guard
p4198
(dp4199
g18
I00
sg19
(lp4200
sg29
I00
sg27
V
sg30
I00
sg31
S'R'
sbsg40
(irule
ConstantPhoneme
p4201
(dp4202
S'p'
g2749
sbsg27
Va\u0301 ---> [ -highTone ] / u\u0301 [  ] _ 
p4203
sba(irule
Rule
p4204
(dp4205
g15
(irule
Guard
p4206
(dp4207
g18
I00
sg19
(lp4208
(irule
FeatureMatrix
p4209
(dp4210
g23
(lp4211
(I00
g2979
tp4212
asg27
V[ -palletized ]
p4213
sba(irule
FeatureMatrix
p4214
(dp4215
g23
(lp4216
(I01
g2312
tp4217
asg27
V[ +rounded ]
p4218
sbasg29
I00
sg27
V[ +rounded ] [ -palletized ]
p4219
sg30
I00
sg31
S'L'
sbsg32
(irule
ConstantPhoneme
p4220
(dp4221
S'p'
Va
sbsg36
(irule
Guard
p4222
(dp4223
g18
I00
sg19
(lp4224
sg29
I00
sg27
V
sg30
I00
sg31
S'R'
sbsg40
(irule
FeatureMatrix
p4225
(dp4226
g23
(lp4227
sg27
V[  ]
p4228
sbsg27
V[  ] ---> a / [ +rounded ] [ -palletized ] _ 
p4229
sba(irule
Rule
p4230
(dp4231
g15
(irule
Guard
p4232
(dp4233
g18
I00
sg19
(lp4234
(irule
FeatureMatrix
p4235
(dp4236
g23
(lp4237
sg27
V[  ]
p4238
sba(irule
FeatureMatrix
p4239
(dp4240
g23
(lp4241
(I01
g2312
tp4242
asg27
V[ +rounded ]
p4243
sbasg29
I00
sg27
V[ +rounded ] [  ]
p4244
sg30
I00
sg31
S'L'
sbsg32
(irule
FeatureMatrix
p4245
(dp4246
g23
(lp4247
(I00
g2260
tp4248
asg27
V[ -highTone ]
p4249
sbsg36
(irule
Guard
p4250
(dp4251
g18
I00
sg19
(lp4252
sg29
I00
sg27
V
sg30
I00
sg31
S'R'
sbsg40
(irule
FeatureMatrix
p4253
(dp4254
g23
(lp4255
(I00
g2283
tp4256
asg27
V[ -high ]
p4257
sbsg27
V[ -high ] ---> [ -highTone ] / [ +rounded ] [  ] _ 
p4258
sba(irule
Rule
p4259
(dp4260
g15
(irule
Guard
p4261
(dp4262
g18
I00
sg19
(lp4263
(irule
ConstantPhoneme
p4264
(dp4265
S'p'
Vl
sba(irule
FeatureMatrix
p4266
(dp4267
g23
(lp4268
(I01
g2283
tp4269
asg27
V[ +high ]
p4270
sbasg29
I00
sg27
V[ +high ] l
p4271
sg30
I00
sg31
S'L'
sbsg32
(irule
ConstantPhoneme
p4272
(dp4273
S'p'
Va
sbsg36
(irule
Guard
p4274
(dp4275
g18
I00
sg19
(lp4276
sg29
I00
sg27
V
sg30
I00
sg31
S'R'
sbsg40
(irule
FeatureMatrix
p4277
(dp4278
g23
(lp4279
sg27
V[  ]
p4280
sbsg27
V[  ] ---> a / [ +high ] l _ 
p4281
sba(irule
Rule
p4282
(dp4283
g15
(irule
Guard
p4284
(dp4285
g18
I00
sg19
(lp4286
(irule
ConstantPhoneme
p4287
(dp4288
S'p'
Vl
sba(irule
ConstantPhoneme
p4289
(dp4290
S'p'
g2255
sbasg29
I00
sg27
Vu\u0301 l
p4291
sg30
I00
sg31
S'L'
sbsg32
(irule
ConstantPhoneme
p4292
(dp4293
S'p'
Va
sbsg36
(irule
Guard
p4294
(dp4295
g18
I00
sg19
(lp4296
sg29
I00
sg27
V
sg30
I00
sg31
S'R'
sbsg40
(irule
FeatureMatrix
p4297
(dp4298
g23
(lp4299
sg27
V[  ]
p4300
sbsg27
V[  ] ---> a / u\u0301 l _ 
p4301
sba(irule
Rule
p4302
(dp4303
g15
(irule
Guard
p4304
(dp4305
g18
I00
sg19
(lp4306
(irule
FeatureMatrix
p4307
(dp4308
g23
(lp4309
sg27
V[  ]
p4310
sba(irule
FeatureMatrix
p4311
(dp4312
g23
(lp4313
(I01
g2312
tp4314
asg27
V[ +rounded ]
p4315
sbasg29
I00
sg27
V[ +rounded ] [  ]
p4316
sg30
I00
sg31
S'L'
sbsg32
(irule
FeatureMatrix
p4317
(dp4318
g23
(lp4319
(I00
g2260
tp4320
asg27
V[ -highTone ]
p4321
sbsg36
(irule
Guard
p4322
(dp4323
g18
I00
sg19
(lp4324
sg29
I00
sg27
V
sg30
I00
sg31
S'R'
sbsg40
(irule
FeatureMatrix
p4325
(dp4326
g23
(lp4327
(I00
S'liquid'
p4328
tp4329
asg27
V[ -liquid ]
p4330
sbsg27
V[ -liquid ] ---> [ -highTone ] / [ +rounded ] [  ] _ 
p4331
sba(irule
Rule
p4332
(dp4333
g15
(irule
Guard
p4334
(dp4335
g18
I00
sg19
(lp4336
(irule
FeatureMatrix
p4337
(dp4338
g23
(lp4339
sg27
V[  ]
p4340
sba(irule
FeatureMatrix
p4341
(dp4342
g23
(lp4343
(I01
g2312
tp4344
asg27
V[ +rounded ]
p4345
sbasg29
I00
sg27
V[ +rounded ] [  ]
p4346
sg30
I00
sg31
S'L'
sbsg32
(irule
FeatureMatrix
p4347
(dp4348
g23
(lp4349
(I00
g2260
tp4350
a(I00
g2979
tp4351
asg27
V[ -highTone -palletized ]
p4352
sbsg36
(irule
Guard
p4353
(dp4354
g18
I00
sg19
(lp4355
sg29
I00
sg27
V
sg30
I00
sg31
S'R'
sbsg40
(irule
FeatureMatrix
p4356
(dp4357
g23
(lp4358
sg27
V[  ]
p4359
sbsg27
V[  ] ---> [ -highTone -palletized ] / [ +rounded ] [  ] _ 
p4360
sba(irule
Rule
p4361
(dp4362
g15
(irule
Guard
p4363
(dp4364
g18
I00
sg19
(lp4365
(irule
FeatureMatrix
p4366
(dp4367
g23
(lp4368
sg27
V[  ]
p4369
sba(irule
FeatureMatrix
p4370
(dp4371
g23
(lp4372
(I01
g2260
tp4373
asg27
V[ +highTone ]
p4374
sbasg29
I00
sg27
V[ +highTone ] [  ]
p4375
sg30
I00
sg31
S'L'
sbsg32
(irule
FeatureMatrix
p4376
(dp4377
g23
(lp4378
(I00
g2260
tp4379
a(I00
g2979
tp4380
asg27
V[ -highTone -palletized ]
p4381
sbsg36
(irule
Guard
p4382
(dp4383
g18
I00
sg19
(lp4384
sg29
I00
sg27
V
sg30
I00
sg31
S'R'
sbsg40
(irule
FeatureMatrix
p4385
(dp4386
g23
(lp4387
sg27
V[  ]
p4388
sbsg27
V[  ] ---> [ -highTone -palletized ] / [ +highTone ] [  ] _ 
p4389
sba(irule
Rule
p4390
(dp4391
g15
(irule
Guard
p4392
(dp4393
g18
I00
sg19
(lp4394
(irule
FeatureMatrix
p4395
(dp4396
g23
(lp4397
sg27
V[  ]
p4398
sba(irule
FeatureMatrix
p4399
(dp4400
g23
(lp4401
(I01
g2283
tp4402
asg27
V[ +high ]
p4403
sbasg29
I00
sg27
V[ +high ] [  ]
p4404
sg30
I00
sg31
S'L'
sbsg32
(irule
FeatureMatrix
p4405
(dp4406
g23
(lp4407
(I00
g2260
tp4408
asg27
V[ -highTone ]
p4409
sbsg36
(irule
Guard
p4410
(dp4411
g18
I00
sg19
(lp4412
sg29
I00
sg27
V
sg30
I00
sg31
S'R'
sbsg40
(irule
FeatureMatrix
p4413
(dp4414
g23
(lp4415
(I00
g2511
tp4416
asg27
V[ -nasal ]
p4417
sbsg27
V[ -nasal ] ---> [ -highTone ] / [ +high ] [  ] _ 
p4418
sba(irule
Rule
p4419
(dp4420
g15
(irule
Guard
p4421
(dp4422
g18
I00
sg19
(lp4423
(irule
FeatureMatrix
p4424
(dp4425
g23
(lp4426
sg27
V[  ]
p4427
sba(irule
FeatureMatrix
p4428
(dp4429
g23
(lp4430
(I01
g2312
tp4431
asg27
V[ +rounded ]
p4432
sbasg29
I00
sg27
V[ +rounded ] [  ]
p4433
sg30
I00
sg31
S'L'
sbsg32
(irule
FeatureMatrix
p4434
(dp4435
g23
(lp4436
(I00
g2260
tp4437
asg27
V[ -highTone ]
p4438
sbsg36
(irule
Guard
p4439
(dp4440
g18
I00
sg19
(lp4441
sg29
I00
sg27
V
sg30
I00
sg31
S'R'
sbsg40
(irule
FeatureMatrix
p4442
(dp4443
g23
(lp4444
(I00
g2395
tp4445
asg27
V[ -lateral ]
p4446
sbsg27
V[ -lateral ] ---> [ -highTone ] / [ +rounded ] [  ] _ 
p4447
sba(irule
Rule
p4448
(dp4449
g15
(irule
Guard
p4450
(dp4451
g18
I00
sg19
(lp4452
(irule
FeatureMatrix
p4453
(dp4454
g23
(lp4455
sg27
V[  ]
p4456
sba(irule
FeatureMatrix
p4457
(dp4458
g23
(lp4459
(I01
g2312
tp4460
asg27
V[ +rounded ]
p4461
sbasg29
I00
sg27
V[ +rounded ] [  ]
p4462
sg30
I00
sg31
S'L'
sbsg32
(irule
FeatureMatrix
p4463
(dp4464
g23
(lp4465
(I00
g2395
tp4466
a(I00
g2260
tp4467
asg27
V[ -highTone -lateral ]
p4468
sbsg36
(irule
Guard
p4469
(dp4470
g18
I00
sg19
(lp4471
sg29
I00
sg27
V
sg30
I00
sg31
S'R'
sbsg40
(irule
FeatureMatrix
p4472
(dp4473
g23
(lp4474
sg27
V[  ]
p4475
sbsg27
V[  ] ---> [ -highTone -lateral ] / [ +rounded ] [  ] _ 
p4476
sba(irule
Rule
p4477
(dp4478
g15
(irule
Guard
p4479
(dp4480
g18
I00
sg19
(lp4481
(irule
FeatureMatrix
p4482
(dp4483
g23
(lp4484
sg27
V[  ]
p4485
sba(irule
FeatureMatrix
p4486
(dp4487
g23
(lp4488
(I01
g2283
tp4489
asg27
V[ +high ]
p4490
sbasg29
I00
sg27
V[ +high ] [  ]
p4491
sg30
I00
sg31
S'L'
sbsg32
(irule
FeatureMatrix
p4492
(dp4493
g23
(lp4494
(I00
g2260
tp4495
asg27
V[ -highTone ]
p4496
sbsg36
(irule
Guard
p4497
(dp4498
g18
I00
sg19
(lp4499
sg29
I00
sg27
V
sg30
I00
sg31
S'R'
sbsg40
(irule
FeatureMatrix
p4500
(dp4501
g23
(lp4502
(I00
g2283
tp4503
asg27
V[ -high ]
p4504
sbsg27
V[ -high ] ---> [ -highTone ] / [ +high ] [  ] _ 
p4505
sba(irule
Rule
p4506
(dp4507
g15
(irule
Guard
p4508
(dp4509
g18
I00
sg19
(lp4510
(irule
FeatureMatrix
p4511
(dp4512
g23
(lp4513
sg27
V[  ]
p4514
sba(irule
FeatureMatrix
p4515
(dp4516
g23
(lp4517
(I01
g2283
tp4518
asg27
V[ +high ]
p4519
sbasg29
I00
sg27
V[ +high ] [  ]
p4520
sg30
I00
sg31
S'L'
sbsg32
(irule
FeatureMatrix
p4521
(dp4522
g23
(lp4523
(I00
g2260
tp4524
asg27
V[ -highTone ]
p4525
sbsg36
(irule
Guard
p4526
(dp4527
g18
I00
sg19
(lp4528
sg29
I00
sg27
V
sg30
I00
sg31
S'R'
sbsg40
(irule
FeatureMatrix
p4529
(dp4530
g23
(lp4531
(I00
S'coronal'
p4532
tp4533
asg27
V[ -coronal ]
p4534
sbsg27
V[ -coronal ] ---> [ -highTone ] / [ +high ] [  ] _ 
p4535
sba(irule
Rule
p4536
(dp4537
g15
(irule
Guard
p4538
(dp4539
g18
I00
sg19
(lp4540
(irule
FeatureMatrix
p4541
(dp4542
g23
(lp4543
sg27
V[  ]
p4544
sba(irule
FeatureMatrix
p4545
(dp4546
g23
(lp4547
(I01
g2312
tp4548
asg27
V[ +rounded ]
p4549
sbasg29
I00
sg27
V[ +rounded ] [  ]
p4550
sg30
I00
sg31
S'L'
sbsg32
(irule
FeatureMatrix
p4551
(dp4552
g23
(lp4553
(I00
g2383
tp4554
a(I00
g2260
tp4555
asg27
V[ -glide -highTone ]
p4556
sbsg36
(irule
Guard
p4557
(dp4558
g18
I00
sg19
(lp4559
sg29
I00
sg27
V
sg30
I00
sg31
S'R'
sbsg40
(irule
FeatureMatrix
p4560
(dp4561
g23
(lp4562
sg27
V[  ]
p4563
sbsg27
V[  ] ---> [ -glide -highTone ] / [ +rounded ] [  ] _ 
p4564
sba(irule
Rule
p4565
(dp4566
g15
(irule
Guard
p4567
(dp4568
g18
I00
sg19
(lp4569
(irule
FeatureMatrix
p4570
(dp4571
g23
(lp4572
(I00
g3645
tp4573
asg27
V[ -sibilant ]
p4574
sba(irule
FeatureMatrix
p4575
(dp4576
g23
(lp4577
(I01
g2312
tp4578
asg27
V[ +rounded ]
p4579
sbasg29
I00
sg27
V[ +rounded ] [ -sibilant ]
p4580
sg30
I00
sg31
S'L'
sbsg32
(irule
FeatureMatrix
p4581
(dp4582
g23
(lp4583
(I00
g2260
tp4584
asg27
V[ -highTone ]
p4585
sbsg36
(irule
Guard
p4586
(dp4587
g18
I00
sg19
(lp4588
sg29
I00
sg27
V
sg30
I00
sg31
S'R'
sbsg40
(irule
FeatureMatrix
p4589
(dp4590
g23
(lp4591
sg27
V[  ]
p4592
sbsg27
V[  ] ---> [ -highTone ] / [ +rounded ] [ -sibilant ] _ 
p4593
sba(irule
Rule
p4594
(dp4595
g15
(irule
Guard
p4596
(dp4597
g18
I00
sg19
(lp4598
(irule
FeatureMatrix
p4599
(dp4600
g23
(lp4601
sg27
V[  ]
p4602
sba(irule
FeatureMatrix
p4603
(dp4604
g23
(lp4605
(I01
g2312
tp4606
asg27
V[ +rounded ]
p4607
sbasg29
I00
sg27
V[ +rounded ] [  ]*
p4608
sg30
I01
sg31
S'L'
sbsg32
(irule
FeatureMatrix
p4609
(dp4610
g23
(lp4611
(I00
g2260
tp4612
asg27
V[ -highTone ]
p4613
sbsg36
(irule
Guard
p4614
(dp4615
g18
I00
sg19
(lp4616
sg29
I00
sg27
V
sg30
I00
sg31
S'R'
sbsg40
(irule
FeatureMatrix
p4617
(dp4618
g23
(lp4619
sg27
V[  ]
p4620
sbsg27
V[  ] ---> [ -highTone ] / [ +rounded ] [  ]* _ 
p4621
sba(irule
Rule
p4622
(dp4623
g15
(irule
Guard
p4624
(dp4625
g18
I00
sg19
(lp4626
(irule
FeatureMatrix
p4627
(dp4628
g23
(lp4629
(I01
g2559
tp4630
asg27
V[ +voice ]
p4631
sba(irule
FeatureMatrix
p4632
(dp4633
g23
(lp4634
(I01
g2260
tp4635
asg27
V[ +highTone ]
p4636
sbasg29
I00
sg27
V[ +highTone ] [ +voice ]
p4637
sg30
I00
sg31
S'L'
sbsg32
(irule
FeatureMatrix
p4638
(dp4639
g23
(lp4640
(I00
g2260
tp4641
asg27
V[ -highTone ]
p4642
sbsg36
(irule
Guard
p4643
(dp4644
g18
I00
sg19
(lp4645
sg29
I00
sg27
V
sg30
I00
sg31
S'R'
sbsg40
(irule
FeatureMatrix
p4646
(dp4647
g23
(lp4648
sg27
V[  ]
p4649
sbsg27
V[  ] ---> [ -highTone ] / [ +highTone ] [ +voice ] _ 
p4650
sba(irule
Rule
p4651
(dp4652
g15
(irule
Guard
p4653
(dp4654
g18
I00
sg19
(lp4655
(irule
FeatureMatrix
p4656
(dp4657
g23
(lp4658
sg27
V[  ]
p4659
sba(irule
FeatureMatrix
p4660
(dp4661
g23
(lp4662
(I01
g2283
tp4663
asg27
V[ +high ]
p4664
sbasg29
I00
sg27
V[ +high ] [  ]
p4665
sg30
I00
sg31
S'L'
sbsg32
(irule
FeatureMatrix
p4666
(dp4667
g23
(lp4668
(I00
g2260
tp4669
asg27
V[ -highTone ]
p4670
sbsg36
(irule
Guard
p4671
(dp4672
g18
I00
sg19
(lp4673
sg29
I00
sg27
V
sg30
I00
sg31
S'R'
sbsg40
(irule
FeatureMatrix
p4674
(dp4675
g23
(lp4676
(I01
g2598
tp4677
asg27
V[ +tense ]
p4678
sbsg27
V[ +tense ] ---> [ -highTone ] / [ +high ] [  ] _ 
p4679
sba(irule
Rule
p4680
(dp4681
g15
(irule
Guard
p4682
(dp4683
g18
I00
sg19
(lp4684
(irule
FeatureMatrix
p4685
(dp4686
g23
(lp4687
sg27
V[  ]
p4688
sba(irule
FeatureMatrix
p4689
(dp4690
g23
(lp4691
(I01
g2312
tp4692
asg27
V[ +rounded ]
p4693
sbasg29
I00
sg27
V[ +rounded ] [  ]
p4694
sg30
I00
sg31
S'L'
sbsg32
(irule
FeatureMatrix
p4695
(dp4696
g23
(lp4697
(I00
g2260
tp4698
a(I00
g4532
tp4699
asg27
V[ -coronal -highTone ]
p4700
sbsg36
(irule
Guard
p4701
(dp4702
g18
I00
sg19
(lp4703
sg29
I00
sg27
V
sg30
I00
sg31
S'R'
sbsg40
(irule
FeatureMatrix
p4704
(dp4705
g23
(lp4706
sg27
V[  ]
p4707
sbsg27
V[  ] ---> [ -coronal -highTone ] / [ +rounded ] [  ] _ 
p4708
sba(irule
Rule
p4709
(dp4710
g15
(irule
Guard
p4711
(dp4712
g18
I00
sg19
(lp4713
(irule
FeatureMatrix
p4714
(dp4715
g23
(lp4716
sg27
V[  ]
p4717
sba(irule
FeatureMatrix
p4718
(dp4719
g23
(lp4720
(I01
g2283
tp4721
asg27
V[ +high ]
p4722
sbasg29
I00
sg27
V[ +high ] [  ]
p4723
sg30
I00
sg31
S'L'
sbsg32
(irule
FeatureMatrix
p4724
(dp4725
g23
(lp4726
(I00
g2260
tp4727
asg27
V[ -highTone ]
p4728
sbsg36
(irule
Guard
p4729
(dp4730
g18
I00
sg19
(lp4731
sg29
I00
sg27
V
sg30
I00
sg31
S'R'
sbsg40
(irule
FeatureMatrix
p4732
(dp4733
g23
(lp4734
(I01
g2906
tp4735
asg27
V[ +back ]
p4736
sbsg27
V[ +back ] ---> [ -highTone ] / [ +high ] [  ] _ 
p4737
sba(irule
Rule
p4738
(dp4739
g15
(irule
Guard
p4740
(dp4741
g18
I00
sg19
(lp4742
(irule
FeatureMatrix
p4743
(dp4744
g23
(lp4745
sg27
V[  ]
p4746
sba(irule
FeatureMatrix
p4747
(dp4748
g23
(lp4749
(I01
g2312
tp4750
a(I00
g2383
tp4751
asg27
V[ +rounded -glide ]
p4752
sbasg29
I00
sg27
V[ +rounded -glide ] [  ]
p4753
sg30
I00
sg31
S'L'
sbsg32
(irule
FeatureMatrix
p4754
(dp4755
g23
(lp4756
(I00
g2260
tp4757
asg27
V[ -highTone ]
p4758
sbsg36
(irule
Guard
p4759
(dp4760
g18
I00
sg19
(lp4761
sg29
I00
sg27
V
sg30
I00
sg31
S'R'
sbsg40
(irule
FeatureMatrix
p4762
(dp4763
g23
(lp4764
sg27
V[  ]
p4765
sbsg27
V[  ] ---> [ -highTone ] / [ +rounded -glide ] [  ] _ 
p4766
sba(irule
Rule
p4767
(dp4768
g15
(irule
Guard
p4769
(dp4770
g18
I00
sg19
(lp4771
(irule
FeatureMatrix
p4772
(dp4773
g23
(lp4774
(I00
g3645
tp4775
asg27
V[ -sibilant ]
p4776
sba(irule
FeatureMatrix
p4777
(dp4778
g23
(lp4779
(I01
g2260
tp4780
asg27
V[ +highTone ]
p4781
sbasg29
I00
sg27
V[ +highTone ] [ -sibilant ]
p4782
sg30
I00
sg31
S'L'
sbsg32
(irule
FeatureMatrix
p4783
(dp4784
g23
(lp4785
(I00
g2260
tp4786
asg27
V[ -highTone ]
p4787
sbsg36
(irule
Guard
p4788
(dp4789
g18
I00
sg19
(lp4790
sg29
I00
sg27
V
sg30
I00
sg31
S'R'
sbsg40
(irule
FeatureMatrix
p4791
(dp4792
g23
(lp4793
sg27
V[  ]
p4794
sbsg27
V[  ] ---> [ -highTone ] / [ +highTone ] [ -sibilant ] _ 
p4795
sba(irule
Rule
p4796
(dp4797
g15
(irule
Guard
p4798
(dp4799
g18
I00
sg19
(lp4800
(irule
FeatureMatrix
p4801
(dp4802
g23
(lp4803
sg27
V[  ]
p4804
sba(irule
FeatureMatrix
p4805
(dp4806
g23
(lp4807
(I01
g2283
tp4808
asg27
V[ +high ]
p4809
sbasg29
I00
sg27
V[ +high ] [  ]
p4810
sg30
I00
sg31
S'L'
sbsg32
(irule
FeatureMatrix
p4811
(dp4812
g23
(lp4813
(I00
g2260
tp4814
asg27
V[ -highTone ]
p4815
sbsg36
(irule
Guard
p4816
(dp4817
g18
I00
sg19
(lp4818
sg29
I00
sg27
V
sg30
I00
sg31
S'R'
sbsg40
(irule
FeatureMatrix
p4819
(dp4820
g23
(lp4821
(I01
g2260
tp4822
asg27
V[ +highTone ]
p4823
sbsg27
V[ +highTone ] ---> [ -highTone ] / [ +high ] [  ] _ 
p4824
sba(irule
Rule
p4825
(dp4826
g15
(irule
Guard
p4827
(dp4828
g18
I00
sg19
(lp4829
(irule
FeatureMatrix
p4830
(dp4831
g23
(lp4832
sg27
V[  ]
p4833
sba(irule
FeatureMatrix
p4834
(dp4835
g23
(lp4836
(I01
g2312
tp4837
asg27
V[ +rounded ]
p4838
sbasg29
I00
sg27
V[ +rounded ] [  ]
p4839
sg30
I00
sg31
S'L'
sbsg32
(irule
FeatureMatrix
p4840
(dp4841
g23
(lp4842
(I00
g4328
tp4843
a(I00
g2260
tp4844
asg27
V[ -highTone -liquid ]
p4845
sbsg36
(irule
Guard
p4846
(dp4847
g18
I00
sg19
(lp4848
sg29
I00
sg27
V
sg30
I00
sg31
S'R'
sbsg40
(irule
FeatureMatrix
p4849
(dp4850
g23
(lp4851
sg27
V[  ]
p4852
sbsg27
V[  ] ---> [ -highTone -liquid ] / [ +rounded ] [  ] _ 
p4853
sba(irule
Rule
p4854
(dp4855
g15
(irule
Guard
p4856
(dp4857
g18
I00
sg19
(lp4858
(irule
FeatureMatrix
p4859
(dp4860
g23
(lp4861
sg27
V[  ]
p4862
sba(irule
FeatureMatrix
p4863
(dp4864
g23
(lp4865
(I01
g2312
tp4866
asg27
V[ +rounded ]
p4867
sbasg29
I00
sg27
V[ +rounded ] [  ]
p4868
sg30
I00
sg31
S'L'
sbsg32
(irule
FeatureMatrix
p4869
(dp4870
g23
(lp4871
(I00
g2260
tp4872
asg27
V[ -highTone ]
p4873
sbsg36
(irule
Guard
p4874
(dp4875
g18
I00
sg19
(lp4876
sg29
I00
sg27
V
sg30
I00
sg31
S'R'
sbsg40
(irule
FeatureMatrix
p4877
(dp4878
g23
(lp4879
(I01
g3060
tp4880
asg27
V[ +sonorant ]
p4881
sbsg27
V[ +sonorant ] ---> [ -highTone ] / [ +rounded ] [  ] _ 
p4882
sba(irule
Rule
p4883
(dp4884
g15
(irule
Guard
p4885
(dp4886
g18
I00
sg19
(lp4887
(irule
FeatureMatrix
p4888
(dp4889
g23
(lp4890
(I01
g2395
tp4891
asg27
V[ +lateral ]
p4892
sba(irule
FeatureMatrix
p4893
(dp4894
g23
(lp4895
(I01
g2260
tp4896
asg27
V[ +highTone ]
p4897
sbasg29
I00
sg27
V[ +highTone ] [ +lateral ]
p4898
sg30
I00
sg31
S'L'
sbsg32
(irule
FeatureMatrix
p4899
(dp4900
g23
(lp4901
(I00
g2260
tp4902
asg27
V[ -highTone ]
p4903
sbsg36
(irule
Guard
p4904
(dp4905
g18
I00
sg19
(lp4906
sg29
I00
sg27
V
sg30
I00
sg31
S'R'
sbsg40
(irule
FeatureMatrix
p4907
(dp4908
g23
(lp4909
sg27
V[  ]
p4910
sbsg27
V[  ] ---> [ -highTone ] / [ +highTone ] [ +lateral ] _ 
p4911
sba(irule
Rule
p4912
(dp4913
g15
(irule
Guard
p4914
(dp4915
g18
I00
sg19
(lp4916
(irule
FeatureMatrix
p4917
(dp4918
g23
(lp4919
sg27
V[  ]
p4920
sba(irule
FeatureMatrix
p4921
(dp4922
g23
(lp4923
(I01
g2312
tp4924
asg27
V[ +rounded ]
p4925
sbasg29
I00
sg27
V[ +rounded ] [  ]
p4926
sg30
I00
sg31
S'L'
sbsg32
(irule
FeatureMatrix
p4927
(dp4928
g23
(lp4929
(I00
g2260
tp4930
a(I01
g2598
tp4931
asg27
V[ +tense -highTone ]
p4932
sbsg36
(irule
Guard
p4933
(dp4934
g18
I00
sg19
(lp4935
sg29
I00
sg27
V
sg30
I00
sg31
S'R'
sbsg40
(irule
FeatureMatrix
p4936
(dp4937
g23
(lp4938
sg27
V[  ]
p4939
sbsg27
V[  ] ---> [ +tense -highTone ] / [ +rounded ] [  ] _ 
p4940
sba(irule
Rule
p4941
(dp4942
g15
(irule
Guard
p4943
(dp4944
g18
I00
sg19
(lp4945
(irule
FeatureMatrix
p4946
(dp4947
g23
(lp4948
sg27
V[  ]
p4949
sba(irule
FeatureMatrix
p4950
(dp4951
g23
(lp4952
(I01
g2312
tp4953
asg27
V[ +rounded ]
p4954
sbasg29
I00
sg27
V[ +rounded ] [  ]
p4955
sg30
I00
sg31
S'L'
sbsg32
(irule
ConstantPhoneme
p4956
(dp4957
S'p'
Va
sbsg36
(irule
Guard
p4958
(dp4959
g18
I00
sg19
(lp4960
sg29
I00
sg27
V
sg30
I00
sg31
S'R'
sbsg40
(irule
FeatureMatrix
p4961
(dp4962
g23
(lp4963
(I00
g2283
tp4964
asg27
V[ -high ]
p4965
sbsg27
V[ -high ] ---> a / [ +rounded ] [  ] _ 
p4966
sba(irule
Rule
p4967
(dp4968
g15
(irule
Guard
p4969
(dp4970
g18
I00
sg19
(lp4971
(irule
FeatureMatrix
p4972
(dp4973
g23
(lp4974
sg27
V[  ]
p4975
sba(irule
FeatureMatrix
p4976
(dp4977
g23
(lp4978
(I01
g2283
tp4979
asg27
V[ +high ]
p4980
sbasg29
I00
sg27
V[ +high ] [  ]
p4981
sg30
I00
sg31
S'L'
sbsg32
(irule
FeatureMatrix
p4982
(dp4983
g23
(lp4984
(I00
g2395
tp4985
a(I00
g2260
tp4986
asg27
V[ -highTone -lateral ]
p4987
sbsg36
(irule
Guard
p4988
(dp4989
g18
I00
sg19
(lp4990
sg29
I00
sg27
V
sg30
I00
sg31
S'R'
sbsg40
(irule
FeatureMatrix
p4991
(dp4992
g23
(lp4993
sg27
V[  ]
p4994
sbsg27
V[  ] ---> [ -highTone -lateral ] / [ +high ] [  ] _ 
p4995
sba(irule
Rule
p4996
(dp4997
g15
(irule
Guard
p4998
(dp4999
g18
I00
sg19
(lp5000
(irule
FeatureMatrix
p5001
(dp5002
g23
(lp5003
(I00
g2979
tp5004
asg27
V[ -palletized ]
p5005
sba(irule
ConstantPhoneme
p5006
(dp5007
S'p'
g2255
sbasg29
I00
sg27
Vu\u0301 [ -palletized ]
p5008
sg30
I00
sg31
S'L'
sbsg32
(irule
ConstantPhoneme
p5009
(dp5010
S'p'
Va
sbsg36
(irule
Guard
p5011
(dp5012
g18
I00
sg19
(lp5013
sg29
I00
sg27
V
sg30
I00
sg31
S'R'
sbsg40
(irule
FeatureMatrix
p5014
(dp5015
g23
(lp5016
sg27
V[  ]
p5017
sbsg27
V[  ] ---> a / u\u0301 [ -palletized ] _ 
p5018
sba(irule
Rule
p5019
(dp5020
g15
(irule
Guard
p5021
(dp5022
g18
I00
sg19
(lp5023
(irule
FeatureMatrix
p5024
(dp5025
g23
(lp5026
sg27
V[  ]
p5027
sba(irule
FeatureMatrix
p5028
(dp5029
g23
(lp5030
(I01
g2312
tp5031
asg27
V[ +rounded ]
p5032
sbasg29
I00
sg27
V[ +rounded ] [  ]
p5033
sg30
I00
sg31
S'L'
sbsg32
(irule
FeatureMatrix
p5034
(dp5035
g23
(lp5036
(I01
g2832
tp5037
a(I00
g2260
tp5038
asg27
V[ +continuant -highTone ]
p5039
sbsg36
(irule
Guard
p5040
(dp5041
g18
I00
sg19
(lp5042
sg29
I00
sg27
V
sg30
I00
sg31
S'R'
sbsg40
(irule
FeatureMatrix
p5043
(dp5044
g23
(lp5045
sg27
V[  ]
p5046
sbsg27
V[  ] ---> [ +continuant -highTone ] / [ +rounded ] [  ] _ 
p5047
sbaasbsS'parameters'
p5048
g6
(cargparse
Namespace
p5049
g8
NtRp5050
(dp5051
S'restore'
p5052
NsS'features'
p5053
S'sophisticated'
p5054
sS'universal'
p5055
NsS'restrict'
p5056
NsS'seed'
p5057
NsS'serial'
p5058
I00
sS'cv'
p5059
I00
sS'alignment'
p5060
I00
sS'top'
p5061
I100
sS'maximumDepth'
p5062
I3
sS'window'
p5063
NsS'minimizeBits'
p5064
I5
sS'samples'
p5065
I30
sS'save'
p5066
NsS'resume'
p5067
I00
sS'disableClean'
p5068
I00
sS'stemBaseline'
p5069
I30
sS'dummy'
p5070
I00
sS'task'
p5071
S'incremental'
p5072
sS'geometry'
p5073
I01
sS'verbosity'
p5074
I0
sS'noConstant'
p5075
I00
sS'timeout'
p5076
F24
sS'debug'
p5077
NsS'cores'
p5078
I40
sg153
S'Halle_115_Russian'
p5079
sS'mergeFrontiers'
p5080
I00
sbsb.