(iresult
Result
p1
(dp2
S'startTime'
p3
F1591191648.9307251
sS'solutionSequence'
p4
(lp5
(ccopy_reg
_reconstructor
p6
(csolution
Solution
p7
c__builtin__
object
p8
NtRp9
(dp10
S'rules'
p11
(lp12
(irule
Rule
p13
(dp14
S'leftTriggers'
p15
(irule
Guard
p16
(dp17
S'endOfString'
p18
I00
sS'specifications'
p19
(lp20
sS'optionalEnding'
p21
I00
sS'representation'
p22
V
sS'starred'
p23
I00
sS'side'
p24
S'L'
sbsS'structuralChange'
p25
(irule
FeatureMatrix
p26
(dp27
S'featuresAndPolarities'
p28
(lp29
sg22
V[  ]
p30
sbsS'rightTriggers'
p31
(irule
Guard
p32
(dp33
g18
I00
sg19
(lp34
sg21
I00
sg22
V
sg23
I00
sg24
S'R'
sbsS'focus'
p35
(irule
FeatureMatrix
p36
(dp37
g28
(lp38
sg22
V[  ]
p39
sbsg22
V[  ] ---> [  ] /  _ 
p40
sbasS'prefixes'
p41
(lp42
(imorph
Morph
p43
(dp44
S'phonemes'
p45
(lp46
sba(imorph
Morph
p47
(dp48
g45
(lp49
sba(imorph
Morph
p50
(dp51
g45
(lp52
sba(imorph
Morph
p53
(dp54
g45
(lp55
sba(imorph
Morph
p56
(dp57
g45
(lp58
sbasS'underlyingForms'
p59
(dp60
((imorph
Morph
(dp61
g45
(lp62
Vm
aVi
aVr
aVu
asb(imorph
Morph
(dp63
g45
(lp64
Vm
aVi
aVn
aVa
aVi
asb(imorph
Morph
(dp65
g45
(lp66
Vm
aVi
aVt
aVa
aVi
asb(imorph
Morph
(dp67
g45
(lp68
Vm
aVi
aVt
aVa
asb(imorph
Morph
(dp69
g45
(lp70
Vm
aVi
aVy
aVo
aVo
asbtp71
(imorph
Morph
p72
(dp73
g45
(lp74
Vm
aVi
asbs((imorph
Morph
p75
(dp76
g45
(lp77
Vn
aVe
aVr
aVu
asb(imorph
Morph
p78
(dp79
g45
(lp80
Vn
aVe
aVn
aVa
aVi
asb(imorph
Morph
p81
(dp82
g45
(lp83
Vn
aVe
aVt
aVa
aVi
asb(imorph
Morph
p84
(dp85
g45
(lp86
Vn
aVe
aVt
aVa
asb(imorph
Morph
p87
(dp88
g45
(lp89
Vn
aVe
aVy
aVo
aVo
asbtp90
(imorph
Morph
p91
(dp92
g45
(lp93
Vn
aVe
asbssS'suffixes'
p94
(lp95
(imorph
Morph
p96
(dp97
g45
(lp98
Vr
aVu
asba(imorph
Morph
p99
(dp100
g45
(lp101
Vn
aVa
aVi
asba(imorph
Morph
p102
(dp103
g45
(lp104
Vt
aVa
aVi
asba(imorph
Morph
p105
(dp106
g45
(lp107
Vt
aVa
asba(imorph
Morph
p108
(dp109
g45
(lp110
Vy
aVo
aVo
asbasbF11.870929956436157
tp111
asS'problem'
p112
S'Halle_127_Japanese'
p113
sS'finalFrontier'
p114
g6
(csolution
Frontier
p115
g8
NtRp116
(dp117
g41
g42
sg94
g95
sg59
g60
sS'frontiers'
p118
(lp119
(lp120
(irule
Rule
p121
(dp122
g15
(irule
Guard
p123
(dp124
g18
I00
sg19
(lp125
sg21
I00
sg22
V
sg23
I00
sg24
S'L'
sbsg25
(irule
FeatureMatrix
p126
(dp127
g28
(lp128
sg22
V[  ]
p129
sbsg31
(irule
Guard
p130
(dp131
g18
I00
sg19
(lp132
sg21
I00
sg22
V
sg23
I00
sg24
S'R'
sbsg35
(irule
FeatureMatrix
p133
(dp134
g28
(lp135
sg22
V[  ]
p136
sbsg22
V[  ] ---> [  ] /  _ 
p137
sba(irule
Rule
p138
(dp139
g15
(irule
Guard
p140
(dp141
g18
I00
sg19
(lp142
(irule
FeatureMatrix
p143
(dp144
g28
(lp145
sg22
Nsbasg21
I00
sg22
Nsg23
I00
sg24
S'L'
sbsg25
(irule
FeatureMatrix
p146
(dp147
g28
(lp148
sg22
Nsbsg31
(irule
Guard
p149
(dp150
g18
I00
sg19
(lp151
sg21
I00
sg22
Nsg23
I00
sg24
S'R'
sbsg35
(irule
FeatureMatrix
p152
(dp153
g28
(lp154
sg22
Nsbsg22
Nsba(irule
Rule
p155
(dp156
g15
(irule
Guard
p157
(dp158
g18
I00
sg19
(lp159
sg21
I00
sg22
Nsg23
I00
sg24
S'L'
sbsg25
(irule
FeatureMatrix
p160
(dp161
g28
(lp162
(I00
S'delayedRelease'
p163
tp164
asg22
Nsbsg31
(irule
Guard
p165
(dp166
g18
I00
sg19
(lp167
sg21
I00
sg22
Nsg23
I00
sg24
S'R'
sbsg35
(irule
FeatureMatrix
p168
(dp169
g28
(lp170
sg22
Nsbsg22
Nsba(irule
Rule
p171
(dp172
g15
(irule
Guard
p173
(dp174
g18
I00
sg19
(lp175
sg21
I00
sg22
Nsg23
I00
sg24
S'L'
sbsg25
(irule
FeatureMatrix
p176
(dp177
g28
(lp178
sg22
Nsbsg31
(irule
Guard
p179
(dp180
g18
I00
sg19
(lp181
sg21
I00
sg22
Nsg23
I00
sg24
S'R'
sbsg35
(irule
FeatureMatrix
p182
(dp183
g28
(lp184
(I01
S'palletized'
p185
tp186
asg22
Nsbsg22
Nsba(irule
Rule
p187
(dp188
g15
(irule
Guard
p189
(dp190
g18
I00
sg19
(lp191
sg21
I00
sg22
Nsg23
I00
sg24
S'L'
sbsg25
(irule
FeatureMatrix
p192
(dp193
g28
(lp194
(I00
S'sibilant'
p195
tp196
asg22
Nsbsg31
(irule
Guard
p197
(dp198
g18
I00
sg19
(lp199
sg21
I00
sg22
Nsg23
I00
sg24
S'R'
sbsg35
(irule
FeatureMatrix
p200
(dp201
g28
(lp202
sg22
Nsbsg22
Nsba(irule
Rule
p203
(dp204
g15
(irule
Guard
p205
(dp206
g18
I00
sg19
(lp207
sg21
I00
sg22
Nsg23
I00
sg24
S'L'
sbsg25
(irule
FeatureMatrix
p208
(dp209
g28
(lp210
sg22
Nsbsg31
(irule
Guard
p211
(dp212
g18
I00
sg19
(lp213
sg21
I00
sg22
Nsg23
I00
sg24
S'R'
sbsg35
(irule
FeatureMatrix
p214
(dp215
g28
(lp216
(I00
S'high'
p217
tp218
asg22
Nsbsg22
Nsba(irule
Rule
p219
(dp220
g15
(irule
Guard
p221
(dp222
g18
I01
sg19
(lp223
sg21
I00
sg22
Nsg23
I00
sg24
S'L'
sbsg25
(irule
FeatureMatrix
p224
(dp225
g28
(lp226
sg22
Nsbsg31
(irule
Guard
p227
(dp228
g18
I00
sg19
(lp229
sg21
I00
sg22
Nsg23
I00
sg24
S'R'
sbsg35
(irule
FeatureMatrix
p230
(dp231
g28
(lp232
sg22
Nsbsg22
Nsba(irule
Rule
p233
(dp234
g15
(irule
Guard
p235
(dp236
g18
I00
sg19
(lp237
sg21
I00
sg22
Nsg23
I00
sg24
S'L'
sbsg25
(irule
FeatureMatrix
p238
(dp239
g28
(lp240
sg22
Nsbsg31
(irule
Guard
p241
(dp242
g18
I00
sg19
(lp243
(irule
FeatureMatrix
p244
(dp245
g28
(lp246
sg22
Nsbasg21
I00
sg22
Nsg23
I00
sg24
S'R'
sbsg35
(irule
FeatureMatrix
p247
(dp248
g28
(lp249
sg22
Nsbsg22
Nsba(irule
Rule
p250
(dp251
g15
(irule
Guard
p252
(dp253
g18
I00
sg19
(lp254
sg21
I00
sg22
Nsg23
I00
sg24
S'L'
sbsg25
(irule
FeatureMatrix
p255
(dp256
g28
(lp257
sg22
Nsbsg31
(irule
Guard
p258
(dp259
g18
I01
sg19
(lp260
sg21
I00
sg22
Nsg23
I00
sg24
S'R'
sbsg35
(irule
FeatureMatrix
p261
(dp262
g28
(lp263
sg22
Nsbsg22
Nsba(irule
Rule
p264
(dp265
g15
(irule
Guard
p266
(dp267
g18
I00
sg19
(lp268
sg21
I00
sg22
Nsg23
I00
sg24
S'L'
sbsg25
(irule
FeatureMatrix
p269
(dp270
g28
(lp271
sg22
Nsbsg31
(irule
Guard
p272
(dp273
g18
I00
sg19
(lp274
sg21
I00
sg22
Nsg23
I00
sg24
S'R'
sbsg35
(irule
FeatureMatrix
p275
(dp276
g28
(lp277
(I00
S'back'
p278
tp279
asg22
Nsbsg22
Nsba(irule
Rule
p280
(dp281
g15
(irule
Guard
p282
(dp283
g18
I00
sg19
(lp284
sg21
I00
sg22
Nsg23
I00
sg24
S'L'
sbsg25
(irule
FeatureMatrix
p285
(dp286
g28
(lp287
sg22
Nsbsg31
(irule
Guard
p288
(dp289
g18
I00
sg19
(lp290
sg21
I00
sg22
Nsg23
I00
sg24
S'R'
sbsg35
(irule
FeatureMatrix
p291
(dp292
g28
(lp293
(I00
S'vowel'
p294
tp295
asg22
Nsbsg22
Nsba(irule
Rule
p296
(dp297
g15
(irule
Guard
p298
(dp299
g18
I00
sg19
(lp300
sg21
I00
sg22
Nsg23
I00
sg24
S'L'
sbsg25
(irule
FeatureMatrix
p301
(dp302
g28
(lp303
sg22
Nsbsg31
(irule
Guard
p304
(dp305
g18
I00
sg19
(lp306
sg21
I00
sg22
Nsg23
I00
sg24
S'R'
sbsg35
(irule
FeatureMatrix
p307
(dp308
g28
(lp309
(I00
S'voice'
p310
tp311
asg22
Nsbsg22
Nsba(irule
Rule
p312
(dp313
g15
(irule
Guard
p314
(dp315
g18
I00
sg19
(lp316
sg21
I00
sg22
Nsg23
I00
sg24
S'L'
sbsg25
(irule
FeatureMatrix
p317
(dp318
g28
(lp319
sg22
Nsbsg31
(irule
Guard
p320
(dp321
g18
I00
sg19
(lp322
sg21
I00
sg22
Nsg23
I00
sg24
S'R'
sbsg35
(irule
FeatureMatrix
p323
(dp324
g28
(lp325
(I01
g310
tp326
asg22
Nsbsg22
Nsba(irule
Rule
p327
(dp328
g15
(irule
Guard
p329
(dp330
g18
I00
sg19
(lp331
sg21
I00
sg22
Nsg23
I00
sg24
S'L'
sbsg25
(irule
FeatureMatrix
p332
(dp333
g28
(lp334
sg22
Nsbsg31
(irule
Guard
p335
(dp336
g18
I00
sg19
(lp337
sg21
I00
sg22
Nsg23
I00
sg24
S'R'
sbsg35
(irule
FeatureMatrix
p338
(dp339
g28
(lp340
(I00
g185
tp341
asg22
Nsbsg22
Nsba(irule
Rule
p342
(dp343
g15
(irule
Guard
p344
(dp345
g18
I00
sg19
(lp346
sg21
I00
sg22
Nsg23
I00
sg24
S'L'
sbsg25
(irule
FeatureMatrix
p347
(dp348
g28
(lp349
sg22
Nsbsg31
(irule
Guard
p350
(dp351
g18
I00
sg19
(lp352
sg21
I00
sg22
Nsg23
I00
sg24
S'R'
sbsg35
(irule
FeatureMatrix
p353
(dp354
g28
(lp355
(I00
g195
tp356
asg22
Nsbsg22
Nsba(irule
Rule
p357
(dp358
g15
(irule
Guard
p359
(dp360
g18
I00
sg19
(lp361
sg21
I00
sg22
Nsg23
I00
sg24
S'L'
sbsg25
(irule
FeatureMatrix
p362
(dp363
g28
(lp364
sg22
Nsbsg31
(irule
Guard
p365
(dp366
g18
I00
sg19
(lp367
sg21
I00
sg22
Nsg23
I00
sg24
S'R'
sbsg35
(irule
FeatureMatrix
p368
(dp369
g28
(lp370
(I01
g195
tp371
asg22
Nsbsg22
Nsba(irule
Rule
p372
(dp373
g15
(irule
Guard
p374
(dp375
g18
I00
sg19
(lp376
sg21
I00
sg22
Nsg23
I00
sg24
S'L'
sbsg25
(irule
FeatureMatrix
p377
(dp378
g28
(lp379
sg22
Nsbsg31
(irule
Guard
p380
(dp381
g18
I00
sg19
(lp382
sg21
I00
sg22
Nsg23
I00
sg24
S'R'
sbsg35
(irule
ConstantPhoneme
p383
(dp384
S'p'
Vy
sbsg22
Nsba(irule
Rule
p385
(dp386
g15
(irule
Guard
p387
(dp388
g18
I00
sg19
(lp389
sg21
I00
sg22
Nsg23
I00
sg24
S'L'
sbsg25
(irule
FeatureMatrix
p390
(dp391
g28
(lp392
sg22
Nsbsg31
(irule
Guard
p393
(dp394
g18
I00
sg19
(lp395
sg21
I00
sg22
Nsg23
I00
sg24
S'R'
sbsg35
(irule
FeatureMatrix
p396
(dp397
g28
(lp398
(I00
S'tense'
p399
tp400
asg22
Nsbsg22
Nsba(irule
Rule
p401
(dp402
g15
(irule
Guard
p403
(dp404
g18
I00
sg19
(lp405
sg21
I00
sg22
Nsg23
I00
sg24
S'L'
sbsg25
(irule
FeatureMatrix
p406
(dp407
g28
(lp408
sg22
Nsbsg31
(irule
Guard
p409
(dp410
g18
I00
sg19
(lp411
sg21
I00
sg22
Nsg23
I00
sg24
S'R'
sbsg35
(irule
FeatureMatrix
p412
(dp413
g28
(lp414
(I01
g294
tp415
asg22
Nsbsg22
Nsba(irule
Rule
p416
(dp417
g15
(irule
Guard
p418
(dp419
g18
I00
sg19
(lp420
sg21
I00
sg22
Nsg23
I00
sg24
S'L'
sbsg25
(irule
FeatureMatrix
p421
(dp422
g28
(lp423
sg22
Nsbsg31
(irule
Guard
p424
(dp425
g18
I00
sg19
(lp426
sg21
I00
sg22
Nsg23
I00
sg24
S'R'
sbsg35
(irule
ConstantPhoneme
p427
(dp428
S'p'
Vw
sbsg22
Nsba(irule
Rule
p429
(dp430
g15
(irule
Guard
p431
(dp432
g18
I00
sg19
(lp433
sg21
I00
sg22
Nsg23
I00
sg24
S'L'
sbsg25
(irule
FeatureMatrix
p434
(dp435
g28
(lp436
sg22
Nsbsg31
(irule
Guard
p437
(dp438
g18
I00
sg19
(lp439
sg21
I00
sg22
Nsg23
I00
sg24
S'R'
sbsg35
(irule
FeatureMatrix
p440
(dp441
g28
(lp442
(I01
g217
tp443
asg22
Nsbsg22
Nsba(irule
Rule
p444
(dp445
g15
(irule
Guard
p446
(dp447
g18
I00
sg19
(lp448
sg21
I00
sg22
Nsg23
I00
sg24
S'L'
sbsg25
(irule
FeatureMatrix
p449
(dp450
g28
(lp451
sg22
Nsbsg31
(irule
Guard
p452
(dp453
g18
I00
sg19
(lp454
sg21
I00
sg22
Nsg23
I00
sg24
S'R'
sbsg35
(irule
FeatureMatrix
p455
(dp456
g28
(lp457
(I00
S'low'
p458
tp459
asg22
Nsbsg22
Nsba(irule
Rule
p460
(dp461
g15
(irule
Guard
p462
(dp463
g18
I00
sg19
(lp464
sg21
I00
sg22
Nsg23
I00
sg24
S'L'
sbsg25
(irule
FeatureMatrix
p465
(dp466
g28
(lp467
sg22
Nsbsg31
(irule
Guard
p468
(dp469
g18
I00
sg19
(lp470
sg21
I00
sg22
Nsg23
I00
sg24
S'R'
sbsg35
(irule
FeatureMatrix
p471
(dp472
g28
(lp473
(I00
S'rounded'
p474
tp475
asg22
Nsbsg22
Nsba(irule
Rule
p476
(dp477
g15
(irule
Guard
p478
(dp479
g18
I00
sg19
(lp480
sg21
I00
sg22
Nsg23
I00
sg24
S'L'
sbsg25
(irule
FeatureMatrix
p481
(dp482
g28
(lp483
sg22
Nsbsg31
(irule
Guard
p484
(dp485
g18
I00
sg19
(lp486
sg21
I00
sg22
Nsg23
I00
sg24
S'R'
sbsg35
(irule
ConstantPhoneme
p487
(dp488
S'p'
Vo
sbsg22
Nsba(irule
Rule
p489
(dp490
g15
(irule
Guard
p491
(dp492
g18
I00
sg19
(lp493
sg21
I00
sg22
Nsg23
I00
sg24
S'L'
sbsg25
(irule
FeatureMatrix
p494
(dp495
g28
(lp496
sg22
Nsbsg31
(irule
Guard
p497
(dp498
g18
I00
sg19
(lp499
sg21
I00
sg22
Nsg23
I00
sg24
S'R'
sbsg35
(irule
FeatureMatrix
p500
(dp501
g28
(lp502
(I00
S'glide'
p503
tp504
asg22
Nsbsg22
Nsba(irule
Rule
p505
(dp506
g15
(irule
Guard
p507
(dp508
g18
I00
sg19
(lp509
sg21
I00
sg22
Nsg23
I00
sg24
S'L'
sbsg25
(irule
FeatureMatrix
p510
(dp511
g28
(lp512
sg22
Nsbsg31
(irule
Guard
p513
(dp514
g18
I00
sg19
(lp515
sg21
I00
sg22
Nsg23
I00
sg24
S'R'
sbsg35
(irule
FeatureMatrix
p516
(dp517
g28
(lp518
(I01
g503
tp519
asg22
Nsbsg22
Nsba(irule
Rule
p520
(dp521
g15
(irule
Guard
p522
(dp523
g18
I00
sg19
(lp524
sg21
I00
sg22
Nsg23
I00
sg24
S'L'
sbsg25
(irule
FeatureMatrix
p525
(dp526
g28
(lp527
sg22
Nsbsg31
(irule
Guard
p528
(dp529
g18
I00
sg19
(lp530
sg21
I00
sg22
Nsg23
I00
sg24
S'R'
sbsg35
(irule
ConstantPhoneme
p531
(dp532
S'p'
Vt^s
p533
sbsg22
Nsba(irule
Rule
p534
(dp535
g15
(irule
Guard
p536
(dp537
g18
I00
sg19
(lp538
sg21
I00
sg22
Nsg23
I00
sg24
S'L'
sbsg25
(irule
FeatureMatrix
p539
(dp540
g28
(lp541
sg22
Nsbsg31
(irule
Guard
p542
(dp543
g18
I00
sg19
(lp544
sg21
I00
sg22
Nsg23
I00
sg24
S'R'
sbsg35
(irule
ConstantPhoneme
p545
(dp546
S'p'
Vt
sbsg22
Nsba(irule
Rule
p547
(dp548
g15
(irule
Guard
p549
(dp550
g18
I00
sg19
(lp551
sg21
I00
sg22
Nsg23
I00
sg24
S'L'
sbsg25
(irule
FeatureMatrix
p552
(dp553
g28
(lp554
sg22
Nsbsg31
(irule
Guard
p555
(dp556
g18
I00
sg19
(lp557
sg21
I00
sg22
Nsg23
I00
sg24
S'R'
sbsg35
(irule
FeatureMatrix
p558
(dp559
g28
(lp560
(I01
S'sonorant'
p561
tp562
asg22
Nsbsg22
Nsba(irule
Rule
p563
(dp564
g15
(irule
Guard
p565
(dp566
g18
I00
sg19
(lp567
sg21
I00
sg22
Nsg23
I00
sg24
S'L'
sbsg25
(irule
FeatureMatrix
p568
(dp569
g28
(lp570
sg22
Nsbsg31
(irule
Guard
p571
(dp572
g18
I00
sg19
(lp573
sg21
I00
sg22
Nsg23
I00
sg24
S'R'
sbsg35
(irule
FeatureMatrix
p574
(dp575
g28
(lp576
(I00
S'liquid'
p577
tp578
asg22
Nsbsg22
Nsba(irule
Rule
p579
(dp580
g15
(irule
Guard
p581
(dp582
g18
I00
sg19
(lp583
sg21
I00
sg22
Nsg23
I00
sg24
S'L'
sbsg25
(irule
FeatureMatrix
p584
(dp585
g28
(lp586
sg22
Nsbsg31
(irule
Guard
p587
(dp588
g18
I00
sg19
(lp589
sg21
I00
sg22
Nsg23
I00
sg24
S'R'
sbsg35
(irule
FeatureMatrix
p590
(dp591
g28
(lp592
(I01
g399
tp593
asg22
Nsbsg22
Nsba(irule
Rule
p594
(dp595
g15
(irule
Guard
p596
(dp597
g18
I00
sg19
(lp598
sg21
I00
sg22
Nsg23
I00
sg24
S'L'
sbsg25
(irule
FeatureMatrix
p599
(dp600
g28
(lp601
sg22
Nsbsg31
(irule
Guard
p602
(dp603
g18
I00
sg19
(lp604
sg21
I00
sg22
Nsg23
I00
sg24
S'R'
sbsg35
(irule
ConstantPhoneme
p605
(dp606
S'p'
Vd
sbsg22
Nsba(irule
Rule
p607
(dp608
g15
(irule
Guard
p609
(dp610
g18
I00
sg19
(lp611
sg21
I00
sg22
Nsg23
I00
sg24
S'L'
sbsg25
(irule
FeatureMatrix
p612
(dp613
g28
(lp614
sg22
Nsbsg31
(irule
Guard
p615
(dp616
g18
I00
sg19
(lp617
sg21
I00
sg22
Nsg23
I00
sg24
S'R'
sbsg35
(irule
FeatureMatrix
p618
(dp619
g28
(lp620
(I00
S'coronal'
p621
tp622
asg22
Nsbsg22
Nsba(irule
Rule
p623
(dp624
g15
(irule
Guard
p625
(dp626
g18
I00
sg19
(lp627
sg21
I00
sg22
Nsg23
I00
sg24
S'L'
sbsg25
(irule
FeatureMatrix
p628
(dp629
g28
(lp630
sg22
Nsbsg31
(irule
Guard
p631
(dp632
g18
I00
sg19
(lp633
sg21
I00
sg22
Nsg23
I00
sg24
S'R'
sbsg35
(irule
ConstantPhoneme
p634
(dp635
S'p'
Vm
sbsg22
Nsba(irule
Rule
p636
(dp637
g15
(irule
Guard
p638
(dp639
g18
I00
sg19
(lp640
sg21
I00
sg22
Nsg23
I00
sg24
S'L'
sbsg25
(irule
FeatureMatrix
p641
(dp642
g28
(lp643
sg22
Nsbsg31
(irule
Guard
p644
(dp645
g18
I00
sg19
(lp646
sg21
I00
sg22
Nsg23
I00
sg24
S'R'
sbsg35
(irule
FeatureMatrix
p647
(dp648
g28
(lp649
(I00
g561
tp650
asg22
Nsbsg22
Nsba(irule
Rule
p651
(dp652
g15
(irule
Guard
p653
(dp654
g18
I00
sg19
(lp655
sg21
I00
sg22
Nsg23
I00
sg24
S'L'
sbsg25
(irule
FeatureMatrix
p656
(dp657
g28
(lp658
sg22
Nsbsg31
(irule
Guard
p659
(dp660
g18
I00
sg19
(lp661
sg21
I00
sg22
Nsg23
I00
sg24
S'R'
sbsg35
(irule
ConstantPhoneme
p662
(dp663
S'p'
V\u0161
sbsg22
Nsba(irule
Rule
p664
(dp665
g15
(irule
Guard
p666
(dp667
g18
I00
sg19
(lp668
sg21
I00
sg22
Nsg23
I00
sg24
S'L'
sbsg25
(irule
FeatureMatrix
p669
(dp670
g28
(lp671
sg22
Nsbsg31
(irule
Guard
p672
(dp673
g18
I00
sg19
(lp674
sg21
I00
sg22
Nsg23
I00
sg24
S'R'
sbsg35
(irule
FeatureMatrix
p675
(dp676
g28
(lp677
(I01
S'anterior'
p678
tp679
asg22
Nsbsg22
Nsba(irule
Rule
p680
(dp681
g15
(irule
Guard
p682
(dp683
g18
I00
sg19
(lp684
sg21
I00
sg22
Nsg23
I00
sg24
S'L'
sbsg25
(irule
FeatureMatrix
p685
(dp686
g28
(lp687
sg22
Nsbsg31
(irule
Guard
p688
(dp689
g18
I00
sg19
(lp690
sg21
I00
sg22
Nsg23
I00
sg24
S'R'
sbsg35
(irule
FeatureMatrix
p691
(dp692
g28
(lp693
(I01
g458
tp694
asg22
Nsbsg22
Nsba(irule
Rule
p695
(dp696
g15
(irule
Guard
p697
(dp698
g18
I00
sg19
(lp699
sg21
I00
sg22
Nsg23
I00
sg24
S'L'
sbsg25
(irule
FeatureMatrix
p700
(dp701
g28
(lp702
sg22
Nsbsg31
(irule
Guard
p703
(dp704
g18
I00
sg19
(lp705
sg21
I00
sg22
Nsg23
I00
sg24
S'R'
sbsg35
(irule
FeatureMatrix
p706
(dp707
g28
(lp708
(I00
S'nasal'
p709
tp710
asg22
Nsbsg22
Nsba(irule
Rule
p711
(dp712
g15
(irule
Guard
p713
(dp714
g18
I00
sg19
(lp715
sg21
I00
sg22
Nsg23
I00
sg24
S'L'
sbsg25
(irule
FeatureMatrix
p716
(dp717
g28
(lp718
sg22
Nsbsg31
(irule
Guard
p719
(dp720
g18
I00
sg19
(lp721
sg21
I00
sg22
Nsg23
I00
sg24
S'R'
sbsg35
(irule
FeatureMatrix
p722
(dp723
g28
(lp724
(I00
g678
tp725
asg22
Nsbsg22
Nsba(irule
Rule
p726
(dp727
g15
(irule
Guard
p728
(dp729
g18
I00
sg19
(lp730
sg21
I00
sg22
Nsg23
I00
sg24
S'L'
sbsg25
(irule
FeatureMatrix
p731
(dp732
g28
(lp733
sg22
Nsbsg31
(irule
Guard
p734
(dp735
g18
I00
sg19
(lp736
sg21
I00
sg22
Nsg23
I00
sg24
S'R'
sbsg35
(irule
FeatureMatrix
p737
(dp738
g28
(lp739
(I00
g163
tp740
asg22
Nsbsg22
Nsba(irule
Rule
p741
(dp742
g15
(irule
Guard
p743
(dp744
g18
I00
sg19
(lp745
sg21
I00
sg22
Nsg23
I00
sg24
S'L'
sbsg25
(irule
FeatureMatrix
p746
(dp747
g28
(lp748
sg22
Nsbsg31
(irule
Guard
p749
(dp750
g18
I00
sg19
(lp751
sg21
I00
sg22
Nsg23
I00
sg24
S'R'
sbsg35
(irule
FeatureMatrix
p752
(dp753
g28
(lp754
(I01
g474
tp755
asg22
Nsbsg22
Nsba(irule
Rule
p756
(dp757
g15
(irule
Guard
p758
(dp759
g18
I00
sg19
(lp760
sg21
I00
sg22
Nsg23
I00
sg24
S'L'
sbsg25
(irule
FeatureMatrix
p761
(dp762
g28
(lp763
sg22
Nsbsg31
(irule
Guard
p764
(dp765
g18
I00
sg19
(lp766
sg21
I00
sg22
Nsg23
I00
sg24
S'R'
sbsg35
(irule
FeatureMatrix
p767
(dp768
g28
(lp769
(I01
g621
tp770
asg22
Nsbsg22
Nsba(irule
Rule
p771
(dp772
g15
(irule
Guard
p773
(dp774
g18
I00
sg19
(lp775
sg21
I00
sg22
Nsg23
I00
sg24
S'L'
sbsg25
(irule
FeatureMatrix
p776
(dp777
g28
(lp778
sg22
Nsbsg31
(irule
Guard
p779
(dp780
g18
I00
sg19
(lp781
sg21
I00
sg22
Nsg23
I00
sg24
S'R'
sbsg35
(irule
FeatureMatrix
p782
(dp783
g28
(lp784
(I01
g709
tp785
asg22
Nsbsg22
Nsba(irule
Rule
p786
(dp787
g15
(irule
Guard
p788
(dp789
g18
I00
sg19
(lp790
sg21
I00
sg22
Nsg23
I00
sg24
S'L'
sbsg25
(irule
FeatureMatrix
p791
(dp792
g28
(lp793
sg22
Nsbsg31
(irule
Guard
p794
(dp795
g18
I00
sg19
(lp796
sg21
I00
sg22
Nsg23
I00
sg24
S'R'
sbsg35
(irule
FeatureMatrix
p797
(dp798
g28
(lp799
(I00
S'continuant'
p800
tp801
asg22
Nsbsg22
Nsba(irule
Rule
p802
(dp803
g15
(irule
Guard
p804
(dp805
g18
I00
sg19
(lp806
sg21
I00
sg22
Nsg23
I00
sg24
S'L'
sbsg25
(irule
FeatureMatrix
p807
(dp808
g28
(lp809
sg22
Nsbsg31
(irule
Guard
p810
(dp811
g18
I00
sg19
(lp812
sg21
I00
sg22
Nsg23
I00
sg24
S'R'
sbsg35
(irule
ConstantPhoneme
p813
(dp814
S'p'
Va
sbsg22
Nsba(irule
Rule
p815
(dp816
g15
(irule
Guard
p817
(dp818
g18
I00
sg19
(lp819
sg21
I00
sg22
Nsg23
I00
sg24
S'L'
sbsg25
(irule
FeatureMatrix
p820
(dp821
g28
(lp822
sg22
Nsbsg31
(irule
Guard
p823
(dp824
g18
I00
sg19
(lp825
sg21
I00
sg22
Nsg23
I00
sg24
S'R'
sbsg35
(irule
FeatureMatrix
p826
(dp827
g28
(lp828
(I01
g278
tp829
asg22
Nsbsg22
Nsba(irule
Rule
p830
(dp831
g15
(irule
Guard
p832
(dp833
g18
I00
sg19
(lp834
sg21
I00
sg22
Nsg23
I00
sg24
S'L'
sbsg25
(irule
FeatureMatrix
p835
(dp836
g28
(lp837
sg22
Nsbsg31
(irule
Guard
p838
(dp839
g18
I00
sg19
(lp840
sg21
I00
sg22
Nsg23
I00
sg24
S'R'
sbsg35
(irule
FeatureMatrix
p841
(dp842
g28
(lp843
(I01
g800
tp844
asg22
Nsbsg22
Nsba(irule
Rule
p845
(dp846
g15
(irule
Guard
p847
(dp848
g18
I00
sg19
(lp849
sg21
I00
sg22
Nsg23
I00
sg24
S'L'
sbsg25
(irule
FeatureMatrix
p850
(dp851
g28
(lp852
sg22
Nsbsg31
(irule
Guard
p853
(dp854
g18
I00
sg19
(lp855
sg21
I00
sg22
Nsg23
I00
sg24
S'R'
sbsg35
(irule
ConstantPhoneme
p856
(dp857
S'p'
Vi
sbsg22
Nsba(irule
Rule
p858
(dp859
g15
(irule
Guard
p860
(dp861
g18
I00
sg19
(lp862
sg21
I00
sg22
Nsg23
I00
sg24
S'L'
sbsg25
(irule
FeatureMatrix
p863
(dp864
g28
(lp865
sg22
Nsbsg31
(irule
Guard
p866
(dp867
g18
I00
sg19
(lp868
sg21
I00
sg22
Nsg23
I00
sg24
S'R'
sbsg35
(irule
ConstantPhoneme
p869
(dp870
S'p'
Vr
sbsg22
Nsba(irule
Rule
p871
(dp872
g15
(irule
Guard
p873
(dp874
g18
I00
sg19
(lp875
sg21
I00
sg22
Nsg23
I00
sg24
S'L'
sbsg25
(irule
FeatureMatrix
p876
(dp877
g28
(lp878
sg22
Nsbsg31
(irule
Guard
p879
(dp880
g18
I00
sg19
(lp881
sg21
I00
sg22
Nsg23
I00
sg24
S'R'
sbsg35
(irule
FeatureMatrix
p882
(dp883
g28
(lp884
(I01
g163
tp885
asg22
Nsbsg22
Nsba(irule
Rule
p886
(dp887
g15
(irule
Guard
p888
(dp889
g18
I00
sg19
(lp890
sg21
I00
sg22
Nsg23
I00
sg24
S'L'
sbsg25
(irule
FeatureMatrix
p891
(dp892
g28
(lp893
sg22
Nsbsg31
(irule
Guard
p894
(dp895
g18
I00
sg19
(lp896
sg21
I00
sg22
Nsg23
I00
sg24
S'R'
sbsg35
(irule
FeatureMatrix
p897
(dp898
g28
(lp899
(I01
g577
tp900
asg22
Nsbsg22
Nsba(irule
Rule
p901
(dp902
g15
(irule
Guard
p903
(dp904
g18
I00
sg19
(lp905
sg21
I00
sg22
Nsg23
I00
sg24
S'L'
sbsg25
(irule
FeatureMatrix
p906
(dp907
g28
(lp908
sg22
Nsbsg31
(irule
Guard
p909
(dp910
g18
I00
sg19
(lp911
sg21
I00
sg22
Nsg23
I00
sg24
S'R'
sbsg35
(irule
ConstantPhoneme
p912
(dp913
S'p'
Vb
sbsg22
Nsba(irule
Rule
p914
(dp915
g15
(irule
Guard
p916
(dp917
g18
I00
sg19
(lp918
sg21
I00
sg22
Nsg23
I00
sg24
S'L'
sbsg25
(irule
FeatureMatrix
p919
(dp920
g28
(lp921
sg22
Nsbsg31
(irule
Guard
p922
(dp923
g18
I00
sg19
(lp924
sg21
I00
sg22
Nsg23
I00
sg24
S'R'
sbsg35
(irule
ConstantPhoneme
p925
(dp926
S'p'
Ve
sbsg22
Nsba(irule
Rule
p927
(dp928
g15
(irule
Guard
p929
(dp930
g18
I00
sg19
(lp931
sg21
I00
sg22
Nsg23
I00
sg24
S'L'
sbsg25
(irule
FeatureMatrix
p932
(dp933
g28
(lp934
sg22
Nsbsg31
(irule
Guard
p935
(dp936
g18
I00
sg19
(lp937
sg21
I00
sg22
Nsg23
I00
sg24
S'R'
sbsg35
(irule
ConstantPhoneme
p938
(dp939
S'p'
Vg
sbsg22
Nsba(irule
Rule
p940
(dp941
g15
(irule
Guard
p942
(dp943
g18
I00
sg19
(lp944
sg21
I00
sg22
Nsg23
I00
sg24
S'L'
sbsg25
(irule
FeatureMatrix
p945
(dp946
g28
(lp947
sg22
Nsbsg31
(irule
Guard
p948
(dp949
g18
I00
sg19
(lp950
sg21
I00
sg22
Nsg23
I00
sg24
S'R'
sbsg35
(irule
ConstantPhoneme
p951
(dp952
S'p'
Vn
sbsg22
Nsba(irule
Rule
p953
(dp954
g15
(irule
Guard
p955
(dp956
g18
I00
sg19
(lp957
sg21
I00
sg22
Nsg23
I00
sg24
S'L'
sbsg25
(irule
FeatureMatrix
p958
(dp959
g28
(lp960
sg22
Nsbsg31
(irule
Guard
p961
(dp962
g18
I00
sg19
(lp963
sg21
I00
sg22
Nsg23
I00
sg24
S'R'
sbsg35
(irule
ConstantPhoneme
p964
(dp965
S'p'
Vu
sbsg22
Nsba(irule
Rule
p966
(dp967
g15
(irule
Guard
p968
(dp969
g18
I00
sg19
(lp970
sg21
I00
sg22
Nsg23
I00
sg24
S'L'
sbsg25
(irule
FeatureMatrix
p971
(dp972
g28
(lp973
sg22
Nsbsg31
(irule
Guard
p974
(dp975
g18
I00
sg19
(lp976
sg21
I00
sg22
Nsg23
I00
sg24
S'R'
sbsg35
(irule
ConstantPhoneme
p977
(dp978
S'p'
Vs
sbsg22
Nsba(irule
Rule
p979
(dp980
g15
(irule
Guard
p981
(dp982
g18
I00
sg19
(lp983
sg21
I00
sg22
Nsg23
I00
sg24
S'L'
sbsg25
(irule
FeatureMatrix
p984
(dp985
g28
(lp986
sg22
Nsbsg31
(irule
Guard
p987
(dp988
g18
I00
sg19
(lp989
sg21
I00
sg22
Nsg23
I00
sg24
S'R'
sbsg35
(irule
ConstantPhoneme
p990
(dp991
S'p'
Vc\u030c
p992
sbsg22
Nsba(irule
Rule
p993
(dp994
g15
(irule
Guard
p995
(dp996
g18
I00
sg19
(lp997
sg21
I00
sg22
Nsg23
I00
sg24
S'L'
sbsg25
(irule
FeatureMatrix
p998
(dp999
g28
(lp1000
sg22
Nsbsg31
(irule
Guard
p1001
(dp1002
g18
I00
sg19
(lp1003
sg21
I00
sg22
Nsg23
I00
sg24
S'R'
sbsg35
(irule
ConstantPhoneme
p1004
(dp1005
S'p'
Vk
sbsg22
Nsba(irule
Rule
p1006
(dp1007
g15
(irule
Guard
p1008
(dp1009
g18
I00
sg19
(lp1010
(irule
FeatureMatrix
p1011
(dp1012
g28
(lp1013
(I01
g195
tp1014
asg22
Nsbasg21
I00
sg22
Nsg23
I00
sg24
S'L'
sbsg25
(irule
OffsetSpecification
p1015
(dp1016
S'offset'
p1017
I-1
sbsg31
(irule
Guard
p1018
(dp1019
g18
I00
sg19
(lp1020
sg21
I00
sg22
Nsg23
I00
sg24
S'R'
sbsg35
(irule
FeatureMatrix
p1021
(dp1022
g28
(lp1023
sg22
Nsbsg22
Nsba(irule
Rule
p1024
(dp1025
g15
(irule
Guard
p1026
(dp1027
g18
I00
sg19
(lp1028
sg21
I00
sg22
Nsg23
I00
sg24
S'L'
sbsg25
(irule
FeatureMatrix
p1029
(dp1030
g28
(lp1031
(I00
g163
tp1032
a(I00
g195
tp1033
asg22
Nsbsg31
(irule
Guard
p1034
(dp1035
g18
I00
sg19
(lp1036
sg21
I00
sg22
Nsg23
I00
sg24
S'R'
sbsg35
(irule
FeatureMatrix
p1037
(dp1038
g28
(lp1039
sg22
Nsbsg22
Nsba(irule
Rule
p1040
(dp1041
g15
(irule
Guard
p1042
(dp1043
g18
I00
sg19
(lp1044
sg21
I00
sg22
Nsg23
I00
sg24
S'L'
sbsg25
(irule
ConstantPhoneme
p1045
(dp1046
S'p'
Vy
sbsg31
(irule
Guard
p1047
(dp1048
g18
I00
sg19
(lp1049
sg21
I00
sg22
Nsg23
I00
sg24
S'R'
sbsg35
(irule
FeatureMatrix
p1050
(dp1051
g28
(lp1052
(I01
g185
tp1053
asg22
Nsbsg22
Nsba(irule
Rule
p1054
(dp1055
g15
(irule
Guard
p1056
(dp1057
g18
I00
sg19
(lp1058
(irule
FeatureMatrix
p1059
(dp1060
g28
(lp1061
sg22
Nsbasg21
I00
sg22
Nsg23
I00
sg24
S'L'
sbsg25
(irule
FeatureMatrix
p1062
(dp1063
g28
(lp1064
(I00
g195
tp1065
asg22
Nsbsg31
(irule
Guard
p1066
(dp1067
g18
I00
sg19
(lp1068
sg21
I00
sg22
Nsg23
I00
sg24
S'R'
sbsg35
(irule
FeatureMatrix
p1069
(dp1070
g28
(lp1071
sg22
Nsbsg22
Nsba(irule
Rule
p1072
(dp1073
g15
(irule
Guard
p1074
(dp1075
g18
I00
sg19
(lp1076
sg21
I00
sg22
Nsg23
I00
sg24
S'L'
sbsg25
(irule
FeatureMatrix
p1077
(dp1078
g28
(lp1079
(I00
g195
tp1080
asg22
Nsbsg31
(irule
Guard
p1081
(dp1082
g18
I01
sg19
(lp1083
sg21
I00
sg22
Nsg23
I00
sg24
S'R'
sbsg35
(irule
FeatureMatrix
p1084
(dp1085
g28
(lp1086
sg22
Nsbsg22
Nsba(irule
Rule
p1087
(dp1088
g15
(irule
Guard
p1089
(dp1090
g18
I00
sg19
(lp1091
sg21
I00
sg22
Nsg23
I00
sg24
S'L'
sbsg25
(irule
FeatureMatrix
p1092
(dp1093
g28
(lp1094
(I01
g310
tp1095
asg22
Nsbsg31
(irule
Guard
p1096
(dp1097
g18
I00
sg19
(lp1098
sg21
I00
sg22
Nsg23
I00
sg24
S'R'
sbsg35
(irule
FeatureMatrix
p1099
(dp1100
g28
(lp1101
(I01
g185
tp1102
asg22
Nsbsg22
Nsba(irule
Rule
p1103
(dp1104
g15
(irule
Guard
p1105
(dp1106
g18
I00
sg19
(lp1107
(irule
FeatureMatrix
p1108
(dp1109
g28
(lp1110
sg22
Nsba(irule
FeatureMatrix
p1111
(dp1112
g28
(lp1113
sg22
Nsbasg21
I00
sg22
Nsg23
I00
sg24
S'L'
sbsg25
(irule
FeatureMatrix
p1114
(dp1115
g28
(lp1116
sg22
Nsbsg31
(irule
Guard
p1117
(dp1118
g18
I00
sg19
(lp1119
sg21
I00
sg22
Nsg23
I00
sg24
S'R'
sbsg35
(irule
FeatureMatrix
p1120
(dp1121
g28
(lp1122
sg22
Nsbsg22
Nsba(irule
Rule
p1123
(dp1124
g15
(irule
Guard
p1125
(dp1126
g18
I00
sg19
(lp1127
sg21
I00
sg22
Nsg23
I00
sg24
S'L'
sbsg25
(irule
ConstantPhoneme
p1128
(dp1129
S'p'
Vt
sbsg31
(irule
Guard
p1130
(dp1131
g18
I00
sg19
(lp1132
sg21
I00
sg22
Nsg23
I00
sg24
S'R'
sbsg35
(irule
FeatureMatrix
p1133
(dp1134
g28
(lp1135
(I00
g310
tp1136
asg22
Nsbsg22
Nsba(irule
Rule
p1137
(dp1138
g15
(irule
Guard
p1139
(dp1140
g18
I00
sg19
(lp1141
(irule
FeatureMatrix
p1142
(dp1143
g28
(lp1144
(I01
g310
tp1145
asg22
Nsbasg21
I00
sg22
Nsg23
I00
sg24
S'L'
sbsg25
(irule
FeatureMatrix
p1146
(dp1147
g28
(lp1148
sg22
Nsbsg31
(irule
Guard
p1149
(dp1150
g18
I00
sg19
(lp1151
sg21
I00
sg22
Nsg23
I00
sg24
S'R'
sbsg35
(irule
FeatureMatrix
p1152
(dp1153
g28
(lp1154
sg22
Nsbsg22
Nsba(irule
Rule
p1155
(dp1156
g15
(irule
Guard
p1157
(dp1158
g18
I00
sg19
(lp1159
(irule
FeatureMatrix
p1160
(dp1161
g28
(lp1162
(I00
g709
tp1163
asg22
Nsbasg21
I00
sg22
Nsg23
I00
sg24
S'L'
sbsg25
(irule
FeatureMatrix
p1164
(dp1165
g28
(lp1166
sg22
Nsbsg31
(irule
Guard
p1167
(dp1168
g18
I00
sg19
(lp1169
sg21
I00
sg22
Nsg23
I00
sg24
S'R'
sbsg35
(irule
FeatureMatrix
p1170
(dp1171
g28
(lp1172
sg22
Nsbsg22
Nsba(irule
Rule
p1173
(dp1174
g15
(irule
Guard
p1175
(dp1176
g18
I00
sg19
(lp1177
sg21
I00
sg22
Nsg23
I00
sg24
S'L'
sbsg25
(irule
FeatureMatrix
p1178
(dp1179
g28
(lp1180
(I00
g294
tp1181
asg22
Nsbsg31
(irule
Guard
p1182
(dp1183
g18
I00
sg19
(lp1184
sg21
I00
sg22
Nsg23
I00
sg24
S'R'
sbsg35
(irule
FeatureMatrix
p1185
(dp1186
g28
(lp1187
(I01
g185
tp1188
asg22
Nsbsg22
Nsba(irule
Rule
p1189
(dp1190
g15
(irule
Guard
p1191
(dp1192
g18
I01
sg19
(lp1193
(irule
FeatureMatrix
p1194
(dp1195
g28
(lp1196
sg22
Nsbasg21
I00
sg22
Nsg23
I00
sg24
S'L'
sbsg25
(irule
FeatureMatrix
p1197
(dp1198
g28
(lp1199
sg22
Nsbsg31
(irule
Guard
p1200
(dp1201
g18
I00
sg19
(lp1202
sg21
I00
sg22
Nsg23
I00
sg24
S'R'
sbsg35
(irule
FeatureMatrix
p1203
(dp1204
g28
(lp1205
sg22
Nsbsg22
Nsba(irule
Rule
p1206
(dp1207
g15
(irule
Guard
p1208
(dp1209
g18
I01
sg19
(lp1210
sg21
I00
sg22
Nsg23
I00
sg24
S'L'
sbsg25
(irule
FeatureMatrix
p1211
(dp1212
g28
(lp1213
(I00
g294
tp1214
asg22
Nsbsg31
(irule
Guard
p1215
(dp1216
g18
I00
sg19
(lp1217
sg21
I00
sg22
Nsg23
I00
sg24
S'R'
sbsg35
(irule
FeatureMatrix
p1218
(dp1219
g28
(lp1220
sg22
Nsbsg22
Nsba(irule
Rule
p1221
(dp1222
g15
(irule
Guard
p1223
(dp1224
g18
I00
sg19
(lp1225
(irule
FeatureMatrix
p1226
(dp1227
g28
(lp1228
(I00
g310
tp1229
asg22
Nsbasg21
I00
sg22
Nsg23
I00
sg24
S'L'
sbsg25
(irule
FeatureMatrix
p1230
(dp1231
g28
(lp1232
sg22
Nsbsg31
(irule
Guard
p1233
(dp1234
g18
I00
sg19
(lp1235
sg21
I00
sg22
Nsg23
I00
sg24
S'R'
sbsg35
(irule
FeatureMatrix
p1236
(dp1237
g28
(lp1238
sg22
Nsbsg22
Nsba(irule
Rule
p1239
(dp1240
g15
(irule
Guard
p1241
(dp1242
g18
I00
sg19
(lp1243
(irule
FeatureMatrix
p1244
(dp1245
g28
(lp1246
(I00
g195
tp1247
asg22
Nsbasg21
I00
sg22
Nsg23
I00
sg24
S'L'
sbsg25
(irule
FeatureMatrix
p1248
(dp1249
g28
(lp1250
sg22
Nsbsg31
(irule
Guard
p1251
(dp1252
g18
I00
sg19
(lp1253
sg21
I00
sg22
Nsg23
I00
sg24
S'R'
sbsg35
(irule
FeatureMatrix
p1254
(dp1255
g28
(lp1256
sg22
Nsbsg22
Nsba(irule
Rule
p1257
(dp1258
g15
(irule
Guard
p1259
(dp1260
g18
I00
sg19
(lp1261
sg21
I00
sg22
Nsg23
I00
sg24
S'L'
sbsg25
(irule
ConstantPhoneme
p1262
(dp1263
S'p'
Vt
sbsg31
(irule
Guard
p1264
(dp1265
g18
I00
sg19
(lp1266
sg21
I00
sg22
Nsg23
I00
sg24
S'R'
sbsg35
(irule
FeatureMatrix
p1267
(dp1268
g28
(lp1269
(I00
g561
tp1270
asg22
Nsbsg22
Nsba(irule
Rule
p1271
(dp1272
g15
(irule
Guard
p1273
(dp1274
g18
I00
sg19
(lp1275
(irule
FeatureMatrix
p1276
(dp1277
g28
(lp1278
sg22
Nsbasg21
I00
sg22
Nsg23
I00
sg24
S'L'
sbsg25
(irule
FeatureMatrix
p1279
(dp1280
g28
(lp1281
sg22
Nsbsg31
(irule
Guard
p1282
(dp1283
g18
I00
sg19
(lp1284
(irule
FeatureMatrix
p1285
(dp1286
g28
(lp1287
sg22
Nsbasg21
I00
sg22
Nsg23
I00
sg24
S'R'
sbsg35
(irule
FeatureMatrix
p1288
(dp1289
g28
(lp1290
sg22
Nsbsg22
Nsba(irule
Rule
p1291
(dp1292
g15
(irule
Guard
p1293
(dp1294
g18
I00
sg19
(lp1295
(irule
FeatureMatrix
p1296
(dp1297
g28
(lp1298
(I01
g163
tp1299
asg22
Nsbasg21
I00
sg22
Nsg23
I00
sg24
S'L'
sbsg25
(irule
OffsetSpecification
p1300
(dp1301
g1017
I-1
sbsg31
(irule
Guard
p1302
(dp1303
g18
I00
sg19
(lp1304
sg21
I00
sg22
Nsg23
I00
sg24
S'R'
sbsg35
(irule
FeatureMatrix
p1305
(dp1306
g28
(lp1307
sg22
Nsbsg22
Nsba(irule
Rule
p1308
(dp1309
g15
(irule
Guard
p1310
(dp1311
g18
I00
sg19
(lp1312
sg21
I00
sg22
Nsg23
I00
sg24
S'L'
sbsg25
(irule
FeatureMatrix
p1313
(dp1314
g28
(lp1315
sg22
Nsbsg31
(irule
Guard
p1316
(dp1317
g18
I00
sg19
(lp1318
(irule
FeatureMatrix
p1319
(dp1320
g28
(lp1321
sg22
Nsba(irule
FeatureMatrix
p1322
(dp1323
g28
(lp1324
sg22
Nsbasg21
I00
sg22
Nsg23
I00
sg24
S'R'
sbsg35
(irule
FeatureMatrix
p1325
(dp1326
g28
(lp1327
sg22
Nsbsg22
Nsba(irule
Rule
p1328
(dp1329
g15
(irule
Guard
p1330
(dp1331
g18
I00
sg19
(lp1332
sg21
I00
sg22
Nsg23
I00
sg24
S'L'
sbsg25
(irule
FeatureMatrix
p1333
(dp1334
g28
(lp1335
(I00
g163
tp1336
asg22
Nsbsg31
(irule
Guard
p1337
(dp1338
g18
I00
sg19
(lp1339
sg21
I00
sg22
Nsg23
I00
sg24
S'R'
sbsg35
(irule
FeatureMatrix
p1340
(dp1341
g28
(lp1342
(I00
g474
tp1343
asg22
Nsbsg22
Nsba(irule
Rule
p1344
(dp1345
g15
(irule
Guard
p1346
(dp1347
g18
I00
sg19
(lp1348
(irule
FeatureMatrix
p1349
(dp1350
g28
(lp1351
sg22
Nsbasg21
I00
sg22
Nsg23
I00
sg24
S'L'
sbsg25
(irule
FeatureMatrix
p1352
(dp1353
g28
(lp1354
sg22
Nsbsg31
(irule
Guard
p1355
(dp1356
g18
I01
sg19
(lp1357
sg21
I00
sg22
Nsg23
I00
sg24
S'R'
sbsg35
(irule
FeatureMatrix
p1358
(dp1359
g28
(lp1360
sg22
Nsbsg22
Nsba(irule
Rule
p1361
(dp1362
g15
(irule
Guard
p1363
(dp1364
g18
I00
sg19
(lp1365
sg21
I00
sg22
Nsg23
I00
sg24
S'L'
sbsg25
(irule
ConstantPhoneme
p1366
(dp1367
S'p'
Vy
sbsg31
(irule
Guard
p1368
(dp1369
g18
I00
sg19
(lp1370
sg21
I00
sg22
Nsg23
I00
sg24
S'R'
sbsg35
(irule
FeatureMatrix
p1371
(dp1372
g28
(lp1373
(I01
g503
tp1374
asg22
Nsbsg22
Nsba(irule
Rule
p1375
(dp1376
g15
(irule
Guard
p1377
(dp1378
g18
I00
sg19
(lp1379
sg21
I00
sg22
Nsg23
I00
sg24
S'L'
sbsg25
(irule
FeatureMatrix
p1380
(dp1381
g28
(lp1382
(I01
g310
tp1383
asg22
Nsbsg31
(irule
Guard
p1384
(dp1385
g18
I00
sg19
(lp1386
sg21
I00
sg22
Nsg23
I00
sg24
S'R'
sbsg35
(irule
FeatureMatrix
p1387
(dp1388
g28
(lp1389
(I01
g294
tp1390
asg22
Nsbsg22
Nsba(irule
Rule
p1391
(dp1392
g15
(irule
Guard
p1393
(dp1394
g18
I00
sg19
(lp1395
(irule
FeatureMatrix
p1396
(dp1397
g28
(lp1398
(I01
g399
tp1399
asg22
Nsbasg21
I00
sg22
Nsg23
I00
sg24
S'L'
sbsg25
(irule
FeatureMatrix
p1400
(dp1401
g28
(lp1402
sg22
Nsbsg31
(irule
Guard
p1403
(dp1404
g18
I00
sg19
(lp1405
sg21
I00
sg22
Nsg23
I00
sg24
S'R'
sbsg35
(irule
FeatureMatrix
p1406
(dp1407
g28
(lp1408
sg22
Nsbsg22
Nsba(irule
Rule
p1409
(dp1410
g15
(irule
Guard
p1411
(dp1412
g18
I01
sg19
(lp1413
sg21
I00
sg22
Nsg23
I00
sg24
S'L'
sbsg25
(irule
FeatureMatrix
p1414
(dp1415
g28
(lp1416
(I01
g310
tp1417
asg22
Nsbsg31
(irule
Guard
p1418
(dp1419
g18
I00
sg19
(lp1420
sg21
I00
sg22
Nsg23
I00
sg24
S'R'
sbsg35
(irule
FeatureMatrix
p1421
(dp1422
g28
(lp1423
sg22
Nsbsg22
Nsba(irule
Rule
p1424
(dp1425
g15
(irule
Guard
p1426
(dp1427
g18
I00
sg19
(lp1428
(irule
FeatureMatrix
p1429
(dp1430
g28
(lp1431
(I00
g294
tp1432
asg22
Nsbasg21
I00
sg22
Nsg23
I00
sg24
S'L'
sbsg25
(irule
FeatureMatrix
p1433
(dp1434
g28
(lp1435
sg22
Nsbsg31
(irule
Guard
p1436
(dp1437
g18
I00
sg19
(lp1438
sg21
I00
sg22
Nsg23
I00
sg24
S'R'
sbsg35
(irule
FeatureMatrix
p1439
(dp1440
g28
(lp1441
sg22
Nsbsg22
Nsba(irule
Rule
p1442
(dp1443
g15
(irule
Guard
p1444
(dp1445
g18
I00
sg19
(lp1446
sg21
I00
sg22
Nsg23
I00
sg24
S'L'
sbsg25
(irule
OffsetSpecification
p1447
(dp1448
g1017
I1
sbsg31
(irule
Guard
p1449
(dp1450
g18
I00
sg19
(lp1451
(irule
FeatureMatrix
p1452
(dp1453
g28
(lp1454
(I01
g195
tp1455
asg22
Nsbasg21
I00
sg22
Nsg23
I00
sg24
S'R'
sbsg35
(irule
FeatureMatrix
p1456
(dp1457
g28
(lp1458
sg22
Nsbsg22
Nsba(irule
Rule
p1459
(dp1460
g15
(irule
Guard
p1461
(dp1462
g18
I00
sg19
(lp1463
sg21
I00
sg22
Nsg23
I00
sg24
S'L'
sbsg25
(irule
FeatureMatrix
p1464
(dp1465
g28
(lp1466
sg22
Nsbsg31
(irule
Guard
p1467
(dp1468
g18
I00
sg19
(lp1469
(irule
FeatureMatrix
p1470
(dp1471
g28
(lp1472
sg22
Nsbasg21
I00
sg22
Nsg23
I00
sg24
S'R'
sbsg35
(irule
FeatureMatrix
p1473
(dp1474
g28
(lp1475
(I00
g294
tp1476
asg22
Nsbsg22
Nsba(irule
Rule
p1477
(dp1478
g15
(irule
Guard
p1479
(dp1480
g18
I00
sg19
(lp1481
sg21
I00
sg22
Nsg23
I00
sg24
S'L'
sbsg25
(irule
FeatureMatrix
p1482
(dp1483
g28
(lp1484
(I01
g310
tp1485
asg22
Nsbsg31
(irule
Guard
p1486
(dp1487
g18
I01
sg19
(lp1488
sg21
I00
sg22
Nsg23
I00
sg24
S'R'
sbsg35
(irule
FeatureMatrix
p1489
(dp1490
g28
(lp1491
sg22
Nsbsg22
Nsba(irule
Rule
p1492
(dp1493
g15
(irule
Guard
p1494
(dp1495
g18
I00
sg19
(lp1496
(irule
FeatureMatrix
p1497
(dp1498
g28
(lp1499
(I01
g217
tp1500
asg22
Nsbasg21
I00
sg22
Nsg23
I00
sg24
S'L'
sbsg25
(irule
FeatureMatrix
p1501
(dp1502
g28
(lp1503
sg22
Nsbsg31
(irule
Guard
p1504
(dp1505
g18
I00
sg19
(lp1506
sg21
I00
sg22
Nsg23
I00
sg24
S'R'
sbsg35
(irule
FeatureMatrix
p1507
(dp1508
g28
(lp1509
sg22
Nsbsg22
Nsba(irule
Rule
p1510
(dp1511
g15
(irule
Guard
p1512
(dp1513
g18
I00
sg19
(lp1514
sg21
I00
sg22
Nsg23
I00
sg24
S'L'
sbsg25
(irule
FeatureMatrix
p1515
(dp1516
g28
(lp1517
(I00
g621
tp1518
asg22
Nsbsg31
(irule
Guard
p1519
(dp1520
g18
I00
sg19
(lp1521
sg21
I00
sg22
Nsg23
I00
sg24
S'R'
sbsg35
(irule
FeatureMatrix
p1522
(dp1523
g28
(lp1524
(I01
g185
tp1525
asg22
Nsbsg22
Nsba(irule
Rule
p1526
(dp1527
g15
(irule
Guard
p1528
(dp1529
g18
I00
sg19
(lp1530
sg21
I00
sg22
Nsg23
I00
sg24
S'L'
sbsg25
(irule
FeatureMatrix
p1531
(dp1532
g28
(lp1533
sg22
Nsbsg31
(irule
Guard
p1534
(dp1535
g18
I00
sg19
(lp1536
sg21
I00
sg22
Nsg23
I00
sg24
S'R'
sbsg35
(irule
FeatureMatrix
p1537
(dp1538
g28
(lp1539
(I00
g195
tp1540
a(I01
g310
tp1541
asg22
Nsbsg22
Nsba(irule
Rule
p1542
(dp1543
g15
(irule
Guard
p1544
(dp1545
g18
I00
sg19
(lp1546
sg21
I00
sg22
Nsg23
I00
sg24
S'L'
sbsg25
(irule
FeatureMatrix
p1547
(dp1548
g28
(lp1549
sg22
Nsbsg31
(irule
Guard
p1550
(dp1551
g18
I00
sg19
(lp1552
(irule
FeatureMatrix
p1553
(dp1554
g28
(lp1555
(I01
g310
tp1556
asg22
Nsbasg21
I00
sg22
Nsg23
I00
sg24
S'R'
sbsg35
(irule
FeatureMatrix
p1557
(dp1558
g28
(lp1559
sg22
Nsbsg22
Nsba(irule
Rule
p1560
(dp1561
g15
(irule
Guard
p1562
(dp1563
g18
I00
sg19
(lp1564
sg21
I00
sg22
Nsg23
I00
sg24
S'L'
sbsg25
(irule
FeatureMatrix
p1565
(dp1566
g28
(lp1567
(I00
g163
tp1568
asg22
Nsbsg31
(irule
Guard
p1569
(dp1570
g18
I00
sg19
(lp1571
sg21
I00
sg22
Nsg23
I00
sg24
S'R'
sbsg35
(irule
FeatureMatrix
p1572
(dp1573
g28
(lp1574
(I01
g310
tp1575
asg22
Nsbsg22
Nsba(irule
Rule
p1576
(dp1577
g15
(irule
Guard
p1578
(dp1579
g18
I00
sg19
(lp1580
(irule
FeatureMatrix
p1581
(dp1582
g28
(lp1583
sg22
Nsbasg21
I00
sg22
Nsg23
I00
sg24
S'L'
sbsg25
(irule
FeatureMatrix
p1584
(dp1585
g28
(lp1586
sg22
Nsbsg31
(irule
Guard
p1587
(dp1588
g18
I00
sg19
(lp1589
sg21
I00
sg22
Nsg23
I00
sg24
S'R'
sbsg35
(irule
FeatureMatrix
p1590
(dp1591
g28
(lp1592
(I00
g310
tp1593
asg22
Nsbsg22
Nsba(irule
Rule
p1594
(dp1595
g15
(irule
Guard
p1596
(dp1597
g18
I00
sg19
(lp1598
sg21
I00
sg22
Nsg23
I00
sg24
S'L'
sbsg25
(irule
FeatureMatrix
p1599
(dp1600
g28
(lp1601
(I00
g678
tp1602
asg22
Nsbsg31
(irule
Guard
p1603
(dp1604
g18
I00
sg19
(lp1605
sg21
I00
sg22
Nsg23
I00
sg24
S'R'
sbsg35
(irule
FeatureMatrix
p1606
(dp1607
g28
(lp1608
(I01
g185
tp1609
asg22
Nsbsg22
Nsba(irule
Rule
p1610
(dp1611
g15
(irule
Guard
p1612
(dp1613
g18
I00
sg19
(lp1614
(irule
FeatureMatrix
p1615
(dp1616
g28
(lp1617
(I01
g195
tp1618
asg22
Nsbasg21
I00
sg22
Nsg23
I00
sg24
S'L'
sbsg25
(irule
FeatureMatrix
p1619
(dp1620
g28
(lp1621
sg22
Nsbsg31
(irule
Guard
p1622
(dp1623
g18
I00
sg19
(lp1624
sg21
I00
sg22
Nsg23
I00
sg24
S'R'
sbsg35
(irule
FeatureMatrix
p1625
(dp1626
g28
(lp1627
sg22
Nsbsg22
Nsba(irule
Rule
p1628
(dp1629
g15
(irule
Guard
p1630
(dp1631
g18
I00
sg19
(lp1632
sg21
I00
sg22
Nsg23
I00
sg24
S'L'
sbsg25
(irule
FeatureMatrix
p1633
(dp1634
g28
(lp1635
(I00
g163
tp1636
asg22
Nsbsg31
(irule
Guard
p1637
(dp1638
g18
I01
sg19
(lp1639
sg21
I00
sg22
Nsg23
I00
sg24
S'R'
sbsg35
(irule
FeatureMatrix
p1640
(dp1641
g28
(lp1642
sg22
Nsbsg22
Nsba(irule
Rule
p1643
(dp1644
g15
(irule
Guard
p1645
(dp1646
g18
I00
sg19
(lp1647
(irule
FeatureMatrix
p1648
(dp1649
g28
(lp1650
sg22
Nsbasg21
I00
sg22
Nsg23
I00
sg24
S'L'
sbsg25
(irule
FeatureMatrix
p1651
(dp1652
g28
(lp1653
(I00
g163
tp1654
asg22
Nsbsg31
(irule
Guard
p1655
(dp1656
g18
I00
sg19
(lp1657
sg21
I00
sg22
Nsg23
I00
sg24
S'R'
sbsg35
(irule
FeatureMatrix
p1658
(dp1659
g28
(lp1660
sg22
Nsbsg22
Nsba(irule
Rule
p1661
(dp1662
g15
(irule
Guard
p1663
(dp1664
g18
I00
sg19
(lp1665
(irule
FeatureMatrix
p1666
(dp1667
g28
(lp1668
sg22
Nsbasg21
I00
sg22
Nsg23
I00
sg24
S'L'
sbsg25
(irule
FeatureMatrix
p1669
(dp1670
g28
(lp1671
sg22
Nsbsg31
(irule
Guard
p1672
(dp1673
g18
I00
sg19
(lp1674
sg21
I00
sg22
Nsg23
I00
sg24
S'R'
sbsg35
(irule
FeatureMatrix
p1675
(dp1676
g28
(lp1677
(I01
g185
tp1678
asg22
Nsbsg22
NsbaasbsS'parameters'
p1679
g6
(cargparse
Namespace
p1680
g8
NtRp1681
(dp1682
S'restore'
p1683
NsS'features'
p1684
S'sophisticated'
p1685
sS'universal'
p1686
NsS'restrict'
p1687
NsS'seed'
p1688
NsS'serial'
p1689
I00
sS'cv'
p1690
I00
sS'alignment'
p1691
I00
sS'top'
p1692
I100
sS'maximumDepth'
p1693
I3
sS'window'
p1694
NsS'minimizeBits'
p1695
I5
sS'samples'
p1696
I30
sS'save'
p1697
NsS'resume'
p1698
I00
sS'disableClean'
p1699
I00
sS'stemBaseline'
p1700
I30
sS'dummy'
p1701
I00
sS'task'
p1702
S'CEGIS'
p1703
sS'geometry'
p1704
I01
sS'verbosity'
p1705
I0
sS'noConstant'
p1706
I00
sS'timeout'
p1707
F24
sS'debug'
p1708
NsS'cores'
p1709
I40
sg112
S'Halle_127_Japanese'
p1710
sS'mergeFrontiers'
p1711
I00
sbsb.