(iresult
Result
p1
(dp2
S'startTime'
p3
F1559660904.5556209
sS'solutionSequence'
p4
(lp5
(ccopy_reg
_reconstructor
p6
(csolution
Solution
p7
c__builtin__
object
p8
NtRp9
(dp10
S'rules'
p11
(lp12
(irule
Rule
p13
(dp14
S'leftTriggers'
p15
(irule
Guard
p16
(dp17
S'endOfString'
p18
I00
sS'specifications'
p19
(lp20
(irule
FeatureMatrix
p21
(dp22
S'featuresAndPolarities'
p23
(lp24
sS'representation'
p25
V[  ]
p26
sbasS'optionalEnding'
p27
I00
sg25
g26
sS'starred'
p28
I00
sS'side'
p29
S'L'
sbsS'structuralChange'
p30
(irule
ConstantPhoneme
p31
(dp32
S'p'
Vh
sbsS'rightTriggers'
p33
(irule
Guard
p34
(dp35
g18
I00
sg19
(lp36
sg27
I00
sg25
V
sg28
I00
sg29
S'R'
sbsS'focus'
p37
(irule
ConstantPhoneme
p38
(dp39
S'p'
Vl\u0325
p40
sbsg25
Vl\u0325 ---> h / [  ] _ 
p41
sba(irule
Rule
p42
(dp43
g15
(irule
Guard
p44
(dp45
g18
I00
sg19
(lp46
(irule
ConstantPhoneme
p47
(dp48
S'p'
Vo
sbasg27
I00
sg25
Vo
sg28
I00
sg29
S'L'
sbsg30
(irule
ConstantPhoneme
p49
(dp50
S'p'
Vl
sbsg33
(irule
Guard
p51
(dp52
g18
I00
sg19
(lp53
sg27
I00
sg25
V
sg28
I00
sg29
S'R'
sbsg37
(irule
FeatureMatrix
p54
(dp55
g23
(lp56
sg25
V[  ]
p57
sbsg25
V[  ] ---> l / o _ 
p58
sba(irule
Rule
p59
(dp60
g15
(irule
Guard
p61
(dp62
g18
I00
sg19
(lp63
(irule
ConstantPhoneme
p64
(dp65
S'p'
Vl
sbasg27
I00
sg25
Vl
sg28
I00
sg29
S'L'
sbsg30
(irule
ConstantPhoneme
p66
(dp67
S'p'
V\u0294
sbsg33
(irule
Guard
p68
(dp69
g18
I00
sg19
(lp70
sg27
I00
sg25
V
sg28
I00
sg29
S'R'
sbsg37
(irule
ConstantPhoneme
p71
(dp72
S'p'
Vl`
p73
sbsg25
Vl` ---> \u0294 / l _ 
p74
sbasS'prefixes'
p75
(lp76
(imorph
Morph
p77
(dp78
S'phonemes'
p79
(lp80
sbasS'underlyingForms'
p81
(dp82
((imorph
Morph
p83
(dp84
g79
(lp85
Vp
aVa:
p86
aVl
aVh
aVa
asbtp87
(imorph
Morph
p88
(dp89
g79
(lp90
Vp
aVa:
p91
aVl
aVl\u0325
p92
aVa
asbs((imorph
Morph
p93
(dp94
g79
(lp95
Vh
aVo
aVl
aVh
asbtp96
(imorph
Morph
p97
(dp98
g79
(lp99
Vh
aVo
aVn
aVl\u0325
p100
asbs((imorph
Morph
p101
(dp102
g79
(lp103
Vh
aVo
aVl
aV\u0294
aVa:
p104
aVl`
p105
aVa
asbtp106
(imorph
Morph
p107
(dp108
g79
(lp109
Vh
aVo
aVn
aVl`
p110
aVa:
p111
aVl`
p112
aVa
asbs((imorph
Morph
p113
(dp114
g79
(lp115
Vy
aVa
aVl
aVy
aVa
aVl
aV\u0294
aVi
asbtp116
(imorph
Morph
p117
(dp118
g79
(lp119
Vy
aVa
aVl
aVy
aVa
aVl
aVl`
p120
aVi
asbs((imorph
Morph
p121
(dp122
g79
(lp123
Vh
aVo
aVl
aVl
aVi:
p124
aVn
aVa
asbtp125
(imorph
Morph
p126
(dp127
g79
(lp128
Vh
aVo
aVn
aVl
aVi:
p129
aVn
aVa
asbssS'suffixes'
p130
(lp131
(imorph
Morph
p132
(dp133
g79
(lp134
sbasbF98.879186153411865
tp135
asS'problem'
p136
S'Halle_113_Klamath'
p137
sS'finalFrontier'
p138
g6
(csolution
Frontier
p139
g8
NtRp140
(dp141
g75
g76
sg130
g131
sg81
g82
sS'frontiers'
p142
(lp143
(lp144
g13
aa(lp145
g42
aa(lp146
g59
aasbsS'parameters'
p147
g6
(cargparse
Namespace
p148
g8
NtRp149
(dp150
S'restore'
p151
NsS'features'
p152
S'none'
p153
sS'universal'
p154
NsS'restrict'
p155
NsS'seed'
p156
S'0'
sS'serial'
p157
I00
sS'alignment'
p158
I00
sS'top'
p159
I1
sS'maximumDepth'
p160
I3
sS'window'
p161
NsS'minimizeBits'
p162
I5
sS'samples'
p163
I30
sS'save'
p164
NsS'resume'
p165
I00
sS'disableClean'
p166
I01
sS'stemBaseline'
p167
I30
sS'dummy'
p168
I00
sS'task'
p169
S'incremental'
p170
sS'geometry'
p171
NsS'verbosity'
p172
I0
sS'timeout'
p173
F24
sS'debug'
p174
NsS'cores'
p175
I64
sg136
S'Halle_113_Klamath'
p176
sS'mergeFrontiers'
p177
I00
sbsb.