(iresult
Result
p1
(dp2
S'startTime'
p3
F1559660889.575202
sS'solutionSequence'
p4
(lp5
(ccopy_reg
_reconstructor
p6
(csolution
Solution
p7
c__builtin__
object
p8
NtRp9
(dp10
S'rules'
p11
(lp12
sS'prefixes'
p13
(lp14
(imorph
Morph
p15
(dp16
S'phonemes'
p17
(lp18
sbag15
ag15
ag15
asS'underlyingForms'
p19
(dp20
sS'suffixes'
p21
(lp22
(imorph
Morph
p23
(dp24
g17
(lp25
sbag23
ag23
ag23
asbF86426.236722946167
tp26
asS'problem'
p27
S'Halle_85_Turkish'
p28
sS'finalFrontier'
p29
g6
(csolution
Frontier
p30
g8
NtRp31
(dp32
g13
g14
sg21
g22
sg19
g20
sS'frontiers'
p33
(lp34
sbsS'parameters'
p35
g6
(cargparse
Namespace
p36
g8
NtRp37
(dp38
S'restore'
p39
NsS'features'
p40
S'none'
p41
sS'universal'
p42
NsS'restrict'
p43
NsS'seed'
p44
S'0'
sS'serial'
p45
I00
sS'alignment'
p46
I00
sS'top'
p47
I1
sS'maximumDepth'
p48
I3
sS'window'
p49
NsS'minimizeBits'
p50
I5
sS'samples'
p51
I30
sS'save'
p52
NsS'resume'
p53
I00
sS'disableClean'
p54
I01
sS'stemBaseline'
p55
I30
sS'dummy'
p56
I00
sS'task'
p57
S'CEGIS'
p58
sS'geometry'
p59
NsS'verbosity'
p60
I0
sS'timeout'
p61
F24
sS'debug'
p62
NsS'cores'
p63
I64
sg27
S'Halle_85_Turkish'
p64
sS'mergeFrontiers'
p65
I00
sbsb.