(iresult
Result
p1
(dp2
S'startTime'
p3
F1555426389.218255
sS'solutionSequence'
p4
(lp5
(ccopy_reg
_reconstructor
p6
(csolution
Solution
p7
c__builtin__
object
p8
NtRp9
(dp10
S'rules'
p11
(lp12
(irule
Rule
p13
(dp14
S'leftTriggers'
p15
(irule
Guard
p16
(dp17
S'endOfString'
p18
I00
sS'specifications'
p19
(lp20
sS'optionalEnding'
p21
I00
sS'representation'
p22
V
sS'starred'
p23
I00
sS'side'
p24
S'L'
sbsS'structuralChange'
p25
(irule
FeatureMatrix
p26
(dp27
S'featuresAndPolarities'
p28
(lp29
sg22
V[  ]
p30
sbsS'rightTriggers'
p31
(irule
Guard
p32
(dp33
g18
I00
sg19
(lp34
sg21
I00
sg22
V
sg23
I00
sg24
S'R'
sbsS'focus'
p35
(irule
FeatureMatrix
p36
(dp37
g28
(lp38
sg22
V[  ]
p39
sbsg22
V[  ] ---> [  ] /  _ 
p40
sbasS'prefixes'
p41
(lp42
(imorph
Morph
p43
(dp44
S'phonemes'
p45
(lp46
sba(imorph
Morph
p47
(dp48
g45
(lp49
sba(imorph
Morph
p50
(dp51
g45
(lp52
sbasS'underlyingForms'
p53
(dp54
((imorph
Morph
p55
(dp56
g45
(lp57
Vg
aVo
aVp
aVi
aVt
asb(imorph
Morph
p58
(dp59
g45
(lp60
Vg
aVo
aVp
aVh
aVi
aVn
asb(imorph
Morph
p61
(dp62
g45
(lp63
Vg
aVo
aVp
aVn
aVi
aVt
asbtp64
(imorph
Morph
p65
(dp66
g45
(lp67
Vg
aVo
aVp
asbs((imorph
Morph
p68
(dp69
g45
(lp70
Vx
aVa
aVt
aVi
aVt
asb(imorph
Morph
p71
(dp72
g45
(lp73
Vx
aVa
aVt
aVh
aVi
aVn
asb(imorph
Morph
p74
(dp75
g45
(lp76
Vx
aVa
aVt
aVn
aVi
aVt
asbtp77
(imorph
Morph
p78
(dp79
g45
(lp80
Vx
aVa
aVt
asbssS'suffixes'
p81
(lp82
(imorph
Morph
p83
(dp84
g45
(lp85
Vi
aVt
asba(imorph
Morph
p86
(dp87
g45
(lp88
Vh
aVi
aVn
asba(imorph
Morph
p89
(dp90
g45
(lp91
Vn
aVi
aVt
asbasbF40.842367887496948
tp92
a(g6
(g7
g8
NtRp93
(dp94
g11
(lp95
(irule
Rule
p96
(dp97
g15
(irule
Guard
p98
(dp99
g18
I00
sg19
(lp100
(irule
FeatureMatrix
p101
(dp102
g28
(lp103
sg22
V[  ]
p104
sba(irule
ConstantPhoneme
p105
(dp106
S'p'
Vu
sbasg21
I00
sg22
Vu [  ]*
p107
sg23
I01
sg24
S'L'
sbsg25
(irule
ConstantPhoneme
p108
(dp109
S'p'
Vu
sbsg31
(irule
Guard
p110
(dp111
g18
I00
sg19
(lp112
sg21
I00
sg22
V
sg23
I00
sg24
S'R'
sbsg35
(irule
FeatureMatrix
p113
(dp114
g28
(lp115
(I01
S'tense'
p116
tp117
asg22
V[ +tense ]
p118
sbsg22
V[ +tense ] ---> u / u [  ]* _ 
p119
sbasg41
(lp120
(imorph
Morph
p121
(dp122
g45
(lp123
sba(imorph
Morph
p124
(dp125
g45
(lp126
sba(imorph
Morph
p127
(dp128
g45
(lp129
sbasg53
(dp130
(g55
g58
g61
tp131
(imorph
Morph
p132
(dp133
g45
(lp134
Vg
aVo
aVp
asbs((imorph
Morph
p135
(dp136
g45
(lp137
Vm
aVu
aVt
aVu
aVt
asb(imorph
Morph
p138
(dp139
g45
(lp140
Vm
aVu
aVt
aVh
aVu
aVn
asb(imorph
Morph
p141
(dp142
g45
(lp143
Vm
aVu
aVt
aVn
aVu
aVt
asbtp144
(imorph
Morph
p145
(dp146
g45
(lp147
Vm
aVu
aVt
asbs(g68
g71
g74
tp148
(imorph
Morph
p149
(dp150
g45
(lp151
Vx
aVa
aVt
asbssg81
(lp152
(imorph
Morph
p153
(dp154
g45
(lp155
Vi
aVt
asba(imorph
Morph
p156
(dp157
g45
(lp158
Vh
aVi
aVn
asba(imorph
Morph
p159
(dp160
g45
(lp161
Vn
aVi
aVt
asbasbF115.86208486557007
tp162
a(g6
(g7
g8
NtRp163
(dp164
g11
(lp165
(irule
Rule
p166
(dp167
g15
(irule
Guard
p168
(dp169
g18
I00
sg19
(lp170
(irule
FeatureMatrix
p171
(dp172
g28
(lp173
sg22
V[  ]
p174
sba(irule
ConstantPhoneme
p175
(dp176
S'p'
Vu
sbasg21
I00
sg22
Vu [  ]*
p177
sg23
I01
sg24
S'L'
sbsg25
(irule
ConstantPhoneme
p178
(dp179
S'p'
Vu
sbsg31
(irule
Guard
p180
(dp181
g18
I00
sg19
(lp182
sg21
I00
sg22
V
sg23
I00
sg24
S'R'
sbsg35
(irule
ConstantPhoneme
p183
(dp184
S'p'
Vi
sbsg22
Vi ---> u / u [  ]* _ 
p185
sba(irule
Rule
p186
(dp187
g15
(irule
Guard
p188
(dp189
g18
I00
sg19
(lp190
sg21
I00
sg22
V
sg23
I00
sg24
S'L'
sbsg25
(irule
FeatureMatrix
p191
(dp192
g28
(lp193
(I00
S'long'
p194
tp195
asg22
V[ -long ]
p196
sbsg31
(irule
Guard
p197
(dp198
g18
I00
sg19
(lp199
(irule
FeatureMatrix
p200
(dp201
g28
(lp202
sg22
V[  ]
p203
sba(irule
FeatureMatrix
p204
(dp205
g28
(lp206
(I00
S'vowel'
p207
tp208
asg22
V[ -vowel ]
p209
sbasg21
I00
sg22
V[  ] [ -vowel ]
p210
sg23
I00
sg24
S'R'
sbsg35
(irule
FeatureMatrix
p211
(dp212
g28
(lp213
sg22
V[  ]
p214
sbsg22
V[  ] ---> [ -long ] /  _ [  ] [ -vowel ]
p215
sbasg41
(lp216
(imorph
Morph
p217
(dp218
g45
(lp219
sba(imorph
Morph
p220
(dp221
g45
(lp222
sba(imorph
Morph
p223
(dp224
g45
(lp225
sbasg53
(dp226
(g55
g58
g61
tp227
(imorph
Morph
p228
(dp229
g45
(lp230
Vg
aVo
aVp
asbs((imorph
Morph
p231
(dp232
g45
(lp233
Vs
aVa:
p234
aVp
aVi
aVt
asb(imorph
Morph
p235
(dp236
g45
(lp237
Vs
aVa
aVp
aVh
aVi
aVn
asb(imorph
Morph
p238
(dp239
g45
(lp240
Vs
aVa
aVp
aVn
aVi
aVt
asbtp241
(imorph
Morph
p242
(dp243
g45
(lp244
Vs
aVa:
p245
aVp
asbs(g135
g138
g141
tp246
(imorph
Morph
p247
(dp248
g45
(lp249
Vm
aVu
aVt
asbs(g68
g71
g74
tp250
(imorph
Morph
p251
(dp252
g45
(lp253
Vx
aVa
aVt
asbssg81
(lp254
(imorph
Morph
p255
(dp256
g45
(lp257
Vi
aVt
asba(imorph
Morph
p258
(dp259
g45
(lp260
Vh
aVi
aVn
asba(imorph
Morph
p261
(dp262
g45
(lp263
Vn
aVi
aVt
asbasbF1378.1460218429565
tp264
a(g6
(g7
g8
NtRp265
(dp266
g11
(lp267
(irule
Rule
p268
(dp269
g15
(irule
Guard
p270
(dp271
g18
I01
sg19
(lp272
(irule
FeatureMatrix
p273
(dp274
g28
(lp275
sg22
V[  ]
p276
sba(irule
FeatureMatrix
p277
(dp278
g28
(lp279
(I01
S'sonorant'
p280
tp281
asg22
V[ +sonorant ]
p282
sbasg21
I00
sg22
V# [ +sonorant ] [  ]*
p283
sg23
I01
sg24
S'L'
sbsg25
(irule
ConstantPhoneme
p284
(dp285
S'p'
Vu
sbsg31
(irule
Guard
p286
(dp287
g18
I00
sg19
(lp288
sg21
I00
sg22
V
sg23
I00
sg24
S'R'
sbsg35
(irule
FeatureMatrix
p289
(dp290
g28
(lp291
(I01
S'high'
p292
tp293
asg22
V[ +high ]
p294
sbsg22
V[ +high ] ---> u / # [ +sonorant ] [  ]* _ 
p295
sba(irule
Rule
p296
(dp297
g15
(irule
Guard
p298
(dp299
g18
I00
sg19
(lp300
sg21
I00
sg22
V
sg23
I00
sg24
S'L'
sbsg25
(irule
FeatureMatrix
p301
(dp302
g28
(lp303
(I00
g194
tp304
asg22
V[ -long ]
p305
sbsg31
(irule
Guard
p306
(dp307
g18
I00
sg19
(lp308
(irule
FeatureMatrix
p309
(dp310
g28
(lp311
sg22
V[  ]
p312
sba(irule
FeatureMatrix
p313
(dp314
g28
(lp315
(I00
g292
tp316
asg22
V[ -high ]
p317
sbasg21
I00
sg22
V[  ] [ -high ]
p318
sg23
I00
sg24
S'R'
sbsg35
(irule
FeatureMatrix
p319
(dp320
g28
(lp321
sg22
V[  ]
p322
sbsg22
V[  ] ---> [ -long ] /  _ [  ] [ -high ]
p323
sbasg41
(lp324
(imorph
Morph
p325
(dp326
g45
(lp327
sba(imorph
Morph
p328
(dp329
g45
(lp330
sba(imorph
Morph
p331
(dp332
g45
(lp333
sbasg53
(dp334
(g55
g58
g61
tp335
(imorph
Morph
p336
(dp337
g45
(lp338
Vg
aVo
aVp
asbs(g231
g235
g238
tp339
(imorph
Morph
p340
(dp341
g45
(lp342
Vs
ag245
aVp
asbs((imorph
Morph
p343
(dp344
g45
(lp345
V\u0294
aVo:
p346
aVt
aVu
aVt
asb(imorph
Morph
p347
(dp348
g45
(lp349
V\u0294
aVo
aVt
aVh
aVu
aVn
asb(imorph
Morph
p350
(dp351
g45
(lp352
V\u0294
aVo
aVt
aVn
aVu
aVt
asbtp353
(imorph
Morph
p354
(dp355
g45
(lp356
V\u0294
aVo:
p357
aVt
asbs(g135
g138
g141
tp358
(imorph
Morph
p359
(dp360
g45
(lp361
Vm
aVu
aVt
asbs(g68
g71
g74
tp362
(imorph
Morph
p363
(dp364
g45
(lp365
Vx
aVa
aVt
asbssg81
(lp366
(imorph
Morph
p367
(dp368
g45
(lp369
Vi
aVt
asba(imorph
Morph
p370
(dp371
g45
(lp372
Vh
aVi
aVn
asba(imorph
Morph
p373
(dp374
g45
(lp375
Vn
aVi
aVt
asbasbF2643.7951169013977
tp376
a(g6
(g7
g8
NtRp377
(dp378
g11
(lp379
(irule
Rule
p380
(dp381
g15
(irule
Guard
p382
(dp383
g18
I00
sg19
(lp384
(irule
FeatureMatrix
p385
(dp386
g28
(lp387
sg22
V[  ]
p388
sba(irule
FeatureMatrix
p389
(dp390
g28
(lp391
(I00
g280
tp392
a(I00
S'coronal'
p393
tp394
asg22
V[ -coronal -sonorant ]
p395
sbasg21
I00
sg22
V[ -coronal -sonorant ] [  ]*
p396
sg23
I01
sg24
S'L'
sbsg25
(irule
ConstantPhoneme
p397
(dp398
S'p'
Vi
sbsg31
(irule
Guard
p399
(dp400
g18
I00
sg19
(lp401
sg21
I00
sg22
V
sg23
I00
sg24
S'R'
sbsg35
(irule
ConstantPhoneme
p402
(dp403
S'p'
Vu
sbsg22
Vu ---> i / [ -coronal -sonorant ] [  ]* _ 
p404
sba(irule
Rule
p405
(dp406
g15
(irule
Guard
p407
(dp408
g18
I00
sg19
(lp409
sg21
I00
sg22
V
sg23
I00
sg24
S'L'
sbsg25
(irule
FeatureMatrix
p410
(dp411
g28
(lp412
(I00
g194
tp413
asg22
V[ -long ]
p414
sbsg31
(irule
Guard
p415
(dp416
g18
I00
sg19
(lp417
(irule
FeatureMatrix
p418
(dp419
g28
(lp420
sg22
V[  ]
p421
sba(irule
FeatureMatrix
p422
(dp423
g28
(lp424
(I00
g207
tp425
asg22
V[ -vowel ]
p426
sbasg21
I00
sg22
V[  ] [ -vowel ]
p427
sg23
I00
sg24
S'R'
sbsg35
(irule
FeatureMatrix
p428
(dp429
g28
(lp430
sg22
V[  ]
p431
sbsg22
V[  ] ---> [ -long ] /  _ [  ] [ -vowel ]
p432
sbasg41
(lp433
(imorph
Morph
p434
(dp435
g45
(lp436
sba(imorph
Morph
p437
(dp438
g45
(lp439
sba(imorph
Morph
p440
(dp441
g45
(lp442
sbasg53
(dp443
((imorph
Morph
(dp444
g45
(lp445
V\u0294
aVo
aVp
aVo:
p446
aVt
aVi
aVt
asb(imorph
Morph
(dp447
g45
(lp448
V\u0294
aVo
aVp
aVo
aVt
aVh
aVi
aVn
asb(imorph
Morph
(dp449
g45
(lp450
V\u0294
aVo
aVp
aVo
aVt
aVn
aVi
aVt
asbtp451
(imorph
Morph
p452
(dp453
g45
(lp454
V\u0294
aVo
aVp
ag357
aVt
asbs(g55
g58
g61
tp455
(imorph
Morph
p456
(dp457
g45
(lp458
Vg
aVo
aVp
asbs((imorph
Morph
(dp459
g45
(lp460
Vg
aVo:
p461
aVb
aVi
aVt
asb(imorph
Morph
(dp462
g45
(lp463
Vg
aVo
aVb
aVh
aVi
aVn
asb(imorph
Morph
(dp464
g45
(lp465
Vg
aVo
aVb
aVn
aVi
aVt
asbtp466
(imorph
Morph
p467
(dp468
g45
(lp469
Vg
ag357
aVb
asbs((imorph
Morph
(dp470
g45
(lp471
Vh
aVi
aVb
aVe:
p472
aVy
aVi
aVt
asb(imorph
Morph
(dp473
g45
(lp474
Vh
aVi
aVb
aVe
aVy
aVh
aVi
aVn
asb(imorph
Morph
(dp475
g45
(lp476
Vh
aVi
aVb
aVe
aVy
aVn
aVi
aVt
asbtp477
(imorph
Morph
p478
(dp479
g45
(lp480
Vh
aVi
aVb
aVe:
p481
aVy
asbs(g68
g71
g74
tp482
(imorph
Morph
p483
(dp484
g45
(lp485
Vx
aVa
aVt
asbs((imorph
Morph
(dp486
g45
(lp487
Vg
aVi
aVy
aVi
aVt
asb(imorph
Morph
(dp488
g45
(lp489
Vg
aVi
aVy
aVh
aVi
aVn
asb(imorph
Morph
(dp490
g45
(lp491
Vg
aVi
aVy
aVn
aVi
aVt
asbtp492
(imorph
Morph
p493
(dp494
g45
(lp495
Vg
aVu
aVy
asbs((imorph
Morph
(dp496
g45
(lp497
Vp
aVa
aVx
aVa:
p498
aVt
aVi
aVt
asb(imorph
Morph
(dp499
g45
(lp500
Vp
aVa
aVx
aVa
aVt
aVh
aVi
aVn
asb(imorph
Morph
(dp501
g45
(lp502
Vp
aVa
aVx
aVa
aVt
aVn
aVi
aVt
asbtp503
(imorph
Morph
p504
(dp505
g45
(lp506
Vp
aVa
aVx
ag245
aVt
asbs((imorph
Morph
p507
(dp508
g45
(lp509
Vm
aVe:
p510
aVk
aVi
aVt
asb(imorph
Morph
p511
(dp512
g45
(lp513
Vm
aVe
aVk
aVh
aVi
aVn
asb(imorph
Morph
p514
(dp515
g45
(lp516
Vm
aVe
aVk
aVn
aVi
aVt
asbtp517
(imorph
Morph
p518
(dp519
g45
(lp520
Vm
ag481
aVk
asbs(g135
g138
g141
tp521
(imorph
Morph
p522
(dp523
g45
(lp524
Vm
aVu
aVt
asbs(g231
g235
g238
tp525
(imorph
Morph
p526
(dp527
g45
(lp528
Vs
ag245
aVp
asbs(g343
g347
g350
tp529
(imorph
Morph
p530
(dp531
g45
(lp532
V\u0294
ag357
aVt
asbssg81
(lp533
(imorph
Morph
p534
(dp535
g45
(lp536
Vu
aVt
asba(imorph
Morph
p537
(dp538
g45
(lp539
Vh
aVu
aVn
asba(imorph
Morph
p540
(dp541
g45
(lp542
Vn
aVu
aVt
asbasbF4032.8453469276428
tp543
asS'problem'
p544
S'Halle_153_Yokuts'
p545
sS'finalFrontier'
p546
g6
(csolution
Frontier
p547
g8
NtRp548
(dp549
g41
g433
sg81
g533
sg53
g443
sS'frontiers'
p550
(lp551
(lp552
(irule
Rule
p553
(dp554
g15
(irule
Guard
p555
(dp556
g18
I00
sg19
(lp557
(irule
FeatureMatrix
p558
(dp559
g28
(lp560
sg22
V[  ]
p561
sba(irule
FeatureMatrix
p562
(dp563
g28
(lp564
(I00
S'sonorant'
tp565
a(I00
S'coronal'
tp566
asg22
V[ -coronal -sonorant ]
p567
sbasg21
I00
sg22
V[ -coronal -sonorant ] [  ]*
p568
sg23
I01
sg24
S'L'
sbsg25
(irule
ConstantPhoneme
p569
(dp570
S'p'
Vi
sbsg31
(irule
Guard
p571
(dp572
g18
I00
sg19
(lp573
sg21
I00
sg22
V
sg23
I00
sg24
S'R'
sbsg35
(irule
ConstantPhoneme
p574
(dp575
S'p'
Vu
sbsg22
Vu ---> i / [ -coronal -sonorant ] [  ]* _ 
p576
sba(irule
Rule
p577
(dp578
g15
(irule
Guard
p579
(dp580
g18
I00
sg19
(lp581
(irule
FeatureMatrix
p582
(dp583
g28
(lp584
sg22
Nsba(irule
FeatureMatrix
p585
(dp586
g28
(lp587
(I00
S'sonorant'
p588
tp589
a(I00
S'coronal'
p590
tp591
asg22
Nsbasg21
I00
sg22
Nsg23
I01
sg24
S'L'
sbsg25
(irule
ConstantPhoneme
p592
(dp593
S'p'
Vi
sbsg31
(irule
Guard
p594
(dp595
g18
I00
sg19
(lp596
(irule
FeatureMatrix
p597
(dp598
g28
(lp599
sg22
Nsbasg21
I00
sg22
Nsg23
I00
sg24
S'R'
sbsg35
(irule
ConstantPhoneme
p600
(dp601
S'p'
Vu
sbsg22
Nsba(irule
Rule
p602
(dp603
g15
(irule
Guard
p604
(dp605
g18
I00
sg19
(lp606
(irule
FeatureMatrix
p607
(dp608
g28
(lp609
(I00
S'sibilant'
p610
tp611
asg22
Nsba(irule
FeatureMatrix
p612
(dp613
g28
(lp614
(I00
g588
tp615
a(I00
g590
tp616
asg22
Nsbasg21
I00
sg22
Nsg23
I01
sg24
S'L'
sbsg25
(irule
ConstantPhoneme
p617
(dp618
S'p'
Vi
sbsg31
(irule
Guard
p619
(dp620
g18
I00
sg19
(lp621
sg21
I00
sg22
Nsg23
I00
sg24
S'R'
sbsg35
(irule
ConstantPhoneme
p622
(dp623
S'p'
Vu
sbsg22
Nsba(irule
Rule
p624
(dp625
g15
(irule
Guard
p626
(dp627
g18
I00
sg19
(lp628
(irule
FeatureMatrix
p629
(dp630
g28
(lp631
sg22
Nsba(irule
FeatureMatrix
p632
(dp633
g28
(lp634
(I00
g588
tp635
a(I00
g590
tp636
a(I00
g610
tp637
asg22
Nsbasg21
I00
sg22
Nsg23
I01
sg24
S'L'
sbsg25
(irule
ConstantPhoneme
p638
(dp639
S'p'
Vi
sbsg31
(irule
Guard
p640
(dp641
g18
I00
sg19
(lp642
sg21
I00
sg22
Nsg23
I00
sg24
S'R'
sbsg35
(irule
ConstantPhoneme
p643
(dp644
S'p'
Vu
sbsg22
Nsba(irule
Rule
p645
(dp646
g15
(irule
Guard
p647
(dp648
g18
I00
sg19
(lp649
(irule
FeatureMatrix
p650
(dp651
g28
(lp652
sg22
Nsba(irule
FeatureMatrix
p653
(dp654
g28
(lp655
(I00
g588
tp656
a(I00
S'palletized'
p657
tp658
a(I00
g590
tp659
asg22
Nsbasg21
I00
sg22
Nsg23
I01
sg24
S'L'
sbsg25
(irule
ConstantPhoneme
p660
(dp661
S'p'
Vi
sbsg31
(irule
Guard
p662
(dp663
g18
I00
sg19
(lp664
sg21
I00
sg22
Nsg23
I00
sg24
S'R'
sbsg35
(irule
ConstantPhoneme
p665
(dp666
S'p'
Vu
sbsg22
Nsba(irule
Rule
p667
(dp668
g15
(irule
Guard
p669
(dp670
g18
I00
sg19
(lp671
(irule
FeatureMatrix
p672
(dp673
g28
(lp674
sg22
Nsba(irule
FeatureMatrix
p675
(dp676
g28
(lp677
(I00
S'long'
p678
tp679
a(I00
g588
tp680
a(I00
g590
tp681
asg22
Nsbasg21
I00
sg22
Nsg23
I01
sg24
S'L'
sbsg25
(irule
ConstantPhoneme
p682
(dp683
S'p'
Vi
sbsg31
(irule
Guard
p684
(dp685
g18
I00
sg19
(lp686
sg21
I00
sg22
Nsg23
I00
sg24
S'R'
sbsg35
(irule
ConstantPhoneme
p687
(dp688
S'p'
Vu
sbsg22
Nsba(irule
Rule
p689
(dp690
g15
(irule
Guard
p691
(dp692
g18
I00
sg19
(lp693
(irule
FeatureMatrix
p694
(dp695
g28
(lp696
sg22
Nsba(irule
FeatureMatrix
p697
(dp698
g28
(lp699
(I00
g588
tp700
a(I00
g590
tp701
a(I00
S'low'
p702
tp703
asg22
Nsbasg21
I00
sg22
Nsg23
I01
sg24
S'L'
sbsg25
(irule
ConstantPhoneme
p704
(dp705
S'p'
Vi
sbsg31
(irule
Guard
p706
(dp707
g18
I00
sg19
(lp708
sg21
I00
sg22
Nsg23
I00
sg24
S'R'
sbsg35
(irule
ConstantPhoneme
p709
(dp710
S'p'
Vu
sbsg22
Nsba(irule
Rule
p711
(dp712
g15
(irule
Guard
p713
(dp714
g18
I00
sg19
(lp715
(irule
FeatureMatrix
p716
(dp717
g28
(lp718
sg22
Nsba(irule
FeatureMatrix
p719
(dp720
g28
(lp721
(I00
g588
tp722
a(I00
g590
tp723
a(I00
S'tense'
p724
tp725
asg22
Nsbasg21
I00
sg22
Nsg23
I01
sg24
S'L'
sbsg25
(irule
ConstantPhoneme
p726
(dp727
S'p'
Vi
sbsg31
(irule
Guard
p728
(dp729
g18
I00
sg19
(lp730
sg21
I00
sg22
Nsg23
I00
sg24
S'R'
sbsg35
(irule
ConstantPhoneme
p731
(dp732
S'p'
Vu
sbsg22
Nsba(irule
Rule
p733
(dp734
g15
(irule
Guard
p735
(dp736
g18
I00
sg19
(lp737
(irule
FeatureMatrix
p738
(dp739
g28
(lp740
sg22
Nsba(irule
FeatureMatrix
p741
(dp742
g28
(lp743
(I00
g588
tp744
a(I00
g590
tp745
a(I00
S'vowel'
p746
tp747
asg22
Nsbasg21
I00
sg22
Nsg23
I01
sg24
S'L'
sbsg25
(irule
ConstantPhoneme
p748
(dp749
S'p'
Vi
sbsg31
(irule
Guard
p750
(dp751
g18
I00
sg19
(lp752
sg21
I00
sg22
Nsg23
I00
sg24
S'R'
sbsg35
(irule
ConstantPhoneme
p753
(dp754
S'p'
Vu
sbsg22
Nsba(irule
Rule
p755
(dp756
g15
(irule
Guard
p757
(dp758
g18
I00
sg19
(lp759
(irule
FeatureMatrix
p760
(dp761
g28
(lp762
sg22
Nsba(irule
FeatureMatrix
p763
(dp764
g28
(lp765
(I00
S'nasal'
p766
tp767
a(I00
g588
tp768
a(I00
g590
tp769
asg22
Nsbasg21
I00
sg22
Nsg23
I01
sg24
S'L'
sbsg25
(irule
ConstantPhoneme
p770
(dp771
S'p'
Vi
sbsg31
(irule
Guard
p772
(dp773
g18
I00
sg19
(lp774
sg21
I00
sg22
Nsg23
I00
sg24
S'R'
sbsg35
(irule
ConstantPhoneme
p775
(dp776
S'p'
Vu
sbsg22
Nsba(irule
Rule
p777
(dp778
g15
(irule
Guard
p779
(dp780
g18
I00
sg19
(lp781
(irule
FeatureMatrix
p782
(dp783
g28
(lp784
sg22
Nsba(irule
FeatureMatrix
p785
(dp786
g28
(lp787
(I00
S'glide'
p788
tp789
a(I00
g588
tp790
a(I00
g590
tp791
asg22
Nsbasg21
I00
sg22
Nsg23
I01
sg24
S'L'
sbsg25
(irule
ConstantPhoneme
p792
(dp793
S'p'
Vi
sbsg31
(irule
Guard
p794
(dp795
g18
I00
sg19
(lp796
sg21
I00
sg22
Nsg23
I00
sg24
S'R'
sbsg35
(irule
ConstantPhoneme
p797
(dp798
S'p'
Vu
sbsg22
Nsba(irule
Rule
p799
(dp800
g15
(irule
Guard
p801
(dp802
g18
I00
sg19
(lp803
(irule
FeatureMatrix
p804
(dp805
g28
(lp806
sg22
Nsba(irule
FeatureMatrix
p807
(dp808
g28
(lp809
(I00
S'rounded'
p810
tp811
a(I00
g588
tp812
a(I00
g590
tp813
asg22
Nsbasg21
I00
sg22
Nsg23
I01
sg24
S'L'
sbsg25
(irule
ConstantPhoneme
p814
(dp815
S'p'
Vi
sbsg31
(irule
Guard
p816
(dp817
g18
I00
sg19
(lp818
sg21
I00
sg22
Nsg23
I00
sg24
S'R'
sbsg35
(irule
ConstantPhoneme
p819
(dp820
S'p'
Vu
sbsg22
Nsba(irule
Rule
p821
(dp822
g15
(irule
Guard
p823
(dp824
g18
I00
sg19
(lp825
(irule
FeatureMatrix
p826
(dp827
g28
(lp828
sg22
Nsba(irule
FeatureMatrix
p829
(dp830
g28
(lp831
(I00
g588
tp832
a(I00
g590
tp833
asg22
Nsbasg21
I00
sg22
Nsg23
I01
sg24
S'L'
sbsg25
(irule
ConstantPhoneme
p834
(dp835
S'p'
Vi
sbsg31
(irule
Guard
p836
(dp837
g18
I00
sg19
(lp838
sg21
I00
sg22
Nsg23
I00
sg24
S'R'
sbsg35
(irule
FeatureMatrix
p839
(dp840
g28
(lp841
(I01
g810
tp842
a(I00
g702
tp843
asg22
Nsbsg22
Nsba(irule
Rule
p844
(dp845
g15
(irule
Guard
p846
(dp847
g18
I00
sg19
(lp848
(irule
FeatureMatrix
p849
(dp850
g28
(lp851
sg22
Nsba(irule
FeatureMatrix
p852
(dp853
g28
(lp854
(I00
g588
tp855
a(I00
g590
tp856
asg22
Nsbasg21
I00
sg22
Nsg23
I01
sg24
S'L'
sbsg25
(irule
FeatureMatrix
p857
(dp858
g28
(lp859
(I00
g810
tp860
a(I00
S'back'
p861
tp862
asg22
Nsbsg31
(irule
Guard
p863
(dp864
g18
I00
sg19
(lp865
sg21
I00
sg22
Nsg23
I00
sg24
S'R'
sbsg35
(irule
ConstantPhoneme
p866
(dp867
S'p'
Vu
sbsg22
Nsba(irule
Rule
p868
(dp869
g15
(irule
Guard
p870
(dp871
g18
I00
sg19
(lp872
(irule
FeatureMatrix
p873
(dp874
g28
(lp875
sg22
Nsba(irule
FeatureMatrix
p876
(dp877
g28
(lp878
(I00
g588
tp879
a(I00
g590
tp880
asg22
Nsbasg21
I00
sg22
Nsg23
I01
sg24
S'L'
sbsg25
(irule
ConstantPhoneme
p881
(dp882
S'p'
Vi
sbsg31
(irule
Guard
p883
(dp884
g18
I00
sg19
(lp885
sg21
I00
sg22
Nsg23
I00
sg24
S'R'
sbsg35
(irule
FeatureMatrix
p886
(dp887
g28
(lp888
(I01
S'high'
p889
tp890
a(I01
S'voice'
p891
tp892
asg22
Nsbsg22
Nsba(irule
Rule
p893
(dp894
g15
(irule
Guard
p895
(dp896
g18
I00
sg19
(lp897
(irule
FeatureMatrix
p898
(dp899
g28
(lp900
sg22
Nsba(irule
FeatureMatrix
p901
(dp902
g28
(lp903
(I00
g588
tp904
a(I00
g590
tp905
asg22
Nsbasg21
I00
sg22
Nsg23
I01
sg24
S'L'
sbsg25
(irule
ConstantPhoneme
p906
(dp907
S'p'
Vi
sbsg31
(irule
Guard
p908
(dp909
g18
I00
sg19
(lp910
sg21
I00
sg22
Nsg23
I00
sg24
S'R'
sbsg35
(irule
FeatureMatrix
p911
(dp912
g28
(lp913
(I01
g889
tp914
a(I01
g746
tp915
asg22
Nsbsg22
Nsba(irule
Rule
p916
(dp917
g15
(irule
Guard
p918
(dp919
g18
I00
sg19
(lp920
(irule
FeatureMatrix
p921
(dp922
g28
(lp923
sg22
Nsba(irule
FeatureMatrix
p924
(dp925
g28
(lp926
(I00
g588
tp927
a(I00
g590
tp928
asg22
Nsbasg21
I00
sg22
Nsg23
I01
sg24
S'L'
sbsg25
(irule
ConstantPhoneme
p929
(dp930
S'p'
Vi
sbsg31
(irule
Guard
p931
(dp932
g18
I00
sg19
(lp933
sg21
I00
sg22
Nsg23
I00
sg24
S'R'
sbsg35
(irule
FeatureMatrix
p934
(dp935
g28
(lp936
(I01
g889
tp937
a(I01
g724
tp938
asg22
Nsbsg22
Nsba(irule
Rule
p939
(dp940
g15
(irule
Guard
p941
(dp942
g18
I00
sg19
(lp943
(irule
FeatureMatrix
p944
(dp945
g28
(lp946
sg22
Nsba(irule
FeatureMatrix
p947
(dp948
g28
(lp949
(I00
g588
tp950
a(I00
g590
tp951
asg22
Nsbasg21
I00
sg22
Nsg23
I01
sg24
S'L'
sbsg25
(irule
ConstantPhoneme
p952
(dp953
S'p'
Vi
sbsg31
(irule
Guard
p954
(dp955
g18
I00
sg19
(lp956
sg21
I00
sg22
Nsg23
I00
sg24
S'R'
sbsg35
(irule
FeatureMatrix
p957
(dp958
g28
(lp959
(I01
g588
tp960
a(I01
g889
tp961
asg22
Nsbsg22
Nsba(irule
Rule
p962
(dp963
g15
(irule
Guard
p964
(dp965
g18
I00
sg19
(lp966
(irule
FeatureMatrix
p967
(dp968
g28
(lp969
sg22
Nsba(irule
FeatureMatrix
p970
(dp971
g28
(lp972
(I00
g588
tp973
a(I00
g590
tp974
asg22
Nsbasg21
I00
sg22
Nsg23
I01
sg24
S'L'
sbsg25
(irule
ConstantPhoneme
p975
(dp976
S'p'
Vi
sbsg31
(irule
Guard
p977
(dp978
g18
I00
sg19
(lp979
sg21
I00
sg22
Nsg23
I00
sg24
S'R'
sbsg35
(irule
FeatureMatrix
p980
(dp981
g28
(lp982
(I01
g810
tp983
a(I01
g889
tp984
asg22
Nsbsg22
Nsba(irule
Rule
p985
(dp986
g15
(irule
Guard
p987
(dp988
g18
I00
sg19
(lp989
(irule
FeatureMatrix
p990
(dp991
g28
(lp992
sg22
Nsba(irule
FeatureMatrix
p993
(dp994
g28
(lp995
(I00
g588
tp996
a(I00
g590
tp997
asg22
Nsbasg21
I00
sg22
Nsg23
I01
sg24
S'L'
sbsg25
(irule
FeatureMatrix
p998
(dp999
g28
(lp1000
(I00
g810
tp1001
a(I00
g861
tp1002
asg22
Nsbsg31
(irule
Guard
p1003
(dp1004
g18
I00
sg19
(lp1005
(irule
FeatureMatrix
p1006
(dp1007
g28
(lp1008
sg22
Nsbasg21
I00
sg22
Nsg23
I00
sg24
S'R'
sbsg35
(irule
ConstantPhoneme
p1009
(dp1010
S'p'
Vu
sbsg22
Nsba(irule
Rule
p1011
(dp1012
g15
(irule
Guard
p1013
(dp1014
g18
I00
sg19
(lp1015
(irule
FeatureMatrix
p1016
(dp1017
g28
(lp1018
sg22
Nsba(irule
FeatureMatrix
p1019
(dp1020
g28
(lp1021
(I00
g766
tp1022
a(I00
g588
tp1023
a(I00
g590
tp1024
asg22
Nsbasg21
I00
sg22
Nsg23
I01
sg24
S'L'
sbsg25
(irule
FeatureMatrix
p1025
(dp1026
g28
(lp1027
(I00
g810
tp1028
a(I00
g861
tp1029
asg22
Nsbsg31
(irule
Guard
p1030
(dp1031
g18
I00
sg19
(lp1032
sg21
I00
sg22
Nsg23
I00
sg24
S'R'
sbsg35
(irule
ConstantPhoneme
p1033
(dp1034
S'p'
Vu
sbsg22
Nsba(irule
Rule
p1035
(dp1036
g15
(irule
Guard
p1037
(dp1038
g18
I00
sg19
(lp1039
(irule
FeatureMatrix
p1040
(dp1041
g28
(lp1042
sg22
Nsba(irule
FeatureMatrix
p1043
(dp1044
g28
(lp1045
(I00
g588
tp1046
a(I00
g590
tp1047
asg22
Nsbasg21
I00
sg22
Nsg23
I01
sg24
S'L'
sbsg25
(irule
ConstantPhoneme
p1048
(dp1049
S'p'
Vi
sbsg31
(irule
Guard
p1050
(dp1051
g18
I00
sg19
(lp1052
(irule
FeatureMatrix
p1053
(dp1054
g28
(lp1055
(I00
g702
tp1056
asg22
Nsbasg21
I00
sg22
Nsg23
I00
sg24
S'R'
sbsg35
(irule
FeatureMatrix
p1057
(dp1058
g28
(lp1059
(I01
g889
tp1060
asg22
Nsbsg22
Nsba(irule
Rule
p1061
(dp1062
g15
(irule
Guard
p1063
(dp1064
g18
I00
sg19
(lp1065
(irule
FeatureMatrix
p1066
(dp1067
g28
(lp1068
sg22
Nsba(irule
FeatureMatrix
p1069
(dp1070
g28
(lp1071
(I00
g588
tp1072
a(I00
g590
tp1073
asg22
Nsbasg21
I00
sg22
Nsg23
I01
sg24
S'L'
sbsg25
(irule
ConstantPhoneme
p1074
(dp1075
S'p'
Vi
sbsg31
(irule
Guard
p1076
(dp1077
g18
I00
sg19
(lp1078
(irule
FeatureMatrix
p1079
(dp1080
g28
(lp1081
(I00
g678
tp1082
asg22
Nsbasg21
I00
sg22
Nsg23
I00
sg24
S'R'
sbsg35
(irule
FeatureMatrix
p1083
(dp1084
g28
(lp1085
(I01
g889
tp1086
asg22
Nsbsg22
Nsba(irule
Rule
p1087
(dp1088
g15
(irule
Guard
p1089
(dp1090
g18
I00
sg19
(lp1091
(irule
FeatureMatrix
p1092
(dp1093
g28
(lp1094
sg22
Nsba(irule
FeatureMatrix
p1095
(dp1096
g28
(lp1097
(I00
g588
tp1098
a(I00
g590
tp1099
a(I00
g702
tp1100
asg22
Nsbasg21
I00
sg22
Nsg23
I01
sg24
S'L'
sbsg25
(irule
ConstantPhoneme
p1101
(dp1102
S'p'
Vi
sbsg31
(irule
Guard
p1103
(dp1104
g18
I00
sg19
(lp1105
(irule
FeatureMatrix
p1106
(dp1107
g28
(lp1108
sg22
Nsbasg21
I00
sg22
Nsg23
I00
sg24
S'R'
sbsg35
(irule
ConstantPhoneme
p1109
(dp1110
S'p'
Vu
sbsg22
Nsba(irule
Rule
p1111
(dp1112
g15
(irule
Guard
p1113
(dp1114
g18
I00
sg19
(lp1115
(irule
FeatureMatrix
p1116
(dp1117
g28
(lp1118
sg22
Nsba(irule
FeatureMatrix
p1119
(dp1120
g28
(lp1121
(I00
g588
tp1122
a(I00
g590
tp1123
asg22
Nsbasg21
I00
sg22
Nsg23
I01
sg24
S'L'
sbsg25
(irule
FeatureMatrix
p1124
(dp1125
g28
(lp1126
(I00
g810
tp1127
a(I00
g861
tp1128
asg22
Nsbsg31
(irule
Guard
p1129
(dp1130
g18
I00
sg19
(lp1131
sg21
I00
sg22
Nsg23
I00
sg24
S'R'
sbsg35
(irule
FeatureMatrix
p1132
(dp1133
g28
(lp1134
(I01
g588
tp1135
a(I00
g702
tp1136
asg22
Nsbsg22
Nsba(irule
Rule
p1137
(dp1138
g15
(irule
Guard
p1139
(dp1140
g18
I00
sg19
(lp1141
(irule
FeatureMatrix
p1142
(dp1143
g28
(lp1144
sg22
Nsba(irule
FeatureMatrix
p1145
(dp1146
g28
(lp1147
(I00
g588
tp1148
a(I00
g590
tp1149
a(I00
g746
tp1150
asg22
Nsbasg21
I00
sg22
Nsg23
I01
sg24
S'L'
sbsg25
(irule
ConstantPhoneme
p1151
(dp1152
S'p'
Vi
sbsg31
(irule
Guard
p1153
(dp1154
g18
I00
sg19
(lp1155
(irule
FeatureMatrix
p1156
(dp1157
g28
(lp1158
sg22
Nsbasg21
I00
sg22
Nsg23
I00
sg24
S'R'
sbsg35
(irule
ConstantPhoneme
p1159
(dp1160
S'p'
Vu
sbsg22
Nsba(irule
Rule
p1161
(dp1162
g15
(irule
Guard
p1163
(dp1164
g18
I00
sg19
(lp1165
(irule
FeatureMatrix
p1166
(dp1167
g28
(lp1168
sg22
Nsba(irule
FeatureMatrix
p1169
(dp1170
g28
(lp1171
(I00
g588
tp1172
a(I00
g590
tp1173
asg22
Nsbasg21
I00
sg22
Nsg23
I01
sg24
S'L'
sbsg25
(irule
FeatureMatrix
p1174
(dp1175
g28
(lp1176
(I00
g810
tp1177
a(I00
g861
tp1178
asg22
Nsbsg31
(irule
Guard
p1179
(dp1180
g18
I00
sg19
(lp1181
sg21
I00
sg22
Nsg23
I00
sg24
S'R'
sbsg35
(irule
FeatureMatrix
p1182
(dp1183
g28
(lp1184
(I01
g810
tp1185
a(I00
g702
tp1186
asg22
Nsbsg22
Nsba(irule
Rule
p1187
(dp1188
g15
(irule
Guard
p1189
(dp1190
g18
I00
sg19
(lp1191
(irule
FeatureMatrix
p1192
(dp1193
g28
(lp1194
sg22
Nsba(irule
FeatureMatrix
p1195
(dp1196
g28
(lp1197
(I00
g588
tp1198
a(I00
g590
tp1199
asg22
Nsbasg21
I00
sg22
Nsg23
I01
sg24
S'L'
sbsg25
(irule
FeatureMatrix
p1200
(dp1201
g28
(lp1202
(I00
S'anterior'
p1203
tp1204
a(I00
g810
tp1205
a(I00
g861
tp1206
asg22
Nsbsg31
(irule
Guard
p1207
(dp1208
g18
I00
sg19
(lp1209
sg21
I00
sg22
Nsg23
I00
sg24
S'R'
sbsg35
(irule
ConstantPhoneme
p1210
(dp1211
S'p'
Vu
sbsg22
Nsba(irule
Rule
p1212
(dp1213
g15
(irule
Guard
p1214
(dp1215
g18
I00
sg19
(lp1216
(irule
FeatureMatrix
p1217
(dp1218
g28
(lp1219
sg22
Nsba(irule
FeatureMatrix
p1220
(dp1221
g28
(lp1222
(I00
g588
tp1223
a(I00
g590
tp1224
asg22
Nsbasg21
I00
sg22
Nsg23
I01
sg24
S'L'
sbsg25
(irule
ConstantPhoneme
p1225
(dp1226
S'p'
Vi
sbsg31
(irule
Guard
p1227
(dp1228
g18
I00
sg19
(lp1229
(irule
FeatureMatrix
p1230
(dp1231
g28
(lp1232
(I00
g861
tp1233
asg22
Nsbasg21
I00
sg22
Nsg23
I00
sg24
S'R'
sbsg35
(irule
FeatureMatrix
p1234
(dp1235
g28
(lp1236
(I01
g889
tp1237
asg22
Nsbsg22
Nsba(irule
Rule
p1238
(dp1239
g15
(irule
Guard
p1240
(dp1241
g18
I00
sg19
(lp1242
(irule
FeatureMatrix
p1243
(dp1244
g28
(lp1245
sg22
Nsba(irule
FeatureMatrix
p1246
(dp1247
g28
(lp1248
(I00
g588
tp1249
a(I00
g590
tp1250
asg22
Nsbasg21
I00
sg22
Nsg23
I01
sg24
S'L'
sbsg25
(irule
FeatureMatrix
p1251
(dp1252
g28
(lp1253
(I00
g810
tp1254
a(I00
g861
tp1255
asg22
Nsbsg31
(irule
Guard
p1256
(dp1257
g18
I00
sg19
(lp1258
sg21
I00
sg22
Nsg23
I00
sg24
S'R'
sbsg35
(irule
FeatureMatrix
p1259
(dp1260
g28
(lp1261
(I00
g702
tp1262
a(I01
g891
tp1263
asg22
Nsbsg22
Nsba(irule
Rule
p1264
(dp1265
g15
(irule
Guard
p1266
(dp1267
g18
I00
sg19
(lp1268
(irule
FeatureMatrix
p1269
(dp1270
g28
(lp1271
sg22
Nsba(irule
FeatureMatrix
p1272
(dp1273
g28
(lp1274
(I00
g678
tp1275
a(I00
g588
tp1276
a(I00
g590
tp1277
asg22
Nsbasg21
I00
sg22
Nsg23
I01
sg24
S'L'
sbsg25
(irule
FeatureMatrix
p1278
(dp1279
g28
(lp1280
(I00
g810
tp1281
a(I00
g861
tp1282
asg22
Nsbsg31
(irule
Guard
p1283
(dp1284
g18
I00
sg19
(lp1285
sg21
I00
sg22
Nsg23
I00
sg24
S'R'
sbsg35
(irule
ConstantPhoneme
p1286
(dp1287
S'p'
Vu
sbsg22
Nsba(irule
Rule
p1288
(dp1289
g15
(irule
Guard
p1290
(dp1291
g18
I00
sg19
(lp1292
(irule
FeatureMatrix
p1293
(dp1294
g28
(lp1295
sg22
Nsba(irule
FeatureMatrix
p1296
(dp1297
g28
(lp1298
(I00
g588
tp1299
a(I00
g590
tp1300
a(I00
g702
tp1301
asg22
Nsbasg21
I00
sg22
Nsg23
I01
sg24
S'L'
sbsg25
(irule
FeatureMatrix
p1302
(dp1303
g28
(lp1304
(I00
g810
tp1305
a(I00
g861
tp1306
asg22
Nsbsg31
(irule
Guard
p1307
(dp1308
g18
I00
sg19
(lp1309
sg21
I00
sg22
Nsg23
I00
sg24
S'R'
sbsg35
(irule
ConstantPhoneme
p1310
(dp1311
S'p'
Vu
sbsg22
Nsba(irule
Rule
p1312
(dp1313
g15
(irule
Guard
p1314
(dp1315
g18
I00
sg19
(lp1316
(irule
FeatureMatrix
p1317
(dp1318
g28
(lp1319
sg22
Nsba(irule
FeatureMatrix
p1320
(dp1321
g28
(lp1322
(I00
g588
tp1323
a(I00
g590
tp1324
asg22
Nsbasg21
I00
sg22
Nsg23
I01
sg24
S'L'
sbsg25
(irule
FeatureMatrix
p1325
(dp1326
g28
(lp1327
(I00
g810
tp1328
a(I00
g861
tp1329
asg22
Nsbsg31
(irule
Guard
p1330
(dp1331
g18
I00
sg19
(lp1332
sg21
I00
sg22
Nsg23
I00
sg24
S'R'
sbsg35
(irule
FeatureMatrix
p1333
(dp1334
g28
(lp1335
(I00
g702
tp1336
a(I01
g746
tp1337
asg22
Nsbsg22
Nsba(irule
Rule
p1338
(dp1339
g15
(irule
Guard
p1340
(dp1341
g18
I00
sg19
(lp1342
(irule
FeatureMatrix
p1343
(dp1344
g28
(lp1345
sg22
Nsba(irule
FeatureMatrix
p1346
(dp1347
g28
(lp1348
(I00
g588
tp1349
a(I00
g590
tp1350
asg22
Nsbasg21
I00
sg22
Nsg23
I01
sg24
S'L'
sbsg25
(irule
FeatureMatrix
p1351
(dp1352
g28
(lp1353
(I00
g810
tp1354
a(I00
g861
tp1355
asg22
Nsbsg31
(irule
Guard
p1356
(dp1357
g18
I00
sg19
(lp1358
sg21
I00
sg22
Nsg23
I00
sg24
S'R'
sbsg35
(irule
FeatureMatrix
p1359
(dp1360
g28
(lp1361
(I01
g724
tp1362
a(I00
g702
tp1363
asg22
Nsbsg22
Nsba(irule
Rule
p1364
(dp1365
g15
(irule
Guard
p1366
(dp1367
g18
I00
sg19
(lp1368
(irule
FeatureMatrix
p1369
(dp1370
g28
(lp1371
(I00
g610
tp1372
asg22
Nsba(irule
FeatureMatrix
p1373
(dp1374
g28
(lp1375
(I00
g588
tp1376
a(I00
g590
tp1377
asg22
Nsbasg21
I00
sg22
Nsg23
I01
sg24
S'L'
sbsg25
(irule
ConstantPhoneme
p1378
(dp1379
S'p'
Vi
sbsg31
(irule
Guard
p1380
(dp1381
g18
I00
sg19
(lp1382
(irule
FeatureMatrix
p1383
(dp1384
g28
(lp1385
sg22
Nsbasg21
I00
sg22
Nsg23
I00
sg24
S'R'
sbsg35
(irule
ConstantPhoneme
p1386
(dp1387
S'p'
Vu
sbsg22
Nsba(irule
Rule
p1388
(dp1389
g15
(irule
Guard
p1390
(dp1391
g18
I00
sg19
(lp1392
(irule
FeatureMatrix
p1393
(dp1394
g28
(lp1395
sg22
Nsba(irule
FeatureMatrix
p1396
(dp1397
g28
(lp1398
(I00
g588
tp1399
a(I00
g590
tp1400
asg22
Nsbasg21
I00
sg22
Nsg23
I01
sg24
S'L'
sbsg25
(irule
ConstantPhoneme
p1401
(dp1402
S'p'
Vi
sbsg31
(irule
Guard
p1403
(dp1404
g18
I00
sg19
(lp1405
(irule
FeatureMatrix
p1406
(dp1407
g28
(lp1408
sg22
Nsbasg21
I00
sg22
Nsg23
I00
sg24
S'R'
sbsg35
(irule
FeatureMatrix
p1409
(dp1410
g28
(lp1411
(I01
g810
tp1412
a(I00
g702
tp1413
asg22
Nsbsg22
Nsba(irule
Rule
p1414
(dp1415
g15
(irule
Guard
p1416
(dp1417
g18
I00
sg19
(lp1418
(irule
FeatureMatrix
p1419
(dp1420
g28
(lp1421
sg22
Nsba(irule
FeatureMatrix
p1422
(dp1423
g28
(lp1424
(I00
g588
tp1425
a(I00
g590
tp1426
asg22
Nsbasg21
I00
sg22
Nsg23
I01
sg24
S'L'
sbsg25
(irule
FeatureMatrix
p1427
(dp1428
g28
(lp1429
(I00
g810
tp1430
a(I00
g861
tp1431
asg22
Nsbsg31
(irule
Guard
p1432
(dp1433
g18
I00
sg19
(lp1434
sg21
I00
sg22
Nsg23
I00
sg24
S'R'
sbsg35
(irule
FeatureMatrix
p1435
(dp1436
g28
(lp1437
(I01
g889
tp1438
a(I01
g891
tp1439
asg22
Nsbsg22
Nsba(irule
Rule
p1440
(dp1441
g15
(irule
Guard
p1442
(dp1443
g18
I00
sg19
(lp1444
(irule
FeatureMatrix
p1445
(dp1446
g28
(lp1447
sg22
Nsba(irule
FeatureMatrix
p1448
(dp1449
g28
(lp1450
(I00
g810
tp1451
a(I00
g588
tp1452
a(I00
g590
tp1453
asg22
Nsbasg21
I00
sg22
Nsg23
I01
sg24
S'L'
sbsg25
(irule
FeatureMatrix
p1454
(dp1455
g28
(lp1456
(I00
g810
tp1457
a(I00
g861
tp1458
asg22
Nsbsg31
(irule
Guard
p1459
(dp1460
g18
I00
sg19
(lp1461
sg21
I00
sg22
Nsg23
I00
sg24
S'R'
sbsg35
(irule
ConstantPhoneme
p1462
(dp1463
S'p'
Vu
sbsg22
Nsba(irule
Rule
p1464
(dp1465
g15
(irule
Guard
p1466
(dp1467
g18
I00
sg19
(lp1468
(irule
FeatureMatrix
p1469
(dp1470
g28
(lp1471
sg22
Nsba(irule
FeatureMatrix
p1472
(dp1473
g28
(lp1474
(I00
g588
tp1475
a(I00
g590
tp1476
a(I00
g702
tp1477
asg22
Nsbasg21
I00
sg22
Nsg23
I01
sg24
S'L'
sbsg25
(irule
ConstantPhoneme
p1478
(dp1479
S'p'
Vi
sbsg31
(irule
Guard
p1480
(dp1481
g18
I00
sg19
(lp1482
sg21
I00
sg22
Nsg23
I00
sg24
S'R'
sbsg35
(irule
FeatureMatrix
p1483
(dp1484
g28
(lp1485
(I01
g810
tp1486
a(I00
g702
tp1487
asg22
Nsbsg22
Nsba(irule
Rule
p1488
(dp1489
g15
(irule
Guard
p1490
(dp1491
g18
I00
sg19
(lp1492
(irule
FeatureMatrix
p1493
(dp1494
g28
(lp1495
sg22
Nsba(irule
FeatureMatrix
p1496
(dp1497
g28
(lp1498
(I00
g588
tp1499
a(I00
g590
tp1500
asg22
Nsbasg21
I00
sg22
Nsg23
I01
sg24
S'L'
sbsg25
(irule
ConstantPhoneme
p1501
(dp1502
S'p'
Vi
sbsg31
(irule
Guard
p1503
(dp1504
g18
I00
sg19
(lp1505
(irule
FeatureMatrix
p1506
(dp1507
g28
(lp1508
(I00
g724
tp1509
asg22
Nsbasg21
I00
sg22
Nsg23
I00
sg24
S'R'
sbsg35
(irule
FeatureMatrix
p1510
(dp1511
g28
(lp1512
(I01
g889
tp1513
asg22
Nsbsg22
Nsba(irule
Rule
p1514
(dp1515
g15
(irule
Guard
p1516
(dp1517
g18
I00
sg19
(lp1518
(irule
FeatureMatrix
p1519
(dp1520
g28
(lp1521
sg22
Nsba(irule
FeatureMatrix
p1522
(dp1523
g28
(lp1524
(I00
g588
tp1525
a(I00
g590
tp1526
asg22
Nsbasg21
I00
sg22
Nsg23
I01
sg24
S'L'
sbsg25
(irule
ConstantPhoneme
p1527
(dp1528
S'p'
Vi
sbsg31
(irule
Guard
p1529
(dp1530
g18
I00
sg19
(lp1531
(irule
FeatureMatrix
p1532
(dp1533
g28
(lp1534
(I00
g746
tp1535
asg22
Nsbasg21
I00
sg22
Nsg23
I00
sg24
S'R'
sbsg35
(irule
FeatureMatrix
p1536
(dp1537
g28
(lp1538
(I01
g889
tp1539
asg22
Nsbsg22
Nsba(irule
Rule
p1540
(dp1541
g15
(irule
Guard
p1542
(dp1543
g18
I00
sg19
(lp1544
(irule
FeatureMatrix
p1545
(dp1546
g28
(lp1547
sg22
Nsba(irule
FeatureMatrix
p1548
(dp1549
g28
(lp1550
(I00
g588
tp1551
a(I00
g590
tp1552
asg22
Nsbasg21
I00
sg22
Nsg23
I01
sg24
S'L'
sbsg25
(irule
ConstantPhoneme
p1553
(dp1554
S'p'
Vi
sbsg31
(irule
Guard
p1555
(dp1556
g18
I00
sg19
(lp1557
(irule
FeatureMatrix
p1558
(dp1559
g28
(lp1560
sg22
Nsbasg21
I00
sg22
Nsg23
I00
sg24
S'R'
sbsg35
(irule
FeatureMatrix
p1561
(dp1562
g28
(lp1563
(I01
g889
tp1564
a(I01
g891
tp1565
asg22
Nsbsg22
Nsba(irule
Rule
p1566
(dp1567
g15
(irule
Guard
p1568
(dp1569
g18
I00
sg19
(lp1570
(irule
FeatureMatrix
p1571
(dp1572
g28
(lp1573
sg22
Nsba(irule
FeatureMatrix
p1574
(dp1575
g28
(lp1576
(I00
g588
tp1577
a(I00
g590
tp1578
asg22
Nsbasg21
I00
sg22
Nsg23
I01
sg24
S'L'
sbsg25
(irule
FeatureMatrix
p1579
(dp1580
g28
(lp1581
(I00
g678
tp1582
a(I00
g810
tp1583
a(I00
g861
tp1584
asg22
Nsbsg31
(irule
Guard
p1585
(dp1586
g18
I00
sg19
(lp1587
sg21
I00
sg22
Nsg23
I00
sg24
S'R'
sbsg35
(irule
ConstantPhoneme
p1588
(dp1589
S'p'
Vu
sbsg22
Nsba(irule
Rule
p1590
(dp1591
g15
(irule
Guard
p1592
(dp1593
g18
I00
sg19
(lp1594
(irule
FeatureMatrix
p1595
(dp1596
g28
(lp1597
sg22
Nsba(irule
FeatureMatrix
p1598
(dp1599
g28
(lp1600
(I00
g588
tp1601
a(I00
g590
tp1602
asg22
Nsbasg21
I00
sg22
Nsg23
I01
sg24
S'L'
sbsg25
(irule
FeatureMatrix
p1603
(dp1604
g28
(lp1605
(I00
g810
tp1606
a(I00
g861
tp1607
a(I01
g889
tp1608
asg22
Nsbsg31
(irule
Guard
p1609
(dp1610
g18
I00
sg19
(lp1611
sg21
I00
sg22
Nsg23
I00
sg24
S'R'
sbsg35
(irule
ConstantPhoneme
p1612
(dp1613
S'p'
Vu
sbsg22
Nsba(irule
Rule
p1614
(dp1615
g15
(irule
Guard
p1616
(dp1617
g18
I00
sg19
(lp1618
(irule
FeatureMatrix
p1619
(dp1620
g28
(lp1621
sg22
Nsba(irule
FeatureMatrix
p1622
(dp1623
g28
(lp1624
(I00
g588
tp1625
a(I00
g590
tp1626
asg22
Nsbasg21
I00
sg22
Nsg23
I01
sg24
S'L'
sbsg25
(irule
ConstantPhoneme
p1627
(dp1628
S'p'
Vi
sbsg31
(irule
Guard
p1629
(dp1630
g18
I00
sg19
(lp1631
(irule
FeatureMatrix
p1632
(dp1633
g28
(lp1634
sg22
Nsbasg21
I00
sg22
Nsg23
I00
sg24
S'R'
sbsg35
(irule
FeatureMatrix
p1635
(dp1636
g28
(lp1637
(I01
g810
tp1638
a(I01
g889
tp1639
asg22
Nsbsg22
Nsba(irule
Rule
p1640
(dp1641
g15
(irule
Guard
p1642
(dp1643
g18
I00
sg19
(lp1644
(irule
FeatureMatrix
p1645
(dp1646
g28
(lp1647
sg22
Nsba(irule
FeatureMatrix
p1648
(dp1649
g28
(lp1650
(I00
g588
tp1651
a(I00
g590
tp1652
asg22
Nsbasg21
I00
sg22
Nsg23
I01
sg24
S'L'
sbsg25
(irule
FeatureMatrix
p1653
(dp1654
g28
(lp1655
(I00
g810
tp1656
a(I00
g861
tp1657
asg22
Nsbsg31
(irule
Guard
p1658
(dp1659
g18
I00
sg19
(lp1660
sg21
I00
sg22
Nsg23
I00
sg24
S'R'
sbsg35
(irule
FeatureMatrix
p1661
(dp1662
g28
(lp1663
(I01
g810
tp1664
a(I01
g889
tp1665
asg22
Nsbsg22
Nsba(irule
Rule
p1666
(dp1667
g15
(irule
Guard
p1668
(dp1669
g18
I00
sg19
(lp1670
(irule
FeatureMatrix
p1671
(dp1672
g28
(lp1673
sg22
Nsba(irule
FeatureMatrix
p1674
(dp1675
g28
(lp1676
(I00
g588
tp1677
a(I00
g590
tp1678
asg22
Nsbasg21
I00
sg22
Nsg23
I01
sg24
S'L'
sbsg25
(irule
ConstantPhoneme
p1679
(dp1680
S'p'
Vi
sbsg31
(irule
Guard
p1681
(dp1682
g18
I00
sg19
(lp1683
(irule
FeatureMatrix
p1684
(dp1685
g28
(lp1686
sg22
Nsbasg21
I00
sg22
Nsg23
I00
sg24
S'R'
sbsg35
(irule
FeatureMatrix
p1687
(dp1688
g28
(lp1689
(I01
g588
tp1690
a(I01
g889
tp1691
asg22
Nsbsg22
Nsba(irule
Rule
p1692
(dp1693
g15
(irule
Guard
p1694
(dp1695
g18
I00
sg19
(lp1696
(irule
FeatureMatrix
p1697
(dp1698
g28
(lp1699
sg22
Nsba(irule
FeatureMatrix
p1700
(dp1701
g28
(lp1702
(I00
g588
tp1703
a(I00
g590
tp1704
asg22
Nsbasg21
I00
sg22
Nsg23
I01
sg24
S'L'
sbsg25
(irule
FeatureMatrix
p1705
(dp1706
g28
(lp1707
(I00
g810
tp1708
a(I00
g861
tp1709
asg22
Nsbsg31
(irule
Guard
p1710
(dp1711
g18
I00
sg19
(lp1712
sg21
I00
sg22
Nsg23
I00
sg24
S'R'
sbsg35
(irule
FeatureMatrix
p1713
(dp1714
g28
(lp1715
(I01
g889
tp1716
a(I01
g724
tp1717
asg22
Nsbsg22
Nsba(irule
Rule
p1718
(dp1719
g15
(irule
Guard
p1720
(dp1721
g18
I00
sg19
(lp1722
(irule
FeatureMatrix
p1723
(dp1724
g28
(lp1725
sg22
Nsba(irule
FeatureMatrix
p1726
(dp1727
g28
(lp1728
(I00
g766
tp1729
a(I00
g588
tp1730
a(I00
g590
tp1731
asg22
Nsbasg21
I00
sg22
Nsg23
I01
sg24
S'L'
sbsg25
(irule
ConstantPhoneme
p1732
(dp1733
S'p'
Vi
sbsg31
(irule
Guard
p1734
(dp1735
g18
I00
sg19
(lp1736
(irule
FeatureMatrix
p1737
(dp1738
g28
(lp1739
sg22
Nsbasg21
I00
sg22
Nsg23
I00
sg24
S'R'
sbsg35
(irule
ConstantPhoneme
p1740
(dp1741
S'p'
Vu
sbsg22
Nsba(irule
Rule
p1742
(dp1743
g15
(irule
Guard
p1744
(dp1745
g18
I00
sg19
(lp1746
(irule
FeatureMatrix
p1747
(dp1748
g28
(lp1749
sg22
Nsba(irule
FeatureMatrix
p1750
(dp1751
g28
(lp1752
(I00
g588
tp1753
a(I00
g590
tp1754
asg22
Nsbasg21
I00
sg22
Nsg23
I01
sg24
S'L'
sbsg25
(irule
ConstantPhoneme
p1755
(dp1756
S'p'
Vi
sbsg31
(irule
Guard
p1757
(dp1758
g18
I00
sg19
(lp1759
(irule
FeatureMatrix
p1760
(dp1761
g28
(lp1762
(I00
g810
tp1763
asg22
Nsbasg21
I00
sg22
Nsg23
I00
sg24
S'R'
sbsg35
(irule
ConstantPhoneme
p1764
(dp1765
S'p'
Vu
sbsg22
Nsba(irule
Rule
p1766
(dp1767
g15
(irule
Guard
p1768
(dp1769
g18
I00
sg19
(lp1770
(irule
FeatureMatrix
p1771
(dp1772
g28
(lp1773
sg22
Nsba(irule
FeatureMatrix
p1774
(dp1775
g28
(lp1776
(I00
g588
tp1777
a(I00
g590
tp1778
asg22
Nsbasg21
I00
sg22
Nsg23
I01
sg24
S'L'
sbsg25
(irule
ConstantPhoneme
p1779
(dp1780
S'p'
Vi
sbsg31
(irule
Guard
p1781
(dp1782
g18
I00
sg19
(lp1783
(irule
FeatureMatrix
p1784
(dp1785
g28
(lp1786
(I00
g678
tp1787
asg22
Nsbasg21
I00
sg22
Nsg23
I00
sg24
S'R'
sbsg35
(irule
ConstantPhoneme
p1788
(dp1789
S'p'
Vu
sbsg22
Nsba(irule
Rule
p1790
(dp1791
g15
(irule
Guard
p1792
(dp1793
g18
I00
sg19
(lp1794
(irule
FeatureMatrix
p1795
(dp1796
g28
(lp1797
sg22
Nsba(irule
FeatureMatrix
p1798
(dp1799
g28
(lp1800
(I00
g588
tp1801
a(I00
g590
tp1802
asg22
Nsbasg21
I00
sg22
Nsg23
I01
sg24
S'L'
sbsg25
(irule
FeatureMatrix
p1803
(dp1804
g28
(lp1805
(I00
g810
tp1806
a(I00
g788
tp1807
a(I00
g861
tp1808
asg22
Nsbsg31
(irule
Guard
p1809
(dp1810
g18
I00
sg19
(lp1811
sg21
I00
sg22
Nsg23
I00
sg24
S'R'
sbsg35
(irule
ConstantPhoneme
p1812
(dp1813
S'p'
Vu
sbsg22
Nsba(irule
Rule
p1814
(dp1815
g15
(irule
Guard
p1816
(dp1817
g18
I00
sg19
(lp1818
(irule
FeatureMatrix
p1819
(dp1820
g28
(lp1821
sg22
Nsba(irule
FeatureMatrix
p1822
(dp1823
g28
(lp1824
(I00
g588
tp1825
a(I00
g590
tp1826
asg22
Nsbasg21
I00
sg22
Nsg23
I01
sg24
S'L'
sbsg25
(irule
ConstantPhoneme
p1827
(dp1828
S'p'
Vi
sbsg31
(irule
Guard
p1829
(dp1830
g18
I00
sg19
(lp1831
(irule
FeatureMatrix
p1832
(dp1833
g28
(lp1834
sg22
Nsbasg21
I00
sg22
Nsg23
I00
sg24
S'R'
sbsg35
(irule
FeatureMatrix
p1835
(dp1836
g28
(lp1837
(I01
g889
tp1838
a(I01
g724
tp1839
asg22
Nsbsg22
Nsba(irule
Rule
p1840
(dp1841
g15
(irule
Guard
p1842
(dp1843
g18
I00
sg19
(lp1844
(irule
FeatureMatrix
p1845
(dp1846
g28
(lp1847
sg22
Nsba(irule
FeatureMatrix
p1848
(dp1849
g28
(lp1850
(I00
g788
tp1851
a(I00
g588
tp1852
a(I00
g590
tp1853
asg22
Nsbasg21
I00
sg22
Nsg23
I01
sg24
S'L'
sbsg25
(irule
FeatureMatrix
p1854
(dp1855
g28
(lp1856
(I00
g810
tp1857
a(I00
g861
tp1858
asg22
Nsbsg31
(irule
Guard
p1859
(dp1860
g18
I00
sg19
(lp1861
sg21
I00
sg22
Nsg23
I00
sg24
S'R'
sbsg35
(irule
ConstantPhoneme
p1862
(dp1863
S'p'
Vu
sbsg22
Nsba(irule
Rule
p1864
(dp1865
g15
(irule
Guard
p1866
(dp1867
g18
I00
sg19
(lp1868
(irule
FeatureMatrix
p1869
(dp1870
g28
(lp1871
sg22
Nsba(irule
FeatureMatrix
p1872
(dp1873
g28
(lp1874
(I00
g588
tp1875
a(I00
g590
tp1876
asg22
Nsbasg21
I00
sg22
Nsg23
I01
sg24
S'L'
sbsg25
(irule
FeatureMatrix
p1877
(dp1878
g28
(lp1879
(I00
g810
tp1880
a(I00
g861
tp1881
asg22
Nsbsg31
(irule
Guard
p1882
(dp1883
g18
I00
sg19
(lp1884
sg21
I00
sg22
Nsg23
I00
sg24
S'R'
sbsg35
(irule
FeatureMatrix
p1885
(dp1886
g28
(lp1887
(I01
g889
tp1888
a(I01
g746
tp1889
asg22
Nsbsg22
Nsba(irule
Rule
p1890
(dp1891
g15
(irule
Guard
p1892
(dp1893
g18
I00
sg19
(lp1894
(irule
FeatureMatrix
p1895
(dp1896
g28
(lp1897
(I00
g610
tp1898
asg22
Nsba(irule
FeatureMatrix
p1899
(dp1900
g28
(lp1901
(I00
g588
tp1902
a(I00
g590
tp1903
asg22
Nsbasg21
I00
sg22
Nsg23
I01
sg24
S'L'
sbsg25
(irule
FeatureMatrix
p1904
(dp1905
g28
(lp1906
(I00
g810
tp1907
a(I00
g861
tp1908
asg22
Nsbsg31
(irule
Guard
p1909
(dp1910
g18
I00
sg19
(lp1911
sg21
I00
sg22
Nsg23
I00
sg24
S'R'
sbsg35
(irule
ConstantPhoneme
p1912
(dp1913
S'p'
Vu
sbsg22
Nsba(irule
Rule
p1914
(dp1915
g15
(irule
Guard
p1916
(dp1917
g18
I00
sg19
(lp1918
(irule
FeatureMatrix
p1919
(dp1920
g28
(lp1921
sg22
Nsba(irule
FeatureMatrix
p1922
(dp1923
g28
(lp1924
(I00
g588
tp1925
a(I00
g590
tp1926
asg22
Nsbasg21
I00
sg22
Nsg23
I01
sg24
S'L'
sbsg25
(irule
ConstantPhoneme
p1927
(dp1928
S'p'
Vi
sbsg31
(irule
Guard
p1929
(dp1930
g18
I00
sg19
(lp1931
(irule
FeatureMatrix
p1932
(dp1933
g28
(lp1934
sg22
Nsbasg21
I00
sg22
Nsg23
I00
sg24
S'R'
sbsg35
(irule
FeatureMatrix
p1935
(dp1936
g28
(lp1937
(I01
g889
tp1938
a(I01
g746
tp1939
asg22
Nsbsg22
Nsba(irule
Rule
p1940
(dp1941
g15
(irule
Guard
p1942
(dp1943
g18
I00
sg19
(lp1944
(irule
FeatureMatrix
p1945
(dp1946
g28
(lp1947
sg22
Nsba(irule
FeatureMatrix
p1948
(dp1949
g28
(lp1950
(I00
g588
tp1951
a(I00
g590
tp1952
asg22
Nsbasg21
I00
sg22
Nsg23
I01
sg24
S'L'
sbsg25
(irule
FeatureMatrix
p1953
(dp1954
g28
(lp1955
(I00
g810
tp1956
a(I00
g861
tp1957
asg22
Nsbsg31
(irule
Guard
p1958
(dp1959
g18
I00
sg19
(lp1960
sg21
I00
sg22
Nsg23
I00
sg24
S'R'
sbsg35
(irule
FeatureMatrix
p1961
(dp1962
g28
(lp1963
(I01
g588
tp1964
a(I01
g889
tp1965
asg22
Nsbsg22
Nsba(irule
Rule
p1966
(dp1967
g15
(irule
Guard
p1968
(dp1969
g18
I00
sg19
(lp1970
(irule
FeatureMatrix
p1971
(dp1972
g28
(lp1973
sg22
Nsba(irule
FeatureMatrix
p1974
(dp1975
g28
(lp1976
(I00
g588
tp1977
a(I00
g590
tp1978
asg22
Nsbasg21
I00
sg22
Nsg23
I01
sg24
S'L'
sbsg25
(irule
ConstantPhoneme
p1979
(dp1980
S'p'
Vi
sbsg31
(irule
Guard
p1981
(dp1982
g18
I00
sg19
(lp1983
(irule
FeatureMatrix
p1984
(dp1985
g28
(lp1986
(I00
g861
tp1987
asg22
Nsbasg21
I00
sg22
Nsg23
I00
sg24
S'R'
sbsg35
(irule
ConstantPhoneme
p1988
(dp1989
S'p'
Vu
sbsg22
Nsba(irule
Rule
p1990
(dp1991
g15
(irule
Guard
p1992
(dp1993
g18
I00
sg19
(lp1994
(irule
FeatureMatrix
p1995
(dp1996
g28
(lp1997
sg22
Nsba(irule
FeatureMatrix
p1998
(dp1999
g28
(lp2000
(I00
g588
tp2001
a(I00
g590
tp2002
asg22
Nsbasg21
I00
sg22
Nsg23
I01
sg24
S'L'
sbsg25
(irule
ConstantPhoneme
p2003
(dp2004
S'p'
Vi
sbsg31
(irule
Guard
p2005
(dp2006
g18
I00
sg19
(lp2007
sg21
I00
sg22
Nsg23
I00
sg24
S'R'
sbsg35
(irule
FeatureMatrix
p2008
(dp2009
g28
(lp2010
(I01
g861
tp2011
a(I00
g702
tp2012
a(I01
g891
tp2013
asg22
Nsbsg22
Nsba(irule
Rule
p2014
(dp2015
g15
(irule
Guard
p2016
(dp2017
g18
I00
sg19
(lp2018
(irule
FeatureMatrix
p2019
(dp2020
g28
(lp2021
sg22
Nsba(irule
FeatureMatrix
p2022
(dp2023
g28
(lp2024
(I00
g588
tp2025
a(I00
g590
tp2026
a(I00
g702
tp2027
asg22
Nsbasg21
I00
sg22
Nsg23
I01
sg24
S'L'
sbsg25
(irule
ConstantPhoneme
p2028
(dp2029
S'p'
Vi
sbsg31
(irule
Guard
p2030
(dp2031
g18
I00
sg19
(lp2032
sg21
I00
sg22
Nsg23
I00
sg24
S'R'
sbsg35
(irule
FeatureMatrix
p2033
(dp2034
g28
(lp2035
(I01
g588
tp2036
a(I01
g889
tp2037
asg22
Nsbsg22
Nsba(irule
Rule
p2038
(dp2039
g15
(irule
Guard
p2040
(dp2041
g18
I00
sg19
(lp2042
(irule
FeatureMatrix
p2043
(dp2044
g28
(lp2045
sg22
Nsba(irule
FeatureMatrix
p2046
(dp2047
g28
(lp2048
(I00
g588
tp2049
a(I00
g590
tp2050
asg22
Nsbasg21
I00
sg22
Nsg23
I01
sg24
S'L'
sbsg25
(irule
FeatureMatrix
p2051
(dp2052
g28
(lp2053
(I00
g810
tp2054
a(I01
S'continuant'
tp2055
a(I00
g861
tp2056
asg22
Nsbsg31
(irule
Guard
p2057
(dp2058
g18
I00
sg19
(lp2059
sg21
I00
sg22
Nsg23
I00
sg24
S'R'
sbsg35
(irule
ConstantPhoneme
p2060
(dp2061
S'p'
Vu
sbsg22
Nsba(irule
Rule
p2062
(dp2063
g15
(irule
Guard
p2064
(dp2065
g18
I00
sg19
(lp2066
(irule
FeatureMatrix
p2067
(dp2068
g28
(lp2069
sg22
Nsba(irule
FeatureMatrix
p2070
(dp2071
g28
(lp2072
(I00
g678
tp2073
a(I00
g588
tp2074
a(I00
g590
tp2075
asg22
Nsbasg21
I00
sg22
Nsg23
I01
sg24
S'L'
sbsg25
(irule
ConstantPhoneme
p2076
(dp2077
S'p'
Vi
sbsg31
(irule
Guard
p2078
(dp2079
g18
I00
sg19
(lp2080
(irule
FeatureMatrix
p2081
(dp2082
g28
(lp2083
sg22
Nsbasg21
I00
sg22
Nsg23
I00
sg24
S'R'
sbsg35
(irule
ConstantPhoneme
p2084
(dp2085
S'p'
Vu
sbsg22
Nsba(irule
Rule
p2086
(dp2087
g15
(irule
Guard
p2088
(dp2089
g18
I00
sg19
(lp2090
(irule
FeatureMatrix
p2091
(dp2092
g28
(lp2093
(I00
g610
tp2094
asg22
Nsba(irule
FeatureMatrix
p2095
(dp2096
g28
(lp2097
(I00
g588
tp2098
a(I00
g590
tp2099
asg22
Nsbasg21
I00
sg22
Nsg23
I01
sg24
S'L'
sbsg25
(irule
ConstantPhoneme
p2100
(dp2101
S'p'
Vi
sbsg31
(irule
Guard
p2102
(dp2103
g18
I00
sg19
(lp2104
sg21
I00
sg22
Nsg23
I00
sg24
S'R'
sbsg35
(irule
FeatureMatrix
p2105
(dp2106
g28
(lp2107
(I01
g810
tp2108
a(I00
g702
tp2109
asg22
Nsbsg22
Nsba(irule
Rule
p2110
(dp2111
g15
(irule
Guard
p2112
(dp2113
g18
I00
sg19
(lp2114
(irule
FeatureMatrix
p2115
(dp2116
g28
(lp2117
sg22
Nsba(irule
FeatureMatrix
p2118
(dp2119
g28
(lp2120
(I00
g588
tp2121
a(I00
g590
tp2122
asg22
Nsbasg21
I00
sg22
Nsg23
I01
sg24
S'L'
sbsg25
(irule
ConstantPhoneme
p2123
(dp2124
S'p'
Vi
sbsg31
(irule
Guard
p2125
(dp2126
g18
I00
sg19
(lp2127
(irule
FeatureMatrix
p2128
(dp2129
g28
(lp2130
(I00
g702
tp2131
asg22
Nsbasg21
I00
sg22
Nsg23
I00
sg24
S'R'
sbsg35
(irule
ConstantPhoneme
p2132
(dp2133
S'p'
Vu
sbsg22
Nsba(irule
Rule
p2134
(dp2135
g15
(irule
Guard
p2136
(dp2137
g18
I00
sg19
(lp2138
(irule
FeatureMatrix
p2139
(dp2140
g28
(lp2141
sg22
Nsba(irule
FeatureMatrix
p2142
(dp2143
g28
(lp2144
(I00
g810
tp2145
a(I00
g588
tp2146
a(I00
g590
tp2147
asg22
Nsbasg21
I00
sg22
Nsg23
I01
sg24
S'L'
sbsg25
(irule
ConstantPhoneme
p2148
(dp2149
S'p'
Vi
sbsg31
(irule
Guard
p2150
(dp2151
g18
I00
sg19
(lp2152
(irule
FeatureMatrix
p2153
(dp2154
g28
(lp2155
sg22
Nsbasg21
I00
sg22
Nsg23
I00
sg24
S'R'
sbsg35
(irule
ConstantPhoneme
p2156
(dp2157
S'p'
Vu
sbsg22
Nsba(irule
Rule
p2158
(dp2159
g15
(irule
Guard
p2160
(dp2161
g18
I00
sg19
(lp2162
(irule
FeatureMatrix
p2163
(dp2164
g28
(lp2165
sg22
Nsba(irule
FeatureMatrix
p2166
(dp2167
g28
(lp2168
(I00
g588
tp2169
a(I00
g657
tp2170
a(I00
g590
tp2171
asg22
Nsbasg21
I00
sg22
Nsg23
I01
sg24
S'L'
sbsg25
(irule
FeatureMatrix
p2172
(dp2173
g28
(lp2174
(I00
g810
tp2175
a(I00
g861
tp2176
asg22
Nsbsg31
(irule
Guard
p2177
(dp2178
g18
I00
sg19
(lp2179
sg21
I00
sg22
Nsg23
I00
sg24
S'R'
sbsg35
(irule
ConstantPhoneme
p2180
(dp2181
S'p'
Vu
sbsg22
Nsba(irule
Rule
p2182
(dp2183
g15
(irule
Guard
p2184
(dp2185
g18
I00
sg19
(lp2186
(irule
FeatureMatrix
p2187
(dp2188
g28
(lp2189
sg22
Nsba(irule
FeatureMatrix
p2190
(dp2191
g28
(lp2192
(I00
g588
tp2193
a(I00
g590
tp2194
a(I00
g746
tp2195
asg22
Nsbasg21
I00
sg22
Nsg23
I01
sg24
S'L'
sbsg25
(irule
FeatureMatrix
p2196
(dp2197
g28
(lp2198
(I00
g810
tp2199
a(I00
g861
tp2200
asg22
Nsbsg31
(irule
Guard
p2201
(dp2202
g18
I00
sg19
(lp2203
sg21
I00
sg22
Nsg23
I00
sg24
S'R'
sbsg35
(irule
ConstantPhoneme
p2204
(dp2205
S'p'
Vu
sbsg22
Nsba(irule
Rule
p2206
(dp2207
g15
(irule
Guard
p2208
(dp2209
g18
I00
sg19
(lp2210
(irule
FeatureMatrix
p2211
(dp2212
g28
(lp2213
sg22
Nsba(irule
FeatureMatrix
p2214
(dp2215
g28
(lp2216
(I00
g588
tp2217
a(I00
g590
tp2218
a(I00
g724
tp2219
asg22
Nsbasg21
I00
sg22
Nsg23
I01
sg24
S'L'
sbsg25
(irule
FeatureMatrix
p2220
(dp2221
g28
(lp2222
(I00
g810
tp2223
a(I00
g861
tp2224
asg22
Nsbsg31
(irule
Guard
p2225
(dp2226
g18
I00
sg19
(lp2227
sg21
I00
sg22
Nsg23
I00
sg24
S'R'
sbsg35
(irule
ConstantPhoneme
p2228
(dp2229
S'p'
Vu
sbsg22
Nsba(irule
Rule
p2230
(dp2231
g15
(irule
Guard
p2232
(dp2233
g18
I00
sg19
(lp2234
(irule
FeatureMatrix
p2235
(dp2236
g28
(lp2237
sg22
Nsba(irule
FeatureMatrix
p2238
(dp2239
g28
(lp2240
(I00
g588
tp2241
a(I00
g590
tp2242
asg22
Nsbasg21
I00
sg22
Nsg23
I01
sg24
S'L'
sbsg25
(irule
ConstantPhoneme
p2243
(dp2244
S'p'
Vi
sbsg31
(irule
Guard
p2245
(dp2246
g18
I00
sg19
(lp2247
(irule
FeatureMatrix
p2248
(dp2249
g28
(lp2250
(I00
g889
tp2251
asg22
Nsbasg21
I00
sg22
Nsg23
I00
sg24
S'R'
sbsg35
(irule
ConstantPhoneme
p2252
(dp2253
S'p'
Vu
sbsg22
Nsba(irule
Rule
p2254
(dp2255
g15
(irule
Guard
p2256
(dp2257
g18
I00
sg19
(lp2258
(irule
FeatureMatrix
p2259
(dp2260
g28
(lp2261
sg22
Nsba(irule
FeatureMatrix
p2262
(dp2263
g28
(lp2264
(I00
g588
tp2265
a(I00
g590
tp2266
a(I00
g610
tp2267
asg22
Nsbasg21
I00
sg22
Nsg23
I01
sg24
S'L'
sbsg25
(irule
FeatureMatrix
p2268
(dp2269
g28
(lp2270
(I00
g810
tp2271
a(I00
g861
tp2272
asg22
Nsbsg31
(irule
Guard
p2273
(dp2274
g18
I00
sg19
(lp2275
sg21
I00
sg22
Nsg23
I00
sg24
S'R'
sbsg35
(irule
ConstantPhoneme
p2276
(dp2277
S'p'
Vu
sbsg22
Nsba(irule
Rule
p2278
(dp2279
g15
(irule
Guard
p2280
(dp2281
g18
I00
sg19
(lp2282
(irule
FeatureMatrix
p2283
(dp2284
g28
(lp2285
sg22
Nsba(irule
FeatureMatrix
p2286
(dp2287
g28
(lp2288
(I00
g588
tp2289
a(I00
g590
tp2290
asg22
Nsbasg21
I00
sg22
Nsg23
I01
sg24
S'L'
sbsg25
(irule
ConstantPhoneme
p2291
(dp2292
S'p'
Vi
sbsg31
(irule
Guard
p2293
(dp2294
g18
I00
sg19
(lp2295
(irule
FeatureMatrix
p2296
(dp2297
g28
(lp2298
(I00
g724
tp2299
asg22
Nsbasg21
I00
sg22
Nsg23
I00
sg24
S'R'
sbsg35
(irule
ConstantPhoneme
p2300
(dp2301
S'p'
Vu
sbsg22
Nsba(irule
Rule
p2302
(dp2303
g15
(irule
Guard
p2304
(dp2305
g18
I00
sg19
(lp2306
(irule
FeatureMatrix
p2307
(dp2308
g28
(lp2309
sg22
Nsba(irule
FeatureMatrix
p2310
(dp2311
g28
(lp2312
(I00
g588
tp2313
a(I00
g590
tp2314
asg22
Nsbasg21
I00
sg22
Nsg23
I01
sg24
S'L'
sbsg25
(irule
FeatureMatrix
p2315
(dp2316
g28
(lp2317
(I00
g810
tp2318
a(I00
g766
tp2319
a(I00
g861
tp2320
asg22
Nsbsg31
(irule
Guard
p2321
(dp2322
g18
I00
sg19
(lp2323
sg21
I00
sg22
Nsg23
I00
sg24
S'R'
sbsg35
(irule
ConstantPhoneme
p2324
(dp2325
S'p'
Vu
sbsg22
Nsba(irule
Rule
p2326
(dp2327
g15
(irule
Guard
p2328
(dp2329
g18
I00
sg19
(lp2330
(irule
FeatureMatrix
p2331
(dp2332
g28
(lp2333
sg22
Nsba(irule
FeatureMatrix
p2334
(dp2335
g28
(lp2336
(I00
g588
tp2337
a(I00
g590
tp2338
asg22
Nsbasg21
I00
sg22
Nsg23
I01
sg24
S'L'
sbsg25
(irule
ConstantPhoneme
p2339
(dp2340
S'p'
Vi
sbsg31
(irule
Guard
p2341
(dp2342
g18
I00
sg19
(lp2343
sg21
I00
sg22
Nsg23
I00
sg24
S'R'
sbsg35
(irule
FeatureMatrix
p2344
(dp2345
g28
(lp2346
(I00
g1203
tp2347
a(I01
g889
tp2348
a(I01
g891
tp2349
asg22
Nsbsg22
Nsba(irule
Rule
p2350
(dp2351
g15
(irule
Guard
p2352
(dp2353
g18
I00
sg19
(lp2354
(irule
FeatureMatrix
p2355
(dp2356
g28
(lp2357
sg22
Nsba(irule
FeatureMatrix
p2358
(dp2359
g28
(lp2360
(I00
g588
tp2361
a(I00
g590
tp2362
asg22
Nsbasg21
I00
sg22
Nsg23
I01
sg24
S'L'
sbsg25
(irule
ConstantPhoneme
p2363
(dp2364
S'p'
Vi
sbsg31
(irule
Guard
p2365
(dp2366
g18
I00
sg19
(lp2367
(irule
FeatureMatrix
p2368
(dp2369
g28
(lp2370
(I00
g746
tp2371
asg22
Nsbasg21
I00
sg22
Nsg23
I00
sg24
S'R'
sbsg35
(irule
ConstantPhoneme
p2372
(dp2373
S'p'
Vu
sbsg22
Nsba(irule
Rule
p2374
(dp2375
g15
(irule
Guard
p2376
(dp2377
g18
I00
sg19
(lp2378
(irule
FeatureMatrix
p2379
(dp2380
g28
(lp2381
sg22
Nsba(irule
FeatureMatrix
p2382
(dp2383
g28
(lp2384
(I00
g588
tp2385
a(I00
g590
tp2386
asg22
Nsbasg21
I00
sg22
Nsg23
I01
sg24
S'L'
sbsg25
(irule
FeatureMatrix
p2387
(dp2388
g28
(lp2389
(I00
g810
tp2390
a(I00
g861
tp2391
a(I01
g588
tp2392
asg22
Nsbsg31
(irule
Guard
p2393
(dp2394
g18
I00
sg19
(lp2395
sg21
I00
sg22
Nsg23
I00
sg24
S'R'
sbsg35
(irule
ConstantPhoneme
p2396
(dp2397
S'p'
Vu
sbsg22
Nsba(irule
Rule
p2398
(dp2399
g15
(irule
Guard
p2400
(dp2401
g18
I00
sg19
(lp2402
(irule
FeatureMatrix
p2403
(dp2404
g28
(lp2405
sg22
Nsba(irule
FeatureMatrix
p2406
(dp2407
g28
(lp2408
(I00
g588
tp2409
a(I00
g590
tp2410
asg22
Nsbasg21
I00
sg22
Nsg23
I01
sg24
S'L'
sbsg25
(irule
ConstantPhoneme
p2411
(dp2412
S'p'
Vi
sbsg31
(irule
Guard
p2413
(dp2414
g18
I00
sg19
(lp2415
(irule
FeatureMatrix
p2416
(dp2417
g28
(lp2418
(I00
g610
tp2419
asg22
Nsbasg21
I00
sg22
Nsg23
I00
sg24
S'R'
sbsg35
(irule
ConstantPhoneme
p2420
(dp2421
S'p'
Vu
sbsg22
Nsba(irule
Rule
p2422
(dp2423
g15
(irule
Guard
p2424
(dp2425
g18
I00
sg19
(lp2426
(irule
FeatureMatrix
p2427
(dp2428
g28
(lp2429
sg22
Nsba(irule
FeatureMatrix
p2430
(dp2431
g28
(lp2432
(I00
g588
tp2433
a(I00
g590
tp2434
asg22
Nsbasg21
I00
sg22
Nsg23
I01
sg24
S'L'
sbsg25
(irule
FeatureMatrix
p2435
(dp2436
g28
(lp2437
(I00
g810
tp2438
a(I00
g861
tp2439
a(I00
g657
tp2440
asg22
Nsbsg31
(irule
Guard
p2441
(dp2442
g18
I00
sg19
(lp2443
sg21
I00
sg22
Nsg23
I00
sg24
S'R'
sbsg35
(irule
ConstantPhoneme
p2444
(dp2445
S'p'
Vu
sbsg22
Nsba(irule
Rule
p2446
(dp2447
g15
(irule
Guard
p2448
(dp2449
g18
I00
sg19
(lp2450
(irule
FeatureMatrix
p2451
(dp2452
g28
(lp2453
sg22
Nsba(irule
FeatureMatrix
p2454
(dp2455
g28
(lp2456
(I00
g588
tp2457
a(I00
g590
tp2458
asg22
Nsbasg21
I00
sg22
Nsg23
I01
sg24
S'L'
sbsg25
(irule
FeatureMatrix
p2459
(dp2460
g28
(lp2461
(I00
g810
tp2462
a(I00
g861
tp2463
a(I00
g590
tp2464
asg22
Nsbsg31
(irule
Guard
p2465
(dp2466
g18
I00
sg19
(lp2467
sg21
I00
sg22
Nsg23
I00
sg24
S'R'
sbsg35
(irule
ConstantPhoneme
p2468
(dp2469
S'p'
Vu
sbsg22
Nsba(irule
Rule
p2470
(dp2471
g15
(irule
Guard
p2472
(dp2473
g18
I00
sg19
(lp2474
(irule
FeatureMatrix
p2475
(dp2476
g28
(lp2477
sg22
Nsba(irule
FeatureMatrix
p2478
(dp2479
g28
(lp2480
(I00
g788
tp2481
a(I00
g588
tp2482
a(I00
g590
tp2483
asg22
Nsbasg21
I00
sg22
Nsg23
I01
sg24
S'L'
sbsg25
(irule
ConstantPhoneme
p2484
(dp2485
S'p'
Vi
sbsg31
(irule
Guard
p2486
(dp2487
g18
I00
sg19
(lp2488
(irule
FeatureMatrix
p2489
(dp2490
g28
(lp2491
sg22
Nsbasg21
I00
sg22
Nsg23
I00
sg24
S'R'
sbsg35
(irule
ConstantPhoneme
p2492
(dp2493
S'p'
Vu
sbsg22
Nsba(irule
Rule
p2494
(dp2495
g15
(irule
Guard
p2496
(dp2497
g18
I00
sg19
(lp2498
(irule
FeatureMatrix
p2499
(dp2500
g28
(lp2501
sg22
Nsba(irule
FeatureMatrix
p2502
(dp2503
g28
(lp2504
(I00
g588
tp2505
a(I00
g590
tp2506
asg22
Nsbasg21
I00
sg22
Nsg23
I01
sg24
S'L'
sbsg25
(irule
FeatureMatrix
p2507
(dp2508
g28
(lp2509
(I00
g810
tp2510
a(I00
g861
tp2511
a(I01
g746
tp2512
asg22
Nsbsg31
(irule
Guard
p2513
(dp2514
g18
I00
sg19
(lp2515
sg21
I00
sg22
Nsg23
I00
sg24
S'R'
sbsg35
(irule
ConstantPhoneme
p2516
(dp2517
S'p'
Vu
sbsg22
Nsba(irule
Rule
p2518
(dp2519
g15
(irule
Guard
p2520
(dp2521
g18
I00
sg19
(lp2522
(irule
FeatureMatrix
p2523
(dp2524
g28
(lp2525
sg22
Nsba(irule
FeatureMatrix
p2526
(dp2527
g28
(lp2528
(I00
g588
tp2529
a(I00
g590
tp2530
a(I00
g610
tp2531
asg22
Nsbasg21
I00
sg22
Nsg23
I01
sg24
S'L'
sbsg25
(irule
ConstantPhoneme
p2532
(dp2533
S'p'
Vi
sbsg31
(irule
Guard
p2534
(dp2535
g18
I00
sg19
(lp2536
(irule
FeatureMatrix
p2537
(dp2538
g28
(lp2539
sg22
Nsbasg21
I00
sg22
Nsg23
I00
sg24
S'R'
sbsg35
(irule
ConstantPhoneme
p2540
(dp2541
S'p'
Vu
sbsg22
Nsba(irule
Rule
p2542
(dp2543
g15
(irule
Guard
p2544
(dp2545
g18
I00
sg19
(lp2546
(irule
FeatureMatrix
p2547
(dp2548
g28
(lp2549
sg22
Nsba(irule
FeatureMatrix
p2550
(dp2551
g28
(lp2552
(I00
g588
tp2553
a(I00
g590
tp2554
asg22
Nsbasg21
I00
sg22
Nsg23
I01
sg24
S'L'
sbsg25
(irule
FeatureMatrix
p2555
(dp2556
g28
(lp2557
(I00
g810
tp2558
a(I00
g861
tp2559
a(I01
g724
tp2560
asg22
Nsbsg31
(irule
Guard
p2561
(dp2562
g18
I00
sg19
(lp2563
sg21
I00
sg22
Nsg23
I00
sg24
S'R'
sbsg35
(irule
ConstantPhoneme
p2564
(dp2565
S'p'
Vu
sbsg22
Nsba(irule
Rule
p2566
(dp2567
g15
(irule
Guard
p2568
(dp2569
g18
I00
sg19
(lp2570
(irule
FeatureMatrix
p2571
(dp2572
g28
(lp2573
sg22
Nsba(irule
FeatureMatrix
p2574
(dp2575
g28
(lp2576
(I00
g588
tp2577
a(I00
g590
tp2578
asg22
Nsbasg21
I00
sg22
Nsg23
I01
sg24
S'L'
sbsg25
(irule
FeatureMatrix
p2579
(dp2580
g28
(lp2581
(I00
g810
tp2582
a(I00
g861
tp2583
a(I01
g891
tp2584
asg22
Nsbsg31
(irule
Guard
p2585
(dp2586
g18
I00
sg19
(lp2587
sg21
I00
sg22
Nsg23
I00
sg24
S'R'
sbsg35
(irule
ConstantPhoneme
p2588
(dp2589
S'p'
Vu
sbsg22
Nsba(irule
Rule
p2590
(dp2591
g15
(irule
Guard
p2592
(dp2593
g18
I00
sg19
(lp2594
(irule
FeatureMatrix
p2595
(dp2596
g28
(lp2597
sg22
Nsba(irule
FeatureMatrix
p2598
(dp2599
g28
(lp2600
(I00
g588
tp2601
a(I00
g657
tp2602
a(I00
g590
tp2603
asg22
Nsbasg21
I00
sg22
Nsg23
I01
sg24
S'L'
sbsg25
(irule
ConstantPhoneme
p2604
(dp2605
S'p'
Vi
sbsg31
(irule
Guard
p2606
(dp2607
g18
I00
sg19
(lp2608
(irule
FeatureMatrix
p2609
(dp2610
g28
(lp2611
sg22
Nsbasg21
I00
sg22
Nsg23
I00
sg24
S'R'
sbsg35
(irule
ConstantPhoneme
p2612
(dp2613
S'p'
Vu
sbsg22
Nsba(irule
Rule
p2614
(dp2615
g15
(irule
Guard
p2616
(dp2617
g18
I00
sg19
(lp2618
(irule
FeatureMatrix
p2619
(dp2620
g28
(lp2621
sg22
Nsba(irule
FeatureMatrix
p2622
(dp2623
g28
(lp2624
(I00
g588
tp2625
a(I00
g590
tp2626
a(I00
g724
tp2627
asg22
Nsbasg21
I00
sg22
Nsg23
I01
sg24
S'L'
sbsg25
(irule
ConstantPhoneme
p2628
(dp2629
S'p'
Vi
sbsg31
(irule
Guard
p2630
(dp2631
g18
I00
sg19
(lp2632
(irule
FeatureMatrix
p2633
(dp2634
g28
(lp2635
sg22
Nsbasg21
I00
sg22
Nsg23
I00
sg24
S'R'
sbsg35
(irule
ConstantPhoneme
p2636
(dp2637
S'p'
Vu
sbsg22
Nsba(irule
Rule
p2638
(dp2639
g15
(irule
Guard
p2640
(dp2641
g18
I00
sg19
(lp2642
(irule
FeatureMatrix
p2643
(dp2644
g28
(lp2645
(I00
g610
tp2646
asg22
Nsba(irule
FeatureMatrix
p2647
(dp2648
g28
(lp2649
(I00
g678
tp2650
a(I00
g588
tp2651
a(I00
g590
tp2652
asg22
Nsbasg21
I00
sg22
Nsg23
I01
sg24
S'L'
sbsg25
(irule
ConstantPhoneme
p2653
(dp2654
S'p'
Vi
sbsg31
(irule
Guard
p2655
(dp2656
g18
I00
sg19
(lp2657
sg21
I00
sg22
Nsg23
I00
sg24
S'R'
sbsg35
(irule
ConstantPhoneme
p2658
(dp2659
S'p'
Vu
sbsg22
Nsba(irule
Rule
p2660
(dp2661
g15
(irule
Guard
p2662
(dp2663
g18
I00
sg19
(lp2664
(irule
FeatureMatrix
p2665
(dp2666
g28
(lp2667
sg22
Nsba(irule
FeatureMatrix
p2668
(dp2669
g28
(lp2670
(I00
g588
tp2671
a(I00
g590
tp2672
asg22
Nsbasg21
I00
sg22
Nsg23
I01
sg24
S'L'
sbsg25
(irule
ConstantPhoneme
p2673
(dp2674
S'p'
Vi
sbsg31
(irule
Guard
p2675
(dp2676
g18
I00
sg19
(lp2677
sg21
I00
sg22
Nsg23
I00
sg24
S'R'
sbsg35
(irule
FeatureMatrix
p2678
(dp2679
g28
(lp2680
(I00
g678
tp2681
a(I00
g702
tp2682
a(I01
g746
tp2683
asg22
Nsbsg22
Nsba(irule
Rule
p2684
(dp2685
g15
(irule
Guard
p2686
(dp2687
g18
I00
sg19
(lp2688
(irule
FeatureMatrix
p2689
(dp2690
g28
(lp2691
sg22
Nsba(irule
FeatureMatrix
p2692
(dp2693
g28
(lp2694
(I00
g766
tp2695
a(I00
g588
tp2696
a(I00
g590
tp2697
asg22
Nsbasg21
I00
sg22
Nsg23
I01
sg24
S'L'
sbsg25
(irule
ConstantPhoneme
p2698
(dp2699
S'p'
Vi
sbsg31
(irule
Guard
p2700
(dp2701
g18
I00
sg19
(lp2702
sg21
I00
sg22
Nsg23
I00
sg24
S'R'
sbsg35
(irule
FeatureMatrix
p2703
(dp2704
g28
(lp2705
(I01
g810
tp2706
a(I00
g702
tp2707
asg22
Nsbsg22
Nsba(irule
Rule
p2708
(dp2709
g15
(irule
Guard
p2710
(dp2711
g18
I00
sg19
(lp2712
(irule
FeatureMatrix
p2713
(dp2714
g28
(lp2715
sg22
Nsba(irule
FeatureMatrix
p2716
(dp2717
g28
(lp2718
(I00
g588
tp2719
a(I00
g590
tp2720
asg22
Nsbasg21
I00
sg22
Nsg23
I01
sg24
S'L'
sbsg25
(irule
ConstantPhoneme
p2721
(dp2722
S'p'
Vi
sbsg31
(irule
Guard
p2723
(dp2724
g18
I00
sg19
(lp2725
sg21
I00
sg22
Nsg23
I00
sg24
S'R'
sbsg35
(irule
FeatureMatrix
p2726
(dp2727
g28
(lp2728
(I01
g810
tp2729
a(I00
g702
tp2730
a(I01
g891
tp2731
asg22
Nsbsg22
Nsba(irule
Rule
p2732
(dp2733
g15
(irule
Guard
p2734
(dp2735
g18
I00
sg19
(lp2736
(irule
FeatureMatrix
p2737
(dp2738
g28
(lp2739
sg22
Nsba(irule
FeatureMatrix
p2740
(dp2741
g28
(lp2742
(I00
g588
tp2743
a(I00
g590
tp2744
asg22
Nsbasg21
I00
sg22
Nsg23
I01
sg24
S'L'
sbsg25
(irule
ConstantPhoneme
p2745
(dp2746
S'p'
Vi
sbsg31
(irule
Guard
p2747
(dp2748
g18
I00
sg19
(lp2749
sg21
I00
sg22
Nsg23
I00
sg24
S'R'
sbsg35
(irule
FeatureMatrix
p2750
(dp2751
g28
(lp2752
(I00
g678
tp2753
a(I01
g889
tp2754
a(I01
g891
tp2755
asg22
Nsbsg22
Nsba(irule
Rule
p2756
(dp2757
g15
(irule
Guard
p2758
(dp2759
g18
I00
sg19
(lp2760
(irule
FeatureMatrix
p2761
(dp2762
g28
(lp2763
sg22
Nsba(irule
FeatureMatrix
p2764
(dp2765
g28
(lp2766
(I00
g678
tp2767
a(I00
g588
tp2768
a(I00
g590
tp2769
asg22
Nsbasg21
I00
sg22
Nsg23
I01
sg24
S'L'
sbsg25
(irule
ConstantPhoneme
p2770
(dp2771
S'p'
Vi
sbsg31
(irule
Guard
p2772
(dp2773
g18
I00
sg19
(lp2774
sg21
I00
sg22
Nsg23
I00
sg24
S'R'
sbsg35
(irule
FeatureMatrix
p2775
(dp2776
g28
(lp2777
(I01
g810
tp2778
a(I00
g702
tp2779
asg22
Nsbsg22
Nsba(irule
Rule
p2780
(dp2781
g15
(irule
Guard
p2782
(dp2783
g18
I00
sg19
(lp2784
(irule
FeatureMatrix
p2785
(dp2786
g28
(lp2787
sg22
Nsba(irule
FeatureMatrix
p2788
(dp2789
g28
(lp2790
(I00
g810
tp2791
a(I00
g588
tp2792
a(I00
g590
tp2793
asg22
Nsbasg21
I00
sg22
Nsg23
I01
sg24
S'L'
sbsg25
(irule
ConstantPhoneme
p2794
(dp2795
S'p'
Vi
sbsg31
(irule
Guard
p2796
(dp2797
g18
I00
sg19
(lp2798
sg21
I00
sg22
Nsg23
I00
sg24
S'R'
sbsg35
(irule
FeatureMatrix
p2799
(dp2800
g28
(lp2801
(I01
g810
tp2802
a(I00
g702
tp2803
asg22
Nsbsg22
Nsba(irule
Rule
p2804
(dp2805
g15
(irule
Guard
p2806
(dp2807
g18
I00
sg19
(lp2808
(irule
FeatureMatrix
p2809
(dp2810
g28
(lp2811
sg22
Nsba(irule
FeatureMatrix
p2812
(dp2813
g28
(lp2814
(I00
g678
tp2815
a(I00
g588
tp2816
a(I00
g590
tp2817
asg22
Nsbasg21
I00
sg22
Nsg23
I01
sg24
S'L'
sbsg25
(irule
ConstantPhoneme
p2818
(dp2819
S'p'
Vi
sbsg31
(irule
Guard
p2820
(dp2821
g18
I00
sg19
(lp2822
sg21
I00
sg22
Nsg23
I00
sg24
S'R'
sbsg35
(irule
FeatureMatrix
p2823
(dp2824
g28
(lp2825
(I01
g588
tp2826
a(I01
g889
tp2827
asg22
Nsbsg22
Nsba(irule
Rule
p2828
(dp2829
g15
(irule
Guard
p2830
(dp2831
g18
I00
sg19
(lp2832
(irule
FeatureMatrix
p2833
(dp2834
g28
(lp2835
sg22
Nsba(irule
FeatureMatrix
p2836
(dp2837
g28
(lp2838
(I00
g766
tp2839
a(I00
g588
tp2840
a(I00
g590
tp2841
asg22
Nsbasg21
I00
sg22
Nsg23
I01
sg24
S'L'
sbsg25
(irule
ConstantPhoneme
p2842
(dp2843
S'p'
Vi
sbsg31
(irule
Guard
p2844
(dp2845
g18
I00
sg19
(lp2846
sg21
I00
sg22
Nsg23
I00
sg24
S'R'
sbsg35
(irule
FeatureMatrix
p2847
(dp2848
g28
(lp2849
(I01
g889
tp2850
a(I01
g891
tp2851
asg22
Nsbsg22
Nsba(irule
Rule
p2852
(dp2853
g15
(irule
Guard
p2854
(dp2855
g18
I00
sg19
(lp2856
(irule
FeatureMatrix
p2857
(dp2858
g28
(lp2859
(I00
g610
tp2860
asg22
Nsba(irule
FeatureMatrix
p2861
(dp2862
g28
(lp2863
(I00
g588
tp2864
a(I00
g590
tp2865
a(I00
g746
tp2866
asg22
Nsbasg21
I00
sg22
Nsg23
I01
sg24
S'L'
sbsg25
(irule
ConstantPhoneme
p2867
(dp2868
S'p'
Vi
sbsg31
(irule
Guard
p2869
(dp2870
g18
I00
sg19
(lp2871
sg21
I00
sg22
Nsg23
I00
sg24
S'R'
sbsg35
(irule
ConstantPhoneme
p2872
(dp2873
S'p'
Vu
sbsg22
Nsba(irule
Rule
p2874
(dp2875
g15
(irule
Guard
p2876
(dp2877
g18
I00
sg19
(lp2878
(irule
FeatureMatrix
p2879
(dp2880
g28
(lp2881
sg22
Nsba(irule
FeatureMatrix
p2882
(dp2883
g28
(lp2884
(I00
g588
tp2885
a(I00
g590
tp2886
asg22
Nsbasg21
I00
sg22
Nsg23
I01
sg24
S'L'
sbsg25
(irule
FeatureMatrix
p2887
(dp2888
g28
(lp2889
(I00
g810
tp2890
a(I00
g861
tp2891
a(I00
g610
tp2892
asg22
Nsbsg31
(irule
Guard
p2893
(dp2894
g18
I00
sg19
(lp2895
sg21
I00
sg22
Nsg23
I00
sg24
S'R'
sbsg35
(irule
ConstantPhoneme
p2896
(dp2897
S'p'
Vu
sbsg22
Nsba(irule
Rule
p2898
(dp2899
g15
(irule
Guard
p2900
(dp2901
g18
I00
sg19
(lp2902
(irule
FeatureMatrix
p2903
(dp2904
g28
(lp2905
sg22
Nsba(irule
FeatureMatrix
p2906
(dp2907
g28
(lp2908
(I00
g588
tp2909
a(I00
g590
tp2910
asg22
Nsbasg21
I00
sg22
Nsg23
I01
sg24
S'L'
sbsg25
(irule
FeatureMatrix
p2911
(dp2912
g28
(lp2913
(I00
g810
tp2914
a(I00
g861
tp2915
a(I00
g702
tp2916
asg22
Nsbsg31
(irule
Guard
p2917
(dp2918
g18
I00
sg19
(lp2919
sg21
I00
sg22
Nsg23
I00
sg24
S'R'
sbsg35
(irule
ConstantPhoneme
p2920
(dp2921
S'p'
Vu
sbsg22
Nsba(irule
Rule
p2922
(dp2923
g15
(irule
Guard
p2924
(dp2925
g18
I00
sg19
(lp2926
(irule
FeatureMatrix
p2927
(dp2928
g28
(lp2929
(I00
g610
tp2930
asg22
Nsba(irule
FeatureMatrix
p2931
(dp2932
g28
(lp2933
(I00
g810
tp2934
a(I00
g588
tp2935
a(I00
g590
tp2936
asg22
Nsbasg21
I00
sg22
Nsg23
I01
sg24
S'L'
sbsg25
(irule
ConstantPhoneme
p2937
(dp2938
S'p'
Vi
sbsg31
(irule
Guard
p2939
(dp2940
g18
I00
sg19
(lp2941
sg21
I00
sg22
Nsg23
I00
sg24
S'R'
sbsg35
(irule
ConstantPhoneme
p2942
(dp2943
S'p'
Vu
sbsg22
Nsba(irule
Rule
p2944
(dp2945
g15
(irule
Guard
p2946
(dp2947
g18
I00
sg19
(lp2948
(irule
FeatureMatrix
p2949
(dp2950
g28
(lp2951
sg22
Nsba(irule
FeatureMatrix
p2952
(dp2953
g28
(lp2954
(I00
g588
tp2955
a(I00
g590
tp2956
asg22
Nsbasg21
I00
sg22
Nsg23
I01
sg24
S'L'
sbsg25
(irule
ConstantPhoneme
p2957
(dp2958
S'p'
Vi
sbsg31
(irule
Guard
p2959
(dp2960
g18
I00
sg19
(lp2961
sg21
I00
sg22
Nsg23
I00
sg24
S'R'
sbsg35
(irule
FeatureMatrix
p2962
(dp2963
g28
(lp2964
(I00
g678
tp2965
a(I01
g724
tp2966
a(I00
g702
tp2967
asg22
Nsbsg22
Nsbaa(lp2968
(irule
Rule
p2969
(dp2970
g15
(irule
Guard
p2971
(dp2972
g18
I00
sg19
(lp2973
sg21
I00
sg22
V
sg23
I00
sg24
S'L'
sbsg25
(irule
FeatureMatrix
p2974
(dp2975
g28
(lp2976
(I00
S'long'
tp2977
asg22
V[ -long ]
p2978
sbsg31
(irule
Guard
p2979
(dp2980
g18
I00
sg19
(lp2981
(irule
FeatureMatrix
p2982
(dp2983
g28
(lp2984
sg22
V[  ]
p2985
sba(irule
FeatureMatrix
p2986
(dp2987
g28
(lp2988
(I00
S'vowel'
tp2989
asg22
V[ -vowel ]
p2990
sbasg21
I00
sg22
V[  ] [ -vowel ]
p2991
sg23
I00
sg24
S'R'
sbsg35
(irule
FeatureMatrix
p2992
(dp2993
g28
(lp2994
sg22
V[  ]
p2995
sbsg22
V[  ] ---> [ -long ] /  _ [  ] [ -vowel ]
p2996
sba(irule
Rule
p2997
(dp2998
g15
(irule
Guard
p2999
(dp3000
g18
I00
sg19
(lp3001
sg21
I00
sg22
Nsg23
I00
sg24
S'L'
sbsg25
(irule
FeatureMatrix
p3002
(dp3003
g28
(lp3004
(I00
S'long'
p3005
tp3006
asg22
Nsbsg31
(irule
Guard
p3007
(dp3008
g18
I00
sg19
(lp3009
(irule
FeatureMatrix
p3010
(dp3011
g28
(lp3012
sg22
Nsba(irule
FeatureMatrix
p3013
(dp3014
g28
(lp3015
(I00
S'high'
p3016
tp3017
asg22
Nsbasg21
I00
sg22
Nsg23
I00
sg24
S'R'
sbsg35
(irule
FeatureMatrix
p3018
(dp3019
g28
(lp3020
sg22
Nsbsg22
Nsba(irule
Rule
p3021
(dp3022
g15
(irule
Guard
p3023
(dp3024
g18
I00
sg19
(lp3025
sg21
I00
sg22
Nsg23
I00
sg24
S'L'
sbsg25
(irule
FeatureMatrix
p3026
(dp3027
g28
(lp3028
(I00
g3005
tp3029
asg22
Nsbsg31
(irule
Guard
p3030
(dp3031
g18
I00
sg19
(lp3032
(irule
FeatureMatrix
p3033
(dp3034
g28
(lp3035
sg22
Nsba(irule
FeatureMatrix
p3036
(dp3037
g28
(lp3038
(I00
S'tense'
p3039
tp3040
asg22
Nsbasg21
I00
sg22
Nsg23
I00
sg24
S'R'
sbsg35
(irule
FeatureMatrix
p3041
(dp3042
g28
(lp3043
sg22
Nsbsg22
Nsba(irule
Rule
p3044
(dp3045
g15
(irule
Guard
p3046
(dp3047
g18
I00
sg19
(lp3048
sg21
I00
sg22
Nsg23
I00
sg24
S'L'
sbsg25
(irule
FeatureMatrix
p3049
(dp3050
g28
(lp3051
(I00
g3005
tp3052
asg22
Nsbsg31
(irule
Guard
p3053
(dp3054
g18
I00
sg19
(lp3055
(irule
FeatureMatrix
p3056
(dp3057
g28
(lp3058
sg22
Nsba(irule
FeatureMatrix
p3059
(dp3060
g28
(lp3061
(I00
g3016
tp3062
asg22
Nsbasg21
I00
sg22
Nsg23
I00
sg24
S'R'
sbsg35
(irule
FeatureMatrix
p3063
(dp3064
g28
(lp3065
(I00
g3016
tp3066
asg22
Nsbsg22
Nsba(irule
Rule
p3067
(dp3068
g15
(irule
Guard
p3069
(dp3070
g18
I00
sg19
(lp3071
sg21
I00
sg22
Nsg23
I00
sg24
S'L'
sbsg25
(irule
FeatureMatrix
p3072
(dp3073
g28
(lp3074
(I00
g3005
tp3075
asg22
Nsbsg31
(irule
Guard
p3076
(dp3077
g18
I00
sg19
(lp3078
(irule
FeatureMatrix
p3079
(dp3080
g28
(lp3081
(I00
S'vowel'
p3082
tp3083
asg22
Nsba(irule
FeatureMatrix
p3084
(dp3085
g28
(lp3086
(I00
g3016
tp3087
asg22
Nsbasg21
I00
sg22
Nsg23
I00
sg24
S'R'
sbsg35
(irule
FeatureMatrix
p3088
(dp3089
g28
(lp3090
sg22
Nsbsg22
Nsba(irule
Rule
p3091
(dp3092
g15
(irule
Guard
p3093
(dp3094
g18
I00
sg19
(lp3095
(irule
FeatureMatrix
p3096
(dp3097
g28
(lp3098
sg22
Nsbasg21
I00
sg22
Nsg23
I00
sg24
S'L'
sbsg25
(irule
FeatureMatrix
p3099
(dp3100
g28
(lp3101
(I00
g3005
tp3102
asg22
Nsbsg31
(irule
Guard
p3103
(dp3104
g18
I00
sg19
(lp3105
(irule
FeatureMatrix
p3106
(dp3107
g28
(lp3108
sg22
Nsba(irule
FeatureMatrix
p3109
(dp3110
g28
(lp3111
(I00
g3016
tp3112
asg22
Nsbasg21
I00
sg22
Nsg23
I00
sg24
S'R'
sbsg35
(irule
FeatureMatrix
p3113
(dp3114
g28
(lp3115
sg22
Nsbsg22
Nsba(irule
Rule
p3116
(dp3117
g15
(irule
Guard
p3118
(dp3119
g18
I00
sg19
(lp3120
sg21
I00
sg22
Nsg23
I00
sg24
S'L'
sbsg25
(irule
FeatureMatrix
p3121
(dp3122
g28
(lp3123
(I00
g3005
tp3124
asg22
Nsbsg31
(irule
Guard
p3125
(dp3126
g18
I00
sg19
(lp3127
(irule
FeatureMatrix
p3128
(dp3129
g28
(lp3130
sg22
Nsba(irule
FeatureMatrix
p3131
(dp3132
g28
(lp3133
(I00
g3016
tp3134
asg22
Nsbasg21
I00
sg22
Nsg23
I00
sg24
S'R'
sbsg35
(irule
FeatureMatrix
p3135
(dp3136
g28
(lp3137
(I01
S'voice'
p3138
tp3139
asg22
Nsbsg22
Nsba(irule
Rule
p3140
(dp3141
g15
(irule
Guard
p3142
(dp3143
g18
I00
sg19
(lp3144
sg21
I00
sg22
Nsg23
I00
sg24
S'L'
sbsg25
(irule
FeatureMatrix
p3145
(dp3146
g28
(lp3147
(I00
g3005
tp3148
asg22
Nsbsg31
(irule
Guard
p3149
(dp3150
g18
I00
sg19
(lp3151
(irule
FeatureMatrix
p3152
(dp3153
g28
(lp3154
(I00
g3005
tp3155
asg22
Nsba(irule
FeatureMatrix
p3156
(dp3157
g28
(lp3158
(I00
g3016
tp3159
asg22
Nsbasg21
I00
sg22
Nsg23
I00
sg24
S'R'
sbsg35
(irule
FeatureMatrix
p3160
(dp3161
g28
(lp3162
sg22
Nsbsg22
Nsba(irule
Rule
p3163
(dp3164
g15
(irule
Guard
p3165
(dp3166
g18
I00
sg19
(lp3167
sg21
I00
sg22
Nsg23
I00
sg24
S'L'
sbsg25
(irule
FeatureMatrix
p3168
(dp3169
g28
(lp3170
(I00
g3005
tp3171
asg22
Nsbsg31
(irule
Guard
p3172
(dp3173
g18
I00
sg19
(lp3174
(irule
FeatureMatrix
p3175
(dp3176
g28
(lp3177
(I00
S'nasal'
p3178
tp3179
asg22
Nsba(irule
FeatureMatrix
p3180
(dp3181
g28
(lp3182
(I00
g3016
tp3183
asg22
Nsbasg21
I00
sg22
Nsg23
I00
sg24
S'R'
sbsg35
(irule
FeatureMatrix
p3184
(dp3185
g28
(lp3186
sg22
Nsbsg22
Nsba(irule
Rule
p3187
(dp3188
g15
(irule
Guard
p3189
(dp3190
g18
I00
sg19
(lp3191
sg21
I00
sg22
Nsg23
I00
sg24
S'L'
sbsg25
(irule
FeatureMatrix
p3192
(dp3193
g28
(lp3194
(I00
g3005
tp3195
asg22
Nsbsg31
(irule
Guard
p3196
(dp3197
g18
I00
sg19
(lp3198
(irule
FeatureMatrix
p3199
(dp3200
g28
(lp3201
sg22
Nsba(irule
FeatureMatrix
p3202
(dp3203
g28
(lp3204
(I00
g3082
tp3205
asg22
Nsbasg21
I00
sg22
Nsg23
I00
sg24
S'R'
sbsg35
(irule
FeatureMatrix
p3206
(dp3207
g28
(lp3208
(I01
g3082
tp3209
asg22
Nsbsg22
Nsba(irule
Rule
p3210
(dp3211
g15
(irule
Guard
p3212
(dp3213
g18
I00
sg19
(lp3214
sg21
I00
sg22
Nsg23
I00
sg24
S'L'
sbsg25
(irule
FeatureMatrix
p3215
(dp3216
g28
(lp3217
(I00
g3005
tp3218
asg22
Nsbsg31
(irule
Guard
p3219
(dp3220
g18
I00
sg19
(lp3221
(irule
FeatureMatrix
p3222
(dp3223
g28
(lp3224
(I00
g3082
tp3225
asg22
Nsba(irule
FeatureMatrix
p3226
(dp3227
g28
(lp3228
(I00
g3082
tp3229
asg22
Nsbasg21
I00
sg22
Nsg23
I00
sg24
S'R'
sbsg35
(irule
FeatureMatrix
p3230
(dp3231
g28
(lp3232
sg22
Nsbsg22
Nsba(irule
Rule
p3233
(dp3234
g15
(irule
Guard
p3235
(dp3236
g18
I00
sg19
(lp3237
sg21
I00
sg22
Nsg23
I00
sg24
S'L'
sbsg25
(irule
FeatureMatrix
p3238
(dp3239
g28
(lp3240
(I00
g3005
tp3241
asg22
Nsbsg31
(irule
Guard
p3242
(dp3243
g18
I00
sg19
(lp3244
(irule
FeatureMatrix
p3245
(dp3246
g28
(lp3247
sg22
Nsba(irule
FeatureMatrix
p3248
(dp3249
g28
(lp3250
(I00
g3016
tp3251
asg22
Nsbasg21
I00
sg22
Nsg23
I00
sg24
S'R'
sbsg35
(irule
FeatureMatrix
p3252
(dp3253
g28
(lp3254
(I00
S'coronal'
p3255
tp3256
asg22
Nsbsg22
Nsba(irule
Rule
p3257
(dp3258
g15
(irule
Guard
p3259
(dp3260
g18
I00
sg19
(lp3261
(irule
FeatureMatrix
p3262
(dp3263
g28
(lp3264
sg22
Nsbasg21
I00
sg22
Nsg23
I00
sg24
S'L'
sbsg25
(irule
FeatureMatrix
p3265
(dp3266
g28
(lp3267
(I00
g3005
tp3268
asg22
Nsbsg31
(irule
Guard
p3269
(dp3270
g18
I00
sg19
(lp3271
(irule
FeatureMatrix
p3272
(dp3273
g28
(lp3274
sg22
Nsba(irule
FeatureMatrix
p3275
(dp3276
g28
(lp3277
(I00
g3039
tp3278
asg22
Nsbasg21
I00
sg22
Nsg23
I00
sg24
S'R'
sbsg35
(irule
FeatureMatrix
p3279
(dp3280
g28
(lp3281
sg22
Nsbsg22
Nsba(irule
Rule
p3282
(dp3283
g15
(irule
Guard
p3284
(dp3285
g18
I00
sg19
(lp3286
sg21
I00
sg22
Nsg23
I00
sg24
S'L'
sbsg25
(irule
FeatureMatrix
p3287
(dp3288
g28
(lp3289
(I00
g3005
tp3290
asg22
Nsbsg31
(irule
Guard
p3291
(dp3292
g18
I00
sg19
(lp3293
(irule
FeatureMatrix
p3294
(dp3295
g28
(lp3296
sg22
Nsba(irule
FeatureMatrix
p3297
(dp3298
g28
(lp3299
(I00
g3016
tp3300
asg22
Nsbasg21
I00
sg22
Nsg23
I00
sg24
S'R'
sbsg35
(irule
FeatureMatrix
p3301
(dp3302
g28
(lp3303
(I00
S'sibilant'
p3304
tp3305
asg22
Nsbsg22
Nsba(irule
Rule
p3306
(dp3307
g15
(irule
Guard
p3308
(dp3309
g18
I00
sg19
(lp3310
sg21
I00
sg22
Nsg23
I00
sg24
S'L'
sbsg25
(irule
FeatureMatrix
p3311
(dp3312
g28
(lp3313
(I00
g3005
tp3314
asg22
Nsbsg31
(irule
Guard
p3315
(dp3316
g18
I00
sg19
(lp3317
(irule
FeatureMatrix
p3318
(dp3319
g28
(lp3320
(I00
S'low'
p3321
tp3322
asg22
Nsba(irule
FeatureMatrix
p3323
(dp3324
g28
(lp3325
(I00
g3016
tp3326
asg22
Nsbasg21
I00
sg22
Nsg23
I00
sg24
S'R'
sbsg35
(irule
FeatureMatrix
p3327
(dp3328
g28
(lp3329
sg22
Nsbsg22
Nsba(irule
Rule
p3330
(dp3331
g15
(irule
Guard
p3332
(dp3333
g18
I00
sg19
(lp3334
(irule
FeatureMatrix
p3335
(dp3336
g28
(lp3337
sg22
Nsbasg21
I00
sg22
Nsg23
I00
sg24
S'L'
sbsg25
(irule
FeatureMatrix
p3338
(dp3339
g28
(lp3340
(I00
g3005
tp3341
asg22
Nsbsg31
(irule
Guard
p3342
(dp3343
g18
I00
sg19
(lp3344
(irule
FeatureMatrix
p3345
(dp3346
g28
(lp3347
sg22
Nsba(irule
FeatureMatrix
p3348
(dp3349
g28
(lp3350
(I00
g3082
tp3351
asg22
Nsbasg21
I00
sg22
Nsg23
I00
sg24
S'R'
sbsg35
(irule
FeatureMatrix
p3352
(dp3353
g28
(lp3354
sg22
Nsbsg22
Nsba(irule
Rule
p3355
(dp3356
g15
(irule
Guard
p3357
(dp3358
g18
I00
sg19
(lp3359
sg21
I00
sg22
Nsg23
I00
sg24
S'L'
sbsg25
(irule
FeatureMatrix
p3360
(dp3361
g28
(lp3362
(I00
g3005
tp3363
asg22
Nsbsg31
(irule
Guard
p3364
(dp3365
g18
I00
sg19
(lp3366
(irule
FeatureMatrix
p3367
(dp3368
g28
(lp3369
sg22
Nsba(irule
FeatureMatrix
p3370
(dp3371
g28
(lp3372
(I00
g3016
tp3373
asg22
Nsbasg21
I00
sg22
Nsg23
I00
sg24
S'R'
sbsg35
(irule
FeatureMatrix
p3374
(dp3375
g28
(lp3376
(I01
g3082
tp3377
asg22
Nsbsg22
Nsba(irule
Rule
p3378
(dp3379
g15
(irule
Guard
p3380
(dp3381
g18
I00
sg19
(lp3382
sg21
I00
sg22
Nsg23
I00
sg24
S'L'
sbsg25
(irule
FeatureMatrix
p3383
(dp3384
g28
(lp3385
(I00
g3005
tp3386
asg22
Nsbsg31
(irule
Guard
p3387
(dp3388
g18
I00
sg19
(lp3389
(irule
FeatureMatrix
p3390
(dp3391
g28
(lp3392
sg22
Nsba(irule
FeatureMatrix
p3393
(dp3394
g28
(lp3395
(I00
g3016
tp3396
a(I00
g3304
tp3397
asg22
Nsbasg21
I00
sg22
Nsg23
I00
sg24
S'R'
sbsg35
(irule
FeatureMatrix
p3398
(dp3399
g28
(lp3400
sg22
Nsbsg22
Nsba(irule
Rule
p3401
(dp3402
g15
(irule
Guard
p3403
(dp3404
g18
I00
sg19
(lp3405
sg21
I00
sg22
Nsg23
I00
sg24
S'L'
sbsg25
(irule
FeatureMatrix
p3406
(dp3407
g28
(lp3408
(I00
g3005
tp3409
asg22
Nsbsg31
(irule
Guard
p3410
(dp3411
g18
I00
sg19
(lp3412
(irule
FeatureMatrix
p3413
(dp3414
g28
(lp3415
sg22
Nsba(irule
FeatureMatrix
p3416
(dp3417
g28
(lp3418
(I00
g3016
tp3419
asg22
Nsbasg21
I00
sg22
Nsg23
I00
sg24
S'R'
sbsg35
(irule
FeatureMatrix
p3420
(dp3421
g28
(lp3422
(I01
S'sonorant'
p3423
tp3424
asg22
Nsbsg22
Nsba(irule
Rule
p3425
(dp3426
g15
(irule
Guard
p3427
(dp3428
g18
I00
sg19
(lp3429
sg21
I00
sg22
Nsg23
I00
sg24
S'L'
sbsg25
(irule
FeatureMatrix
p3430
(dp3431
g28
(lp3432
(I00
g3005
tp3433
asg22
Nsbsg31
(irule
Guard
p3434
(dp3435
g18
I00
sg19
(lp3436
(irule
FeatureMatrix
p3437
(dp3438
g28
(lp3439
(I00
g3304
tp3440
asg22
Nsba(irule
FeatureMatrix
p3441
(dp3442
g28
(lp3443
(I00
g3016
tp3444
asg22
Nsbasg21
I00
sg22
Nsg23
I00
sg24
S'R'
sbsg35
(irule
FeatureMatrix
p3445
(dp3446
g28
(lp3447
sg22
Nsbsg22
Nsba(irule
Rule
p3448
(dp3449
g15
(irule
Guard
p3450
(dp3451
g18
I00
sg19
(lp3452
sg21
I00
sg22
Nsg23
I00
sg24
S'L'
sbsg25
(irule
FeatureMatrix
p3453
(dp3454
g28
(lp3455
(I00
g3005
tp3456
asg22
Nsbsg31
(irule
Guard
p3457
(dp3458
g18
I00
sg19
(lp3459
(irule
FeatureMatrix
p3460
(dp3461
g28
(lp3462
(I00
S'rounded'
p3463
tp3464
asg22
Nsba(irule
FeatureMatrix
p3465
(dp3466
g28
(lp3467
(I00
g3016
tp3468
asg22
Nsbasg21
I00
sg22
Nsg23
I00
sg24
S'R'
sbsg35
(irule
FeatureMatrix
p3469
(dp3470
g28
(lp3471
sg22
Nsbsg22
Nsba(irule
Rule
p3472
(dp3473
g15
(irule
Guard
p3474
(dp3475
g18
I00
sg19
(lp3476
sg21
I00
sg22
Nsg23
I00
sg24
S'L'
sbsg25
(irule
FeatureMatrix
p3477
(dp3478
g28
(lp3479
(I00
g3005
tp3480
asg22
Nsbsg31
(irule
Guard
p3481
(dp3482
g18
I00
sg19
(lp3483
(irule
FeatureMatrix
p3484
(dp3485
g28
(lp3486
sg22
Nsba(irule
FeatureMatrix
p3487
(dp3488
g28
(lp3489
(I00
g3016
tp3490
asg22
Nsbasg21
I00
sg22
Nsg23
I00
sg24
S'R'
sbsg35
(irule
FeatureMatrix
p3491
(dp3492
g28
(lp3493
(I00
S'anterior'
p3494
tp3495
asg22
Nsbsg22
Nsba(irule
Rule
p3496
(dp3497
g15
(irule
Guard
p3498
(dp3499
g18
I00
sg19
(lp3500
sg21
I00
sg22
Nsg23
I00
sg24
S'L'
sbsg25
(irule
FeatureMatrix
p3501
(dp3502
g28
(lp3503
(I00
g3005
tp3504
asg22
Nsbsg31
(irule
Guard
p3505
(dp3506
g18
I00
sg19
(lp3507
(irule
FeatureMatrix
p3508
(dp3509
g28
(lp3510
(I00
g3304
tp3511
asg22
Nsba(irule
FeatureMatrix
p3512
(dp3513
g28
(lp3514
(I00
g3039
tp3515
asg22
Nsbasg21
I00
sg22
Nsg23
I00
sg24
S'R'
sbsg35
(irule
FeatureMatrix
p3516
(dp3517
g28
(lp3518
sg22
Nsbsg22
Nsba(irule
Rule
p3519
(dp3520
g15
(irule
Guard
p3521
(dp3522
g18
I00
sg19
(lp3523
sg21
I00
sg22
Nsg23
I00
sg24
S'L'
sbsg25
(irule
FeatureMatrix
p3524
(dp3525
g28
(lp3526
(I00
g3005
tp3527
asg22
Nsbsg31
(irule
Guard
p3528
(dp3529
g18
I00
sg19
(lp3530
(irule
FeatureMatrix
p3531
(dp3532
g28
(lp3533
(I00
g3039
tp3534
asg22
Nsba(irule
FeatureMatrix
p3535
(dp3536
g28
(lp3537
(I00
g3016
tp3538
asg22
Nsbasg21
I00
sg22
Nsg23
I00
sg24
S'R'
sbsg35
(irule
FeatureMatrix
p3539
(dp3540
g28
(lp3541
sg22
Nsbsg22
Nsba(irule
Rule
p3542
(dp3543
g15
(irule
Guard
p3544
(dp3545
g18
I00
sg19
(lp3546
sg21
I00
sg22
Nsg23
I00
sg24
S'L'
sbsg25
(irule
FeatureMatrix
p3547
(dp3548
g28
(lp3549
(I00
g3005
tp3550
asg22
Nsbsg31
(irule
Guard
p3551
(dp3552
g18
I00
sg19
(lp3553
(irule
FeatureMatrix
p3554
(dp3555
g28
(lp3556
(I00
g3082
tp3557
asg22
Nsba(irule
FeatureMatrix
p3558
(dp3559
g28
(lp3560
(I00
g3039
tp3561
asg22
Nsbasg21
I00
sg22
Nsg23
I00
sg24
S'R'
sbsg35
(irule
FeatureMatrix
p3562
(dp3563
g28
(lp3564
sg22
Nsbsg22
Nsba(irule
Rule
p3565
(dp3566
g15
(irule
Guard
p3567
(dp3568
g18
I00
sg19
(lp3569
sg21
I00
sg22
Nsg23
I00
sg24
S'L'
sbsg25
(irule
FeatureMatrix
p3570
(dp3571
g28
(lp3572
(I00
g3005
tp3573
asg22
Nsbsg31
(irule
Guard
p3574
(dp3575
g18
I00
sg19
(lp3576
(irule
FeatureMatrix
p3577
(dp3578
g28
(lp3579
sg22
Nsba(irule
FeatureMatrix
p3580
(dp3581
g28
(lp3582
(I00
g3082
tp3583
asg22
Nsbasg21
I00
sg22
Nsg23
I00
sg24
S'R'
sbsg35
(irule
FeatureMatrix
p3584
(dp3585
g28
(lp3586
(I01
g3423
tp3587
asg22
Nsbsg22
Nsba(irule
Rule
p3588
(dp3589
g15
(irule
Guard
p3590
(dp3591
g18
I00
sg19
(lp3592
sg21
I00
sg22
Nsg23
I00
sg24
S'L'
sbsg25
(irule
FeatureMatrix
p3593
(dp3594
g28
(lp3595
(I00
g3005
tp3596
asg22
Nsbsg31
(irule
Guard
p3597
(dp3598
g18
I00
sg19
(lp3599
(irule
FeatureMatrix
p3600
(dp3601
g28
(lp3602
sg22
Nsba(irule
FeatureMatrix
p3603
(dp3604
g28
(lp3605
(I00
g3082
tp3606
asg22
Nsbasg21
I00
sg22
Nsg23
I00
sg24
S'R'
sbsg35
(irule
FeatureMatrix
p3607
(dp3608
g28
(lp3609
(I01
g3138
tp3610
asg22
Nsbsg22
Nsba(irule
Rule
p3611
(dp3612
g15
(irule
Guard
p3613
(dp3614
g18
I00
sg19
(lp3615
sg21
I00
sg22
Nsg23
I00
sg24
S'L'
sbsg25
(irule
FeatureMatrix
p3616
(dp3617
g28
(lp3618
(I00
g3005
tp3619
asg22
Nsbsg31
(irule
Guard
p3620
(dp3621
g18
I00
sg19
(lp3622
(irule
FeatureMatrix
p3623
(dp3624
g28
(lp3625
sg22
Nsba(irule
FeatureMatrix
p3626
(dp3627
g28
(lp3628
(I00
g3039
tp3629
asg22
Nsbasg21
I00
sg22
Nsg23
I00
sg24
S'R'
sbsg35
(irule
FeatureMatrix
p3630
(dp3631
g28
(lp3632
(I01
g3423
tp3633
asg22
Nsbsg22
Nsba(irule
Rule
p3634
(dp3635
g15
(irule
Guard
p3636
(dp3637
g18
I00
sg19
(lp3638
sg21
I00
sg22
Nsg23
I00
sg24
S'L'
sbsg25
(irule
FeatureMatrix
p3639
(dp3640
g28
(lp3641
(I00
g3005
tp3642
asg22
Nsbsg31
(irule
Guard
p3643
(dp3644
g18
I00
sg19
(lp3645
(irule
FeatureMatrix
p3646
(dp3647
g28
(lp3648
sg22
Nsba(irule
FeatureMatrix
p3649
(dp3650
g28
(lp3651
(I00
S'back'
p3652
tp3653
a(I00
g3016
tp3654
asg22
Nsbasg21
I00
sg22
Nsg23
I00
sg24
S'R'
sbsg35
(irule
FeatureMatrix
p3655
(dp3656
g28
(lp3657
sg22
Nsbsg22
Nsba(irule
Rule
p3658
(dp3659
g15
(irule
Guard
p3660
(dp3661
g18
I00
sg19
(lp3662
sg21
I00
sg22
Nsg23
I00
sg24
S'L'
sbsg25
(irule
FeatureMatrix
p3663
(dp3664
g28
(lp3665
(I00
g3005
tp3666
asg22
Nsbsg31
(irule
Guard
p3667
(dp3668
g18
I00
sg19
(lp3669
(irule
FeatureMatrix
p3670
(dp3671
g28
(lp3672
sg22
Nsba(irule
FeatureMatrix
p3673
(dp3674
g28
(lp3675
(I00
g3016
tp3676
asg22
Nsbasg21
I00
sg22
Nsg23
I00
sg24
S'R'
sbsg35
(irule
FeatureMatrix
p3677
(dp3678
g28
(lp3679
(I00
g3178
tp3680
asg22
Nsbsg22
Nsba(irule
Rule
p3681
(dp3682
g15
(irule
Guard
p3683
(dp3684
g18
I00
sg19
(lp3685
sg21
I00
sg22
Nsg23
I00
sg24
S'L'
sbsg25
(irule
FeatureMatrix
p3686
(dp3687
g28
(lp3688
(I00
g3005
tp3689
asg22
Nsbsg31
(irule
Guard
p3690
(dp3691
g18
I00
sg19
(lp3692
(irule
FeatureMatrix
p3693
(dp3694
g28
(lp3695
sg22
Nsba(irule
FeatureMatrix
p3696
(dp3697
g28
(lp3698
(I00
g3016
tp3699
asg22
Nsbasg21
I00
sg22
Nsg23
I00
sg24
S'R'
sbsg35
(irule
FeatureMatrix
p3700
(dp3701
g28
(lp3702
(I00
S'palletized'
p3703
tp3704
asg22
Nsbsg22
Nsba(irule
Rule
p3705
(dp3706
g15
(irule
Guard
p3707
(dp3708
g18
I00
sg19
(lp3709
sg21
I00
sg22
Nsg23
I00
sg24
S'L'
sbsg25
(irule
FeatureMatrix
p3710
(dp3711
g28
(lp3712
(I00
g3005
tp3713
asg22
Nsbsg31
(irule
Guard
p3714
(dp3715
g18
I00
sg19
(lp3716
(irule
FeatureMatrix
p3717
(dp3718
g28
(lp3719
sg22
Nsba(irule
FeatureMatrix
p3720
(dp3721
g28
(lp3722
(I00
g3039
tp3723
asg22
Nsbasg21
I00
sg22
Nsg23
I00
sg24
S'R'
sbsg35
(irule
FeatureMatrix
p3724
(dp3725
g28
(lp3726
(I00
g3016
tp3727
asg22
Nsbsg22
Nsba(irule
Rule
p3728
(dp3729
g15
(irule
Guard
p3730
(dp3731
g18
I00
sg19
(lp3732
sg21
I00
sg22
Nsg23
I00
sg24
S'L'
sbsg25
(irule
FeatureMatrix
p3733
(dp3734
g28
(lp3735
(I00
g3005
tp3736
asg22
Nsbsg31
(irule
Guard
p3737
(dp3738
g18
I00
sg19
(lp3739
(irule
FeatureMatrix
p3740
(dp3741
g28
(lp3742
sg22
Nsba(irule
FeatureMatrix
p3743
(dp3744
g28
(lp3745
(I00
g3005
tp3746
a(I00
g3016
tp3747
asg22
Nsbasg21
I00
sg22
Nsg23
I00
sg24
S'R'
sbsg35
(irule
FeatureMatrix
p3748
(dp3749
g28
(lp3750
sg22
Nsbsg22
Nsba(irule
Rule
p3751
(dp3752
g15
(irule
Guard
p3753
(dp3754
g18
I00
sg19
(lp3755
sg21
I00
sg22
Nsg23
I00
sg24
S'L'
sbsg25
(irule
FeatureMatrix
p3756
(dp3757
g28
(lp3758
(I00
g3005
tp3759
asg22
Nsbsg31
(irule
Guard
p3760
(dp3761
g18
I00
sg19
(lp3762
(irule
FeatureMatrix
p3763
(dp3764
g28
(lp3765
(I00
g3321
tp3766
asg22
Nsba(irule
FeatureMatrix
p3767
(dp3768
g28
(lp3769
(I00
g3039
tp3770
asg22
Nsbasg21
I00
sg22
Nsg23
I00
sg24
S'R'
sbsg35
(irule
FeatureMatrix
p3771
(dp3772
g28
(lp3773
sg22
Nsbsg22
Nsba(irule
Rule
p3774
(dp3775
g15
(irule
Guard
p3776
(dp3777
g18
I00
sg19
(lp3778
sg21
I00
sg22
Nsg23
I00
sg24
S'L'
sbsg25
(irule
FeatureMatrix
p3779
(dp3780
g28
(lp3781
(I00
g3005
tp3782
asg22
Nsbsg31
(irule
Guard
p3783
(dp3784
g18
I00
sg19
(lp3785
(irule
FeatureMatrix
p3786
(dp3787
g28
(lp3788
sg22
Nsba(irule
FeatureMatrix
p3789
(dp3790
g28
(lp3791
(I00
g3082
tp3792
asg22
Nsbasg21
I00
sg22
Nsg23
I00
sg24
S'R'
sbsg35
(irule
FeatureMatrix
p3793
(dp3794
g28
(lp3795
(I00
g3016
tp3796
asg22
Nsbsg22
Nsba(irule
Rule
p3797
(dp3798
g15
(irule
Guard
p3799
(dp3800
g18
I00
sg19
(lp3801
sg21
I00
sg22
Nsg23
I00
sg24
S'L'
sbsg25
(irule
FeatureMatrix
p3802
(dp3803
g28
(lp3804
(I00
g3005
tp3805
asg22
Nsbsg31
(irule
Guard
p3806
(dp3807
g18
I00
sg19
(lp3808
(irule
FeatureMatrix
p3809
(dp3810
g28
(lp3811
(I00
g3321
tp3812
asg22
Nsba(irule
FeatureMatrix
p3813
(dp3814
g28
(lp3815
(I00
g3082
tp3816
asg22
Nsbasg21
I00
sg22
Nsg23
I00
sg24
S'R'
sbsg35
(irule
FeatureMatrix
p3817
(dp3818
g28
(lp3819
sg22
Nsbsg22
Nsba(irule
Rule
p3820
(dp3821
g15
(irule
Guard
p3822
(dp3823
g18
I00
sg19
(lp3824
sg21
I00
sg22
Nsg23
I00
sg24
S'L'
sbsg25
(irule
FeatureMatrix
p3825
(dp3826
g28
(lp3827
(I00
g3005
tp3828
asg22
Nsbsg31
(irule
Guard
p3829
(dp3830
g18
I00
sg19
(lp3831
(irule
FeatureMatrix
p3832
(dp3833
g28
(lp3834
sg22
Nsba(irule
FeatureMatrix
p3835
(dp3836
g28
(lp3837
(I00
g3039
tp3838
asg22
Nsbasg21
I00
sg22
Nsg23
I00
sg24
S'R'
sbsg35
(irule
FeatureMatrix
p3839
(dp3840
g28
(lp3841
(I01
g3138
tp3842
asg22
Nsbsg22
Nsba(irule
Rule
p3843
(dp3844
g15
(irule
Guard
p3845
(dp3846
g18
I00
sg19
(lp3847
sg21
I00
sg22
Nsg23
I00
sg24
S'L'
sbsg25
(irule
FeatureMatrix
p3848
(dp3849
g28
(lp3850
(I00
g3005
tp3851
asg22
Nsbsg31
(irule
Guard
p3852
(dp3853
g18
I00
sg19
(lp3854
(irule
FeatureMatrix
p3855
(dp3856
g28
(lp3857
sg22
Nsba(irule
FeatureMatrix
p3858
(dp3859
g28
(lp3860
(I00
g3016
tp3861
a(I00
g3703
tp3862
asg22
Nsbasg21
I00
sg22
Nsg23
I00
sg24
S'R'
sbsg35
(irule
FeatureMatrix
p3863
(dp3864
g28
(lp3865
sg22
Nsbsg22
Nsba(irule
Rule
p3866
(dp3867
g15
(irule
Guard
p3868
(dp3869
g18
I00
sg19
(lp3870
sg21
I00
sg22
Nsg23
I00
sg24
S'L'
sbsg25
(irule
FeatureMatrix
p3871
(dp3872
g28
(lp3873
(I00
g3005
tp3874
asg22
Nsbsg31
(irule
Guard
p3875
(dp3876
g18
I00
sg19
(lp3877
(irule
FeatureMatrix
p3878
(dp3879
g28
(lp3880
(I00
g3178
tp3881
asg22
Nsba(irule
FeatureMatrix
p3882
(dp3883
g28
(lp3884
(I00
g3039
tp3885
asg22
Nsbasg21
I00
sg22
Nsg23
I00
sg24
S'R'
sbsg35
(irule
FeatureMatrix
p3886
(dp3887
g28
(lp3888
sg22
Nsbsg22
Nsba(irule
Rule
p3889
(dp3890
g15
(irule
Guard
p3891
(dp3892
g18
I00
sg19
(lp3893
sg21
I00
sg22
Nsg23
I00
sg24
S'L'
sbsg25
(irule
FeatureMatrix
p3894
(dp3895
g28
(lp3896
(I00
g3005
tp3897
asg22
Nsbsg31
(irule
Guard
p3898
(dp3899
g18
I00
sg19
(lp3900
(irule
FeatureMatrix
p3901
(dp3902
g28
(lp3903
sg22
Nsba(irule
FeatureMatrix
p3904
(dp3905
g28
(lp3906
(I00
g3039
tp3907
asg22
Nsbasg21
I00
sg22
Nsg23
I00
sg24
S'R'
sbsg35
(irule
FeatureMatrix
p3908
(dp3909
g28
(lp3910
(I01
g3082
tp3911
asg22
Nsbsg22
Nsba(irule
Rule
p3912
(dp3913
g15
(irule
Guard
p3914
(dp3915
g18
I00
sg19
(lp3916
sg21
I00
sg22
Nsg23
I00
sg24
S'L'
sbsg25
(irule
FeatureMatrix
p3917
(dp3918
g28
(lp3919
(I00
g3005
tp3920
asg22
Nsbsg31
(irule
Guard
p3921
(dp3922
g18
I00
sg19
(lp3923
(irule
FeatureMatrix
p3924
(dp3925
g28
(lp3926
sg22
Nsba(irule
FeatureMatrix
p3927
(dp3928
g28
(lp3929
(I00
g3016
tp3930
asg22
Nsbasg21
I00
sg22
Nsg23
I00
sg24
S'R'
sbsg35
(irule
FeatureMatrix
p3931
(dp3932
g28
(lp3933
(I01
g3005
tp3934
asg22
Nsbsg22
Nsba(irule
Rule
p3935
(dp3936
g15
(irule
Guard
p3937
(dp3938
g18
I00
sg19
(lp3939
sg21
I00
sg22
Nsg23
I00
sg24
S'L'
sbsg25
(irule
FeatureMatrix
p3940
(dp3941
g28
(lp3942
(I00
g3005
tp3943
asg22
Nsbsg31
(irule
Guard
p3944
(dp3945
g18
I00
sg19
(lp3946
(irule
FeatureMatrix
p3947
(dp3948
g28
(lp3949
sg22
Nsba(irule
FeatureMatrix
p3950
(dp3951
g28
(lp3952
(I00
g3463
tp3953
a(I00
g3016
tp3954
asg22
Nsbasg21
I00
sg22
Nsg23
I00
sg24
S'R'
sbsg35
(irule
FeatureMatrix
p3955
(dp3956
g28
(lp3957
sg22
Nsbsg22
Nsba(irule
Rule
p3958
(dp3959
g15
(irule
Guard
p3960
(dp3961
g18
I00
sg19
(lp3962
sg21
I00
sg22
Nsg23
I00
sg24
S'L'
sbsg25
(irule
FeatureMatrix
p3963
(dp3964
g28
(lp3965
(I00
g3005
tp3966
asg22
Nsbsg31
(irule
Guard
p3967
(dp3968
g18
I00
sg19
(lp3969
(irule
FeatureMatrix
p3970
(dp3971
g28
(lp3972
sg22
Nsba(irule
FeatureMatrix
p3973
(dp3974
g28
(lp3975
(I00
g3082
tp3976
asg22
Nsbasg21
I00
sg22
Nsg23
I00
sg24
S'R'
sbsg35
(irule
FeatureMatrix
p3977
(dp3978
g28
(lp3979
(I00
g3255
tp3980
asg22
Nsbsg22
Nsba(irule
Rule
p3981
(dp3982
g15
(irule
Guard
p3983
(dp3984
g18
I00
sg19
(lp3985
sg21
I00
sg22
Nsg23
I00
sg24
S'L'
sbsg25
(irule
FeatureMatrix
p3986
(dp3987
g28
(lp3988
(I00
g3005
tp3989
asg22
Nsbsg31
(irule
Guard
p3990
(dp3991
g18
I00
sg19
(lp3992
(irule
FeatureMatrix
p3993
(dp3994
g28
(lp3995
sg22
Nsba(irule
FeatureMatrix
p3996
(dp3997
g28
(lp3998
(I00
g3016
tp3999
a(I00
g3082
tp4000
asg22
Nsbasg21
I00
sg22
Nsg23
I00
sg24
S'R'
sbsg35
(irule
FeatureMatrix
p4001
(dp4002
g28
(lp4003
sg22
Nsbsg22
Nsba(irule
Rule
p4004
(dp4005
g15
(irule
Guard
p4006
(dp4007
g18
I00
sg19
(lp4008
sg21
I00
sg22
Nsg23
I00
sg24
S'L'
sbsg25
(irule
FeatureMatrix
p4009
(dp4010
g28
(lp4011
(I00
g3005
tp4012
asg22
Nsbsg31
(irule
Guard
p4013
(dp4014
g18
I00
sg19
(lp4015
(irule
FeatureMatrix
p4016
(dp4017
g28
(lp4018
sg22
Nsba(irule
FeatureMatrix
p4019
(dp4020
g28
(lp4021
(I01
g3423
tp4022
a(I00
g3016
tp4023
asg22
Nsbasg21
I00
sg22
Nsg23
I00
sg24
S'R'
sbsg35
(irule
FeatureMatrix
p4024
(dp4025
g28
(lp4026
sg22
Nsbsg22
Nsba(irule
Rule
p4027
(dp4028
g15
(irule
Guard
p4029
(dp4030
g18
I00
sg19
(lp4031
sg21
I00
sg22
Nsg23
I00
sg24
S'L'
sbsg25
(irule
FeatureMatrix
p4032
(dp4033
g28
(lp4034
(I00
g3005
tp4035
asg22
Nsbsg31
(irule
Guard
p4036
(dp4037
g18
I00
sg19
(lp4038
(irule
FeatureMatrix
p4039
(dp4040
g28
(lp4041
sg22
Nsba(irule
FeatureMatrix
p4042
(dp4043
g28
(lp4044
(I00
g3016
tp4045
asg22
Nsbasg21
I00
sg22
Nsg23
I00
sg24
S'R'
sbsg35
(irule
FeatureMatrix
p4046
(dp4047
g28
(lp4048
(I01
S'continuant'
p4049
tp4050
asg22
Nsbsg22
Nsba(irule
Rule
p4051
(dp4052
g15
(irule
Guard
p4053
(dp4054
g18
I00
sg19
(lp4055
sg21
I00
sg22
Nsg23
I00
sg24
S'L'
sbsg25
(irule
FeatureMatrix
p4056
(dp4057
g28
(lp4058
(I00
g3005
tp4059
asg22
Nsbsg31
(irule
Guard
p4060
(dp4061
g18
I00
sg19
(lp4062
(irule
FeatureMatrix
p4063
(dp4064
g28
(lp4065
(I00
g3039
tp4066
asg22
Nsba(irule
FeatureMatrix
p4067
(dp4068
g28
(lp4069
(I00
g3082
tp4070
asg22
Nsbasg21
I00
sg22
Nsg23
I00
sg24
S'R'
sbsg35
(irule
FeatureMatrix
p4071
(dp4072
g28
(lp4073
sg22
Nsbsg22
Nsba(irule
Rule
p4074
(dp4075
g15
(irule
Guard
p4076
(dp4077
g18
I00
sg19
(lp4078
sg21
I00
sg22
Nsg23
I00
sg24
S'L'
sbsg25
(irule
FeatureMatrix
p4079
(dp4080
g28
(lp4081
(I00
g3005
tp4082
asg22
Nsbsg31
(irule
Guard
p4083
(dp4084
g18
I00
sg19
(lp4085
(irule
FeatureMatrix
p4086
(dp4087
g28
(lp4088
sg22
Nsba(irule
FeatureMatrix
p4089
(dp4090
g28
(lp4091
(I00
g3016
tp4092
asg22
Nsbasg21
I00
sg22
Nsg23
I00
sg24
S'R'
sbsg35
(irule
FeatureMatrix
p4093
(dp4094
g28
(lp4095
(I00
S'glide'
p4096
tp4097
asg22
Nsbsg22
Nsba(irule
Rule
p4098
(dp4099
g15
(irule
Guard
p4100
(dp4101
g18
I00
sg19
(lp4102
sg21
I00
sg22
Nsg23
I00
sg24
S'L'
sbsg25
(irule
FeatureMatrix
p4103
(dp4104
g28
(lp4105
(I00
g3005
tp4106
asg22
Nsbsg31
(irule
Guard
p4107
(dp4108
g18
I00
sg19
(lp4109
(irule
FeatureMatrix
p4110
(dp4111
g28
(lp4112
sg22
Nsba(irule
FeatureMatrix
p4113
(dp4114
g28
(lp4115
(I00
g3016
tp4116
asg22
Nsbasg21
I00
sg22
Nsg23
I00
sg24
S'R'
sbsg35
(irule
FeatureMatrix
p4117
(dp4118
g28
(lp4119
(I01
g3039
tp4120
asg22
Nsbsg22
Nsba(irule
Rule
p4121
(dp4122
g15
(irule
Guard
p4123
(dp4124
g18
I00
sg19
(lp4125
sg21
I00
sg22
Nsg23
I00
sg24
S'L'
sbsg25
(irule
FeatureMatrix
p4126
(dp4127
g28
(lp4128
(I00
g3005
tp4129
asg22
Nsbsg31
(irule
Guard
p4130
(dp4131
g18
I00
sg19
(lp4132
(irule
FeatureMatrix
p4133
(dp4134
g28
(lp4135
(I00
g3005
tp4136
asg22
Nsba(irule
FeatureMatrix
p4137
(dp4138
g28
(lp4139
(I00
g3082
tp4140
asg22
Nsbasg21
I00
sg22
Nsg23
I00
sg24
S'R'
sbsg35
(irule
FeatureMatrix
p4141
(dp4142
g28
(lp4143
sg22
Nsbsg22
Nsba(irule
Rule
p4144
(dp4145
g15
(irule
Guard
p4146
(dp4147
g18
I00
sg19
(lp4148
sg21
I00
sg22
Nsg23
I00
sg24
S'L'
sbsg25
(irule
FeatureMatrix
p4149
(dp4150
g28
(lp4151
(I00
g3005
tp4152
asg22
Nsbsg31
(irule
Guard
p4153
(dp4154
g18
I00
sg19
(lp4155
(irule
FeatureMatrix
p4156
(dp4157
g28
(lp4158
sg22
Nsba(irule
FeatureMatrix
p4159
(dp4160
g28
(lp4161
(I00
g3039
tp4162
asg22
Nsbasg21
I00
sg22
Nsg23
I00
sg24
S'R'
sbsg35
(irule
FeatureMatrix
p4163
(dp4164
g28
(lp4165
(I00
g3494
tp4166
asg22
Nsbsg22
Nsba(irule
Rule
p4167
(dp4168
g15
(irule
Guard
p4169
(dp4170
g18
I00
sg19
(lp4171
sg21
I00
sg22
Nsg23
I00
sg24
S'L'
sbsg25
(irule
FeatureMatrix
p4172
(dp4173
g28
(lp4174
(I00
g3005
tp4175
asg22
Nsbsg31
(irule
Guard
p4176
(dp4177
g18
I00
sg19
(lp4178
(irule
FeatureMatrix
p4179
(dp4180
g28
(lp4181
sg22
Nsba(irule
FeatureMatrix
p4182
(dp4183
g28
(lp4184
(I00
g3039
tp4185
asg22
Nsbasg21
I00
sg22
Nsg23
I00
sg24
S'R'
sbsg35
(irule
FeatureMatrix
p4186
(dp4187
g28
(lp4188
(I00
g3178
tp4189
asg22
Nsbsg22
Nsba(irule
Rule
p4190
(dp4191
g15
(irule
Guard
p4192
(dp4193
g18
I00
sg19
(lp4194
sg21
I00
sg22
Nsg23
I00
sg24
S'L'
sbsg25
(irule
FeatureMatrix
p4195
(dp4196
g28
(lp4197
(I00
g3005
tp4198
asg22
Nsbsg31
(irule
Guard
p4199
(dp4200
g18
I00
sg19
(lp4201
(irule
FeatureMatrix
p4202
(dp4203
g28
(lp4204
(I00
g3463
tp4205
asg22
Nsba(irule
FeatureMatrix
p4206
(dp4207
g28
(lp4208
(I00
g3039
tp4209
asg22
Nsbasg21
I00
sg22
Nsg23
I00
sg24
S'R'
sbsg35
(irule
FeatureMatrix
p4210
(dp4211
g28
(lp4212
sg22
Nsbsg22
Nsba(irule
Rule
p4213
(dp4214
g15
(irule
Guard
p4215
(dp4216
g18
I00
sg19
(lp4217
sg21
I00
sg22
Nsg23
I00
sg24
S'L'
sbsg25
(irule
FeatureMatrix
p4218
(dp4219
g28
(lp4220
(I00
g3005
tp4221
asg22
Nsbsg31
(irule
Guard
p4222
(dp4223
g18
I00
sg19
(lp4224
(irule
FeatureMatrix
p4225
(dp4226
g28
(lp4227
sg22
Nsba(irule
FeatureMatrix
p4228
(dp4229
g28
(lp4230
(I00
g3039
tp4231
asg22
Nsbasg21
I00
sg22
Nsg23
I00
sg24
S'R'
sbsg35
(irule
FeatureMatrix
p4232
(dp4233
g28
(lp4234
(I00
g3304
tp4235
asg22
Nsbsg22
Nsba(irule
Rule
p4236
(dp4237
g15
(irule
Guard
p4238
(dp4239
g18
I00
sg19
(lp4240
sg21
I00
sg22
Nsg23
I00
sg24
S'L'
sbsg25
(irule
FeatureMatrix
p4241
(dp4242
g28
(lp4243
(I00
g3005
tp4244
asg22
Nsbsg31
(irule
Guard
p4245
(dp4246
g18
I00
sg19
(lp4247
(irule
FeatureMatrix
p4248
(dp4249
g28
(lp4250
(I00
g3039
tp4251
asg22
Nsba(irule
FeatureMatrix
p4252
(dp4253
g28
(lp4254
(I00
g3039
tp4255
asg22
Nsbasg21
I00
sg22
Nsg23
I00
sg24
S'R'
sbsg35
(irule
FeatureMatrix
p4256
(dp4257
g28
(lp4258
sg22
Nsbsg22
Nsba(irule
Rule
p4259
(dp4260
g15
(irule
Guard
p4261
(dp4262
g18
I00
sg19
(lp4263
sg21
I00
sg22
Nsg23
I00
sg24
S'L'
sbsg25
(irule
FeatureMatrix
p4264
(dp4265
g28
(lp4266
(I00
g3005
tp4267
asg22
Nsbsg31
(irule
Guard
p4268
(dp4269
g18
I00
sg19
(lp4270
(irule
FeatureMatrix
p4271
(dp4272
g28
(lp4273
sg22
Nsba(irule
FeatureMatrix
p4274
(dp4275
g28
(lp4276
(I00
g3039
tp4277
asg22
Nsbasg21
I00
sg22
Nsg23
I00
sg24
S'R'
sbsg35
(irule
FeatureMatrix
p4278
(dp4279
g28
(lp4280
(I01
g3039
tp4281
asg22
Nsbsg22
Nsba(irule
Rule
p4282
(dp4283
g15
(irule
Guard
p4284
(dp4285
g18
I00
sg19
(lp4286
sg21
I00
sg22
Nsg23
I00
sg24
S'L'
sbsg25
(irule
FeatureMatrix
p4287
(dp4288
g28
(lp4289
(I00
g3005
tp4290
asg22
Nsbsg31
(irule
Guard
p4291
(dp4292
g18
I00
sg19
(lp4293
(irule
FeatureMatrix
p4294
(dp4295
g28
(lp4296
sg22
Nsba(irule
FeatureMatrix
p4297
(dp4298
g28
(lp4299
(I00
g3016
tp4300
a(I00
g3039
tp4301
asg22
Nsbasg21
I00
sg22
Nsg23
I00
sg24
S'R'
sbsg35
(irule
FeatureMatrix
p4302
(dp4303
g28
(lp4304
sg22
Nsbsg22
Nsba(irule
Rule
p4305
(dp4306
g15
(irule
Guard
p4307
(dp4308
g18
I00
sg19
(lp4309
sg21
I00
sg22
Nsg23
I00
sg24
S'L'
sbsg25
(irule
FeatureMatrix
p4310
(dp4311
g28
(lp4312
(I00
g3005
tp4313
asg22
Nsbsg31
(irule
Guard
p4314
(dp4315
g18
I00
sg19
(lp4316
(irule
FeatureMatrix
p4317
(dp4318
g28
(lp4319
(I00
g3005
tp4320
asg22
Nsba(irule
FeatureMatrix
p4321
(dp4322
g28
(lp4323
(I00
g3039
tp4324
asg22
Nsbasg21
I00
sg22
Nsg23
I00
sg24
S'R'
sbsg35
(irule
FeatureMatrix
p4325
(dp4326
g28
(lp4327
sg22
Nsbsg22
Nsba(irule
Rule
p4328
(dp4329
g15
(irule
Guard
p4330
(dp4331
g18
I00
sg19
(lp4332
sg21
I00
sg22
Nsg23
I00
sg24
S'L'
sbsg25
(irule
FeatureMatrix
p4333
(dp4334
g28
(lp4335
(I00
g3005
tp4336
asg22
Nsbsg31
(irule
Guard
p4337
(dp4338
g18
I00
sg19
(lp4339
(irule
FeatureMatrix
p4340
(dp4341
g28
(lp4342
sg22
Nsba(irule
FeatureMatrix
p4343
(dp4344
g28
(lp4345
(I01
g3178
tp4346
asg22
Nsbasg21
I00
sg22
Nsg23
I01
sg24
S'R'
sbsg35
(irule
FeatureMatrix
p4347
(dp4348
g28
(lp4349
sg22
Nsbsg22
Nsba(irule
Rule
p4350
(dp4351
g15
(irule
Guard
p4352
(dp4353
g18
I00
sg19
(lp4354
sg21
I00
sg22
Nsg23
I00
sg24
S'L'
sbsg25
(irule
FeatureMatrix
p4355
(dp4356
g28
(lp4357
(I00
g3005
tp4358
asg22
Nsbsg31
(irule
Guard
p4359
(dp4360
g18
I00
sg19
(lp4361
(irule
FeatureMatrix
p4362
(dp4363
g28
(lp4364
sg22
Nsba(irule
FeatureMatrix
p4365
(dp4366
g28
(lp4367
(I00
g3082
tp4368
asg22
Nsbasg21
I00
sg22
Nsg23
I00
sg24
S'R'
sbsg35
(irule
FeatureMatrix
p4369
(dp4370
g28
(lp4371
(I01
g3039
tp4372
asg22
Nsbsg22
Nsba(irule
Rule
p4373
(dp4374
g15
(irule
Guard
p4375
(dp4376
g18
I00
sg19
(lp4377
sg21
I00
sg22
Nsg23
I00
sg24
S'L'
sbsg25
(irule
FeatureMatrix
p4378
(dp4379
g28
(lp4380
(I00
g3005
tp4381
asg22
Nsbsg31
(irule
Guard
p4382
(dp4383
g18
I00
sg19
(lp4384
(irule
FeatureMatrix
p4385
(dp4386
g28
(lp4387
sg22
Nsba(irule
FeatureMatrix
p4388
(dp4389
g28
(lp4390
(I00
g4096
tp4391
a(I00
g3016
tp4392
asg22
Nsbasg21
I00
sg22
Nsg23
I00
sg24
S'R'
sbsg35
(irule
FeatureMatrix
p4393
(dp4394
g28
(lp4395
sg22
Nsbsg22
Nsba(irule
Rule
p4396
(dp4397
g15
(irule
Guard
p4398
(dp4399
g18
I00
sg19
(lp4400
sg21
I00
sg22
Nsg23
I00
sg24
S'L'
sbsg25
(irule
FeatureMatrix
p4401
(dp4402
g28
(lp4403
(I00
g3005
tp4404
asg22
Nsbsg31
(irule
Guard
p4405
(dp4406
g18
I00
sg19
(lp4407
(irule
FeatureMatrix
p4408
(dp4409
g28
(lp4410
sg22
Nsba(irule
ConstantPhoneme
p4411
(dp4412
S'p'
Vn
sbasg21
I00
sg22
Nsg23
I01
sg24
S'R'
sbsg35
(irule
FeatureMatrix
p4413
(dp4414
g28
(lp4415
sg22
Nsbsg22
Nsba(irule
Rule
p4416
(dp4417
g15
(irule
Guard
p4418
(dp4419
g18
I00
sg19
(lp4420
sg21
I00
sg22
Nsg23
I00
sg24
S'L'
sbsg25
(irule
FeatureMatrix
p4421
(dp4422
g28
(lp4423
(I00
g3005
tp4424
asg22
Nsbsg31
(irule
Guard
p4425
(dp4426
g18
I00
sg19
(lp4427
(irule
FeatureMatrix
p4428
(dp4429
g28
(lp4430
sg22
Nsba(irule
FeatureMatrix
p4431
(dp4432
g28
(lp4433
(I00
g3039
tp4434
a(I00
g3304
tp4435
asg22
Nsbasg21
I00
sg22
Nsg23
I00
sg24
S'R'
sbsg35
(irule
FeatureMatrix
p4436
(dp4437
g28
(lp4438
sg22
Nsbsg22
Nsba(irule
Rule
p4439
(dp4440
g15
(irule
Guard
p4441
(dp4442
g18
I00
sg19
(lp4443
sg21
I00
sg22
Nsg23
I00
sg24
S'L'
sbsg25
(irule
FeatureMatrix
p4444
(dp4445
g28
(lp4446
(I00
g3005
tp4447
asg22
Nsbsg31
(irule
Guard
p4448
(dp4449
g18
I00
sg19
(lp4450
(irule
FeatureMatrix
p4451
(dp4452
g28
(lp4453
sg22
Nsba(irule
FeatureMatrix
p4454
(dp4455
g28
(lp4456
(I00
g3082
tp4457
asg22
Nsbasg21
I00
sg22
Nsg23
I00
sg24
S'R'
sbsg35
(irule
FeatureMatrix
p4458
(dp4459
g28
(lp4460
(I00
g3178
tp4461
asg22
Nsbsg22
Nsba(irule
Rule
p4462
(dp4463
g15
(irule
Guard
p4464
(dp4465
g18
I00
sg19
(lp4466
sg21
I00
sg22
Nsg23
I00
sg24
S'L'
sbsg25
(irule
FeatureMatrix
p4467
(dp4468
g28
(lp4469
(I00
g3005
tp4470
asg22
Nsbsg31
(irule
Guard
p4471
(dp4472
g18
I00
sg19
(lp4473
(irule
FeatureMatrix
p4474
(dp4475
g28
(lp4476
sg22
Nsba(irule
FeatureMatrix
p4477
(dp4478
g28
(lp4479
(I00
g3082
tp4480
a(I00
g3304
tp4481
asg22
Nsbasg21
I00
sg22
Nsg23
I00
sg24
S'R'
sbsg35
(irule
FeatureMatrix
p4482
(dp4483
g28
(lp4484
sg22
Nsbsg22
Nsba(irule
Rule
p4485
(dp4486
g15
(irule
Guard
p4487
(dp4488
g18
I00
sg19
(lp4489
sg21
I00
sg22
Nsg23
I00
sg24
S'L'
sbsg25
(irule
FeatureMatrix
p4490
(dp4491
g28
(lp4492
(I00
g3005
tp4493
asg22
Nsbsg31
(irule
Guard
p4494
(dp4495
g18
I00
sg19
(lp4496
(irule
FeatureMatrix
p4497
(dp4498
g28
(lp4499
(I00
g3304
tp4500
asg22
Nsba(irule
FeatureMatrix
p4501
(dp4502
g28
(lp4503
(I00
g3082
tp4504
asg22
Nsbasg21
I00
sg22
Nsg23
I00
sg24
S'R'
sbsg35
(irule
FeatureMatrix
p4505
(dp4506
g28
(lp4507
sg22
Nsbsg22
Nsba(irule
Rule
p4508
(dp4509
g15
(irule
Guard
p4510
(dp4511
g18
I00
sg19
(lp4512
sg21
I00
sg22
Nsg23
I00
sg24
S'L'
sbsg25
(irule
FeatureMatrix
p4513
(dp4514
g28
(lp4515
(I00
g3005
tp4516
asg22
Nsbsg31
(irule
Guard
p4517
(dp4518
g18
I00
sg19
(lp4519
(irule
FeatureMatrix
p4520
(dp4521
g28
(lp4522
(I00
g3463
tp4523
asg22
Nsba(irule
FeatureMatrix
p4524
(dp4525
g28
(lp4526
(I00
g3082
tp4527
asg22
Nsbasg21
I00
sg22
Nsg23
I00
sg24
S'R'
sbsg35
(irule
FeatureMatrix
p4528
(dp4529
g28
(lp4530
sg22
Nsbsg22
Nsba(irule
Rule
p4531
(dp4532
g15
(irule
Guard
p4533
(dp4534
g18
I00
sg19
(lp4535
sg21
I00
sg22
Nsg23
I00
sg24
S'L'
sbsg25
(irule
FeatureMatrix
p4536
(dp4537
g28
(lp4538
(I00
g3005
tp4539
asg22
Nsbsg31
(irule
Guard
p4540
(dp4541
g18
I00
sg19
(lp4542
(irule
FeatureMatrix
p4543
(dp4544
g28
(lp4545
sg22
Nsba(irule
FeatureMatrix
p4546
(dp4547
g28
(lp4548
(I00
g3039
tp4549
asg22
Nsbasg21
I00
sg22
Nsg23
I00
sg24
S'R'
sbsg35
(irule
FeatureMatrix
p4550
(dp4551
g28
(lp4552
(I01
g3005
tp4553
asg22
Nsbsg22
Nsba(irule
Rule
p4554
(dp4555
g15
(irule
Guard
p4556
(dp4557
g18
I00
sg19
(lp4558
sg21
I00
sg22
Nsg23
I00
sg24
S'L'
sbsg25
(irule
FeatureMatrix
p4559
(dp4560
g28
(lp4561
(I00
g3005
tp4562
asg22
Nsbsg31
(irule
Guard
p4563
(dp4564
g18
I00
sg19
(lp4565
(irule
FeatureMatrix
p4566
(dp4567
g28
(lp4568
sg22
Nsba(irule
FeatureMatrix
p4569
(dp4570
g28
(lp4571
(I00
g4096
tp4572
a(I00
g3039
tp4573
asg22
Nsbasg21
I00
sg22
Nsg23
I00
sg24
S'R'
sbsg35
(irule
FeatureMatrix
p4574
(dp4575
g28
(lp4576
sg22
Nsbsg22
Nsba(irule
Rule
p4577
(dp4578
g15
(irule
Guard
p4579
(dp4580
g18
I00
sg19
(lp4581
sg21
I00
sg22
Nsg23
I00
sg24
S'L'
sbsg25
(irule
FeatureMatrix
p4582
(dp4583
g28
(lp4584
(I00
g3005
tp4585
asg22
Nsbsg31
(irule
Guard
p4586
(dp4587
g18
I00
sg19
(lp4588
(irule
FeatureMatrix
p4589
(dp4590
g28
(lp4591
sg22
Nsba(irule
FeatureMatrix
p4592
(dp4593
g28
(lp4594
(I00
g3005
tp4595
a(I00
g3039
tp4596
asg22
Nsbasg21
I00
sg22
Nsg23
I00
sg24
S'R'
sbsg35
(irule
FeatureMatrix
p4597
(dp4598
g28
(lp4599
sg22
Nsbsg22
Nsba(irule
Rule
p4600
(dp4601
g15
(irule
Guard
p4602
(dp4603
g18
I00
sg19
(lp4604
sg21
I00
sg22
Nsg23
I00
sg24
S'L'
sbsg25
(irule
FeatureMatrix
p4605
(dp4606
g28
(lp4607
(I00
g3005
tp4608
asg22
Nsbsg31
(irule
Guard
p4609
(dp4610
g18
I00
sg19
(lp4611
(irule
FeatureMatrix
p4612
(dp4613
g28
(lp4614
(I00
g3178
tp4615
asg22
Nsba(irule
FeatureMatrix
p4616
(dp4617
g28
(lp4618
(I00
g3082
tp4619
asg22
Nsbasg21
I00
sg22
Nsg23
I00
sg24
S'R'
sbsg35
(irule
FeatureMatrix
p4620
(dp4621
g28
(lp4622
sg22
Nsbsg22
Nsba(irule
Rule
p4623
(dp4624
g15
(irule
Guard
p4625
(dp4626
g18
I00
sg19
(lp4627
sg21
I00
sg22
Nsg23
I00
sg24
S'L'
sbsg25
(irule
FeatureMatrix
p4628
(dp4629
g28
(lp4630
(I00
g3005
tp4631
asg22
Nsbsg31
(irule
Guard
p4632
(dp4633
g18
I00
sg19
(lp4634
(irule
FeatureMatrix
p4635
(dp4636
g28
(lp4637
sg22
Nsba(irule
FeatureMatrix
p4638
(dp4639
g28
(lp4640
(I00
g3005
tp4641
a(I00
g3082
tp4642
asg22
Nsbasg21
I00
sg22
Nsg23
I00
sg24
S'R'
sbsg35
(irule
FeatureMatrix
p4643
(dp4644
g28
(lp4645
sg22
Nsbsg22
Nsba(irule
Rule
p4646
(dp4647
g15
(irule
Guard
p4648
(dp4649
g18
I00
sg19
(lp4650
sg21
I00
sg22
Nsg23
I00
sg24
S'L'
sbsg25
(irule
FeatureMatrix
p4651
(dp4652
g28
(lp4653
(I00
g3005
tp4654
asg22
Nsbsg31
(irule
Guard
p4655
(dp4656
g18
I00
sg19
(lp4657
(irule
FeatureMatrix
p4658
(dp4659
g28
(lp4660
sg22
Nsba(irule
FeatureMatrix
p4661
(dp4662
g28
(lp4663
(I00
g3082
tp4664
asg22
Nsbasg21
I00
sg22
Nsg23
I00
sg24
S'R'
sbsg35
(irule
FeatureMatrix
p4665
(dp4666
g28
(lp4667
(I00
g3703
tp4668
asg22
Nsbsg22
Nsba(irule
Rule
p4669
(dp4670
g15
(irule
Guard
p4671
(dp4672
g18
I00
sg19
(lp4673
sg21
I00
sg22
Nsg23
I00
sg24
S'L'
sbsg25
(irule
FeatureMatrix
p4674
(dp4675
g28
(lp4676
(I00
g3005
tp4677
asg22
Nsbsg31
(irule
Guard
p4678
(dp4679
g18
I00
sg19
(lp4680
(irule
FeatureMatrix
p4681
(dp4682
g28
(lp4683
sg22
Nsba(irule
FeatureMatrix
p4684
(dp4685
g28
(lp4686
(I00
g3463
tp4687
a(I00
g3082
tp4688
asg22
Nsbasg21
I00
sg22
Nsg23
I00
sg24
S'R'
sbsg35
(irule
FeatureMatrix
p4689
(dp4690
g28
(lp4691
sg22
Nsbsg22
Nsba(irule
Rule
p4692
(dp4693
g15
(irule
Guard
p4694
(dp4695
g18
I00
sg19
(lp4696
sg21
I00
sg22
Nsg23
I00
sg24
S'L'
sbsg25
(irule
FeatureMatrix
p4697
(dp4698
g28
(lp4699
(I00
g3005
tp4700
asg22
Nsbsg31
(irule
Guard
p4701
(dp4702
g18
I00
sg19
(lp4703
(irule
FeatureMatrix
p4704
(dp4705
g28
(lp4706
sg22
Nsba(irule
FeatureMatrix
p4707
(dp4708
g28
(lp4709
(I00
g3082
tp4710
asg22
Nsbasg21
I00
sg22
Nsg23
I00
sg24
S'R'
sbsg35
(irule
FeatureMatrix
p4711
(dp4712
g28
(lp4713
(I00
g3304
tp4714
asg22
Nsbsg22
Nsba(irule
Rule
p4715
(dp4716
g15
(irule
Guard
p4717
(dp4718
g18
I00
sg19
(lp4719
sg21
I00
sg22
Nsg23
I00
sg24
S'L'
sbsg25
(irule
FeatureMatrix
p4720
(dp4721
g28
(lp4722
(I00
g3005
tp4723
asg22
Nsbsg31
(irule
Guard
p4724
(dp4725
g18
I00
sg19
(lp4726
(irule
FeatureMatrix
p4727
(dp4728
g28
(lp4729
sg22
Nsba(irule
FeatureMatrix
p4730
(dp4731
g28
(lp4732
(I01
g3423
tp4733
a(I00
g3039
tp4734
asg22
Nsbasg21
I00
sg22
Nsg23
I00
sg24
S'R'
sbsg35
(irule
FeatureMatrix
p4735
(dp4736
g28
(lp4737
sg22
Nsbsg22
Nsba(irule
Rule
p4738
(dp4739
g15
(irule
Guard
p4740
(dp4741
g18
I00
sg19
(lp4742
sg21
I00
sg22
Nsg23
I00
sg24
S'L'
sbsg25
(irule
FeatureMatrix
p4743
(dp4744
g28
(lp4745
(I00
g3005
tp4746
asg22
Nsbsg31
(irule
Guard
p4747
(dp4748
g18
I00
sg19
(lp4749
(irule
FeatureMatrix
p4750
(dp4751
g28
(lp4752
sg22
Nsba(irule
FeatureMatrix
p4753
(dp4754
g28
(lp4755
(I00
g3039
tp4756
asg22
Nsbasg21
I00
sg22
Nsg23
I00
sg24
S'R'
sbsg35
(irule
FeatureMatrix
p4757
(dp4758
g28
(lp4759
(I00
g3703
tp4760
asg22
Nsbsg22
Nsba(irule
Rule
p4761
(dp4762
g15
(irule
Guard
p4763
(dp4764
g18
I00
sg19
(lp4765
sg21
I00
sg22
Nsg23
I00
sg24
S'L'
sbsg25
(irule
FeatureMatrix
p4766
(dp4767
g28
(lp4768
(I00
g3005
tp4769
asg22
Nsbsg31
(irule
Guard
p4770
(dp4771
g18
I00
sg19
(lp4772
(irule
FeatureMatrix
p4773
(dp4774
g28
(lp4775
sg22
Nsba(irule
FeatureMatrix
p4776
(dp4777
g28
(lp4778
(I01
g3423
tp4779
a(I00
g3082
tp4780
asg22
Nsbasg21
I00
sg22
Nsg23
I00
sg24
S'R'
sbsg35
(irule
FeatureMatrix
p4781
(dp4782
g28
(lp4783
sg22
Nsbsg22
Nsba(irule
Rule
p4784
(dp4785
g15
(irule
Guard
p4786
(dp4787
g18
I00
sg19
(lp4788
sg21
I00
sg22
Nsg23
I00
sg24
S'L'
sbsg25
(irule
FeatureMatrix
p4789
(dp4790
g28
(lp4791
(I00
g3005
tp4792
asg22
Nsbsg31
(irule
Guard
p4793
(dp4794
g18
I00
sg19
(lp4795
(irule
FeatureMatrix
p4796
(dp4797
g28
(lp4798
sg22
Nsba(irule
FeatureMatrix
p4799
(dp4800
g28
(lp4801
(I00
g3463
tp4802
a(I00
g3039
tp4803
asg22
Nsbasg21
I00
sg22
Nsg23
I00
sg24
S'R'
sbsg35
(irule
FeatureMatrix
p4804
(dp4805
g28
(lp4806
sg22
Nsbsg22
Nsba(irule
Rule
p4807
(dp4808
g15
(irule
Guard
p4809
(dp4810
g18
I00
sg19
(lp4811
sg21
I00
sg22
Nsg23
I00
sg24
S'L'
sbsg25
(irule
FeatureMatrix
p4812
(dp4813
g28
(lp4814
(I00
g3005
tp4815
asg22
Nsbsg31
(irule
Guard
p4816
(dp4817
g18
I00
sg19
(lp4818
(irule
FeatureMatrix
p4819
(dp4820
g28
(lp4821
sg22
Nsba(irule
FeatureMatrix
p4822
(dp4823
g28
(lp4824
(I00
g3082
tp4825
asg22
Nsbasg21
I00
sg22
Nsg23
I00
sg24
S'R'
sbsg35
(irule
FeatureMatrix
p4826
(dp4827
g28
(lp4828
(I00
g4096
tp4829
asg22
Nsbsg22
Nsba(irule
Rule
p4830
(dp4831
g15
(irule
Guard
p4832
(dp4833
g18
I00
sg19
(lp4834
sg21
I00
sg22
Nsg23
I00
sg24
S'L'
sbsg25
(irule
FeatureMatrix
p4835
(dp4836
g28
(lp4837
(I00
g3005
tp4838
asg22
Nsbsg31
(irule
Guard
p4839
(dp4840
g18
I00
sg19
(lp4841
(irule
FeatureMatrix
p4842
(dp4843
g28
(lp4844
sg22
Nsba(irule
FeatureMatrix
p4845
(dp4846
g28
(lp4847
(I00
g4096
tp4848
a(I00
g3082
tp4849
asg22
Nsbasg21
I00
sg22
Nsg23
I00
sg24
S'R'
sbsg35
(irule
FeatureMatrix
p4850
(dp4851
g28
(lp4852
sg22
Nsbsg22
Nsba(irule
Rule
p4853
(dp4854
g15
(irule
Guard
p4855
(dp4856
g18
I00
sg19
(lp4857
sg21
I00
sg22
Nsg23
I00
sg24
S'L'
sbsg25
(irule
FeatureMatrix
p4858
(dp4859
g28
(lp4860
(I00
g3005
tp4861
asg22
Nsbsg31
(irule
Guard
p4862
(dp4863
g18
I00
sg19
(lp4864
(irule
FeatureMatrix
p4865
(dp4866
g28
(lp4867
sg22
Nsba(irule
FeatureMatrix
p4868
(dp4869
g28
(lp4870
(I00
g3703
tp4871
a(I00
g3039
tp4872
asg22
Nsbasg21
I00
sg22
Nsg23
I00
sg24
S'R'
sbsg35
(irule
FeatureMatrix
p4873
(dp4874
g28
(lp4875
sg22
Nsbsg22
Nsba(irule
Rule
p4876
(dp4877
g15
(irule
Guard
p4878
(dp4879
g18
I00
sg19
(lp4880
sg21
I00
sg22
Nsg23
I00
sg24
S'L'
sbsg25
(irule
FeatureMatrix
p4881
(dp4882
g28
(lp4883
(I00
g3005
tp4884
asg22
Nsbsg31
(irule
Guard
p4885
(dp4886
g18
I00
sg19
(lp4887
(irule
FeatureMatrix
p4888
(dp4889
g28
(lp4890
sg22
Nsba(irule
FeatureMatrix
p4891
(dp4892
g28
(lp4893
(I00
g3652
tp4894
a(I00
g3039
tp4895
asg22
Nsbasg21
I00
sg22
Nsg23
I00
sg24
S'R'
sbsg35
(irule
FeatureMatrix
p4896
(dp4897
g28
(lp4898
sg22
Nsbsg22
Nsba(irule
Rule
p4899
(dp4900
g15
(irule
Guard
p4901
(dp4902
g18
I00
sg19
(lp4903
sg21
I00
sg22
Nsg23
I00
sg24
S'L'
sbsg25
(irule
FeatureMatrix
p4904
(dp4905
g28
(lp4906
(I00
g3005
tp4907
asg22
Nsbsg31
(irule
Guard
p4908
(dp4909
g18
I00
sg19
(lp4910
(irule
FeatureMatrix
p4911
(dp4912
g28
(lp4913
sg22
Nsba(irule
FeatureMatrix
p4914
(dp4915
g28
(lp4916
(I00
g3039
tp4917
asg22
Nsbasg21
I00
sg22
Nsg23
I00
sg24
S'R'
sbsg35
(irule
FeatureMatrix
p4918
(dp4919
g28
(lp4920
(I00
g3255
tp4921
asg22
Nsbsg22
Nsba(irule
Rule
p4922
(dp4923
g15
(irule
Guard
p4924
(dp4925
g18
I00
sg19
(lp4926
sg21
I00
sg22
Nsg23
I00
sg24
S'L'
sbsg25
(irule
FeatureMatrix
p4927
(dp4928
g28
(lp4929
(I00
g3005
tp4930
asg22
Nsbsg31
(irule
Guard
p4931
(dp4932
g18
I00
sg19
(lp4933
(irule
FeatureMatrix
p4934
(dp4935
g28
(lp4936
sg22
Nsba(irule
FeatureMatrix
p4937
(dp4938
g28
(lp4939
(I00
g3082
tp4940
asg22
Nsbasg21
I00
sg22
Nsg23
I00
sg24
S'R'
sbsg35
(irule
FeatureMatrix
p4941
(dp4942
g28
(lp4943
(I00
g3494
tp4944
asg22
Nsbsg22
Nsba(irule
Rule
p4945
(dp4946
g15
(irule
Guard
p4947
(dp4948
g18
I00
sg19
(lp4949
sg21
I00
sg22
Nsg23
I00
sg24
S'L'
sbsg25
(irule
FeatureMatrix
p4950
(dp4951
g28
(lp4952
(I00
g3005
tp4953
asg22
Nsbsg31
(irule
Guard
p4954
(dp4955
g18
I00
sg19
(lp4956
(irule
FeatureMatrix
p4957
(dp4958
g28
(lp4959
sg22
Nsba(irule
FeatureMatrix
p4960
(dp4961
g28
(lp4962
(I00
g3039
tp4963
asg22
Nsbasg21
I00
sg22
Nsg23
I00
sg24
S'R'
sbsg35
(irule
FeatureMatrix
p4964
(dp4965
g28
(lp4966
(I01
g4049
tp4967
asg22
Nsbsg22
Nsba(irule
Rule
p4968
(dp4969
g15
(irule
Guard
p4970
(dp4971
g18
I00
sg19
(lp4972
sg21
I00
sg22
Nsg23
I00
sg24
S'L'
sbsg25
(irule
FeatureMatrix
p4973
(dp4974
g28
(lp4975
(I00
g3005
tp4976
asg22
Nsbsg31
(irule
Guard
p4977
(dp4978
g18
I00
sg19
(lp4979
(irule
FeatureMatrix
p4980
(dp4981
g28
(lp4982
sg22
Nsba(irule
FeatureMatrix
p4983
(dp4984
g28
(lp4985
(I00
g3039
tp4986
asg22
Nsbasg21
I00
sg22
Nsg23
I00
sg24
S'R'
sbsg35
(irule
FeatureMatrix
p4987
(dp4988
g28
(lp4989
(I00
g4096
tp4990
asg22
Nsbsg22
Nsba(irule
Rule
p4991
(dp4992
g15
(irule
Guard
p4993
(dp4994
g18
I00
sg19
(lp4995
sg21
I00
sg22
Nsg23
I00
sg24
S'L'
sbsg25
(irule
FeatureMatrix
p4996
(dp4997
g28
(lp4998
(I00
g3005
tp4999
asg22
Nsbsg31
(irule
Guard
p5000
(dp5001
g18
I00
sg19
(lp5002
(irule
FeatureMatrix
p5003
(dp5004
g28
(lp5005
sg22
Nsba(irule
FeatureMatrix
p5006
(dp5007
g28
(lp5008
(I00
g3082
tp5009
asg22
Nsbasg21
I00
sg22
Nsg23
I00
sg24
S'R'
sbsg35
(irule
FeatureMatrix
p5010
(dp5011
g28
(lp5012
(I01
g3005
tp5013
asg22
Nsbsg22
Nsba(irule
Rule
p5014
(dp5015
g15
(irule
Guard
p5016
(dp5017
g18
I00
sg19
(lp5018
sg21
I00
sg22
Nsg23
I00
sg24
S'L'
sbsg25
(irule
FeatureMatrix
p5019
(dp5020
g28
(lp5021
(I00
g3005
tp5022
asg22
Nsbsg31
(irule
Guard
p5023
(dp5024
g18
I00
sg19
(lp5025
(irule
FeatureMatrix
p5026
(dp5027
g28
(lp5028
sg22
Nsba(irule
FeatureMatrix
p5029
(dp5030
g28
(lp5031
(I00
g3652
tp5032
a(I00
g3082
tp5033
asg22
Nsbasg21
I00
sg22
Nsg23
I00
sg24
S'R'
sbsg35
(irule
FeatureMatrix
p5034
(dp5035
g28
(lp5036
sg22
Nsbsg22
Nsba(irule
Rule
p5037
(dp5038
g15
(irule
Guard
p5039
(dp5040
g18
I00
sg19
(lp5041
sg21
I00
sg22
Nsg23
I00
sg24
S'L'
sbsg25
(irule
FeatureMatrix
p5042
(dp5043
g28
(lp5044
(I00
g3005
tp5045
asg22
Nsbsg31
(irule
Guard
p5046
(dp5047
g18
I00
sg19
(lp5048
(irule
FeatureMatrix
p5049
(dp5050
g28
(lp5051
sg22
Nsba(irule
FeatureMatrix
p5052
(dp5053
g28
(lp5054
(I00
g3703
tp5055
a(I00
g3082
tp5056
asg22
Nsbasg21
I00
sg22
Nsg23
I00
sg24
S'R'
sbsg35
(irule
FeatureMatrix
p5057
(dp5058
g28
(lp5059
sg22
Nsbsg22
Nsba(irule
Rule
p5060
(dp5061
g15
(irule
Guard
p5062
(dp5063
g18
I00
sg19
(lp5064
sg21
I00
sg22
Nsg23
I00
sg24
S'L'
sbsg25
(irule
FeatureMatrix
p5065
(dp5066
g28
(lp5067
(I00
g3005
tp5068
asg22
Nsbsg31
(irule
Guard
p5069
(dp5070
g18
I00
sg19
(lp5071
(irule
FeatureMatrix
p5072
(dp5073
g28
(lp5074
sg22
Nsba(irule
FeatureMatrix
p5075
(dp5076
g28
(lp5077
(I00
g3039
tp5078
a(I00
g3082
tp5079
asg22
Nsbasg21
I00
sg22
Nsg23
I00
sg24
S'R'
sbsg35
(irule
FeatureMatrix
p5080
(dp5081
g28
(lp5082
sg22
Nsbsg22
Nsba(irule
Rule
p5083
(dp5084
g15
(irule
Guard
p5085
(dp5086
g18
I00
sg19
(lp5087
sg21
I00
sg22
Nsg23
I00
sg24
S'L'
sbsg25
(irule
FeatureMatrix
p5088
(dp5089
g28
(lp5090
(I00
g3005
tp5091
asg22
Nsbsg31
(irule
Guard
p5092
(dp5093
g18
I00
sg19
(lp5094
(irule
FeatureMatrix
p5095
(dp5096
g28
(lp5097
sg22
Nsba(irule
FeatureMatrix
p5098
(dp5099
g28
(lp5100
(I00
g3082
tp5101
asg22
Nsbasg21
I00
sg22
Nsg23
I00
sg24
S'R'
sbsg35
(irule
FeatureMatrix
p5102
(dp5103
g28
(lp5104
(I01
g4049
tp5105
asg22
Nsbsg22
Nsba(irule
Rule
p5106
(dp5107
g15
(irule
Guard
p5108
(dp5109
g18
I00
sg19
(lp5110
sg21
I00
sg22
Nsg23
I00
sg24
S'L'
sbsg25
(irule
FeatureMatrix
p5111
(dp5112
g28
(lp5113
(I00
g3005
tp5114
asg22
Nsbsg31
(irule
Guard
p5115
(dp5116
g18
I00
sg19
(lp5117
(irule
FeatureMatrix
p5118
(dp5119
g28
(lp5120
(I00
g3082
tp5121
asg22
Nsba(irule
FeatureMatrix
p5122
(dp5123
g28
(lp5124
(I00
g3016
tp5125
asg22
Nsbasg21
I00
sg22
Nsg23
I00
sg24
S'R'
sbsg35
(irule
FeatureMatrix
p5126
(dp5127
g28
(lp5128
(I00
g3016
tp5129
asg22
Nsbsg22
Nsba(irule
Rule
p5130
(dp5131
g15
(irule
Guard
p5132
(dp5133
g18
I00
sg19
(lp5134
sg21
I00
sg22
Nsg23
I00
sg24
S'L'
sbsg25
(irule
FeatureMatrix
p5135
(dp5136
g28
(lp5137
(I00
g3005
tp5138
a(I00
g4096
tp5139
asg22
Nsbsg31
(irule
Guard
p5140
(dp5141
g18
I00
sg19
(lp5142
(irule
FeatureMatrix
p5143
(dp5144
g28
(lp5145
sg22
Nsba(irule
FeatureMatrix
p5146
(dp5147
g28
(lp5148
(I01
g3423
tp5149
a(I00
g3016
tp5150
asg22
Nsbasg21
I00
sg22
Nsg23
I00
sg24
S'R'
sbsg35
(irule
FeatureMatrix
p5151
(dp5152
g28
(lp5153
sg22
Nsbsg22
Nsba(irule
Rule
p5154
(dp5155
g15
(irule
Guard
p5156
(dp5157
g18
I00
sg19
(lp5158
sg21
I00
sg22
Nsg23
I00
sg24
S'L'
sbsg25
(irule
FeatureMatrix
p5159
(dp5160
g28
(lp5161
(I00
g3005
tp5162
asg22
Nsbsg31
(irule
Guard
p5163
(dp5164
g18
I00
sg19
(lp5165
(irule
FeatureMatrix
p5166
(dp5167
g28
(lp5168
(I00
g3304
tp5169
asg22
Nsba(irule
FeatureMatrix
p5170
(dp5171
g28
(lp5172
(I00
g3016
tp5173
asg22
Nsbasg21
I00
sg22
Nsg23
I00
sg24
S'R'
sbsg35
(irule
FeatureMatrix
p5174
(dp5175
g28
(lp5176
(I01
g3005
tp5177
asg22
Nsbsg22
Nsba(irule
Rule
p5178
(dp5179
g15
(irule
Guard
p5180
(dp5181
g18
I00
sg19
(lp5182
(irule
FeatureMatrix
p5183
(dp5184
g28
(lp5185
(I00
g3082
tp5186
asg22
Nsbasg21
I00
sg22
Nsg23
I00
sg24
S'L'
sbsg25
(irule
FeatureMatrix
p5187
(dp5188
g28
(lp5189
(I00
g3005
tp5190
asg22
Nsbsg31
(irule
Guard
p5191
(dp5192
g18
I00
sg19
(lp5193
(irule
FeatureMatrix
p5194
(dp5195
g28
(lp5196
sg22
Nsba(irule
FeatureMatrix
p5197
(dp5198
g28
(lp5199
(I00
g3016
tp5200
asg22
Nsbasg21
I00
sg22
Nsg23
I00
sg24
S'R'
sbsg35
(irule
FeatureMatrix
p5201
(dp5202
g28
(lp5203
sg22
Nsbsg22
Nsba(irule
Rule
p5204
(dp5205
g15
(irule
Guard
p5206
(dp5207
g18
I00
sg19
(lp5208
(irule
FeatureMatrix
p5209
(dp5210
g28
(lp5211
sg22
Nsbasg21
I00
sg22
Nsg23
I00
sg24
S'L'
sbsg25
(irule
FeatureMatrix
p5212
(dp5213
g28
(lp5214
(I00
g3005
tp5215
asg22
Nsbsg31
(irule
Guard
p5216
(dp5217
g18
I00
sg19
(lp5218
(irule
FeatureMatrix
p5219
(dp5220
g28
(lp5221
(I00
g3082
tp5222
asg22
Nsba(irule
FeatureMatrix
p5223
(dp5224
g28
(lp5225
(I00
g3016
tp5226
asg22
Nsbasg21
I00
sg22
Nsg23
I00
sg24
S'R'
sbsg35
(irule
FeatureMatrix
p5227
(dp5228
g28
(lp5229
sg22
Nsbsg22
Nsba(irule
Rule
p5230
(dp5231
g15
(irule
Guard
p5232
(dp5233
g18
I00
sg19
(lp5234
(irule
FeatureMatrix
p5235
(dp5236
g28
(lp5237
sg22
Nsbasg21
I00
sg22
Nsg23
I00
sg24
S'L'
sbsg25
(irule
FeatureMatrix
p5238
(dp5239
g28
(lp5240
(I00
g3005
tp5241
asg22
Nsbsg31
(irule
Guard
p5242
(dp5243
g18
I00
sg19
(lp5244
(irule
FeatureMatrix
p5245
(dp5246
g28
(lp5247
sg22
Nsba(irule
FeatureMatrix
p5248
(dp5249
g28
(lp5250
(I00
g3082
tp5251
asg22
Nsbasg21
I00
sg22
Nsg23
I00
sg24
S'R'
sbsg35
(irule
FeatureMatrix
p5252
(dp5253
g28
(lp5254
(I01
g3039
tp5255
asg22
Nsbsg22
Nsba(irule
Rule
p5256
(dp5257
g15
(irule
Guard
p5258
(dp5259
g18
I00
sg19
(lp5260
sg21
I00
sg22
Nsg23
I00
sg24
S'L'
sbsg25
(irule
FeatureMatrix
p5261
(dp5262
g28
(lp5263
(I00
g3005
tp5264
a(I00
g3304
tp5265
asg22
Nsbsg31
(irule
Guard
p5266
(dp5267
g18
I00
sg19
(lp5268
(irule
FeatureMatrix
p5269
(dp5270
g28
(lp5271
(I00
g3082
tp5272
asg22
Nsba(irule
FeatureMatrix
p5273
(dp5274
g28
(lp5275
(I00
g3016
tp5276
asg22
Nsbasg21
I00
sg22
Nsg23
I00
sg24
S'R'
sbsg35
(irule
FeatureMatrix
p5277
(dp5278
g28
(lp5279
sg22
Nsbsg22
Nsba(irule
Rule
p5280
(dp5281
g15
(irule
Guard
p5282
(dp5283
g18
I00
sg19
(lp5284
(irule
FeatureMatrix
p5285
(dp5286
g28
(lp5287
sg22
Nsbasg21
I00
sg22
Nsg23
I00
sg24
S'L'
sbsg25
(irule
FeatureMatrix
p5288
(dp5289
g28
(lp5290
(I00
g3005
tp5291
asg22
Nsbsg31
(irule
Guard
p5292
(dp5293
g18
I00
sg19
(lp5294
(irule
FeatureMatrix
p5295
(dp5296
g28
(lp5297
sg22
Nsba(irule
FeatureMatrix
p5298
(dp5299
g28
(lp5300
(I00
g3016
tp5301
a(I00
g3304
tp5302
asg22
Nsbasg21
I00
sg22
Nsg23
I00
sg24
S'R'
sbsg35
(irule
FeatureMatrix
p5303
(dp5304
g28
(lp5305
sg22
Nsbsg22
NsbaasbsS'parameters'
p5306
g6
(cargparse
Namespace
p5307
g8
NtRp5308
(dp5309
S'dummy'
p5310
I00
sS'task'
p5311
S'CEGIS'
p5312
sS'features'
p5313
S'sophisticated'
p5314
sS'resume'
p5315
I00
sS'geometry'
p5316
I01
sS'top'
p5317
I100
sS'disableClean'
p5318
I00
sS'universal'
p5319
NsS'restrict'
p5320
NsS'window'
p5321
NsS'seed'
p5322
S'0'
sS'restore'
p5323
NsS'verbosity'
p5324
I0
sS'timeout'
p5325
F24
sS'debug'
p5326
NsS'cores'
p5327
I40
sg544
S'Halle_153_Yokuts'
p5328
sS'save'
p5329
NsS'serial'
p5330
I00
sS'alignment'
p5331
I00
sS'samples'
p5332
I30
sbsb.