(iresult
Result
p1
(dp2
S'startTime'
p3
F1591734066.7499709
sS'solutionSequence'
p4
(lp5
(ccopy_reg
_reconstructor
p6
(csolution
Solution
p7
c__builtin__
object
p8
NtRp9
(dp10
S'rules'
p11
(lp12
(irule
Rule
p13
(dp14
S'leftTriggers'
p15
(irule
Guard
p16
(dp17
S'endOfString'
p18
I00
sS'specifications'
p19
(lp20
(irule
ConstantPhoneme
p21
(dp22
S'p'
Vn
sbasS'optionalEnding'
p23
I00
sS'representation'
p24
Vn
sS'starred'
p25
I00
sS'side'
p26
S'L'
sbsS'structuralChange'
p27
(irule
ConstantPhoneme
p28
(dp29
S'p'
Vu\u0301
p30
sbsS'rightTriggers'
p31
(irule
Guard
p32
(dp33
g18
I00
sg19
(lp34
sg23
I00
sg24
V
sg25
I00
sg26
S'R'
sbsS'focus'
p35
(irule
FeatureMatrix
p36
(dp37
S'featuresAndPolarities'
p38
(lp39
sg24
V[  ]
p40
sbsg24
V[  ] ---> u\u0301 / n _ 
p41
sba(irule
Rule
p42
(dp43
g15
(irule
Guard
p44
(dp45
g18
I00
sg19
(lp46
(irule
FeatureMatrix
p47
(dp48
g38
(lp49
sg24
V[  ]
p50
sba(irule
ConstantPhoneme
p51
(dp52
S'p'
Va
sbasg23
I00
sg24
Va [  ]
p53
sg25
I00
sg26
S'L'
sbsg27
(irule
ConstantPhoneme
p54
(dp55
S'p'
Va\u0301
p56
sbsg31
(irule
Guard
p57
(dp58
g18
I00
sg19
(lp59
sg23
I00
sg24
V
sg25
I00
sg26
S'R'
sbsg35
(irule
FeatureMatrix
p60
(dp61
g38
(lp62
sg24
V[  ]
p63
sbsg24
V[  ] ---> a\u0301 / a [  ] _ 
p64
sbasS'prefixes'
p65
(lp66
(imorph
Morph
p67
(dp68
S'phonemes'
p69
(lp70
sba(imorph
Morph
p71
(dp72
g69
(lp73
sba(imorph
Morph
p74
(dp75
g69
(lp76
sba(imorph
Morph
p77
(dp78
g69
(lp79
sbasS'underlyingForms'
p80
(dp81
((imorph
Morph
p82
(dp83
g69
(lp84
Vv
aVr
aVu\u0301
p85
asb(imorph
Morph
p86
(dp87
g69
(lp88
Vv
aVr
aVa\u0301
p89
aVl
asb(imorph
Morph
p90
(dp91
g69
(lp92
Vv
aVr
aVa
aVl
aVa\u0301
p93
asb(imorph
Morph
p94
(dp95
g69
(lp96
Vv
aVr
aVa\u0301
p97
aVl^y
p98
aVi
asbtp99
(imorph
Morph
p100
(dp101
g69
(lp102
Vv
aVr
asbs((imorph
Morph
p103
(dp104
g69
(lp105
Vv^y
p106
aVi
aVr
aVn
aVu\u0301
p107
asb(imorph
Morph
p108
(dp109
g69
(lp110
Vv^y
p111
aVi
aVr
aVn
aVu\u0301
p112
aVl
asb(imorph
Morph
p113
(dp114
g69
(lp115
Vv^y
p116
aVi
aVr
aVn
aVu\u0301
p117
aVl
aVa
asb(imorph
Morph
p118
(dp119
g69
(lp120
Vv^y
p121
aVi
aVr
aVn
aVu\u0301
p122
aVl^y
p123
aVi
asbtp124
(imorph
Morph
p125
(dp126
g69
(lp127
Vv^y
p128
aVi
aVr
aVn
asbssS'suffixes'
p129
(lp130
(imorph
Morph
p131
(dp132
g69
(lp133
g30
asba(imorph
Morph
p134
(dp135
g69
(lp136
g56
aVl
asba(imorph
Morph
p137
(dp138
g69
(lp139
Va
aVl
aVa
asba(imorph
Morph
p140
(dp141
g69
(lp142
g56
aVl^y
p143
aVi
asbasbF159.98166608810425
tp144
a(g6
(g7
g8
NtRp145
(dp146
g11
(lp147
(irule
Rule
p148
(dp149
g15
(irule
Guard
p150
(dp151
g18
I00
sg19
(lp152
(irule
ConstantPhoneme
p153
(dp154
S'p'
Vy
sbasg23
I00
sg24
Vy
sg25
I00
sg26
S'L'
sbsg27
(irule
ConstantPhoneme
p155
(dp156
S'p'
g56
sbsg31
(irule
Guard
p157
(dp158
g18
I00
sg19
(lp159
(irule
FeatureMatrix
p160
(dp161
g38
(lp162
sg24
V[  ]
p163
sbasg23
I00
sg24
g163
sg25
I00
sg26
S'R'
sbsg35
(irule
FeatureMatrix
p164
(dp165
g38
(lp166
sg24
V[  ]
p167
sbsg24
V[  ] ---> a\u0301 / y _ [  ]
p168
sba(irule
Rule
p169
(dp170
g15
(irule
Guard
p171
(dp172
g18
I00
sg19
(lp173
(irule
ConstantPhoneme
p174
(dp175
S'p'
Vn
sbasg23
I00
sg24
Vn
sg25
I00
sg26
S'L'
sbsg27
(irule
ConstantPhoneme
p176
(dp177
S'p'
g30
sbsg31
(irule
Guard
p178
(dp179
g18
I00
sg19
(lp180
sg23
I00
sg24
V
sg25
I00
sg26
S'R'
sbsg35
(irule
FeatureMatrix
p181
(dp182
g38
(lp183
sg24
V[  ]
p184
sbsg24
V[  ] ---> u\u0301 / n _ 
p185
sba(irule
Rule
p186
(dp187
g15
(irule
Guard
p188
(dp189
g18
I00
sg19
(lp190
(irule
ConstantPhoneme
p191
(dp192
S'p'
Vl
sba(irule
ConstantPhoneme
p193
(dp194
S'p'
Va
sbasg23
I00
sg24
Va l
p195
sg25
I00
sg26
S'L'
sbsg27
(irule
ConstantPhoneme
p196
(dp197
S'p'
g56
sbsg31
(irule
Guard
p198
(dp199
g18
I00
sg19
(lp200
sg23
I00
sg24
V
sg25
I00
sg26
S'R'
sbsg35
(irule
FeatureMatrix
p201
(dp202
g38
(lp203
sg24
V[  ]
p204
sbsg24
V[  ] ---> a\u0301 / a l _ 
p205
sbasg65
(lp206
(imorph
Morph
p207
(dp208
g69
(lp209
sba(imorph
Morph
p210
(dp211
g69
(lp212
sba(imorph
Morph
p213
(dp214
g69
(lp215
sba(imorph
Morph
p216
(dp217
g69
(lp218
sbasg80
(dp219
(g82
g86
g90
g94
tp220
(imorph
Morph
p221
(dp222
g69
(lp223
Vv
aVr
asbs((imorph
Morph
p224
(dp225
g69
(lp226
Vs
aVt
aVa
aVy
aVu\u0301
p227
asb(imorph
Morph
p228
(dp229
g69
(lp230
Vs
aVt
aVa
aVy
aVa\u0301
p231
aVl
asb(imorph
Morph
p232
(dp233
g69
(lp234
Vs
aVt
aVa
aVy
aVa\u0301
p235
aVl
aVa
asb(imorph
Morph
p236
(dp237
g69
(lp238
Vs
aVt
aVa
aVy
aVa\u0301
p239
aVl^y
p240
aVi
asbtp241
(imorph
Morph
p242
(dp243
g69
(lp244
Vs
aVt
aVa
aVy
asbs(g103
g108
g113
g118
tp245
(imorph
Morph
p246
(dp247
g69
(lp248
g128
aVi
aVr
aVn
asbssg129
(lp249
(imorph
Morph
p250
(dp251
g69
(lp252
g30
asba(imorph
Morph
p253
(dp254
g69
(lp255
g56
aVl
asba(imorph
Morph
p256
(dp257
g69
(lp258
Va
aVl
aVa
asba(imorph
Morph
p259
(dp260
g69
(lp261
g56
ag143
aVi
asbasbF6161.7475850582123
tp262
asS'problem'
p263
S'Halle_115_Russian'
p264
sS'finalFrontier'
p265
g6
(csolution
Frontier
p266
g8
NtRp267
(dp268
g65
g206
sg129
g249
sg80
g219
sS'frontiers'
p269
(lp270
(lp271
g148
aa(lp272
g169
aa(lp273
g186
aasbsS'parameters'
p274
g6
(cargparse
Namespace
p275
g8
NtRp276
(dp277
S'restore'
p278
NsS'features'
p279
S'none'
p280
sS'universal'
p281
NsS'restrict'
p282
NsS'seed'
p283
NsS'serial'
p284
I00
sS'cv'
p285
I00
sS'alignment'
p286
I00
sS'top'
p287
I1
sS'maximumDepth'
p288
I3
sS'window'
p289
NsS'minimizeBits'
p290
I5
sS'samples'
p291
I30
sS'save'
p292
NsS'resume'
p293
I00
sS'disableClean'
p294
I01
sS'stemBaseline'
p295
I30
sS'dummy'
p296
I00
sS'task'
p297
S'CEGIS'
p298
sS'geometry'
p299
NsS'verbosity'
p300
I0
sS'noConstant'
p301
I00
sS'timeout'
p302
F24
sS'debug'
p303
NsS'cores'
p304
I40
sg263
S'Halle_115_Russian'
p305
sS'mergeFrontiers'
p306
I00
sbsb.