(iresult
Result
p1
(dp2
S'startTime'
p3
F1553282253.0009561
sS'solutionSequence'
p4
(lp5
(ccopy_reg
_reconstructor
p6
(csolution
Solution
p7
c__builtin__
object
p8
NtRp9
(dp10
S'rules'
p11
(lp12
(irule
Rule
p13
(dp14
S'leftTriggers'
p15
(irule
Guard
p16
(dp17
S'endOfString'
p18
I00
sS'specifications'
p19
(lp20
sS'optionalEnding'
p21
I00
sS'representation'
p22
V
sS'starred'
p23
I00
sS'side'
p24
S'L'
sbsS'structuralChange'
p25
(irule
ConstantPhoneme
p26
(dp27
S'p'
Vh
sbsS'rightTriggers'
p28
(irule
Guard
p29
(dp30
g18
I00
sg19
(lp31
sg21
I00
sg22
V
sg23
I00
sg24
S'R'
sbsS'focus'
p32
(irule
FeatureMatrix
p33
(dp34
S'featuresAndPolarities'
p35
(lp36
(I01
S'lateral'
p37
tp38
a(I00
S'voice'
p39
tp40
asg22
V[ +lateral -voice ]
p41
sbsg22
V[ +lateral -voice ] ---> h /  _ 
p42
sba(irule
Rule
p43
(dp44
g15
(irule
Guard
p45
(dp46
g18
I00
sg19
(lp47
(irule
FeatureMatrix
p48
(dp49
g35
(lp50
(I01
S'coronal'
p51
tp52
asg22
V[ +coronal ]
p53
sbasg21
I00
sg22
g53
sg23
I00
sg24
S'L'
sbsg25
(irule
ConstantPhoneme
p54
(dp55
S'p'
V\u0294
sbsg28
(irule
Guard
p56
(dp57
g18
I00
sg19
(lp58
sg21
I00
sg22
V
sg23
I00
sg24
S'R'
sbsg32
(irule
FeatureMatrix
p59
(dp60
g35
(lp61
(I01
S'secondStress'
p62
tp63
asg22
V[ +secondStress ]
p64
sbsg22
V[ +secondStress ] ---> \u0294 / [ +coronal ] _ 
p65
sba(irule
Rule
p66
(dp67
g15
(irule
Guard
p68
(dp69
g18
I00
sg19
(lp70
(irule
ConstantPhoneme
p71
(dp72
S'p'
Vo
sbasg21
I00
sg22
Vo
sg23
I00
sg24
S'L'
sbsg25
(irule
ConstantPhoneme
p73
(dp74
S'p'
Vl
sbsg28
(irule
Guard
p75
(dp76
g18
I00
sg19
(lp77
sg21
I00
sg22
V
sg23
I00
sg24
S'R'
sbsg32
(irule
FeatureMatrix
p78
(dp79
g35
(lp80
sg22
V[  ]
p81
sbsg22
V[  ] ---> l / o _ 
p82
sbasS'prefixes'
p83
(lp84
(imorph
Morph
p85
(dp86
S'phonemes'
p87
(lp88
sbasS'underlyingForms'
p89
(dp90
((imorph
Morph
p91
(dp92
g87
(lp93
Vp
aVa:
p94
aVl
aVh
aVa
asbtp95
(imorph
Morph
p96
(dp97
g87
(lp98
Vp
aVa:
p99
aVl
aVl\u0325
p100
aVa
asbs((imorph
Morph
p101
(dp102
g87
(lp103
Vh
aVo
aVl
aVh
asbtp104
(imorph
Morph
p105
(dp106
g87
(lp107
Vh
aVo
aVn
aVl\u0325
p108
asbs((imorph
Morph
p109
(dp110
g87
(lp111
Vh
aVo
aVl
aV\u0294
aVa:
p112
aVl`
p113
aVa
asbtp114
(imorph
Morph
p115
(dp116
g87
(lp117
Vh
aVo
aVn
aVl`
p118
aVa:
p119
aVl`
p120
aVa
asbs((imorph
Morph
p121
(dp122
g87
(lp123
Vy
aVa
aVl
aVy
aVa
aVl
aV\u0294
aVi
asbtp124
(imorph
Morph
p125
(dp126
g87
(lp127
Vy
aVa
aVl
aVy
aVa
aVl
aVl`
p128
aVi
asbs((imorph
Morph
p129
(dp130
g87
(lp131
Vh
aVo
aVl
aVl
aVi:
p132
aVn
aVa
asbtp133
(imorph
Morph
p134
(dp135
g87
(lp136
Vh
aVo
aVn
aVl
aVi:
p137
aVn
aVa
asbssS'suffixes'
p138
(lp139
(imorph
Morph
p140
(dp141
g87
(lp142
sbasbF41.721794843673706
tp143
asS'problem'
p144
S'Halle_113_Klamath'
p145
sS'finalFrontier'
p146
g6
(csolution
Frontier
p147
g8
NtRp148
(dp149
g83
g84
sg138
g139
sg89
g90
sS'frontiers'
p150
(lp151
(lp152
(irule
Rule
p153
(dp154
g15
(irule
Guard
p155
(dp156
g18
I00
sg19
(lp157
sg21
I00
sg22
V
sg23
I00
sg24
S'L'
sbsg25
(irule
ConstantPhoneme
p158
(dp159
S'p'
Vh
sbsg28
(irule
Guard
p160
(dp161
g18
I00
sg19
(lp162
sg21
I00
sg22
V
sg23
I00
sg24
S'R'
sbsg32
(irule
FeatureMatrix
p163
(dp164
g35
(lp165
(I01
S'lateral'
tp166
a(I00
S'voice'
tp167
asg22
V[ +lateral -voice ]
p168
sbsg22
V[ +lateral -voice ] ---> h /  _ 
p169
sba(irule
Rule
p170
(dp171
g15
(irule
Guard
p172
(dp173
g18
I00
sg19
(lp174
sg21
I00
sg22
Nsg23
I00
sg24
S'L'
sbsg25
(irule
ConstantPhoneme
p175
(dp176
S'p'
Vh
sbsg28
(irule
Guard
p177
(dp178
g18
I00
sg19
(lp179
sg21
I00
sg22
Nsg23
I00
sg24
S'R'
sbsg32
(irule
FeatureMatrix
p180
(dp181
g35
(lp182
(I01
S'continuant'
p183
tp184
a(I00
S'voice'
p185
tp186
asg22
Nsbsg22
Nsba(irule
Rule
p187
(dp188
g15
(irule
Guard
p189
(dp190
g18
I00
sg19
(lp191
(irule
FeatureMatrix
p192
(dp193
g35
(lp194
sg22
Nsbasg21
I00
sg22
Nsg23
I00
sg24
S'L'
sbsg25
(irule
ConstantPhoneme
p195
(dp196
S'p'
Vh
sbsg28
(irule
Guard
p197
(dp198
g18
I00
sg19
(lp199
sg21
I00
sg22
Nsg23
I00
sg24
S'R'
sbsg32
(irule
FeatureMatrix
p200
(dp201
g35
(lp202
(I00
g185
tp203
asg22
Nsbsg22
Nsba(irule
Rule
p204
(dp205
g15
(irule
Guard
p206
(dp207
g18
I00
sg19
(lp208
sg21
I00
sg22
Nsg23
I00
sg24
S'L'
sbsg25
(irule
ConstantPhoneme
p209
(dp210
S'p'
Vh
sbsg28
(irule
Guard
p211
(dp212
g18
I00
sg19
(lp213
sg21
I00
sg22
Nsg23
I00
sg24
S'R'
sbsg32
(irule
FeatureMatrix
p214
(dp215
g35
(lp216
(I00
S'anterior'
p217
tp218
a(I00
g185
tp219
asg22
Nsbsg22
Nsba(irule
Rule
p220
(dp221
g15
(irule
Guard
p222
(dp223
g18
I00
sg19
(lp224
sg21
I00
sg22
Nsg23
I00
sg24
S'L'
sbsg25
(irule
ConstantPhoneme
p225
(dp226
S'p'
Vh
sbsg28
(irule
Guard
p227
(dp228
g18
I00
sg19
(lp229
sg21
I00
sg22
Nsg23
I00
sg24
S'R'
sbsg32
(irule
FeatureMatrix
p230
(dp231
g35
(lp232
(I01
S'coronal'
p233
tp234
a(I00
g185
tp235
asg22
Nsbsg22
Nsba(irule
Rule
p236
(dp237
g15
(irule
Guard
p238
(dp239
g18
I00
sg19
(lp240
(irule
FeatureMatrix
p241
(dp242
g35
(lp243
sg22
Nsbasg21
I00
sg22
Nsg23
I00
sg24
S'L'
sbsg25
(irule
ConstantPhoneme
p244
(dp245
S'p'
Vh
sbsg28
(irule
Guard
p246
(dp247
g18
I00
sg19
(lp248
sg21
I00
sg22
Nsg23
I00
sg24
S'R'
sbsg32
(irule
ConstantPhoneme
p249
(dp250
S'p'
Vl\u0325
p251
sbsg22
Nsba(irule
Rule
p252
(dp253
g15
(irule
Guard
p254
(dp255
g18
I00
sg19
(lp256
sg21
I00
sg22
Nsg23
I00
sg24
S'L'
sbsg25
(irule
ConstantPhoneme
p257
(dp258
S'p'
Vh
sbsg28
(irule
Guard
p259
(dp260
g18
I00
sg19
(lp261
sg21
I00
sg22
Nsg23
I00
sg24
S'R'
sbsg32
(irule
FeatureMatrix
p262
(dp263
g35
(lp264
(I01
S'sonorant'
p265
tp266
a(I00
g185
tp267
asg22
Nsbsg22
Nsba(irule
Rule
p268
(dp269
g15
(irule
Guard
p270
(dp271
g18
I00
sg19
(lp272
sg21
I00
sg22
Nsg23
I00
sg24
S'L'
sbsg25
(irule
ConstantPhoneme
p273
(dp274
S'p'
Vh
sbsg28
(irule
Guard
p275
(dp276
g18
I00
sg19
(lp277
sg21
I00
sg22
Nsg23
I00
sg24
S'R'
sbsg32
(irule
FeatureMatrix
p278
(dp279
g35
(lp280
(I01
S'liquid'
p281
tp282
a(I00
g185
tp283
asg22
Nsbsg22
Nsba(irule
Rule
p284
(dp285
g15
(irule
Guard
p286
(dp287
g18
I00
sg19
(lp288
(irule
FeatureMatrix
p289
(dp290
g35
(lp291
sg22
Nsba(irule
FeatureMatrix
p292
(dp293
g35
(lp294
sg22
Nsbasg21
I00
sg22
Nsg23
I00
sg24
S'L'
sbsg25
(irule
ConstantPhoneme
p295
(dp296
S'p'
Vh
sbsg28
(irule
Guard
p297
(dp298
g18
I00
sg19
(lp299
sg21
I00
sg22
Nsg23
I00
sg24
S'R'
sbsg32
(irule
FeatureMatrix
p300
(dp301
g35
(lp302
(I00
g185
tp303
asg22
Nsbsg22
Nsba(irule
Rule
p304
(dp305
g15
(irule
Guard
p306
(dp307
g18
I00
sg19
(lp308
(irule
FeatureMatrix
p309
(dp310
g35
(lp311
(I00
S'secondStress'
p312
tp313
asg22
Nsbasg21
I00
sg22
Nsg23
I00
sg24
S'L'
sbsg25
(irule
ConstantPhoneme
p314
(dp315
S'p'
Vh
sbsg28
(irule
Guard
p316
(dp317
g18
I00
sg19
(lp318
sg21
I00
sg22
Nsg23
I00
sg24
S'R'
sbsg32
(irule
FeatureMatrix
p319
(dp320
g35
(lp321
(I00
g185
tp322
asg22
Nsbsg22
Nsba(irule
Rule
p323
(dp324
g15
(irule
Guard
p325
(dp326
g18
I00
sg19
(lp327
(irule
FeatureMatrix
p328
(dp329
g35
(lp330
(I01
g185
tp331
asg22
Nsbasg21
I00
sg22
Nsg23
I00
sg24
S'L'
sbsg25
(irule
ConstantPhoneme
p332
(dp333
S'p'
Vh
sbsg28
(irule
Guard
p334
(dp335
g18
I00
sg19
(lp336
sg21
I00
sg22
Nsg23
I00
sg24
S'R'
sbsg32
(irule
FeatureMatrix
p337
(dp338
g35
(lp339
(I00
g185
tp340
asg22
Nsbsg22
Nsba(irule
Rule
p341
(dp342
g15
(irule
Guard
p343
(dp344
g18
I00
sg19
(lp345
(irule
FeatureMatrix
p346
(dp347
g35
(lp348
(I01
g233
tp349
asg22
Nsbasg21
I00
sg22
Nsg23
I00
sg24
S'L'
sbsg25
(irule
ConstantPhoneme
p350
(dp351
S'p'
Vh
sbsg28
(irule
Guard
p352
(dp353
g18
I00
sg19
(lp354
sg21
I00
sg22
Nsg23
I00
sg24
S'R'
sbsg32
(irule
FeatureMatrix
p355
(dp356
g35
(lp357
(I00
g185
tp358
asg22
Nsbsg22
Nsba(irule
Rule
p359
(dp360
g15
(irule
Guard
p361
(dp362
g18
I00
sg19
(lp363
(irule
FeatureMatrix
p364
(dp365
g35
(lp366
(I00
S'high'
p367
tp368
asg22
Nsbasg21
I00
sg22
Nsg23
I00
sg24
S'L'
sbsg25
(irule
ConstantPhoneme
p369
(dp370
S'p'
Vh
sbsg28
(irule
Guard
p371
(dp372
g18
I00
sg19
(lp373
sg21
I00
sg22
Nsg23
I00
sg24
S'R'
sbsg32
(irule
ConstantPhoneme
p374
(dp375
S'p'
g251
sbsg22
Nsba(irule
Rule
p376
(dp377
g15
(irule
Guard
p378
(dp379
g18
I00
sg19
(lp380
(irule
FeatureMatrix
p381
(dp382
g35
(lp383
sg22
Nsba(irule
FeatureMatrix
p384
(dp385
g35
(lp386
sg22
Nsbasg21
I00
sg22
Nsg23
I00
sg24
S'L'
sbsg25
(irule
ConstantPhoneme
p387
(dp388
S'p'
Vh
sbsg28
(irule
Guard
p389
(dp390
g18
I00
sg19
(lp391
sg21
I00
sg22
Nsg23
I00
sg24
S'R'
sbsg32
(irule
ConstantPhoneme
p392
(dp393
S'p'
g251
sbsg22
Nsba(irule
Rule
p394
(dp395
g15
(irule
Guard
p396
(dp397
g18
I00
sg19
(lp398
(irule
FeatureMatrix
p399
(dp400
g35
(lp401
sg22
Nsbasg21
I00
sg22
Nsg23
I00
sg24
S'L'
sbsg25
(irule
ConstantPhoneme
p402
(dp403
S'p'
Vh
sbsg28
(irule
Guard
p404
(dp405
g18
I00
sg19
(lp406
sg21
I00
sg22
Nsg23
I00
sg24
S'R'
sbsg32
(irule
FeatureMatrix
p407
(dp408
g35
(lp409
(I01
g281
tp410
a(I00
g185
tp411
asg22
Nsbsg22
Nsba(irule
Rule
p412
(dp413
g15
(irule
Guard
p414
(dp415
g18
I00
sg19
(lp416
sg21
I00
sg22
Nsg23
I00
sg24
S'L'
sbsg25
(irule
ConstantPhoneme
p417
(dp418
S'p'
Vh
sbsg28
(irule
Guard
p419
(dp420
g18
I00
sg19
(lp421
sg21
I00
sg22
Nsg23
I00
sg24
S'R'
sbsg32
(irule
FeatureMatrix
p422
(dp423
g35
(lp424
(I01
g233
tp425
a(I00
g312
tp426
a(I00
g185
tp427
asg22
Nsbsg22
Nsba(irule
Rule
p428
(dp429
g15
(irule
Guard
p430
(dp431
g18
I00
sg19
(lp432
(irule
FeatureMatrix
p433
(dp434
g35
(lp435
sg22
Nsbasg21
I00
sg22
Nsg23
I00
sg24
S'L'
sbsg25
(irule
ConstantPhoneme
p436
(dp437
S'p'
Vh
sbsg28
(irule
Guard
p438
(dp439
g18
I00
sg19
(lp440
sg21
I00
sg22
Nsg23
I00
sg24
S'R'
sbsg32
(irule
FeatureMatrix
p441
(dp442
g35
(lp443
(I00
g312
tp444
a(I00
g185
tp445
asg22
Nsbsg22
Nsba(irule
Rule
p446
(dp447
g15
(irule
Guard
p448
(dp449
g18
I00
sg19
(lp450
(irule
FeatureMatrix
p451
(dp452
g35
(lp453
(I00
S'vowel'
p454
tp455
asg22
Nsbasg21
I00
sg22
Nsg23
I00
sg24
S'L'
sbsg25
(irule
ConstantPhoneme
p456
(dp457
S'p'
Vh
sbsg28
(irule
Guard
p458
(dp459
g18
I00
sg19
(lp460
sg21
I00
sg22
Nsg23
I00
sg24
S'R'
sbsg32
(irule
FeatureMatrix
p461
(dp462
g35
(lp463
(I00
g185
tp464
asg22
Nsbsg22
Nsba(irule
Rule
p465
(dp466
g15
(irule
Guard
p467
(dp468
g18
I00
sg19
(lp469
(irule
FeatureMatrix
p470
(dp471
g35
(lp472
(I00
S'tense'
p473
tp474
asg22
Nsbasg21
I00
sg22
Nsg23
I00
sg24
S'L'
sbsg25
(irule
ConstantPhoneme
p475
(dp476
S'p'
Vh
sbsg28
(irule
Guard
p477
(dp478
g18
I00
sg19
(lp479
sg21
I00
sg22
Nsg23
I00
sg24
S'R'
sbsg32
(irule
FeatureMatrix
p480
(dp481
g35
(lp482
(I00
g185
tp483
asg22
Nsbsg22
Nsba(irule
Rule
p484
(dp485
g15
(irule
Guard
p486
(dp487
g18
I00
sg19
(lp488
(irule
FeatureMatrix
p489
(dp490
g35
(lp491
sg22
Nsbasg21
I00
sg22
Nsg23
I00
sg24
S'L'
sbsg25
(irule
ConstantPhoneme
p492
(dp493
S'p'
Vh
sbsg28
(irule
Guard
p494
(dp495
g18
I00
sg19
(lp496
sg21
I00
sg22
Nsg23
I00
sg24
S'R'
sbsg32
(irule
FeatureMatrix
p497
(dp498
g35
(lp499
(I00
g454
tp500
a(I00
g185
tp501
asg22
Nsbsg22
Nsba(irule
Rule
p502
(dp503
g15
(irule
Guard
p504
(dp505
g18
I00
sg19
(lp506
(irule
FeatureMatrix
p507
(dp508
g35
(lp509
sg22
Nsbasg21
I00
sg22
Nsg23
I00
sg24
S'L'
sbsg25
(irule
ConstantPhoneme
p510
(dp511
S'p'
Vh
sbsg28
(irule
Guard
p512
(dp513
g18
I00
sg19
(lp514
sg21
I00
sg22
Nsg23
I00
sg24
S'R'
sbsg32
(irule
FeatureMatrix
p515
(dp516
g35
(lp517
(I00
g473
tp518
a(I00
g185
tp519
asg22
Nsbsg22
Nsba(irule
Rule
p520
(dp521
g15
(irule
Guard
p522
(dp523
g18
I00
sg19
(lp524
sg21
I00
sg22
Nsg23
I00
sg24
S'L'
sbsg25
(irule
ConstantPhoneme
p525
(dp526
S'p'
Vh
sbsg28
(irule
Guard
p527
(dp528
g18
I00
sg19
(lp529
sg21
I00
sg22
Nsg23
I00
sg24
S'R'
sbsg32
(irule
FeatureMatrix
p530
(dp531
g35
(lp532
(I01
g233
tp533
a(I00
g454
tp534
a(I00
g185
tp535
asg22
Nsbsg22
Nsba(irule
Rule
p536
(dp537
g15
(irule
Guard
p538
(dp539
g18
I00
sg19
(lp540
(irule
FeatureMatrix
p541
(dp542
g35
(lp543
sg22
Nsbasg21
I00
sg22
Nsg23
I00
sg24
S'L'
sbsg25
(irule
ConstantPhoneme
p544
(dp545
S'p'
Vh
sbsg28
(irule
Guard
p546
(dp547
g18
I00
sg19
(lp548
sg21
I00
sg22
Nsg23
I00
sg24
S'R'
sbsg32
(irule
FeatureMatrix
p549
(dp550
g35
(lp551
(I00
S'low'
p552
tp553
a(I00
g185
tp554
asg22
Nsbsg22
Nsba(irule
Rule
p555
(dp556
g15
(irule
Guard
p557
(dp558
g18
I00
sg19
(lp559
(irule
FeatureMatrix
p560
(dp561
g35
(lp562
(I00
g552
tp563
asg22
Nsbasg21
I00
sg22
Nsg23
I00
sg24
S'L'
sbsg25
(irule
ConstantPhoneme
p564
(dp565
S'p'
Vh
sbsg28
(irule
Guard
p566
(dp567
g18
I00
sg19
(lp568
sg21
I00
sg22
Nsg23
I00
sg24
S'R'
sbsg32
(irule
FeatureMatrix
p569
(dp570
g35
(lp571
(I00
g185
tp572
asg22
Nsbsg22
Nsba(irule
Rule
p573
(dp574
g15
(irule
Guard
p575
(dp576
g18
I00
sg19
(lp577
(irule
FeatureMatrix
p578
(dp579
g35
(lp580
(I00
S'palletized'
p581
tp582
asg22
Nsbasg21
I00
sg22
Nsg23
I00
sg24
S'L'
sbsg25
(irule
ConstantPhoneme
p583
(dp584
S'p'
Vh
sbsg28
(irule
Guard
p585
(dp586
g18
I00
sg19
(lp587
sg21
I00
sg22
Nsg23
I00
sg24
S'R'
sbsg32
(irule
FeatureMatrix
p588
(dp589
g35
(lp590
(I00
g185
tp591
asg22
Nsbsg22
Nsba(irule
Rule
p592
(dp593
g15
(irule
Guard
p594
(dp595
g18
I00
sg19
(lp596
(irule
FeatureMatrix
p597
(dp598
g35
(lp599
(I00
g367
tp600
asg22
Nsbasg21
I00
sg22
Nsg23
I00
sg24
S'L'
sbsg25
(irule
ConstantPhoneme
p601
(dp602
S'p'
Vh
sbsg28
(irule
Guard
p603
(dp604
g18
I00
sg19
(lp605
sg21
I00
sg22
Nsg23
I00
sg24
S'R'
sbsg32
(irule
FeatureMatrix
p606
(dp607
g35
(lp608
(I00
g185
tp609
asg22
Nsbsg22
Nsba(irule
Rule
p610
(dp611
g15
(irule
Guard
p612
(dp613
g18
I00
sg19
(lp614
sg21
I00
sg22
Nsg23
I00
sg24
S'L'
sbsg25
(irule
ConstantPhoneme
p615
(dp616
S'p'
Vh
sbsg28
(irule
Guard
p617
(dp618
g18
I00
sg19
(lp619
sg21
I00
sg22
Nsg23
I00
sg24
S'R'
sbsg32
(irule
FeatureMatrix
p620
(dp621
g35
(lp622
(I01
g233
tp623
a(I00
g552
tp624
a(I00
g185
tp625
asg22
Nsbsg22
Nsba(irule
Rule
p626
(dp627
g15
(irule
Guard
p628
(dp629
g18
I00
sg19
(lp630
(irule
FeatureMatrix
p631
(dp632
g35
(lp633
sg22
Nsbasg21
I00
sg22
Nsg23
I00
sg24
S'L'
sbsg25
(irule
ConstantPhoneme
p634
(dp635
S'p'
Vh
sbsg28
(irule
Guard
p636
(dp637
g18
I00
sg19
(lp638
sg21
I00
sg22
Nsg23
I00
sg24
S'R'
sbsg32
(irule
FeatureMatrix
p639
(dp640
g35
(lp641
(I00
g581
tp642
a(I00
g185
tp643
asg22
Nsbsg22
Nsba(irule
Rule
p644
(dp645
g15
(irule
Guard
p646
(dp647
g18
I00
sg19
(lp648
(irule
FeatureMatrix
p649
(dp650
g35
(lp651
(I01
g185
tp652
asg22
Nsbasg21
I00
sg22
Nsg23
I00
sg24
S'L'
sbsg25
(irule
ConstantPhoneme
p653
(dp654
S'p'
Vh
sbsg28
(irule
Guard
p655
(dp656
g18
I00
sg19
(lp657
sg21
I00
sg22
Nsg23
I00
sg24
S'R'
sbsg32
(irule
ConstantPhoneme
p658
(dp659
S'p'
g251
sbsg22
Nsba(irule
Rule
p660
(dp661
g15
(irule
Guard
p662
(dp663
g18
I00
sg19
(lp664
(irule
FeatureMatrix
p665
(dp666
g35
(lp667
(I00
S'back'
p668
tp669
asg22
Nsbasg21
I00
sg22
Nsg23
I00
sg24
S'L'
sbsg25
(irule
ConstantPhoneme
p670
(dp671
S'p'
Vh
sbsg28
(irule
Guard
p672
(dp673
g18
I00
sg19
(lp674
sg21
I00
sg22
Nsg23
I00
sg24
S'R'
sbsg32
(irule
FeatureMatrix
p675
(dp676
g35
(lp677
(I00
g185
tp678
asg22
Nsbsg22
Nsba(irule
Rule
p679
(dp680
g15
(irule
Guard
p681
(dp682
g18
I00
sg19
(lp683
sg21
I00
sg22
Nsg23
I00
sg24
S'L'
sbsg25
(irule
ConstantPhoneme
p684
(dp685
S'p'
Vh
sbsg28
(irule
Guard
p686
(dp687
g18
I00
sg19
(lp688
sg21
I00
sg22
Nsg23
I00
sg24
S'R'
sbsg32
(irule
FeatureMatrix
p689
(dp690
g35
(lp691
(I01
g183
tp692
a(I00
g312
tp693
a(I00
g185
tp694
asg22
Nsbsg22
Nsba(irule
Rule
p695
(dp696
g15
(irule
Guard
p697
(dp698
g18
I00
sg19
(lp699
(irule
FeatureMatrix
p700
(dp701
g35
(lp702
sg22
Nsbasg21
I00
sg22
Nsg23
I00
sg24
S'L'
sbsg25
(irule
ConstantPhoneme
p703
(dp704
S'p'
Vh
sbsg28
(irule
Guard
p705
(dp706
g18
I00
sg19
(lp707
sg21
I00
sg22
Nsg23
I00
sg24
S'R'
sbsg32
(irule
FeatureMatrix
p708
(dp709
g35
(lp710
(I00
g217
tp711
a(I00
g185
tp712
asg22
Nsbsg22
Nsba(irule
Rule
p713
(dp714
g15
(irule
Guard
p715
(dp716
g18
I00
sg19
(lp717
(irule
FeatureMatrix
p718
(dp719
g35
(lp720
(I01
g265
tp721
asg22
Nsbasg21
I00
sg22
Nsg23
I00
sg24
S'L'
sbsg25
(irule
ConstantPhoneme
p722
(dp723
S'p'
Vh
sbsg28
(irule
Guard
p724
(dp725
g18
I00
sg19
(lp726
sg21
I00
sg22
Nsg23
I00
sg24
S'R'
sbsg32
(irule
FeatureMatrix
p727
(dp728
g35
(lp729
(I00
g185
tp730
asg22
Nsbsg22
Nsba(irule
Rule
p731
(dp732
g15
(irule
Guard
p733
(dp734
g18
I00
sg19
(lp735
(irule
FeatureMatrix
p736
(dp737
g35
(lp738
(I00
g581
tp739
asg22
Nsbasg21
I00
sg22
Nsg23
I00
sg24
S'L'
sbsg25
(irule
ConstantPhoneme
p740
(dp741
S'p'
Vh
sbsg28
(irule
Guard
p742
(dp743
g18
I00
sg19
(lp744
sg21
I00
sg22
Nsg23
I00
sg24
S'R'
sbsg32
(irule
ConstantPhoneme
p745
(dp746
S'p'
g251
sbsg22
Nsba(irule
Rule
p747
(dp748
g15
(irule
Guard
p749
(dp750
g18
I00
sg19
(lp751
(irule
FeatureMatrix
p752
(dp753
g35
(lp754
(I00
S'long'
p755
tp756
asg22
Nsbasg21
I00
sg22
Nsg23
I00
sg24
S'L'
sbsg25
(irule
ConstantPhoneme
p757
(dp758
S'p'
Vh
sbsg28
(irule
Guard
p759
(dp760
g18
I00
sg19
(lp761
sg21
I00
sg22
Nsg23
I00
sg24
S'R'
sbsg32
(irule
FeatureMatrix
p762
(dp763
g35
(lp764
(I00
g185
tp765
asg22
Nsbsg22
Nsba(irule
Rule
p766
(dp767
g15
(irule
Guard
p768
(dp769
g18
I00
sg19
(lp770
(irule
FeatureMatrix
p771
(dp772
g35
(lp773
sg22
Nsbasg21
I00
sg22
Nsg23
I00
sg24
S'L'
sbsg25
(irule
ConstantPhoneme
p774
(dp775
S'p'
Vh
sbsg28
(irule
Guard
p776
(dp777
g18
I00
sg19
(lp778
sg21
I00
sg22
Nsg23
I00
sg24
S'R'
sbsg32
(irule
FeatureMatrix
p779
(dp780
g35
(lp781
(I01
g233
tp782
a(I00
g185
tp783
asg22
Nsbsg22
Nsba(irule
Rule
p784
(dp785
g15
(irule
Guard
p786
(dp787
g18
I00
sg19
(lp788
(irule
FeatureMatrix
p789
(dp790
g35
(lp791
sg22
Nsbasg21
I00
sg22
Nsg23
I00
sg24
S'L'
sbsg25
(irule
ConstantPhoneme
p792
(dp793
S'p'
Vh
sbsg28
(irule
Guard
p794
(dp795
g18
I00
sg19
(lp796
sg21
I00
sg22
Nsg23
I00
sg24
S'R'
sbsg32
(irule
FeatureMatrix
p797
(dp798
g35
(lp799
(I00
g367
tp800
a(I00
g185
tp801
asg22
Nsbsg22
Nsba(irule
Rule
p802
(dp803
g15
(irule
Guard
p804
(dp805
g18
I00
sg19
(lp806
sg21
I00
sg22
Nsg23
I00
sg24
S'L'
sbsg25
(irule
ConstantPhoneme
p807
(dp808
S'p'
Vh
sbsg28
(irule
Guard
p809
(dp810
g18
I00
sg19
(lp811
sg21
I00
sg22
Nsg23
I00
sg24
S'R'
sbsg32
(irule
FeatureMatrix
p812
(dp813
g35
(lp814
(I01
g265
tp815
a(I00
g367
tp816
a(I00
g185
tp817
asg22
Nsbsg22
Nsba(irule
Rule
p818
(dp819
g15
(irule
Guard
p820
(dp821
g18
I00
sg19
(lp822
(irule
FeatureMatrix
p823
(dp824
g35
(lp825
(I00
S'rounded'
p826
tp827
asg22
Nsbasg21
I00
sg22
Nsg23
I00
sg24
S'L'
sbsg25
(irule
ConstantPhoneme
p828
(dp829
S'p'
Vh
sbsg28
(irule
Guard
p830
(dp831
g18
I00
sg19
(lp832
sg21
I00
sg22
Nsg23
I00
sg24
S'R'
sbsg32
(irule
FeatureMatrix
p833
(dp834
g35
(lp835
(I00
g185
tp836
asg22
Nsbsg22
Nsba(irule
Rule
p837
(dp838
g15
(irule
Guard
p839
(dp840
g18
I00
sg19
(lp841
(irule
FeatureMatrix
p842
(dp843
g35
(lp844
(I00
g312
tp845
asg22
Nsbasg21
I00
sg22
Nsg23
I00
sg24
S'L'
sbsg25
(irule
ConstantPhoneme
p846
(dp847
S'p'
Vh
sbsg28
(irule
Guard
p848
(dp849
g18
I00
sg19
(lp850
sg21
I00
sg22
Nsg23
I00
sg24
S'R'
sbsg32
(irule
ConstantPhoneme
p851
(dp852
S'p'
g251
sbsg22
Nsba(irule
Rule
p853
(dp854
g15
(irule
Guard
p855
(dp856
g18
I00
sg19
(lp857
(irule
FeatureMatrix
p858
(dp859
g35
(lp860
sg22
Nsbasg21
I00
sg22
Nsg23
I00
sg24
S'L'
sbsg25
(irule
ConstantPhoneme
p861
(dp862
S'p'
Vh
sbsg28
(irule
Guard
p863
(dp864
g18
I00
sg19
(lp865
sg21
I00
sg22
Nsg23
I00
sg24
S'R'
sbsg32
(irule
FeatureMatrix
p866
(dp867
g35
(lp868
(I00
g668
tp869
a(I00
g185
tp870
asg22
Nsbsg22
Nsba(irule
Rule
p871
(dp872
g15
(irule
Guard
p873
(dp874
g18
I00
sg19
(lp875
(irule
FeatureMatrix
p876
(dp877
g35
(lp878
(I00
S'glide'
p879
tp880
asg22
Nsbasg21
I00
sg22
Nsg23
I00
sg24
S'L'
sbsg25
(irule
ConstantPhoneme
p881
(dp882
S'p'
Vh
sbsg28
(irule
Guard
p883
(dp884
g18
I00
sg19
(lp885
sg21
I00
sg22
Nsg23
I00
sg24
S'R'
sbsg32
(irule
FeatureMatrix
p886
(dp887
g35
(lp888
(I00
g185
tp889
asg22
Nsbsg22
Nsba(irule
Rule
p890
(dp891
g15
(irule
Guard
p892
(dp893
g18
I00
sg19
(lp894
sg21
I00
sg22
Nsg23
I00
sg24
S'L'
sbsg25
(irule
ConstantPhoneme
p895
(dp896
S'p'
Vh
sbsg28
(irule
Guard
p897
(dp898
g18
I00
sg19
(lp899
sg21
I00
sg22
Nsg23
I00
sg24
S'R'
sbsg32
(irule
FeatureMatrix
p900
(dp901
g35
(lp902
(I01
g281
tp903
a(I00
g312
tp904
a(I00
g185
tp905
asg22
Nsbsg22
Nsba(irule
Rule
p906
(dp907
g15
(irule
Guard
p908
(dp909
g18
I00
sg19
(lp910
(irule
FeatureMatrix
p911
(dp912
g35
(lp913
sg22
Nsbasg21
I00
sg22
Nsg23
I00
sg24
S'L'
sbsg25
(irule
ConstantPhoneme
p914
(dp915
S'p'
Vh
sbsg28
(irule
Guard
p916
(dp917
g18
I00
sg19
(lp918
sg21
I00
sg22
Nsg23
I00
sg24
S'R'
sbsg32
(irule
FeatureMatrix
p919
(dp920
g35
(lp921
(I01
g265
tp922
a(I00
g185
tp923
asg22
Nsbsg22
Nsba(irule
Rule
p924
(dp925
g15
(irule
Guard
p926
(dp927
g18
I00
sg19
(lp928
(irule
FeatureMatrix
p929
(dp930
g35
(lp931
(I00
g552
tp932
asg22
Nsbasg21
I00
sg22
Nsg23
I00
sg24
S'L'
sbsg25
(irule
ConstantPhoneme
p933
(dp934
S'p'
Vh
sbsg28
(irule
Guard
p935
(dp936
g18
I00
sg19
(lp937
sg21
I00
sg22
Nsg23
I00
sg24
S'R'
sbsg32
(irule
ConstantPhoneme
p938
(dp939
S'p'
g251
sbsg22
Nsba(irule
Rule
p940
(dp941
g15
(irule
Guard
p942
(dp943
g18
I00
sg19
(lp944
(irule
FeatureMatrix
p945
(dp946
g35
(lp947
sg22
Nsbasg21
I00
sg22
Nsg23
I00
sg24
S'L'
sbsg25
(irule
ConstantPhoneme
p948
(dp949
S'p'
Vh
sbsg28
(irule
Guard
p950
(dp951
g18
I00
sg19
(lp952
sg21
I00
sg22
Nsg23
I00
sg24
S'R'
sbsg32
(irule
FeatureMatrix
p953
(dp954
g35
(lp955
(I01
S'lateral'
p956
tp957
a(I00
g185
tp958
asg22
Nsbsg22
Nsba(irule
Rule
p959
(dp960
g15
(irule
Guard
p961
(dp962
g18
I00
sg19
(lp963
(irule
FeatureMatrix
p964
(dp965
g35
(lp966
sg22
Nsbasg21
I00
sg22
Nsg23
I00
sg24
S'L'
sbsg25
(irule
ConstantPhoneme
p967
(dp968
S'p'
Vh
sbsg28
(irule
Guard
p969
(dp970
g18
I00
sg19
(lp971
sg21
I00
sg22
Nsg23
I00
sg24
S'R'
sbsg32
(irule
FeatureMatrix
p972
(dp973
g35
(lp974
(I00
g879
tp975
a(I00
g185
tp976
asg22
Nsbsg22
Nsba(irule
Rule
p977
(dp978
g15
(irule
Guard
p979
(dp980
g18
I00
sg19
(lp981
(irule
FeatureMatrix
p982
(dp983
g35
(lp984
sg22
Nsbasg21
I00
sg22
Nsg23
I00
sg24
S'L'
sbsg25
(irule
ConstantPhoneme
p985
(dp986
S'p'
Vh
sbsg28
(irule
Guard
p987
(dp988
g18
I00
sg19
(lp989
sg21
I00
sg22
Nsg23
I00
sg24
S'R'
sbsg32
(irule
FeatureMatrix
p990
(dp991
g35
(lp992
(I01
g183
tp993
a(I00
g185
tp994
asg22
Nsbsg22
Nsba(irule
Rule
p995
(dp996
g15
(irule
Guard
p997
(dp998
g18
I00
sg19
(lp999
(irule
FeatureMatrix
p1000
(dp1001
g35
(lp1002
(I01
g233
tp1003
asg22
Nsbasg21
I00
sg22
Nsg23
I00
sg24
S'L'
sbsg25
(irule
ConstantPhoneme
p1004
(dp1005
S'p'
Vh
sbsg28
(irule
Guard
p1006
(dp1007
g18
I00
sg19
(lp1008
sg21
I00
sg22
Nsg23
I00
sg24
S'R'
sbsg32
(irule
ConstantPhoneme
p1009
(dp1010
S'p'
g251
sbsg22
Nsba(irule
Rule
p1011
(dp1012
g15
(irule
Guard
p1013
(dp1014
g18
I00
sg19
(lp1015
(irule
FeatureMatrix
p1016
(dp1017
g35
(lp1018
sg22
Nsbasg21
I00
sg22
Nsg23
I00
sg24
S'L'
sbsg25
(irule
ConstantPhoneme
p1019
(dp1020
S'p'
Vh
sbsg28
(irule
Guard
p1021
(dp1022
g18
I00
sg19
(lp1023
sg21
I00
sg22
Nsg23
I00
sg24
S'R'
sbsg32
(irule
FeatureMatrix
p1024
(dp1025
g35
(lp1026
(I00
S'nasal'
p1027
tp1028
a(I00
g185
tp1029
asg22
Nsbsg22
Nsba(irule
Rule
p1030
(dp1031
g15
(irule
Guard
p1032
(dp1033
g18
I00
sg19
(lp1034
sg21
I00
sg22
Nsg23
I00
sg24
S'L'
sbsg25
(irule
ConstantPhoneme
p1035
(dp1036
S'p'
Vh
sbsg28
(irule
Guard
p1037
(dp1038
g18
I00
sg19
(lp1039
sg21
I00
sg22
Nsg23
I00
sg24
S'R'
sbsg32
(irule
FeatureMatrix
p1040
(dp1041
g35
(lp1042
(I01
g233
tp1043
a(I00
g473
tp1044
a(I00
g185
tp1045
asg22
Nsbsg22
Nsba(irule
Rule
p1046
(dp1047
g15
(irule
Guard
p1048
(dp1049
g18
I00
sg19
(lp1050
(irule
FeatureMatrix
p1051
(dp1052
g35
(lp1053
(I00
g879
tp1054
asg22
Nsbasg21
I00
sg22
Nsg23
I00
sg24
S'L'
sbsg25
(irule
ConstantPhoneme
p1055
(dp1056
S'p'
Vh
sbsg28
(irule
Guard
p1057
(dp1058
g18
I00
sg19
(lp1059
sg21
I00
sg22
Nsg23
I00
sg24
S'R'
sbsg32
(irule
ConstantPhoneme
p1060
(dp1061
S'p'
g251
sbsg22
Nsba(irule
Rule
p1062
(dp1063
g15
(irule
Guard
p1064
(dp1065
g18
I00
sg19
(lp1066
sg21
I00
sg22
Nsg23
I00
sg24
S'L'
sbsg25
(irule
ConstantPhoneme
p1067
(dp1068
S'p'
Vh
sbsg28
(irule
Guard
p1069
(dp1070
g18
I00
sg19
(lp1071
sg21
I00
sg22
Nsg23
I00
sg24
S'R'
sbsg32
(irule
FeatureMatrix
p1072
(dp1073
g35
(lp1074
(I00
g581
tp1075
a(I01
g233
tp1076
a(I00
g185
tp1077
asg22
Nsbsg22
Nsba(irule
Rule
p1078
(dp1079
g15
(irule
Guard
p1080
(dp1081
g18
I00
sg19
(lp1082
(irule
FeatureMatrix
p1083
(dp1084
g35
(lp1085
(I00
g826
tp1086
asg22
Nsbasg21
I00
sg22
Nsg23
I00
sg24
S'L'
sbsg25
(irule
ConstantPhoneme
p1087
(dp1088
S'p'
Vh
sbsg28
(irule
Guard
p1089
(dp1090
g18
I00
sg19
(lp1091
sg21
I00
sg22
Nsg23
I00
sg24
S'R'
sbsg32
(irule
ConstantPhoneme
p1092
(dp1093
S'p'
g251
sbsg22
Nsba(irule
Rule
p1094
(dp1095
g15
(irule
Guard
p1096
(dp1097
g18
I00
sg19
(lp1098
(irule
FeatureMatrix
p1099
(dp1100
g35
(lp1101
sg22
Nsbasg21
I00
sg22
Nsg23
I00
sg24
S'L'
sbsg25
(irule
ConstantPhoneme
p1102
(dp1103
S'p'
Vh
sbsg28
(irule
Guard
p1104
(dp1105
g18
I00
sg19
(lp1106
sg21
I00
sg22
Nsg23
I00
sg24
S'R'
sbsg32
(irule
FeatureMatrix
p1107
(dp1108
g35
(lp1109
(I00
g826
tp1110
a(I00
g185
tp1111
asg22
Nsbsg22
Nsba(irule
Rule
p1112
(dp1113
g15
(irule
Guard
p1114
(dp1115
g18
I00
sg19
(lp1116
(irule
FeatureMatrix
p1117
(dp1118
g35
(lp1119
sg22
Nsbasg21
I00
sg22
Nsg23
I00
sg24
S'L'
sbsg25
(irule
ConstantPhoneme
p1120
(dp1121
S'p'
Vh
sbsg28
(irule
Guard
p1122
(dp1123
g18
I00
sg19
(lp1124
sg21
I00
sg22
Nsg23
I00
sg24
S'R'
sbsg32
(irule
FeatureMatrix
p1125
(dp1126
g35
(lp1127
(I00
g755
tp1128
a(I00
g185
tp1129
asg22
Nsbsg22
Nsba(irule
Rule
p1130
(dp1131
g15
(irule
Guard
p1132
(dp1133
g18
I00
sg19
(lp1134
sg21
I00
sg22
Nsg23
I00
sg24
S'L'
sbsg25
(irule
ConstantPhoneme
p1135
(dp1136
S'p'
Vh
sbsg28
(irule
Guard
p1137
(dp1138
g18
I00
sg19
(lp1139
sg21
I00
sg22
Nsg23
I00
sg24
S'R'
sbsg32
(irule
FeatureMatrix
p1140
(dp1141
g35
(lp1142
(I00
g217
tp1143
a(I00
g826
tp1144
a(I00
g185
tp1145
asg22
Nsbsg22
Nsba(irule
Rule
p1146
(dp1147
g15
(irule
Guard
p1148
(dp1149
g18
I00
sg19
(lp1150
sg21
I00
sg22
Nsg23
I00
sg24
S'L'
sbsg25
(irule
ConstantPhoneme
p1151
(dp1152
S'p'
Vh
sbsg28
(irule
Guard
p1153
(dp1154
g18
I00
sg19
(lp1155
sg21
I00
sg22
Nsg23
I00
sg24
S'R'
sbsg32
(irule
FeatureMatrix
p1156
(dp1157
g35
(lp1158
(I00
g217
tp1159
a(I00
g312
tp1160
a(I00
g185
tp1161
asg22
Nsbsg22
Nsba(irule
Rule
p1162
(dp1163
g15
(irule
Guard
p1164
(dp1165
g18
I00
sg19
(lp1166
(irule
FeatureMatrix
p1167
(dp1168
g35
(lp1169
(I00
g454
tp1170
asg22
Nsbasg21
I00
sg22
Nsg23
I00
sg24
S'L'
sbsg25
(irule
ConstantPhoneme
p1171
(dp1172
S'p'
Vh
sbsg28
(irule
Guard
p1173
(dp1174
g18
I00
sg19
(lp1175
sg21
I00
sg22
Nsg23
I00
sg24
S'R'
sbsg32
(irule
ConstantPhoneme
p1176
(dp1177
S'p'
g251
sbsg22
Nsba(irule
Rule
p1178
(dp1179
g15
(irule
Guard
p1180
(dp1181
g18
I00
sg19
(lp1182
sg21
I00
sg22
Nsg23
I00
sg24
S'L'
sbsg25
(irule
ConstantPhoneme
p1183
(dp1184
S'p'
Vh
sbsg28
(irule
Guard
p1185
(dp1186
g18
I00
sg19
(lp1187
sg21
I00
sg22
Nsg23
I00
sg24
S'R'
sbsg32
(irule
FeatureMatrix
p1188
(dp1189
g35
(lp1190
(I00
g217
tp1191
a(I00
g367
tp1192
a(I00
g185
tp1193
asg22
Nsbsg22
Nsba(irule
Rule
p1194
(dp1195
g15
(irule
Guard
p1196
(dp1197
g18
I00
sg19
(lp1198
sg21
I00
sg22
Nsg23
I00
sg24
S'L'
sbsg25
(irule
ConstantPhoneme
p1199
(dp1200
S'p'
Vh
sbsg28
(irule
Guard
p1201
(dp1202
g18
I00
sg19
(lp1203
sg21
I00
sg22
Nsg23
I00
sg24
S'R'
sbsg32
(irule
FeatureMatrix
p1204
(dp1205
g35
(lp1206
(I01
g265
tp1207
a(I00
g312
tp1208
a(I00
g185
tp1209
asg22
Nsbsg22
Nsba(irule
Rule
p1210
(dp1211
g15
(irule
Guard
p1212
(dp1213
g18
I00
sg19
(lp1214
sg21
I00
sg22
Nsg23
I00
sg24
S'L'
sbsg25
(irule
ConstantPhoneme
p1215
(dp1216
S'p'
Vh
sbsg28
(irule
Guard
p1217
(dp1218
g18
I00
sg19
(lp1219
sg21
I00
sg22
Nsg23
I00
sg24
S'R'
sbsg32
(irule
FeatureMatrix
p1220
(dp1221
g35
(lp1222
(I00
g217
tp1223
a(I00
g879
tp1224
a(I00
g185
tp1225
asg22
Nsbsg22
Nsba(irule
Rule
p1226
(dp1227
g15
(irule
Guard
p1228
(dp1229
g18
I00
sg19
(lp1230
(irule
FeatureMatrix
p1231
(dp1232
g35
(lp1233
(I01
g265
tp1234
asg22
Nsbasg21
I00
sg22
Nsg23
I00
sg24
S'L'
sbsg25
(irule
ConstantPhoneme
p1235
(dp1236
S'p'
Vh
sbsg28
(irule
Guard
p1237
(dp1238
g18
I00
sg19
(lp1239
sg21
I00
sg22
Nsg23
I00
sg24
S'R'
sbsg32
(irule
ConstantPhoneme
p1240
(dp1241
S'p'
g251
sbsg22
Nsba(irule
Rule
p1242
(dp1243
g15
(irule
Guard
p1244
(dp1245
g18
I00
sg19
(lp1246
sg21
I00
sg22
Nsg23
I00
sg24
S'L'
sbsg25
(irule
ConstantPhoneme
p1247
(dp1248
S'p'
Vh
sbsg28
(irule
Guard
p1249
(dp1250
g18
I00
sg19
(lp1251
sg21
I00
sg22
Nsg23
I00
sg24
S'R'
sbsg32
(irule
FeatureMatrix
p1252
(dp1253
g35
(lp1254
(I01
g956
tp1255
a(I00
g1027
tp1256
a(I00
g185
tp1257
asg22
Nsbsg22
Nsba(irule
Rule
p1258
(dp1259
g15
(irule
Guard
p1260
(dp1261
g18
I00
sg19
(lp1262
sg21
I00
sg22
Nsg23
I00
sg24
S'L'
sbsg25
(irule
ConstantPhoneme
p1263
(dp1264
S'p'
Vh
sbsg28
(irule
Guard
p1265
(dp1266
g18
I00
sg19
(lp1267
sg21
I00
sg22
Nsg23
I00
sg24
S'R'
sbsg32
(irule
FeatureMatrix
p1268
(dp1269
g35
(lp1270
(I01
g281
tp1271
a(I00
g367
tp1272
a(I00
g185
tp1273
asg22
Nsbsg22
Nsba(irule
Rule
p1274
(dp1275
g15
(irule
Guard
p1276
(dp1277
g18
I00
sg19
(lp1278
(irule
FeatureMatrix
p1279
(dp1280
g35
(lp1281
(I00
g755
tp1282
asg22
Nsbasg21
I00
sg22
Nsg23
I00
sg24
S'L'
sbsg25
(irule
ConstantPhoneme
p1283
(dp1284
S'p'
Vh
sbsg28
(irule
Guard
p1285
(dp1286
g18
I00
sg19
(lp1287
sg21
I00
sg22
Nsg23
I00
sg24
S'R'
sbsg32
(irule
ConstantPhoneme
p1288
(dp1289
S'p'
g251
sbsg22
Nsba(irule
Rule
p1290
(dp1291
g15
(irule
Guard
p1292
(dp1293
g18
I00
sg19
(lp1294
sg21
I00
sg22
Nsg23
I00
sg24
S'L'
sbsg25
(irule
ConstantPhoneme
p1295
(dp1296
S'p'
Vh
sbsg28
(irule
Guard
p1297
(dp1298
g18
I00
sg19
(lp1299
sg21
I00
sg22
Nsg23
I00
sg24
S'R'
sbsg32
(irule
FeatureMatrix
p1300
(dp1301
g35
(lp1302
(I00
g367
tp1303
a(I01
g233
tp1304
a(I00
g185
tp1305
asg22
Nsbsg22
Nsba(irule
Rule
p1306
(dp1307
g15
(irule
Guard
p1308
(dp1309
g18
I00
sg19
(lp1310
(irule
FeatureMatrix
p1311
(dp1312
g35
(lp1313
(I00
g473
tp1314
asg22
Nsbasg21
I00
sg22
Nsg23
I00
sg24
S'L'
sbsg25
(irule
ConstantPhoneme
p1315
(dp1316
S'p'
Vh
sbsg28
(irule
Guard
p1317
(dp1318
g18
I00
sg19
(lp1319
sg21
I00
sg22
Nsg23
I00
sg24
S'R'
sbsg32
(irule
ConstantPhoneme
p1320
(dp1321
S'p'
g251
sbsg22
Nsba(irule
Rule
p1322
(dp1323
g15
(irule
Guard
p1324
(dp1325
g18
I00
sg19
(lp1326
(irule
FeatureMatrix
p1327
(dp1328
g35
(lp1329
(I00
g668
tp1330
asg22
Nsbasg21
I00
sg22
Nsg23
I00
sg24
S'L'
sbsg25
(irule
ConstantPhoneme
p1331
(dp1332
S'p'
Vh
sbsg28
(irule
Guard
p1333
(dp1334
g18
I00
sg19
(lp1335
sg21
I00
sg22
Nsg23
I00
sg24
S'R'
sbsg32
(irule
ConstantPhoneme
p1336
(dp1337
S'p'
g251
sbsg22
Nsba(irule
Rule
p1338
(dp1339
g15
(irule
Guard
p1340
(dp1341
g18
I00
sg19
(lp1342
sg21
I00
sg22
Nsg23
I00
sg24
S'L'
sbsg25
(irule
ConstantPhoneme
p1343
(dp1344
S'p'
Vh
sbsg28
(irule
Guard
p1345
(dp1346
g18
I00
sg19
(lp1347
sg21
I00
sg22
Nsg23
I00
sg24
S'R'
sbsg32
(irule
FeatureMatrix
p1348
(dp1349
g35
(lp1350
(I01
g265
tp1351
a(I00
g454
tp1352
a(I00
g185
tp1353
asg22
Nsbsg22
Nsba(irule
Rule
p1354
(dp1355
g15
(irule
Guard
p1356
(dp1357
g18
I00
sg19
(lp1358
sg21
I00
sg22
Nsg23
I00
sg24
S'L'
sbsg25
(irule
ConstantPhoneme
p1359
(dp1360
S'p'
Vh
sbsg28
(irule
Guard
p1361
(dp1362
g18
I00
sg19
(lp1363
sg21
I00
sg22
Nsg23
I00
sg24
S'R'
sbsg32
(irule
FeatureMatrix
p1364
(dp1365
g35
(lp1366
(I01
g956
tp1367
a(I00
g312
tp1368
a(I00
g185
tp1369
asg22
Nsbsg22
Nsba(irule
Rule
p1370
(dp1371
g15
(irule
Guard
p1372
(dp1373
g18
I00
sg19
(lp1374
sg21
I00
sg22
Nsg23
I00
sg24
S'L'
sbsg25
(irule
ConstantPhoneme
p1375
(dp1376
S'p'
Vh
sbsg28
(irule
Guard
p1377
(dp1378
g18
I00
sg19
(lp1379
sg21
I00
sg22
Nsg23
I00
sg24
S'R'
sbsg32
(irule
FeatureMatrix
p1380
(dp1381
g35
(lp1382
(I00
g217
tp1383
a(I00
g755
tp1384
a(I00
g185
tp1385
asg22
Nsbsg22
Nsba(irule
Rule
p1386
(dp1387
g15
(irule
Guard
p1388
(dp1389
g18
I00
sg19
(lp1390
sg21
I00
sg22
Nsg23
I00
sg24
S'L'
sbsg25
(irule
ConstantPhoneme
p1391
(dp1392
S'p'
Vh
sbsg28
(irule
Guard
p1393
(dp1394
g18
I00
sg19
(lp1395
sg21
I00
sg22
Nsg23
I00
sg24
S'R'
sbsg32
(irule
FeatureMatrix
p1396
(dp1397
g35
(lp1398
(I01
g265
tp1399
a(I00
g581
tp1400
a(I00
g185
tp1401
asg22
Nsbsg22
Nsba(irule
Rule
p1402
(dp1403
g15
(irule
Guard
p1404
(dp1405
g18
I00
sg19
(lp1406
sg21
I00
sg22
Nsg23
I00
sg24
S'L'
sbsg25
(irule
ConstantPhoneme
p1407
(dp1408
S'p'
Vh
sbsg28
(irule
Guard
p1409
(dp1410
g18
I00
sg19
(lp1411
sg21
I00
sg22
Nsg23
I00
sg24
S'R'
sbsg32
(irule
FeatureMatrix
p1412
(dp1413
g35
(lp1414
(I00
g668
tp1415
a(I01
g233
tp1416
a(I00
g185
tp1417
asg22
Nsbsg22
Nsba(irule
Rule
p1418
(dp1419
g15
(irule
Guard
p1420
(dp1421
g18
I00
sg19
(lp1422
sg21
I00
sg22
Nsg23
I00
sg24
S'L'
sbsg25
(irule
ConstantPhoneme
p1423
(dp1424
S'p'
Vh
sbsg28
(irule
Guard
p1425
(dp1426
g18
I00
sg19
(lp1427
sg21
I00
sg22
Nsg23
I00
sg24
S'R'
sbsg32
(irule
FeatureMatrix
p1428
(dp1429
g35
(lp1430
(I00
g217
tp1431
a(I00
g668
tp1432
a(I00
g185
tp1433
asg22
Nsbsg22
Nsba(irule
Rule
p1434
(dp1435
g15
(irule
Guard
p1436
(dp1437
g18
I00
sg19
(lp1438
sg21
I00
sg22
Nsg23
I00
sg24
S'L'
sbsg25
(irule
ConstantPhoneme
p1439
(dp1440
S'p'
Vh
sbsg28
(irule
Guard
p1441
(dp1442
g18
I00
sg19
(lp1443
sg21
I00
sg22
Nsg23
I00
sg24
S'R'
sbsg32
(irule
FeatureMatrix
p1444
(dp1445
g35
(lp1446
(I01
g265
tp1447
a(I01
g233
tp1448
a(I00
g185
tp1449
asg22
Nsbsg22
Nsba(irule
Rule
p1450
(dp1451
g15
(irule
Guard
p1452
(dp1453
g18
I00
sg19
(lp1454
sg21
I00
sg22
Nsg23
I00
sg24
S'L'
sbsg25
(irule
ConstantPhoneme
p1455
(dp1456
S'p'
Vh
sbsg28
(irule
Guard
p1457
(dp1458
g18
I00
sg19
(lp1459
sg21
I00
sg22
Nsg23
I00
sg24
S'R'
sbsg32
(irule
FeatureMatrix
p1460
(dp1461
g35
(lp1462
(I00
g879
tp1463
a(I01
g281
tp1464
a(I00
g185
tp1465
asg22
Nsbsg22
Nsba(irule
Rule
p1466
(dp1467
g15
(irule
Guard
p1468
(dp1469
g18
I00
sg19
(lp1470
sg21
I00
sg22
Nsg23
I00
sg24
S'L'
sbsg25
(irule
ConstantPhoneme
p1471
(dp1472
S'p'
Vh
sbsg28
(irule
Guard
p1473
(dp1474
g18
I00
sg19
(lp1475
sg21
I00
sg22
Nsg23
I00
sg24
S'R'
sbsg32
(irule
FeatureMatrix
p1476
(dp1477
g35
(lp1478
(I00
g879
tp1479
a(I01
g233
tp1480
a(I00
g185
tp1481
asg22
Nsbsg22
Nsba(irule
Rule
p1482
(dp1483
g15
(irule
Guard
p1484
(dp1485
g18
I00
sg19
(lp1486
sg21
I00
sg22
Nsg23
I00
sg24
S'L'
sbsg25
(irule
ConstantPhoneme
p1487
(dp1488
S'p'
Vh
sbsg28
(irule
Guard
p1489
(dp1490
g18
I00
sg19
(lp1491
sg21
I00
sg22
Nsg23
I00
sg24
S'R'
sbsg32
(irule
FeatureMatrix
p1492
(dp1493
g35
(lp1494
(I00
g1027
tp1495
a(I01
g233
tp1496
a(I00
g185
tp1497
asg22
Nsbsg22
Nsba(irule
Rule
p1498
(dp1499
g15
(irule
Guard
p1500
(dp1501
g18
I00
sg19
(lp1502
sg21
I00
sg22
Nsg23
I00
sg24
S'L'
sbsg25
(irule
ConstantPhoneme
p1503
(dp1504
S'p'
Vh
sbsg28
(irule
Guard
p1505
(dp1506
g18
I00
sg19
(lp1507
sg21
I00
sg22
Nsg23
I00
sg24
S'R'
sbsg32
(irule
FeatureMatrix
p1508
(dp1509
g35
(lp1510
(I00
g826
tp1511
a(I01
g233
tp1512
a(I00
g185
tp1513
asg22
Nsbsg22
Nsba(irule
Rule
p1514
(dp1515
g15
(irule
Guard
p1516
(dp1517
g18
I00
sg19
(lp1518
sg21
I00
sg22
Nsg23
I00
sg24
S'L'
sbsg25
(irule
ConstantPhoneme
p1519
(dp1520
S'p'
Vh
sbsg28
(irule
Guard
p1521
(dp1522
g18
I00
sg19
(lp1523
sg21
I00
sg22
Nsg23
I00
sg24
S'R'
sbsg32
(irule
FeatureMatrix
p1524
(dp1525
g35
(lp1526
(I00
g217
tp1527
a(I00
g454
tp1528
a(I00
g185
tp1529
asg22
Nsbsg22
Nsba(irule
Rule
p1530
(dp1531
g15
(irule
Guard
p1532
(dp1533
g18
I00
sg19
(lp1534
sg21
I00
sg22
Nsg23
I00
sg24
S'L'
sbsg25
(irule
ConstantPhoneme
p1535
(dp1536
S'p'
Vh
sbsg28
(irule
Guard
p1537
(dp1538
g18
I00
sg19
(lp1539
sg21
I00
sg22
Nsg23
I00
sg24
S'R'
sbsg32
(irule
FeatureMatrix
p1540
(dp1541
g35
(lp1542
(I01
g281
tp1543
a(I00
g1027
tp1544
a(I00
g185
tp1545
asg22
Nsbsg22
Nsba(irule
Rule
p1546
(dp1547
g15
(irule
Guard
p1548
(dp1549
g18
I00
sg19
(lp1550
sg21
I00
sg22
Nsg23
I00
sg24
S'L'
sbsg25
(irule
ConstantPhoneme
p1551
(dp1552
S'p'
Vh
sbsg28
(irule
Guard
p1553
(dp1554
g18
I00
sg19
(lp1555
sg21
I00
sg22
Nsg23
I00
sg24
S'R'
sbsg32
(irule
FeatureMatrix
p1556
(dp1557
g35
(lp1558
(I01
g183
tp1559
a(I00
g367
tp1560
a(I00
g185
tp1561
asg22
Nsbsg22
Nsba(irule
Rule
p1562
(dp1563
g15
(irule
Guard
p1564
(dp1565
g18
I00
sg19
(lp1566
sg21
I00
sg22
Nsg23
I00
sg24
S'L'
sbsg25
(irule
ConstantPhoneme
p1567
(dp1568
S'p'
Vh
sbsg28
(irule
Guard
p1569
(dp1570
g18
I00
sg19
(lp1571
sg21
I00
sg22
Nsg23
I00
sg24
S'R'
sbsg32
(irule
FeatureMatrix
p1572
(dp1573
g35
(lp1574
(I00
g755
tp1575
a(I01
g281
tp1576
a(I00
g185
tp1577
asg22
Nsbsg22
Nsba(irule
Rule
p1578
(dp1579
g15
(irule
Guard
p1580
(dp1581
g18
I00
sg19
(lp1582
sg21
I00
sg22
Nsg23
I00
sg24
S'L'
sbsg25
(irule
ConstantPhoneme
p1583
(dp1584
S'p'
Vh
sbsg28
(irule
Guard
p1585
(dp1586
g18
I00
sg19
(lp1587
sg21
I00
sg22
Nsg23
I00
sg24
S'R'
sbsg32
(irule
FeatureMatrix
p1588
(dp1589
g35
(lp1590
(I01
g265
tp1591
a(I00
g552
tp1592
a(I00
g185
tp1593
asg22
Nsbsg22
Nsba(irule
Rule
p1594
(dp1595
g15
(irule
Guard
p1596
(dp1597
g18
I00
sg19
(lp1598
sg21
I00
sg22
Nsg23
I00
sg24
S'L'
sbsg25
(irule
ConstantPhoneme
p1599
(dp1600
S'p'
Vh
sbsg28
(irule
Guard
p1601
(dp1602
g18
I00
sg19
(lp1603
sg21
I00
sg22
Nsg23
I00
sg24
S'R'
sbsg32
(irule
FeatureMatrix
p1604
(dp1605
g35
(lp1606
(I00
g1027
tp1607
a(I01
g265
tp1608
a(I00
g185
tp1609
asg22
Nsbsg22
Nsba(irule
Rule
p1610
(dp1611
g15
(irule
Guard
p1612
(dp1613
g18
I00
sg19
(lp1614
sg21
I00
sg22
Nsg23
I00
sg24
S'L'
sbsg25
(irule
ConstantPhoneme
p1615
(dp1616
S'p'
Vh
sbsg28
(irule
Guard
p1617
(dp1618
g18
I00
sg19
(lp1619
sg21
I00
sg22
Nsg23
I00
sg24
S'R'
sbsg32
(irule
FeatureMatrix
p1620
(dp1621
g35
(lp1622
(I00
g668
tp1623
a(I01
g265
tp1624
a(I00
g185
tp1625
asg22
Nsbsg22
Nsba(irule
Rule
p1626
(dp1627
g15
(irule
Guard
p1628
(dp1629
g18
I00
sg19
(lp1630
sg21
I00
sg22
Nsg23
I00
sg24
S'L'
sbsg25
(irule
ConstantPhoneme
p1631
(dp1632
S'p'
Vh
sbsg28
(irule
Guard
p1633
(dp1634
g18
I00
sg19
(lp1635
sg21
I00
sg22
Nsg23
I00
sg24
S'R'
sbsg32
(irule
FeatureMatrix
p1636
(dp1637
g35
(lp1638
(I01
g956
tp1639
a(I00
g454
tp1640
a(I00
g185
tp1641
asg22
Nsbsg22
Nsba(irule
Rule
p1642
(dp1643
g15
(irule
Guard
p1644
(dp1645
g18
I00
sg19
(lp1646
sg21
I00
sg22
Nsg23
I00
sg24
S'L'
sbsg25
(irule
ConstantPhoneme
p1647
(dp1648
S'p'
Vh
sbsg28
(irule
Guard
p1649
(dp1650
g18
I00
sg19
(lp1651
sg21
I00
sg22
Nsg23
I00
sg24
S'R'
sbsg32
(irule
FeatureMatrix
p1652
(dp1653
g35
(lp1654
(I01
g265
tp1655
a(I00
g473
tp1656
a(I00
g185
tp1657
asg22
Nsbsg22
Nsba(irule
Rule
p1658
(dp1659
g15
(irule
Guard
p1660
(dp1661
g18
I00
sg19
(lp1662
sg21
I00
sg22
Nsg23
I00
sg24
S'L'
sbsg25
(irule
ConstantPhoneme
p1663
(dp1664
S'p'
Vh
sbsg28
(irule
Guard
p1665
(dp1666
g18
I00
sg19
(lp1667
sg21
I00
sg22
Nsg23
I00
sg24
S'R'
sbsg32
(irule
FeatureMatrix
p1668
(dp1669
g35
(lp1670
(I00
g826
tp1671
a(I01
g956
tp1672
a(I00
g185
tp1673
asg22
Nsbsg22
Nsba(irule
Rule
p1674
(dp1675
g15
(irule
Guard
p1676
(dp1677
g18
I00
sg19
(lp1678
sg21
I00
sg22
Nsg23
I00
sg24
S'L'
sbsg25
(irule
ConstantPhoneme
p1679
(dp1680
S'p'
Vh
sbsg28
(irule
Guard
p1681
(dp1682
g18
I00
sg19
(lp1683
sg21
I00
sg22
Nsg23
I00
sg24
S'R'
sbsg32
(irule
FeatureMatrix
p1684
(dp1685
g35
(lp1686
(I00
g217
tp1687
a(I00
g1027
tp1688
a(I00
g185
tp1689
asg22
Nsbsg22
Nsba(irule
Rule
p1690
(dp1691
g15
(irule
Guard
p1692
(dp1693
g18
I00
sg19
(lp1694
sg21
I00
sg22
Nsg23
I00
sg24
S'L'
sbsg25
(irule
ConstantPhoneme
p1695
(dp1696
S'p'
Vh
sbsg28
(irule
Guard
p1697
(dp1698
g18
I00
sg19
(lp1699
sg21
I00
sg22
Nsg23
I00
sg24
S'R'
sbsg32
(irule
FeatureMatrix
p1700
(dp1701
g35
(lp1702
(I01
g183
tp1703
a(I00
g454
tp1704
a(I00
g185
tp1705
asg22
Nsbsg22
Nsba(irule
Rule
p1706
(dp1707
g15
(irule
Guard
p1708
(dp1709
g18
I00
sg19
(lp1710
sg21
I00
sg22
Nsg23
I00
sg24
S'L'
sbsg25
(irule
ConstantPhoneme
p1711
(dp1712
S'p'
Vh
sbsg28
(irule
Guard
p1713
(dp1714
g18
I00
sg19
(lp1715
sg21
I00
sg22
Nsg23
I00
sg24
S'R'
sbsg32
(irule
FeatureMatrix
p1716
(dp1717
g35
(lp1718
(I00
g879
tp1719
a(I01
g265
tp1720
a(I00
g185
tp1721
asg22
Nsbsg22
Nsba(irule
Rule
p1722
(dp1723
g15
(irule
Guard
p1724
(dp1725
g18
I00
sg19
(lp1726
sg21
I00
sg22
Nsg23
I00
sg24
S'L'
sbsg25
(irule
ConstantPhoneme
p1727
(dp1728
S'p'
Vh
sbsg28
(irule
Guard
p1729
(dp1730
g18
I00
sg19
(lp1731
sg21
I00
sg22
Nsg23
I00
sg24
S'R'
sbsg32
(irule
FeatureMatrix
p1732
(dp1733
g35
(lp1734
(I00
g826
tp1735
a(I01
g281
tp1736
a(I00
g185
tp1737
asg22
Nsbsg22
Nsba(irule
Rule
p1738
(dp1739
g15
(irule
Guard
p1740
(dp1741
g18
I00
sg19
(lp1742
sg21
I00
sg22
Nsg23
I00
sg24
S'L'
sbsg25
(irule
ConstantPhoneme
p1743
(dp1744
S'p'
Vh
sbsg28
(irule
Guard
p1745
(dp1746
g18
I00
sg19
(lp1747
sg21
I00
sg22
Nsg23
I00
sg24
S'R'
sbsg32
(irule
FeatureMatrix
p1748
(dp1749
g35
(lp1750
(I01
g956
tp1751
a(I00
g581
tp1752
a(I00
g185
tp1753
asg22
Nsbsg22
Nsba(irule
Rule
p1754
(dp1755
g15
(irule
Guard
p1756
(dp1757
g18
I00
sg19
(lp1758
sg21
I00
sg22
Nsg23
I00
sg24
S'L'
sbsg25
(irule
ConstantPhoneme
p1759
(dp1760
S'p'
Vh
sbsg28
(irule
Guard
p1761
(dp1762
g18
I00
sg19
(lp1763
sg21
I00
sg22
Nsg23
I00
sg24
S'R'
sbsg32
(irule
FeatureMatrix
p1764
(dp1765
g35
(lp1766
(I01
g281
tp1767
a(I00
g454
tp1768
a(I00
g185
tp1769
asg22
Nsbsg22
Nsba(irule
Rule
p1770
(dp1771
g15
(irule
Guard
p1772
(dp1773
g18
I00
sg19
(lp1774
sg21
I00
sg22
Nsg23
I00
sg24
S'L'
sbsg25
(irule
ConstantPhoneme
p1775
(dp1776
S'p'
Vh
sbsg28
(irule
Guard
p1777
(dp1778
g18
I00
sg19
(lp1779
sg21
I00
sg22
Nsg23
I00
sg24
S'R'
sbsg32
(irule
FeatureMatrix
p1780
(dp1781
g35
(lp1782
(I01
g183
tp1783
a(I00
g581
tp1784
a(I00
g185
tp1785
asg22
Nsbsg22
Nsba(irule
Rule
p1786
(dp1787
g15
(irule
Guard
p1788
(dp1789
g18
I00
sg19
(lp1790
sg21
I00
sg22
Nsg23
I00
sg24
S'L'
sbsg25
(irule
ConstantPhoneme
p1791
(dp1792
S'p'
Vh
sbsg28
(irule
Guard
p1793
(dp1794
g18
I00
sg19
(lp1795
sg21
I00
sg22
Nsg23
I00
sg24
S'R'
sbsg32
(irule
FeatureMatrix
p1796
(dp1797
g35
(lp1798
(I00
g755
tp1799
a(I01
g265
tp1800
a(I00
g185
tp1801
asg22
Nsbsg22
Nsba(irule
Rule
p1802
(dp1803
g15
(irule
Guard
p1804
(dp1805
g18
I00
sg19
(lp1806
sg21
I00
sg22
Nsg23
I00
sg24
S'L'
sbsg25
(irule
ConstantPhoneme
p1807
(dp1808
S'p'
Vh
sbsg28
(irule
Guard
p1809
(dp1810
g18
I00
sg19
(lp1811
sg21
I00
sg22
Nsg23
I00
sg24
S'R'
sbsg32
(irule
FeatureMatrix
p1812
(dp1813
g35
(lp1814
(I01
g956
tp1815
a(I00
g668
tp1816
a(I00
g185
tp1817
asg22
Nsbsg22
Nsba(irule
Rule
p1818
(dp1819
g15
(irule
Guard
p1820
(dp1821
g18
I00
sg19
(lp1822
sg21
I00
sg22
Nsg23
I00
sg24
S'L'
sbsg25
(irule
ConstantPhoneme
p1823
(dp1824
S'p'
Vh
sbsg28
(irule
Guard
p1825
(dp1826
g18
I00
sg19
(lp1827
sg21
I00
sg22
Nsg23
I00
sg24
S'R'
sbsg32
(irule
FeatureMatrix
p1828
(dp1829
g35
(lp1830
(I00
g755
tp1831
a(I01
g233
tp1832
a(I00
g185
tp1833
asg22
Nsbsg22
Nsbaa(lp1834
(irule
Rule
p1835
(dp1836
g15
(irule
Guard
p1837
(dp1838
g18
I00
sg19
(lp1839
(irule
FeatureMatrix
p1840
(dp1841
g35
(lp1842
(I01
S'coronal'
tp1843
asg22
V[ +coronal ]
p1844
sbasg21
I00
sg22
g1844
sg23
I00
sg24
S'L'
sbsg25
(irule
ConstantPhoneme
p1845
(dp1846
S'p'
V\u0294
sbsg28
(irule
Guard
p1847
(dp1848
g18
I00
sg19
(lp1849
sg21
I00
sg22
V
sg23
I00
sg24
S'R'
sbsg32
(irule
FeatureMatrix
p1850
(dp1851
g35
(lp1852
(I01
S'secondStress'
tp1853
asg22
V[ +secondStress ]
p1854
sbsg22
V[ +secondStress ] ---> \u0294 / [ +coronal ] _ 
p1855
sba(irule
Rule
p1856
(dp1857
g15
(irule
Guard
p1858
(dp1859
g18
I00
sg19
(lp1860
(irule
FeatureMatrix
p1861
(dp1862
g35
(lp1863
(I00
S'long'
p1864
tp1865
asg22
Nsbasg21
I00
sg22
Nsg23
I00
sg24
S'L'
sbsg25
(irule
ConstantPhoneme
p1866
(dp1867
S'p'
V\u0294
sbsg28
(irule
Guard
p1868
(dp1869
g18
I00
sg19
(lp1870
sg21
I00
sg22
Nsg23
I00
sg24
S'R'
sbsg32
(irule
FeatureMatrix
p1871
(dp1872
g35
(lp1873
(I01
S'secondStress'
p1874
tp1875
asg22
Nsbsg22
Nsba(irule
Rule
p1876
(dp1877
g15
(irule
Guard
p1878
(dp1879
g18
I00
sg19
(lp1880
(irule
FeatureMatrix
p1881
(dp1882
g35
(lp1883
(I00
S'back'
p1884
tp1885
asg22
Nsbasg21
I00
sg22
Nsg23
I00
sg24
S'L'
sbsg25
(irule
ConstantPhoneme
p1886
(dp1887
S'p'
V\u0294
sbsg28
(irule
Guard
p1888
(dp1889
g18
I00
sg19
(lp1890
sg21
I00
sg22
Nsg23
I00
sg24
S'R'
sbsg32
(irule
FeatureMatrix
p1891
(dp1892
g35
(lp1893
(I01
g1874
tp1894
asg22
Nsbsg22
Nsba(irule
Rule
p1895
(dp1896
g15
(irule
Guard
p1897
(dp1898
g18
I00
sg19
(lp1899
(irule
FeatureMatrix
p1900
(dp1901
g35
(lp1902
(I00
g1864
tp1903
asg22
Nsbasg21
I00
sg22
Nsg23
I00
sg24
S'L'
sbsg25
(irule
ConstantPhoneme
p1904
(dp1905
S'p'
V\u0294
sbsg28
(irule
Guard
p1906
(dp1907
g18
I00
sg19
(lp1908
sg21
I00
sg22
Nsg23
I00
sg24
S'R'
sbsg32
(irule
ConstantPhoneme
p1909
(dp1910
S'p'
Vl`
p1911
sbsg22
Nsba(irule
Rule
p1912
(dp1913
g15
(irule
Guard
p1914
(dp1915
g18
I00
sg19
(lp1916
(irule
FeatureMatrix
p1917
(dp1918
g35
(lp1919
(I00
S'vowel'
p1920
tp1921
asg22
Nsbasg21
I00
sg22
Nsg23
I00
sg24
S'L'
sbsg25
(irule
ConstantPhoneme
p1922
(dp1923
S'p'
V\u0294
sbsg28
(irule
Guard
p1924
(dp1925
g18
I00
sg19
(lp1926
sg21
I00
sg22
Nsg23
I00
sg24
S'R'
sbsg32
(irule
ConstantPhoneme
p1927
(dp1928
S'p'
g1911
sbsg22
Nsba(irule
Rule
p1929
(dp1930
g15
(irule
Guard
p1931
(dp1932
g18
I00
sg19
(lp1933
(irule
FeatureMatrix
p1934
(dp1935
g35
(lp1936
(I00
g1884
tp1937
asg22
Nsbasg21
I00
sg22
Nsg23
I00
sg24
S'L'
sbsg25
(irule
ConstantPhoneme
p1938
(dp1939
S'p'
V\u0294
sbsg28
(irule
Guard
p1940
(dp1941
g18
I00
sg19
(lp1942
sg21
I00
sg22
Nsg23
I00
sg24
S'R'
sbsg32
(irule
ConstantPhoneme
p1943
(dp1944
S'p'
g1911
sbsg22
Nsba(irule
Rule
p1945
(dp1946
g15
(irule
Guard
p1947
(dp1948
g18
I00
sg19
(lp1949
(irule
FeatureMatrix
p1950
(dp1951
g35
(lp1952
(I00
S'tense'
p1953
tp1954
asg22
Nsbasg21
I00
sg22
Nsg23
I00
sg24
S'L'
sbsg25
(irule
ConstantPhoneme
p1955
(dp1956
S'p'
V\u0294
sbsg28
(irule
Guard
p1957
(dp1958
g18
I00
sg19
(lp1959
sg21
I00
sg22
Nsg23
I00
sg24
S'R'
sbsg32
(irule
ConstantPhoneme
p1960
(dp1961
S'p'
g1911
sbsg22
Nsba(irule
Rule
p1962
(dp1963
g15
(irule
Guard
p1964
(dp1965
g18
I00
sg19
(lp1966
(irule
FeatureMatrix
p1967
(dp1968
g35
(lp1969
(I00
g1953
tp1970
asg22
Nsbasg21
I00
sg22
Nsg23
I00
sg24
S'L'
sbsg25
(irule
ConstantPhoneme
p1971
(dp1972
S'p'
V\u0294
sbsg28
(irule
Guard
p1973
(dp1974
g18
I00
sg19
(lp1975
sg21
I00
sg22
Nsg23
I00
sg24
S'R'
sbsg32
(irule
FeatureMatrix
p1976
(dp1977
g35
(lp1978
(I01
g1874
tp1979
asg22
Nsbsg22
Nsba(irule
Rule
p1980
(dp1981
g15
(irule
Guard
p1982
(dp1983
g18
I00
sg19
(lp1984
(irule
FeatureMatrix
p1985
(dp1986
g35
(lp1987
(I01
S'coronal'
p1988
tp1989
asg22
Nsbasg21
I00
sg22
Nsg23
I00
sg24
S'L'
sbsg25
(irule
ConstantPhoneme
p1990
(dp1991
S'p'
V\u0294
sbsg28
(irule
Guard
p1992
(dp1993
g18
I00
sg19
(lp1994
sg21
I00
sg22
Nsg23
I00
sg24
S'R'
sbsg32
(irule
ConstantPhoneme
p1995
(dp1996
S'p'
g1911
sbsg22
Nsba(irule
Rule
p1997
(dp1998
g15
(irule
Guard
p1999
(dp2000
g18
I00
sg19
(lp2001
(irule
FeatureMatrix
p2002
(dp2003
g35
(lp2004
(I00
S'low'
p2005
tp2006
asg22
Nsbasg21
I00
sg22
Nsg23
I00
sg24
S'L'
sbsg25
(irule
ConstantPhoneme
p2007
(dp2008
S'p'
V\u0294
sbsg28
(irule
Guard
p2009
(dp2010
g18
I00
sg19
(lp2011
sg21
I00
sg22
Nsg23
I00
sg24
S'R'
sbsg32
(irule
ConstantPhoneme
p2012
(dp2013
S'p'
g1911
sbsg22
Nsba(irule
Rule
p2014
(dp2015
g15
(irule
Guard
p2016
(dp2017
g18
I00
sg19
(lp2018
(irule
FeatureMatrix
p2019
(dp2020
g35
(lp2021
(I00
g2005
tp2022
asg22
Nsbasg21
I00
sg22
Nsg23
I00
sg24
S'L'
sbsg25
(irule
ConstantPhoneme
p2023
(dp2024
S'p'
V\u0294
sbsg28
(irule
Guard
p2025
(dp2026
g18
I00
sg19
(lp2027
sg21
I00
sg22
Nsg23
I00
sg24
S'R'
sbsg32
(irule
FeatureMatrix
p2028
(dp2029
g35
(lp2030
(I01
g1874
tp2031
asg22
Nsbsg22
Nsba(irule
Rule
p2032
(dp2033
g15
(irule
Guard
p2034
(dp2035
g18
I00
sg19
(lp2036
(irule
FeatureMatrix
p2037
(dp2038
g35
(lp2039
(I00
g1920
tp2040
asg22
Nsbasg21
I00
sg22
Nsg23
I00
sg24
S'L'
sbsg25
(irule
ConstantPhoneme
p2041
(dp2042
S'p'
V\u0294
sbsg28
(irule
Guard
p2043
(dp2044
g18
I00
sg19
(lp2045
sg21
I00
sg22
Nsg23
I00
sg24
S'R'
sbsg32
(irule
FeatureMatrix
p2046
(dp2047
g35
(lp2048
(I01
g1874
tp2049
asg22
Nsbsg22
Nsba(irule
Rule
p2050
(dp2051
g15
(irule
Guard
p2052
(dp2053
g18
I00
sg19
(lp2054
(irule
FeatureMatrix
p2055
(dp2056
g35
(lp2057
(I00
g1864
tp2058
a(I00
S'rounded'
p2059
tp2060
asg22
Nsbasg21
I00
sg22
Nsg23
I00
sg24
S'L'
sbsg25
(irule
ConstantPhoneme
p2061
(dp2062
S'p'
V\u0294
sbsg28
(irule
Guard
p2063
(dp2064
g18
I00
sg19
(lp2065
sg21
I00
sg22
Nsg23
I00
sg24
S'R'
sbsg32
(irule
ConstantPhoneme
p2066
(dp2067
S'p'
g1911
sbsg22
Nsba(irule
Rule
p2068
(dp2069
g15
(irule
Guard
p2070
(dp2071
g18
I00
sg19
(lp2072
(irule
FeatureMatrix
p2073
(dp2074
g35
(lp2075
(I00
g1864
tp2076
asg22
Nsbasg21
I00
sg22
Nsg23
I00
sg24
S'L'
sbsg25
(irule
ConstantPhoneme
p2077
(dp2078
S'p'
V\u0294
sbsg28
(irule
Guard
p2079
(dp2080
g18
I00
sg19
(lp2081
sg21
I00
sg22
Nsg23
I00
sg24
S'R'
sbsg32
(irule
FeatureMatrix
p2082
(dp2083
g35
(lp2084
(I01
S'liquid'
p2085
tp2086
a(I01
g1874
tp2087
asg22
Nsbsg22
Nsba(irule
Rule
p2088
(dp2089
g15
(irule
Guard
p2090
(dp2091
g18
I00
sg19
(lp2092
(irule
FeatureMatrix
p2093
(dp2094
g35
(lp2095
(I00
g1864
tp2096
a(I01
S'voice'
p2097
tp2098
asg22
Nsbasg21
I00
sg22
Nsg23
I00
sg24
S'L'
sbsg25
(irule
ConstantPhoneme
p2099
(dp2100
S'p'
V\u0294
sbsg28
(irule
Guard
p2101
(dp2102
g18
I00
sg19
(lp2103
sg21
I00
sg22
Nsg23
I00
sg24
S'R'
sbsg32
(irule
ConstantPhoneme
p2104
(dp2105
S'p'
g1911
sbsg22
Nsba(irule
Rule
p2106
(dp2107
g15
(irule
Guard
p2108
(dp2109
g18
I00
sg19
(lp2110
(irule
FeatureMatrix
p2111
(dp2112
g35
(lp2113
(I00
g1864
tp2114
asg22
Nsbasg21
I00
sg22
Nsg23
I00
sg24
S'L'
sbsg25
(irule
ConstantPhoneme
p2115
(dp2116
S'p'
V\u0294
sbsg28
(irule
Guard
p2117
(dp2118
g18
I00
sg19
(lp2119
sg21
I00
sg22
Nsg23
I00
sg24
S'R'
sbsg32
(irule
FeatureMatrix
p2120
(dp2121
g35
(lp2122
(I00
S'anterior'
p2123
tp2124
a(I01
g1874
tp2125
asg22
Nsbsg22
Nsba(irule
Rule
p2126
(dp2127
g15
(irule
Guard
p2128
(dp2129
g18
I00
sg19
(lp2130
(irule
FeatureMatrix
p2131
(dp2132
g35
(lp2133
(I00
g1864
tp2134
asg22
Nsbasg21
I00
sg22
Nsg23
I00
sg24
S'L'
sbsg25
(irule
ConstantPhoneme
p2135
(dp2136
S'p'
V\u0294
sbsg28
(irule
Guard
p2137
(dp2138
g18
I00
sg19
(lp2139
(irule
FeatureMatrix
p2140
(dp2141
g35
(lp2142
sg22
Nsbasg21
I00
sg22
Nsg23
I00
sg24
S'R'
sbsg32
(irule
ConstantPhoneme
p2143
(dp2144
S'p'
g1911
sbsg22
Nsba(irule
Rule
p2145
(dp2146
g15
(irule
Guard
p2147
(dp2148
g18
I00
sg19
(lp2149
(irule
FeatureMatrix
p2150
(dp2151
g35
(lp2152
(I00
g1884
tp2153
a(I00
g1874
tp2154
asg22
Nsbasg21
I00
sg22
Nsg23
I00
sg24
S'L'
sbsg25
(irule
ConstantPhoneme
p2155
(dp2156
S'p'
V\u0294
sbsg28
(irule
Guard
p2157
(dp2158
g18
I00
sg19
(lp2159
sg21
I00
sg22
Nsg23
I00
sg24
S'R'
sbsg32
(irule
FeatureMatrix
p2160
(dp2161
g35
(lp2162
(I01
g1874
tp2163
asg22
Nsbsg22
Nsba(irule
Rule
p2164
(dp2165
g15
(irule
Guard
p2166
(dp2167
g18
I00
sg19
(lp2168
(irule
FeatureMatrix
p2169
(dp2170
g35
(lp2171
(I00
g1864
tp2172
asg22
Nsbasg21
I00
sg22
Nsg23
I00
sg24
S'L'
sbsg25
(irule
ConstantPhoneme
p2173
(dp2174
S'p'
V\u0294
sbsg28
(irule
Guard
p2175
(dp2176
g18
I00
sg19
(lp2177
(irule
FeatureMatrix
p2178
(dp2179
g35
(lp2180
sg22
Nsbasg21
I00
sg22
Nsg23
I00
sg24
S'R'
sbsg32
(irule
FeatureMatrix
p2181
(dp2182
g35
(lp2183
(I01
g1874
tp2184
asg22
Nsbsg22
Nsba(irule
Rule
p2185
(dp2186
g15
(irule
Guard
p2187
(dp2188
g18
I00
sg19
(lp2189
(irule
FeatureMatrix
p2190
(dp2191
g35
(lp2192
(I00
g1864
tp2193
asg22
Nsbasg21
I00
sg22
Nsg23
I00
sg24
S'L'
sbsg25
(irule
ConstantPhoneme
p2194
(dp2195
S'p'
V\u0294
sbsg28
(irule
Guard
p2196
(dp2197
g18
I00
sg19
(lp2198
sg21
I00
sg22
Nsg23
I00
sg24
S'R'
sbsg32
(irule
FeatureMatrix
p2199
(dp2200
g35
(lp2201
(I00
S'glide'
p2202
tp2203
a(I01
g1874
tp2204
asg22
Nsbsg22
Nsba(irule
Rule
p2205
(dp2206
g15
(irule
Guard
p2207
(dp2208
g18
I00
sg19
(lp2209
(irule
FeatureMatrix
p2210
(dp2211
g35
(lp2212
(I00
g1920
tp2213
asg22
Nsbasg21
I00
sg22
Nsg23
I00
sg24
S'L'
sbsg25
(irule
ConstantPhoneme
p2214
(dp2215
S'p'
V\u0294
sbsg28
(irule
Guard
p2216
(dp2217
g18
I00
sg19
(lp2218
(irule
FeatureMatrix
p2219
(dp2220
g35
(lp2221
sg22
Nsbasg21
I00
sg22
Nsg23
I00
sg24
S'R'
sbsg32
(irule
FeatureMatrix
p2222
(dp2223
g35
(lp2224
(I01
g1874
tp2225
asg22
Nsbsg22
Nsba(irule
Rule
p2226
(dp2227
g15
(irule
Guard
p2228
(dp2229
g18
I00
sg19
(lp2230
(irule
FeatureMatrix
p2231
(dp2232
g35
(lp2233
(I00
g1884
tp2234
asg22
Nsbasg21
I00
sg22
Nsg23
I00
sg24
S'L'
sbsg25
(irule
ConstantPhoneme
p2235
(dp2236
S'p'
V\u0294
sbsg28
(irule
Guard
p2237
(dp2238
g18
I00
sg19
(lp2239
(irule
FeatureMatrix
p2240
(dp2241
g35
(lp2242
sg22
Nsbasg21
I00
sg22
Nsg23
I00
sg24
S'R'
sbsg32
(irule
ConstantPhoneme
p2243
(dp2244
S'p'
g1911
sbsg22
Nsba(irule
Rule
p2245
(dp2246
g15
(irule
Guard
p2247
(dp2248
g18
I00
sg19
(lp2249
(irule
FeatureMatrix
p2250
(dp2251
g35
(lp2252
(I00
g2005
tp2253
asg22
Nsbasg21
I00
sg22
Nsg23
I00
sg24
S'L'
sbsg25
(irule
ConstantPhoneme
p2254
(dp2255
S'p'
V\u0294
sbsg28
(irule
Guard
p2256
(dp2257
g18
I00
sg19
(lp2258
(irule
FeatureMatrix
p2259
(dp2260
g35
(lp2261
sg22
Nsbasg21
I00
sg22
Nsg23
I00
sg24
S'R'
sbsg32
(irule
ConstantPhoneme
p2262
(dp2263
S'p'
g1911
sbsg22
Nsba(irule
Rule
p2264
(dp2265
g15
(irule
Guard
p2266
(dp2267
g18
I00
sg19
(lp2268
(irule
FeatureMatrix
p2269
(dp2270
g35
(lp2271
(I00
g1920
tp2272
a(I01
g2097
tp2273
asg22
Nsbasg21
I00
sg22
Nsg23
I00
sg24
S'L'
sbsg25
(irule
ConstantPhoneme
p2274
(dp2275
S'p'
V\u0294
sbsg28
(irule
Guard
p2276
(dp2277
g18
I00
sg19
(lp2278
sg21
I00
sg22
Nsg23
I00
sg24
S'R'
sbsg32
(irule
FeatureMatrix
p2279
(dp2280
g35
(lp2281
(I01
g1874
tp2282
asg22
Nsbsg22
Nsba(irule
Rule
p2283
(dp2284
g15
(irule
Guard
p2285
(dp2286
g18
I00
sg19
(lp2287
(irule
FeatureMatrix
p2288
(dp2289
g35
(lp2290
(I00
g1920
tp2291
asg22
Nsbasg21
I00
sg22
Nsg23
I00
sg24
S'L'
sbsg25
(irule
ConstantPhoneme
p2292
(dp2293
S'p'
V\u0294
sbsg28
(irule
Guard
p2294
(dp2295
g18
I00
sg19
(lp2296
(irule
FeatureMatrix
p2297
(dp2298
g35
(lp2299
sg22
Nsbasg21
I00
sg22
Nsg23
I00
sg24
S'R'
sbsg32
(irule
ConstantPhoneme
p2300
(dp2301
S'p'
g1911
sbsg22
Nsba(irule
Rule
p2302
(dp2303
g15
(irule
Guard
p2304
(dp2305
g18
I00
sg19
(lp2306
(irule
FeatureMatrix
p2307
(dp2308
g35
(lp2309
(I00
g1920
tp2310
a(I00
g1874
tp2311
asg22
Nsbasg21
I00
sg22
Nsg23
I00
sg24
S'L'
sbsg25
(irule
ConstantPhoneme
p2312
(dp2313
S'p'
V\u0294
sbsg28
(irule
Guard
p2314
(dp2315
g18
I00
sg19
(lp2316
sg21
I00
sg22
Nsg23
I00
sg24
S'R'
sbsg32
(irule
FeatureMatrix
p2317
(dp2318
g35
(lp2319
(I01
g1874
tp2320
asg22
Nsbsg22
Nsba(irule
Rule
p2321
(dp2322
g15
(irule
Guard
p2323
(dp2324
g18
I00
sg19
(lp2325
(irule
FeatureMatrix
p2326
(dp2327
g35
(lp2328
(I00
g1884
tp2329
asg22
Nsbasg21
I00
sg22
Nsg23
I00
sg24
S'L'
sbsg25
(irule
ConstantPhoneme
p2330
(dp2331
S'p'
V\u0294
sbsg28
(irule
Guard
p2332
(dp2333
g18
I00
sg19
(lp2334
sg21
I00
sg22
Nsg23
I00
sg24
S'R'
sbsg32
(irule
FeatureMatrix
p2335
(dp2336
g35
(lp2337
(I01
g2085
tp2338
a(I01
g1874
tp2339
asg22
Nsbsg22
Nsba(irule
Rule
p2340
(dp2341
g15
(irule
Guard
p2342
(dp2343
g18
I00
sg19
(lp2344
(irule
FeatureMatrix
p2345
(dp2346
g35
(lp2347
(I00
g1864
tp2348
a(I01
g2097
tp2349
asg22
Nsbasg21
I00
sg22
Nsg23
I00
sg24
S'L'
sbsg25
(irule
ConstantPhoneme
p2350
(dp2351
S'p'
V\u0294
sbsg28
(irule
Guard
p2352
(dp2353
g18
I00
sg19
(lp2354
sg21
I00
sg22
Nsg23
I00
sg24
S'R'
sbsg32
(irule
FeatureMatrix
p2355
(dp2356
g35
(lp2357
(I01
g1874
tp2358
asg22
Nsbsg22
Nsba(irule
Rule
p2359
(dp2360
g15
(irule
Guard
p2361
(dp2362
g18
I00
sg19
(lp2363
(irule
FeatureMatrix
p2364
(dp2365
g35
(lp2366
(I00
g1864
tp2367
a(I00
g2059
tp2368
asg22
Nsbasg21
I00
sg22
Nsg23
I00
sg24
S'L'
sbsg25
(irule
ConstantPhoneme
p2369
(dp2370
S'p'
V\u0294
sbsg28
(irule
Guard
p2371
(dp2372
g18
I00
sg19
(lp2373
sg21
I00
sg22
Nsg23
I00
sg24
S'R'
sbsg32
(irule
FeatureMatrix
p2374
(dp2375
g35
(lp2376
(I01
g1874
tp2377
asg22
Nsbsg22
Nsba(irule
Rule
p2378
(dp2379
g15
(irule
Guard
p2380
(dp2381
g18
I00
sg19
(lp2382
(irule
FeatureMatrix
p2383
(dp2384
g35
(lp2385
(I00
g1884
tp2386
asg22
Nsbasg21
I00
sg22
Nsg23
I00
sg24
S'L'
sbsg25
(irule
ConstantPhoneme
p2387
(dp2388
S'p'
V\u0294
sbsg28
(irule
Guard
p2389
(dp2390
g18
I00
sg19
(lp2391
(irule
FeatureMatrix
p2392
(dp2393
g35
(lp2394
sg22
Nsbasg21
I00
sg22
Nsg23
I00
sg24
S'R'
sbsg32
(irule
FeatureMatrix
p2395
(dp2396
g35
(lp2397
(I01
g1874
tp2398
asg22
Nsbsg22
Nsba(irule
Rule
p2399
(dp2400
g15
(irule
Guard
p2401
(dp2402
g18
I00
sg19
(lp2403
(irule
FeatureMatrix
p2404
(dp2405
g35
(lp2406
(I00
g2005
tp2407
a(I01
g2097
tp2408
asg22
Nsbasg21
I00
sg22
Nsg23
I00
sg24
S'L'
sbsg25
(irule
ConstantPhoneme
p2409
(dp2410
S'p'
V\u0294
sbsg28
(irule
Guard
p2411
(dp2412
g18
I00
sg19
(lp2413
sg21
I00
sg22
Nsg23
I00
sg24
S'R'
sbsg32
(irule
FeatureMatrix
p2414
(dp2415
g35
(lp2416
(I01
g1874
tp2417
asg22
Nsbsg22
Nsba(irule
Rule
p2418
(dp2419
g15
(irule
Guard
p2420
(dp2421
g18
I00
sg19
(lp2422
(irule
FeatureMatrix
p2423
(dp2424
g35
(lp2425
(I00
g1864
tp2426
a(I00
g2202
tp2427
asg22
Nsbasg21
I00
sg22
Nsg23
I00
sg24
S'L'
sbsg25
(irule
ConstantPhoneme
p2428
(dp2429
S'p'
V\u0294
sbsg28
(irule
Guard
p2430
(dp2431
g18
I00
sg19
(lp2432
sg21
I00
sg22
Nsg23
I00
sg24
S'R'
sbsg32
(irule
FeatureMatrix
p2433
(dp2434
g35
(lp2435
(I01
g1874
tp2436
asg22
Nsbsg22
Nsba(irule
Rule
p2437
(dp2438
g15
(irule
Guard
p2439
(dp2440
g18
I00
sg19
(lp2441
(irule
FeatureMatrix
p2442
(dp2443
g35
(lp2444
(I00
g1864
tp2445
a(I00
S'palletized'
p2446
tp2447
asg22
Nsbasg21
I00
sg22
Nsg23
I00
sg24
S'L'
sbsg25
(irule
ConstantPhoneme
p2448
(dp2449
S'p'
V\u0294
sbsg28
(irule
Guard
p2450
(dp2451
g18
I00
sg19
(lp2452
sg21
I00
sg22
Nsg23
I00
sg24
S'R'
sbsg32
(irule
FeatureMatrix
p2453
(dp2454
g35
(lp2455
(I01
g1874
tp2456
asg22
Nsbsg22
Nsba(irule
Rule
p2457
(dp2458
g15
(irule
Guard
p2459
(dp2460
g18
I00
sg19
(lp2461
(irule
FeatureMatrix
p2462
(dp2463
g35
(lp2464
(I00
g1864
tp2465
asg22
Nsbasg21
I00
sg22
Nsg23
I00
sg24
S'L'
sbsg25
(irule
ConstantPhoneme
p2466
(dp2467
S'p'
V\u0294
sbsg28
(irule
Guard
p2468
(dp2469
g18
I00
sg19
(lp2470
sg21
I00
sg22
Nsg23
I00
sg24
S'R'
sbsg32
(irule
FeatureMatrix
p2471
(dp2472
g35
(lp2473
(I01
g1874
tp2474
a(I01
g2097
tp2475
asg22
Nsbsg22
Nsba(irule
Rule
p2476
(dp2477
g15
(irule
Guard
p2478
(dp2479
g18
I00
sg19
(lp2480
(irule
FeatureMatrix
p2481
(dp2482
g35
(lp2483
(I00
g1864
tp2484
a(I01
S'sonorant'
p2485
tp2486
asg22
Nsbasg21
I00
sg22
Nsg23
I00
sg24
S'L'
sbsg25
(irule
ConstantPhoneme
p2487
(dp2488
S'p'
V\u0294
sbsg28
(irule
Guard
p2489
(dp2490
g18
I00
sg19
(lp2491
sg21
I00
sg22
Nsg23
I00
sg24
S'R'
sbsg32
(irule
FeatureMatrix
p2492
(dp2493
g35
(lp2494
(I01
g1874
tp2495
asg22
Nsbsg22
Nsba(irule
Rule
p2496
(dp2497
g15
(irule
Guard
p2498
(dp2499
g18
I00
sg19
(lp2500
(irule
FeatureMatrix
p2501
(dp2502
g35
(lp2503
(I00
g1920
tp2504
asg22
Nsbasg21
I00
sg22
Nsg23
I00
sg24
S'L'
sbsg25
(irule
ConstantPhoneme
p2505
(dp2506
S'p'
V\u0294
sbsg28
(irule
Guard
p2507
(dp2508
g18
I00
sg19
(lp2509
sg21
I00
sg22
Nsg23
I00
sg24
S'R'
sbsg32
(irule
FeatureMatrix
p2510
(dp2511
g35
(lp2512
(I01
g1874
tp2513
a(I01
g2097
tp2514
asg22
Nsbsg22
Nsba(irule
Rule
p2515
(dp2516
g15
(irule
Guard
p2517
(dp2518
g18
I00
sg19
(lp2519
(irule
FeatureMatrix
p2520
(dp2521
g35
(lp2522
(I00
g1864
tp2523
asg22
Nsbasg21
I00
sg22
Nsg23
I00
sg24
S'L'
sbsg25
(irule
ConstantPhoneme
p2524
(dp2525
S'p'
V\u0294
sbsg28
(irule
Guard
p2526
(dp2527
g18
I00
sg19
(lp2528
sg21
I00
sg22
Nsg23
I00
sg24
S'R'
sbsg32
(irule
FeatureMatrix
p2529
(dp2530
g35
(lp2531
(I01
S'lateral'
p2532
tp2533
a(I01
g1874
tp2534
asg22
Nsbsg22
Nsba(irule
Rule
p2535
(dp2536
g15
(irule
Guard
p2537
(dp2538
g18
I00
sg19
(lp2539
(irule
FeatureMatrix
p2540
(dp2541
g35
(lp2542
(I00
g1884
tp2543
a(I01
g2485
tp2544
asg22
Nsbasg21
I00
sg22
Nsg23
I00
sg24
S'L'
sbsg25
(irule
ConstantPhoneme
p2545
(dp2546
S'p'
V\u0294
sbsg28
(irule
Guard
p2547
(dp2548
g18
I00
sg19
(lp2549
sg21
I00
sg22
Nsg23
I00
sg24
S'R'
sbsg32
(irule
FeatureMatrix
p2550
(dp2551
g35
(lp2552
(I01
g1874
tp2553
asg22
Nsbsg22
Nsba(irule
Rule
p2554
(dp2555
g15
(irule
Guard
p2556
(dp2557
g18
I00
sg19
(lp2558
(irule
FeatureMatrix
p2559
(dp2560
g35
(lp2561
(I00
g1864
tp2562
asg22
Nsbasg21
I00
sg22
Nsg23
I00
sg24
S'L'
sbsg25
(irule
ConstantPhoneme
p2563
(dp2564
S'p'
V\u0294
sbsg28
(irule
Guard
p2565
(dp2566
g18
I00
sg19
(lp2567
sg21
I00
sg22
Nsg23
I00
sg24
S'R'
sbsg32
(irule
FeatureMatrix
p2568
(dp2569
g35
(lp2570
(I00
g1920
tp2571
a(I01
g1874
tp2572
asg22
Nsbsg22
Nsba(irule
Rule
p2573
(dp2574
g15
(irule
Guard
p2575
(dp2576
g18
I00
sg19
(lp2577
(irule
FeatureMatrix
p2578
(dp2579
g35
(lp2580
(I00
g1864
tp2581
a(I00
S'high'
p2582
tp2583
asg22
Nsbasg21
I00
sg22
Nsg23
I00
sg24
S'L'
sbsg25
(irule
ConstantPhoneme
p2584
(dp2585
S'p'
V\u0294
sbsg28
(irule
Guard
p2586
(dp2587
g18
I00
sg19
(lp2588
sg21
I00
sg22
Nsg23
I00
sg24
S'R'
sbsg32
(irule
FeatureMatrix
p2589
(dp2590
g35
(lp2591
(I01
g1874
tp2592
asg22
Nsbsg22
Nsba(irule
Rule
p2593
(dp2594
g15
(irule
Guard
p2595
(dp2596
g18
I00
sg19
(lp2597
(irule
FeatureMatrix
p2598
(dp2599
g35
(lp2600
(I00
g1884
tp2601
a(I01
g2097
tp2602
asg22
Nsbasg21
I00
sg22
Nsg23
I00
sg24
S'L'
sbsg25
(irule
ConstantPhoneme
p2603
(dp2604
S'p'
V\u0294
sbsg28
(irule
Guard
p2605
(dp2606
g18
I00
sg19
(lp2607
sg21
I00
sg22
Nsg23
I00
sg24
S'R'
sbsg32
(irule
FeatureMatrix
p2608
(dp2609
g35
(lp2610
(I01
g1874
tp2611
asg22
Nsbsg22
Nsba(irule
Rule
p2612
(dp2613
g15
(irule
Guard
p2614
(dp2615
g18
I00
sg19
(lp2616
(irule
FeatureMatrix
p2617
(dp2618
g35
(lp2619
(I00
g1864
tp2620
a(I00
g2202
tp2621
asg22
Nsbasg21
I00
sg22
Nsg23
I00
sg24
S'L'
sbsg25
(irule
ConstantPhoneme
p2622
(dp2623
S'p'
V\u0294
sbsg28
(irule
Guard
p2624
(dp2625
g18
I00
sg19
(lp2626
sg21
I00
sg22
Nsg23
I00
sg24
S'R'
sbsg32
(irule
ConstantPhoneme
p2627
(dp2628
S'p'
g1911
sbsg22
Nsba(irule
Rule
p2629
(dp2630
g15
(irule
Guard
p2631
(dp2632
g18
I00
sg19
(lp2633
(irule
FeatureMatrix
p2634
(dp2635
g35
(lp2636
(I01
g1988
tp2637
asg22
Nsbasg21
I00
sg22
Nsg23
I00
sg24
S'L'
sbsg25
(irule
ConstantPhoneme
p2638
(dp2639
S'p'
V\u0294
sbsg28
(irule
Guard
p2640
(dp2641
g18
I00
sg19
(lp2642
sg21
I00
sg22
Nsg23
I00
sg24
S'R'
sbsg32
(irule
FeatureMatrix
p2643
(dp2644
g35
(lp2645
(I01
g2085
tp2646
a(I01
g1874
tp2647
asg22
Nsbsg22
Nsba(irule
Rule
p2648
(dp2649
g15
(irule
Guard
p2650
(dp2651
g18
I00
sg19
(lp2652
(irule
FeatureMatrix
p2653
(dp2654
g35
(lp2655
(I00
g1953
tp2656
a(I00
g1874
tp2657
asg22
Nsbasg21
I00
sg22
Nsg23
I00
sg24
S'L'
sbsg25
(irule
ConstantPhoneme
p2658
(dp2659
S'p'
V\u0294
sbsg28
(irule
Guard
p2660
(dp2661
g18
I00
sg19
(lp2662
sg21
I00
sg22
Nsg23
I00
sg24
S'R'
sbsg32
(irule
FeatureMatrix
p2663
(dp2664
g35
(lp2665
(I01
g1874
tp2666
asg22
Nsbsg22
Nsba(irule
Rule
p2667
(dp2668
g15
(irule
Guard
p2669
(dp2670
g18
I00
sg19
(lp2671
(irule
FeatureMatrix
p2672
(dp2673
g35
(lp2674
(I00
g1864
tp2675
asg22
Nsbasg21
I00
sg22
Nsg23
I00
sg24
S'L'
sbsg25
(irule
ConstantPhoneme
p2676
(dp2677
S'p'
V\u0294
sbsg28
(irule
Guard
p2678
(dp2679
g18
I00
sg19
(lp2680
sg21
I00
sg22
Nsg23
I00
sg24
S'R'
sbsg32
(irule
FeatureMatrix
p2681
(dp2682
g35
(lp2683
(I00
g2005
tp2684
a(I01
g1874
tp2685
asg22
Nsbsg22
Nsba(irule
Rule
p2686
(dp2687
g15
(irule
Guard
p2688
(dp2689
g18
I00
sg19
(lp2690
(irule
FeatureMatrix
p2691
(dp2692
g35
(lp2693
(I00
g1953
tp2694
asg22
Nsbasg21
I00
sg22
Nsg23
I00
sg24
S'L'
sbsg25
(irule
ConstantPhoneme
p2695
(dp2696
S'p'
V\u0294
sbsg28
(irule
Guard
p2697
(dp2698
g18
I00
sg19
(lp2699
(irule
FeatureMatrix
p2700
(dp2701
g35
(lp2702
sg22
Nsbasg21
I00
sg22
Nsg23
I00
sg24
S'R'
sbsg32
(irule
ConstantPhoneme
p2703
(dp2704
S'p'
g1911
sbsg22
Nsba(irule
Rule
p2705
(dp2706
g15
(irule
Guard
p2707
(dp2708
g18
I00
sg19
(lp2709
(irule
FeatureMatrix
p2710
(dp2711
g35
(lp2712
(I00
g1884
tp2713
a(I00
g2582
tp2714
asg22
Nsbasg21
I00
sg22
Nsg23
I00
sg24
S'L'
sbsg25
(irule
ConstantPhoneme
p2715
(dp2716
S'p'
V\u0294
sbsg28
(irule
Guard
p2717
(dp2718
g18
I00
sg19
(lp2719
sg21
I00
sg22
Nsg23
I00
sg24
S'R'
sbsg32
(irule
FeatureMatrix
p2720
(dp2721
g35
(lp2722
(I01
g1874
tp2723
asg22
Nsbsg22
Nsba(irule
Rule
p2724
(dp2725
g15
(irule
Guard
p2726
(dp2727
g18
I00
sg19
(lp2728
(irule
FeatureMatrix
p2729
(dp2730
g35
(lp2731
(I00
g1864
tp2732
a(I00
g1884
tp2733
asg22
Nsbasg21
I00
sg22
Nsg23
I00
sg24
S'L'
sbsg25
(irule
ConstantPhoneme
p2734
(dp2735
S'p'
V\u0294
sbsg28
(irule
Guard
p2736
(dp2737
g18
I00
sg19
(lp2738
sg21
I00
sg22
Nsg23
I00
sg24
S'R'
sbsg32
(irule
FeatureMatrix
p2739
(dp2740
g35
(lp2741
(I01
g1874
tp2742
asg22
Nsbsg22
Nsba(irule
Rule
p2743
(dp2744
g15
(irule
Guard
p2745
(dp2746
g18
I00
sg19
(lp2747
(irule
FeatureMatrix
p2748
(dp2749
g35
(lp2750
(I00
g1864
tp2751
asg22
Nsbasg21
I00
sg22
Nsg23
I00
sg24
S'L'
sbsg25
(irule
ConstantPhoneme
p2752
(dp2753
S'p'
V\u0294
sbsg28
(irule
Guard
p2754
(dp2755
g18
I00
sg19
(lp2756
sg21
I00
sg22
Nsg23
I00
sg24
S'R'
sbsg32
(irule
FeatureMatrix
p2757
(dp2758
g35
(lp2759
(I00
g1953
tp2760
a(I01
g1874
tp2761
asg22
Nsbsg22
Nsba(irule
Rule
p2762
(dp2763
g15
(irule
Guard
p2764
(dp2765
g18
I00
sg19
(lp2766
(irule
FeatureMatrix
p2767
(dp2768
g35
(lp2769
(I00
g2059
tp2770
a(I01
g1988
tp2771
asg22
Nsbasg21
I00
sg22
Nsg23
I00
sg24
S'L'
sbsg25
(irule
ConstantPhoneme
p2772
(dp2773
S'p'
V\u0294
sbsg28
(irule
Guard
p2774
(dp2775
g18
I00
sg19
(lp2776
sg21
I00
sg22
Nsg23
I00
sg24
S'R'
sbsg32
(irule
ConstantPhoneme
p2777
(dp2778
S'p'
g1911
sbsg22
Nsba(irule
Rule
p2779
(dp2780
g15
(irule
Guard
p2781
(dp2782
g18
I00
sg19
(lp2783
(irule
FeatureMatrix
p2784
(dp2785
g35
(lp2786
(I00
g2005
tp2787
asg22
Nsbasg21
I00
sg22
Nsg23
I00
sg24
S'L'
sbsg25
(irule
ConstantPhoneme
p2788
(dp2789
S'p'
V\u0294
sbsg28
(irule
Guard
p2790
(dp2791
g18
I00
sg19
(lp2792
sg21
I00
sg22
Nsg23
I00
sg24
S'R'
sbsg32
(irule
FeatureMatrix
p2793
(dp2794
g35
(lp2795
(I00
g2123
tp2796
a(I01
g1874
tp2797
asg22
Nsbsg22
Nsba(irule
Rule
p2798
(dp2799
g15
(irule
Guard
p2800
(dp2801
g18
I00
sg19
(lp2802
(irule
FeatureMatrix
p2803
(dp2804
g35
(lp2805
(I00
g1884
tp2806
asg22
Nsbasg21
I00
sg22
Nsg23
I00
sg24
S'L'
sbsg25
(irule
ConstantPhoneme
p2807
(dp2808
S'p'
V\u0294
sbsg28
(irule
Guard
p2809
(dp2810
g18
I00
sg19
(lp2811
sg21
I00
sg22
Nsg23
I00
sg24
S'R'
sbsg32
(irule
FeatureMatrix
p2812
(dp2813
g35
(lp2814
(I01
g1874
tp2815
a(I01
g2097
tp2816
asg22
Nsbsg22
Nsba(irule
Rule
p2817
(dp2818
g15
(irule
Guard
p2819
(dp2820
g18
I00
sg19
(lp2821
(irule
FeatureMatrix
p2822
(dp2823
g35
(lp2824
(I00
g1884
tp2825
asg22
Nsbasg21
I00
sg22
Nsg23
I00
sg24
S'L'
sbsg25
(irule
ConstantPhoneme
p2826
(dp2827
S'p'
V\u0294
sbsg28
(irule
Guard
p2828
(dp2829
g18
I00
sg19
(lp2830
sg21
I00
sg22
Nsg23
I00
sg24
S'R'
sbsg32
(irule
FeatureMatrix
p2831
(dp2832
g35
(lp2833
(I00
g2123
tp2834
a(I01
g1874
tp2835
asg22
Nsbsg22
Nsba(irule
Rule
p2836
(dp2837
g15
(irule
Guard
p2838
(dp2839
g18
I00
sg19
(lp2840
(irule
FeatureMatrix
p2841
(dp2842
g35
(lp2843
(I00
g1920
tp2844
asg22
Nsbasg21
I00
sg22
Nsg23
I00
sg24
S'L'
sbsg25
(irule
ConstantPhoneme
p2845
(dp2846
S'p'
V\u0294
sbsg28
(irule
Guard
p2847
(dp2848
g18
I00
sg19
(lp2849
sg21
I00
sg22
Nsg23
I00
sg24
S'R'
sbsg32
(irule
FeatureMatrix
p2850
(dp2851
g35
(lp2852
(I00
g2202
tp2853
a(I01
g1874
tp2854
asg22
Nsbsg22
Nsba(irule
Rule
p2855
(dp2856
g15
(irule
Guard
p2857
(dp2858
g18
I00
sg19
(lp2859
(irule
FeatureMatrix
p2860
(dp2861
g35
(lp2862
(I00
g1864
tp2863
asg22
Nsbasg21
I00
sg22
Nsg23
I00
sg24
S'L'
sbsg25
(irule
ConstantPhoneme
p2864
(dp2865
S'p'
V\u0294
sbsg28
(irule
Guard
p2866
(dp2867
g18
I00
sg19
(lp2868
sg21
I00
sg22
Nsg23
I00
sg24
S'R'
sbsg32
(irule
FeatureMatrix
p2869
(dp2870
g35
(lp2871
(I01
g1988
tp2872
a(I01
g1874
tp2873
asg22
Nsbsg22
Nsba(irule
Rule
p2874
(dp2875
g15
(irule
Guard
p2876
(dp2877
g18
I00
sg19
(lp2878
(irule
FeatureMatrix
p2879
(dp2880
g35
(lp2881
(I00
g1864
tp2882
a(I00
g2582
tp2883
asg22
Nsbasg21
I00
sg22
Nsg23
I00
sg24
S'L'
sbsg25
(irule
ConstantPhoneme
p2884
(dp2885
S'p'
V\u0294
sbsg28
(irule
Guard
p2886
(dp2887
g18
I00
sg19
(lp2888
sg21
I00
sg22
Nsg23
I00
sg24
S'R'
sbsg32
(irule
ConstantPhoneme
p2889
(dp2890
S'p'
g1911
sbsg22
Nsba(irule
Rule
p2891
(dp2892
g15
(irule
Guard
p2893
(dp2894
g18
I00
sg19
(lp2895
(irule
FeatureMatrix
p2896
(dp2897
g35
(lp2898
(I00
g1884
tp2899
a(I01
g2485
tp2900
asg22
Nsbasg21
I00
sg22
Nsg23
I00
sg24
S'L'
sbsg25
(irule
ConstantPhoneme
p2901
(dp2902
S'p'
V\u0294
sbsg28
(irule
Guard
p2903
(dp2904
g18
I00
sg19
(lp2905
sg21
I00
sg22
Nsg23
I00
sg24
S'R'
sbsg32
(irule
ConstantPhoneme
p2906
(dp2907
S'p'
g1911
sbsg22
Nsba(irule
Rule
p2908
(dp2909
g15
(irule
Guard
p2910
(dp2911
g18
I00
sg19
(lp2912
(irule
FeatureMatrix
p2913
(dp2914
g35
(lp2915
(I01
g1988
tp2916
asg22
Nsbasg21
I00
sg22
Nsg23
I00
sg24
S'L'
sbsg25
(irule
ConstantPhoneme
p2917
(dp2918
S'p'
V\u0294
sbsg28
(irule
Guard
p2919
(dp2920
g18
I00
sg19
(lp2921
(irule
FeatureMatrix
p2922
(dp2923
g35
(lp2924
sg22
Nsbasg21
I00
sg22
Nsg23
I00
sg24
S'R'
sbsg32
(irule
ConstantPhoneme
p2925
(dp2926
S'p'
g1911
sbsg22
Nsba(irule
Rule
p2927
(dp2928
g15
(irule
Guard
p2929
(dp2930
g18
I00
sg19
(lp2931
(irule
FeatureMatrix
p2932
(dp2933
g35
(lp2934
(I00
g2582
tp2935
a(I01
g1988
tp2936
asg22
Nsbasg21
I00
sg22
Nsg23
I00
sg24
S'L'
sbsg25
(irule
ConstantPhoneme
p2937
(dp2938
S'p'
V\u0294
sbsg28
(irule
Guard
p2939
(dp2940
g18
I00
sg19
(lp2941
sg21
I00
sg22
Nsg23
I00
sg24
S'R'
sbsg32
(irule
FeatureMatrix
p2942
(dp2943
g35
(lp2944
(I01
g1874
tp2945
asg22
Nsbsg22
Nsba(irule
Rule
p2946
(dp2947
g15
(irule
Guard
p2948
(dp2949
g18
I00
sg19
(lp2950
(irule
FeatureMatrix
p2951
(dp2952
g35
(lp2953
(I00
g1864
tp2954
a(I00
g1874
tp2955
asg22
Nsbasg21
I00
sg22
Nsg23
I00
sg24
S'L'
sbsg25
(irule
ConstantPhoneme
p2956
(dp2957
S'p'
V\u0294
sbsg28
(irule
Guard
p2958
(dp2959
g18
I00
sg19
(lp2960
sg21
I00
sg22
Nsg23
I00
sg24
S'R'
sbsg32
(irule
FeatureMatrix
p2961
(dp2962
g35
(lp2963
(I01
g1874
tp2964
asg22
Nsbsg22
Nsba(irule
Rule
p2965
(dp2966
g15
(irule
Guard
p2967
(dp2968
g18
I00
sg19
(lp2969
(irule
FeatureMatrix
p2970
(dp2971
g35
(lp2972
(I00
g2202
tp2973
a(I00
g1884
tp2974
asg22
Nsbasg21
I00
sg22
Nsg23
I00
sg24
S'L'
sbsg25
(irule
ConstantPhoneme
p2975
(dp2976
S'p'
V\u0294
sbsg28
(irule
Guard
p2977
(dp2978
g18
I00
sg19
(lp2979
sg21
I00
sg22
Nsg23
I00
sg24
S'R'
sbsg32
(irule
FeatureMatrix
p2980
(dp2981
g35
(lp2982
(I01
g1874
tp2983
asg22
Nsbsg22
Nsba(irule
Rule
p2984
(dp2985
g15
(irule
Guard
p2986
(dp2987
g18
I00
sg19
(lp2988
(irule
FeatureMatrix
p2989
(dp2990
g35
(lp2991
(I00
g1884
tp2992
asg22
Nsba(irule
FeatureMatrix
p2993
(dp2994
g35
(lp2995
sg22
Nsbasg21
I00
sg22
Nsg23
I00
sg24
S'L'
sbsg25
(irule
ConstantPhoneme
p2996
(dp2997
S'p'
V\u0294
sbsg28
(irule
Guard
p2998
(dp2999
g18
I00
sg19
(lp3000
sg21
I00
sg22
Nsg23
I00
sg24
S'R'
sbsg32
(irule
ConstantPhoneme
p3001
(dp3002
S'p'
g1911
sbsg22
Nsba(irule
Rule
p3003
(dp3004
g15
(irule
Guard
p3005
(dp3006
g18
I00
sg19
(lp3007
(irule
FeatureMatrix
p3008
(dp3009
g35
(lp3010
(I00
g1864
tp3011
a(I00
g2005
tp3012
asg22
Nsbasg21
I00
sg22
Nsg23
I00
sg24
S'L'
sbsg25
(irule
ConstantPhoneme
p3013
(dp3014
S'p'
V\u0294
sbsg28
(irule
Guard
p3015
(dp3016
g18
I00
sg19
(lp3017
sg21
I00
sg22
Nsg23
I00
sg24
S'R'
sbsg32
(irule
FeatureMatrix
p3018
(dp3019
g35
(lp3020
(I01
g1874
tp3021
asg22
Nsbsg22
Nsba(irule
Rule
p3022
(dp3023
g15
(irule
Guard
p3024
(dp3025
g18
I00
sg19
(lp3026
(irule
FeatureMatrix
p3027
(dp3028
g35
(lp3029
(I00
g2059
tp3030
a(I00
g1884
tp3031
asg22
Nsbasg21
I00
sg22
Nsg23
I00
sg24
S'L'
sbsg25
(irule
ConstantPhoneme
p3032
(dp3033
S'p'
V\u0294
sbsg28
(irule
Guard
p3034
(dp3035
g18
I00
sg19
(lp3036
sg21
I00
sg22
Nsg23
I00
sg24
S'R'
sbsg32
(irule
FeatureMatrix
p3037
(dp3038
g35
(lp3039
(I01
g1874
tp3040
asg22
Nsbsg22
Nsba(irule
Rule
p3041
(dp3042
g15
(irule
Guard
p3043
(dp3044
g18
I00
sg19
(lp3045
(irule
FeatureMatrix
p3046
(dp3047
g35
(lp3048
(I00
g1884
tp3049
asg22
Nsbasg21
I00
sg22
Nsg23
I00
sg24
S'L'
sbsg25
(irule
ConstantPhoneme
p3050
(dp3051
S'p'
V\u0294
sbsg28
(irule
Guard
p3052
(dp3053
g18
I00
sg19
(lp3054
sg21
I00
sg22
Nsg23
I00
sg24
S'R'
sbsg32
(irule
FeatureMatrix
p3055
(dp3056
g35
(lp3057
(I00
g1920
tp3058
a(I01
g1874
tp3059
asg22
Nsbsg22
Nsba(irule
Rule
p3060
(dp3061
g15
(irule
Guard
p3062
(dp3063
g18
I00
sg19
(lp3064
(irule
FeatureMatrix
p3065
(dp3066
g35
(lp3067
(I00
g1884
tp3068
a(I01
g2097
tp3069
asg22
Nsbasg21
I00
sg22
Nsg23
I00
sg24
S'L'
sbsg25
(irule
ConstantPhoneme
p3070
(dp3071
S'p'
V\u0294
sbsg28
(irule
Guard
p3072
(dp3073
g18
I00
sg19
(lp3074
sg21
I00
sg22
Nsg23
I00
sg24
S'R'
sbsg32
(irule
ConstantPhoneme
p3075
(dp3076
S'p'
g1911
sbsg22
Nsba(irule
Rule
p3077
(dp3078
g15
(irule
Guard
p3079
(dp3080
g18
I00
sg19
(lp3081
(irule
FeatureMatrix
p3082
(dp3083
g35
(lp3084
(I00
g1953
tp3085
asg22
Nsbasg21
I00
sg22
Nsg23
I00
sg24
S'L'
sbsg25
(irule
ConstantPhoneme
p3086
(dp3087
S'p'
V\u0294
sbsg28
(irule
Guard
p3088
(dp3089
g18
I00
sg19
(lp3090
(irule
FeatureMatrix
p3091
(dp3092
g35
(lp3093
sg22
Nsbasg21
I00
sg22
Nsg23
I00
sg24
S'R'
sbsg32
(irule
FeatureMatrix
p3094
(dp3095
g35
(lp3096
(I01
g1874
tp3097
asg22
Nsbsg22
Nsba(irule
Rule
p3098
(dp3099
g15
(irule
Guard
p3100
(dp3101
g18
I00
sg19
(lp3102
(irule
FeatureMatrix
p3103
(dp3104
g35
(lp3105
(I00
g1864
tp3106
a(I01
g1988
tp3107
asg22
Nsbasg21
I00
sg22
Nsg23
I00
sg24
S'L'
sbsg25
(irule
ConstantPhoneme
p3108
(dp3109
S'p'
V\u0294
sbsg28
(irule
Guard
p3110
(dp3111
g18
I00
sg19
(lp3112
sg21
I00
sg22
Nsg23
I00
sg24
S'R'
sbsg32
(irule
FeatureMatrix
p3113
(dp3114
g35
(lp3115
(I01
g1874
tp3116
asg22
Nsbsg22
Nsba(irule
Rule
p3117
(dp3118
g15
(irule
Guard
p3119
(dp3120
g18
I00
sg19
(lp3121
(irule
FeatureMatrix
p3122
(dp3123
g35
(lp3124
(I00
g2446
tp3125
a(I01
g1988
tp3126
asg22
Nsbasg21
I00
sg22
Nsg23
I00
sg24
S'L'
sbsg25
(irule
ConstantPhoneme
p3127
(dp3128
S'p'
V\u0294
sbsg28
(irule
Guard
p3129
(dp3130
g18
I00
sg19
(lp3131
sg21
I00
sg22
Nsg23
I00
sg24
S'R'
sbsg32
(irule
ConstantPhoneme
p3132
(dp3133
S'p'
g1911
sbsg22
Nsba(irule
Rule
p3134
(dp3135
g15
(irule
Guard
p3136
(dp3137
g18
I00
sg19
(lp3138
(irule
FeatureMatrix
p3139
(dp3140
g35
(lp3141
(I00
g1884
tp3142
a(I00
g1874
tp3143
asg22
Nsbasg21
I00
sg22
Nsg23
I00
sg24
S'L'
sbsg25
(irule
ConstantPhoneme
p3144
(dp3145
S'p'
V\u0294
sbsg28
(irule
Guard
p3146
(dp3147
g18
I00
sg19
(lp3148
sg21
I00
sg22
Nsg23
I00
sg24
S'R'
sbsg32
(irule
ConstantPhoneme
p3149
(dp3150
S'p'
g1911
sbsg22
Nsba(irule
Rule
p3151
(dp3152
g15
(irule
Guard
p3153
(dp3154
g18
I00
sg19
(lp3155
(irule
FeatureMatrix
p3156
(dp3157
g35
(lp3158
(I00
g1884
tp3159
asg22
Nsbasg21
I00
sg22
Nsg23
I00
sg24
S'L'
sbsg25
(irule
ConstantPhoneme
p3160
(dp3161
S'p'
V\u0294
sbsg28
(irule
Guard
p3162
(dp3163
g18
I00
sg19
(lp3164
sg21
I00
sg22
Nsg23
I00
sg24
S'R'
sbsg32
(irule
FeatureMatrix
p3165
(dp3166
g35
(lp3167
(I00
g2202
tp3168
a(I01
g1874
tp3169
asg22
Nsbsg22
Nsba(irule
Rule
p3170
(dp3171
g15
(irule
Guard
p3172
(dp3173
g18
I00
sg19
(lp3174
(irule
FeatureMatrix
p3175
(dp3176
g35
(lp3177
(I00
g1920
tp3178
a(I01
g2097
tp3179
asg22
Nsbasg21
I00
sg22
Nsg23
I00
sg24
S'L'
sbsg25
(irule
ConstantPhoneme
p3180
(dp3181
S'p'
V\u0294
sbsg28
(irule
Guard
p3182
(dp3183
g18
I00
sg19
(lp3184
sg21
I00
sg22
Nsg23
I00
sg24
S'R'
sbsg32
(irule
ConstantPhoneme
p3185
(dp3186
S'p'
g1911
sbsg22
Nsba(irule
Rule
p3187
(dp3188
g15
(irule
Guard
p3189
(dp3190
g18
I00
sg19
(lp3191
(irule
FeatureMatrix
p3192
(dp3193
g35
(lp3194
(I00
g1884
tp3195
asg22
Nsbasg21
I00
sg22
Nsg23
I00
sg24
S'L'
sbsg25
(irule
ConstantPhoneme
p3196
(dp3197
S'p'
V\u0294
sbsg28
(irule
Guard
p3198
(dp3199
g18
I00
sg19
(lp3200
sg21
I00
sg22
Nsg23
I00
sg24
S'R'
sbsg32
(irule
FeatureMatrix
p3201
(dp3202
g35
(lp3203
(I00
g1953
tp3204
a(I01
g1874
tp3205
asg22
Nsbsg22
Nsba(irule
Rule
p3206
(dp3207
g15
(irule
Guard
p3208
(dp3209
g18
I00
sg19
(lp3210
(irule
FeatureMatrix
p3211
(dp3212
g35
(lp3213
(I00
g1864
tp3214
asg22
Nsba(irule
FeatureMatrix
p3215
(dp3216
g35
(lp3217
sg22
Nsbasg21
I00
sg22
Nsg23
I00
sg24
S'L'
sbsg25
(irule
ConstantPhoneme
p3218
(dp3219
S'p'
V\u0294
sbsg28
(irule
Guard
p3220
(dp3221
g18
I00
sg19
(lp3222
sg21
I00
sg22
Nsg23
I00
sg24
S'R'
sbsg32
(irule
ConstantPhoneme
p3223
(dp3224
S'p'
g1911
sbsg22
Nsba(irule
Rule
p3225
(dp3226
g15
(irule
Guard
p3227
(dp3228
g18
I00
sg19
(lp3229
(irule
FeatureMatrix
p3230
(dp3231
g35
(lp3232
(I01
g1988
tp3233
asg22
Nsbasg21
I00
sg22
Nsg23
I00
sg24
S'L'
sbsg25
(irule
ConstantPhoneme
p3234
(dp3235
S'p'
V\u0294
sbsg28
(irule
Guard
p3236
(dp3237
g18
I00
sg19
(lp3238
(irule
FeatureMatrix
p3239
(dp3240
g35
(lp3241
sg22
Nsbasg21
I00
sg22
Nsg23
I00
sg24
S'R'
sbsg32
(irule
FeatureMatrix
p3242
(dp3243
g35
(lp3244
(I01
g1874
tp3245
asg22
Nsbsg22
Nsba(irule
Rule
p3246
(dp3247
g15
(irule
Guard
p3248
(dp3249
g18
I00
sg19
(lp3250
(irule
FeatureMatrix
p3251
(dp3252
g35
(lp3253
(I00
g2005
tp3254
asg22
Nsbasg21
I00
sg22
Nsg23
I00
sg24
S'L'
sbsg25
(irule
ConstantPhoneme
p3255
(dp3256
S'p'
V\u0294
sbsg28
(irule
Guard
p3257
(dp3258
g18
I00
sg19
(lp3259
sg21
I00
sg22
Nsg23
I00
sg24
S'R'
sbsg32
(irule
FeatureMatrix
p3260
(dp3261
g35
(lp3262
(I01
g1874
tp3263
a(I01
g2097
tp3264
asg22
Nsbsg22
Nsba(irule
Rule
p3265
(dp3266
g15
(irule
Guard
p3267
(dp3268
g18
I00
sg19
(lp3269
(irule
FeatureMatrix
p3270
(dp3271
g35
(lp3272
(I00
g2005
tp3273
asg22
Nsbasg21
I00
sg22
Nsg23
I00
sg24
S'L'
sbsg25
(irule
ConstantPhoneme
p3274
(dp3275
S'p'
V\u0294
sbsg28
(irule
Guard
p3276
(dp3277
g18
I00
sg19
(lp3278
(irule
FeatureMatrix
p3279
(dp3280
g35
(lp3281
sg22
Nsbasg21
I00
sg22
Nsg23
I00
sg24
S'R'
sbsg32
(irule
FeatureMatrix
p3282
(dp3283
g35
(lp3284
(I01
g1874
tp3285
asg22
Nsbsg22
Nsba(irule
Rule
p3286
(dp3287
g15
(irule
Guard
p3288
(dp3289
g18
I00
sg19
(lp3290
(irule
FeatureMatrix
p3291
(dp3292
g35
(lp3293
(I00
g1953
tp3294
asg22
Nsbasg21
I00
sg22
Nsg23
I00
sg24
S'L'
sbsg25
(irule
ConstantPhoneme
p3295
(dp3296
S'p'
V\u0294
sbsg28
(irule
Guard
p3297
(dp3298
g18
I00
sg19
(lp3299
sg21
I00
sg22
Nsg23
I00
sg24
S'R'
sbsg32
(irule
FeatureMatrix
p3300
(dp3301
g35
(lp3302
(I01
g1874
tp3303
a(I01
g2097
tp3304
asg22
Nsbsg22
Nsba(irule
Rule
p3305
(dp3306
g15
(irule
Guard
p3307
(dp3308
g18
I00
sg19
(lp3309
(irule
FeatureMatrix
p3310
(dp3311
g35
(lp3312
(I00
g2005
tp3313
a(I00
g1920
tp3314
asg22
Nsbasg21
I00
sg22
Nsg23
I00
sg24
S'L'
sbsg25
(irule
ConstantPhoneme
p3315
(dp3316
S'p'
V\u0294
sbsg28
(irule
Guard
p3317
(dp3318
g18
I00
sg19
(lp3319
sg21
I00
sg22
Nsg23
I00
sg24
S'R'
sbsg32
(irule
FeatureMatrix
p3320
(dp3321
g35
(lp3322
(I01
g1874
tp3323
asg22
Nsbsg22
Nsba(irule
Rule
p3324
(dp3325
g15
(irule
Guard
p3326
(dp3327
g18
I00
sg19
(lp3328
(irule
FeatureMatrix
p3329
(dp3330
g35
(lp3331
(I00
g1884
tp3332
a(I00
g2446
tp3333
asg22
Nsbasg21
I00
sg22
Nsg23
I00
sg24
S'L'
sbsg25
(irule
ConstantPhoneme
p3334
(dp3335
S'p'
V\u0294
sbsg28
(irule
Guard
p3336
(dp3337
g18
I00
sg19
(lp3338
sg21
I00
sg22
Nsg23
I00
sg24
S'R'
sbsg32
(irule
FeatureMatrix
p3339
(dp3340
g35
(lp3341
(I01
g1874
tp3342
asg22
Nsbsg22
Nsba(irule
Rule
p3343
(dp3344
g15
(irule
Guard
p3345
(dp3346
g18
I00
sg19
(lp3347
(irule
FeatureMatrix
p3348
(dp3349
g35
(lp3350
sg22
Nsba(irule
FeatureMatrix
p3351
(dp3352
g35
(lp3353
(I00
g2532
tp3354
asg22
Nsbasg21
I00
sg22
Nsg23
I00
sg24
S'L'
sbsg25
(irule
ConstantPhoneme
p3355
(dp3356
S'p'
V\u0294
sbsg28
(irule
Guard
p3357
(dp3358
g18
I00
sg19
(lp3359
sg21
I00
sg22
Nsg23
I00
sg24
S'R'
sbsg32
(irule
ConstantPhoneme
p3360
(dp3361
S'p'
g1911
sbsg22
Nsba(irule
Rule
p3362
(dp3363
g15
(irule
Guard
p3364
(dp3365
g18
I00
sg19
(lp3366
(irule
FeatureMatrix
p3367
(dp3368
g35
(lp3369
(I00
g1864
tp3370
a(I00
g1884
tp3371
asg22
Nsbasg21
I00
sg22
Nsg23
I00
sg24
S'L'
sbsg25
(irule
ConstantPhoneme
p3372
(dp3373
S'p'
V\u0294
sbsg28
(irule
Guard
p3374
(dp3375
g18
I00
sg19
(lp3376
sg21
I00
sg22
Nsg23
I00
sg24
S'R'
sbsg32
(irule
ConstantPhoneme
p3377
(dp3378
S'p'
g1911
sbsg22
Nsba(irule
Rule
p3379
(dp3380
g15
(irule
Guard
p3381
(dp3382
g18
I00
sg19
(lp3383
(irule
FeatureMatrix
p3384
(dp3385
g35
(lp3386
(I00
g1864
tp3387
a(I01
g2485
tp3388
asg22
Nsbasg21
I00
sg22
Nsg23
I00
sg24
S'L'
sbsg25
(irule
ConstantPhoneme
p3389
(dp3390
S'p'
V\u0294
sbsg28
(irule
Guard
p3391
(dp3392
g18
I00
sg19
(lp3393
sg21
I00
sg22
Nsg23
I00
sg24
S'R'
sbsg32
(irule
ConstantPhoneme
p3394
(dp3395
S'p'
g1911
sbsg22
Nsba(irule
Rule
p3396
(dp3397
g15
(irule
Guard
p3398
(dp3399
g18
I00
sg19
(lp3400
(irule
FeatureMatrix
p3401
(dp3402
g35
(lp3403
(I00
g2059
tp3404
a(I00
g1884
tp3405
asg22
Nsbasg21
I00
sg22
Nsg23
I00
sg24
S'L'
sbsg25
(irule
ConstantPhoneme
p3406
(dp3407
S'p'
V\u0294
sbsg28
(irule
Guard
p3408
(dp3409
g18
I00
sg19
(lp3410
sg21
I00
sg22
Nsg23
I00
sg24
S'R'
sbsg32
(irule
ConstantPhoneme
p3411
(dp3412
S'p'
g1911
sbsg22
Nsba(irule
Rule
p3413
(dp3414
g15
(irule
Guard
p3415
(dp3416
g18
I00
sg19
(lp3417
(irule
FeatureMatrix
p3418
(dp3419
g35
(lp3420
(I01
g1988
tp3421
a(I01
g2097
tp3422
asg22
Nsbasg21
I00
sg22
Nsg23
I00
sg24
S'L'
sbsg25
(irule
ConstantPhoneme
p3423
(dp3424
S'p'
V\u0294
sbsg28
(irule
Guard
p3425
(dp3426
g18
I00
sg19
(lp3427
sg21
I00
sg22
Nsg23
I00
sg24
S'R'
sbsg32
(irule
ConstantPhoneme
p3428
(dp3429
S'p'
g1911
sbsg22
Nsba(irule
Rule
p3430
(dp3431
g15
(irule
Guard
p3432
(dp3433
g18
I00
sg19
(lp3434
(irule
FeatureMatrix
p3435
(dp3436
g35
(lp3437
sg22
Nsba(irule
FeatureMatrix
p3438
(dp3439
g35
(lp3440
(I00
g1874
tp3441
asg22
Nsbasg21
I00
sg22
Nsg23
I00
sg24
S'L'
sbsg25
(irule
ConstantPhoneme
p3442
(dp3443
S'p'
V\u0294
sbsg28
(irule
Guard
p3444
(dp3445
g18
I00
sg19
(lp3446
sg21
I00
sg22
Nsg23
I00
sg24
S'R'
sbsg32
(irule
ConstantPhoneme
p3447
(dp3448
S'p'
g1911
sbsg22
Nsba(irule
Rule
p3449
(dp3450
g15
(irule
Guard
p3451
(dp3452
g18
I00
sg19
(lp3453
(irule
FeatureMatrix
p3454
(dp3455
g35
(lp3456
(I01
g1988
tp3457
asg22
Nsba(irule
FeatureMatrix
p3458
(dp3459
g35
(lp3460
sg22
Nsbasg21
I00
sg22
Nsg23
I00
sg24
S'L'
sbsg25
(irule
ConstantPhoneme
p3461
(dp3462
S'p'
V\u0294
sbsg28
(irule
Guard
p3463
(dp3464
g18
I00
sg19
(lp3465
sg21
I00
sg22
Nsg23
I00
sg24
S'R'
sbsg32
(irule
FeatureMatrix
p3466
(dp3467
g35
(lp3468
(I01
g1874
tp3469
asg22
Nsbsg22
Nsba(irule
Rule
p3470
(dp3471
g15
(irule
Guard
p3472
(dp3473
g18
I00
sg19
(lp3474
(irule
FeatureMatrix
p3475
(dp3476
g35
(lp3477
(I00
g1884
tp3478
a(I00
g1953
tp3479
asg22
Nsbasg21
I00
sg22
Nsg23
I00
sg24
S'L'
sbsg25
(irule
ConstantPhoneme
p3480
(dp3481
S'p'
V\u0294
sbsg28
(irule
Guard
p3482
(dp3483
g18
I00
sg19
(lp3484
sg21
I00
sg22
Nsg23
I00
sg24
S'R'
sbsg32
(irule
FeatureMatrix
p3485
(dp3486
g35
(lp3487
(I01
g1874
tp3488
asg22
Nsbsg22
Nsba(irule
Rule
p3489
(dp3490
g15
(irule
Guard
p3491
(dp3492
g18
I00
sg19
(lp3493
(irule
FeatureMatrix
p3494
(dp3495
g35
(lp3496
(I00
g1864
tp3497
asg22
Nsbasg21
I00
sg22
Nsg23
I00
sg24
S'L'
sbsg25
(irule
ConstantPhoneme
p3498
(dp3499
S'p'
V\u0294
sbsg28
(irule
Guard
p3500
(dp3501
g18
I00
sg19
(lp3502
sg21
I00
sg22
Nsg23
I00
sg24
S'R'
sbsg32
(irule
FeatureMatrix
p3503
(dp3504
g35
(lp3505
(I00
g2446
tp3506
a(I01
g1874
tp3507
asg22
Nsbsg22
Nsba(irule
Rule
p3508
(dp3509
g15
(irule
Guard
p3510
(dp3511
g18
I00
sg19
(lp3512
(irule
FeatureMatrix
p3513
(dp3514
g35
(lp3515
(I00
g1864
tp3516
asg22
Nsbasg21
I00
sg22
Nsg23
I00
sg24
S'L'
sbsg25
(irule
ConstantPhoneme
p3517
(dp3518
S'p'
V\u0294
sbsg28
(irule
Guard
p3519
(dp3520
g18
I00
sg19
(lp3521
sg21
I00
sg22
Nsg23
I00
sg24
S'R'
sbsg32
(irule
FeatureMatrix
p3522
(dp3523
g35
(lp3524
(I00
g2582
tp3525
a(I01
g1874
tp3526
asg22
Nsbsg22
Nsba(irule
Rule
p3527
(dp3528
g15
(irule
Guard
p3529
(dp3530
g18
I00
sg19
(lp3531
(irule
FeatureMatrix
p3532
(dp3533
g35
(lp3534
(I01
g1988
tp3535
a(I00
g1953
tp3536
asg22
Nsbasg21
I00
sg22
Nsg23
I00
sg24
S'L'
sbsg25
(irule
ConstantPhoneme
p3537
(dp3538
S'p'
V\u0294
sbsg28
(irule
Guard
p3539
(dp3540
g18
I00
sg19
(lp3541
sg21
I00
sg22
Nsg23
I00
sg24
S'R'
sbsg32
(irule
ConstantPhoneme
p3542
(dp3543
S'p'
g1911
sbsg22
Nsba(irule
Rule
p3544
(dp3545
g15
(irule
Guard
p3546
(dp3547
g18
I00
sg19
(lp3548
(irule
FeatureMatrix
p3549
(dp3550
g35
(lp3551
(I00
g1864
tp3552
a(I00
g1920
tp3553
asg22
Nsbasg21
I00
sg22
Nsg23
I00
sg24
S'L'
sbsg25
(irule
ConstantPhoneme
p3554
(dp3555
S'p'
V\u0294
sbsg28
(irule
Guard
p3556
(dp3557
g18
I00
sg19
(lp3558
sg21
I00
sg22
Nsg23
I00
sg24
S'R'
sbsg32
(irule
FeatureMatrix
p3559
(dp3560
g35
(lp3561
(I01
g1874
tp3562
asg22
Nsbsg22
Nsba(irule
Rule
p3563
(dp3564
g15
(irule
Guard
p3565
(dp3566
g18
I00
sg19
(lp3567
(irule
FeatureMatrix
p3568
(dp3569
g35
(lp3570
(I00
g1953
tp3571
a(I01
g2097
tp3572
asg22
Nsbasg21
I00
sg22
Nsg23
I00
sg24
S'L'
sbsg25
(irule
ConstantPhoneme
p3573
(dp3574
S'p'
V\u0294
sbsg28
(irule
Guard
p3575
(dp3576
g18
I00
sg19
(lp3577
sg21
I00
sg22
Nsg23
I00
sg24
S'R'
sbsg32
(irule
ConstantPhoneme
p3578
(dp3579
S'p'
g1911
sbsg22
Nsba(irule
Rule
p3580
(dp3581
g15
(irule
Guard
p3582
(dp3583
g18
I00
sg19
(lp3584
(irule
FeatureMatrix
p3585
(dp3586
g35
(lp3587
(I00
g1864
tp3588
asg22
Nsbasg21
I00
sg22
Nsg23
I00
sg24
S'L'
sbsg25
(irule
ConstantPhoneme
p3589
(dp3590
S'p'
V\u0294
sbsg28
(irule
Guard
p3591
(dp3592
g18
I00
sg19
(lp3593
sg21
I00
sg22
Nsg23
I00
sg24
S'R'
sbsg32
(irule
FeatureMatrix
p3594
(dp3595
g35
(lp3596
(I01
g2485
tp3597
a(I01
g1874
tp3598
asg22
Nsbsg22
Nsba(irule
Rule
p3599
(dp3600
g15
(irule
Guard
p3601
(dp3602
g18
I00
sg19
(lp3603
(irule
FeatureMatrix
p3604
(dp3605
g35
(lp3606
(I01
g1988
tp3607
a(I00
g1874
tp3608
asg22
Nsbasg21
I00
sg22
Nsg23
I00
sg24
S'L'
sbsg25
(irule
ConstantPhoneme
p3609
(dp3610
S'p'
V\u0294
sbsg28
(irule
Guard
p3611
(dp3612
g18
I00
sg19
(lp3613
sg21
I00
sg22
Nsg23
I00
sg24
S'R'
sbsg32
(irule
FeatureMatrix
p3614
(dp3615
g35
(lp3616
(I01
g1874
tp3617
asg22
Nsbsg22
Nsba(irule
Rule
p3618
(dp3619
g15
(irule
Guard
p3620
(dp3621
g18
I00
sg19
(lp3622
(irule
FeatureMatrix
p3623
(dp3624
g35
(lp3625
(I00
g1864
tp3626
asg22
Nsbasg21
I00
sg22
Nsg23
I00
sg24
S'L'
sbsg25
(irule
ConstantPhoneme
p3627
(dp3628
S'p'
V\u0294
sbsg28
(irule
Guard
p3629
(dp3630
g18
I00
sg19
(lp3631
sg21
I00
sg22
Nsg23
I00
sg24
S'R'
sbsg32
(irule
FeatureMatrix
p3632
(dp3633
g35
(lp3634
(I00
g1884
tp3635
a(I01
g1874
tp3636
asg22
Nsbsg22
Nsba(irule
Rule
p3637
(dp3638
g15
(irule
Guard
p3639
(dp3640
g18
I00
sg19
(lp3641
(irule
FeatureMatrix
p3642
(dp3643
g35
(lp3644
(I00
g1864
tp3645
asg22
Nsbasg21
I00
sg22
Nsg23
I00
sg24
S'L'
sbsg25
(irule
ConstantPhoneme
p3646
(dp3647
S'p'
V\u0294
sbsg28
(irule
Guard
p3648
(dp3649
g18
I00
sg19
(lp3650
sg21
I00
sg22
Nsg23
I00
sg24
S'R'
sbsg32
(irule
FeatureMatrix
p3651
(dp3652
g35
(lp3653
(I00
S'nasal'
tp3654
a(I01
g1874
tp3655
asg22
Nsbsg22
Nsba(irule
Rule
p3656
(dp3657
g15
(irule
Guard
p3658
(dp3659
g18
I00
sg19
(lp3660
(irule
FeatureMatrix
p3661
(dp3662
g35
(lp3663
(I00
g1864
tp3664
a(I00
g1874
tp3665
asg22
Nsbasg21
I00
sg22
Nsg23
I00
sg24
S'L'
sbsg25
(irule
ConstantPhoneme
p3666
(dp3667
S'p'
V\u0294
sbsg28
(irule
Guard
p3668
(dp3669
g18
I00
sg19
(lp3670
sg21
I00
sg22
Nsg23
I00
sg24
S'R'
sbsg32
(irule
ConstantPhoneme
p3671
(dp3672
S'p'
g1911
sbsg22
Nsba(irule
Rule
p3673
(dp3674
g15
(irule
Guard
p3675
(dp3676
g18
I00
sg19
(lp3677
(irule
FeatureMatrix
p3678
(dp3679
g35
(lp3680
(I00
g1864
tp3681
asg22
Nsba(irule
FeatureMatrix
p3682
(dp3683
g35
(lp3684
sg22
Nsbasg21
I00
sg22
Nsg23
I00
sg24
S'L'
sbsg25
(irule
ConstantPhoneme
p3685
(dp3686
S'p'
V\u0294
sbsg28
(irule
Guard
p3687
(dp3688
g18
I00
sg19
(lp3689
sg21
I00
sg22
Nsg23
I00
sg24
S'R'
sbsg32
(irule
FeatureMatrix
p3690
(dp3691
g35
(lp3692
(I01
g1874
tp3693
asg22
Nsbsg22
Nsba(irule
Rule
p3694
(dp3695
g15
(irule
Guard
p3696
(dp3697
g18
I00
sg19
(lp3698
(irule
FeatureMatrix
p3699
(dp3700
g35
(lp3701
(I00
g1864
tp3702
a(I00
g2446
tp3703
asg22
Nsbasg21
I00
sg22
Nsg23
I00
sg24
S'L'
sbsg25
(irule
ConstantPhoneme
p3704
(dp3705
S'p'
V\u0294
sbsg28
(irule
Guard
p3706
(dp3707
g18
I00
sg19
(lp3708
sg21
I00
sg22
Nsg23
I00
sg24
S'R'
sbsg32
(irule
ConstantPhoneme
p3709
(dp3710
S'p'
g1911
sbsg22
Nsbaa(lp3711
(irule
Rule
p3712
(dp3713
g15
(irule
Guard
p3714
(dp3715
g18
I00
sg19
(lp3716
(irule
ConstantPhoneme
p3717
(dp3718
S'p'
Vo
sbasg21
I00
sg22
Vo
sg23
I00
sg24
S'L'
sbsg25
(irule
ConstantPhoneme
p3719
(dp3720
S'p'
Vl
sbsg28
(irule
Guard
p3721
(dp3722
g18
I00
sg19
(lp3723
sg21
I00
sg22
V
sg23
I00
sg24
S'R'
sbsg32
(irule
FeatureMatrix
p3724
(dp3725
g35
(lp3726
sg22
V[  ]
p3727
sbsg22
V[  ] ---> l / o _ 
p3728
sba(irule
Rule
p3729
(dp3730
g15
(irule
Guard
p3731
(dp3732
g18
I00
sg19
(lp3733
(irule
FeatureMatrix
p3734
(dp3735
g35
(lp3736
(I01
S'rounded'
p3737
tp3738
asg22
Nsbasg21
I00
sg22
Nsg23
I00
sg24
S'L'
sbsg25
(irule
ConstantPhoneme
p3739
(dp3740
S'p'
Vl
sbsg28
(irule
Guard
p3741
(dp3742
g18
I00
sg19
(lp3743
sg21
I00
sg22
Nsg23
I00
sg24
S'R'
sbsg32
(irule
FeatureMatrix
p3744
(dp3745
g35
(lp3746
sg22
Nsbsg22
Nsba(irule
Rule
p3747
(dp3748
g15
(irule
Guard
p3749
(dp3750
g18
I00
sg19
(lp3751
(irule
FeatureMatrix
p3752
(dp3753
g35
(lp3754
(I01
g3737
tp3755
asg22
Nsbasg21
I00
sg22
Nsg23
I00
sg24
S'L'
sbsg25
(irule
ConstantPhoneme
p3756
(dp3757
S'p'
Vl
sbsg28
(irule
Guard
p3758
(dp3759
g18
I00
sg19
(lp3760
(irule
FeatureMatrix
p3761
(dp3762
g35
(lp3763
sg22
Nsbasg21
I00
sg22
Nsg23
I00
sg24
S'R'
sbsg32
(irule
FeatureMatrix
p3764
(dp3765
g35
(lp3766
sg22
Nsbsg22
Nsba(irule
Rule
p3767
(dp3768
g15
(irule
Guard
p3769
(dp3770
g18
I00
sg19
(lp3771
(irule
ConstantPhoneme
p3772
(dp3773
S'p'
Vo
sbasg21
I00
sg22
Nsg23
I00
sg24
S'L'
sbsg25
(irule
ConstantPhoneme
p3774
(dp3775
S'p'
Vl
sbsg28
(irule
Guard
p3776
(dp3777
g18
I00
sg19
(lp3778
(irule
FeatureMatrix
p3779
(dp3780
g35
(lp3781
sg22
Nsbasg21
I00
sg22
Nsg23
I00
sg24
S'R'
sbsg32
(irule
FeatureMatrix
p3782
(dp3783
g35
(lp3784
sg22
Nsbsg22
Nsba(irule
Rule
p3785
(dp3786
g15
(irule
Guard
p3787
(dp3788
g18
I00
sg19
(lp3789
(irule
ConstantPhoneme
p3790
(dp3791
S'p'
Vo
sba(irule
FeatureMatrix
p3792
(dp3793
g35
(lp3794
sg22
Nsbasg21
I00
sg22
Nsg23
I00
sg24
S'L'
sbsg25
(irule
ConstantPhoneme
p3795
(dp3796
S'p'
Vl
sbsg28
(irule
Guard
p3797
(dp3798
g18
I00
sg19
(lp3799
sg21
I00
sg22
Nsg23
I00
sg24
S'R'
sbsg32
(irule
FeatureMatrix
p3800
(dp3801
g35
(lp3802
sg22
Nsbsg22
Nsba(irule
Rule
p3803
(dp3804
g15
(irule
Guard
p3805
(dp3806
g18
I00
sg19
(lp3807
(irule
FeatureMatrix
p3808
(dp3809
g35
(lp3810
sg22
Nsba(irule
ConstantPhoneme
p3811
(dp3812
S'p'
Vh
sbasg21
I00
sg22
Nsg23
I00
sg24
S'L'
sbsg25
(irule
ConstantPhoneme
p3813
(dp3814
S'p'
Vl
sbsg28
(irule
Guard
p3815
(dp3816
g18
I00
sg19
(lp3817
sg21
I00
sg22
Nsg23
I00
sg24
S'R'
sbsg32
(irule
FeatureMatrix
p3818
(dp3819
g35
(lp3820
sg22
Nsbsg22
Nsba(irule
Rule
p3821
(dp3822
g15
(irule
Guard
p3823
(dp3824
g18
I00
sg19
(lp3825
(irule
FeatureMatrix
p3826
(dp3827
g35
(lp3828
(I01
g3737
tp3829
asg22
Nsba(irule
FeatureMatrix
p3830
(dp3831
g35
(lp3832
sg22
Nsbasg21
I00
sg22
Nsg23
I00
sg24
S'L'
sbsg25
(irule
ConstantPhoneme
p3833
(dp3834
S'p'
Vl
sbsg28
(irule
Guard
p3835
(dp3836
g18
I00
sg19
(lp3837
sg21
I00
sg22
Nsg23
I00
sg24
S'R'
sbsg32
(irule
FeatureMatrix
p3838
(dp3839
g35
(lp3840
sg22
Nsbsg22
Nsba(irule
Rule
p3841
(dp3842
g15
(irule
Guard
p3843
(dp3844
g18
I01
sg19
(lp3845
(irule
FeatureMatrix
p3846
(dp3847
g35
(lp3848
sg22
Nsba(irule
FeatureMatrix
p3849
(dp3850
g35
(lp3851
sg22
Nsbasg21
I00
sg22
Nsg23
I00
sg24
S'L'
sbsg25
(irule
ConstantPhoneme
p3852
(dp3853
S'p'
Vl
sbsg28
(irule
Guard
p3854
(dp3855
g18
I00
sg19
(lp3856
sg21
I00
sg22
Nsg23
I00
sg24
S'R'
sbsg32
(irule
FeatureMatrix
p3857
(dp3858
g35
(lp3859
sg22
Nsbsg22
Nsba(irule
Rule
p3860
(dp3861
g15
(irule
Guard
p3862
(dp3863
g18
I00
sg19
(lp3864
sg21
I00
sg22
Nsg23
I00
sg24
S'L'
sbsg25
(irule
ConstantPhoneme
p3865
(dp3866
S'p'
Vl
sbsg28
(irule
Guard
p3867
(dp3868
g18
I00
sg19
(lp3869
(irule
FeatureMatrix
p3870
(dp3871
g35
(lp3872
(I00
S'back'
p3873
tp3874
asg22
Nsbasg21
I00
sg22
Nsg23
I00
sg24
S'R'
sbsg32
(irule
FeatureMatrix
p3875
(dp3876
g35
(lp3877
(I01
S'anterior'
p3878
tp3879
asg22
Nsbsg22
Nsba(irule
Rule
p3880
(dp3881
g15
(irule
Guard
p3882
(dp3883
g18
I00
sg19
(lp3884
(irule
FeatureMatrix
p3885
(dp3886
g35
(lp3887
(I01
g3737
tp3888
a(I01
S'voice'
p3889
tp3890
asg22
Nsbasg21
I00
sg22
Nsg23
I00
sg24
S'L'
sbsg25
(irule
ConstantPhoneme
p3891
(dp3892
S'p'
Vl
sbsg28
(irule
Guard
p3893
(dp3894
g18
I00
sg19
(lp3895
sg21
I00
sg22
Nsg23
I00
sg24
S'R'
sbsg32
(irule
FeatureMatrix
p3896
(dp3897
g35
(lp3898
sg22
Nsbsg22
Nsba(irule
Rule
p3899
(dp3900
g15
(irule
Guard
p3901
(dp3902
g18
I00
sg19
(lp3903
(irule
FeatureMatrix
p3904
(dp3905
g35
(lp3906
(I00
S'long'
p3907
tp3908
a(I01
g3873
tp3909
asg22
Nsbasg21
I00
sg22
Nsg23
I00
sg24
S'L'
sbsg25
(irule
ConstantPhoneme
p3910
(dp3911
S'p'
Vl
sbsg28
(irule
Guard
p3912
(dp3913
g18
I00
sg19
(lp3914
sg21
I00
sg22
Nsg23
I00
sg24
S'R'
sbsg32
(irule
FeatureMatrix
p3915
(dp3916
g35
(lp3917
sg22
Nsbsg22
Nsba(irule
Rule
p3918
(dp3919
g15
(irule
Guard
p3920
(dp3921
g18
I00
sg19
(lp3922
(irule
FeatureMatrix
p3923
(dp3924
g35
(lp3925
(I01
g3737
tp3926
asg22
Nsbasg21
I00
sg22
Nsg23
I00
sg24
S'L'
sbsg25
(irule
ConstantPhoneme
p3927
(dp3928
S'p'
Vl
sbsg28
(irule
Guard
p3929
(dp3930
g18
I00
sg19
(lp3931
sg21
I00
sg22
Nsg23
I00
sg24
S'R'
sbsg32
(irule
FeatureMatrix
p3932
(dp3933
g35
(lp3934
(I00
S'vowel'
p3935
tp3936
asg22
Nsbsg22
Nsba(irule
Rule
p3937
(dp3938
g15
(irule
Guard
p3939
(dp3940
g18
I00
sg19
(lp3941
sg21
I00
sg22
Nsg23
I00
sg24
S'L'
sbsg25
(irule
ConstantPhoneme
p3942
(dp3943
S'p'
Vl
sbsg28
(irule
Guard
p3944
(dp3945
g18
I00
sg19
(lp3946
(irule
FeatureMatrix
p3947
(dp3948
g35
(lp3949
(I00
S'tense'
p3950
tp3951
asg22
Nsbasg21
I00
sg22
Nsg23
I00
sg24
S'R'
sbsg32
(irule
FeatureMatrix
p3952
(dp3953
g35
(lp3954
(I00
g3935
tp3955
asg22
Nsbsg22
Nsba(irule
Rule
p3956
(dp3957
g15
(irule
Guard
p3958
(dp3959
g18
I00
sg19
(lp3960
(irule
FeatureMatrix
p3961
(dp3962
g35
(lp3963
(I00
g3907
tp3964
a(I01
g3950
tp3965
asg22
Nsbasg21
I00
sg22
Nsg23
I00
sg24
S'L'
sbsg25
(irule
ConstantPhoneme
p3966
(dp3967
S'p'
Vl
sbsg28
(irule
Guard
p3968
(dp3969
g18
I00
sg19
(lp3970
sg21
I00
sg22
Nsg23
I00
sg24
S'R'
sbsg32
(irule
FeatureMatrix
p3971
(dp3972
g35
(lp3973
sg22
Nsbsg22
Nsba(irule
Rule
p3974
(dp3975
g15
(irule
Guard
p3976
(dp3977
g18
I00
sg19
(lp3978
(irule
FeatureMatrix
p3979
(dp3980
g35
(lp3981
(I00
g3907
tp3982
asg22
Nsbasg21
I00
sg22
Nsg23
I00
sg24
S'L'
sbsg25
(irule
ConstantPhoneme
p3983
(dp3984
S'p'
Vl
sbsg28
(irule
Guard
p3985
(dp3986
g18
I00
sg19
(lp3987
sg21
I00
sg22
Nsg23
I00
sg24
S'R'
sbsg32
(irule
FeatureMatrix
p3988
(dp3989
g35
(lp3990
(I01
g3878
tp3991
asg22
Nsbsg22
Nsba(irule
Rule
p3992
(dp3993
g15
(irule
Guard
p3994
(dp3995
g18
I00
sg19
(lp3996
(irule
FeatureMatrix
p3997
(dp3998
g35
(lp3999
(I00
g3907
tp4000
a(I01
g3935
tp4001
asg22
Nsbasg21
I00
sg22
Nsg23
I00
sg24
S'L'
sbsg25
(irule
ConstantPhoneme
p4002
(dp4003
S'p'
Vl
sbsg28
(irule
Guard
p4004
(dp4005
g18
I00
sg19
(lp4006
sg21
I00
sg22
Nsg23
I00
sg24
S'R'
sbsg32
(irule
FeatureMatrix
p4007
(dp4008
g35
(lp4009
sg22
Nsbsg22
Nsba(irule
Rule
p4010
(dp4011
g15
(irule
Guard
p4012
(dp4013
g18
I00
sg19
(lp4014
sg21
I00
sg22
Nsg23
I00
sg24
S'L'
sbsg25
(irule
ConstantPhoneme
p4015
(dp4016
S'p'
Vl
sbsg28
(irule
Guard
p4017
(dp4018
g18
I00
sg19
(lp4019
(irule
FeatureMatrix
p4020
(dp4021
g35
(lp4022
(I00
g3935
tp4023
asg22
Nsbasg21
I00
sg22
Nsg23
I00
sg24
S'R'
sbsg32
(irule
FeatureMatrix
p4024
(dp4025
g35
(lp4026
(I00
g3935
tp4027
asg22
Nsbsg22
Nsba(irule
Rule
p4028
(dp4029
g15
(irule
Guard
p4030
(dp4031
g18
I00
sg19
(lp4032
(irule
FeatureMatrix
p4033
(dp4034
g35
(lp4035
(I01
g3737
tp4036
a(I00
S'coronal'
p4037
tp4038
asg22
Nsbasg21
I00
sg22
Nsg23
I00
sg24
S'L'
sbsg25
(irule
ConstantPhoneme
p4039
(dp4040
S'p'
Vl
sbsg28
(irule
Guard
p4041
(dp4042
g18
I00
sg19
(lp4043
sg21
I00
sg22
Nsg23
I00
sg24
S'R'
sbsg32
(irule
FeatureMatrix
p4044
(dp4045
g35
(lp4046
sg22
Nsbsg22
Nsba(irule
Rule
p4047
(dp4048
g15
(irule
Guard
p4049
(dp4050
g18
I00
sg19
(lp4051
sg21
I00
sg22
Nsg23
I00
sg24
S'L'
sbsg25
(irule
ConstantPhoneme
p4052
(dp4053
S'p'
Vl
sbsg28
(irule
Guard
p4054
(dp4055
g18
I00
sg19
(lp4056
(irule
FeatureMatrix
p4057
(dp4058
g35
(lp4059
(I00
g3935
tp4060
asg22
Nsbasg21
I00
sg22
Nsg23
I00
sg24
S'R'
sbsg32
(irule
FeatureMatrix
p4061
(dp4062
g35
(lp4063
(I00
g3950
tp4064
asg22
Nsbsg22
Nsba(irule
Rule
p4065
(dp4066
g15
(irule
Guard
p4067
(dp4068
g18
I00
sg19
(lp4069
(irule
FeatureMatrix
p4070
(dp4071
g35
(lp4072
(I01
g3737
tp4073
asg22
Nsbasg21
I00
sg22
Nsg23
I00
sg24
S'L'
sbsg25
(irule
ConstantPhoneme
p4074
(dp4075
S'p'
Vl
sbsg28
(irule
Guard
p4076
(dp4077
g18
I00
sg19
(lp4078
sg21
I00
sg22
Nsg23
I00
sg24
S'R'
sbsg32
(irule
FeatureMatrix
p4079
(dp4080
g35
(lp4081
(I01
g3889
tp4082
asg22
Nsbsg22
Nsba(irule
Rule
p4083
(dp4084
g15
(irule
Guard
p4085
(dp4086
g18
I00
sg19
(lp4087
sg21
I00
sg22
Nsg23
I00
sg24
S'L'
sbsg25
(irule
ConstantPhoneme
p4088
(dp4089
S'p'
Vl
sbsg28
(irule
Guard
p4090
(dp4091
g18
I00
sg19
(lp4092
(irule
FeatureMatrix
p4093
(dp4094
g35
(lp4095
(I00
g3873
tp4096
asg22
Nsbasg21
I00
sg22
Nsg23
I00
sg24
S'R'
sbsg32
(irule
ConstantPhoneme
p4097
(dp4098
S'p'
Vn
sbsg22
Nsba(irule
Rule
p4099
(dp4100
g15
(irule
Guard
p4101
(dp4102
g18
I00
sg19
(lp4103
(irule
FeatureMatrix
p4104
(dp4105
g35
(lp4106
(I00
g3907
tp4107
asg22
Nsbasg21
I00
sg22
Nsg23
I00
sg24
S'L'
sbsg25
(irule
ConstantPhoneme
p4108
(dp4109
S'p'
Vl
sbsg28
(irule
Guard
p4110
(dp4111
g18
I00
sg19
(lp4112
sg21
I00
sg22
Nsg23
I00
sg24
S'R'
sbsg32
(irule
FeatureMatrix
p4113
(dp4114
g35
(lp4115
(I01
g4037
tp4116
asg22
Nsbsg22
Nsba(irule
Rule
p4117
(dp4118
g15
(irule
Guard
p4119
(dp4120
g18
I00
sg19
(lp4121
(irule
FeatureMatrix
p4122
(dp4123
g35
(lp4124
(I00
g3878
tp4125
a(I01
g3737
tp4126
asg22
Nsbasg21
I00
sg22
Nsg23
I00
sg24
S'L'
sbsg25
(irule
ConstantPhoneme
p4127
(dp4128
S'p'
Vl
sbsg28
(irule
Guard
p4129
(dp4130
g18
I00
sg19
(lp4131
sg21
I00
sg22
Nsg23
I00
sg24
S'R'
sbsg32
(irule
FeatureMatrix
p4132
(dp4133
g35
(lp4134
sg22
Nsbsg22
Nsba(irule
Rule
p4135
(dp4136
g15
(irule
Guard
p4137
(dp4138
g18
I00
sg19
(lp4139
sg21
I00
sg22
Nsg23
I00
sg24
S'L'
sbsg25
(irule
ConstantPhoneme
p4140
(dp4141
S'p'
Vl
sbsg28
(irule
Guard
p4142
(dp4143
g18
I00
sg19
(lp4144
(irule
FeatureMatrix
p4145
(dp4146
g35
(lp4147
(I00
g3935
tp4148
asg22
Nsbasg21
I00
sg22
Nsg23
I00
sg24
S'R'
sbsg32
(irule
FeatureMatrix
p4149
(dp4150
g35
(lp4151
(I01
g4037
tp4152
asg22
Nsbsg22
Nsba(irule
Rule
p4153
(dp4154
g15
(irule
Guard
p4155
(dp4156
g18
I00
sg19
(lp4157
sg21
I00
sg22
Nsg23
I00
sg24
S'L'
sbsg25
(irule
ConstantPhoneme
p4158
(dp4159
S'p'
Vl
sbsg28
(irule
Guard
p4160
(dp4161
g18
I00
sg19
(lp4162
(irule
FeatureMatrix
p4163
(dp4164
g35
(lp4165
(I00
g3950
tp4166
asg22
Nsbasg21
I00
sg22
Nsg23
I00
sg24
S'R'
sbsg32
(irule
FeatureMatrix
p4167
(dp4168
g35
(lp4169
(I01
g3878
tp4170
asg22
Nsbsg22
Nsba(irule
Rule
p4171
(dp4172
g15
(irule
Guard
p4173
(dp4174
g18
I00
sg19
(lp4175
(irule
FeatureMatrix
p4176
(dp4177
g35
(lp4178
(I01
g3737
tp4179
asg22
Nsbasg21
I00
sg22
Nsg23
I00
sg24
S'L'
sbsg25
(irule
ConstantPhoneme
p4180
(dp4181
S'p'
Vl
sbsg28
(irule
Guard
p4182
(dp4183
g18
I00
sg19
(lp4184
sg21
I00
sg22
Nsg23
I00
sg24
S'R'
sbsg32
(irule
FeatureMatrix
p4185
(dp4186
g35
(lp4187
(I00
S'secondStress'
p4188
tp4189
asg22
Nsbsg22
Nsba(irule
Rule
p4190
(dp4191
g15
(irule
Guard
p4192
(dp4193
g18
I00
sg19
(lp4194
sg21
I00
sg22
Nsg23
I00
sg24
S'L'
sbsg25
(irule
ConstantPhoneme
p4195
(dp4196
S'p'
Vl
sbsg28
(irule
Guard
p4197
(dp4198
g18
I00
sg19
(lp4199
(irule
FeatureMatrix
p4200
(dp4201
g35
(lp4202
(I00
g3935
tp4203
asg22
Nsbasg21
I00
sg22
Nsg23
I00
sg24
S'R'
sbsg32
(irule
FeatureMatrix
p4204
(dp4205
g35
(lp4206
(I01
g3878
tp4207
asg22
Nsbsg22
Nsba(irule
Rule
p4208
(dp4209
g15
(irule
Guard
p4210
(dp4211
g18
I00
sg19
(lp4212
(irule
FeatureMatrix
p4213
(dp4214
g35
(lp4215
(I01
g3737
tp4216
asg22
Nsbasg21
I00
sg22
Nsg23
I00
sg24
S'L'
sbsg25
(irule
ConstantPhoneme
p4217
(dp4218
S'p'
Vl
sbsg28
(irule
Guard
p4219
(dp4220
g18
I00
sg19
(lp4221
sg21
I00
sg22
Nsg23
I00
sg24
S'R'
sbsg32
(irule
FeatureMatrix
p4222
(dp4223
g35
(lp4224
(I01
g3878
tp4225
asg22
Nsbsg22
Nsba(irule
Rule
p4226
(dp4227
g15
(irule
Guard
p4228
(dp4229
g18
I00
sg19
(lp4230
(irule
FeatureMatrix
p4231
(dp4232
g35
(lp4233
(I01
S'low'
p4234
tp4235
asg22
Nsbasg21
I00
sg22
Nsg23
I00
sg24
S'L'
sbsg25
(irule
ConstantPhoneme
p4236
(dp4237
S'p'
Vl
sbsg28
(irule
Guard
p4238
(dp4239
g18
I00
sg19
(lp4240
sg21
I00
sg22
Nsg23
I00
sg24
S'R'
sbsg32
(irule
FeatureMatrix
p4241
(dp4242
g35
(lp4243
(I01
g3878
tp4244
asg22
Nsbsg22
Nsba(irule
Rule
p4245
(dp4246
g15
(irule
Guard
p4247
(dp4248
g18
I00
sg19
(lp4249
(irule
FeatureMatrix
p4250
(dp4251
g35
(lp4252
(I01
g3737
tp4253
a(I01
g3935
tp4254
asg22
Nsbasg21
I00
sg22
Nsg23
I00
sg24
S'L'
sbsg25
(irule
ConstantPhoneme
p4255
(dp4256
S'p'
Vl
sbsg28
(irule
Guard
p4257
(dp4258
g18
I00
sg19
(lp4259
sg21
I00
sg22
Nsg23
I00
sg24
S'R'
sbsg32
(irule
FeatureMatrix
p4260
(dp4261
g35
(lp4262
sg22
Nsbsg22
Nsba(irule
Rule
p4263
(dp4264
g15
(irule
Guard
p4265
(dp4266
g18
I00
sg19
(lp4267
(irule
FeatureMatrix
p4268
(dp4269
g35
(lp4270
(I01
g3737
tp4271
a(I01
S'sonorant'
p4272
tp4273
asg22
Nsbasg21
I00
sg22
Nsg23
I00
sg24
S'L'
sbsg25
(irule
ConstantPhoneme
p4274
(dp4275
S'p'
Vl
sbsg28
(irule
Guard
p4276
(dp4277
g18
I00
sg19
(lp4278
sg21
I00
sg22
Nsg23
I00
sg24
S'R'
sbsg32
(irule
FeatureMatrix
p4279
(dp4280
g35
(lp4281
sg22
Nsbsg22
Nsba(irule
Rule
p4282
(dp4283
g15
(irule
Guard
p4284
(dp4285
g18
I00
sg19
(lp4286
(irule
FeatureMatrix
p4287
(dp4288
g35
(lp4289
(I00
S'high'
p4290
tp4291
asg22
Nsbasg21
I00
sg22
Nsg23
I00
sg24
S'L'
sbsg25
(irule
ConstantPhoneme
p4292
(dp4293
S'p'
Vl
sbsg28
(irule
Guard
p4294
(dp4295
g18
I00
sg19
(lp4296
sg21
I00
sg22
Nsg23
I00
sg24
S'R'
sbsg32
(irule
FeatureMatrix
p4297
(dp4298
g35
(lp4299
(I01
g3878
tp4300
asg22
Nsbsg22
Nsba(irule
Rule
p4301
(dp4302
g15
(irule
Guard
p4303
(dp4304
g18
I00
sg19
(lp4305
sg21
I00
sg22
Nsg23
I00
sg24
S'L'
sbsg25
(irule
ConstantPhoneme
p4306
(dp4307
S'p'
Vl
sbsg28
(irule
Guard
p4308
(dp4309
g18
I00
sg19
(lp4310
(irule
FeatureMatrix
p4311
(dp4312
g35
(lp4313
(I00
g3950
tp4314
asg22
Nsbasg21
I00
sg22
Nsg23
I00
sg24
S'R'
sbsg32
(irule
FeatureMatrix
p4315
(dp4316
g35
(lp4317
(I01
g4037
tp4318
asg22
Nsbsg22
Nsba(irule
Rule
p4319
(dp4320
g15
(irule
Guard
p4321
(dp4322
g18
I00
sg19
(lp4323
(irule
FeatureMatrix
p4324
(dp4325
g35
(lp4326
(I00
g4290
tp4327
asg22
Nsbasg21
I00
sg22
Nsg23
I00
sg24
S'L'
sbsg25
(irule
ConstantPhoneme
p4328
(dp4329
S'p'
Vl
sbsg28
(irule
Guard
p4330
(dp4331
g18
I00
sg19
(lp4332
sg21
I00
sg22
Nsg23
I00
sg24
S'R'
sbsg32
(irule
FeatureMatrix
p4333
(dp4334
g35
(lp4335
(I01
S'nasal'
p4336
tp4337
asg22
Nsbsg22
Nsba(irule
Rule
p4338
(dp4339
g15
(irule
Guard
p4340
(dp4341
g18
I00
sg19
(lp4342
(irule
FeatureMatrix
p4343
(dp4344
g35
(lp4345
(I01
g3737
tp4346
asg22
Nsbasg21
I00
sg22
Nsg23
I00
sg24
S'L'
sbsg25
(irule
ConstantPhoneme
p4347
(dp4348
S'p'
Vl
sbsg28
(irule
Guard
p4349
(dp4350
g18
I00
sg19
(lp4351
sg21
I00
sg22
Nsg23
I00
sg24
S'R'
sbsg32
(irule
FeatureMatrix
p4352
(dp4353
g35
(lp4354
(I00
g3950
tp4355
asg22
Nsbsg22
Nsba(irule
Rule
p4356
(dp4357
g15
(irule
Guard
p4358
(dp4359
g18
I00
sg19
(lp4360
sg21
I00
sg22
Nsg23
I00
sg24
S'L'
sbsg25
(irule
ConstantPhoneme
p4361
(dp4362
S'p'
Vl
sbsg28
(irule
Guard
p4363
(dp4364
g18
I00
sg19
(lp4365
(irule
FeatureMatrix
p4366
(dp4367
g35
(lp4368
(I00
g3950
tp4369
asg22
Nsbasg21
I00
sg22
Nsg23
I00
sg24
S'R'
sbsg32
(irule
FeatureMatrix
p4370
(dp4371
g35
(lp4372
(I00
g3950
tp4373
asg22
Nsbsg22
Nsba(irule
Rule
p4374
(dp4375
g15
(irule
Guard
p4376
(dp4377
g18
I00
sg19
(lp4378
(irule
FeatureMatrix
p4379
(dp4380
g35
(lp4381
(I00
g4290
tp4382
asg22
Nsbasg21
I00
sg22
Nsg23
I00
sg24
S'L'
sbsg25
(irule
ConstantPhoneme
p4383
(dp4384
S'p'
Vl
sbsg28
(irule
Guard
p4385
(dp4386
g18
I00
sg19
(lp4387
sg21
I00
sg22
Nsg23
I00
sg24
S'R'
sbsg32
(irule
ConstantPhoneme
p4388
(dp4389
S'p'
Vn
sbsg22
Nsba(irule
Rule
p4390
(dp4391
g15
(irule
Guard
p4392
(dp4393
g18
I00
sg19
(lp4394
sg21
I00
sg22
Nsg23
I00
sg24
S'L'
sbsg25
(irule
ConstantPhoneme
p4395
(dp4396
S'p'
Vl
sbsg28
(irule
Guard
p4397
(dp4398
g18
I00
sg19
(lp4399
(irule
FeatureMatrix
p4400
(dp4401
g35
(lp4402
(I00
g3950
tp4403
asg22
Nsbasg21
I00
sg22
Nsg23
I00
sg24
S'R'
sbsg32
(irule
ConstantPhoneme
p4404
(dp4405
S'p'
Vn
sbsg22
Nsba(irule
Rule
p4406
(dp4407
g15
(irule
Guard
p4408
(dp4409
g18
I00
sg19
(lp4410
sg21
I00
sg22
Nsg23
I00
sg24
S'L'
sbsg25
(irule
ConstantPhoneme
p4411
(dp4412
S'p'
Vl
sbsg28
(irule
Guard
p4413
(dp4414
g18
I00
sg19
(lp4415
(irule
FeatureMatrix
p4416
(dp4417
g35
(lp4418
(I00
g3935
tp4419
asg22
Nsbasg21
I00
sg22
Nsg23
I00
sg24
S'R'
sbsg32
(irule
FeatureMatrix
p4420
(dp4421
g35
(lp4422
(I00
S'continuant'
p4423
tp4424
asg22
Nsbsg22
Nsba(irule
Rule
p4425
(dp4426
g15
(irule
Guard
p4427
(dp4428
g18
I00
sg19
(lp4429
(irule
FeatureMatrix
p4430
(dp4431
g35
(lp4432
(I01
g4234
tp4433
asg22
Nsbasg21
I00
sg22
Nsg23
I00
sg24
S'L'
sbsg25
(irule
ConstantPhoneme
p4434
(dp4435
S'p'
Vl
sbsg28
(irule
Guard
p4436
(dp4437
g18
I00
sg19
(lp4438
sg21
I00
sg22
Nsg23
I00
sg24
S'R'
sbsg32
(irule
FeatureMatrix
p4439
(dp4440
g35
(lp4441
(I00
g4423
tp4442
asg22
Nsbsg22
Nsba(irule
Rule
p4443
(dp4444
g15
(irule
Guard
p4445
(dp4446
g18
I00
sg19
(lp4447
(irule
FeatureMatrix
p4448
(dp4449
g35
(lp4450
(I01
g3737
tp4451
asg22
Nsbasg21
I00
sg22
Nsg23
I00
sg24
S'L'
sbsg25
(irule
ConstantPhoneme
p4452
(dp4453
S'p'
Vl
sbsg28
(irule
Guard
p4454
(dp4455
g18
I00
sg19
(lp4456
sg21
I00
sg22
Nsg23
I00
sg24
S'R'
sbsg32
(irule
FeatureMatrix
p4457
(dp4458
g35
(lp4459
(I01
g4037
tp4460
asg22
Nsbsg22
Nsba(irule
Rule
p4461
(dp4462
g15
(irule
Guard
p4463
(dp4464
g18
I00
sg19
(lp4465
(irule
FeatureMatrix
p4466
(dp4467
g35
(lp4468
(I01
g3737
tp4469
a(I00
g4290
tp4470
asg22
Nsbasg21
I00
sg22
Nsg23
I00
sg24
S'L'
sbsg25
(irule
ConstantPhoneme
p4471
(dp4472
S'p'
Vl
sbsg28
(irule
Guard
p4473
(dp4474
g18
I00
sg19
(lp4475
sg21
I00
sg22
Nsg23
I00
sg24
S'R'
sbsg32
(irule
FeatureMatrix
p4476
(dp4477
g35
(lp4478
sg22
Nsbsg22
Nsba(irule
Rule
p4479
(dp4480
g15
(irule
Guard
p4481
(dp4482
g18
I00
sg19
(lp4483
(irule
FeatureMatrix
p4484
(dp4485
g35
(lp4486
(I01
g3737
tp4487
a(I00
g4188
tp4488
asg22
Nsbasg21
I00
sg22
Nsg23
I00
sg24
S'L'
sbsg25
(irule
ConstantPhoneme
p4489
(dp4490
S'p'
Vl
sbsg28
(irule
Guard
p4491
(dp4492
g18
I00
sg19
(lp4493
sg21
I00
sg22
Nsg23
I00
sg24
S'R'
sbsg32
(irule
FeatureMatrix
p4494
(dp4495
g35
(lp4496
sg22
Nsbsg22
Nsba(irule
Rule
p4497
(dp4498
g15
(irule
Guard
p4499
(dp4500
g18
I00
sg19
(lp4501
(irule
FeatureMatrix
p4502
(dp4503
g35
(lp4504
(I00
g3907
tp4505
asg22
Nsbasg21
I00
sg22
Nsg23
I00
sg24
S'L'
sbsg25
(irule
ConstantPhoneme
p4506
(dp4507
S'p'
Vl
sbsg28
(irule
Guard
p4508
(dp4509
g18
I00
sg19
(lp4510
sg21
I00
sg22
Nsg23
I00
sg24
S'R'
sbsg32
(irule
ConstantPhoneme
p4511
(dp4512
S'p'
Vn
sbsg22
Nsba(irule
Rule
p4513
(dp4514
g15
(irule
Guard
p4515
(dp4516
g18
I00
sg19
(lp4517
(irule
ConstantPhoneme
p4518
(dp4519
S'p'
Vo
sbasg21
I00
sg22
Nsg23
I00
sg24
S'L'
sbsg25
(irule
ConstantPhoneme
p4520
(dp4521
S'p'
Vl
sbsg28
(irule
Guard
p4522
(dp4523
g18
I00
sg19
(lp4524
sg21
I00
sg22
Nsg23
I00
sg24
S'R'
sbsg32
(irule
FeatureMatrix
p4525
(dp4526
g35
(lp4527
(I00
g4188
tp4528
asg22
Nsbsg22
Nsba(irule
Rule
p4529
(dp4530
g15
(irule
Guard
p4531
(dp4532
g18
I00
sg19
(lp4533
(irule
FeatureMatrix
p4534
(dp4535
g35
(lp4536
(I01
g3737
tp4537
a(I00
S'glide'
p4538
tp4539
asg22
Nsbasg21
I00
sg22
Nsg23
I00
sg24
S'L'
sbsg25
(irule
ConstantPhoneme
p4540
(dp4541
S'p'
Vl
sbsg28
(irule
Guard
p4542
(dp4543
g18
I00
sg19
(lp4544
sg21
I00
sg22
Nsg23
I00
sg24
S'R'
sbsg32
(irule
FeatureMatrix
p4545
(dp4546
g35
(lp4547
sg22
Nsbsg22
Nsba(irule
Rule
p4548
(dp4549
g15
(irule
Guard
p4550
(dp4551
g18
I00
sg19
(lp4552
sg21
I00
sg22
Nsg23
I00
sg24
S'L'
sbsg25
(irule
ConstantPhoneme
p4553
(dp4554
S'p'
Vl
sbsg28
(irule
Guard
p4555
(dp4556
g18
I00
sg19
(lp4557
(irule
FeatureMatrix
p4558
(dp4559
g35
(lp4560
(I00
g3873
tp4561
asg22
Nsbasg21
I00
sg22
Nsg23
I00
sg24
S'R'
sbsg32
(irule
FeatureMatrix
p4562
(dp4563
g35
(lp4564
(I01
g4037
tp4565
asg22
Nsbsg22
Nsba(irule
Rule
p4566
(dp4567
g15
(irule
Guard
p4568
(dp4569
g18
I00
sg19
(lp4570
sg21
I00
sg22
Nsg23
I00
sg24
S'L'
sbsg25
(irule
ConstantPhoneme
p4571
(dp4572
S'p'
Vl
sbsg28
(irule
Guard
p4573
(dp4574
g18
I00
sg19
(lp4575
(irule
FeatureMatrix
p4576
(dp4577
g35
(lp4578
(I00
g3935
tp4579
asg22
Nsbasg21
I00
sg22
Nsg23
I00
sg24
S'R'
sbsg32
(irule
ConstantPhoneme
p4580
(dp4581
S'p'
Vn
sbsg22
Nsba(irule
Rule
p4582
(dp4583
g15
(irule
Guard
p4584
(dp4585
g18
I00
sg19
(lp4586
(irule
FeatureMatrix
p4587
(dp4588
g35
(lp4589
(I01
g3737
tp4590
a(I00
g4336
tp4591
asg22
Nsbasg21
I00
sg22
Nsg23
I00
sg24
S'L'
sbsg25
(irule
ConstantPhoneme
p4592
(dp4593
S'p'
Vl
sbsg28
(irule
Guard
p4594
(dp4595
g18
I00
sg19
(lp4596
sg21
I00
sg22
Nsg23
I00
sg24
S'R'
sbsg32
(irule
FeatureMatrix
p4597
(dp4598
g35
(lp4599
sg22
Nsbsg22
Nsba(irule
Rule
p4600
(dp4601
g15
(irule
Guard
p4602
(dp4603
g18
I00
sg19
(lp4604
(irule
FeatureMatrix
p4605
(dp4606
g35
(lp4607
(I01
g3737
tp4608
asg22
Nsbasg21
I00
sg22
Nsg23
I00
sg24
S'L'
sbsg25
(irule
ConstantPhoneme
p4609
(dp4610
S'p'
Vl
sbsg28
(irule
Guard
p4611
(dp4612
g18
I00
sg19
(lp4613
sg21
I00
sg22
Nsg23
I00
sg24
S'R'
sbsg32
(irule
ConstantPhoneme
p4614
(dp4615
S'p'
Vn
sbsg22
Nsba(irule
Rule
p4616
(dp4617
g15
(irule
Guard
p4618
(dp4619
g18
I00
sg19
(lp4620
(irule
FeatureMatrix
p4621
(dp4622
g35
(lp4623
(I01
g3737
tp4624
a(I00
S'liquid'
p4625
tp4626
asg22
Nsbasg21
I00
sg22
Nsg23
I00
sg24
S'L'
sbsg25
(irule
ConstantPhoneme
p4627
(dp4628
S'p'
Vl
sbsg28
(irule
Guard
p4629
(dp4630
g18
I00
sg19
(lp4631
sg21
I00
sg22
Nsg23
I00
sg24
S'R'
sbsg32
(irule
FeatureMatrix
p4632
(dp4633
g35
(lp4634
sg22
Nsbsg22
Nsba(irule
Rule
p4635
(dp4636
g15
(irule
Guard
p4637
(dp4638
g18
I00
sg19
(lp4639
(irule
ConstantPhoneme
p4640
(dp4641
S'p'
Vo
sbasg21
I00
sg22
Nsg23
I00
sg24
S'L'
sbsg25
(irule
ConstantPhoneme
p4642
(dp4643
S'p'
Vl
sbsg28
(irule
Guard
p4644
(dp4645
g18
I00
sg19
(lp4646
sg21
I00
sg22
Nsg23
I00
sg24
S'R'
sbsg32
(irule
ConstantPhoneme
p4647
(dp4648
S'p'
Vn
sbsg22
Nsba(irule
Rule
p4649
(dp4650
g15
(irule
Guard
p4651
(dp4652
g18
I00
sg19
(lp4653
(irule
FeatureMatrix
p4654
(dp4655
g35
(lp4656
(I01
g3873
tp4657
asg22
Nsbasg21
I00
sg22
Nsg23
I00
sg24
S'L'
sbsg25
(irule
ConstantPhoneme
p4658
(dp4659
S'p'
Vl
sbsg28
(irule
Guard
p4660
(dp4661
g18
I00
sg19
(lp4662
sg21
I00
sg22
Nsg23
I00
sg24
S'R'
sbsg32
(irule
ConstantPhoneme
p4663
(dp4664
S'p'
Vn
sbsg22
Nsba(irule
Rule
p4665
(dp4666
g15
(irule
Guard
p4667
(dp4668
g18
I00
sg19
(lp4669
(irule
FeatureMatrix
p4670
(dp4671
g35
(lp4672
(I00
g3907
tp4673
a(I01
g3737
tp4674
asg22
Nsbasg21
I00
sg22
Nsg23
I00
sg24
S'L'
sbsg25
(irule
ConstantPhoneme
p4675
(dp4676
S'p'
Vl
sbsg28
(irule
Guard
p4677
(dp4678
g18
I00
sg19
(lp4679
sg21
I00
sg22
Nsg23
I00
sg24
S'R'
sbsg32
(irule
FeatureMatrix
p4680
(dp4681
g35
(lp4682
sg22
Nsbsg22
Nsba(irule
Rule
p4683
(dp4684
g15
(irule
Guard
p4685
(dp4686
g18
I00
sg19
(lp4687
sg21
I00
sg22
Nsg23
I00
sg24
S'L'
sbsg25
(irule
ConstantPhoneme
p4688
(dp4689
S'p'
Vl
sbsg28
(irule
Guard
p4690
(dp4691
g18
I00
sg19
(lp4692
(irule
FeatureMatrix
p4693
(dp4694
g35
(lp4695
(I00
g3950
tp4696
asg22
Nsbasg21
I00
sg22
Nsg23
I00
sg24
S'R'
sbsg32
(irule
FeatureMatrix
p4697
(dp4698
g35
(lp4699
(I00
g4423
tp4700
asg22
Nsbsg22
Nsba(irule
Rule
p4701
(dp4702
g15
(irule
Guard
p4703
(dp4704
g18
I00
sg19
(lp4705
(irule
FeatureMatrix
p4706
(dp4707
g35
(lp4708
(I01
g3737
tp4709
a(I01
g3873
tp4710
asg22
Nsbasg21
I00
sg22
Nsg23
I00
sg24
S'L'
sbsg25
(irule
ConstantPhoneme
p4711
(dp4712
S'p'
Vl
sbsg28
(irule
Guard
p4713
(dp4714
g18
I00
sg19
(lp4715
sg21
I00
sg22
Nsg23
I00
sg24
S'R'
sbsg32
(irule
FeatureMatrix
p4716
(dp4717
g35
(lp4718
sg22
Nsbsg22
Nsba(irule
Rule
p4719
(dp4720
g15
(irule
Guard
p4721
(dp4722
g18
I00
sg19
(lp4723
(irule
FeatureMatrix
p4724
(dp4725
g35
(lp4726
(I01
g3737
tp4727
a(I00
S'lateral'
p4728
tp4729
asg22
Nsbasg21
I00
sg22
Nsg23
I00
sg24
S'L'
sbsg25
(irule
ConstantPhoneme
p4730
(dp4731
S'p'
Vl
sbsg28
(irule
Guard
p4732
(dp4733
g18
I00
sg19
(lp4734
sg21
I00
sg22
Nsg23
I00
sg24
S'R'
sbsg32
(irule
FeatureMatrix
p4735
(dp4736
g35
(lp4737
sg22
Nsbsg22
Nsba(irule
Rule
p4738
(dp4739
g15
(irule
Guard
p4740
(dp4741
g18
I00
sg19
(lp4742
sg21
I00
sg22
Nsg23
I00
sg24
S'L'
sbsg25
(irule
ConstantPhoneme
p4743
(dp4744
S'p'
Vl
sbsg28
(irule
Guard
p4745
(dp4746
g18
I00
sg19
(lp4747
(irule
FeatureMatrix
p4748
(dp4749
g35
(lp4750
(I00
g3873
tp4751
asg22
Nsbasg21
I00
sg22
Nsg23
I00
sg24
S'R'
sbsg32
(irule
FeatureMatrix
p4752
(dp4753
g35
(lp4754
(I01
g4336
tp4755
asg22
Nsbsg22
Nsba(irule
Rule
p4756
(dp4757
g15
(irule
Guard
p4758
(dp4759
g18
I00
sg19
(lp4760
(irule
ConstantPhoneme
p4761
(dp4762
S'p'
Vo
sbasg21
I00
sg22
Nsg23
I00
sg24
S'L'
sbsg25
(irule
ConstantPhoneme
p4763
(dp4764
S'p'
Vl
sbsg28
(irule
Guard
p4765
(dp4766
g18
I00
sg19
(lp4767
sg21
I00
sg22
Nsg23
I00
sg24
S'R'
sbsg32
(irule
FeatureMatrix
p4768
(dp4769
g35
(lp4770
(I01
g3878
tp4771
asg22
Nsbsg22
Nsba(irule
Rule
p4772
(dp4773
g15
(irule
Guard
p4774
(dp4775
g18
I00
sg19
(lp4776
sg21
I00
sg22
Nsg23
I00
sg24
S'L'
sbsg25
(irule
ConstantPhoneme
p4777
(dp4778
S'p'
Vl
sbsg28
(irule
Guard
p4779
(dp4780
g18
I00
sg19
(lp4781
(irule
FeatureMatrix
p4782
(dp4783
g35
(lp4784
(I00
g3935
tp4785
asg22
Nsbasg21
I00
sg22
Nsg23
I00
sg24
S'R'
sbsg32
(irule
FeatureMatrix
p4786
(dp4787
g35
(lp4788
(I01
g4336
tp4789
asg22
Nsbsg22
Nsba(irule
Rule
p4790
(dp4791
g15
(irule
Guard
p4792
(dp4793
g18
I00
sg19
(lp4794
(irule
FeatureMatrix
p4795
(dp4796
g35
(lp4797
(I01
g4234
tp4798
asg22
Nsbasg21
I00
sg22
Nsg23
I00
sg24
S'L'
sbsg25
(irule
ConstantPhoneme
p4799
(dp4800
S'p'
Vl
sbsg28
(irule
Guard
p4801
(dp4802
g18
I00
sg19
(lp4803
sg21
I00
sg22
Nsg23
I00
sg24
S'R'
sbsg32
(irule
ConstantPhoneme
p4804
(dp4805
S'p'
Vn
sbsg22
Nsba(irule
Rule
p4806
(dp4807
g15
(irule
Guard
p4808
(dp4809
g18
I00
sg19
(lp4810
sg21
I00
sg22
Nsg23
I00
sg24
S'L'
sbsg25
(irule
ConstantPhoneme
p4811
(dp4812
S'p'
Vl
sbsg28
(irule
Guard
p4813
(dp4814
g18
I00
sg19
(lp4815
(irule
FeatureMatrix
p4816
(dp4817
g35
(lp4818
(I00
g3950
tp4819
asg22
Nsbasg21
I00
sg22
Nsg23
I00
sg24
S'R'
sbsg32
(irule
FeatureMatrix
p4820
(dp4821
g35
(lp4822
(I01
g4336
tp4823
asg22
Nsbsg22
Nsba(irule
Rule
p4824
(dp4825
g15
(irule
Guard
p4826
(dp4827
g18
I00
sg19
(lp4828
(irule
FeatureMatrix
p4829
(dp4830
g35
(lp4831
(I01
g3737
tp4832
a(I00
S'palletized'
p4833
tp4834
asg22
Nsbasg21
I00
sg22
Nsg23
I00
sg24
S'L'
sbsg25
(irule
ConstantPhoneme
p4835
(dp4836
S'p'
Vl
sbsg28
(irule
Guard
p4837
(dp4838
g18
I00
sg19
(lp4839
sg21
I00
sg22
Nsg23
I00
sg24
S'R'
sbsg32
(irule
FeatureMatrix
p4840
(dp4841
g35
(lp4842
sg22
Nsbsg22
Nsba(irule
Rule
p4843
(dp4844
g15
(irule
Guard
p4845
(dp4846
g18
I00
sg19
(lp4847
(irule
FeatureMatrix
p4848
(dp4849
g35
(lp4850
(I01
g3873
tp4851
asg22
Nsbasg21
I00
sg22
Nsg23
I00
sg24
S'L'
sbsg25
(irule
ConstantPhoneme
p4852
(dp4853
S'p'
Vl
sbsg28
(irule
Guard
p4854
(dp4855
g18
I00
sg19
(lp4856
sg21
I00
sg22
Nsg23
I00
sg24
S'R'
sbsg32
(irule
FeatureMatrix
p4857
(dp4858
g35
(lp4859
(I01
g3878
tp4860
asg22
Nsbsg22
Nsba(irule
Rule
p4861
(dp4862
g15
(irule
Guard
p4863
(dp4864
g18
I00
sg19
(lp4865
(irule
FeatureMatrix
p4866
(dp4867
g35
(lp4868
(I01
g3737
tp4869
a(I01
g4234
tp4870
asg22
Nsbasg21
I00
sg22
Nsg23
I00
sg24
S'L'
sbsg25
(irule
ConstantPhoneme
p4871
(dp4872
S'p'
Vl
sbsg28
(irule
Guard
p4873
(dp4874
g18
I00
sg19
(lp4875
sg21
I00
sg22
Nsg23
I00
sg24
S'R'
sbsg32
(irule
FeatureMatrix
p4876
(dp4877
g35
(lp4878
sg22
Nsbsg22
Nsba(irule
Rule
p4879
(dp4880
g15
(irule
Guard
p4881
(dp4882
g18
I00
sg19
(lp4883
(irule
FeatureMatrix
p4884
(dp4885
g35
(lp4886
(I01
g3737
tp4887
a(I01
g3950
tp4888
asg22
Nsbasg21
I00
sg22
Nsg23
I00
sg24
S'L'
sbsg25
(irule
ConstantPhoneme
p4889
(dp4890
S'p'
Vl
sbsg28
(irule
Guard
p4891
(dp4892
g18
I00
sg19
(lp4893
sg21
I00
sg22
Nsg23
I00
sg24
S'R'
sbsg32
(irule
FeatureMatrix
p4894
(dp4895
g35
(lp4896
sg22
Nsbsg22
Nsba(irule
Rule
p4897
(dp4898
g15
(irule
Guard
p4899
(dp4900
g18
I00
sg19
(lp4901
(irule
FeatureMatrix
p4902
(dp4903
g35
(lp4904
(I01
g4234
tp4905
asg22
Nsbasg21
I00
sg22
Nsg23
I00
sg24
S'L'
sbsg25
(irule
ConstantPhoneme
p4906
(dp4907
S'p'
Vl
sbsg28
(irule
Guard
p4908
(dp4909
g18
I00
sg19
(lp4910
sg21
I00
sg22
Nsg23
I00
sg24
S'R'
sbsg32
(irule
FeatureMatrix
p4911
(dp4912
g35
(lp4913
(I01
g4336
tp4914
asg22
Nsbsg22
Nsba(irule
Rule
p4915
(dp4916
g15
(irule
Guard
p4917
(dp4918
g18
I00
sg19
(lp4919
(irule
FeatureMatrix
p4920
(dp4921
g35
(lp4922
(I01
g3737
tp4923
a(I01
g4423
tp4924
asg22
Nsbasg21
I00
sg22
Nsg23
I00
sg24
S'L'
sbsg25
(irule
ConstantPhoneme
p4925
(dp4926
S'p'
Vl
sbsg28
(irule
Guard
p4927
(dp4928
g18
I00
sg19
(lp4929
sg21
I00
sg22
Nsg23
I00
sg24
S'R'
sbsg32
(irule
FeatureMatrix
p4930
(dp4931
g35
(lp4932
sg22
Nsbsg22
Nsba(irule
Rule
p4933
(dp4934
g15
(irule
Guard
p4935
(dp4936
g18
I00
sg19
(lp4937
(irule
ConstantPhoneme
p4938
(dp4939
S'p'
Vo
sbasg21
I00
sg22
Nsg23
I00
sg24
S'L'
sbsg25
(irule
ConstantPhoneme
p4940
(dp4941
S'p'
Vl
sbsg28
(irule
Guard
p4942
(dp4943
g18
I00
sg19
(lp4944
sg21
I00
sg22
Nsg23
I00
sg24
S'R'
sbsg32
(irule
FeatureMatrix
p4945
(dp4946
g35
(lp4947
(I01
g3889
tp4948
asg22
Nsbsg22
Nsba(irule
Rule
p4949
(dp4950
g15
(irule
Guard
p4951
(dp4952
g18
I00
sg19
(lp4953
(irule
FeatureMatrix
p4954
(dp4955
g35
(lp4956
(I01
g3737
tp4957
asg22
Nsbasg21
I00
sg22
Nsg23
I00
sg24
S'L'
sbsg25
(irule
ConstantPhoneme
p4958
(dp4959
S'p'
Vl
sbsg28
(irule
Guard
p4960
(dp4961
g18
I00
sg19
(lp4962
sg21
I00
sg22
Nsg23
I00
sg24
S'R'
sbsg32
(irule
FeatureMatrix
p4963
(dp4964
g35
(lp4965
(I01
g4336
tp4966
asg22
Nsbsg22
Nsba(irule
Rule
p4967
(dp4968
g15
(irule
Guard
p4969
(dp4970
g18
I00
sg19
(lp4971
(irule
FeatureMatrix
p4972
(dp4973
g35
(lp4974
(I00
g3907
tp4975
asg22
Nsbasg21
I00
sg22
Nsg23
I00
sg24
S'L'
sbsg25
(irule
ConstantPhoneme
p4976
(dp4977
S'p'
Vl
sbsg28
(irule
Guard
p4978
(dp4979
g18
I00
sg19
(lp4980
sg21
I00
sg22
Nsg23
I00
sg24
S'R'
sbsg32
(irule
FeatureMatrix
p4981
(dp4982
g35
(lp4983
(I01
g4336
tp4984
asg22
Nsbsg22
Nsba(irule
Rule
p4985
(dp4986
g15
(irule
Guard
p4987
(dp4988
g18
I00
sg19
(lp4989
(irule
FeatureMatrix
p4990
(dp4991
g35
(lp4992
(I01
g3737
tp4993
asg22
Nsbasg21
I00
sg22
Nsg23
I00
sg24
S'L'
sbsg25
(irule
ConstantPhoneme
p4994
(dp4995
S'p'
Vl
sbsg28
(irule
Guard
p4996
(dp4997
g18
I00
sg19
(lp4998
sg21
I00
sg22
Nsg23
I00
sg24
S'R'
sbsg32
(irule
FeatureMatrix
p4999
(dp5000
g35
(lp5001
(I00
g4625
tp5002
asg22
Nsbsg22
Nsba(irule
Rule
p5003
(dp5004
g15
(irule
Guard
p5005
(dp5006
g18
I00
sg19
(lp5007
(irule
ConstantPhoneme
p5008
(dp5009
S'p'
Vo
sbasg21
I00
sg22
Nsg23
I00
sg24
S'L'
sbsg25
(irule
ConstantPhoneme
p5010
(dp5011
S'p'
Vl
sbsg28
(irule
Guard
p5012
(dp5013
g18
I00
sg19
(lp5014
sg21
I00
sg22
Nsg23
I00
sg24
S'R'
sbsg32
(irule
FeatureMatrix
p5015
(dp5016
g35
(lp5017
(I00
g3907
tp5018
asg22
Nsbsg22
Nsba(irule
Rule
p5019
(dp5020
g15
(irule
Guard
p5021
(dp5022
g18
I00
sg19
(lp5023
(irule
ConstantPhoneme
p5024
(dp5025
S'p'
Vo
sbasg21
I00
sg22
Nsg23
I00
sg24
S'L'
sbsg25
(irule
ConstantPhoneme
p5026
(dp5027
S'p'
Vl
sbsg28
(irule
Guard
p5028
(dp5029
g18
I00
sg19
(lp5030
sg21
I00
sg22
Nsg23
I00
sg24
S'R'
sbsg32
(irule
FeatureMatrix
p5031
(dp5032
g35
(lp5033
(I00
g3935
tp5034
asg22
Nsbsg22
Nsba(irule
Rule
p5035
(dp5036
g15
(irule
Guard
p5037
(dp5038
g18
I00
sg19
(lp5039
(irule
FeatureMatrix
p5040
(dp5041
g35
(lp5042
(I01
g3873
tp5043
asg22
Nsbasg21
I00
sg22
Nsg23
I00
sg24
S'L'
sbsg25
(irule
ConstantPhoneme
p5044
(dp5045
S'p'
Vl
sbsg28
(irule
Guard
p5046
(dp5047
g18
I00
sg19
(lp5048
sg21
I00
sg22
Nsg23
I00
sg24
S'R'
sbsg32
(irule
FeatureMatrix
p5049
(dp5050
g35
(lp5051
(I00
g4188
tp5052
asg22
Nsbsg22
Nsba(irule
Rule
p5053
(dp5054
g15
(irule
Guard
p5055
(dp5056
g18
I00
sg19
(lp5057
(irule
ConstantPhoneme
p5058
(dp5059
S'p'
Vo
sbasg21
I00
sg22
Nsg23
I00
sg24
S'L'
sbsg25
(irule
ConstantPhoneme
p5060
(dp5061
S'p'
Vl
sbsg28
(irule
Guard
p5062
(dp5063
g18
I00
sg19
(lp5064
sg21
I00
sg22
Nsg23
I00
sg24
S'R'
sbsg32
(irule
FeatureMatrix
p5065
(dp5066
g35
(lp5067
(I01
g4336
tp5068
asg22
Nsbsg22
Nsba(irule
Rule
p5069
(dp5070
g15
(irule
Guard
p5071
(dp5072
g18
I00
sg19
(lp5073
(irule
ConstantPhoneme
p5074
(dp5075
S'p'
Vo
sbasg21
I00
sg22
Nsg23
I00
sg24
S'L'
sbsg25
(irule
ConstantPhoneme
p5076
(dp5077
S'p'
Vl
sbsg28
(irule
Guard
p5078
(dp5079
g18
I00
sg19
(lp5080
sg21
I00
sg22
Nsg23
I00
sg24
S'R'
sbsg32
(irule
FeatureMatrix
p5081
(dp5082
g35
(lp5083
(I00
g4423
tp5084
asg22
Nsbsg22
Nsba(irule
Rule
p5085
(dp5086
g15
(irule
Guard
p5087
(dp5088
g18
I00
sg19
(lp5089
(irule
FeatureMatrix
p5090
(dp5091
g35
(lp5092
(I01
g3737
tp5093
asg22
Nsbasg21
I00
sg22
Nsg23
I00
sg24
S'L'
sbsg25
(irule
ConstantPhoneme
p5094
(dp5095
S'p'
Vl
sbsg28
(irule
Guard
p5096
(dp5097
g18
I00
sg19
(lp5098
sg21
I00
sg22
Nsg23
I00
sg24
S'R'
sbsg32
(irule
FeatureMatrix
p5099
(dp5100
g35
(lp5101
(I00
g4833
tp5102
asg22
Nsbsg22
Nsba(irule
Rule
p5103
(dp5104
g15
(irule
Guard
p5105
(dp5106
g18
I00
sg19
(lp5107
(irule
FeatureMatrix
p5108
(dp5109
g35
(lp5110
(I01
g3737
tp5111
asg22
Nsbasg21
I00
sg22
Nsg23
I00
sg24
S'L'
sbsg25
(irule
ConstantPhoneme
p5112
(dp5113
S'p'
Vl
sbsg28
(irule
Guard
p5114
(dp5115
g18
I00
sg19
(lp5116
sg21
I00
sg22
Nsg23
I00
sg24
S'R'
sbsg32
(irule
FeatureMatrix
p5117
(dp5118
g35
(lp5119
(I00
g4234
tp5120
asg22
Nsbsg22
Nsba(irule
Rule
p5121
(dp5122
g15
(irule
Guard
p5123
(dp5124
g18
I00
sg19
(lp5125
(irule
FeatureMatrix
p5126
(dp5127
g35
(lp5128
(I01
g3873
tp5129
asg22
Nsbasg21
I00
sg22
Nsg23
I00
sg24
S'L'
sbsg25
(irule
ConstantPhoneme
p5130
(dp5131
S'p'
Vl
sbsg28
(irule
Guard
p5132
(dp5133
g18
I00
sg19
(lp5134
sg21
I00
sg22
Nsg23
I00
sg24
S'R'
sbsg32
(irule
FeatureMatrix
p5135
(dp5136
g35
(lp5137
(I00
g4625
tp5138
asg22
Nsbsg22
Nsba(irule
Rule
p5139
(dp5140
g15
(irule
Guard
p5141
(dp5142
g18
I00
sg19
(lp5143
(irule
ConstantPhoneme
p5144
(dp5145
S'p'
Vo
sbasg21
I00
sg22
Nsg23
I00
sg24
S'L'
sbsg25
(irule
ConstantPhoneme
p5146
(dp5147
S'p'
Vl
sbsg28
(irule
Guard
p5148
(dp5149
g18
I00
sg19
(lp5150
sg21
I00
sg22
Nsg23
I00
sg24
S'R'
sbsg32
(irule
FeatureMatrix
p5151
(dp5152
g35
(lp5153
(I00
g3950
tp5154
asg22
Nsbsg22
Nsba(irule
Rule
p5155
(dp5156
g15
(irule
Guard
p5157
(dp5158
g18
I00
sg19
(lp5159
(irule
FeatureMatrix
p5160
(dp5161
g35
(lp5162
(I01
g3873
tp5163
asg22
Nsbasg21
I00
sg22
Nsg23
I00
sg24
S'L'
sbsg25
(irule
ConstantPhoneme
p5164
(dp5165
S'p'
Vl
sbsg28
(irule
Guard
p5166
(dp5167
g18
I00
sg19
(lp5168
sg21
I00
sg22
Nsg23
I00
sg24
S'R'
sbsg32
(irule
FeatureMatrix
p5169
(dp5170
g35
(lp5171
(I01
g4336
tp5172
asg22
Nsbsg22
Nsba(irule
Rule
p5173
(dp5174
g15
(irule
Guard
p5175
(dp5176
g18
I00
sg19
(lp5177
(irule
ConstantPhoneme
p5178
(dp5179
S'p'
Vo
sbasg21
I00
sg22
Nsg23
I00
sg24
S'L'
sbsg25
(irule
ConstantPhoneme
p5180
(dp5181
S'p'
Vl
sbsg28
(irule
Guard
p5182
(dp5183
g18
I00
sg19
(lp5184
sg21
I00
sg22
Nsg23
I00
sg24
S'R'
sbsg32
(irule
FeatureMatrix
p5185
(dp5186
g35
(lp5187
(I00
g4625
tp5188
asg22
Nsbsg22
Nsba(irule
Rule
p5189
(dp5190
g15
(irule
Guard
p5191
(dp5192
g18
I00
sg19
(lp5193
(irule
FeatureMatrix
p5194
(dp5195
g35
(lp5196
(I01
g3737
tp5197
asg22
Nsbasg21
I00
sg22
Nsg23
I00
sg24
S'L'
sbsg25
(irule
ConstantPhoneme
p5198
(dp5199
S'p'
Vl
sbsg28
(irule
Guard
p5200
(dp5201
g18
I00
sg19
(lp5202
sg21
I00
sg22
Nsg23
I00
sg24
S'R'
sbsg32
(irule
FeatureMatrix
p5203
(dp5204
g35
(lp5205
(I00
g3907
tp5206
asg22
Nsbsg22
Nsba(irule
Rule
p5207
(dp5208
g15
(irule
Guard
p5209
(dp5210
g18
I00
sg19
(lp5211
(irule
ConstantPhoneme
p5212
(dp5213
S'p'
Vo
sbasg21
I00
sg22
Nsg23
I00
sg24
S'L'
sbsg25
(irule
ConstantPhoneme
p5214
(dp5215
S'p'
Vl
sbsg28
(irule
Guard
p5216
(dp5217
g18
I00
sg19
(lp5218
sg21
I00
sg22
Nsg23
I00
sg24
S'R'
sbsg32
(irule
FeatureMatrix
p5219
(dp5220
g35
(lp5221
(I01
g4037
tp5222
asg22
Nsbsg22
Nsba(irule
Rule
p5223
(dp5224
g15
(irule
Guard
p5225
(dp5226
g18
I00
sg19
(lp5227
(irule
FeatureMatrix
p5228
(dp5229
g35
(lp5230
(I01
g3737
tp5231
asg22
Nsbasg21
I00
sg22
Nsg23
I00
sg24
S'L'
sbsg25
(irule
ConstantPhoneme
p5232
(dp5233
S'p'
Vl
sbsg28
(irule
Guard
p5234
(dp5235
g18
I00
sg19
(lp5236
sg21
I00
sg22
Nsg23
I00
sg24
S'R'
sbsg32
(irule
FeatureMatrix
p5237
(dp5238
g35
(lp5239
(I00
g4290
tp5240
asg22
Nsbsg22
Nsba(irule
Rule
p5241
(dp5242
g15
(irule
Guard
p5243
(dp5244
g18
I00
sg19
(lp5245
(irule
FeatureMatrix
p5246
(dp5247
g35
(lp5248
(I01
g3737
tp5249
asg22
Nsbasg21
I00
sg22
Nsg23
I00
sg24
S'L'
sbsg25
(irule
ConstantPhoneme
p5250
(dp5251
S'p'
Vl
sbsg28
(irule
Guard
p5252
(dp5253
g18
I00
sg19
(lp5254
sg21
I00
sg22
Nsg23
I00
sg24
S'R'
sbsg32
(irule
FeatureMatrix
p5255
(dp5256
g35
(lp5257
(I00
g4423
tp5258
asg22
Nsbsg22
Nsba(irule
Rule
p5259
(dp5260
g15
(irule
Guard
p5261
(dp5262
g18
I00
sg19
(lp5263
(irule
FeatureMatrix
p5264
(dp5265
g35
(lp5266
(I01
g3737
tp5267
asg22
Nsbasg21
I00
sg22
Nsg23
I00
sg24
S'L'
sbsg25
(irule
ConstantPhoneme
p5268
(dp5269
S'p'
Vl
sbsg28
(irule
Guard
p5270
(dp5271
g18
I00
sg19
(lp5272
sg21
I00
sg22
Nsg23
I00
sg24
S'R'
sbsg32
(irule
FeatureMatrix
p5273
(dp5274
g35
(lp5275
(I01
g4272
tp5276
asg22
Nsbsg22
Nsba(irule
Rule
p5277
(dp5278
g15
(irule
Guard
p5279
(dp5280
g18
I00
sg19
(lp5281
(irule
ConstantPhoneme
p5282
(dp5283
S'p'
Vo
sbasg21
I00
sg22
Nsg23
I00
sg24
S'L'
sbsg25
(irule
ConstantPhoneme
p5284
(dp5285
S'p'
Vl
sbsg28
(irule
Guard
p5286
(dp5287
g18
I00
sg19
(lp5288
sg21
I00
sg22
Nsg23
I00
sg24
S'R'
sbsg32
(irule
FeatureMatrix
p5289
(dp5290
g35
(lp5291
(I00
g4833
tp5292
asg22
Nsbsg22
Nsba(irule
Rule
p5293
(dp5294
g15
(irule
Guard
p5295
(dp5296
g18
I00
sg19
(lp5297
(irule
FeatureMatrix
p5298
(dp5299
g35
(lp5300
(I01
g3737
tp5301
asg22
Nsbasg21
I00
sg22
Nsg23
I00
sg24
S'L'
sbsg25
(irule
ConstantPhoneme
p5302
(dp5303
S'p'
Vl
sbsg28
(irule
Guard
p5304
(dp5305
g18
I00
sg19
(lp5306
sg21
I00
sg22
Nsg23
I00
sg24
S'R'
sbsg32
(irule
FeatureMatrix
p5307
(dp5308
g35
(lp5309
(I00
g4728
tp5310
asg22
Nsbsg22
Nsba(irule
Rule
p5311
(dp5312
g15
(irule
Guard
p5313
(dp5314
g18
I00
sg19
(lp5315
(irule
ConstantPhoneme
p5316
(dp5317
S'p'
Vo
sbasg21
I00
sg22
Nsg23
I00
sg24
S'L'
sbsg25
(irule
ConstantPhoneme
p5318
(dp5319
S'p'
Vl
sbsg28
(irule
Guard
p5320
(dp5321
g18
I00
sg19
(lp5322
sg21
I00
sg22
Nsg23
I00
sg24
S'R'
sbsg32
(irule
FeatureMatrix
p5323
(dp5324
g35
(lp5325
(I00
g4290
tp5326
asg22
Nsbsg22
Nsba(irule
Rule
p5327
(dp5328
g15
(irule
Guard
p5329
(dp5330
g18
I00
sg19
(lp5331
(irule
ConstantPhoneme
p5332
(dp5333
S'p'
Vo
sbasg21
I00
sg22
Nsg23
I00
sg24
S'L'
sbsg25
(irule
ConstantPhoneme
p5334
(dp5335
S'p'
Vl
sbsg28
(irule
Guard
p5336
(dp5337
g18
I00
sg19
(lp5338
sg21
I00
sg22
Nsg23
I00
sg24
S'R'
sbsg32
(irule
FeatureMatrix
p5339
(dp5340
g35
(lp5341
(I00
g4234
tp5342
asg22
Nsbsg22
Nsba(irule
Rule
p5343
(dp5344
g15
(irule
Guard
p5345
(dp5346
g18
I00
sg19
(lp5347
(irule
FeatureMatrix
p5348
(dp5349
g35
(lp5350
(I01
g3873
tp5351
asg22
Nsbasg21
I00
sg22
Nsg23
I00
sg24
S'L'
sbsg25
(irule
ConstantPhoneme
p5352
(dp5353
S'p'
Vl
sbsg28
(irule
Guard
p5354
(dp5355
g18
I00
sg19
(lp5356
sg21
I00
sg22
Nsg23
I00
sg24
S'R'
sbsg32
(irule
FeatureMatrix
p5357
(dp5358
g35
(lp5359
(I00
g4728
tp5360
asg22
Nsbsg22
Nsba(irule
Rule
p5361
(dp5362
g15
(irule
Guard
p5363
(dp5364
g18
I00
sg19
(lp5365
(irule
FeatureMatrix
p5366
(dp5367
g35
(lp5368
(I01
g3737
tp5369
asg22
Nsbasg21
I00
sg22
Nsg23
I00
sg24
S'L'
sbsg25
(irule
ConstantPhoneme
p5370
(dp5371
S'p'
Vl
sbsg28
(irule
Guard
p5372
(dp5373
g18
I00
sg19
(lp5374
sg21
I00
sg22
Nsg23
I00
sg24
S'R'
sbsg32
(irule
FeatureMatrix
p5375
(dp5376
g35
(lp5377
(I00
g4538
tp5378
asg22
Nsbsg22
Nsba(irule
Rule
p5379
(dp5380
g15
(irule
Guard
p5381
(dp5382
g18
I00
sg19
(lp5383
(irule
ConstantPhoneme
p5384
(dp5385
S'p'
Vo
sbasg21
I00
sg22
Nsg23
I00
sg24
S'L'
sbsg25
(irule
ConstantPhoneme
p5386
(dp5387
S'p'
Vl
sbsg28
(irule
Guard
p5388
(dp5389
g18
I00
sg19
(lp5390
sg21
I00
sg22
Nsg23
I00
sg24
S'R'
sbsg32
(irule
FeatureMatrix
p5391
(dp5392
g35
(lp5393
(I00
g4728
tp5394
asg22
Nsbsg22
Nsba(irule
Rule
p5395
(dp5396
g15
(irule
Guard
p5397
(dp5398
g18
I00
sg19
(lp5399
(irule
ConstantPhoneme
p5400
(dp5401
S'p'
Vo
sbasg21
I00
sg22
Nsg23
I00
sg24
S'L'
sbsg25
(irule
ConstantPhoneme
p5402
(dp5403
S'p'
Vl
sbsg28
(irule
Guard
p5404
(dp5405
g18
I00
sg19
(lp5406
sg21
I00
sg22
Nsg23
I00
sg24
S'R'
sbsg32
(irule
FeatureMatrix
p5407
(dp5408
g35
(lp5409
(I01
g4272
tp5410
asg22
Nsbsg22
Nsba(irule
Rule
p5411
(dp5412
g15
(irule
Guard
p5413
(dp5414
g18
I00
sg19
(lp5415
(irule
FeatureMatrix
p5416
(dp5417
g35
(lp5418
(I01
g3737
tp5419
asg22
Nsbasg21
I00
sg22
Nsg23
I00
sg24
S'L'
sbsg25
(irule
ConstantPhoneme
p5420
(dp5421
S'p'
Vl
sbsg28
(irule
Guard
p5422
(dp5423
g18
I00
sg19
(lp5424
sg21
I00
sg22
Nsg23
I00
sg24
S'R'
sbsg32
(irule
FeatureMatrix
p5425
(dp5426
g35
(lp5427
(I00
g3873
tp5428
asg22
Nsbsg22
Nsba(irule
Rule
p5429
(dp5430
g15
(irule
Guard
p5431
(dp5432
g18
I00
sg19
(lp5433
(irule
ConstantPhoneme
p5434
(dp5435
S'p'
Vo
sbasg21
I00
sg22
Nsg23
I00
sg24
S'L'
sbsg25
(irule
ConstantPhoneme
p5436
(dp5437
S'p'
Vl
sbsg28
(irule
Guard
p5438
(dp5439
g18
I00
sg19
(lp5440
sg21
I00
sg22
Nsg23
I00
sg24
S'R'
sbsg32
(irule
FeatureMatrix
p5441
(dp5442
g35
(lp5443
(I00
g4538
tp5444
asg22
Nsbsg22
Nsba(irule
Rule
p5445
(dp5446
g15
(irule
Guard
p5447
(dp5448
g18
I00
sg19
(lp5449
(irule
FeatureMatrix
p5450
(dp5451
g35
(lp5452
(I01
g3737
tp5453
asg22
Nsbasg21
I00
sg22
Nsg23
I00
sg24
S'L'
sbsg25
(irule
ConstantPhoneme
p5454
(dp5455
S'p'
Vl
sbsg28
(irule
Guard
p5456
(dp5457
g18
I00
sg19
(lp5458
sg21
I00
sg22
Nsg23
I00
sg24
S'R'
sbsg32
(irule
FeatureMatrix
p5459
(dp5460
g35
(lp5461
(I00
g3737
tp5462
asg22
Nsbsg22
Nsba(irule
Rule
p5463
(dp5464
g15
(irule
Guard
p5465
(dp5466
g18
I00
sg19
(lp5467
(irule
ConstantPhoneme
p5468
(dp5469
S'p'
Vo
sbasg21
I00
sg22
Nsg23
I00
sg24
S'L'
sbsg25
(irule
ConstantPhoneme
p5470
(dp5471
S'p'
Vl
sbsg28
(irule
Guard
p5472
(dp5473
g18
I00
sg19
(lp5474
sg21
I00
sg22
Nsg23
I00
sg24
S'R'
sbsg32
(irule
FeatureMatrix
p5475
(dp5476
g35
(lp5477
(I00
g3873
tp5478
asg22
Nsbsg22
NsbaasbsS'parameters'
p5479
g6
(cargparse
Namespace
p5480
g8
NtRp5481
(dp5482
S'dummy'
p5483
I00
sS'task'
p5484
S'incremental'
p5485
sS'features'
p5486
S'sophisticated'
p5487
sS'resume'
p5488
I00
sS'geometry'
p5489
I01
sS'top'
p5490
I100
sS'disableClean'
p5491
I00
sS'universal'
p5492
NsS'restrict'
p5493
NsS'window'
p5494
NsS'seed'
p5495
S'0'
sS'restore'
p5496
NsS'verbosity'
p5497
I0
sS'timeout'
p5498
F24
sS'debug'
p5499
NsS'cores'
p5500
I40
sg144
S'Halle_113_Klamath'
p5501
sS'save'
p5502
NsS'serial'
p5503
I00
sS'alignment'
p5504
I00
sS'samples'
p5505
I30
sbsb.