(iresult
Result
p1
(dp2
S'startTime'
p3
F1555426288.7373879
sS'solutionSequence'
p4
(lp5
(ccopy_reg
_reconstructor
p6
(csolution
Solution
p7
c__builtin__
object
p8
NtRp9
(dp10
S'rules'
p11
(lp12
(irule
Rule
p13
(dp14
S'leftTriggers'
p15
(irule
Guard
p16
(dp17
S'endOfString'
p18
I00
sS'specifications'
p19
(lp20
sS'optionalEnding'
p21
I00
sS'representation'
p22
V
sS'starred'
p23
I00
sS'side'
p24
S'L'
sbsS'structuralChange'
p25
(irule
FeatureMatrix
p26
(dp27
S'featuresAndPolarities'
p28
(lp29
sg22
V[  ]
p30
sbsS'rightTriggers'
p31
(irule
Guard
p32
(dp33
g18
I00
sg19
(lp34
sg21
I00
sg22
V
sg23
I00
sg24
S'R'
sbsS'focus'
p35
(irule
FeatureMatrix
p36
(dp37
g28
(lp38
sg22
V[  ]
p39
sbsg22
V[  ] ---> [  ] /  _ 
p40
sbasS'prefixes'
p41
(lp42
(imorph
Morph
p43
(dp44
S'phonemes'
p45
(lp46
Va
aVt
asba(imorph
Morph
p47
(dp48
g45
(lp49
Vb^y
p50
aVi
aVz
asba(imorph
Morph
p51
(dp52
g45
(lp53
Vu
asbasS'underlyingForms'
p54
(dp55
((imorph
Morph
p56
(dp57
g45
(lp58
Va
aVt
aVa\u0301
p59
aVl
aV\u0268
asb(imorph
Morph
p60
(dp61
g45
(lp62
Vb^y
p63
aVi
aVz
aVa\u0301
p64
aVl
aV\u0268
asb(imorph
Morph
p65
(dp66
g45
(lp67
Vu
aVa\u0301
p68
aVl
aV\u0268
asbtp69
(imorph
Morph
p70
(dp71
g45
(lp72
Va\u0301
p73
aVl
aV\u0268
asbs((imorph
Morph
p74
(dp75
g45
(lp76
Va
aVt
aVr
aVo\u0301
p77
aVz
aV\u0268
asb(imorph
Morph
p78
(dp79
g45
(lp80
Vb^y
p81
aVi
aVz
aVr
aVo\u0301
p82
aVz
aV\u0268
asb(imorph
Morph
p83
(dp84
g45
(lp85
Vu
aVr
aVo\u0301
p86
aVz
aV\u0268
asbtp87
(imorph
Morph
p88
(dp89
g45
(lp90
Vr
aVo\u0301
p91
aVz
aV\u0268
asbssS'suffixes'
p92
(lp93
(imorph
Morph
p94
(dp95
g45
(lp96
sba(imorph
Morph
p97
(dp98
g45
(lp99
sba(imorph
Morph
p100
(dp101
g45
(lp102
sbasbF27.467939138412476
tp103
a(g6
(g7
g8
NtRp104
(dp105
g11
(lp106
(irule
Rule
p107
(dp108
g15
(irule
Guard
p109
(dp110
g18
I00
sg19
(lp111
sg21
I00
sg22
V
sg23
I00
sg24
S'L'
sbsg25
(irule
FeatureMatrix
p112
(dp113
g28
(lp114
(I01
S'voice'
p115
tp116
asg22
V[ +voice ]
p117
sbsg31
(irule
Guard
p118
(dp119
g18
I00
sg19
(lp120
(irule
ConstantPhoneme
p121
(dp122
S'p'
Vb
sbasg21
I00
sg22
Vb
sg23
I00
sg24
S'R'
sbsg35
(irule
FeatureMatrix
p123
(dp124
g28
(lp125
sg22
V[  ]
p126
sbsg22
V[  ] ---> [ +voice ] /  _ b
p127
sbasg41
(lp128
(imorph
Morph
p129
(dp130
g45
(lp131
Va
aVt
asba(imorph
Morph
p132
(dp133
g45
(lp134
g50
aVi
aVz
asba(imorph
Morph
p135
(dp136
g45
(lp137
Vu
asbasg54
(dp138
(g56
g60
g65
tp139
(imorph
Morph
p140
(dp141
g45
(lp142
g73
aVl
aV\u0268
asbs((imorph
Morph
p143
(dp144
g45
(lp145
Va
aVd
aVb
aVa
aVr
aVa
aVd
aV\u0268\u0301
p146
asb(imorph
Morph
p147
(dp148
g45
(lp149
Vb^y
p150
aVi
aVz
aVb
aVa
aVr
aVa
aVd
aV\u0268\u0301
p151
asb(imorph
Morph
p152
(dp153
g45
(lp154
Vu
aVb
aVa
aVr
aVa
aVd
aV\u0268\u0301
p155
asbtp156
(imorph
Morph
p157
(dp158
g45
(lp159
Vb
aVa
aVr
aVa
aVd
aV\u0268\u0301
p160
asbs(g74
g78
g83
tp161
(imorph
Morph
p162
(dp163
g45
(lp164
Vr
ag91
aVz
aV\u0268
asbssg92
(lp165
(imorph
Morph
p166
(dp167
g45
(lp168
sba(imorph
Morph
p169
(dp170
g45
(lp171
sba(imorph
Morph
p172
(dp173
g45
(lp174
sbasbF124.30816721916199
tp175
a(g6
(g7
g8
NtRp176
(dp177
g11
(lp178
(irule
Rule
p179
(dp180
g15
(irule
Guard
p181
(dp182
g18
I00
sg19
(lp183
sg21
I00
sg22
V
sg23
I00
sg24
S'L'
sbsg25
(irule
FeatureMatrix
p184
(dp185
g28
(lp186
(I01
g115
tp187
asg22
V[ +voice ]
p188
sbsg31
(irule
Guard
p189
(dp190
g18
I00
sg19
(lp191
(irule
ConstantPhoneme
p192
(dp193
S'p'
Vb
sbasg21
I00
sg22
Vb
sg23
I00
sg24
S'R'
sbsg35
(irule
FeatureMatrix
p194
(dp195
g28
(lp196
sg22
V[  ]
p197
sbsg22
V[  ] ---> [ +voice ] /  _ b
p198
sba(irule
Rule
p199
(dp200
g15
(irule
Guard
p201
(dp202
g18
I00
sg19
(lp203
sg21
I00
sg22
V
sg23
I00
sg24
S'L'
sbsg25
(irule
FeatureMatrix
p204
(dp205
g28
(lp206
(I00
g115
tp207
asg22
V[ -voice ]
p208
sbsg31
(irule
Guard
p209
(dp210
g18
I00
sg19
(lp211
(irule
FeatureMatrix
p212
(dp213
g28
(lp214
(I00
g115
tp215
asg22
V[ -voice ]
p216
sbasg21
I00
sg22
g216
sg23
I00
sg24
S'R'
sbsg35
(irule
FeatureMatrix
p217
(dp218
g28
(lp219
(I01
S'sibilant'
p220
tp221
asg22
V[ +sibilant ]
p222
sbsg22
V[ +sibilant ] ---> [ -voice ] /  _ [ -voice ]
p223
sbasg41
(lp224
(imorph
Morph
p225
(dp226
g45
(lp227
Va
aVt
asba(imorph
Morph
p228
(dp229
g45
(lp230
g50
aVi
aVz
asba(imorph
Morph
p231
(dp232
g45
(lp233
Vu
asbasg54
(dp234
(g56
g60
g65
tp235
(imorph
Morph
p236
(dp237
g45
(lp238
g73
aVl
aV\u0268
asbs(g143
g147
g152
tp239
(imorph
Morph
p240
(dp241
g45
(lp242
Vb
aVa
aVr
aVa
aVd
ag160
asbs(g74
g78
g83
tp243
(imorph
Morph
p244
(dp245
g45
(lp246
Vr
ag91
aVz
aV\u0268
asbs((imorph
Morph
p247
(dp248
g45
(lp249
Va
aVt
aVs^y
p250
aVi
aVs
aVt
aVr
aV\u0268\u0301
p251
asb(imorph
Morph
p252
(dp253
g45
(lp254
Vb^y
p255
aVi
aVs
aVs^y
p256
aVi
aVs
aVt
aVr
aV\u0268\u0301
p257
asb(imorph
Morph
p258
(dp259
g45
(lp260
Vu
aVs^y
p261
aVi
aVs
aVt
aVr
aV\u0268\u0301
p262
asbtp263
(imorph
Morph
p264
(dp265
g45
(lp266
Vs^y
p267
aVi
aVz
aVt
aVr
ag160
asbssg92
(lp268
(imorph
Morph
p269
(dp270
g45
(lp271
sba(imorph
Morph
p272
(dp273
g45
(lp274
sba(imorph
Morph
p275
(dp276
g45
(lp277
sbasbF2392.1735820770264
tp278
a(g6
(g7
g8
NtRp279
(dp280
g11
(lp281
(irule
Rule
p282
(dp283
g15
(irule
Guard
p284
(dp285
g18
I00
sg19
(lp286
(irule
FeatureMatrix
p287
(dp288
g28
(lp289
sg22
V[  ]
p290
sbasg21
I00
sg22
g290
sg23
I00
sg24
S'L'
sbsg25
(irule
FeatureMatrix
p291
(dp292
g28
(lp293
(I00
g115
tp294
asg22
V[ -voice ]
p295
sbsg31
(irule
Guard
p296
(dp297
g18
I00
sg19
(lp298
(irule
FeatureMatrix
p299
(dp300
g28
(lp301
(I01
S'palletized'
p302
tp303
asg22
V[ +palletized ]
p304
sbasg21
I00
sg22
g304
sg23
I00
sg24
S'R'
sbsg35
(irule
FeatureMatrix
p305
(dp306
g28
(lp307
sg22
V[  ]
p308
sbsg22
V[  ] ---> [ -voice ] / [  ] _ [ +palletized ]
p309
sba(irule
Rule
p310
(dp311
g15
(irule
Guard
p312
(dp313
g18
I00
sg19
(lp314
sg21
I00
sg22
V
sg23
I00
sg24
S'L'
sbsg25
(irule
FeatureMatrix
p315
(dp316
g28
(lp317
(I01
g115
tp318
asg22
V[ +voice ]
p319
sbsg31
(irule
Guard
p320
(dp321
g18
I00
sg19
(lp322
(irule
ConstantPhoneme
p323
(dp324
S'p'
Vb
sbasg21
I00
sg22
Vb
sg23
I00
sg24
S'R'
sbsg35
(irule
FeatureMatrix
p325
(dp326
g28
(lp327
sg22
V[  ]
p328
sbsg22
V[  ] ---> [ +voice ] /  _ b
p329
sbasg41
(lp330
(imorph
Morph
p331
(dp332
g45
(lp333
Va
aVt
asba(imorph
Morph
p334
(dp335
g45
(lp336
g50
aVi
aVz
asba(imorph
Morph
p337
(dp338
g45
(lp339
Vu
asbasg54
(dp340
(g56
g60
g65
tp341
(imorph
Morph
p342
(dp343
g45
(lp344
g73
aVl
aV\u0268
asbs(g143
g147
g152
tp345
(imorph
Morph
p346
(dp347
g45
(lp348
Vb
aVa
aVr
aVa
aVd
ag160
asbs(g74
g78
g83
tp349
(imorph
Morph
p350
(dp351
g45
(lp352
Vr
ag91
aVz
aV\u0268
asbs(g247
g252
g258
tp353
(imorph
Morph
p354
(dp355
g45
(lp356
g267
aVi
aVs
aVt
aVr
ag160
asbs((imorph
Morph
p357
(dp358
g45
(lp359
Va
aVt
aVk
aVa
aVr
aVo\u0301
p360
aVv
aV\u0268
asb(imorph
Morph
p361
(dp362
g45
(lp363
Vb^y
p364
aVi
aVz
aVk
aVa
aVr
aVo\u0301
p365
aVv
aV\u0268
asb(imorph
Morph
p366
(dp367
g45
(lp368
Vu
aVk
aVa
aVr
aVo\u0301
p369
aVv
aV\u0268
asbtp370
(imorph
Morph
p371
(dp372
g45
(lp373
Vk
aVa
aVr
ag91
aVv
aV\u0268
asbssg92
(lp374
(imorph
Morph
p375
(dp376
g45
(lp377
sba(imorph
Morph
p378
(dp379
g45
(lp380
sba(imorph
Morph
p381
(dp382
g45
(lp383
sbasbF4949.6353750228882
tp384
asS'problem'
p385
S'Halle_109_Russian'
p386
sS'finalFrontier'
p387
g6
(csolution
Frontier
p388
g8
NtRp389
(dp390
g41
g330
sg92
g374
sg54
g340
sS'frontiers'
p391
(lp392
(lp393
(irule
Rule
p394
(dp395
g15
(irule
Guard
p396
(dp397
g18
I00
sg19
(lp398
(irule
FeatureMatrix
p399
(dp400
g28
(lp401
sg22
V[  ]
p402
sbasg21
I00
sg22
g402
sg23
I00
sg24
S'L'
sbsg25
(irule
FeatureMatrix
p403
(dp404
g28
(lp405
(I00
S'voice'
tp406
asg22
V[ -voice ]
p407
sbsg31
(irule
Guard
p408
(dp409
g18
I00
sg19
(lp410
(irule
FeatureMatrix
p411
(dp412
g28
(lp413
(I01
S'palletized'
tp414
asg22
V[ +palletized ]
p415
sbasg21
I00
sg22
g415
sg23
I00
sg24
S'R'
sbsg35
(irule
FeatureMatrix
p416
(dp417
g28
(lp418
sg22
V[  ]
p419
sbsg22
V[  ] ---> [ -voice ] / [  ] _ [ +palletized ]
p420
sba(irule
Rule
p421
(dp422
g15
(irule
Guard
p423
(dp424
g18
I00
sg19
(lp425
sg21
I00
sg22
Nsg23
I00
sg24
S'L'
sbsg25
(irule
FeatureMatrix
p426
(dp427
g28
(lp428
(I00
S'voice'
p429
tp430
asg22
Nsbsg31
(irule
Guard
p431
(dp432
g18
I00
sg19
(lp433
(irule
ConstantPhoneme
p434
(dp435
S'p'
Vs^y
p436
sbasg21
I00
sg22
Nsg23
I00
sg24
S'R'
sbsg35
(irule
FeatureMatrix
p437
(dp438
g28
(lp439
(I01
S'sibilant'
p440
tp441
asg22
Nsbsg22
Nsba(irule
Rule
p442
(dp443
g15
(irule
Guard
p444
(dp445
g18
I00
sg19
(lp446
(irule
FeatureMatrix
p447
(dp448
g28
(lp449
sg22
Nsbasg21
I00
sg22
Nsg23
I00
sg24
S'L'
sbsg25
(irule
FeatureMatrix
p450
(dp451
g28
(lp452
(I00
g429
tp453
asg22
Nsbsg31
(irule
Guard
p454
(dp455
g18
I00
sg19
(lp456
(irule
ConstantPhoneme
p457
(dp458
S'p'
g436
sbasg21
I00
sg22
Nsg23
I00
sg24
S'R'
sbsg35
(irule
FeatureMatrix
p459
(dp460
g28
(lp461
sg22
Nsbsg22
Nsba(irule
Rule
p462
(dp463
g15
(irule
Guard
p464
(dp465
g18
I00
sg19
(lp466
sg21
I00
sg22
Nsg23
I00
sg24
S'L'
sbsg25
(irule
FeatureMatrix
p467
(dp468
g28
(lp469
(I00
g429
tp470
asg22
Nsbsg31
(irule
Guard
p471
(dp472
g18
I00
sg19
(lp473
(irule
FeatureMatrix
p474
(dp475
g28
(lp476
(I01
g440
tp477
asg22
Nsbasg21
I00
sg22
Nsg23
I00
sg24
S'R'
sbsg35
(irule
FeatureMatrix
p478
(dp479
g28
(lp480
(I01
S'coronal'
p481
tp482
asg22
Nsbsg22
Nsba(irule
Rule
p483
(dp484
g15
(irule
Guard
p485
(dp486
g18
I00
sg19
(lp487
sg21
I00
sg22
Nsg23
I00
sg24
S'L'
sbsg25
(irule
FeatureMatrix
p488
(dp489
g28
(lp490
(I00
g429
tp491
asg22
Nsbsg31
(irule
Guard
p492
(dp493
g18
I00
sg19
(lp494
(irule
FeatureMatrix
p495
(dp496
g28
(lp497
(I01
g440
tp498
asg22
Nsbasg21
I00
sg22
Nsg23
I00
sg24
S'R'
sbsg35
(irule
FeatureMatrix
p499
(dp500
g28
(lp501
(I00
S'sonorant'
p502
tp503
asg22
Nsbsg22
Nsba(irule
Rule
p504
(dp505
g15
(irule
Guard
p506
(dp507
g18
I00
sg19
(lp508
sg21
I00
sg22
Nsg23
I00
sg24
S'L'
sbsg25
(irule
FeatureMatrix
p509
(dp510
g28
(lp511
(I00
g429
tp512
asg22
Nsbsg31
(irule
Guard
p513
(dp514
g18
I00
sg19
(lp515
(irule
FeatureMatrix
p516
(dp517
g28
(lp518
(I01
g440
tp519
asg22
Nsbasg21
I00
sg22
Nsg23
I00
sg24
S'R'
sbsg35
(irule
FeatureMatrix
p520
(dp521
g28
(lp522
(I00
S'vowel'
p523
tp524
asg22
Nsbsg22
Nsba(irule
Rule
p525
(dp526
g15
(irule
Guard
p527
(dp528
g18
I00
sg19
(lp529
sg21
I00
sg22
Nsg23
I00
sg24
S'L'
sbsg25
(irule
FeatureMatrix
p530
(dp531
g28
(lp532
(I00
g429
tp533
asg22
Nsbsg31
(irule
Guard
p534
(dp535
g18
I00
sg19
(lp536
(irule
FeatureMatrix
p537
(dp538
g28
(lp539
(I01
S'palletized'
p540
tp541
asg22
Nsbasg21
I00
sg22
Nsg23
I00
sg24
S'R'
sbsg35
(irule
FeatureMatrix
p542
(dp543
g28
(lp544
(I00
S'high'
p545
tp546
asg22
Nsbsg22
Nsba(irule
Rule
p547
(dp548
g15
(irule
Guard
p549
(dp550
g18
I00
sg19
(lp551
sg21
I00
sg22
Nsg23
I00
sg24
S'L'
sbsg25
(irule
FeatureMatrix
p552
(dp553
g28
(lp554
(I00
g429
tp555
asg22
Nsbsg31
(irule
Guard
p556
(dp557
g18
I00
sg19
(lp558
(irule
FeatureMatrix
p559
(dp560
g28
(lp561
(I01
g440
tp562
asg22
Nsbasg21
I00
sg22
Nsg23
I00
sg24
S'R'
sbsg35
(irule
FeatureMatrix
p563
(dp564
g28
(lp565
(I00
S'tense'
p566
tp567
asg22
Nsbsg22
Nsba(irule
Rule
p568
(dp569
g15
(irule
Guard
p570
(dp571
g18
I00
sg19
(lp572
sg21
I00
sg22
Nsg23
I00
sg24
S'L'
sbsg25
(irule
FeatureMatrix
p573
(dp574
g28
(lp575
(I00
g429
tp576
asg22
Nsbsg31
(irule
Guard
p577
(dp578
g18
I00
sg19
(lp579
(irule
FeatureMatrix
p580
(dp581
g28
(lp582
(I01
g540
tp583
asg22
Nsbasg21
I00
sg22
Nsg23
I00
sg24
S'R'
sbsg35
(irule
FeatureMatrix
p584
(dp585
g28
(lp586
(I00
S'back'
p587
tp588
asg22
Nsbsg22
Nsba(irule
Rule
p589
(dp590
g15
(irule
Guard
p591
(dp592
g18
I00
sg19
(lp593
sg21
I00
sg22
Nsg23
I00
sg24
S'L'
sbsg25
(irule
FeatureMatrix
p594
(dp595
g28
(lp596
(I00
g429
tp597
asg22
Nsbsg31
(irule
Guard
p598
(dp599
g18
I00
sg19
(lp600
(irule
FeatureMatrix
p601
(dp602
g28
(lp603
(I01
g540
tp604
asg22
Nsbasg21
I00
sg22
Nsg23
I00
sg24
S'R'
sbsg35
(irule
FeatureMatrix
p605
(dp606
g28
(lp607
(I00
g523
tp608
asg22
Nsbsg22
Nsba(irule
Rule
p609
(dp610
g15
(irule
Guard
p611
(dp612
g18
I00
sg19
(lp613
sg21
I00
sg22
Nsg23
I00
sg24
S'L'
sbsg25
(irule
FeatureMatrix
p614
(dp615
g28
(lp616
(I00
g429
tp617
asg22
Nsbsg31
(irule
Guard
p618
(dp619
g18
I00
sg19
(lp620
(irule
FeatureMatrix
p621
(dp622
g28
(lp623
(I01
g540
tp624
asg22
Nsbasg21
I00
sg22
Nsg23
I00
sg24
S'R'
sbsg35
(irule
FeatureMatrix
p625
(dp626
g28
(lp627
(I01
S'anterior'
p628
tp629
asg22
Nsbsg22
Nsba(irule
Rule
p630
(dp631
g15
(irule
Guard
p632
(dp633
g18
I00
sg19
(lp634
sg21
I00
sg22
Nsg23
I00
sg24
S'L'
sbsg25
(irule
FeatureMatrix
p635
(dp636
g28
(lp637
(I00
g429
tp638
asg22
Nsbsg31
(irule
Guard
p639
(dp640
g18
I00
sg19
(lp641
(irule
ConstantPhoneme
p642
(dp643
S'p'
g436
sbasg21
I00
sg22
Nsg23
I00
sg24
S'R'
sbsg35
(irule
FeatureMatrix
p644
(dp645
g28
(lp646
(I01
g481
tp647
asg22
Nsbsg22
Nsba(irule
Rule
p648
(dp649
g15
(irule
Guard
p650
(dp651
g18
I00
sg19
(lp652
sg21
I00
sg22
Nsg23
I00
sg24
S'L'
sbsg25
(irule
FeatureMatrix
p653
(dp654
g28
(lp655
(I00
g429
tp656
asg22
Nsbsg31
(irule
Guard
p657
(dp658
g18
I00
sg19
(lp659
(irule
FeatureMatrix
p660
(dp661
g28
(lp662
(I01
g440
tp663
asg22
Nsbasg21
I00
sg22
Nsg23
I00
sg24
S'R'
sbsg35
(irule
FeatureMatrix
p664
(dp665
g28
(lp666
(I01
g440
tp667
asg22
Nsbsg22
Nsba(irule
Rule
p668
(dp669
g15
(irule
Guard
p670
(dp671
g18
I00
sg19
(lp672
sg21
I00
sg22
Nsg23
I00
sg24
S'L'
sbsg25
(irule
FeatureMatrix
p673
(dp674
g28
(lp675
(I00
g429
tp676
asg22
Nsbsg31
(irule
Guard
p677
(dp678
g18
I00
sg19
(lp679
(irule
FeatureMatrix
p680
(dp681
g28
(lp682
(I01
g540
tp683
asg22
Nsbasg21
I00
sg22
Nsg23
I00
sg24
S'R'
sbsg35
(irule
FeatureMatrix
p684
(dp685
g28
(lp686
(I01
g440
tp687
asg22
Nsbsg22
Nsba(irule
Rule
p688
(dp689
g15
(irule
Guard
p690
(dp691
g18
I00
sg19
(lp692
sg21
I00
sg22
Nsg23
I00
sg24
S'L'
sbsg25
(irule
FeatureMatrix
p693
(dp694
g28
(lp695
(I00
g429
tp696
asg22
Nsbsg31
(irule
Guard
p697
(dp698
g18
I00
sg19
(lp699
(irule
FeatureMatrix
p700
(dp701
g28
(lp702
(I01
g540
tp703
asg22
Nsbasg21
I00
sg22
Nsg23
I00
sg24
S'R'
sbsg35
(irule
FeatureMatrix
p704
(dp705
g28
(lp706
(I01
g481
tp707
asg22
Nsbsg22
Nsba(irule
Rule
p708
(dp709
g15
(irule
Guard
p710
(dp711
g18
I00
sg19
(lp712
sg21
I00
sg22
Nsg23
I00
sg24
S'L'
sbsg25
(irule
FeatureMatrix
p713
(dp714
g28
(lp715
(I00
g429
tp716
asg22
Nsbsg31
(irule
Guard
p717
(dp718
g18
I00
sg19
(lp719
(irule
ConstantPhoneme
p720
(dp721
S'p'
g436
sbasg21
I00
sg22
Nsg23
I00
sg24
S'R'
sbsg35
(irule
FeatureMatrix
p722
(dp723
g28
(lp724
(I01
g628
tp725
asg22
Nsbsg22
Nsba(irule
Rule
p726
(dp727
g15
(irule
Guard
p728
(dp729
g18
I00
sg19
(lp730
sg21
I00
sg22
Nsg23
I00
sg24
S'L'
sbsg25
(irule
FeatureMatrix
p731
(dp732
g28
(lp733
(I00
g429
tp734
asg22
Nsbsg31
(irule
Guard
p735
(dp736
g18
I00
sg19
(lp737
(irule
FeatureMatrix
p738
(dp739
g28
(lp740
(I01
g440
tp741
asg22
Nsbasg21
I00
sg22
Nsg23
I00
sg24
S'R'
sbsg35
(irule
FeatureMatrix
p742
(dp743
g28
(lp744
(I01
g628
tp745
asg22
Nsbsg22
Nsba(irule
Rule
p746
(dp747
g15
(irule
Guard
p748
(dp749
g18
I00
sg19
(lp750
sg21
I00
sg22
Nsg23
I00
sg24
S'L'
sbsg25
(irule
ConstantPhoneme
p751
(dp752
S'p'
Vs
sbsg31
(irule
Guard
p753
(dp754
g18
I00
sg19
(lp755
(irule
FeatureMatrix
p756
(dp757
g28
(lp758
(I01
g440
tp759
asg22
Nsbasg21
I00
sg22
Nsg23
I00
sg24
S'R'
sbsg35
(irule
FeatureMatrix
p760
(dp761
g28
(lp762
(I01
g440
tp763
asg22
Nsbsg22
Nsba(irule
Rule
p764
(dp765
g15
(irule
Guard
p766
(dp767
g18
I00
sg19
(lp768
sg21
I00
sg22
Nsg23
I00
sg24
S'L'
sbsg25
(irule
ConstantPhoneme
p769
(dp770
S'p'
Vs
sbsg31
(irule
Guard
p771
(dp772
g18
I00
sg19
(lp773
(irule
FeatureMatrix
p774
(dp775
g28
(lp776
(I01
g540
tp777
asg22
Nsbasg21
I00
sg22
Nsg23
I00
sg24
S'R'
sbsg35
(irule
FeatureMatrix
p778
(dp779
g28
(lp780
(I01
g440
tp781
asg22
Nsbsg22
Nsba(irule
Rule
p782
(dp783
g15
(irule
Guard
p784
(dp785
g18
I00
sg19
(lp786
sg21
I00
sg22
Nsg23
I00
sg24
S'L'
sbsg25
(irule
FeatureMatrix
p787
(dp788
g28
(lp789
(I00
g429
tp790
asg22
Nsbsg31
(irule
Guard
p791
(dp792
g18
I00
sg19
(lp793
(irule
FeatureMatrix
p794
(dp795
g28
(lp796
(I01
g540
tp797
asg22
Nsbasg21
I00
sg22
Nsg23
I00
sg24
S'R'
sbsg35
(irule
FeatureMatrix
p798
(dp799
g28
(lp800
(I00
S'rounded'
p801
tp802
asg22
Nsbsg22
Nsba(irule
Rule
p803
(dp804
g15
(irule
Guard
p805
(dp806
g18
I00
sg19
(lp807
sg21
I00
sg22
Nsg23
I00
sg24
S'L'
sbsg25
(irule
FeatureMatrix
p808
(dp809
g28
(lp810
(I00
g429
tp811
asg22
Nsbsg31
(irule
Guard
p812
(dp813
g18
I00
sg19
(lp814
(irule
ConstantPhoneme
p815
(dp816
S'p'
g436
sbasg21
I00
sg22
Nsg23
I00
sg24
S'R'
sbsg35
(irule
FeatureMatrix
p817
(dp818
g28
(lp819
(I00
g523
tp820
asg22
Nsbsg22
Nsba(irule
Rule
p821
(dp822
g15
(irule
Guard
p823
(dp824
g18
I00
sg19
(lp825
sg21
I00
sg22
Nsg23
I00
sg24
S'L'
sbsg25
(irule
FeatureMatrix
p826
(dp827
g28
(lp828
(I00
g429
tp829
asg22
Nsbsg31
(irule
Guard
p830
(dp831
g18
I00
sg19
(lp832
(irule
FeatureMatrix
p833
(dp834
g28
(lp835
(I01
g540
tp836
asg22
Nsbasg21
I00
sg22
Nsg23
I00
sg24
S'R'
sbsg35
(irule
FeatureMatrix
p837
(dp838
g28
(lp839
(I00
g566
tp840
asg22
Nsbsg22
Nsba(irule
Rule
p841
(dp842
g15
(irule
Guard
p843
(dp844
g18
I00
sg19
(lp845
sg21
I00
sg22
Nsg23
I00
sg24
S'L'
sbsg25
(irule
FeatureMatrix
p846
(dp847
g28
(lp848
(I00
g429
tp849
asg22
Nsbsg31
(irule
Guard
p850
(dp851
g18
I00
sg19
(lp852
(irule
FeatureMatrix
p853
(dp854
g28
(lp855
(I01
g540
tp856
asg22
Nsbasg21
I00
sg22
Nsg23
I00
sg24
S'R'
sbsg35
(irule
FeatureMatrix
p857
(dp858
g28
(lp859
(I00
g502
tp860
asg22
Nsbsg22
Nsba(irule
Rule
p861
(dp862
g15
(irule
Guard
p863
(dp864
g18
I00
sg19
(lp865
sg21
I00
sg22
Nsg23
I00
sg24
S'L'
sbsg25
(irule
FeatureMatrix
p866
(dp867
g28
(lp868
(I00
g429
tp869
asg22
Nsbsg31
(irule
Guard
p870
(dp871
g18
I00
sg19
(lp872
(irule
FeatureMatrix
p873
(dp874
g28
(lp875
(I01
g440
tp876
asg22
Nsbasg21
I00
sg22
Nsg23
I00
sg24
S'R'
sbsg35
(irule
ConstantPhoneme
p877
(dp878
S'p'
Vz
sbsg22
Nsba(irule
Rule
p879
(dp880
g15
(irule
Guard
p881
(dp882
g18
I00
sg19
(lp883
sg21
I00
sg22
Nsg23
I00
sg24
S'L'
sbsg25
(irule
FeatureMatrix
p884
(dp885
g28
(lp886
(I00
g429
tp887
asg22
Nsbsg31
(irule
Guard
p888
(dp889
g18
I00
sg19
(lp890
(irule
ConstantPhoneme
p891
(dp892
S'p'
g436
sbasg21
I00
sg22
Nsg23
I00
sg24
S'R'
sbsg35
(irule
FeatureMatrix
p893
(dp894
g28
(lp895
(I00
g566
tp896
asg22
Nsbsg22
Nsba(irule
Rule
p897
(dp898
g15
(irule
Guard
p899
(dp900
g18
I00
sg19
(lp901
sg21
I00
sg22
Nsg23
I00
sg24
S'L'
sbsg25
(irule
FeatureMatrix
p902
(dp903
g28
(lp904
(I00
g429
tp905
asg22
Nsbsg31
(irule
Guard
p906
(dp907
g18
I00
sg19
(lp908
(irule
FeatureMatrix
p909
(dp910
g28
(lp911
(I01
g540
tp912
asg22
Nsbasg21
I00
sg22
Nsg23
I00
sg24
S'R'
sbsg35
(irule
ConstantPhoneme
p913
(dp914
S'p'
Vz
sbsg22
Nsba(irule
Rule
p915
(dp916
g15
(irule
Guard
p917
(dp918
g18
I00
sg19
(lp919
sg21
I00
sg22
Nsg23
I00
sg24
S'L'
sbsg25
(irule
ConstantPhoneme
p920
(dp921
S'p'
Vs
sbsg31
(irule
Guard
p922
(dp923
g18
I00
sg19
(lp924
(irule
FeatureMatrix
p925
(dp926
g28
(lp927
(I01
g440
tp928
asg22
Nsbasg21
I00
sg22
Nsg23
I00
sg24
S'R'
sbsg35
(irule
ConstantPhoneme
p929
(dp930
S'p'
Vz
sbsg22
Nsba(irule
Rule
p931
(dp932
g15
(irule
Guard
p933
(dp934
g18
I00
sg19
(lp935
sg21
I00
sg22
Nsg23
I00
sg24
S'L'
sbsg25
(irule
ConstantPhoneme
p936
(dp937
S'p'
Vs
sbsg31
(irule
Guard
p938
(dp939
g18
I00
sg19
(lp940
(irule
FeatureMatrix
p941
(dp942
g28
(lp943
(I01
g540
tp944
asg22
Nsbasg21
I00
sg22
Nsg23
I00
sg24
S'R'
sbsg35
(irule
ConstantPhoneme
p945
(dp946
S'p'
Vz
sbsg22
Nsba(irule
Rule
p947
(dp948
g15
(irule
Guard
p949
(dp950
g18
I00
sg19
(lp951
sg21
I00
sg22
Nsg23
I00
sg24
S'L'
sbsg25
(irule
FeatureMatrix
p952
(dp953
g28
(lp954
(I00
g429
tp955
asg22
Nsbsg31
(irule
Guard
p956
(dp957
g18
I00
sg19
(lp958
(irule
ConstantPhoneme
p959
(dp960
S'p'
g436
sbasg21
I00
sg22
Nsg23
I00
sg24
S'R'
sbsg35
(irule
FeatureMatrix
p961
(dp962
g28
(lp963
(I00
g587
tp964
asg22
Nsbsg22
Nsba(irule
Rule
p965
(dp966
g15
(irule
Guard
p967
(dp968
g18
I00
sg19
(lp969
sg21
I00
sg22
Nsg23
I00
sg24
S'L'
sbsg25
(irule
FeatureMatrix
p970
(dp971
g28
(lp972
(I00
g429
tp973
asg22
Nsbsg31
(irule
Guard
p974
(dp975
g18
I00
sg19
(lp976
(irule
ConstantPhoneme
p977
(dp978
S'p'
g436
sbasg21
I00
sg22
Nsg23
I00
sg24
S'R'
sbsg35
(irule
ConstantPhoneme
p979
(dp980
S'p'
Vz
sbsg22
Nsba(irule
Rule
p981
(dp982
g15
(irule
Guard
p983
(dp984
g18
I00
sg19
(lp985
sg21
I00
sg22
Nsg23
I00
sg24
S'L'
sbsg25
(irule
FeatureMatrix
p986
(dp987
g28
(lp988
(I00
g429
tp989
asg22
Nsbsg31
(irule
Guard
p990
(dp991
g18
I00
sg19
(lp992
(irule
ConstantPhoneme
p993
(dp994
S'p'
g436
sbasg21
I00
sg22
Nsg23
I00
sg24
S'R'
sbsg35
(irule
FeatureMatrix
p995
(dp996
g28
(lp997
(I00
g801
tp998
asg22
Nsbsg22
Nsba(irule
Rule
p999
(dp1000
g15
(irule
Guard
p1001
(dp1002
g18
I00
sg19
(lp1003
sg21
I00
sg22
Nsg23
I00
sg24
S'L'
sbsg25
(irule
FeatureMatrix
p1004
(dp1005
g28
(lp1006
(I00
g429
tp1007
asg22
Nsbsg31
(irule
Guard
p1008
(dp1009
g18
I00
sg19
(lp1010
(irule
ConstantPhoneme
p1011
(dp1012
S'p'
g436
sbasg21
I00
sg22
Nsg23
I00
sg24
S'R'
sbsg35
(irule
FeatureMatrix
p1013
(dp1014
g28
(lp1015
(I00
g502
tp1016
asg22
Nsbsg22
Nsba(irule
Rule
p1017
(dp1018
g15
(irule
Guard
p1019
(dp1020
g18
I00
sg19
(lp1021
sg21
I00
sg22
Nsg23
I00
sg24
S'L'
sbsg25
(irule
FeatureMatrix
p1022
(dp1023
g28
(lp1024
(I00
g429
tp1025
asg22
Nsbsg31
(irule
Guard
p1026
(dp1027
g18
I00
sg19
(lp1028
(irule
ConstantPhoneme
p1029
(dp1030
S'p'
g436
sbasg21
I00
sg22
Nsg23
I00
sg24
S'R'
sbsg35
(irule
FeatureMatrix
p1031
(dp1032
g28
(lp1033
(I00
g545
tp1034
asg22
Nsbsg22
Nsba(irule
Rule
p1035
(dp1036
g15
(irule
Guard
p1037
(dp1038
g18
I00
sg19
(lp1039
sg21
I00
sg22
Nsg23
I00
sg24
S'L'
sbsg25
(irule
ConstantPhoneme
p1040
(dp1041
S'p'
Vs
sbsg31
(irule
Guard
p1042
(dp1043
g18
I00
sg19
(lp1044
(irule
ConstantPhoneme
p1045
(dp1046
S'p'
g436
sbasg21
I00
sg22
Nsg23
I00
sg24
S'R'
sbsg35
(irule
ConstantPhoneme
p1047
(dp1048
S'p'
Vz
sbsg22
Nsba(irule
Rule
p1049
(dp1050
g15
(irule
Guard
p1051
(dp1052
g18
I00
sg19
(lp1053
sg21
I00
sg22
Nsg23
I00
sg24
S'L'
sbsg25
(irule
ConstantPhoneme
p1054
(dp1055
S'p'
Vs
sbsg31
(irule
Guard
p1056
(dp1057
g18
I00
sg19
(lp1058
(irule
ConstantPhoneme
p1059
(dp1060
S'p'
g436
sbasg21
I00
sg22
Nsg23
I00
sg24
S'R'
sbsg35
(irule
FeatureMatrix
p1061
(dp1062
g28
(lp1063
(I01
g440
tp1064
asg22
Nsbsg22
Nsba(irule
Rule
p1065
(dp1066
g15
(irule
Guard
p1067
(dp1068
g18
I00
sg19
(lp1069
sg21
I00
sg22
Nsg23
I00
sg24
S'L'
sbsg25
(irule
FeatureMatrix
p1070
(dp1071
g28
(lp1072
(I00
g429
tp1073
asg22
Nsbsg31
(irule
Guard
p1074
(dp1075
g18
I00
sg19
(lp1076
(irule
FeatureMatrix
p1077
(dp1078
g28
(lp1079
(I01
g440
tp1080
asg22
Nsbasg21
I00
sg22
Nsg23
I00
sg24
S'R'
sbsg35
(irule
FeatureMatrix
p1081
(dp1082
g28
(lp1083
(I01
S'continuant'
p1084
tp1085
a(I01
g481
tp1086
asg22
Nsbsg22
Nsba(irule
Rule
p1087
(dp1088
g15
(irule
Guard
p1089
(dp1090
g18
I00
sg19
(lp1091
(irule
FeatureMatrix
p1092
(dp1093
g28
(lp1094
sg22
Nsbasg21
I00
sg22
Nsg23
I00
sg24
S'L'
sbsg25
(irule
FeatureMatrix
p1095
(dp1096
g28
(lp1097
(I00
S'lateral'
p1098
tp1099
a(I00
g429
tp1100
asg22
Nsbsg31
(irule
Guard
p1101
(dp1102
g18
I00
sg19
(lp1103
(irule
FeatureMatrix
p1104
(dp1105
g28
(lp1106
(I01
g540
tp1107
asg22
Nsbasg21
I00
sg22
Nsg23
I00
sg24
S'R'
sbsg35
(irule
FeatureMatrix
p1108
(dp1109
g28
(lp1110
sg22
Nsbsg22
Nsba(irule
Rule
p1111
(dp1112
g15
(irule
Guard
p1113
(dp1114
g18
I00
sg19
(lp1115
sg21
I00
sg22
Nsg23
I00
sg24
S'L'
sbsg25
(irule
FeatureMatrix
p1116
(dp1117
g28
(lp1118
(I00
g502
tp1119
a(I00
g429
tp1120
asg22
Nsbsg31
(irule
Guard
p1121
(dp1122
g18
I00
sg19
(lp1123
(irule
FeatureMatrix
p1124
(dp1125
g28
(lp1126
(I01
g440
tp1127
asg22
Nsbasg21
I00
sg22
Nsg23
I00
sg24
S'R'
sbsg35
(irule
FeatureMatrix
p1128
(dp1129
g28
(lp1130
(I01
g481
tp1131
asg22
Nsbsg22
Nsba(irule
Rule
p1132
(dp1133
g15
(irule
Guard
p1134
(dp1135
g18
I00
sg19
(lp1136
(irule
FeatureMatrix
p1137
(dp1138
g28
(lp1139
sg22
Nsbasg21
I00
sg22
Nsg23
I00
sg24
S'L'
sbsg25
(irule
FeatureMatrix
p1140
(dp1141
g28
(lp1142
(I00
g801
tp1143
a(I00
g429
tp1144
asg22
Nsbsg31
(irule
Guard
p1145
(dp1146
g18
I00
sg19
(lp1147
(irule
FeatureMatrix
p1148
(dp1149
g28
(lp1150
(I01
g540
tp1151
asg22
Nsbasg21
I00
sg22
Nsg23
I00
sg24
S'R'
sbsg35
(irule
FeatureMatrix
p1152
(dp1153
g28
(lp1154
sg22
Nsbsg22
Nsba(irule
Rule
p1155
(dp1156
g15
(irule
Guard
p1157
(dp1158
g18
I00
sg19
(lp1159
sg21
I00
sg22
Nsg23
I00
sg24
S'L'
sbsg25
(irule
FeatureMatrix
p1160
(dp1161
g28
(lp1162
(I00
g429
tp1163
asg22
Nsbsg31
(irule
Guard
p1164
(dp1165
g18
I00
sg19
(lp1166
(irule
FeatureMatrix
p1167
(dp1168
g28
(lp1169
(I01
g440
tp1170
asg22
Nsbasg21
I00
sg22
Nsg23
I00
sg24
S'R'
sbsg35
(irule
FeatureMatrix
p1171
(dp1172
g28
(lp1173
(I01
g628
tp1174
a(I01
g481
tp1175
asg22
Nsbsg22
Nsba(irule
Rule
p1176
(dp1177
g15
(irule
Guard
p1178
(dp1179
g18
I00
sg19
(lp1180
sg21
I00
sg22
Nsg23
I00
sg24
S'L'
sbsg25
(irule
FeatureMatrix
p1181
(dp1182
g28
(lp1183
(I01
g481
tp1184
a(I00
g429
tp1185
asg22
Nsbsg31
(irule
Guard
p1186
(dp1187
g18
I00
sg19
(lp1188
(irule
FeatureMatrix
p1189
(dp1190
g28
(lp1191
(I01
g540
tp1192
asg22
Nsbasg21
I00
sg22
Nsg23
I00
sg24
S'R'
sbsg35
(irule
FeatureMatrix
p1193
(dp1194
g28
(lp1195
(I01
g628
tp1196
asg22
Nsbsg22
Nsba(irule
Rule
p1197
(dp1198
g15
(irule
Guard
p1199
(dp1200
g18
I00
sg19
(lp1201
(irule
FeatureMatrix
p1202
(dp1203
g28
(lp1204
sg22
Nsbasg21
I00
sg22
Nsg23
I00
sg24
S'L'
sbsg25
(irule
FeatureMatrix
p1205
(dp1206
g28
(lp1207
(I00
g429
tp1208
asg22
Nsbsg31
(irule
Guard
p1209
(dp1210
g18
I00
sg19
(lp1211
(irule
FeatureMatrix
p1212
(dp1213
g28
(lp1214
(I01
g540
tp1215
asg22
Nsbasg21
I00
sg22
Nsg23
I00
sg24
S'R'
sbsg35
(irule
FeatureMatrix
p1216
(dp1217
g28
(lp1218
(I01
g1084
tp1219
asg22
Nsbsg22
Nsba(irule
Rule
p1220
(dp1221
g15
(irule
Guard
p1222
(dp1223
g18
I00
sg19
(lp1224
sg21
I00
sg22
Nsg23
I00
sg24
S'L'
sbsg25
(irule
FeatureMatrix
p1225
(dp1226
g28
(lp1227
(I00
g429
tp1228
asg22
Nsbsg31
(irule
Guard
p1229
(dp1230
g18
I00
sg19
(lp1231
(irule
FeatureMatrix
p1232
(dp1233
g28
(lp1234
(I01
g481
tp1235
a(I00
g429
tp1236
asg22
Nsbasg21
I00
sg22
Nsg23
I00
sg24
S'R'
sbsg35
(irule
FeatureMatrix
p1237
(dp1238
g28
(lp1239
(I01
g628
tp1240
asg22
Nsbsg22
Nsba(irule
Rule
p1241
(dp1242
g15
(irule
Guard
p1243
(dp1244
g18
I00
sg19
(lp1245
sg21
I00
sg22
Nsg23
I00
sg24
S'L'
sbsg25
(irule
FeatureMatrix
p1246
(dp1247
g28
(lp1248
(I00
g429
tp1249
asg22
Nsbsg31
(irule
Guard
p1250
(dp1251
g18
I00
sg19
(lp1252
(irule
FeatureMatrix
p1253
(dp1254
g28
(lp1255
(I01
g440
tp1256
asg22
Nsbasg21
I00
sg22
Nsg23
I00
sg24
S'R'
sbsg35
(irule
FeatureMatrix
p1257
(dp1258
g28
(lp1259
(I01
g628
tp1260
a(I00
g801
tp1261
asg22
Nsbsg22
Nsba(irule
Rule
p1262
(dp1263
g15
(irule
Guard
p1264
(dp1265
g18
I00
sg19
(lp1266
sg21
I00
sg22
Nsg23
I00
sg24
S'L'
sbsg25
(irule
FeatureMatrix
p1267
(dp1268
g28
(lp1269
(I00
g429
tp1270
asg22
Nsbsg31
(irule
Guard
p1271
(dp1272
g18
I00
sg19
(lp1273
(irule
FeatureMatrix
p1274
(dp1275
g28
(lp1276
(I01
g1084
tp1277
a(I01
g440
tp1278
asg22
Nsbasg21
I00
sg22
Nsg23
I00
sg24
S'R'
sbsg35
(irule
FeatureMatrix
p1279
(dp1280
g28
(lp1281
(I01
g481
tp1282
asg22
Nsbsg22
Nsba(irule
Rule
p1283
(dp1284
g15
(irule
Guard
p1285
(dp1286
g18
I00
sg19
(lp1287
sg21
I00
sg22
Nsg23
I00
sg24
S'L'
sbsg25
(irule
FeatureMatrix
p1288
(dp1289
g28
(lp1290
(I00
g429
tp1291
asg22
Nsbsg31
(irule
Guard
p1292
(dp1293
g18
I00
sg19
(lp1294
(irule
FeatureMatrix
p1295
(dp1296
g28
(lp1297
(I01
g540
tp1298
asg22
Nsbasg21
I00
sg22
Nsg23
I00
sg24
S'R'
sbsg35
(irule
FeatureMatrix
p1299
(dp1300
g28
(lp1301
(I01
g1084
tp1302
a(I01
g481
tp1303
asg22
Nsbsg22
Nsba(irule
Rule
p1304
(dp1305
g15
(irule
Guard
p1306
(dp1307
g18
I00
sg19
(lp1308
sg21
I00
sg22
Nsg23
I00
sg24
S'L'
sbsg25
(irule
FeatureMatrix
p1309
(dp1310
g28
(lp1311
(I00
g429
tp1312
asg22
Nsbsg31
(irule
Guard
p1313
(dp1314
g18
I00
sg19
(lp1315
(irule
FeatureMatrix
p1316
(dp1317
g28
(lp1318
(I01
g440
tp1319
asg22
Nsbasg21
I00
sg22
Nsg23
I00
sg24
S'R'
sbsg35
(irule
FeatureMatrix
p1320
(dp1321
g28
(lp1322
(I00
g801
tp1323
a(I01
g481
tp1324
asg22
Nsbsg22
Nsba(irule
Rule
p1325
(dp1326
g15
(irule
Guard
p1327
(dp1328
g18
I00
sg19
(lp1329
sg21
I00
sg22
Nsg23
I00
sg24
S'L'
sbsg25
(irule
FeatureMatrix
p1330
(dp1331
g28
(lp1332
(I00
g429
tp1333
asg22
Nsbsg31
(irule
Guard
p1334
(dp1335
g18
I00
sg19
(lp1336
(irule
FeatureMatrix
p1337
(dp1338
g28
(lp1339
(I01
g1084
tp1340
a(I00
g429
tp1341
asg22
Nsbasg21
I00
sg22
Nsg23
I00
sg24
S'R'
sbsg35
(irule
FeatureMatrix
p1342
(dp1343
g28
(lp1344
(I01
g481
tp1345
asg22
Nsbsg22
Nsba(irule
Rule
p1346
(dp1347
g15
(irule
Guard
p1348
(dp1349
g18
I00
sg19
(lp1350
sg21
I00
sg22
Nsg23
I00
sg24
S'L'
sbsg25
(irule
FeatureMatrix
p1351
(dp1352
g28
(lp1353
(I00
g429
tp1354
asg22
Nsbsg31
(irule
Guard
p1355
(dp1356
g18
I00
sg19
(lp1357
(irule
FeatureMatrix
p1358
(dp1359
g28
(lp1360
(I01
g628
tp1361
a(I01
g1084
tp1362
asg22
Nsbasg21
I00
sg22
Nsg23
I00
sg24
S'R'
sbsg35
(irule
FeatureMatrix
p1363
(dp1364
g28
(lp1365
(I01
g481
tp1366
asg22
Nsbsg22
Nsba(irule
Rule
p1367
(dp1368
g15
(irule
Guard
p1369
(dp1370
g18
I00
sg19
(lp1371
sg21
I00
sg22
Nsg23
I00
sg24
S'L'
sbsg25
(irule
FeatureMatrix
p1372
(dp1373
g28
(lp1374
(I00
g429
tp1375
asg22
Nsbsg31
(irule
Guard
p1376
(dp1377
g18
I00
sg19
(lp1378
(irule
FeatureMatrix
p1379
(dp1380
g28
(lp1381
(I01
g1084
tp1382
a(I00
g429
tp1383
asg22
Nsbasg21
I00
sg22
Nsg23
I00
sg24
S'R'
sbsg35
(irule
FeatureMatrix
p1384
(dp1385
g28
(lp1386
(I01
g440
tp1387
asg22
Nsbsg22
Nsba(irule
Rule
p1388
(dp1389
g15
(irule
Guard
p1390
(dp1391
g18
I00
sg19
(lp1392
(irule
FeatureMatrix
p1393
(dp1394
g28
(lp1395
sg22
Nsbasg21
I00
sg22
Nsg23
I00
sg24
S'L'
sbsg25
(irule
FeatureMatrix
p1396
(dp1397
g28
(lp1398
(I00
g429
tp1399
asg22
Nsbsg31
(irule
Guard
p1400
(dp1401
g18
I00
sg19
(lp1402
(irule
FeatureMatrix
p1403
(dp1404
g28
(lp1405
(I01
g540
tp1406
a(I00
g429
tp1407
asg22
Nsbasg21
I00
sg22
Nsg23
I00
sg24
S'R'
sbsg35
(irule
FeatureMatrix
p1408
(dp1409
g28
(lp1410
sg22
Nsbsg22
Nsba(irule
Rule
p1411
(dp1412
g15
(irule
Guard
p1413
(dp1414
g18
I00
sg19
(lp1415
sg21
I00
sg22
Nsg23
I00
sg24
S'L'
sbsg25
(irule
FeatureMatrix
p1416
(dp1417
g28
(lp1418
(I00
g429
tp1419
asg22
Nsbsg31
(irule
Guard
p1420
(dp1421
g18
I00
sg19
(lp1422
(irule
FeatureMatrix
p1423
(dp1424
g28
(lp1425
(I01
g440
tp1426
asg22
Nsbasg21
I00
sg22
Nsg23
I00
sg24
S'R'
sbsg35
(irule
FeatureMatrix
p1427
(dp1428
g28
(lp1429
(I01
g628
tp1430
a(I00
S'liquid'
p1431
tp1432
asg22
Nsbsg22
Nsba(irule
Rule
p1433
(dp1434
g15
(irule
Guard
p1435
(dp1436
g18
I00
sg19
(lp1437
sg21
I00
sg22
Nsg23
I00
sg24
S'L'
sbsg25
(irule
FeatureMatrix
p1438
(dp1439
g28
(lp1440
(I00
g429
tp1441
asg22
Nsbsg31
(irule
Guard
p1442
(dp1443
g18
I00
sg19
(lp1444
(irule
FeatureMatrix
p1445
(dp1446
g28
(lp1447
(I01
g628
tp1448
a(I00
g429
tp1449
asg22
Nsbasg21
I00
sg22
Nsg23
I00
sg24
S'R'
sbsg35
(irule
FeatureMatrix
p1450
(dp1451
g28
(lp1452
(I01
g481
tp1453
asg22
Nsbsg22
Nsba(irule
Rule
p1454
(dp1455
g15
(irule
Guard
p1456
(dp1457
g18
I00
sg19
(lp1458
(irule
FeatureMatrix
p1459
(dp1460
g28
(lp1461
sg22
Nsbasg21
I00
sg22
Nsg23
I00
sg24
S'L'
sbsg25
(irule
FeatureMatrix
p1462
(dp1463
g28
(lp1464
(I00
g523
tp1465
a(I00
g429
tp1466
asg22
Nsbsg31
(irule
Guard
p1467
(dp1468
g18
I00
sg19
(lp1469
(irule
FeatureMatrix
p1470
(dp1471
g28
(lp1472
(I01
g540
tp1473
asg22
Nsbasg21
I00
sg22
Nsg23
I00
sg24
S'R'
sbsg35
(irule
FeatureMatrix
p1474
(dp1475
g28
(lp1476
sg22
Nsbsg22
Nsba(irule
Rule
p1477
(dp1478
g15
(irule
Guard
p1479
(dp1480
g18
I00
sg19
(lp1481
sg21
I00
sg22
Nsg23
I00
sg24
S'L'
sbsg25
(irule
FeatureMatrix
p1482
(dp1483
g28
(lp1484
(I00
g429
tp1485
asg22
Nsbsg31
(irule
Guard
p1486
(dp1487
g18
I00
sg19
(lp1488
(irule
FeatureMatrix
p1489
(dp1490
g28
(lp1491
(I01
g440
tp1492
asg22
Nsbasg21
I00
sg22
Nsg23
I00
sg24
S'R'
sbsg35
(irule
FeatureMatrix
p1493
(dp1494
g28
(lp1495
(I01
g628
tp1496
a(I01
g1084
tp1497
asg22
Nsbsg22
Nsba(irule
Rule
p1498
(dp1499
g15
(irule
Guard
p1500
(dp1501
g18
I00
sg19
(lp1502
(irule
FeatureMatrix
p1503
(dp1504
g28
(lp1505
sg22
Nsbasg21
I00
sg22
Nsg23
I00
sg24
S'L'
sbsg25
(irule
FeatureMatrix
p1506
(dp1507
g28
(lp1508
(I00
S'highTone'
p1509
tp1510
a(I00
g429
tp1511
asg22
Nsbsg31
(irule
Guard
p1512
(dp1513
g18
I00
sg19
(lp1514
(irule
FeatureMatrix
p1515
(dp1516
g28
(lp1517
(I01
g540
tp1518
asg22
Nsbasg21
I00
sg22
Nsg23
I00
sg24
S'R'
sbsg35
(irule
FeatureMatrix
p1519
(dp1520
g28
(lp1521
sg22
Nsbsg22
Nsba(irule
Rule
p1522
(dp1523
g15
(irule
Guard
p1524
(dp1525
g18
I00
sg19
(lp1526
sg21
I00
sg22
Nsg23
I00
sg24
S'L'
sbsg25
(irule
FeatureMatrix
p1527
(dp1528
g28
(lp1529
(I00
g429
tp1530
asg22
Nsbsg31
(irule
Guard
p1531
(dp1532
g18
I00
sg19
(lp1533
(irule
FeatureMatrix
p1534
(dp1535
g28
(lp1536
(I01
g1084
tp1537
a(I00
g502
tp1538
asg22
Nsbasg21
I00
sg22
Nsg23
I00
sg24
S'R'
sbsg35
(irule
FeatureMatrix
p1539
(dp1540
g28
(lp1541
(I01
g481
tp1542
asg22
Nsbsg22
Nsba(irule
Rule
p1543
(dp1544
g15
(irule
Guard
p1545
(dp1546
g18
I00
sg19
(lp1547
(irule
FeatureMatrix
p1548
(dp1549
g28
(lp1550
sg22
Nsbasg21
I00
sg22
Nsg23
I00
sg24
S'L'
sbsg25
(irule
FeatureMatrix
p1551
(dp1552
g28
(lp1553
(I00
g429
tp1554
asg22
Nsbsg31
(irule
Guard
p1555
(dp1556
g18
I00
sg19
(lp1557
(irule
FeatureMatrix
p1558
(dp1559
g28
(lp1560
(I00
g1431
tp1561
a(I01
g540
tp1562
asg22
Nsbasg21
I00
sg22
Nsg23
I00
sg24
S'R'
sbsg35
(irule
FeatureMatrix
p1563
(dp1564
g28
(lp1565
sg22
Nsbsg22
Nsba(irule
Rule
p1566
(dp1567
g15
(irule
Guard
p1568
(dp1569
g18
I00
sg19
(lp1570
sg21
I00
sg22
Nsg23
I00
sg24
S'L'
sbsg25
(irule
FeatureMatrix
p1571
(dp1572
g28
(lp1573
(I00
g429
tp1574
asg22
Nsbsg31
(irule
Guard
p1575
(dp1576
g18
I00
sg19
(lp1577
(irule
FeatureMatrix
p1578
(dp1579
g28
(lp1580
(I01
g540
tp1581
asg22
Nsbasg21
I00
sg22
Nsg23
I00
sg24
S'R'
sbsg35
(irule
FeatureMatrix
p1582
(dp1583
g28
(lp1584
(I01
g628
tp1585
a(I01
g481
tp1586
asg22
Nsbsg22
Nsba(irule
Rule
p1587
(dp1588
g15
(irule
Guard
p1589
(dp1590
g18
I00
sg19
(lp1591
sg21
I00
sg22
Nsg23
I00
sg24
S'L'
sbsg25
(irule
FeatureMatrix
p1592
(dp1593
g28
(lp1594
(I00
g429
tp1595
asg22
Nsbsg31
(irule
Guard
p1596
(dp1597
g18
I00
sg19
(lp1598
(irule
ConstantPhoneme
p1599
(dp1600
S'p'
g436
sbasg21
I00
sg22
Nsg23
I00
sg24
S'R'
sbsg35
(irule
FeatureMatrix
p1601
(dp1602
g28
(lp1603
(I01
g628
tp1604
a(I01
g481
tp1605
asg22
Nsbsg22
Nsba(irule
Rule
p1606
(dp1607
g15
(irule
Guard
p1608
(dp1609
g18
I00
sg19
(lp1610
sg21
I00
sg22
Nsg23
I00
sg24
S'L'
sbsg25
(irule
FeatureMatrix
p1611
(dp1612
g28
(lp1613
(I00
g429
tp1614
asg22
Nsbsg31
(irule
Guard
p1615
(dp1616
g18
I00
sg19
(lp1617
(irule
FeatureMatrix
p1618
(dp1619
g28
(lp1620
(I01
g440
tp1621
asg22
Nsbasg21
I00
sg22
Nsg23
I00
sg24
S'R'
sbsg35
(irule
FeatureMatrix
p1622
(dp1623
g28
(lp1624
(I01
g628
tp1625
a(I01
g429
tp1626
asg22
Nsbsg22
Nsba(irule
Rule
p1627
(dp1628
g15
(irule
Guard
p1629
(dp1630
g18
I00
sg19
(lp1631
sg21
I00
sg22
Nsg23
I00
sg24
S'L'
sbsg25
(irule
FeatureMatrix
p1632
(dp1633
g28
(lp1634
(I00
g429
tp1635
asg22
Nsbsg31
(irule
Guard
p1636
(dp1637
g18
I00
sg19
(lp1638
(irule
FeatureMatrix
p1639
(dp1640
g28
(lp1641
(I01
g1084
tp1642
a(I00
g502
tp1643
asg22
Nsbasg21
I00
sg22
Nsg23
I00
sg24
S'R'
sbsg35
(irule
FeatureMatrix
p1644
(dp1645
g28
(lp1646
(I00
g566
tp1647
asg22
Nsbsg22
Nsba(irule
Rule
p1648
(dp1649
g15
(irule
Guard
p1650
(dp1651
g18
I00
sg19
(lp1652
sg21
I00
sg22
Nsg23
I00
sg24
S'L'
sbsg25
(irule
FeatureMatrix
p1653
(dp1654
g28
(lp1655
(I00
g429
tp1656
asg22
Nsbsg31
(irule
Guard
p1657
(dp1658
g18
I00
sg19
(lp1659
(irule
FeatureMatrix
p1660
(dp1661
g28
(lp1662
(I01
g440
tp1663
asg22
Nsbasg21
I00
sg22
Nsg23
I00
sg24
S'R'
sbsg35
(irule
FeatureMatrix
p1664
(dp1665
g28
(lp1666
(I01
g481
tp1667
a(I01
g429
tp1668
asg22
Nsbsg22
Nsba(irule
Rule
p1669
(dp1670
g15
(irule
Guard
p1671
(dp1672
g18
I00
sg19
(lp1673
sg21
I00
sg22
Nsg23
I00
sg24
S'L'
sbsg25
(irule
FeatureMatrix
p1674
(dp1675
g28
(lp1676
(I00
g429
tp1677
asg22
Nsbsg31
(irule
Guard
p1678
(dp1679
g18
I00
sg19
(lp1680
(irule
FeatureMatrix
p1681
(dp1682
g28
(lp1683
(I00
g587
tp1684
a(I00
g429
tp1685
asg22
Nsbasg21
I00
sg22
Nsg23
I00
sg24
S'R'
sbsg35
(irule
FeatureMatrix
p1686
(dp1687
g28
(lp1688
(I01
g481
tp1689
asg22
Nsbsg22
Nsba(irule
Rule
p1690
(dp1691
g15
(irule
Guard
p1692
(dp1693
g18
I00
sg19
(lp1694
sg21
I00
sg22
Nsg23
I00
sg24
S'L'
sbsg25
(irule
FeatureMatrix
p1695
(dp1696
g28
(lp1697
(I00
g429
tp1698
asg22
Nsbsg31
(irule
Guard
p1699
(dp1700
g18
I00
sg19
(lp1701
(irule
ConstantPhoneme
p1702
(dp1703
S'p'
g436
sbasg21
I00
sg22
Nsg23
I00
sg24
S'R'
sbsg35
(irule
FeatureMatrix
p1704
(dp1705
g28
(lp1706
(I01
g1084
tp1707
a(I01
g481
tp1708
asg22
Nsbsg22
Nsba(irule
Rule
p1709
(dp1710
g15
(irule
Guard
p1711
(dp1712
g18
I00
sg19
(lp1713
sg21
I00
sg22
Nsg23
I00
sg24
S'L'
sbsg25
(irule
FeatureMatrix
p1714
(dp1715
g28
(lp1716
(I00
g429
tp1717
asg22
Nsbsg31
(irule
Guard
p1718
(dp1719
g18
I00
sg19
(lp1720
(irule
FeatureMatrix
p1721
(dp1722
g28
(lp1723
(I00
g587
tp1724
a(I00
g429
tp1725
asg22
Nsbasg21
I00
sg22
Nsg23
I00
sg24
S'R'
sbsg35
(irule
FeatureMatrix
p1726
(dp1727
g28
(lp1728
(I00
g502
tp1729
asg22
Nsbsg22
Nsba(irule
Rule
p1730
(dp1731
g15
(irule
Guard
p1732
(dp1733
g18
I00
sg19
(lp1734
(irule
FeatureMatrix
p1735
(dp1736
g28
(lp1737
sg22
Nsbasg21
I00
sg22
Nsg23
I00
sg24
S'L'
sbsg25
(irule
FeatureMatrix
p1738
(dp1739
g28
(lp1740
(I00
g540
tp1741
a(I00
g429
tp1742
asg22
Nsbsg31
(irule
Guard
p1743
(dp1744
g18
I00
sg19
(lp1745
(irule
FeatureMatrix
p1746
(dp1747
g28
(lp1748
(I01
g540
tp1749
asg22
Nsbasg21
I00
sg22
Nsg23
I00
sg24
S'R'
sbsg35
(irule
FeatureMatrix
p1750
(dp1751
g28
(lp1752
sg22
Nsbsg22
Nsba(irule
Rule
p1753
(dp1754
g15
(irule
Guard
p1755
(dp1756
g18
I00
sg19
(lp1757
sg21
I00
sg22
Nsg23
I00
sg24
S'L'
sbsg25
(irule
FeatureMatrix
p1758
(dp1759
g28
(lp1760
(I00
g523
tp1761
a(I00
g429
tp1762
asg22
Nsbsg31
(irule
Guard
p1763
(dp1764
g18
I00
sg19
(lp1765
(irule
ConstantPhoneme
p1766
(dp1767
S'p'
g436
sbasg21
I00
sg22
Nsg23
I00
sg24
S'R'
sbsg35
(irule
FeatureMatrix
p1768
(dp1769
g28
(lp1770
(I01
g628
tp1771
asg22
Nsbsg22
Nsba(irule
Rule
p1772
(dp1773
g15
(irule
Guard
p1774
(dp1775
g18
I00
sg19
(lp1776
sg21
I00
sg22
Nsg23
I00
sg24
S'L'
sbsg25
(irule
FeatureMatrix
p1777
(dp1778
g28
(lp1779
(I00
g429
tp1780
asg22
Nsbsg31
(irule
Guard
p1781
(dp1782
g18
I00
sg19
(lp1783
(irule
FeatureMatrix
p1784
(dp1785
g28
(lp1786
(I01
g1084
tp1787
a(I00
g429
tp1788
asg22
Nsbasg21
I00
sg22
Nsg23
I00
sg24
S'R'
sbsg35
(irule
FeatureMatrix
p1789
(dp1790
g28
(lp1791
(I00
g502
tp1792
asg22
Nsbsg22
Nsba(irule
Rule
p1793
(dp1794
g15
(irule
Guard
p1795
(dp1796
g18
I00
sg19
(lp1797
sg21
I00
sg22
Nsg23
I00
sg24
S'L'
sbsg25
(irule
FeatureMatrix
p1798
(dp1799
g28
(lp1800
(I00
g429
tp1801
asg22
Nsbsg31
(irule
Guard
p1802
(dp1803
g18
I00
sg19
(lp1804
(irule
FeatureMatrix
p1805
(dp1806
g28
(lp1807
(I01
g540
tp1808
asg22
Nsbasg21
I00
sg22
Nsg23
I00
sg24
S'R'
sbsg35
(irule
FeatureMatrix
p1809
(dp1810
g28
(lp1811
(I01
g628
tp1812
a(I01
g1084
tp1813
asg22
Nsbsg22
Nsba(irule
Rule
p1814
(dp1815
g15
(irule
Guard
p1816
(dp1817
g18
I00
sg19
(lp1818
sg21
I00
sg22
Nsg23
I00
sg24
S'L'
sbsg25
(irule
FeatureMatrix
p1819
(dp1820
g28
(lp1821
(I00
g429
tp1822
asg22
Nsbsg31
(irule
Guard
p1823
(dp1824
g18
I00
sg19
(lp1825
(irule
FeatureMatrix
p1826
(dp1827
g28
(lp1828
(I01
g1084
tp1829
a(I00
g429
tp1830
asg22
Nsbasg21
I00
sg22
Nsg23
I00
sg24
S'R'
sbsg35
(irule
FeatureMatrix
p1831
(dp1832
g28
(lp1833
(I00
g545
tp1834
asg22
Nsbsg22
Nsba(irule
Rule
p1835
(dp1836
g15
(irule
Guard
p1837
(dp1838
g18
I00
sg19
(lp1839
sg21
I00
sg22
Nsg23
I00
sg24
S'L'
sbsg25
(irule
FeatureMatrix
p1840
(dp1841
g28
(lp1842
(I00
g429
tp1843
asg22
Nsbsg31
(irule
Guard
p1844
(dp1845
g18
I00
sg19
(lp1846
(irule
FeatureMatrix
p1847
(dp1848
g28
(lp1849
(I01
g1084
tp1850
a(I00
g502
tp1851
asg22
Nsbasg21
I00
sg22
Nsg23
I00
sg24
S'R'
sbsg35
(irule
FeatureMatrix
p1852
(dp1853
g28
(lp1854
(I01
g628
tp1855
asg22
Nsbsg22
Nsba(irule
Rule
p1856
(dp1857
g15
(irule
Guard
p1858
(dp1859
g18
I00
sg19
(lp1860
(irule
FeatureMatrix
p1861
(dp1862
g28
(lp1863
sg22
Nsbasg21
I00
sg22
Nsg23
I00
sg24
S'L'
sbsg25
(irule
FeatureMatrix
p1864
(dp1865
g28
(lp1866
(I00
g429
tp1867
asg22
Nsbsg31
(irule
Guard
p1868
(dp1869
g18
I00
sg19
(lp1870
(irule
FeatureMatrix
p1871
(dp1872
g28
(lp1873
(I01
g628
tp1874
a(I01
g540
tp1875
asg22
Nsbasg21
I00
sg22
Nsg23
I00
sg24
S'R'
sbsg35
(irule
FeatureMatrix
p1876
(dp1877
g28
(lp1878
sg22
Nsbsg22
Nsba(irule
Rule
p1879
(dp1880
g15
(irule
Guard
p1881
(dp1882
g18
I00
sg19
(lp1883
sg21
I00
sg22
Nsg23
I00
sg24
S'L'
sbsg25
(irule
ConstantPhoneme
p1884
(dp1885
S'p'
Vs
sbsg31
(irule
Guard
p1886
(dp1887
g18
I00
sg19
(lp1888
(irule
FeatureMatrix
p1889
(dp1890
g28
(lp1891
(I01
g440
tp1892
asg22
Nsbasg21
I00
sg22
Nsg23
I00
sg24
S'R'
sbsg35
(irule
FeatureMatrix
p1893
(dp1894
g28
(lp1895
(I01
g1084
tp1896
a(I01
g481
tp1897
asg22
Nsbsg22
Nsba(irule
Rule
p1898
(dp1899
g15
(irule
Guard
p1900
(dp1901
g18
I00
sg19
(lp1902
sg21
I00
sg22
Nsg23
I00
sg24
S'L'
sbsg25
(irule
FeatureMatrix
p1903
(dp1904
g28
(lp1905
(I00
g429
tp1906
asg22
Nsbsg31
(irule
Guard
p1907
(dp1908
g18
I00
sg19
(lp1909
(irule
FeatureMatrix
p1910
(dp1911
g28
(lp1912
(I01
g440
tp1913
asg22
Nsbasg21
I00
sg22
Nsg23
I00
sg24
S'R'
sbsg35
(irule
FeatureMatrix
p1914
(dp1915
g28
(lp1916
(I00
g1431
tp1917
a(I01
g481
tp1918
asg22
Nsbsg22
Nsba(irule
Rule
p1919
(dp1920
g15
(irule
Guard
p1921
(dp1922
g18
I00
sg19
(lp1923
sg21
I00
sg22
Nsg23
I00
sg24
S'L'
sbsg25
(irule
FeatureMatrix
p1924
(dp1925
g28
(lp1926
(I00
g429
tp1927
asg22
Nsbsg31
(irule
Guard
p1928
(dp1929
g18
I00
sg19
(lp1930
(irule
FeatureMatrix
p1931
(dp1932
g28
(lp1933
(I01
g440
tp1934
a(I00
g429
tp1935
asg22
Nsbasg21
I00
sg22
Nsg23
I00
sg24
S'R'
sbsg35
(irule
FeatureMatrix
p1936
(dp1937
g28
(lp1938
(I01
g481
tp1939
asg22
Nsbsg22
Nsba(irule
Rule
p1940
(dp1941
g15
(irule
Guard
p1942
(dp1943
g18
I00
sg19
(lp1944
sg21
I00
sg22
Nsg23
I00
sg24
S'L'
sbsg25
(irule
FeatureMatrix
p1945
(dp1946
g28
(lp1947
(I00
g429
tp1948
asg22
Nsbsg31
(irule
Guard
p1949
(dp1950
g18
I00
sg19
(lp1951
(irule
FeatureMatrix
p1952
(dp1953
g28
(lp1954
(I01
g440
tp1955
asg22
Nsbasg21
I00
sg22
Nsg23
I00
sg24
S'R'
sbsg35
(irule
FeatureMatrix
p1956
(dp1957
g28
(lp1958
(I00
g502
tp1959
a(I01
g429
tp1960
asg22
Nsbsg22
Nsba(irule
Rule
p1961
(dp1962
g15
(irule
Guard
p1963
(dp1964
g18
I00
sg19
(lp1965
(irule
FeatureMatrix
p1966
(dp1967
g28
(lp1968
sg22
Nsbasg21
I00
sg22
Nsg23
I00
sg24
S'L'
sbsg25
(irule
FeatureMatrix
p1969
(dp1970
g28
(lp1971
(I00
g429
tp1972
asg22
Nsbsg31
(irule
Guard
p1973
(dp1974
g18
I00
sg19
(lp1975
(irule
FeatureMatrix
p1976
(dp1977
g28
(lp1978
(I01
g440
tp1979
asg22
Nsbasg21
I00
sg22
Nsg23
I00
sg24
S'R'
sbsg35
(irule
FeatureMatrix
p1980
(dp1981
g28
(lp1982
(I01
g481
tp1983
asg22
Nsbsg22
Nsba(irule
Rule
p1984
(dp1985
g15
(irule
Guard
p1986
(dp1987
g18
I00
sg19
(lp1988
sg21
I00
sg22
Nsg23
I00
sg24
S'L'
sbsg25
(irule
FeatureMatrix
p1989
(dp1990
g28
(lp1991
(I01
g628
tp1992
a(I00
g429
tp1993
asg22
Nsbsg31
(irule
Guard
p1994
(dp1995
g18
I00
sg19
(lp1996
(irule
ConstantPhoneme
p1997
(dp1998
S'p'
g436
sbasg21
I00
sg22
Nsg23
I00
sg24
S'R'
sbsg35
(irule
ConstantPhoneme
p1999
(dp2000
S'p'
Vz
sbsg22
Nsba(irule
Rule
p2001
(dp2002
g15
(irule
Guard
p2003
(dp2004
g18
I00
sg19
(lp2005
sg21
I00
sg22
Nsg23
I00
sg24
S'L'
sbsg25
(irule
FeatureMatrix
p2006
(dp2007
g28
(lp2008
(I00
g429
tp2009
asg22
Nsbsg31
(irule
Guard
p2010
(dp2011
g18
I00
sg19
(lp2012
(irule
FeatureMatrix
p2013
(dp2014
g28
(lp2015
(I00
g502
tp2016
a(I01
g481
tp2017
asg22
Nsbasg21
I00
sg22
Nsg23
I00
sg24
S'R'
sbsg35
(irule
FeatureMatrix
p2018
(dp2019
g28
(lp2020
(I01
g481
tp2021
asg22
Nsbsg22
Nsba(irule
Rule
p2022
(dp2023
g15
(irule
Guard
p2024
(dp2025
g18
I00
sg19
(lp2026
(irule
FeatureMatrix
p2027
(dp2028
g28
(lp2029
sg22
Nsbasg21
I00
sg22
Nsg23
I00
sg24
S'L'
sbsg25
(irule
ConstantPhoneme
p2030
(dp2031
S'p'
Vs
sbsg31
(irule
Guard
p2032
(dp2033
g18
I00
sg19
(lp2034
(irule
FeatureMatrix
p2035
(dp2036
g28
(lp2037
(I01
g540
tp2038
asg22
Nsbasg21
I00
sg22
Nsg23
I00
sg24
S'R'
sbsg35
(irule
FeatureMatrix
p2039
(dp2040
g28
(lp2041
(I01
g1084
tp2042
asg22
Nsbsg22
Nsba(irule
Rule
p2043
(dp2044
g15
(irule
Guard
p2045
(dp2046
g18
I00
sg19
(lp2047
sg21
I00
sg22
Nsg23
I00
sg24
S'L'
sbsg25
(irule
FeatureMatrix
p2048
(dp2049
g28
(lp2050
(I00
g429
tp2051
asg22
Nsbsg31
(irule
Guard
p2052
(dp2053
g18
I00
sg19
(lp2054
(irule
FeatureMatrix
p2055
(dp2056
g28
(lp2057
(I01
g1084
tp2058
a(I00
g429
tp2059
asg22
Nsbasg21
I00
sg22
Nsg23
I00
sg24
S'R'
sbsg35
(irule
FeatureMatrix
p2060
(dp2061
g28
(lp2062
(I01
g628
tp2063
asg22
Nsbsg22
Nsba(irule
Rule
p2064
(dp2065
g15
(irule
Guard
p2066
(dp2067
g18
I00
sg19
(lp2068
sg21
I00
sg22
Nsg23
I00
sg24
S'L'
sbsg25
(irule
FeatureMatrix
p2069
(dp2070
g28
(lp2071
(I00
g429
tp2072
asg22
Nsbsg31
(irule
Guard
p2073
(dp2074
g18
I00
sg19
(lp2075
(irule
FeatureMatrix
p2076
(dp2077
g28
(lp2078
(I01
g1084
tp2079
a(I00
g429
tp2080
asg22
Nsbasg21
I00
sg22
Nsg23
I00
sg24
S'R'
sbsg35
(irule
FeatureMatrix
p2081
(dp2082
g28
(lp2083
(I00
g523
tp2084
asg22
Nsbsg22
Nsba(irule
Rule
p2085
(dp2086
g15
(irule
Guard
p2087
(dp2088
g18
I00
sg19
(lp2089
(irule
FeatureMatrix
p2090
(dp2091
g28
(lp2092
(I01
g1084
tp2093
asg22
Nsbasg21
I00
sg22
Nsg23
I00
sg24
S'L'
sbsg25
(irule
FeatureMatrix
p2094
(dp2095
g28
(lp2096
(I00
g429
tp2097
asg22
Nsbsg31
(irule
Guard
p2098
(dp2099
g18
I00
sg19
(lp2100
(irule
FeatureMatrix
p2101
(dp2102
g28
(lp2103
(I01
g540
tp2104
asg22
Nsbasg21
I00
sg22
Nsg23
I00
sg24
S'R'
sbsg35
(irule
FeatureMatrix
p2105
(dp2106
g28
(lp2107
sg22
Nsbsg22
Nsba(irule
Rule
p2108
(dp2109
g15
(irule
Guard
p2110
(dp2111
g18
I00
sg19
(lp2112
sg21
I00
sg22
Nsg23
I00
sg24
S'L'
sbsg25
(irule
FeatureMatrix
p2113
(dp2114
g28
(lp2115
(I00
g429
tp2116
asg22
Nsbsg31
(irule
Guard
p2117
(dp2118
g18
I00
sg19
(lp2119
(irule
FeatureMatrix
p2120
(dp2121
g28
(lp2122
(I01
g440
tp2123
asg22
Nsbasg21
I00
sg22
Nsg23
I00
sg24
S'R'
sbsg35
(irule
FeatureMatrix
p2124
(dp2125
g28
(lp2126
(I01
g481
tp2127
a(I00
S'low'
p2128
tp2129
asg22
Nsbsg22
Nsba(irule
Rule
p2130
(dp2131
g15
(irule
Guard
p2132
(dp2133
g18
I00
sg19
(lp2134
sg21
I00
sg22
Nsg23
I00
sg24
S'L'
sbsg25
(irule
FeatureMatrix
p2135
(dp2136
g28
(lp2137
(I00
g801
tp2138
a(I00
g429
tp2139
asg22
Nsbsg31
(irule
Guard
p2140
(dp2141
g18
I00
sg19
(lp2142
(irule
FeatureMatrix
p2143
(dp2144
g28
(lp2145
(I01
g440
tp2146
asg22
Nsbasg21
I00
sg22
Nsg23
I00
sg24
S'R'
sbsg35
(irule
FeatureMatrix
p2147
(dp2148
g28
(lp2149
(I01
g481
tp2150
asg22
Nsbsg22
Nsba(irule
Rule
p2151
(dp2152
g15
(irule
Guard
p2153
(dp2154
g18
I00
sg19
(lp2155
sg21
I00
sg22
Nsg23
I00
sg24
S'L'
sbsg25
(irule
FeatureMatrix
p2156
(dp2157
g28
(lp2158
(I01
g628
tp2159
a(I00
g429
tp2160
asg22
Nsbsg31
(irule
Guard
p2161
(dp2162
g18
I00
sg19
(lp2163
(irule
FeatureMatrix
p2164
(dp2165
g28
(lp2166
(I01
g440
tp2167
asg22
Nsbasg21
I00
sg22
Nsg23
I00
sg24
S'R'
sbsg35
(irule
FeatureMatrix
p2168
(dp2169
g28
(lp2170
(I01
g628
tp2171
asg22
Nsbsg22
Nsba(irule
Rule
p2172
(dp2173
g15
(irule
Guard
p2174
(dp2175
g18
I00
sg19
(lp2176
(irule
FeatureMatrix
p2177
(dp2178
g28
(lp2179
sg22
Nsbasg21
I00
sg22
Nsg23
I00
sg24
S'L'
sbsg25
(irule
FeatureMatrix
p2180
(dp2181
g28
(lp2182
(I00
g429
tp2183
asg22
Nsbsg31
(irule
Guard
p2184
(dp2185
g18
I00
sg19
(lp2186
(irule
FeatureMatrix
p2187
(dp2188
g28
(lp2189
(I01
g540
tp2190
asg22
Nsba(irule
FeatureMatrix
p2191
(dp2192
g28
(lp2193
sg22
Nsbasg21
I00
sg22
Nsg23
I00
sg24
S'R'
sbsg35
(irule
FeatureMatrix
p2194
(dp2195
g28
(lp2196
sg22
Nsbsg22
Nsba(irule
Rule
p2197
(dp2198
g15
(irule
Guard
p2199
(dp2200
g18
I00
sg19
(lp2201
sg21
I00
sg22
Nsg23
I00
sg24
S'L'
sbsg25
(irule
FeatureMatrix
p2202
(dp2203
g28
(lp2204
(I00
g429
tp2205
asg22
Nsbsg31
(irule
Guard
p2206
(dp2207
g18
I00
sg19
(lp2208
(irule
FeatureMatrix
p2209
(dp2210
g28
(lp2211
(I01
g440
tp2212
asg22
Nsbasg21
I00
sg22
Nsg23
I00
sg24
S'R'
sbsg35
(irule
FeatureMatrix
p2213
(dp2214
g28
(lp2215
(I00
g502
tp2216
a(I00
g2128
tp2217
asg22
Nsbsg22
Nsba(irule
Rule
p2218
(dp2219
g15
(irule
Guard
p2220
(dp2221
g18
I00
sg19
(lp2222
sg21
I00
sg22
Nsg23
I00
sg24
S'L'
sbsg25
(irule
FeatureMatrix
p2223
(dp2224
g28
(lp2225
(I00
g1509
tp2226
a(I00
g429
tp2227
asg22
Nsbsg31
(irule
Guard
p2228
(dp2229
g18
I00
sg19
(lp2230
(irule
FeatureMatrix
p2231
(dp2232
g28
(lp2233
(I01
g440
tp2234
asg22
Nsbasg21
I00
sg22
Nsg23
I00
sg24
S'R'
sbsg35
(irule
FeatureMatrix
p2235
(dp2236
g28
(lp2237
(I01
g481
tp2238
asg22
Nsbsg22
Nsba(irule
Rule
p2239
(dp2240
g15
(irule
Guard
p2241
(dp2242
g18
I00
sg19
(lp2243
sg21
I00
sg22
Nsg23
I00
sg24
S'L'
sbsg25
(irule
FeatureMatrix
p2244
(dp2245
g28
(lp2246
(I00
g429
tp2247
asg22
Nsbsg31
(irule
Guard
p2248
(dp2249
g18
I00
sg19
(lp2250
(irule
FeatureMatrix
p2251
(dp2252
g28
(lp2253
(I01
g440
tp2254
asg22
Nsbasg21
I00
sg22
Nsg23
I00
sg24
S'R'
sbsg35
(irule
FeatureMatrix
p2255
(dp2256
g28
(lp2257
(I00
g1098
tp2258
a(I01
g481
tp2259
asg22
Nsbsg22
Nsba(irule
Rule
p2260
(dp2261
g15
(irule
Guard
p2262
(dp2263
g18
I00
sg19
(lp2264
sg21
I00
sg22
Nsg23
I00
sg24
S'L'
sbsg25
(irule
FeatureMatrix
p2265
(dp2266
g28
(lp2267
(I01
g481
tp2268
a(I00
g429
tp2269
asg22
Nsbsg31
(irule
Guard
p2270
(dp2271
g18
I00
sg19
(lp2272
(irule
FeatureMatrix
p2273
(dp2274
g28
(lp2275
(I01
g540
tp2276
asg22
Nsbasg21
I00
sg22
Nsg23
I00
sg24
S'R'
sbsg35
(irule
FeatureMatrix
p2277
(dp2278
g28
(lp2279
(I01
g440
tp2280
asg22
Nsbsg22
Nsba(irule
Rule
p2281
(dp2282
g15
(irule
Guard
p2283
(dp2284
g18
I00
sg19
(lp2285
sg21
I00
sg22
Nsg23
I00
sg24
S'L'
sbsg25
(irule
FeatureMatrix
p2286
(dp2287
g28
(lp2288
(I00
g429
tp2289
asg22
Nsbsg31
(irule
Guard
p2290
(dp2291
g18
I00
sg19
(lp2292
(irule
FeatureMatrix
p2293
(dp2294
g28
(lp2295
(I01
g1084
tp2296
a(I00
g429
tp2297
asg22
Nsbasg21
I00
sg22
Nsg23
I00
sg24
S'R'
sbsg35
(irule
FeatureMatrix
p2298
(dp2299
g28
(lp2300
(I00
g566
tp2301
asg22
Nsbsg22
Nsba(irule
Rule
p2302
(dp2303
g15
(irule
Guard
p2304
(dp2305
g18
I00
sg19
(lp2306
sg21
I00
sg22
Nsg23
I00
sg24
S'L'
sbsg25
(irule
FeatureMatrix
p2307
(dp2308
g28
(lp2309
(I00
g429
tp2310
asg22
Nsbsg31
(irule
Guard
p2311
(dp2312
g18
I00
sg19
(lp2313
(irule
FeatureMatrix
p2314
(dp2315
g28
(lp2316
(I01
g440
tp2317
asg22
Nsbasg21
I00
sg22
Nsg23
I00
sg24
S'R'
sbsg35
(irule
FeatureMatrix
p2318
(dp2319
g28
(lp2320
(I01
g1084
tp2321
a(I00
g523
tp2322
asg22
Nsbsg22
Nsba(irule
Rule
p2323
(dp2324
g15
(irule
Guard
p2325
(dp2326
g18
I00
sg19
(lp2327
sg21
I00
sg22
Nsg23
I00
sg24
S'L'
sbsg25
(irule
FeatureMatrix
p2328
(dp2329
g28
(lp2330
(I01
g628
tp2331
a(I00
g429
tp2332
asg22
Nsbsg31
(irule
Guard
p2333
(dp2334
g18
I00
sg19
(lp2335
(irule
FeatureMatrix
p2336
(dp2337
g28
(lp2338
(I01
g440
tp2339
asg22
Nsbasg21
I00
sg22
Nsg23
I00
sg24
S'R'
sbsg35
(irule
FeatureMatrix
p2340
(dp2341
g28
(lp2342
(I01
g481
tp2343
asg22
Nsbsg22
Nsba(irule
Rule
p2344
(dp2345
g15
(irule
Guard
p2346
(dp2347
g18
I00
sg19
(lp2348
sg21
I00
sg22
Nsg23
I00
sg24
S'L'
sbsg25
(irule
FeatureMatrix
p2349
(dp2350
g28
(lp2351
(I00
g523
tp2352
a(I00
g429
tp2353
asg22
Nsbsg31
(irule
Guard
p2354
(dp2355
g18
I00
sg19
(lp2356
(irule
FeatureMatrix
p2357
(dp2358
g28
(lp2359
(I01
g540
tp2360
asg22
Nsbasg21
I00
sg22
Nsg23
I00
sg24
S'R'
sbsg35
(irule
FeatureMatrix
p2361
(dp2362
g28
(lp2363
(I00
g587
tp2364
asg22
Nsbsg22
Nsba(irule
Rule
p2365
(dp2366
g15
(irule
Guard
p2367
(dp2368
g18
I00
sg19
(lp2369
sg21
I00
sg22
Nsg23
I00
sg24
S'L'
sbsg25
(irule
ConstantPhoneme
p2370
(dp2371
S'p'
Vs
sbsg31
(irule
Guard
p2372
(dp2373
g18
I00
sg19
(lp2374
(irule
FeatureMatrix
p2375
(dp2376
g28
(lp2377
(I01
g440
tp2378
asg22
Nsbasg21
I00
sg22
Nsg23
I00
sg24
S'R'
sbsg35
(irule
FeatureMatrix
p2379
(dp2380
g28
(lp2381
(I01
g628
tp2382
a(I01
g1084
tp2383
asg22
Nsbsg22
Nsba(irule
Rule
p2384
(dp2385
g15
(irule
Guard
p2386
(dp2387
g18
I00
sg19
(lp2388
sg21
I00
sg22
Nsg23
I00
sg24
S'L'
sbsg25
(irule
FeatureMatrix
p2389
(dp2390
g28
(lp2391
(I01
g481
tp2392
a(I00
g429
tp2393
asg22
Nsbsg31
(irule
Guard
p2394
(dp2395
g18
I00
sg19
(lp2396
(irule
FeatureMatrix
p2397
(dp2398
g28
(lp2399
(I01
g540
tp2400
asg22
Nsbasg21
I00
sg22
Nsg23
I00
sg24
S'R'
sbsg35
(irule
FeatureMatrix
p2401
(dp2402
g28
(lp2403
(I00
g801
tp2404
asg22
Nsbsg22
Nsba(irule
Rule
p2405
(dp2406
g15
(irule
Guard
p2407
(dp2408
g18
I00
sg19
(lp2409
sg21
I00
sg22
Nsg23
I00
sg24
S'L'
sbsg25
(irule
FeatureMatrix
p2410
(dp2411
g28
(lp2412
(I00
g429
tp2413
asg22
Nsbsg31
(irule
Guard
p2414
(dp2415
g18
I00
sg19
(lp2416
(irule
FeatureMatrix
p2417
(dp2418
g28
(lp2419
(I01
g1084
tp2420
a(I01
g440
tp2421
asg22
Nsbasg21
I00
sg22
Nsg23
I00
sg24
S'R'
sbsg35
(irule
FeatureMatrix
p2422
(dp2423
g28
(lp2424
(I01
g440
tp2425
asg22
Nsbsg22
Nsba(irule
Rule
p2426
(dp2427
g15
(irule
Guard
p2428
(dp2429
g18
I00
sg19
(lp2430
(irule
FeatureMatrix
p2431
(dp2432
g28
(lp2433
sg22
Nsbasg21
I00
sg22
Nsg23
I00
sg24
S'L'
sbsg25
(irule
FeatureMatrix
p2434
(dp2435
g28
(lp2436
(I00
g2128
tp2437
a(I00
g429
tp2438
asg22
Nsbsg31
(irule
Guard
p2439
(dp2440
g18
I00
sg19
(lp2441
(irule
FeatureMatrix
p2442
(dp2443
g28
(lp2444
(I01
g540
tp2445
asg22
Nsbasg21
I00
sg22
Nsg23
I00
sg24
S'R'
sbsg35
(irule
FeatureMatrix
p2446
(dp2447
g28
(lp2448
sg22
Nsbsg22
Nsbaa(lp2449
(irule
Rule
p2450
(dp2451
g15
(irule
Guard
p2452
(dp2453
g18
I00
sg19
(lp2454
sg21
I00
sg22
V
sg23
I00
sg24
S'L'
sbsg25
(irule
FeatureMatrix
p2455
(dp2456
g28
(lp2457
(I01
S'voice'
tp2458
asg22
V[ +voice ]
p2459
sbsg31
(irule
Guard
p2460
(dp2461
g18
I00
sg19
(lp2462
(irule
ConstantPhoneme
p2463
(dp2464
S'p'
Vb
sbasg21
I00
sg22
Vb
sg23
I00
sg24
S'R'
sbsg35
(irule
FeatureMatrix
p2465
(dp2466
g28
(lp2467
sg22
V[  ]
p2468
sbsg22
V[  ] ---> [ +voice ] /  _ b
p2469
sba(irule
Rule
p2470
(dp2471
g15
(irule
Guard
p2472
(dp2473
g18
I00
sg19
(lp2474
sg21
I00
sg22
Nsg23
I00
sg24
S'L'
sbsg25
(irule
FeatureMatrix
p2475
(dp2476
g28
(lp2477
(I00
S'liquid'
p2478
tp2479
a(I01
S'voice'
p2480
tp2481
asg22
Nsbsg31
(irule
Guard
p2482
(dp2483
g18
I00
sg19
(lp2484
(irule
ConstantPhoneme
p2485
(dp2486
S'p'
Vb
sbasg21
I00
sg22
Nsg23
I00
sg24
S'R'
sbsg35
(irule
FeatureMatrix
p2487
(dp2488
g28
(lp2489
sg22
Nsbsg22
Nsba(irule
Rule
p2490
(dp2491
g15
(irule
Guard
p2492
(dp2493
g18
I00
sg19
(lp2494
sg21
I00
sg22
Nsg23
I00
sg24
S'L'
sbsg25
(irule
FeatureMatrix
p2495
(dp2496
g28
(lp2497
(I00
S'highTone'
p2498
tp2499
a(I01
g2480
tp2500
asg22
Nsbsg31
(irule
Guard
p2501
(dp2502
g18
I00
sg19
(lp2503
(irule
ConstantPhoneme
p2504
(dp2505
S'p'
Vb
sbasg21
I00
sg22
Nsg23
I00
sg24
S'R'
sbsg35
(irule
FeatureMatrix
p2506
(dp2507
g28
(lp2508
sg22
Nsbsg22
Nsba(irule
Rule
p2509
(dp2510
g15
(irule
Guard
p2511
(dp2512
g18
I00
sg19
(lp2513
sg21
I00
sg22
Nsg23
I00
sg24
S'L'
sbsg25
(irule
FeatureMatrix
p2514
(dp2515
g28
(lp2516
(I01
g2480
tp2517
asg22
Nsbsg31
(irule
Guard
p2518
(dp2519
g18
I00
sg19
(lp2520
(irule
FeatureMatrix
p2521
(dp2522
g28
(lp2523
(I00
S'continuant'
p2524
tp2525
a(I01
g2480
tp2526
asg22
Nsbasg21
I00
sg22
Nsg23
I00
sg24
S'R'
sbsg35
(irule
FeatureMatrix
p2527
(dp2528
g28
(lp2529
sg22
Nsbsg22
Nsba(irule
Rule
p2530
(dp2531
g15
(irule
Guard
p2532
(dp2533
g18
I00
sg19
(lp2534
sg21
I00
sg22
Nsg23
I00
sg24
S'L'
sbsg25
(irule
FeatureMatrix
p2535
(dp2536
g28
(lp2537
(I01
g2480
tp2538
asg22
Nsbsg31
(irule
Guard
p2539
(dp2540
g18
I00
sg19
(lp2541
(irule
FeatureMatrix
p2542
(dp2543
g28
(lp2544
(I01
S'anterior'
p2545
tp2546
a(I01
g2480
tp2547
asg22
Nsbasg21
I00
sg22
Nsg23
I00
sg24
S'R'
sbsg35
(irule
FeatureMatrix
p2548
(dp2549
g28
(lp2550
sg22
Nsbsg22
Nsba(irule
Rule
p2551
(dp2552
g15
(irule
Guard
p2553
(dp2554
g18
I00
sg19
(lp2555
sg21
I00
sg22
Nsg23
I00
sg24
S'L'
sbsg25
(irule
FeatureMatrix
p2556
(dp2557
g28
(lp2558
(I01
g2480
tp2559
asg22
Nsbsg31
(irule
Guard
p2560
(dp2561
g18
I00
sg19
(lp2562
(irule
FeatureMatrix
p2563
(dp2564
g28
(lp2565
(I00
S'sonorant'
p2566
tp2567
a(I01
g2480
tp2568
asg22
Nsbasg21
I00
sg22
Nsg23
I00
sg24
S'R'
sbsg35
(irule
FeatureMatrix
p2569
(dp2570
g28
(lp2571
sg22
Nsbsg22
Nsba(irule
Rule
p2572
(dp2573
g15
(irule
Guard
p2574
(dp2575
g18
I00
sg19
(lp2576
sg21
I00
sg22
Nsg23
I00
sg24
S'L'
sbsg25
(irule
FeatureMatrix
p2577
(dp2578
g28
(lp2579
(I01
g2480
tp2580
asg22
Nsbsg31
(irule
Guard
p2581
(dp2582
g18
I00
sg19
(lp2583
(irule
FeatureMatrix
p2584
(dp2585
g28
(lp2586
(I01
g2545
tp2587
a(I00
S'coronal'
p2588
tp2589
asg22
Nsbasg21
I00
sg22
Nsg23
I00
sg24
S'R'
sbsg35
(irule
FeatureMatrix
p2590
(dp2591
g28
(lp2592
sg22
Nsbsg22
Nsba(irule
Rule
p2593
(dp2594
g15
(irule
Guard
p2595
(dp2596
g18
I00
sg19
(lp2597
(irule
FeatureMatrix
p2598
(dp2599
g28
(lp2600
sg22
Nsbasg21
I00
sg22
Nsg23
I00
sg24
S'L'
sbsg25
(irule
FeatureMatrix
p2601
(dp2602
g28
(lp2603
(I01
g2480
tp2604
asg22
Nsbsg31
(irule
Guard
p2605
(dp2606
g18
I00
sg19
(lp2607
(irule
ConstantPhoneme
p2608
(dp2609
S'p'
Vb
sbasg21
I00
sg22
Nsg23
I00
sg24
S'R'
sbsg35
(irule
FeatureMatrix
p2610
(dp2611
g28
(lp2612
sg22
Nsbsg22
Nsba(irule
Rule
p2613
(dp2614
g15
(irule
Guard
p2615
(dp2616
g18
I00
sg19
(lp2617
sg21
I00
sg22
Nsg23
I00
sg24
S'L'
sbsg25
(irule
FeatureMatrix
p2618
(dp2619
g28
(lp2620
(I01
g2480
tp2621
asg22
Nsbsg31
(irule
Guard
p2622
(dp2623
g18
I00
sg19
(lp2624
(irule
ConstantPhoneme
p2625
(dp2626
S'p'
Vb
sba(irule
FeatureMatrix
p2627
(dp2628
g28
(lp2629
sg22
Nsbasg21
I00
sg22
Nsg23
I00
sg24
S'R'
sbsg35
(irule
FeatureMatrix
p2630
(dp2631
g28
(lp2632
sg22
Nsbsg22
Nsba(irule
Rule
p2633
(dp2634
g15
(irule
Guard
p2635
(dp2636
g18
I00
sg19
(lp2637
sg21
I00
sg22
Nsg23
I00
sg24
S'L'
sbsg25
(irule
FeatureMatrix
p2638
(dp2639
g28
(lp2640
(I01
g2480
tp2641
asg22
Nsbsg31
(irule
Guard
p2642
(dp2643
g18
I00
sg19
(lp2644
(irule
ConstantPhoneme
p2645
(dp2646
S'p'
Vb
sbasg21
I00
sg22
Nsg23
I00
sg24
S'R'
sbsg35
(irule
FeatureMatrix
p2647
(dp2648
g28
(lp2649
(I00
g2480
tp2650
asg22
Nsbsg22
Nsba(irule
Rule
p2651
(dp2652
g15
(irule
Guard
p2653
(dp2654
g18
I00
sg19
(lp2655
sg21
I00
sg22
Nsg23
I00
sg24
S'L'
sbsg25
(irule
FeatureMatrix
p2656
(dp2657
g28
(lp2658
(I01
g2480
tp2659
asg22
Nsbsg31
(irule
Guard
p2660
(dp2661
g18
I00
sg19
(lp2662
(irule
ConstantPhoneme
p2663
(dp2664
S'p'
Vb
sbasg21
I00
sg22
Nsg23
I00
sg24
S'R'
sbsg35
(irule
ConstantPhoneme
p2665
(dp2666
S'p'
Vt
sbsg22
Nsba(irule
Rule
p2667
(dp2668
g15
(irule
Guard
p2669
(dp2670
g18
I00
sg19
(lp2671
sg21
I00
sg22
Nsg23
I00
sg24
S'L'
sbsg25
(irule
FeatureMatrix
p2672
(dp2673
g28
(lp2674
(I01
g2480
tp2675
asg22
Nsbsg31
(irule
Guard
p2676
(dp2677
g18
I00
sg19
(lp2678
(irule
ConstantPhoneme
p2679
(dp2680
S'p'
Vb
sbasg21
I00
sg22
Nsg23
I00
sg24
S'R'
sbsg35
(irule
FeatureMatrix
p2681
(dp2682
g28
(lp2683
(I00
g2566
tp2684
asg22
Nsbsg22
Nsba(irule
Rule
p2685
(dp2686
g15
(irule
Guard
p2687
(dp2688
g18
I00
sg19
(lp2689
sg21
I00
sg22
Nsg23
I00
sg24
S'L'
sbsg25
(irule
FeatureMatrix
p2690
(dp2691
g28
(lp2692
(I01
g2480
tp2693
asg22
Nsbsg31
(irule
Guard
p2694
(dp2695
g18
I00
sg19
(lp2696
(irule
ConstantPhoneme
p2697
(dp2698
S'p'
Vb
sbasg21
I00
sg22
Nsg23
I00
sg24
S'R'
sbsg35
(irule
FeatureMatrix
p2699
(dp2700
g28
(lp2701
(I00
S'sibilant'
p2702
tp2703
asg22
Nsbsg22
Nsba(irule
Rule
p2704
(dp2705
g15
(irule
Guard
p2706
(dp2707
g18
I00
sg19
(lp2708
sg21
I00
sg22
Nsg23
I00
sg24
S'L'
sbsg25
(irule
FeatureMatrix
p2709
(dp2710
g28
(lp2711
(I00
S'low'
p2712
tp2713
a(I01
g2480
tp2714
asg22
Nsbsg31
(irule
Guard
p2715
(dp2716
g18
I00
sg19
(lp2717
(irule
ConstantPhoneme
p2718
(dp2719
S'p'
Vb
sbasg21
I00
sg22
Nsg23
I00
sg24
S'R'
sbsg35
(irule
FeatureMatrix
p2720
(dp2721
g28
(lp2722
sg22
Nsbsg22
Nsba(irule
Rule
p2723
(dp2724
g15
(irule
Guard
p2725
(dp2726
g18
I00
sg19
(lp2727
sg21
I00
sg22
Nsg23
I00
sg24
S'L'
sbsg25
(irule
FeatureMatrix
p2728
(dp2729
g28
(lp2730
(I00
S'palletized'
p2731
tp2732
a(I01
g2480
tp2733
asg22
Nsbsg31
(irule
Guard
p2734
(dp2735
g18
I00
sg19
(lp2736
(irule
ConstantPhoneme
p2737
(dp2738
S'p'
Vb
sbasg21
I00
sg22
Nsg23
I00
sg24
S'R'
sbsg35
(irule
FeatureMatrix
p2739
(dp2740
g28
(lp2741
sg22
Nsbsg22
Nsba(irule
Rule
p2742
(dp2743
g15
(irule
Guard
p2744
(dp2745
g18
I00
sg19
(lp2746
sg21
I00
sg22
Nsg23
I00
sg24
S'L'
sbsg25
(irule
FeatureMatrix
p2747
(dp2748
g28
(lp2749
(I01
g2480
tp2750
asg22
Nsbsg31
(irule
Guard
p2751
(dp2752
g18
I00
sg19
(lp2753
(irule
ConstantPhoneme
p2754
(dp2755
S'p'
Vb
sbasg21
I00
sg22
Nsg23
I00
sg24
S'R'
sbsg35
(irule
FeatureMatrix
p2756
(dp2757
g28
(lp2758
(I00
S'back'
p2759
tp2760
asg22
Nsbsg22
Nsba(irule
Rule
p2761
(dp2762
g15
(irule
Guard
p2763
(dp2764
g18
I00
sg19
(lp2765
sg21
I00
sg22
Nsg23
I00
sg24
S'L'
sbsg25
(irule
FeatureMatrix
p2766
(dp2767
g28
(lp2768
(I00
S'lateral'
p2769
tp2770
a(I01
g2480
tp2771
asg22
Nsbsg31
(irule
Guard
p2772
(dp2773
g18
I00
sg19
(lp2774
(irule
ConstantPhoneme
p2775
(dp2776
S'p'
Vb
sbasg21
I00
sg22
Nsg23
I00
sg24
S'R'
sbsg35
(irule
FeatureMatrix
p2777
(dp2778
g28
(lp2779
sg22
Nsbsg22
Nsba(irule
Rule
p2780
(dp2781
g15
(irule
Guard
p2782
(dp2783
g18
I00
sg19
(lp2784
sg21
I00
sg22
Nsg23
I00
sg24
S'L'
sbsg25
(irule
FeatureMatrix
p2785
(dp2786
g28
(lp2787
(I01
g2480
tp2788
asg22
Nsbsg31
(irule
Guard
p2789
(dp2790
g18
I00
sg19
(lp2791
(irule
ConstantPhoneme
p2792
(dp2793
S'p'
Vb
sbasg21
I00
sg22
Nsg23
I00
sg24
S'R'
sbsg35
(irule
FeatureMatrix
p2794
(dp2795
g28
(lp2796
(I00
g2712
tp2797
asg22
Nsbsg22
Nsba(irule
Rule
p2798
(dp2799
g15
(irule
Guard
p2800
(dp2801
g18
I00
sg19
(lp2802
sg21
I00
sg22
Nsg23
I00
sg24
S'L'
sbsg25
(irule
FeatureMatrix
p2803
(dp2804
g28
(lp2805
(I01
g2480
tp2806
asg22
Nsbsg31
(irule
Guard
p2807
(dp2808
g18
I00
sg19
(lp2809
(irule
ConstantPhoneme
p2810
(dp2811
S'p'
Vb
sbasg21
I00
sg22
Nsg23
I00
sg24
S'R'
sbsg35
(irule
FeatureMatrix
p2812
(dp2813
g28
(lp2814
(I00
S'vowel'
p2815
tp2816
asg22
Nsbsg22
Nsba(irule
Rule
p2817
(dp2818
g15
(irule
Guard
p2819
(dp2820
g18
I00
sg19
(lp2821
sg21
I00
sg22
Nsg23
I00
sg24
S'L'
sbsg25
(irule
FeatureMatrix
p2822
(dp2823
g28
(lp2824
(I01
g2480
tp2825
asg22
Nsbsg31
(irule
Guard
p2826
(dp2827
g18
I00
sg19
(lp2828
(irule
ConstantPhoneme
p2829
(dp2830
S'p'
Vb
sbasg21
I00
sg22
Nsg23
I00
sg24
S'R'
sbsg35
(irule
FeatureMatrix
p2831
(dp2832
g28
(lp2833
(I00
S'tense'
p2834
tp2835
asg22
Nsbsg22
Nsba(irule
Rule
p2836
(dp2837
g15
(irule
Guard
p2838
(dp2839
g18
I00
sg19
(lp2840
sg21
I00
sg22
Nsg23
I00
sg24
S'L'
sbsg25
(irule
FeatureMatrix
p2841
(dp2842
g28
(lp2843
(I01
g2480
tp2844
asg22
Nsbsg31
(irule
Guard
p2845
(dp2846
g18
I00
sg19
(lp2847
(irule
ConstantPhoneme
p2848
(dp2849
S'p'
Vb
sbasg21
I00
sg22
Nsg23
I00
sg24
S'R'
sbsg35
(irule
FeatureMatrix
p2850
(dp2851
g28
(lp2852
(I01
g2588
tp2853
asg22
Nsbsg22
Nsba(irule
Rule
p2854
(dp2855
g15
(irule
Guard
p2856
(dp2857
g18
I00
sg19
(lp2858
sg21
I00
sg22
Nsg23
I00
sg24
S'L'
sbsg25
(irule
FeatureMatrix
p2859
(dp2860
g28
(lp2861
(I01
g2480
tp2862
asg22
Nsbsg31
(irule
Guard
p2863
(dp2864
g18
I00
sg19
(lp2865
(irule
ConstantPhoneme
p2866
(dp2867
S'p'
Vb
sbasg21
I00
sg22
Nsg23
I00
sg24
S'R'
sbsg35
(irule
FeatureMatrix
p2868
(dp2869
g28
(lp2870
(I00
g2731
tp2871
asg22
Nsbsg22
Nsba(irule
Rule
p2872
(dp2873
g15
(irule
Guard
p2874
(dp2875
g18
I00
sg19
(lp2876
sg21
I00
sg22
Nsg23
I00
sg24
S'L'
sbsg25
(irule
FeatureMatrix
p2877
(dp2878
g28
(lp2879
(I01
g2480
tp2880
asg22
Nsbsg31
(irule
Guard
p2881
(dp2882
g18
I00
sg19
(lp2883
(irule
ConstantPhoneme
p2884
(dp2885
S'p'
Vb
sbasg21
I00
sg22
Nsg23
I00
sg24
S'R'
sbsg35
(irule
FeatureMatrix
p2886
(dp2887
g28
(lp2888
(I00
S'high'
p2889
tp2890
asg22
Nsbsg22
Nsba(irule
Rule
p2891
(dp2892
g15
(irule
Guard
p2893
(dp2894
g18
I00
sg19
(lp2895
sg21
I00
sg22
Nsg23
I00
sg24
S'L'
sbsg25
(irule
ConstantPhoneme
p2896
(dp2897
S'p'
Vd
sbsg31
(irule
Guard
p2898
(dp2899
g18
I00
sg19
(lp2900
(irule
ConstantPhoneme
p2901
(dp2902
S'p'
Vb
sbasg21
I00
sg22
Nsg23
I00
sg24
S'R'
sbsg35
(irule
FeatureMatrix
p2903
(dp2904
g28
(lp2905
(I00
g2480
tp2906
asg22
Nsbsg22
Nsba(irule
Rule
p2907
(dp2908
g15
(irule
Guard
p2909
(dp2910
g18
I00
sg19
(lp2911
sg21
I00
sg22
Nsg23
I00
sg24
S'L'
sbsg25
(irule
FeatureMatrix
p2912
(dp2913
g28
(lp2914
(I01
g2480
tp2915
asg22
Nsbsg31
(irule
Guard
p2916
(dp2917
g18
I00
sg19
(lp2918
(irule
ConstantPhoneme
p2919
(dp2920
S'p'
Vb
sbasg21
I00
sg22
Nsg23
I00
sg24
S'R'
sbsg35
(irule
FeatureMatrix
p2921
(dp2922
g28
(lp2923
(I00
g2524
tp2924
asg22
Nsbsg22
Nsba(irule
Rule
p2925
(dp2926
g15
(irule
Guard
p2927
(dp2928
g18
I00
sg19
(lp2929
sg21
I00
sg22
Nsg23
I00
sg24
S'L'
sbsg25
(irule
FeatureMatrix
p2930
(dp2931
g28
(lp2932
(I01
g2480
tp2933
asg22
Nsbsg31
(irule
Guard
p2934
(dp2935
g18
I00
sg19
(lp2936
(irule
ConstantPhoneme
p2937
(dp2938
S'p'
Vb
sbasg21
I00
sg22
Nsg23
I00
sg24
S'R'
sbsg35
(irule
FeatureMatrix
p2939
(dp2940
g28
(lp2941
(I00
g2498
tp2942
asg22
Nsbsg22
Nsba(irule
Rule
p2943
(dp2944
g15
(irule
Guard
p2945
(dp2946
g18
I00
sg19
(lp2947
sg21
I00
sg22
Nsg23
I00
sg24
S'L'
sbsg25
(irule
FeatureMatrix
p2948
(dp2949
g28
(lp2950
(I01
g2480
tp2951
asg22
Nsbsg31
(irule
Guard
p2952
(dp2953
g18
I00
sg19
(lp2954
(irule
ConstantPhoneme
p2955
(dp2956
S'p'
Vb
sbasg21
I00
sg22
Nsg23
I00
sg24
S'R'
sbsg35
(irule
FeatureMatrix
p2957
(dp2958
g28
(lp2959
(I00
g2769
tp2960
asg22
Nsbsg22
Nsba(irule
Rule
p2961
(dp2962
g15
(irule
Guard
p2963
(dp2964
g18
I00
sg19
(lp2965
sg21
I00
sg22
Nsg23
I00
sg24
S'L'
sbsg25
(irule
FeatureMatrix
p2966
(dp2967
g28
(lp2968
(I01
g2480
tp2969
asg22
Nsbsg31
(irule
Guard
p2970
(dp2971
g18
I00
sg19
(lp2972
(irule
ConstantPhoneme
p2973
(dp2974
S'p'
Vb
sbasg21
I00
sg22
Nsg23
I00
sg24
S'R'
sbsg35
(irule
FeatureMatrix
p2975
(dp2976
g28
(lp2977
(I01
g2545
tp2978
asg22
Nsbsg22
Nsba(irule
Rule
p2979
(dp2980
g15
(irule
Guard
p2981
(dp2982
g18
I00
sg19
(lp2983
sg21
I00
sg22
Nsg23
I00
sg24
S'L'
sbsg25
(irule
FeatureMatrix
p2984
(dp2985
g28
(lp2986
(I01
g2480
tp2987
asg22
Nsbsg31
(irule
Guard
p2988
(dp2989
g18
I00
sg19
(lp2990
(irule
ConstantPhoneme
p2991
(dp2992
S'p'
Vb
sbasg21
I00
sg22
Nsg23
I00
sg24
S'R'
sbsg35
(irule
FeatureMatrix
p2993
(dp2994
g28
(lp2995
(I00
g2478
tp2996
asg22
Nsbsg22
Nsba(irule
Rule
p2997
(dp2998
g15
(irule
Guard
p2999
(dp3000
g18
I00
sg19
(lp3001
sg21
I00
sg22
Nsg23
I00
sg24
S'L'
sbsg25
(irule
FeatureMatrix
p3002
(dp3003
g28
(lp3004
(I01
g2480
tp3005
asg22
Nsbsg31
(irule
Guard
p3006
(dp3007
g18
I00
sg19
(lp3008
(irule
ConstantPhoneme
p3009
(dp3010
S'p'
Vb
sbasg21
I00
sg22
Nsg23
I00
sg24
S'R'
sbsg35
(irule
FeatureMatrix
p3011
(dp3012
g28
(lp3013
(I00
S'rounded'
p3014
tp3015
asg22
Nsbsg22
Nsba(irule
Rule
p3016
(dp3017
g15
(irule
Guard
p3018
(dp3019
g18
I00
sg19
(lp3020
sg21
I00
sg22
Nsg23
I00
sg24
S'L'
sbsg25
(irule
ConstantPhoneme
p3021
(dp3022
S'p'
Vd
sbsg31
(irule
Guard
p3023
(dp3024
g18
I00
sg19
(lp3025
(irule
ConstantPhoneme
p3026
(dp3027
S'p'
Vb
sbasg21
I00
sg22
Nsg23
I00
sg24
S'R'
sbsg35
(irule
FeatureMatrix
p3028
(dp3029
g28
(lp3030
(I00
g2524
tp3031
asg22
Nsbsg22
Nsba(irule
Rule
p3032
(dp3033
g15
(irule
Guard
p3034
(dp3035
g18
I00
sg19
(lp3036
sg21
I00
sg22
Nsg23
I00
sg24
S'L'
sbsg25
(irule
ConstantPhoneme
p3037
(dp3038
S'p'
Vd
sbsg31
(irule
Guard
p3039
(dp3040
g18
I00
sg19
(lp3041
(irule
ConstantPhoneme
p3042
(dp3043
S'p'
Vb
sbasg21
I00
sg22
Nsg23
I00
sg24
S'R'
sbsg35
(irule
ConstantPhoneme
p3044
(dp3045
S'p'
Vt
sbsg22
Nsba(irule
Rule
p3046
(dp3047
g15
(irule
Guard
p3048
(dp3049
g18
I00
sg19
(lp3050
sg21
I00
sg22
Nsg23
I00
sg24
S'L'
sbsg25
(irule
FeatureMatrix
p3051
(dp3052
g28
(lp3053
(I00
g2478
tp3054
a(I01
g2480
tp3055
asg22
Nsbsg31
(irule
Guard
p3056
(dp3057
g18
I00
sg19
(lp3058
(irule
FeatureMatrix
p3059
(dp3060
g28
(lp3061
(I01
g2545
tp3062
a(I01
g2480
tp3063
asg22
Nsbasg21
I00
sg22
Nsg23
I00
sg24
S'R'
sbsg35
(irule
FeatureMatrix
p3064
(dp3065
g28
(lp3066
sg22
Nsbsg22
Nsba(irule
Rule
p3067
(dp3068
g15
(irule
Guard
p3069
(dp3070
g18
I00
sg19
(lp3071
sg21
I00
sg22
Nsg23
I00
sg24
S'L'
sbsg25
(irule
FeatureMatrix
p3072
(dp3073
g28
(lp3074
(I01
g2480
tp3075
asg22
Nsbsg31
(irule
Guard
p3076
(dp3077
g18
I00
sg19
(lp3078
(irule
FeatureMatrix
p3079
(dp3080
g28
(lp3081
sg22
Nsba(irule
ConstantPhoneme
p3082
(dp3083
S'p'
Vb
sbasg21
I00
sg22
Nsg23
I01
sg24
S'R'
sbsg35
(irule
FeatureMatrix
p3084
(dp3085
g28
(lp3086
sg22
Nsbsg22
Nsba(irule
Rule
p3087
(dp3088
g15
(irule
Guard
p3089
(dp3090
g18
I00
sg19
(lp3091
sg21
I00
sg22
Nsg23
I00
sg24
S'L'
sbsg25
(irule
FeatureMatrix
p3092
(dp3093
g28
(lp3094
(I01
g2480
tp3095
asg22
Nsbsg31
(irule
Guard
p3096
(dp3097
g18
I00
sg19
(lp3098
(irule
FeatureMatrix
p3099
(dp3100
g28
(lp3101
sg22
Nsba(irule
ConstantPhoneme
p3102
(dp3103
S'p'
Vd
sbasg21
I00
sg22
Nsg23
I01
sg24
S'R'
sbsg35
(irule
FeatureMatrix
p3104
(dp3105
g28
(lp3106
sg22
Nsbsg22
Nsba(irule
Rule
p3107
(dp3108
g15
(irule
Guard
p3109
(dp3110
g18
I00
sg19
(lp3111
sg21
I00
sg22
Nsg23
I00
sg24
S'L'
sbsg25
(irule
FeatureMatrix
p3112
(dp3113
g28
(lp3114
(I00
g2731
tp3115
a(I00
g2712
tp3116
a(I01
g2480
tp3117
asg22
Nsbsg31
(irule
Guard
p3118
(dp3119
g18
I00
sg19
(lp3120
(irule
ConstantPhoneme
p3121
(dp3122
S'p'
Vb
sbasg21
I00
sg22
Nsg23
I00
sg24
S'R'
sbsg35
(irule
FeatureMatrix
p3123
(dp3124
g28
(lp3125
sg22
Nsbsg22
Nsba(irule
Rule
p3126
(dp3127
g15
(irule
Guard
p3128
(dp3129
g18
I00
sg19
(lp3130
sg21
I00
sg22
Nsg23
I00
sg24
S'L'
sbsg25
(irule
FeatureMatrix
p3131
(dp3132
g28
(lp3133
(I00
g2478
tp3134
a(I01
g2480
tp3135
asg22
Nsbsg31
(irule
Guard
p3136
(dp3137
g18
I00
sg19
(lp3138
(irule
FeatureMatrix
p3139
(dp3140
g28
(lp3141
(I00
g2524
tp3142
a(I01
g2480
tp3143
asg22
Nsbasg21
I00
sg22
Nsg23
I00
sg24
S'R'
sbsg35
(irule
FeatureMatrix
p3144
(dp3145
g28
(lp3146
sg22
Nsbsg22
Nsba(irule
Rule
p3147
(dp3148
g15
(irule
Guard
p3149
(dp3150
g18
I00
sg19
(lp3151
sg21
I00
sg22
Nsg23
I00
sg24
S'L'
sbsg25
(irule
FeatureMatrix
p3152
(dp3153
g28
(lp3154
(I00
g2498
tp3155
a(I01
g2480
tp3156
asg22
Nsbsg31
(irule
Guard
p3157
(dp3158
g18
I00
sg19
(lp3159
(irule
FeatureMatrix
p3160
(dp3161
g28
(lp3162
(I00
g2524
tp3163
a(I01
g2480
tp3164
asg22
Nsbasg21
I00
sg22
Nsg23
I00
sg24
S'R'
sbsg35
(irule
FeatureMatrix
p3165
(dp3166
g28
(lp3167
sg22
Nsbsg22
Nsba(irule
Rule
p3168
(dp3169
g15
(irule
Guard
p3170
(dp3171
g18
I00
sg19
(lp3172
sg21
I00
sg22
Nsg23
I00
sg24
S'L'
sbsg25
(irule
FeatureMatrix
p3173
(dp3174
g28
(lp3175
(I01
g2480
tp3176
asg22
Nsbsg31
(irule
Guard
p3177
(dp3178
g18
I00
sg19
(lp3179
(irule
FeatureMatrix
p3180
(dp3181
g28
(lp3182
(I00
g2524
tp3183
a(I00
g2588
tp3184
a(I01
g2480
tp3185
asg22
Nsbasg21
I00
sg22
Nsg23
I00
sg24
S'R'
sbsg35
(irule
FeatureMatrix
p3186
(dp3187
g28
(lp3188
sg22
Nsbsg22
Nsba(irule
Rule
p3189
(dp3190
g15
(irule
Guard
p3191
(dp3192
g18
I00
sg19
(lp3193
sg21
I00
sg22
Nsg23
I00
sg24
S'L'
sbsg25
(irule
FeatureMatrix
p3194
(dp3195
g28
(lp3196
(I01
g2480
tp3197
asg22
Nsbsg31
(irule
Guard
p3198
(dp3199
g18
I00
sg19
(lp3200
(irule
FeatureMatrix
p3201
(dp3202
g28
(lp3203
(I00
g2478
tp3204
a(I00
g2524
tp3205
a(I01
g2480
tp3206
asg22
Nsbasg21
I00
sg22
Nsg23
I00
sg24
S'R'
sbsg35
(irule
FeatureMatrix
p3207
(dp3208
g28
(lp3209
sg22
Nsbsg22
Nsba(irule
Rule
p3210
(dp3211
g15
(irule
Guard
p3212
(dp3213
g18
I00
sg19
(lp3214
sg21
I00
sg22
Nsg23
I00
sg24
S'L'
sbsg25
(irule
FeatureMatrix
p3215
(dp3216
g28
(lp3217
(I00
g2731
tp3218
a(I01
g2480
tp3219
asg22
Nsbsg31
(irule
Guard
p3220
(dp3221
g18
I00
sg19
(lp3222
(irule
FeatureMatrix
p3223
(dp3224
g28
(lp3225
(I01
g2545
tp3226
a(I01
g2480
tp3227
asg22
Nsbasg21
I00
sg22
Nsg23
I00
sg24
S'R'
sbsg35
(irule
FeatureMatrix
p3228
(dp3229
g28
(lp3230
sg22
Nsbsg22
Nsba(irule
Rule
p3231
(dp3232
g15
(irule
Guard
p3233
(dp3234
g18
I00
sg19
(lp3235
sg21
I00
sg22
Nsg23
I00
sg24
S'L'
sbsg25
(irule
FeatureMatrix
p3236
(dp3237
g28
(lp3238
(I01
g2545
tp3239
a(I01
g2480
tp3240
asg22
Nsbsg31
(irule
Guard
p3241
(dp3242
g18
I00
sg19
(lp3243
(irule
ConstantPhoneme
p3244
(dp3245
S'p'
Vb
sbasg21
I00
sg22
Nsg23
I00
sg24
S'R'
sbsg35
(irule
FeatureMatrix
p3246
(dp3247
g28
(lp3248
(I00
g2480
tp3249
asg22
Nsbsg22
Nsba(irule
Rule
p3250
(dp3251
g15
(irule
Guard
p3252
(dp3253
g18
I00
sg19
(lp3254
sg21
I00
sg22
Nsg23
I00
sg24
S'L'
sbsg25
(irule
FeatureMatrix
p3255
(dp3256
g28
(lp3257
(I01
g2480
tp3258
asg22
Nsbsg31
(irule
Guard
p3259
(dp3260
g18
I00
sg19
(lp3261
(irule
FeatureMatrix
p3262
(dp3263
g28
(lp3264
(I00
g2478
tp3265
a(I00
g2834
tp3266
a(I01
g2480
tp3267
asg22
Nsbasg21
I00
sg22
Nsg23
I00
sg24
S'R'
sbsg35
(irule
FeatureMatrix
p3268
(dp3269
g28
(lp3270
sg22
Nsbsg22
Nsba(irule
Rule
p3271
(dp3272
g15
(irule
Guard
p3273
(dp3274
g18
I00
sg19
(lp3275
sg21
I00
sg22
Nsg23
I00
sg24
S'L'
sbsg25
(irule
FeatureMatrix
p3276
(dp3277
g28
(lp3278
(I00
g2478
tp3279
a(I00
g2498
tp3280
a(I01
g2480
tp3281
asg22
Nsbsg31
(irule
Guard
p3282
(dp3283
g18
I00
sg19
(lp3284
(irule
ConstantPhoneme
p3285
(dp3286
S'p'
Vb
sbasg21
I00
sg22
Nsg23
I00
sg24
S'R'
sbsg35
(irule
FeatureMatrix
p3287
(dp3288
g28
(lp3289
sg22
Nsbsg22
Nsba(irule
Rule
p3290
(dp3291
g15
(irule
Guard
p3292
(dp3293
g18
I00
sg19
(lp3294
sg21
I00
sg22
Nsg23
I00
sg24
S'L'
sbsg25
(irule
FeatureMatrix
p3295
(dp3296
g28
(lp3297
(I01
g2480
tp3298
asg22
Nsbsg31
(irule
Guard
p3299
(dp3300
g18
I00
sg19
(lp3301
(irule
FeatureMatrix
p3302
(dp3303
g28
(lp3304
(I00
g2524
tp3305
a(I00
g2769
tp3306
a(I01
g2480
tp3307
asg22
Nsbasg21
I00
sg22
Nsg23
I00
sg24
S'R'
sbsg35
(irule
FeatureMatrix
p3308
(dp3309
g28
(lp3310
sg22
Nsbsg22
Nsba(irule
Rule
p3311
(dp3312
g15
(irule
Guard
p3313
(dp3314
g18
I00
sg19
(lp3315
sg21
I00
sg22
Nsg23
I00
sg24
S'L'
sbsg25
(irule
FeatureMatrix
p3316
(dp3317
g28
(lp3318
(I01
g2480
tp3319
asg22
Nsbsg31
(irule
Guard
p3320
(dp3321
g18
I00
sg19
(lp3322
(irule
FeatureMatrix
p3323
(dp3324
g28
(lp3325
(I01
g2545
tp3326
a(I00
g2702
tp3327
a(I01
g2480
tp3328
asg22
Nsbasg21
I00
sg22
Nsg23
I00
sg24
S'R'
sbsg35
(irule
FeatureMatrix
p3329
(dp3330
g28
(lp3331
sg22
Nsbsg22
Nsba(irule
Rule
p3332
(dp3333
g15
(irule
Guard
p3334
(dp3335
g18
I00
sg19
(lp3336
sg21
I00
sg22
Nsg23
I00
sg24
S'L'
sbsg25
(irule
FeatureMatrix
p3337
(dp3338
g28
(lp3339
(I01
g2480
tp3340
asg22
Nsbsg31
(irule
Guard
p3341
(dp3342
g18
I00
sg19
(lp3343
(irule
FeatureMatrix
p3344
(dp3345
g28
(lp3346
(I00
g3014
tp3347
a(I00
g2524
tp3348
a(I01
g2480
tp3349
asg22
Nsbasg21
I00
sg22
Nsg23
I00
sg24
S'R'
sbsg35
(irule
FeatureMatrix
p3350
(dp3351
g28
(lp3352
sg22
Nsbsg22
Nsba(irule
Rule
p3353
(dp3354
g15
(irule
Guard
p3355
(dp3356
g18
I00
sg19
(lp3357
sg21
I00
sg22
Nsg23
I00
sg24
S'L'
sbsg25
(irule
FeatureMatrix
p3358
(dp3359
g28
(lp3360
(I01
g2480
tp3361
asg22
Nsbsg31
(irule
Guard
p3362
(dp3363
g18
I00
sg19
(lp3364
(irule
FeatureMatrix
p3365
(dp3366
g28
(lp3367
(I00
g2566
tp3368
a(I01
g2480
tp3369
asg22
Nsbasg21
I00
sg22
Nsg23
I00
sg24
S'R'
sbsg35
(irule
FeatureMatrix
p3370
(dp3371
g28
(lp3372
(I01
g2545
tp3373
asg22
Nsbsg22
Nsba(irule
Rule
p3374
(dp3375
g15
(irule
Guard
p3376
(dp3377
g18
I00
sg19
(lp3378
sg21
I00
sg22
Nsg23
I00
sg24
S'L'
sbsg25
(irule
FeatureMatrix
p3379
(dp3380
g28
(lp3381
(I00
g2478
tp3382
a(I01
g2480
tp3383
asg22
Nsbsg31
(irule
Guard
p3384
(dp3385
g18
I00
sg19
(lp3386
(irule
FeatureMatrix
p3387
(dp3388
g28
(lp3389
(I01
g2545
tp3390
a(I00
g2588
tp3391
asg22
Nsbasg21
I00
sg22
Nsg23
I00
sg24
S'R'
sbsg35
(irule
FeatureMatrix
p3392
(dp3393
g28
(lp3394
sg22
Nsbsg22
Nsba(irule
Rule
p3395
(dp3396
g15
(irule
Guard
p3397
(dp3398
g18
I00
sg19
(lp3399
sg21
I00
sg22
Nsg23
I00
sg24
S'L'
sbsg25
(irule
FeatureMatrix
p3400
(dp3401
g28
(lp3402
(I00
g2478
tp3403
a(I01
g2480
tp3404
asg22
Nsbsg31
(irule
Guard
p3405
(dp3406
g18
I00
sg19
(lp3407
(irule
FeatureMatrix
p3408
(dp3409
g28
(lp3410
(I00
g2566
tp3411
a(I01
g2480
tp3412
asg22
Nsbasg21
I00
sg22
Nsg23
I00
sg24
S'R'
sbsg35
(irule
FeatureMatrix
p3413
(dp3414
g28
(lp3415
sg22
Nsbsg22
Nsba(irule
Rule
p3416
(dp3417
g15
(irule
Guard
p3418
(dp3419
g18
I00
sg19
(lp3420
sg21
I00
sg22
Nsg23
I00
sg24
S'L'
sbsg25
(irule
FeatureMatrix
p3421
(dp3422
g28
(lp3423
(I00
g2731
tp3424
a(I01
g2480
tp3425
asg22
Nsbsg31
(irule
Guard
p3426
(dp3427
g18
I00
sg19
(lp3428
(irule
FeatureMatrix
p3429
(dp3430
g28
(lp3431
(I00
g2524
tp3432
a(I01
g2480
tp3433
asg22
Nsbasg21
I00
sg22
Nsg23
I00
sg24
S'R'
sbsg35
(irule
FeatureMatrix
p3434
(dp3435
g28
(lp3436
sg22
Nsbsg22
Nsba(irule
Rule
p3437
(dp3438
g15
(irule
Guard
p3439
(dp3440
g18
I00
sg19
(lp3441
sg21
I00
sg22
Nsg23
I00
sg24
S'L'
sbsg25
(irule
FeatureMatrix
p3442
(dp3443
g28
(lp3444
(I01
g2480
tp3445
asg22
Nsbsg31
(irule
Guard
p3446
(dp3447
g18
I00
sg19
(lp3448
(irule
FeatureMatrix
p3449
(dp3450
g28
(lp3451
(I01
g2545
tp3452
asg22
Nsba(irule
ConstantPhoneme
p3453
(dp3454
S'p'
Va
sbasg21
I00
sg22
Nsg23
I00
sg24
S'R'
sbsg35
(irule
FeatureMatrix
p3455
(dp3456
g28
(lp3457
sg22
Nsbsg22
Nsba(irule
Rule
p3458
(dp3459
g15
(irule
Guard
p3460
(dp3461
g18
I00
sg19
(lp3462
sg21
I00
sg22
Nsg23
I00
sg24
S'L'
sbsg25
(irule
FeatureMatrix
p3463
(dp3464
g28
(lp3465
(I01
g2480
tp3466
asg22
Nsbsg31
(irule
Guard
p3467
(dp3468
g18
I00
sg19
(lp3469
(irule
FeatureMatrix
p3470
(dp3471
g28
(lp3472
(I00
g2524
tp3473
a(I00
g2498
tp3474
a(I01
g2480
tp3475
asg22
Nsbasg21
I00
sg22
Nsg23
I00
sg24
S'R'
sbsg35
(irule
FeatureMatrix
p3476
(dp3477
g28
(lp3478
sg22
Nsbsg22
Nsba(irule
Rule
p3479
(dp3480
g15
(irule
Guard
p3481
(dp3482
g18
I00
sg19
(lp3483
sg21
I00
sg22
Nsg23
I00
sg24
S'L'
sbsg25
(irule
FeatureMatrix
p3484
(dp3485
g28
(lp3486
(I01
g2480
tp3487
asg22
Nsbsg31
(irule
Guard
p3488
(dp3489
g18
I00
sg19
(lp3490
(irule
ConstantPhoneme
p3491
(dp3492
S'p'
Vb
sbasg21
I00
sg22
Nsg23
I00
sg24
S'R'
sbsg35
(irule
FeatureMatrix
p3493
(dp3494
g28
(lp3495
(I01
g2588
tp3496
a(I00
g2834
tp3497
asg22
Nsbsg22
Nsba(irule
Rule
p3498
(dp3499
g15
(irule
Guard
p3500
(dp3501
g18
I00
sg19
(lp3502
sg21
I00
sg22
Nsg23
I00
sg24
S'L'
sbsg25
(irule
FeatureMatrix
p3503
(dp3504
g28
(lp3505
(I00
g3014
tp3506
a(I01
g2480
tp3507
asg22
Nsbsg31
(irule
Guard
p3508
(dp3509
g18
I00
sg19
(lp3510
(irule
ConstantPhoneme
p3511
(dp3512
S'p'
Vb
sbasg21
I00
sg22
Nsg23
I00
sg24
S'R'
sbsg35
(irule
FeatureMatrix
p3513
(dp3514
g28
(lp3515
(I00
g2480
tp3516
asg22
Nsbsg22
Nsba(irule
Rule
p3517
(dp3518
g15
(irule
Guard
p3519
(dp3520
g18
I00
sg19
(lp3521
sg21
I00
sg22
Nsg23
I00
sg24
S'L'
sbsg25
(irule
FeatureMatrix
p3522
(dp3523
g28
(lp3524
(I00
g2731
tp3525
a(I01
g2480
tp3526
asg22
Nsbsg31
(irule
Guard
p3527
(dp3528
g18
I00
sg19
(lp3529
(irule
FeatureMatrix
p3530
(dp3531
g28
(lp3532
(I00
g2566
tp3533
a(I01
g2480
tp3534
asg22
Nsbasg21
I00
sg22
Nsg23
I00
sg24
S'R'
sbsg35
(irule
FeatureMatrix
p3535
(dp3536
g28
(lp3537
sg22
Nsbsg22
Nsba(irule
Rule
p3538
(dp3539
g15
(irule
Guard
p3540
(dp3541
g18
I00
sg19
(lp3542
sg21
I00
sg22
Nsg23
I00
sg24
S'L'
sbsg25
(irule
FeatureMatrix
p3543
(dp3544
g28
(lp3545
(I01
g2480
tp3546
asg22
Nsbsg31
(irule
Guard
p3547
(dp3548
g18
I00
sg19
(lp3549
(irule
FeatureMatrix
p3550
(dp3551
g28
(lp3552
(I00
g2759
tp3553
asg22
Nsba(irule
ConstantPhoneme
p3554
(dp3555
S'p'
Va
sbasg21
I00
sg22
Nsg23
I00
sg24
S'R'
sbsg35
(irule
FeatureMatrix
p3556
(dp3557
g28
(lp3558
sg22
Nsbsg22
Nsba(irule
Rule
p3559
(dp3560
g15
(irule
Guard
p3561
(dp3562
g18
I00
sg19
(lp3563
sg21
I00
sg22
Nsg23
I00
sg24
S'L'
sbsg25
(irule
FeatureMatrix
p3564
(dp3565
g28
(lp3566
(I00
g2524
tp3567
a(I01
g2480
tp3568
asg22
Nsbsg31
(irule
Guard
p3569
(dp3570
g18
I00
sg19
(lp3571
(irule
ConstantPhoneme
p3572
(dp3573
S'p'
Vb
sbasg21
I00
sg22
Nsg23
I00
sg24
S'R'
sbsg35
(irule
FeatureMatrix
p3574
(dp3575
g28
(lp3576
(I00
g2480
tp3577
asg22
Nsbsg22
Nsba(irule
Rule
p3578
(dp3579
g15
(irule
Guard
p3580
(dp3581
g18
I00
sg19
(lp3582
sg21
I00
sg22
Nsg23
I00
sg24
S'L'
sbsg25
(irule
FeatureMatrix
p3583
(dp3584
g28
(lp3585
(I01
g2480
tp3586
asg22
Nsbsg31
(irule
Guard
p3587
(dp3588
g18
I00
sg19
(lp3589
(irule
FeatureMatrix
p3590
(dp3591
g28
(lp3592
(I00
g2524
tp3593
a(I00
g2566
tp3594
a(I01
g2480
tp3595
asg22
Nsbasg21
I00
sg22
Nsg23
I00
sg24
S'R'
sbsg35
(irule
FeatureMatrix
p3596
(dp3597
g28
(lp3598
sg22
Nsbsg22
Nsba(irule
Rule
p3599
(dp3600
g15
(irule
Guard
p3601
(dp3602
g18
I00
sg19
(lp3603
(irule
FeatureMatrix
p3604
(dp3605
g28
(lp3606
sg22
Nsbasg21
I00
sg22
Nsg23
I00
sg24
S'L'
sbsg25
(irule
FeatureMatrix
p3607
(dp3608
g28
(lp3609
(I01
g2480
tp3610
asg22
Nsbsg31
(irule
Guard
p3611
(dp3612
g18
I00
sg19
(lp3613
(irule
ConstantPhoneme
p3614
(dp3615
S'p'
Vb
sba(irule
FeatureMatrix
p3616
(dp3617
g28
(lp3618
sg22
Nsbasg21
I00
sg22
Nsg23
I00
sg24
S'R'
sbsg35
(irule
FeatureMatrix
p3619
(dp3620
g28
(lp3621
sg22
Nsbsg22
Nsba(irule
Rule
p3622
(dp3623
g15
(irule
Guard
p3624
(dp3625
g18
I00
sg19
(lp3626
sg21
I00
sg22
Nsg23
I00
sg24
S'L'
sbsg25
(irule
FeatureMatrix
p3627
(dp3628
g28
(lp3629
(I00
g2769
tp3630
a(I01
g2480
tp3631
asg22
Nsbsg31
(irule
Guard
p3632
(dp3633
g18
I00
sg19
(lp3634
(irule
FeatureMatrix
p3635
(dp3636
g28
(lp3637
(I00
g2524
tp3638
a(I01
g2480
tp3639
asg22
Nsbasg21
I00
sg22
Nsg23
I00
sg24
S'R'
sbsg35
(irule
FeatureMatrix
p3640
(dp3641
g28
(lp3642
sg22
Nsbsg22
Nsba(irule
Rule
p3643
(dp3644
g15
(irule
Guard
p3645
(dp3646
g18
I00
sg19
(lp3647
(irule
FeatureMatrix
p3648
(dp3649
g28
(lp3650
sg22
Nsbasg21
I00
sg22
Nsg23
I00
sg24
S'L'
sbsg25
(irule
FeatureMatrix
p3651
(dp3652
g28
(lp3653
(I01
g2480
tp3654
asg22
Nsbsg31
(irule
Guard
p3655
(dp3656
g18
I00
sg19
(lp3657
(irule
FeatureMatrix
p3658
(dp3659
g28
(lp3660
(I00
g2524
tp3661
a(I01
g2480
tp3662
asg22
Nsbasg21
I00
sg22
Nsg23
I00
sg24
S'R'
sbsg35
(irule
FeatureMatrix
p3663
(dp3664
g28
(lp3665
sg22
Nsbsg22
Nsba(irule
Rule
p3666
(dp3667
g15
(irule
Guard
p3668
(dp3669
g18
I00
sg19
(lp3670
sg21
I00
sg22
Nsg23
I00
sg24
S'L'
sbsg25
(irule
FeatureMatrix
p3671
(dp3672
g28
(lp3673
(I01
g2480
tp3674
asg22
Nsbsg31
(irule
Guard
p3675
(dp3676
g18
I00
sg19
(lp3677
(irule
FeatureMatrix
p3678
(dp3679
g28
(lp3680
(I00
g2524
tp3681
a(I01
g2480
tp3682
asg22
Nsbasg21
I00
sg22
Nsg23
I00
sg24
S'R'
sbsg35
(irule
FeatureMatrix
p3683
(dp3684
g28
(lp3685
(I01
g2545
tp3686
asg22
Nsbsg22
Nsba(irule
Rule
p3687
(dp3688
g15
(irule
Guard
p3689
(dp3690
g18
I00
sg19
(lp3691
sg21
I00
sg22
Nsg23
I00
sg24
S'L'
sbsg25
(irule
FeatureMatrix
p3692
(dp3693
g28
(lp3694
(I01
g2480
tp3695
asg22
Nsbsg31
(irule
Guard
p3696
(dp3697
g18
I00
sg19
(lp3698
(irule
FeatureMatrix
p3699
(dp3700
g28
(lp3701
(I01
g2545
tp3702
a(I00
g2588
tp3703
a(I01
g2480
tp3704
asg22
Nsbasg21
I00
sg22
Nsg23
I00
sg24
S'R'
sbsg35
(irule
FeatureMatrix
p3705
(dp3706
g28
(lp3707
sg22
Nsbsg22
Nsba(irule
Rule
p3708
(dp3709
g15
(irule
Guard
p3710
(dp3711
g18
I00
sg19
(lp3712
sg21
I00
sg22
Nsg23
I00
sg24
S'L'
sbsg25
(irule
FeatureMatrix
p3713
(dp3714
g28
(lp3715
(I01
g2480
tp3716
asg22
Nsbsg31
(irule
Guard
p3717
(dp3718
g18
I00
sg19
(lp3719
(irule
FeatureMatrix
p3720
(dp3721
g28
(lp3722
(I01
g2545
tp3723
a(I01
g2480
tp3724
asg22
Nsbasg21
I00
sg22
Nsg23
I00
sg24
S'R'
sbsg35
(irule
FeatureMatrix
p3725
(dp3726
g28
(lp3727
(I01
g2545
tp3728
asg22
Nsbsg22
Nsba(irule
Rule
p3729
(dp3730
g15
(irule
Guard
p3731
(dp3732
g18
I00
sg19
(lp3733
sg21
I00
sg22
Nsg23
I00
sg24
S'L'
sbsg25
(irule
FeatureMatrix
p3734
(dp3735
g28
(lp3736
(I01
g2480
tp3737
asg22
Nsbsg31
(irule
Guard
p3738
(dp3739
g18
I00
sg19
(lp3740
(irule
FeatureMatrix
p3741
(dp3742
g28
(lp3743
(I00
g2524
tp3744
a(I01
g2480
tp3745
asg22
Nsbasg21
I00
sg22
Nsg23
I00
sg24
S'R'
sbsg35
(irule
FeatureMatrix
p3746
(dp3747
g28
(lp3748
(I00
g2524
tp3749
asg22
Nsbsg22
Nsba(irule
Rule
p3750
(dp3751
g15
(irule
Guard
p3752
(dp3753
g18
I00
sg19
(lp3754
sg21
I00
sg22
Nsg23
I00
sg24
S'L'
sbsg25
(irule
FeatureMatrix
p3755
(dp3756
g28
(lp3757
(I00
g2759
tp3758
a(I01
g2480
tp3759
asg22
Nsbsg31
(irule
Guard
p3760
(dp3761
g18
I00
sg19
(lp3762
(irule
ConstantPhoneme
p3763
(dp3764
S'p'
Vb
sbasg21
I00
sg22
Nsg23
I00
sg24
S'R'
sbsg35
(irule
FeatureMatrix
p3765
(dp3766
g28
(lp3767
(I00
g2480
tp3768
asg22
Nsbsg22
Nsba(irule
Rule
p3769
(dp3770
g15
(irule
Guard
p3771
(dp3772
g18
I00
sg19
(lp3773
sg21
I00
sg22
Nsg23
I00
sg24
S'L'
sbsg25
(irule
FeatureMatrix
p3774
(dp3775
g28
(lp3776
(I01
g2480
tp3777
asg22
Nsbsg31
(irule
Guard
p3778
(dp3779
g18
I00
sg19
(lp3780
(irule
FeatureMatrix
p3781
(dp3782
g28
(lp3783
(I01
g2545
tp3784
a(I00
g2731
tp3785
a(I01
g2480
tp3786
asg22
Nsbasg21
I00
sg22
Nsg23
I00
sg24
S'R'
sbsg35
(irule
FeatureMatrix
p3787
(dp3788
g28
(lp3789
sg22
Nsbsg22
Nsba(irule
Rule
p3790
(dp3791
g15
(irule
Guard
p3792
(dp3793
g18
I00
sg19
(lp3794
sg21
I00
sg22
Nsg23
I00
sg24
S'L'
sbsg25
(irule
FeatureMatrix
p3795
(dp3796
g28
(lp3797
(I01
g2480
tp3798
asg22
Nsbsg31
(irule
Guard
p3799
(dp3800
g18
I00
sg19
(lp3801
(irule
FeatureMatrix
p3802
(dp3803
g28
(lp3804
(I01
g2480
tp3805
asg22
Nsba(irule
ConstantPhoneme
p3806
(dp3807
S'p'
Va
sbasg21
I00
sg22
Nsg23
I00
sg24
S'R'
sbsg35
(irule
FeatureMatrix
p3808
(dp3809
g28
(lp3810
sg22
Nsbsg22
Nsba(irule
Rule
p3811
(dp3812
g15
(irule
Guard
p3813
(dp3814
g18
I00
sg19
(lp3815
sg21
I00
sg22
Nsg23
I00
sg24
S'L'
sbsg25
(irule
FeatureMatrix
p3816
(dp3817
g28
(lp3818
(I01
g2480
tp3819
asg22
Nsbsg31
(irule
Guard
p3820
(dp3821
g18
I00
sg19
(lp3822
(irule
FeatureMatrix
p3823
(dp3824
g28
(lp3825
(I01
g2545
tp3826
a(I00
g2524
tp3827
a(I00
g2588
tp3828
asg22
Nsbasg21
I00
sg22
Nsg23
I00
sg24
S'R'
sbsg35
(irule
FeatureMatrix
p3829
(dp3830
g28
(lp3831
sg22
Nsbsg22
Nsba(irule
Rule
p3832
(dp3833
g15
(irule
Guard
p3834
(dp3835
g18
I00
sg19
(lp3836
sg21
I00
sg22
Nsg23
I00
sg24
S'L'
sbsg25
(irule
FeatureMatrix
p3837
(dp3838
g28
(lp3839
(I00
g2731
tp3840
a(I01
g2480
tp3841
asg22
Nsbsg31
(irule
Guard
p3842
(dp3843
g18
I00
sg19
(lp3844
(irule
FeatureMatrix
p3845
(dp3846
g28
(lp3847
(I01
g2545
tp3848
a(I00
g2588
tp3849
asg22
Nsbasg21
I00
sg22
Nsg23
I00
sg24
S'R'
sbsg35
(irule
FeatureMatrix
p3850
(dp3851
g28
(lp3852
sg22
Nsbsg22
Nsba(irule
Rule
p3853
(dp3854
g15
(irule
Guard
p3855
(dp3856
g18
I00
sg19
(lp3857
sg21
I00
sg22
Nsg23
I00
sg24
S'L'
sbsg25
(irule
FeatureMatrix
p3858
(dp3859
g28
(lp3860
(I01
g2480
tp3861
asg22
Nsbsg31
(irule
Guard
p3862
(dp3863
g18
I00
sg19
(lp3864
(irule
FeatureMatrix
p3865
(dp3866
g28
(lp3867
(I01
g2545
tp3868
a(I00
g2834
tp3869
a(I01
g2480
tp3870
asg22
Nsbasg21
I00
sg22
Nsg23
I00
sg24
S'R'
sbsg35
(irule
FeatureMatrix
p3871
(dp3872
g28
(lp3873
sg22
Nsbsg22
Nsba(irule
Rule
p3874
(dp3875
g15
(irule
Guard
p3876
(dp3877
g18
I00
sg19
(lp3878
sg21
I00
sg22
Nsg23
I00
sg24
S'L'
sbsg25
(irule
FeatureMatrix
p3879
(dp3880
g28
(lp3881
(I01
g2480
tp3882
asg22
Nsbsg31
(irule
Guard
p3883
(dp3884
g18
I00
sg19
(lp3885
(irule
FeatureMatrix
p3886
(dp3887
g28
(lp3888
(I00
g2524
tp3889
a(I00
g2834
tp3890
a(I01
g2480
tp3891
asg22
Nsbasg21
I00
sg22
Nsg23
I00
sg24
S'R'
sbsg35
(irule
FeatureMatrix
p3892
(dp3893
g28
(lp3894
sg22
Nsbsg22
Nsba(irule
Rule
p3895
(dp3896
g15
(irule
Guard
p3897
(dp3898
g18
I00
sg19
(lp3899
sg21
I00
sg22
Nsg23
I00
sg24
S'L'
sbsg25
(irule
FeatureMatrix
p3900
(dp3901
g28
(lp3902
(I00
g2498
tp3903
a(I00
g2712
tp3904
a(I01
g2480
tp3905
asg22
Nsbsg31
(irule
Guard
p3906
(dp3907
g18
I00
sg19
(lp3908
(irule
ConstantPhoneme
p3909
(dp3910
S'p'
Vb
sbasg21
I00
sg22
Nsg23
I00
sg24
S'R'
sbsg35
(irule
FeatureMatrix
p3911
(dp3912
g28
(lp3913
sg22
Nsbsg22
Nsba(irule
Rule
p3914
(dp3915
g15
(irule
Guard
p3916
(dp3917
g18
I00
sg19
(lp3918
sg21
I00
sg22
Nsg23
I00
sg24
S'L'
sbsg25
(irule
FeatureMatrix
p3919
(dp3920
g28
(lp3921
(I01
g2480
tp3922
asg22
Nsbsg31
(irule
Guard
p3923
(dp3924
g18
I00
sg19
(lp3925
(irule
FeatureMatrix
p3926
(dp3927
g28
(lp3928
(I01
g2545
tp3929
a(I00
g2524
tp3930
asg22
Nsbasg21
I00
sg22
Nsg23
I00
sg24
S'R'
sbsg35
(irule
FeatureMatrix
p3931
(dp3932
g28
(lp3933
(I00
g2524
tp3934
asg22
Nsbsg22
Nsba(irule
Rule
p3935
(dp3936
g15
(irule
Guard
p3937
(dp3938
g18
I00
sg19
(lp3939
(irule
FeatureMatrix
p3940
(dp3941
g28
(lp3942
sg22
Nsbasg21
I00
sg22
Nsg23
I00
sg24
S'L'
sbsg25
(irule
FeatureMatrix
p3943
(dp3944
g28
(lp3945
(I00
g2478
tp3946
a(I01
g2480
tp3947
asg22
Nsbsg31
(irule
Guard
p3948
(dp3949
g18
I00
sg19
(lp3950
(irule
ConstantPhoneme
p3951
(dp3952
S'p'
Vb
sbasg21
I00
sg22
Nsg23
I00
sg24
S'R'
sbsg35
(irule
FeatureMatrix
p3953
(dp3954
g28
(lp3955
sg22
Nsbsg22
Nsba(irule
Rule
p3956
(dp3957
g15
(irule
Guard
p3958
(dp3959
g18
I00
sg19
(lp3960
sg21
I00
sg22
Nsg23
I00
sg24
S'L'
sbsg25
(irule
FeatureMatrix
p3961
(dp3962
g28
(lp3963
(I00
g2498
tp3964
a(I01
g2480
tp3965
asg22
Nsbsg31
(irule
Guard
p3966
(dp3967
g18
I00
sg19
(lp3968
(irule
ConstantPhoneme
p3969
(dp3970
S'p'
Vb
sbasg21
I00
sg22
Nsg23
I00
sg24
S'R'
sbsg35
(irule
FeatureMatrix
p3971
(dp3972
g28
(lp3973
(I00
g2480
tp3974
asg22
Nsbsg22
Nsba(irule
Rule
p3975
(dp3976
g15
(irule
Guard
p3977
(dp3978
g18
I00
sg19
(lp3979
sg21
I00
sg22
Nsg23
I00
sg24
S'L'
sbsg25
(irule
FeatureMatrix
p3980
(dp3981
g28
(lp3982
(I01
g2480
tp3983
asg22
Nsbsg31
(irule
Guard
p3984
(dp3985
g18
I00
sg19
(lp3986
(irule
FeatureMatrix
p3987
(dp3988
g28
(lp3989
(I00
g2524
tp3990
a(I00
g2815
tp3991
a(I01
g2480
tp3992
asg22
Nsbasg21
I00
sg22
Nsg23
I00
sg24
S'R'
sbsg35
(irule
FeatureMatrix
p3993
(dp3994
g28
(lp3995
sg22
Nsbsg22
Nsba(irule
Rule
p3996
(dp3997
g15
(irule
Guard
p3998
(dp3999
g18
I00
sg19
(lp4000
sg21
I00
sg22
Nsg23
I00
sg24
S'L'
sbsg25
(irule
FeatureMatrix
p4001
(dp4002
g28
(lp4003
(I01
g2480
tp4004
asg22
Nsbsg31
(irule
Guard
p4005
(dp4006
g18
I00
sg19
(lp4007
(irule
FeatureMatrix
p4008
(dp4009
g28
(lp4010
(I00
g2524
tp4011
a(I01
g2480
tp4012
asg22
Nsbasg21
I00
sg22
Nsg23
I00
sg24
S'R'
sbsg35
(irule
FeatureMatrix
p4013
(dp4014
g28
(lp4015
(I00
g2478
tp4016
asg22
Nsbsg22
Nsba(irule
Rule
p4017
(dp4018
g15
(irule
Guard
p4019
(dp4020
g18
I00
sg19
(lp4021
sg21
I00
sg22
Nsg23
I00
sg24
S'L'
sbsg25
(irule
FeatureMatrix
p4022
(dp4023
g28
(lp4024
(I00
g2769
tp4025
a(I01
g2480
tp4026
asg22
Nsbsg31
(irule
Guard
p4027
(dp4028
g18
I00
sg19
(lp4029
(irule
FeatureMatrix
p4030
(dp4031
g28
(lp4032
(I00
g2566
tp4033
a(I01
g2480
tp4034
asg22
Nsbasg21
I00
sg22
Nsg23
I00
sg24
S'R'
sbsg35
(irule
FeatureMatrix
p4035
(dp4036
g28
(lp4037
sg22
Nsbsg22
Nsba(irule
Rule
p4038
(dp4039
g15
(irule
Guard
p4040
(dp4041
g18
I00
sg19
(lp4042
sg21
I00
sg22
Nsg23
I00
sg24
S'L'
sbsg25
(irule
FeatureMatrix
p4043
(dp4044
g28
(lp4045
(I01
g2480
tp4046
asg22
Nsbsg31
(irule
Guard
p4047
(dp4048
g18
I00
sg19
(lp4049
(irule
FeatureMatrix
p4050
(dp4051
g28
(lp4052
(I00
g2889
tp4053
asg22
Nsba(irule
ConstantPhoneme
p4054
(dp4055
S'p'
Va
sbasg21
I00
sg22
Nsg23
I00
sg24
S'R'
sbsg35
(irule
FeatureMatrix
p4056
(dp4057
g28
(lp4058
sg22
Nsbsg22
Nsba(irule
Rule
p4059
(dp4060
g15
(irule
Guard
p4061
(dp4062
g18
I00
sg19
(lp4063
sg21
I00
sg22
Nsg23
I00
sg24
S'L'
sbsg25
(irule
FeatureMatrix
p4064
(dp4065
g28
(lp4066
(I01
g2480
tp4067
asg22
Nsbsg31
(irule
Guard
p4068
(dp4069
g18
I00
sg19
(lp4070
(irule
FeatureMatrix
p4071
(dp4072
g28
(lp4073
(I01
g2545
tp4074
a(I01
g2480
tp4075
asg22
Nsbasg21
I00
sg22
Nsg23
I00
sg24
S'R'
sbsg35
(irule
FeatureMatrix
p4076
(dp4077
g28
(lp4078
(I00
g2759
tp4079
asg22
Nsbsg22
Nsba(irule
Rule
p4080
(dp4081
g15
(irule
Guard
p4082
(dp4083
g18
I00
sg19
(lp4084
sg21
I00
sg22
Nsg23
I00
sg24
S'L'
sbsg25
(irule
FeatureMatrix
p4085
(dp4086
g28
(lp4087
(I01
g2480
tp4088
asg22
Nsbsg31
(irule
Guard
p4089
(dp4090
g18
I00
sg19
(lp4091
(irule
FeatureMatrix
p4092
(dp4093
g28
(lp4094
(I00
g2524
tp4095
a(I01
g2480
tp4096
asg22
Nsbasg21
I00
sg22
Nsg23
I00
sg24
S'R'
sbsg35
(irule
FeatureMatrix
p4097
(dp4098
g28
(lp4099
(I00
g2480
tp4100
asg22
Nsbsg22
Nsba(irule
Rule
p4101
(dp4102
g15
(irule
Guard
p4103
(dp4104
g18
I00
sg19
(lp4105
sg21
I00
sg22
Nsg23
I00
sg24
S'L'
sbsg25
(irule
FeatureMatrix
p4106
(dp4107
g28
(lp4108
(I01
g2480
tp4109
asg22
Nsbsg31
(irule
Guard
p4110
(dp4111
g18
I00
sg19
(lp4112
(irule
FeatureMatrix
p4113
(dp4114
g28
(lp4115
(I00
g2524
tp4116
a(I01
g2480
tp4117
asg22
Nsbasg21
I00
sg22
Nsg23
I00
sg24
S'R'
sbsg35
(irule
FeatureMatrix
p4118
(dp4119
g28
(lp4120
(I00
g2702
tp4121
asg22
Nsbsg22
Nsba(irule
Rule
p4122
(dp4123
g15
(irule
Guard
p4124
(dp4125
g18
I00
sg19
(lp4126
sg21
I00
sg22
Nsg23
I00
sg24
S'L'
sbsg25
(irule
FeatureMatrix
p4127
(dp4128
g28
(lp4129
(I01
g2480
tp4130
asg22
Nsbsg31
(irule
Guard
p4131
(dp4132
g18
I00
sg19
(lp4133
(irule
ConstantPhoneme
p4134
(dp4135
S'p'
Vb
sbasg21
I00
sg22
Nsg23
I00
sg24
S'R'
sbsg35
(irule
FeatureMatrix
p4136
(dp4137
g28
(lp4138
(I01
g2545
tp4139
a(I00
g2524
tp4140
asg22
Nsbsg22
Nsba(irule
Rule
p4141
(dp4142
g15
(irule
Guard
p4143
(dp4144
g18
I00
sg19
(lp4145
sg21
I00
sg22
Nsg23
I00
sg24
S'L'
sbsg25
(irule
FeatureMatrix
p4146
(dp4147
g28
(lp4148
(I01
g2480
tp4149
asg22
Nsbsg31
(irule
Guard
p4150
(dp4151
g18
I00
sg19
(lp4152
(irule
FeatureMatrix
p4153
(dp4154
g28
(lp4155
(I00
g2524
tp4156
a(I01
g2480
tp4157
asg22
Nsbasg21
I00
sg22
Nsg23
I00
sg24
S'R'
sbsg35
(irule
FeatureMatrix
p4158
(dp4159
g28
(lp4160
(I00
g2731
tp4161
asg22
Nsbsg22
Nsba(irule
Rule
p4162
(dp4163
g15
(irule
Guard
p4164
(dp4165
g18
I00
sg19
(lp4166
sg21
I00
sg22
Nsg23
I00
sg24
S'L'
sbsg25
(irule
ConstantPhoneme
p4167
(dp4168
S'p'
Vd
sbsg31
(irule
Guard
p4169
(dp4170
g18
I00
sg19
(lp4171
(irule
FeatureMatrix
p4172
(dp4173
g28
(lp4174
(I00
g2524
tp4175
a(I01
g2480
tp4176
asg22
Nsbasg21
I00
sg22
Nsg23
I00
sg24
S'R'
sbsg35
(irule
FeatureMatrix
p4177
(dp4178
g28
(lp4179
(I00
g2480
tp4180
asg22
Nsbsg22
Nsba(irule
Rule
p4181
(dp4182
g15
(irule
Guard
p4183
(dp4184
g18
I00
sg19
(lp4185
sg21
I00
sg22
Nsg23
I00
sg24
S'L'
sbsg25
(irule
FeatureMatrix
p4186
(dp4187
g28
(lp4188
(I01
g2480
tp4189
asg22
Nsbsg31
(irule
Guard
p4190
(dp4191
g18
I00
sg19
(lp4192
(irule
FeatureMatrix
p4193
(dp4194
g28
(lp4195
(I00
g2524
tp4196
a(I01
g2480
tp4197
asg22
Nsbasg21
I00
sg22
Nsg23
I00
sg24
S'R'
sbsg35
(irule
FeatureMatrix
p4198
(dp4199
g28
(lp4200
(I00
g2889
tp4201
asg22
Nsbsg22
Nsba(irule
Rule
p4202
(dp4203
g15
(irule
Guard
p4204
(dp4205
g18
I00
sg19
(lp4206
sg21
I00
sg22
Nsg23
I00
sg24
S'L'
sbsg25
(irule
FeatureMatrix
p4207
(dp4208
g28
(lp4209
(I01
g2480
tp4210
asg22
Nsbsg31
(irule
Guard
p4211
(dp4212
g18
I00
sg19
(lp4213
(irule
FeatureMatrix
p4214
(dp4215
g28
(lp4216
(I01
g2545
tp4217
asg22
Nsba(irule
FeatureMatrix
p4218
(dp4219
g28
(lp4220
(I01
g2712
tp4221
asg22
Nsbasg21
I00
sg22
Nsg23
I00
sg24
S'R'
sbsg35
(irule
FeatureMatrix
p4222
(dp4223
g28
(lp4224
sg22
Nsbsg22
Nsba(irule
Rule
p4225
(dp4226
g15
(irule
Guard
p4227
(dp4228
g18
I00
sg19
(lp4229
sg21
I00
sg22
Nsg23
I00
sg24
S'L'
sbsg25
(irule
FeatureMatrix
p4230
(dp4231
g28
(lp4232
(I00
g2769
tp4233
a(I01
g2480
tp4234
asg22
Nsbsg31
(irule
Guard
p4235
(dp4236
g18
I00
sg19
(lp4237
(irule
FeatureMatrix
p4238
(dp4239
g28
(lp4240
(I01
g2545
tp4241
a(I01
g2480
tp4242
asg22
Nsbasg21
I00
sg22
Nsg23
I00
sg24
S'R'
sbsg35
(irule
FeatureMatrix
p4243
(dp4244
g28
(lp4245
sg22
Nsbsg22
Nsba(irule
Rule
p4246
(dp4247
g15
(irule
Guard
p4248
(dp4249
g18
I00
sg19
(lp4250
sg21
I00
sg22
Nsg23
I00
sg24
S'L'
sbsg25
(irule
FeatureMatrix
p4251
(dp4252
g28
(lp4253
(I01
g2480
tp4254
asg22
Nsbsg31
(irule
Guard
p4255
(dp4256
g18
I00
sg19
(lp4257
(irule
FeatureMatrix
p4258
(dp4259
g28
(lp4260
(I00
g2524
tp4261
a(I00
g2731
tp4262
a(I01
g2480
tp4263
asg22
Nsbasg21
I00
sg22
Nsg23
I00
sg24
S'R'
sbsg35
(irule
FeatureMatrix
p4264
(dp4265
g28
(lp4266
sg22
Nsbsg22
Nsba(irule
Rule
p4267
(dp4268
g15
(irule
Guard
p4269
(dp4270
g18
I00
sg19
(lp4271
sg21
I00
sg22
Nsg23
I00
sg24
S'L'
sbsg25
(irule
FeatureMatrix
p4272
(dp4273
g28
(lp4274
(I01
g2480
tp4275
asg22
Nsbsg31
(irule
Guard
p4276
(dp4277
g18
I00
sg19
(lp4278
(irule
FeatureMatrix
p4279
(dp4280
g28
(lp4281
(I00
g2524
tp4282
a(I00
g2889
tp4283
a(I00
g2588
tp4284
asg22
Nsbasg21
I00
sg22
Nsg23
I00
sg24
S'R'
sbsg35
(irule
FeatureMatrix
p4285
(dp4286
g28
(lp4287
sg22
Nsbsg22
Nsba(irule
Rule
p4288
(dp4289
g15
(irule
Guard
p4290
(dp4291
g18
I00
sg19
(lp4292
sg21
I00
sg22
Nsg23
I00
sg24
S'L'
sbsg25
(irule
FeatureMatrix
p4293
(dp4294
g28
(lp4295
(I01
g2480
tp4296
asg22
Nsbsg31
(irule
Guard
p4297
(dp4298
g18
I00
sg19
(lp4299
(irule
FeatureMatrix
p4300
(dp4301
g28
(lp4302
(I00
g2588
tp4303
a(I00
g2815
tp4304
a(I01
g2480
tp4305
asg22
Nsbasg21
I00
sg22
Nsg23
I00
sg24
S'R'
sbsg35
(irule
FeatureMatrix
p4306
(dp4307
g28
(lp4308
sg22
Nsbsg22
Nsba(irule
Rule
p4309
(dp4310
g15
(irule
Guard
p4311
(dp4312
g18
I00
sg19
(lp4313
sg21
I00
sg22
Nsg23
I00
sg24
S'L'
sbsg25
(irule
FeatureMatrix
p4314
(dp4315
g28
(lp4316
(I01
g2480
tp4317
asg22
Nsbsg31
(irule
Guard
p4318
(dp4319
g18
I00
sg19
(lp4320
(irule
FeatureMatrix
p4321
(dp4322
g28
(lp4323
(I00
g2524
tp4324
a(I00
g2712
tp4325
a(I01
g2480
tp4326
asg22
Nsbasg21
I00
sg22
Nsg23
I00
sg24
S'R'
sbsg35
(irule
FeatureMatrix
p4327
(dp4328
g28
(lp4329
sg22
Nsbsg22
Nsba(irule
Rule
p4330
(dp4331
g15
(irule
Guard
p4332
(dp4333
g18
I00
sg19
(lp4334
sg21
I00
sg22
Nsg23
I00
sg24
S'L'
sbsg25
(irule
FeatureMatrix
p4335
(dp4336
g28
(lp4337
(I01
g2480
tp4338
asg22
Nsbsg31
(irule
Guard
p4339
(dp4340
g18
I00
sg19
(lp4341
(irule
FeatureMatrix
p4342
(dp4343
g28
(lp4344
(I01
g2545
tp4345
a(I00
g2588
tp4346
asg22
Nsbasg21
I00
sg22
Nsg23
I00
sg24
S'R'
sbsg35
(irule
FeatureMatrix
p4347
(dp4348
g28
(lp4349
(I01
g2545
tp4350
asg22
Nsbsg22
Nsba(irule
Rule
p4351
(dp4352
g15
(irule
Guard
p4353
(dp4354
g18
I00
sg19
(lp4355
sg21
I00
sg22
Nsg23
I00
sg24
S'L'
sbsg25
(irule
FeatureMatrix
p4356
(dp4357
g28
(lp4358
(I01
g2480
tp4359
asg22
Nsbsg31
(irule
Guard
p4360
(dp4361
g18
I00
sg19
(lp4362
(irule
FeatureMatrix
p4363
(dp4364
g28
(lp4365
(I00
g2566
tp4366
a(I00
g2834
tp4367
a(I01
g2480
tp4368
asg22
Nsbasg21
I00
sg22
Nsg23
I00
sg24
S'R'
sbsg35
(irule
FeatureMatrix
p4369
(dp4370
g28
(lp4371
sg22
Nsbsg22
Nsba(irule
Rule
p4372
(dp4373
g15
(irule
Guard
p4374
(dp4375
g18
I00
sg19
(lp4376
sg21
I00
sg22
Nsg23
I00
sg24
S'L'
sbsg25
(irule
FeatureMatrix
p4377
(dp4378
g28
(lp4379
(I01
g2480
tp4380
asg22
Nsbsg31
(irule
Guard
p4381
(dp4382
g18
I00
sg19
(lp4383
(irule
FeatureMatrix
p4384
(dp4385
g28
(lp4386
(I00
g2524
tp4387
a(I00
g2759
tp4388
a(I00
g2588
tp4389
asg22
Nsbasg21
I00
sg22
Nsg23
I00
sg24
S'R'
sbsg35
(irule
FeatureMatrix
p4390
(dp4391
g28
(lp4392
sg22
Nsbsg22
Nsba(irule
Rule
p4393
(dp4394
g15
(irule
Guard
p4395
(dp4396
g18
I00
sg19
(lp4397
sg21
I00
sg22
Nsg23
I00
sg24
S'L'
sbsg25
(irule
FeatureMatrix
p4398
(dp4399
g28
(lp4400
(I00
g2712
tp4401
a(I01
g2480
tp4402
asg22
Nsbsg31
(irule
Guard
p4403
(dp4404
g18
I00
sg19
(lp4405
(irule
ConstantPhoneme
p4406
(dp4407
S'p'
Vb
sba(irule
FeatureMatrix
p4408
(dp4409
g28
(lp4410
sg22
Nsbasg21
I00
sg22
Nsg23
I00
sg24
S'R'
sbsg35
(irule
FeatureMatrix
p4411
(dp4412
g28
(lp4413
sg22
Nsbsg22
Nsba(irule
Rule
p4414
(dp4415
g15
(irule
Guard
p4416
(dp4417
g18
I00
sg19
(lp4418
sg21
I00
sg22
Nsg23
I00
sg24
S'L'
sbsg25
(irule
FeatureMatrix
p4419
(dp4420
g28
(lp4421
(I01
g2480
tp4422
asg22
Nsbsg31
(irule
Guard
p4423
(dp4424
g18
I00
sg19
(lp4425
(irule
FeatureMatrix
p4426
(dp4427
g28
(lp4428
(I00
g2524
tp4429
a(I00
g2889
tp4430
a(I01
g2480
tp4431
asg22
Nsbasg21
I00
sg22
Nsg23
I00
sg24
S'R'
sbsg35
(irule
FeatureMatrix
p4432
(dp4433
g28
(lp4434
sg22
Nsbsg22
Nsba(irule
Rule
p4435
(dp4436
g15
(irule
Guard
p4437
(dp4438
g18
I00
sg19
(lp4439
sg21
I00
sg22
Nsg23
I00
sg24
S'L'
sbsg25
(irule
FeatureMatrix
p4440
(dp4441
g28
(lp4442
(I00
g2769
tp4443
a(I01
g2480
tp4444
asg22
Nsbsg31
(irule
Guard
p4445
(dp4446
g18
I00
sg19
(lp4447
(irule
FeatureMatrix
p4448
(dp4449
g28
(lp4450
(I01
g2545
tp4451
a(I00
g2588
tp4452
asg22
Nsbasg21
I00
sg22
Nsg23
I00
sg24
S'R'
sbsg35
(irule
FeatureMatrix
p4453
(dp4454
g28
(lp4455
sg22
Nsbsg22
NsbaasbsS'parameters'
p4456
g6
(cargparse
Namespace
p4457
g8
NtRp4458
(dp4459
S'dummy'
p4460
I00
sS'task'
p4461
S'CEGIS'
p4462
sS'features'
p4463
S'sophisticated'
p4464
sS'resume'
p4465
I00
sS'geometry'
p4466
I01
sS'top'
p4467
I100
sS'disableClean'
p4468
I00
sS'universal'
p4469
NsS'restrict'
p4470
NsS'window'
p4471
NsS'seed'
p4472
S'0'
sS'restore'
p4473
NsS'verbosity'
p4474
I0
sS'timeout'
p4475
F24
sS'debug'
p4476
NsS'cores'
p4477
I40
sg385
S'Halle_109_Russian'
p4478
sS'save'
p4479
NsS'serial'
p4480
I00
sS'alignment'
p4481
I00
sS'samples'
p4482
I30
sbsb.