(iresult
Result
p1
(dp2
S'startTime'
p3
F1555426148.6315169
sS'solutionSequence'
p4
(lp5
(ccopy_reg
_reconstructor
p6
(csolution
Solution
p7
c__builtin__
object
p8
NtRp9
(dp10
S'rules'
p11
(lp12
(irule
Rule
p13
(dp14
S'leftTriggers'
p15
(irule
Guard
p16
(dp17
S'endOfString'
p18
I00
sS'specifications'
p19
(lp20
(irule
FeatureMatrix
p21
(dp22
S'featuresAndPolarities'
p23
(lp24
sS'representation'
p25
V[  ]
p26
sba(irule
ConstantPhoneme
p27
(dp28
S'p'
Vp
sbasS'optionalEnding'
p29
I00
sg25
Vp [  ]*
p30
sS'starred'
p31
I01
sS'side'
p32
S'L'
sbsS'structuralChange'
p33
(irule
FeatureMatrix
p34
(dp35
g23
(lp36
(I00
S'back'
p37
tp38
a(I00
S'low'
p39
tp40
asg25
V[ -back -low ]
p41
sbsS'rightTriggers'
p42
(irule
Guard
p43
(dp44
g18
I00
sg19
(lp45
sg29
I00
sg25
V
sg31
I00
sg32
S'R'
sbsS'focus'
p46
(irule
FeatureMatrix
p47
(dp48
g23
(lp49
sg25
V[  ]
p50
sbsg25
V[  ] ---> [ -back -low ] / p [  ]* _ 
p51
sbasS'prefixes'
p52
(lp53
(imorph
Morph
p54
(dp55
S'phonemes'
p56
(lp57
sba(imorph
Morph
p58
(dp59
g56
(lp60
sba(imorph
Morph
p61
(dp62
g56
(lp63
sba(imorph
Morph
p64
(dp65
g56
(lp66
sbasS'underlyingForms'
p67
(dp68
((imorph
Morph
p69
(dp70
g56
(lp71
Vi
aVp
asb(imorph
Morph
p72
(dp73
g56
(lp74
Vi
aVp
aVi
aVn
asb(imorph
Morph
p75
(dp76
g56
(lp77
Vi
aVp
aVl
aVe
aVr
asb(imorph
Morph
p78
(dp79
g56
(lp80
Vi
aVp
aVl
aVe
aVr
aVi
aVn
asbtp81
(imorph
Morph
p82
(dp83
g56
(lp84
Vi
aVp
asbs((imorph
Morph
p85
(dp86
g56
(lp87
Vk
aV\u0268
aVz
asb(imorph
Morph
p88
(dp89
g56
(lp90
Vk
aV\u0268
aVz
aV\u0268
aVn
asb(imorph
Morph
p91
(dp92
g56
(lp93
Vk
aV\u0268
aVz
aVl
aVa
aVr
asb(imorph
Morph
p94
(dp95
g56
(lp96
Vk
aV\u0268
aVz
aVl
aVa
aVr
aV\u0268
aVn
asbtp97
(imorph
Morph
p98
(dp99
g56
(lp100
Vk
aV\u0268
aVz
asbssS'suffixes'
p101
(lp102
(imorph
Morph
p103
(dp104
g56
(lp105
sba(imorph
Morph
p106
(dp107
g56
(lp108
V\u0268
aVn
asba(imorph
Morph
p109
(dp110
g56
(lp111
Vl
aVa
aVr
asba(imorph
Morph
p112
(dp113
g56
(lp114
Vl
aVa
aVr
aV\u0268
aVn
asbasbF14.051741123199463
tp115
a(g6
(g7
g8
NtRp116
(dp117
g11
(lp118
(irule
Rule
p119
(dp120
g15
(irule
Guard
p121
(dp122
g18
I00
sg19
(lp123
(irule
FeatureMatrix
p124
(dp125
g23
(lp126
sg25
V[  ]
p127
sba(irule
FeatureMatrix
p128
(dp129
g23
(lp130
(I00
g37
tp131
a(I01
S'high'
p132
tp133
asg25
V[ +high -back ]
p134
sbasg29
I00
sg25
V[ +high -back ] [  ]*
p135
sg31
I01
sg32
S'L'
sbsg33
(irule
FeatureMatrix
p136
(dp137
g23
(lp138
(I00
g37
tp139
a(I00
g39
tp140
asg25
V[ -back -low ]
p141
sbsg42
(irule
Guard
p142
(dp143
g18
I00
sg19
(lp144
sg29
I00
sg25
V
sg31
I00
sg32
S'R'
sbsg46
(irule
FeatureMatrix
p145
(dp146
g23
(lp147
sg25
V[  ]
p148
sbsg25
V[  ] ---> [ -back -low ] / [ +high -back ] [  ]* _ 
p149
sba(irule
Rule
p150
(dp151
g15
(irule
Guard
p152
(dp153
g18
I00
sg19
(lp154
(irule
FeatureMatrix
p155
(dp156
g23
(lp157
sg25
V[  ]
p158
sba(irule
FeatureMatrix
p159
(dp160
g23
(lp161
sg25
V[  ]
p162
sbasg29
I00
sg25
V[  ] [  ]
p163
sg31
I00
sg32
S'L'
sbsg33
(irule
OffsetSpecification
p164
(dp165
S'offset'
p166
I-2
sbsg42
(irule
Guard
p167
(dp168
g18
I00
sg19
(lp169
sg29
I00
sg25
V
sg31
I00
sg32
S'R'
sbsg46
(irule
FeatureMatrix
p170
(dp171
g23
(lp172
(I01
S'rounded'
p173
tp174
asg25
V[ +rounded ]
p175
sbsg25
V[ +rounded ] ---> -2 / [  ] [  ] _ 
p176
sbasg52
(lp177
(imorph
Morph
p178
(dp179
g56
(lp180
sba(imorph
Morph
p181
(dp182
g56
(lp183
sba(imorph
Morph
p184
(dp185
g56
(lp186
sba(imorph
Morph
p187
(dp188
g56
(lp189
sbasg67
(dp190
((imorph
Morph
p191
(dp192
g56
(lp193
Vy
aVu\u0308
p194
aVz
asb(imorph
Morph
p195
(dp196
g56
(lp197
Vy
aVu\u0308
p198
aVz
aVu\u0308
p199
aVn
asb(imorph
Morph
p200
(dp201
g56
(lp202
Vy
aVu\u0308
p203
aVz
aVl
aVe
aVr
asb(imorph
Morph
p204
(dp205
g56
(lp206
Vy
aVu\u0308
p207
aVz
aVl
aVe
aVr
aVi
aVn
asbtp208
(imorph
Morph
p209
(dp210
g56
(lp211
Vy
aVu\u0308
p212
aVz
asbs(g69
g72
g75
g78
tp213
(imorph
Morph
p214
(dp215
g56
(lp216
Vi
aVp
asbs(g85
g88
g91
g94
tp217
(imorph
Morph
p218
(dp219
g56
(lp220
Vk
aV\u0268
aVz
asbssg101
(lp221
(imorph
Morph
p222
(dp223
g56
(lp224
sba(imorph
Morph
p225
(dp226
g56
(lp227
Vu
aVn
asba(imorph
Morph
p228
(dp229
g56
(lp230
Vl
aVa
aVr
asba(imorph
Morph
p231
(dp232
g56
(lp233
Vl
aVa
aVr
aV\u0268
aVn
asbasbF720.20776605606079
tp234
a(g6
(g7
g8
NtRp235
(dp236
g11
(lp237
(irule
Rule
p238
(dp239
g15
(irule
Guard
p240
(dp241
g18
I00
sg19
(lp242
(irule
FeatureMatrix
p243
(dp244
g23
(lp245
sg25
V[  ]
p246
sba(irule
FeatureMatrix
p247
(dp248
g23
(lp249
(I00
g37
tp250
a(I00
S'coronal'
p251
tp252
asg25
V[ -back -coronal ]
p253
sbasg29
I00
sg25
V[ -back -coronal ] [  ]*
p254
sg31
I01
sg32
S'L'
sbsg33
(irule
FeatureMatrix
p255
(dp256
g23
(lp257
(I00
g37
tp258
a(I00
g39
tp259
asg25
V[ -back -low ]
p260
sbsg42
(irule
Guard
p261
(dp262
g18
I00
sg19
(lp263
sg29
I00
sg25
V
sg31
I00
sg32
S'R'
sbsg46
(irule
FeatureMatrix
p264
(dp265
g23
(lp266
sg25
V[  ]
p267
sbsg25
V[  ] ---> [ -back -low ] / [ -back -coronal ] [  ]* _ 
p268
sba(irule
Rule
p269
(dp270
g15
(irule
Guard
p271
(dp272
g18
I00
sg19
(lp273
(irule
FeatureMatrix
p274
(dp275
g23
(lp276
sg25
V[  ]
p277
sba(irule
FeatureMatrix
p278
(dp279
g23
(lp280
(I00
g173
tp281
asg25
V[ -rounded ]
p282
sbasg29
I00
sg25
V[ -rounded ] [  ]
p283
sg31
I00
sg32
S'L'
sbsg33
(irule
FeatureMatrix
p284
(dp285
g23
(lp286
(I00
g173
tp287
asg25
V[ -rounded ]
p288
sbsg42
(irule
Guard
p289
(dp290
g18
I00
sg19
(lp291
sg29
I00
sg25
V
sg31
I00
sg32
S'R'
sbsg46
(irule
FeatureMatrix
p292
(dp293
g23
(lp294
sg25
V[  ]
p295
sbsg25
V[  ] ---> [ -rounded ] / [ -rounded ] [  ] _ 
p296
sbasg52
(lp297
(imorph
Morph
p298
(dp299
g56
(lp300
sba(imorph
Morph
p301
(dp302
g56
(lp303
sba(imorph
Morph
p304
(dp305
g56
(lp306
sba(imorph
Morph
p307
(dp308
g56
(lp309
sbasg67
(dp310
((imorph
Morph
p311
(dp312
g56
(lp313
Ve
aVl
asb(imorph
Morph
p314
(dp315
g56
(lp316
Ve
aVl
aVi
aVn
asb(imorph
Morph
p317
(dp318
g56
(lp319
Ve
aVl
aVl
aVe
aVr
asb(imorph
Morph
p320
(dp321
g56
(lp322
Ve
aVl
aVl
aVe
aVr
aVi
aVn
asbtp323
(imorph
Morph
p324
(dp325
g56
(lp326
Ve
aVl
asbs(g191
g195
g200
g204
tp327
(imorph
Morph
p328
(dp329
g56
(lp330
Vy
aVu
aVz
asbs(g69
g72
g75
g78
tp331
(imorph
Morph
p332
(dp333
g56
(lp334
Vi
aVp
asbs(g85
g88
g91
g94
tp335
(imorph
Morph
p336
(dp337
g56
(lp338
Vk
aV\u0268
aVz
asbssg101
(lp339
(imorph
Morph
p340
(dp341
g56
(lp342
sba(imorph
Morph
p343
(dp344
g56
(lp345
Vu
aVn
asba(imorph
Morph
p346
(dp347
g56
(lp348
Vl
aVo
aVr
asba(imorph
Morph
p349
(dp350
g56
(lp351
Vl
aVo
aVr
aV\u0268
aVn
asbasbF1842.6196491718292
tp352
a(g6
(g7
g8
NtRp353
(dp354
g11
(lp355
(irule
Rule
p356
(dp357
g15
(irule
Guard
p358
(dp359
g18
I00
sg19
(lp360
(irule
FeatureMatrix
p361
(dp362
g23
(lp363
sg25
V[  ]
p364
sba(irule
FeatureMatrix
p365
(dp366
g23
(lp367
(I00
g173
tp368
asg25
V[ -rounded ]
p369
sbasg29
I00
sg25
V[ -rounded ] [  ]
p370
sg31
I00
sg32
S'L'
sbsg33
(irule
FeatureMatrix
p371
(dp372
g23
(lp373
(I00
g173
tp374
asg25
V[ -rounded ]
p375
sbsg42
(irule
Guard
p376
(dp377
g18
I00
sg19
(lp378
sg29
I00
sg25
V
sg31
I00
sg32
S'R'
sbsg46
(irule
FeatureMatrix
p379
(dp380
g23
(lp381
sg25
V[  ]
p382
sbsg25
V[  ] ---> [ -rounded ] / [ -rounded ] [  ] _ 
p383
sba(irule
Rule
p384
(dp385
g15
(irule
Guard
p386
(dp387
g18
I01
sg19
(lp388
(irule
FeatureMatrix
p389
(dp390
g23
(lp391
sg25
V[  ]
p392
sba(irule
FeatureMatrix
p393
(dp394
g23
(lp395
(I01
S'continuant'
p396
tp397
asg25
V[ +continuant ]
p398
sbasg29
I00
sg25
V# [ +continuant ] [  ]*
p399
sg31
I01
sg32
S'L'
sbsg33
(irule
FeatureMatrix
p400
(dp401
g23
(lp402
(I00
g37
tp403
a(I00
g39
tp404
asg25
V[ -back -low ]
p405
sbsg42
(irule
Guard
p406
(dp407
g18
I00
sg19
(lp408
sg29
I00
sg25
V
sg31
I00
sg32
S'R'
sbsg46
(irule
FeatureMatrix
p409
(dp410
g23
(lp411
sg25
V[  ]
p412
sbsg25
V[  ] ---> [ -back -low ] / # [ +continuant ] [  ]* _ 
p413
sbasg52
(lp414
(imorph
Morph
p415
(dp416
g56
(lp417
sba(imorph
Morph
p418
(dp419
g56
(lp420
sba(imorph
Morph
p421
(dp422
g56
(lp423
sba(imorph
Morph
p424
(dp425
g56
(lp426
sbasg67
(dp427
((imorph
Morph
p428
(dp429
g56
(lp430
Vp
aVu
aVl
asb(imorph
Morph
p431
(dp432
g56
(lp433
Vp
aVu
aVl
aVu
aVn
asb(imorph
Morph
p434
(dp435
g56
(lp436
Vp
aVu
aVl
aVl
aVa
aVr
asb(imorph
Morph
p437
(dp438
g56
(lp439
Vp
aVu
aVl
aVl
aVa
aVr
aV\u0268
aVn
asbtp440
(imorph
Morph
p441
(dp442
g56
(lp443
Vp
aVu
aVl
asbs(g311
g314
g317
g320
tp444
(imorph
Morph
p445
(dp446
g56
(lp447
Ve
aVl
asbs(g191
g195
g200
g204
tp448
(imorph
Morph
p449
(dp450
g56
(lp451
Vy
ag212
aVz
asbs(g69
g72
g75
g78
tp452
(imorph
Morph
p453
(dp454
g56
(lp455
Vi
aVp
asbs(g85
g88
g91
g94
tp456
(imorph
Morph
p457
(dp458
g56
(lp459
Vk
aV\u0268
aVz
asbssg101
(lp460
(imorph
Morph
p461
(dp462
g56
(lp463
sba(imorph
Morph
p464
(dp465
g56
(lp466
Vu
aVn
asba(imorph
Morph
p467
(dp468
g56
(lp469
Vl
aVo
aVr
asba(imorph
Morph
p470
(dp471
g56
(lp472
Vl
aVo
aVr
aV\u0268
aVn
asbasbF2832.8205280303955
tp473
a(g6
(g7
g8
NtRp474
(dp475
g11
(lp476
(irule
Rule
p477
(dp478
g15
(irule
Guard
p479
(dp480
g18
I00
sg19
(lp481
(irule
FeatureMatrix
p482
(dp483
g23
(lp484
sg25
V[  ]
p485
sba(irule
FeatureMatrix
p486
(dp487
g23
(lp488
(I00
g37
tp489
a(I01
S'vowel'
p490
tp491
asg25
V[ +vowel -back ]
p492
sbasg29
I00
sg25
V[ +vowel -back ] [  ]*
p493
sg31
I01
sg32
S'L'
sbsg33
(irule
FeatureMatrix
p494
(dp495
g23
(lp496
(I00
g37
tp497
a(I00
g39
tp498
asg25
V[ -back -low ]
p499
sbsg42
(irule
Guard
p500
(dp501
g18
I00
sg19
(lp502
sg29
I00
sg25
V
sg31
I00
sg32
S'R'
sbsg46
(irule
FeatureMatrix
p503
(dp504
g23
(lp505
sg25
V[  ]
p506
sbsg25
V[  ] ---> [ -back -low ] / [ +vowel -back ] [  ]* _ 
p507
sba(irule
Rule
p508
(dp509
g15
(irule
Guard
p510
(dp511
g18
I00
sg19
(lp512
(irule
FeatureMatrix
p513
(dp514
g23
(lp515
sg25
V[  ]
p516
sba(irule
FeatureMatrix
p517
(dp518
g23
(lp519
(I00
g173
tp520
asg25
V[ -rounded ]
p521
sbasg29
I00
sg25
V[ -rounded ] [  ]
p522
sg31
I00
sg32
S'L'
sbsg33
(irule
FeatureMatrix
p523
(dp524
g23
(lp525
(I00
g173
tp526
asg25
V[ -rounded ]
p527
sbsg42
(irule
Guard
p528
(dp529
g18
I00
sg19
(lp530
sg29
I00
sg25
V
sg31
I00
sg32
S'R'
sbsg46
(irule
FeatureMatrix
p531
(dp532
g23
(lp533
sg25
V[  ]
p534
sbsg25
V[  ] ---> [ -rounded ] / [ -rounded ] [  ] _ 
p535
sbasg52
(lp536
(imorph
Morph
p537
(dp538
g56
(lp539
sba(imorph
Morph
p540
(dp541
g56
(lp542
sba(imorph
Morph
p543
(dp544
g56
(lp545
sba(imorph
Morph
p546
(dp547
g56
(lp548
sbasg67
(dp549
(g191
g195
g200
g204
tp550
(imorph
Morph
p551
(dp552
g56
(lp553
Vy
ag212
aVz
asbs((imorph
Morph
p554
(dp555
g56
(lp556
Vk
aVo\u0308
p557
aVy
asb(imorph
Morph
p558
(dp559
g56
(lp560
Vk
aVo\u0308
p561
aVy
aVu\u0308
p562
aVn
asb(imorph
Morph
p563
(dp564
g56
(lp565
Vk
aVo\u0308
p566
aVy
aVl
aVe
aVr
asb(imorph
Morph
p567
(dp568
g56
(lp569
Vk
aVo\u0308
p570
aVy
aVl
aVe
aVr
aVi
aVn
asbtp571
(imorph
Morph
p572
(dp573
g56
(lp574
Vk
aVo\u0308
p575
aVy
asbs(g69
g72
g75
g78
tp576
(imorph
Morph
p577
(dp578
g56
(lp579
Vi
aVp
asbs(g85
g88
g91
g94
tp580
(imorph
Morph
p581
(dp582
g56
(lp583
Vk
aV\u0268
aVz
asbs(g428
g431
g434
g437
tp584
(imorph
Morph
p585
(dp586
g56
(lp587
Vp
aVu
aVl
asbs((imorph
Morph
(dp588
g56
(lp589
Vc\u030c
p590
aVa
aVn
asb(imorph
Morph
(dp591
g56
(lp592
Vc\u030c
p593
aVa
aVn
aV\u0268
aVn
asb(imorph
Morph
(dp594
g56
(lp595
Vc\u030c
p596
aVa
aVn
aVl
aVa
aVr
asb(imorph
Morph
(dp597
g56
(lp598
Vc\u030c
p599
aVa
aVn
aVl
aVa
aVr
aV\u0268
aVn
asbtp600
(imorph
Morph
p601
(dp602
g56
(lp603
Vc\u030c
p604
aVa
aVn
asbs((imorph
Morph
(dp605
g56
(lp606
Vs
aVo
aVn
asb(imorph
Morph
(dp607
g56
(lp608
Vs
aVo
aVn
aVu
aVn
asb(imorph
Morph
(dp609
g56
(lp610
Vs
aVo
aVn
aVl
aVa
aVr
asb(imorph
Morph
(dp611
g56
(lp612
Vs
aVo
aVn
aVl
aVa
aVr
aV\u0268
aVn
asbtp613
(imorph
Morph
p614
(dp615
g56
(lp616
Vs
aVo
aVn
asbs(g311
g314
g317
g320
tp617
(imorph
Morph
p618
(dp619
g56
(lp620
Ve
aVl
asbssg101
(lp621
(imorph
Morph
p622
(dp623
g56
(lp624
sba(imorph
Morph
p625
(dp626
g56
(lp627
Vu
aVn
asba(imorph
Morph
p628
(dp629
g56
(lp630
Vl
aVo
aVr
asba(imorph
Morph
p631
(dp632
g56
(lp633
Vl
aVa
aVr
aVu
aVn
asbasbF3967.5422430038452
tp634
asS'problem'
p635
S'Halle_85_Turkish'
p636
sS'finalFrontier'
p637
g6
(csolution
Frontier
p638
g8
NtRp639
(dp640
g52
g536
sg101
g621
sg67
g549
sS'frontiers'
p641
(lp642
(lp643
(irule
Rule
p644
(dp645
g15
(irule
Guard
p646
(dp647
g18
I00
sg19
(lp648
(irule
FeatureMatrix
p649
(dp650
g23
(lp651
sg25
V[  ]
p652
sba(irule
FeatureMatrix
p653
(dp654
g23
(lp655
(I00
S'back'
p656
tp657
a(I01
S'vowel'
tp658
asg25
V[ +vowel -back ]
p659
sbasg29
I00
sg25
V[ +vowel -back ] [  ]*
p660
sg31
I01
sg32
S'L'
sbsg33
(irule
FeatureMatrix
p661
(dp662
g23
(lp663
(I00
g656
tp664
a(I00
S'low'
tp665
asg25
V[ -back -low ]
p666
sbsg42
(irule
Guard
p667
(dp668
g18
I00
sg19
(lp669
sg29
I00
sg25
V
sg31
I00
sg32
S'R'
sbsg46
(irule
FeatureMatrix
p670
(dp671
g23
(lp672
sg25
V[  ]
p673
sbsg25
V[  ] ---> [ -back -low ] / [ +vowel -back ] [  ]* _ 
p674
sba(irule
Rule
p675
(dp676
g15
(irule
Guard
p677
(dp678
g18
I00
sg19
(lp679
(irule
FeatureMatrix
p680
(dp681
g23
(lp682
sg25
Nsba(irule
FeatureMatrix
p683
(dp684
g23
(lp685
(I00
S'back'
p686
tp687
a(I01
S'tense'
p688
tp689
asg25
Nsbasg29
I00
sg25
Nsg31
I01
sg32
S'L'
sbsg33
(irule
FeatureMatrix
p690
(dp691
g23
(lp692
(I00
g686
tp693
a(I00
S'low'
p694
tp695
asg25
Nsbsg42
(irule
Guard
p696
(dp697
g18
I00
sg19
(lp698
sg29
I00
sg25
Nsg31
I00
sg32
S'R'
sbsg46
(irule
FeatureMatrix
p699
(dp700
g23
(lp701
sg25
Nsbsg25
Nsba(irule
Rule
p702
(dp703
g15
(irule
Guard
p704
(dp705
g18
I00
sg19
(lp706
(irule
FeatureMatrix
p707
(dp708
g23
(lp709
sg25
Nsba(irule
FeatureMatrix
p710
(dp711
g23
(lp712
(I00
S'anterior'
p713
tp714
a(I00
g686
tp715
a(I00
S'coronal'
p716
tp717
asg25
Nsbasg29
I00
sg25
Nsg31
I01
sg32
S'L'
sbsg33
(irule
FeatureMatrix
p718
(dp719
g23
(lp720
(I00
g686
tp721
a(I00
g694
tp722
asg25
Nsbsg42
(irule
Guard
p723
(dp724
g18
I00
sg19
(lp725
sg29
I00
sg25
Nsg31
I00
sg32
S'R'
sbsg46
(irule
FeatureMatrix
p726
(dp727
g23
(lp728
sg25
Nsbsg25
Nsba(irule
Rule
p729
(dp730
g15
(irule
Guard
p731
(dp732
g18
I00
sg19
(lp733
(irule
FeatureMatrix
p734
(dp735
g23
(lp736
sg25
Nsba(irule
FeatureMatrix
p737
(dp738
g23
(lp739
(I00
g713
tp740
a(I00
g686
tp741
a(I01
S'vowel'
p742
tp743
asg25
Nsbasg29
I00
sg25
Nsg31
I01
sg32
S'L'
sbsg33
(irule
FeatureMatrix
p744
(dp745
g23
(lp746
(I00
g686
tp747
a(I00
g694
tp748
asg25
Nsbsg42
(irule
Guard
p749
(dp750
g18
I00
sg19
(lp751
sg29
I00
sg25
Nsg31
I00
sg32
S'R'
sbsg46
(irule
FeatureMatrix
p752
(dp753
g23
(lp754
sg25
Nsbsg25
Nsba(irule
Rule
p755
(dp756
g15
(irule
Guard
p757
(dp758
g18
I00
sg19
(lp759
(irule
FeatureMatrix
p760
(dp761
g23
(lp762
sg25
Nsba(irule
FeatureMatrix
p763
(dp764
g23
(lp765
(I00
g686
tp766
a(I01
g688
tp767
asg25
Nsbasg29
I00
sg25
Nsg31
I01
sg32
S'L'
sbsg33
(irule
FeatureMatrix
p768
(dp769
g23
(lp770
(I00
g686
tp771
a(I00
g694
tp772
asg25
Nsbsg42
(irule
Guard
p773
(dp774
g18
I00
sg19
(lp775
(irule
FeatureMatrix
p776
(dp777
g23
(lp778
sg25
Nsbasg29
I00
sg25
Nsg31
I00
sg32
S'R'
sbsg46
(irule
FeatureMatrix
p779
(dp780
g23
(lp781
sg25
Nsbsg25
Nsba(irule
Rule
p782
(dp783
g15
(irule
Guard
p784
(dp785
g18
I00
sg19
(lp786
(irule
FeatureMatrix
p787
(dp788
g23
(lp789
sg25
Nsba(irule
FeatureMatrix
p790
(dp791
g23
(lp792
(I00
g686
tp793
a(I01
g742
tp794
asg25
Nsbasg29
I00
sg25
Nsg31
I01
sg32
S'L'
sbsg33
(irule
FeatureMatrix
p795
(dp796
g23
(lp797
(I00
g686
tp798
a(I00
g694
tp799
asg25
Nsbsg42
(irule
Guard
p800
(dp801
g18
I00
sg19
(lp802
(irule
FeatureMatrix
p803
(dp804
g23
(lp805
sg25
Nsbasg29
I00
sg25
Nsg31
I00
sg32
S'R'
sbsg46
(irule
FeatureMatrix
p806
(dp807
g23
(lp808
sg25
Nsbsg25
Nsba(irule
Rule
p809
(dp810
g15
(irule
Guard
p811
(dp812
g18
I00
sg19
(lp813
(irule
FeatureMatrix
p814
(dp815
g23
(lp816
sg25
Nsba(irule
FeatureMatrix
p817
(dp818
g23
(lp819
(I00
g686
tp820
a(I01
g688
tp821
asg25
Nsbasg29
I00
sg25
Nsg31
I01
sg32
S'L'
sbsg33
(irule
FeatureMatrix
p822
(dp823
g23
(lp824
(I00
g686
tp825
a(I00
g694
tp826
asg25
Nsbsg42
(irule
Guard
p827
(dp828
g18
I00
sg19
(lp829
sg29
I00
sg25
Nsg31
I00
sg32
S'R'
sbsg46
(irule
FeatureMatrix
p830
(dp831
g23
(lp832
(I01
S'voice'
p833
tp834
asg25
Nsbsg25
Nsba(irule
Rule
p835
(dp836
g15
(irule
Guard
p837
(dp838
g18
I00
sg19
(lp839
(irule
FeatureMatrix
p840
(dp841
g23
(lp842
sg25
Nsba(irule
FeatureMatrix
p843
(dp844
g23
(lp845
(I00
g686
tp846
a(I00
g694
tp847
a(I01
g742
tp848
asg25
Nsbasg29
I00
sg25
Nsg31
I01
sg32
S'L'
sbsg33
(irule
FeatureMatrix
p849
(dp850
g23
(lp851
(I00
g686
tp852
a(I00
g694
tp853
asg25
Nsbsg42
(irule
Guard
p854
(dp855
g18
I00
sg19
(lp856
sg29
I00
sg25
Nsg31
I00
sg32
S'R'
sbsg46
(irule
FeatureMatrix
p857
(dp858
g23
(lp859
sg25
Nsbsg25
Nsba(irule
Rule
p860
(dp861
g15
(irule
Guard
p862
(dp863
g18
I00
sg19
(lp864
(irule
FeatureMatrix
p865
(dp866
g23
(lp867
sg25
Nsba(irule
FeatureMatrix
p868
(dp869
g23
(lp870
(I00
S'liquid'
p871
tp872
a(I00
g686
tp873
a(I01
g742
tp874
asg25
Nsbasg29
I00
sg25
Nsg31
I01
sg32
S'L'
sbsg33
(irule
FeatureMatrix
p875
(dp876
g23
(lp877
(I00
g686
tp878
a(I00
g694
tp879
asg25
Nsbsg42
(irule
Guard
p880
(dp881
g18
I00
sg19
(lp882
sg29
I00
sg25
Nsg31
I00
sg32
S'R'
sbsg46
(irule
FeatureMatrix
p883
(dp884
g23
(lp885
sg25
Nsbsg25
Nsba(irule
Rule
p886
(dp887
g15
(irule
Guard
p888
(dp889
g18
I00
sg19
(lp890
(irule
FeatureMatrix
p891
(dp892
g23
(lp893
sg25
Nsba(irule
FeatureMatrix
p894
(dp895
g23
(lp896
(I01
S'continuant'
p897
tp898
a(I00
g686
tp899
a(I00
g716
tp900
asg25
Nsbasg29
I00
sg25
Nsg31
I01
sg32
S'L'
sbsg33
(irule
FeatureMatrix
p901
(dp902
g23
(lp903
(I00
g686
tp904
a(I00
g694
tp905
asg25
Nsbsg42
(irule
Guard
p906
(dp907
g18
I00
sg19
(lp908
sg29
I00
sg25
Nsg31
I00
sg32
S'R'
sbsg46
(irule
FeatureMatrix
p909
(dp910
g23
(lp911
sg25
Nsbsg25
Nsba(irule
Rule
p912
(dp913
g15
(irule
Guard
p914
(dp915
g18
I00
sg19
(lp916
(irule
FeatureMatrix
p917
(dp918
g23
(lp919
sg25
Nsba(irule
FeatureMatrix
p920
(dp921
g23
(lp922
(I00
g713
tp923
a(I00
g686
tp924
a(I01
g688
tp925
asg25
Nsbasg29
I00
sg25
Nsg31
I01
sg32
S'L'
sbsg33
(irule
FeatureMatrix
p926
(dp927
g23
(lp928
(I00
g686
tp929
a(I00
g694
tp930
asg25
Nsbsg42
(irule
Guard
p931
(dp932
g18
I00
sg19
(lp933
sg29
I00
sg25
Nsg31
I00
sg32
S'R'
sbsg46
(irule
FeatureMatrix
p934
(dp935
g23
(lp936
sg25
Nsbsg25
Nsba(irule
Rule
p937
(dp938
g15
(irule
Guard
p939
(dp940
g18
I00
sg19
(lp941
(irule
FeatureMatrix
p942
(dp943
g23
(lp944
(I00
S'rounded'
p945
tp946
asg25
Nsba(irule
FeatureMatrix
p947
(dp948
g23
(lp949
(I00
g686
tp950
a(I01
g742
tp951
asg25
Nsbasg29
I00
sg25
Nsg31
I01
sg32
S'L'
sbsg33
(irule
FeatureMatrix
p952
(dp953
g23
(lp954
(I00
g686
tp955
a(I00
g694
tp956
asg25
Nsbsg42
(irule
Guard
p957
(dp958
g18
I00
sg19
(lp959
sg29
I00
sg25
Nsg31
I00
sg32
S'R'
sbsg46
(irule
FeatureMatrix
p960
(dp961
g23
(lp962
sg25
Nsbsg25
Nsba(irule
Rule
p963
(dp964
g15
(irule
Guard
p965
(dp966
g18
I00
sg19
(lp967
(irule
FeatureMatrix
p968
(dp969
g23
(lp970
(I00
g945
tp971
asg25
Nsba(irule
FeatureMatrix
p972
(dp973
g23
(lp974
(I00
g686
tp975
a(I01
g688
tp976
asg25
Nsbasg29
I00
sg25
Nsg31
I01
sg32
S'L'
sbsg33
(irule
FeatureMatrix
p977
(dp978
g23
(lp979
(I00
g686
tp980
a(I00
g694
tp981
asg25
Nsbsg42
(irule
Guard
p982
(dp983
g18
I00
sg19
(lp984
sg29
I00
sg25
Nsg31
I00
sg32
S'R'
sbsg46
(irule
FeatureMatrix
p985
(dp986
g23
(lp987
sg25
Nsbsg25
Nsba(irule
Rule
p988
(dp989
g15
(irule
Guard
p990
(dp991
g18
I00
sg19
(lp992
(irule
FeatureMatrix
p993
(dp994
g23
(lp995
sg25
Nsba(irule
FeatureMatrix
p996
(dp997
g23
(lp998
(I00
g686
tp999
a(I01
g742
tp1000
a(I00
S'sibilant'
p1001
tp1002
asg25
Nsbasg29
I00
sg25
Nsg31
I01
sg32
S'L'
sbsg33
(irule
FeatureMatrix
p1003
(dp1004
g23
(lp1005
(I00
g686
tp1006
a(I00
g694
tp1007
asg25
Nsbsg42
(irule
Guard
p1008
(dp1009
g18
I00
sg19
(lp1010
sg29
I00
sg25
Nsg31
I00
sg32
S'R'
sbsg46
(irule
FeatureMatrix
p1011
(dp1012
g23
(lp1013
sg25
Nsbsg25
Nsba(irule
Rule
p1014
(dp1015
g15
(irule
Guard
p1016
(dp1017
g18
I00
sg19
(lp1018
(irule
FeatureMatrix
p1019
(dp1020
g23
(lp1021
(I00
S'nasal'
p1022
tp1023
asg25
Nsba(irule
FeatureMatrix
p1024
(dp1025
g23
(lp1026
(I00
g686
tp1027
a(I01
g742
tp1028
asg25
Nsbasg29
I00
sg25
Nsg31
I01
sg32
S'L'
sbsg33
(irule
FeatureMatrix
p1029
(dp1030
g23
(lp1031
(I00
g686
tp1032
a(I00
g694
tp1033
asg25
Nsbsg42
(irule
Guard
p1034
(dp1035
g18
I00
sg19
(lp1036
sg29
I00
sg25
Nsg31
I00
sg32
S'R'
sbsg46
(irule
FeatureMatrix
p1037
(dp1038
g23
(lp1039
sg25
Nsbsg25
Nsba(irule
Rule
p1040
(dp1041
g15
(irule
Guard
p1042
(dp1043
g18
I00
sg19
(lp1044
(irule
FeatureMatrix
p1045
(dp1046
g23
(lp1047
sg25
Nsba(irule
FeatureMatrix
p1048
(dp1049
g23
(lp1050
(I00
g686
tp1051
a(I00
g716
tp1052
a(I01
g833
tp1053
asg25
Nsbasg29
I00
sg25
Nsg31
I01
sg32
S'L'
sbsg33
(irule
FeatureMatrix
p1054
(dp1055
g23
(lp1056
(I00
g686
tp1057
a(I00
g694
tp1058
asg25
Nsbsg42
(irule
Guard
p1059
(dp1060
g18
I00
sg19
(lp1061
sg29
I00
sg25
Nsg31
I00
sg32
S'R'
sbsg46
(irule
FeatureMatrix
p1062
(dp1063
g23
(lp1064
sg25
Nsbsg25
Nsba(irule
Rule
p1065
(dp1066
g15
(irule
Guard
p1067
(dp1068
g18
I00
sg19
(lp1069
(irule
FeatureMatrix
p1070
(dp1071
g23
(lp1072
sg25
Nsba(irule
FeatureMatrix
p1073
(dp1074
g23
(lp1075
(I00
g686
tp1076
a(I01
g742
tp1077
asg25
Nsbasg29
I00
sg25
Nsg31
I01
sg32
S'L'
sbsg33
(irule
FeatureMatrix
p1078
(dp1079
g23
(lp1080
(I00
g686
tp1081
a(I00
g694
tp1082
asg25
Nsbsg42
(irule
Guard
p1083
(dp1084
g18
I00
sg19
(lp1085
sg29
I00
sg25
Nsg31
I00
sg32
S'R'
sbsg46
(irule
FeatureMatrix
p1086
(dp1087
g23
(lp1088
(I00
S'lateral'
p1089
tp1090
asg25
Nsbsg25
Nsba(irule
Rule
p1091
(dp1092
g15
(irule
Guard
p1093
(dp1094
g18
I00
sg19
(lp1095
(irule
FeatureMatrix
p1096
(dp1097
g23
(lp1098
(I00
S'high'
p1099
tp1100
asg25
Nsba(irule
FeatureMatrix
p1101
(dp1102
g23
(lp1103
(I00
g686
tp1104
a(I01
g742
tp1105
asg25
Nsbasg29
I00
sg25
Nsg31
I01
sg32
S'L'
sbsg33
(irule
FeatureMatrix
p1106
(dp1107
g23
(lp1108
(I00
g686
tp1109
a(I00
g694
tp1110
asg25
Nsbsg42
(irule
Guard
p1111
(dp1112
g18
I00
sg19
(lp1113
sg29
I00
sg25
Nsg31
I00
sg32
S'R'
sbsg46
(irule
FeatureMatrix
p1114
(dp1115
g23
(lp1116
sg25
Nsbsg25
Nsba(irule
Rule
p1117
(dp1118
g15
(irule
Guard
p1119
(dp1120
g18
I00
sg19
(lp1121
(irule
FeatureMatrix
p1122
(dp1123
g23
(lp1124
sg25
Nsba(irule
FeatureMatrix
p1125
(dp1126
g23
(lp1127
(I00
g686
tp1128
a(I00
g716
tp1129
a(I01
g688
tp1130
asg25
Nsbasg29
I00
sg25
Nsg31
I01
sg32
S'L'
sbsg33
(irule
FeatureMatrix
p1131
(dp1132
g23
(lp1133
(I00
g686
tp1134
a(I00
g694
tp1135
asg25
Nsbsg42
(irule
Guard
p1136
(dp1137
g18
I00
sg19
(lp1138
sg29
I00
sg25
Nsg31
I00
sg32
S'R'
sbsg46
(irule
FeatureMatrix
p1139
(dp1140
g23
(lp1141
sg25
Nsbsg25
Nsba(irule
Rule
p1142
(dp1143
g15
(irule
Guard
p1144
(dp1145
g18
I00
sg19
(lp1146
(irule
FeatureMatrix
p1147
(dp1148
g23
(lp1149
sg25
Nsba(irule
FeatureMatrix
p1150
(dp1151
g23
(lp1152
(I00
S'glide'
p1153
tp1154
a(I00
g686
tp1155
a(I01
g742
tp1156
asg25
Nsbasg29
I00
sg25
Nsg31
I01
sg32
S'L'
sbsg33
(irule
FeatureMatrix
p1157
(dp1158
g23
(lp1159
(I00
g686
tp1160
a(I00
g694
tp1161
asg25
Nsbsg42
(irule
Guard
p1162
(dp1163
g18
I00
sg19
(lp1164
sg29
I00
sg25
Nsg31
I00
sg32
S'R'
sbsg46
(irule
FeatureMatrix
p1165
(dp1166
g23
(lp1167
sg25
Nsbsg25
Nsba(irule
Rule
p1168
(dp1169
g15
(irule
Guard
p1170
(dp1171
g18
I00
sg19
(lp1172
(irule
FeatureMatrix
p1173
(dp1174
g23
(lp1175
sg25
Nsba(irule
FeatureMatrix
p1176
(dp1177
g23
(lp1178
(I00
g686
tp1179
a(I01
g742
tp1180
a(I01
g833
tp1181
asg25
Nsbasg29
I00
sg25
Nsg31
I01
sg32
S'L'
sbsg33
(irule
FeatureMatrix
p1182
(dp1183
g23
(lp1184
(I00
g686
tp1185
a(I00
g694
tp1186
asg25
Nsbsg42
(irule
Guard
p1187
(dp1188
g18
I00
sg19
(lp1189
sg29
I00
sg25
Nsg31
I00
sg32
S'R'
sbsg46
(irule
FeatureMatrix
p1190
(dp1191
g23
(lp1192
sg25
Nsbsg25
Nsba(irule
Rule
p1193
(dp1194
g15
(irule
Guard
p1195
(dp1196
g18
I00
sg19
(lp1197
(irule
FeatureMatrix
p1198
(dp1199
g23
(lp1200
(I00
g1022
tp1201
asg25
Nsba(irule
FeatureMatrix
p1202
(dp1203
g23
(lp1204
(I00
g686
tp1205
a(I01
g688
tp1206
asg25
Nsbasg29
I00
sg25
Nsg31
I01
sg32
S'L'
sbsg33
(irule
FeatureMatrix
p1207
(dp1208
g23
(lp1209
(I00
g686
tp1210
a(I00
g694
tp1211
asg25
Nsbsg42
(irule
Guard
p1212
(dp1213
g18
I00
sg19
(lp1214
sg29
I00
sg25
Nsg31
I00
sg32
S'R'
sbsg46
(irule
FeatureMatrix
p1215
(dp1216
g23
(lp1217
sg25
Nsbsg25
Nsba(irule
Rule
p1218
(dp1219
g15
(irule
Guard
p1220
(dp1221
g18
I00
sg19
(lp1222
(irule
FeatureMatrix
p1223
(dp1224
g23
(lp1225
sg25
Nsba(irule
FeatureMatrix
p1226
(dp1227
g23
(lp1228
(I00
g686
tp1229
a(I01
g688
tp1230
a(I01
g742
tp1231
asg25
Nsbasg29
I00
sg25
Nsg31
I01
sg32
S'L'
sbsg33
(irule
FeatureMatrix
p1232
(dp1233
g23
(lp1234
(I00
g686
tp1235
a(I00
g694
tp1236
asg25
Nsbsg42
(irule
Guard
p1237
(dp1238
g18
I00
sg19
(lp1239
sg29
I00
sg25
Nsg31
I00
sg32
S'R'
sbsg46
(irule
FeatureMatrix
p1240
(dp1241
g23
(lp1242
sg25
Nsbsg25
Nsba(irule
Rule
p1243
(dp1244
g15
(irule
Guard
p1245
(dp1246
g18
I00
sg19
(lp1247
(irule
FeatureMatrix
p1248
(dp1249
g23
(lp1250
sg25
Nsba(irule
FeatureMatrix
p1251
(dp1252
g23
(lp1253
(I00
g686
tp1254
a(I01
S'sonorant'
p1255
tp1256
a(I00
g716
tp1257
asg25
Nsbasg29
I00
sg25
Nsg31
I01
sg32
S'L'
sbsg33
(irule
FeatureMatrix
p1258
(dp1259
g23
(lp1260
(I00
g686
tp1261
a(I00
g694
tp1262
asg25
Nsbsg42
(irule
Guard
p1263
(dp1264
g18
I00
sg19
(lp1265
sg29
I00
sg25
Nsg31
I00
sg32
S'R'
sbsg46
(irule
FeatureMatrix
p1266
(dp1267
g23
(lp1268
sg25
Nsbsg25
Nsba(irule
Rule
p1269
(dp1270
g15
(irule
Guard
p1271
(dp1272
g18
I00
sg19
(lp1273
(irule
FeatureMatrix
p1274
(dp1275
g23
(lp1276
sg25
Nsba(irule
FeatureMatrix
p1277
(dp1278
g23
(lp1279
(I00
g686
tp1280
a(I00
g716
tp1281
a(I01
g742
tp1282
asg25
Nsbasg29
I00
sg25
Nsg31
I01
sg32
S'L'
sbsg33
(irule
FeatureMatrix
p1283
(dp1284
g23
(lp1285
(I00
g686
tp1286
a(I00
g694
tp1287
asg25
Nsbsg42
(irule
Guard
p1288
(dp1289
g18
I00
sg19
(lp1290
sg29
I00
sg25
Nsg31
I00
sg32
S'R'
sbsg46
(irule
FeatureMatrix
p1291
(dp1292
g23
(lp1293
sg25
Nsbsg25
Nsba(irule
Rule
p1294
(dp1295
g15
(irule
Guard
p1296
(dp1297
g18
I00
sg19
(lp1298
(irule
FeatureMatrix
p1299
(dp1300
g23
(lp1301
sg25
Nsba(irule
FeatureMatrix
p1302
(dp1303
g23
(lp1304
(I00
g686
tp1305
a(I00
S'palletized'
p1306
tp1307
a(I01
g742
tp1308
asg25
Nsbasg29
I00
sg25
Nsg31
I01
sg32
S'L'
sbsg33
(irule
FeatureMatrix
p1309
(dp1310
g23
(lp1311
(I00
g686
tp1312
a(I00
g694
tp1313
asg25
Nsbsg42
(irule
Guard
p1314
(dp1315
g18
I00
sg19
(lp1316
sg29
I00
sg25
Nsg31
I00
sg32
S'R'
sbsg46
(irule
FeatureMatrix
p1317
(dp1318
g23
(lp1319
sg25
Nsbsg25
Nsba(irule
Rule
p1320
(dp1321
g15
(irule
Guard
p1322
(dp1323
g18
I00
sg19
(lp1324
(irule
FeatureMatrix
p1325
(dp1326
g23
(lp1327
sg25
Nsba(irule
FeatureMatrix
p1328
(dp1329
g23
(lp1330
(I00
g871
tp1331
a(I00
g686
tp1332
a(I01
g688
tp1333
asg25
Nsbasg29
I00
sg25
Nsg31
I01
sg32
S'L'
sbsg33
(irule
FeatureMatrix
p1334
(dp1335
g23
(lp1336
(I00
g686
tp1337
a(I00
g694
tp1338
asg25
Nsbsg42
(irule
Guard
p1339
(dp1340
g18
I00
sg19
(lp1341
sg29
I00
sg25
Nsg31
I00
sg32
S'R'
sbsg46
(irule
FeatureMatrix
p1342
(dp1343
g23
(lp1344
sg25
Nsbsg25
Nsba(irule
Rule
p1345
(dp1346
g15
(irule
Guard
p1347
(dp1348
g18
I00
sg19
(lp1349
(irule
FeatureMatrix
p1350
(dp1351
g23
(lp1352
sg25
Nsba(irule
FeatureMatrix
p1353
(dp1354
g23
(lp1355
(I00
g686
tp1356
a(I01
g742
tp1357
asg25
Nsbasg29
I00
sg25
Nsg31
I01
sg32
S'L'
sbsg33
(irule
FeatureMatrix
p1358
(dp1359
g23
(lp1360
(I00
g686
tp1361
a(I00
g694
tp1362
asg25
Nsbsg42
(irule
Guard
p1363
(dp1364
g18
I00
sg19
(lp1365
sg29
I00
sg25
Nsg31
I00
sg32
S'R'
sbsg46
(irule
FeatureMatrix
p1366
(dp1367
g23
(lp1368
(I00
g1001
tp1369
asg25
Nsbsg25
Nsba(irule
Rule
p1370
(dp1371
g15
(irule
Guard
p1372
(dp1373
g18
I00
sg19
(lp1374
(irule
FeatureMatrix
p1375
(dp1376
g23
(lp1377
sg25
Nsba(irule
FeatureMatrix
p1378
(dp1379
g23
(lp1380
(I00
g686
tp1381
a(I01
g688
tp1382
asg25
Nsbasg29
I00
sg25
Nsg31
I01
sg32
S'L'
sbsg33
(irule
FeatureMatrix
p1383
(dp1384
g23
(lp1385
(I00
g686
tp1386
a(I00
g694
tp1387
asg25
Nsbsg42
(irule
Guard
p1388
(dp1389
g18
I00
sg19
(lp1390
sg29
I00
sg25
Nsg31
I00
sg32
S'R'
sbsg46
(irule
FeatureMatrix
p1391
(dp1392
g23
(lp1393
(I00
g1306
tp1394
asg25
Nsbsg25
Nsba(irule
Rule
p1395
(dp1396
g15
(irule
Guard
p1397
(dp1398
g18
I00
sg19
(lp1399
(irule
FeatureMatrix
p1400
(dp1401
g23
(lp1402
(I00
g1099
tp1403
asg25
Nsba(irule
FeatureMatrix
p1404
(dp1405
g23
(lp1406
(I00
g686
tp1407
a(I01
g688
tp1408
asg25
Nsbasg29
I00
sg25
Nsg31
I01
sg32
S'L'
sbsg33
(irule
FeatureMatrix
p1409
(dp1410
g23
(lp1411
(I00
g686
tp1412
a(I00
g694
tp1413
asg25
Nsbsg42
(irule
Guard
p1414
(dp1415
g18
I00
sg19
(lp1416
sg29
I00
sg25
Nsg31
I00
sg32
S'R'
sbsg46
(irule
FeatureMatrix
p1417
(dp1418
g23
(lp1419
sg25
Nsbsg25
Nsba(irule
Rule
p1420
(dp1421
g15
(irule
Guard
p1422
(dp1423
g18
I00
sg19
(lp1424
(irule
FeatureMatrix
p1425
(dp1426
g23
(lp1427
sg25
Nsba(irule
FeatureMatrix
p1428
(dp1429
g23
(lp1430
(I00
g686
tp1431
a(I01
g742
tp1432
asg25
Nsbasg29
I00
sg25
Nsg31
I01
sg32
S'L'
sbsg33
(irule
FeatureMatrix
p1433
(dp1434
g23
(lp1435
(I00
g686
tp1436
a(I00
g694
tp1437
asg25
Nsbsg42
(irule
Guard
p1438
(dp1439
g18
I00
sg19
(lp1440
sg29
I00
sg25
Nsg31
I00
sg32
S'R'
sbsg46
(irule
FeatureMatrix
p1441
(dp1442
g23
(lp1443
(I00
g1306
tp1444
asg25
Nsbsg25
Nsba(irule
Rule
p1445
(dp1446
g15
(irule
Guard
p1447
(dp1448
g18
I00
sg19
(lp1449
(irule
FeatureMatrix
p1450
(dp1451
g23
(lp1452
sg25
Nsba(irule
FeatureMatrix
p1453
(dp1454
g23
(lp1455
(I00
g1153
tp1456
a(I00
g686
tp1457
a(I01
g688
tp1458
asg25
Nsbasg29
I00
sg25
Nsg31
I01
sg32
S'L'
sbsg33
(irule
FeatureMatrix
p1459
(dp1460
g23
(lp1461
(I00
g686
tp1462
a(I00
g694
tp1463
asg25
Nsbsg42
(irule
Guard
p1464
(dp1465
g18
I00
sg19
(lp1466
sg29
I00
sg25
Nsg31
I00
sg32
S'R'
sbsg46
(irule
FeatureMatrix
p1467
(dp1468
g23
(lp1469
sg25
Nsbsg25
Nsba(irule
Rule
p1470
(dp1471
g15
(irule
Guard
p1472
(dp1473
g18
I00
sg19
(lp1474
(irule
FeatureMatrix
p1475
(dp1476
g23
(lp1477
sg25
Nsba(irule
FeatureMatrix
p1478
(dp1479
g23
(lp1480
(I00
g686
tp1481
a(I01
g688
tp1482
a(I01
g833
tp1483
asg25
Nsbasg29
I00
sg25
Nsg31
I01
sg32
S'L'
sbsg33
(irule
FeatureMatrix
p1484
(dp1485
g23
(lp1486
(I00
g686
tp1487
a(I00
g694
tp1488
asg25
Nsbsg42
(irule
Guard
p1489
(dp1490
g18
I00
sg19
(lp1491
sg29
I00
sg25
Nsg31
I00
sg32
S'R'
sbsg46
(irule
FeatureMatrix
p1492
(dp1493
g23
(lp1494
sg25
Nsbsg25
Nsba(irule
Rule
p1495
(dp1496
g15
(irule
Guard
p1497
(dp1498
g18
I00
sg19
(lp1499
(irule
FeatureMatrix
p1500
(dp1501
g23
(lp1502
sg25
Nsba(irule
FeatureMatrix
p1503
(dp1504
g23
(lp1505
(I00
g1089
tp1506
a(I00
g686
tp1507
a(I01
g688
tp1508
asg25
Nsbasg29
I00
sg25
Nsg31
I01
sg32
S'L'
sbsg33
(irule
FeatureMatrix
p1509
(dp1510
g23
(lp1511
(I00
g686
tp1512
a(I00
g694
tp1513
asg25
Nsbsg42
(irule
Guard
p1514
(dp1515
g18
I00
sg19
(lp1516
sg29
I00
sg25
Nsg31
I00
sg32
S'R'
sbsg46
(irule
FeatureMatrix
p1517
(dp1518
g23
(lp1519
sg25
Nsbsg25
Nsba(irule
Rule
p1520
(dp1521
g15
(irule
Guard
p1522
(dp1523
g18
I00
sg19
(lp1524
(irule
FeatureMatrix
p1525
(dp1526
g23
(lp1527
sg25
Nsba(irule
FeatureMatrix
p1528
(dp1529
g23
(lp1530
(I00
g1089
tp1531
a(I00
g686
tp1532
a(I01
g742
tp1533
asg25
Nsbasg29
I00
sg25
Nsg31
I01
sg32
S'L'
sbsg33
(irule
FeatureMatrix
p1534
(dp1535
g23
(lp1536
(I00
g686
tp1537
a(I00
g694
tp1538
asg25
Nsbsg42
(irule
Guard
p1539
(dp1540
g18
I00
sg19
(lp1541
sg29
I00
sg25
Nsg31
I00
sg32
S'R'
sbsg46
(irule
FeatureMatrix
p1542
(dp1543
g23
(lp1544
sg25
Nsbsg25
Nsba(irule
Rule
p1545
(dp1546
g15
(irule
Guard
p1547
(dp1548
g18
I00
sg19
(lp1549
(irule
FeatureMatrix
p1550
(dp1551
g23
(lp1552
sg25
Nsba(irule
FeatureMatrix
p1553
(dp1554
g23
(lp1555
(I00
g1022
tp1556
a(I00
g686
tp1557
a(I01
g688
tp1558
asg25
Nsbasg29
I00
sg25
Nsg31
I01
sg32
S'L'
sbsg33
(irule
FeatureMatrix
p1559
(dp1560
g23
(lp1561
(I00
g686
tp1562
a(I00
g694
tp1563
asg25
Nsbsg42
(irule
Guard
p1564
(dp1565
g18
I00
sg19
(lp1566
sg29
I00
sg25
Nsg31
I00
sg32
S'R'
sbsg46
(irule
FeatureMatrix
p1567
(dp1568
g23
(lp1569
sg25
Nsbsg25
Nsba(irule
Rule
p1570
(dp1571
g15
(irule
Guard
p1572
(dp1573
g18
I00
sg19
(lp1574
(irule
FeatureMatrix
p1575
(dp1576
g23
(lp1577
sg25
Nsba(irule
FeatureMatrix
p1578
(dp1579
g23
(lp1580
(I01
g897
tp1581
a(I00
g686
tp1582
a(I01
g688
tp1583
asg25
Nsbasg29
I00
sg25
Nsg31
I01
sg32
S'L'
sbsg33
(irule
FeatureMatrix
p1584
(dp1585
g23
(lp1586
(I00
g686
tp1587
a(I00
g694
tp1588
asg25
Nsbsg42
(irule
Guard
p1589
(dp1590
g18
I00
sg19
(lp1591
sg29
I00
sg25
Nsg31
I00
sg32
S'R'
sbsg46
(irule
FeatureMatrix
p1592
(dp1593
g23
(lp1594
sg25
Nsbsg25
Nsba(irule
Rule
p1595
(dp1596
g15
(irule
Guard
p1597
(dp1598
g18
I00
sg19
(lp1599
(irule
FeatureMatrix
p1600
(dp1601
g23
(lp1602
sg25
Nsba(irule
FeatureMatrix
p1603
(dp1604
g23
(lp1605
(I00
g686
tp1606
a(I01
g1255
tp1607
a(I01
g742
tp1608
asg25
Nsbasg29
I00
sg25
Nsg31
I01
sg32
S'L'
sbsg33
(irule
FeatureMatrix
p1609
(dp1610
g23
(lp1611
(I00
g686
tp1612
a(I00
g694
tp1613
asg25
Nsbsg42
(irule
Guard
p1614
(dp1615
g18
I00
sg19
(lp1616
sg29
I00
sg25
Nsg31
I00
sg32
S'R'
sbsg46
(irule
FeatureMatrix
p1617
(dp1618
g23
(lp1619
sg25
Nsbsg25
Nsba(irule
Rule
p1620
(dp1621
g15
(irule
Guard
p1622
(dp1623
g18
I00
sg19
(lp1624
(irule
FeatureMatrix
p1625
(dp1626
g23
(lp1627
sg25
Nsba(irule
FeatureMatrix
p1628
(dp1629
g23
(lp1630
(I00
g686
tp1631
a(I01
g1255
tp1632
a(I01
g688
tp1633
asg25
Nsbasg29
I00
sg25
Nsg31
I01
sg32
S'L'
sbsg33
(irule
FeatureMatrix
p1634
(dp1635
g23
(lp1636
(I00
g686
tp1637
a(I00
g694
tp1638
asg25
Nsbsg42
(irule
Guard
p1639
(dp1640
g18
I00
sg19
(lp1641
sg29
I00
sg25
Nsg31
I00
sg32
S'R'
sbsg46
(irule
FeatureMatrix
p1642
(dp1643
g23
(lp1644
sg25
Nsbsg25
Nsba(irule
Rule
p1645
(dp1646
g15
(irule
Guard
p1647
(dp1648
g18
I00
sg19
(lp1649
(irule
FeatureMatrix
p1650
(dp1651
g23
(lp1652
sg25
Nsba(irule
FeatureMatrix
p1653
(dp1654
g23
(lp1655
(I00
g686
tp1656
a(I00
g1306
tp1657
a(I01
g688
tp1658
asg25
Nsbasg29
I00
sg25
Nsg31
I01
sg32
S'L'
sbsg33
(irule
FeatureMatrix
p1659
(dp1660
g23
(lp1661
(I00
g686
tp1662
a(I00
g694
tp1663
asg25
Nsbsg42
(irule
Guard
p1664
(dp1665
g18
I00
sg19
(lp1666
sg29
I00
sg25
Nsg31
I00
sg32
S'R'
sbsg46
(irule
FeatureMatrix
p1667
(dp1668
g23
(lp1669
sg25
Nsbsg25
Nsba(irule
Rule
p1670
(dp1671
g15
(irule
Guard
p1672
(dp1673
g18
I00
sg19
(lp1674
(irule
FeatureMatrix
p1675
(dp1676
g23
(lp1677
sg25
Nsba(irule
FeatureMatrix
p1678
(dp1679
g23
(lp1680
(I00
g686
tp1681
a(I01
g742
tp1682
asg25
Nsbasg29
I00
sg25
Nsg31
I01
sg32
S'L'
sbsg33
(irule
FeatureMatrix
p1683
(dp1684
g23
(lp1685
(I00
g686
tp1686
a(I00
g694
tp1687
asg25
Nsbsg42
(irule
Guard
p1688
(dp1689
g18
I00
sg19
(lp1690
sg29
I00
sg25
Nsg31
I00
sg32
S'R'
sbsg46
(irule
FeatureMatrix
p1691
(dp1692
g23
(lp1693
(I01
g833
tp1694
asg25
Nsbsg25
Nsba(irule
Rule
p1695
(dp1696
g15
(irule
Guard
p1697
(dp1698
g18
I00
sg19
(lp1699
(irule
FeatureMatrix
p1700
(dp1701
g23
(lp1702
sg25
Nsba(irule
FeatureMatrix
p1703
(dp1704
g23
(lp1705
(I01
g897
tp1706
a(I00
g686
tp1707
a(I01
g742
tp1708
asg25
Nsbasg29
I00
sg25
Nsg31
I01
sg32
S'L'
sbsg33
(irule
FeatureMatrix
p1709
(dp1710
g23
(lp1711
(I00
g686
tp1712
a(I00
g694
tp1713
asg25
Nsbsg42
(irule
Guard
p1714
(dp1715
g18
I00
sg19
(lp1716
sg29
I00
sg25
Nsg31
I00
sg32
S'R'
sbsg46
(irule
FeatureMatrix
p1717
(dp1718
g23
(lp1719
sg25
Nsbsg25
Nsba(irule
Rule
p1720
(dp1721
g15
(irule
Guard
p1722
(dp1723
g18
I00
sg19
(lp1724
(irule
FeatureMatrix
p1725
(dp1726
g23
(lp1727
sg25
Nsba(irule
FeatureMatrix
p1728
(dp1729
g23
(lp1730
(I00
g686
tp1731
a(I01
g688
tp1732
asg25
Nsbasg29
I00
sg25
Nsg31
I01
sg32
S'L'
sbsg33
(irule
FeatureMatrix
p1733
(dp1734
g23
(lp1735
(I00
g686
tp1736
a(I00
g694
tp1737
asg25
Nsbsg42
(irule
Guard
p1738
(dp1739
g18
I00
sg19
(lp1740
sg29
I00
sg25
Nsg31
I00
sg32
S'R'
sbsg46
(irule
FeatureMatrix
p1741
(dp1742
g23
(lp1743
(I00
g871
tp1744
asg25
Nsbsg25
Nsba(irule
Rule
p1745
(dp1746
g15
(irule
Guard
p1747
(dp1748
g18
I00
sg19
(lp1749
(irule
FeatureMatrix
p1750
(dp1751
g23
(lp1752
sg25
Nsba(irule
FeatureMatrix
p1753
(dp1754
g23
(lp1755
(I00
g686
tp1756
a(I01
g742
tp1757
asg25
Nsbasg29
I00
sg25
Nsg31
I01
sg32
S'L'
sbsg33
(irule
FeatureMatrix
p1758
(dp1759
g23
(lp1760
(I00
g686
tp1761
a(I00
g694
tp1762
asg25
Nsbsg42
(irule
Guard
p1763
(dp1764
g18
I00
sg19
(lp1765
sg29
I00
sg25
Nsg31
I00
sg32
S'R'
sbsg46
(irule
FeatureMatrix
p1766
(dp1767
g23
(lp1768
(I00
g871
tp1769
asg25
Nsbsg25
Nsba(irule
Rule
p1770
(dp1771
g15
(irule
Guard
p1772
(dp1773
g18
I00
sg19
(lp1774
(irule
FeatureMatrix
p1775
(dp1776
g23
(lp1777
sg25
Nsba(irule
FeatureMatrix
p1778
(dp1779
g23
(lp1780
(I00
g686
tp1781
a(I01
g742
tp1782
asg25
Nsbasg29
I00
sg25
Nsg31
I01
sg32
S'L'
sbsg33
(irule
FeatureMatrix
p1783
(dp1784
g23
(lp1785
(I00
g686
tp1786
a(I00
g694
tp1787
asg25
Nsbsg42
(irule
Guard
p1788
(dp1789
g18
I00
sg19
(lp1790
sg29
I00
sg25
Nsg31
I00
sg32
S'R'
sbsg46
(irule
FeatureMatrix
p1791
(dp1792
g23
(lp1793
(I01
g742
tp1794
asg25
Nsbsg25
Nsba(irule
Rule
p1795
(dp1796
g15
(irule
Guard
p1797
(dp1798
g18
I00
sg19
(lp1799
(irule
FeatureMatrix
p1800
(dp1801
g23
(lp1802
sg25
Nsba(irule
FeatureMatrix
p1803
(dp1804
g23
(lp1805
(I00
g686
tp1806
a(I01
g688
tp1807
a(I00
g694
tp1808
asg25
Nsbasg29
I00
sg25
Nsg31
I01
sg32
S'L'
sbsg33
(irule
FeatureMatrix
p1809
(dp1810
g23
(lp1811
(I00
g686
tp1812
a(I00
g694
tp1813
asg25
Nsbsg42
(irule
Guard
p1814
(dp1815
g18
I00
sg19
(lp1816
sg29
I00
sg25
Nsg31
I00
sg32
S'R'
sbsg46
(irule
FeatureMatrix
p1817
(dp1818
g23
(lp1819
sg25
Nsbsg25
Nsba(irule
Rule
p1820
(dp1821
g15
(irule
Guard
p1822
(dp1823
g18
I00
sg19
(lp1824
(irule
FeatureMatrix
p1825
(dp1826
g23
(lp1827
sg25
Nsba(irule
FeatureMatrix
p1828
(dp1829
g23
(lp1830
(I00
g686
tp1831
a(I01
g688
tp1832
a(I00
g1001
tp1833
asg25
Nsbasg29
I00
sg25
Nsg31
I01
sg32
S'L'
sbsg33
(irule
FeatureMatrix
p1834
(dp1835
g23
(lp1836
(I00
g686
tp1837
a(I00
g694
tp1838
asg25
Nsbsg42
(irule
Guard
p1839
(dp1840
g18
I00
sg19
(lp1841
sg29
I00
sg25
Nsg31
I00
sg32
S'R'
sbsg46
(irule
FeatureMatrix
p1842
(dp1843
g23
(lp1844
sg25
Nsbsg25
Nsba(irule
Rule
p1845
(dp1846
g15
(irule
Guard
p1847
(dp1848
g18
I00
sg19
(lp1849
(irule
FeatureMatrix
p1850
(dp1851
g23
(lp1852
sg25
Nsba(irule
FeatureMatrix
p1853
(dp1854
g23
(lp1855
(I00
g686
tp1856
a(I01
g688
tp1857
asg25
Nsbasg29
I00
sg25
Nsg31
I01
sg32
S'L'
sbsg33
(irule
FeatureMatrix
p1858
(dp1859
g23
(lp1860
(I00
g686
tp1861
a(I00
g694
tp1862
asg25
Nsbsg42
(irule
Guard
p1863
(dp1864
g18
I00
sg19
(lp1865
sg29
I00
sg25
Nsg31
I00
sg32
S'R'
sbsg46
(irule
FeatureMatrix
p1866
(dp1867
g23
(lp1868
(I01
g742
tp1869
asg25
Nsbsg25
Nsba(irule
Rule
p1870
(dp1871
g15
(irule
Guard
p1872
(dp1873
g18
I00
sg19
(lp1874
(irule
FeatureMatrix
p1875
(dp1876
g23
(lp1877
sg25
Nsba(irule
FeatureMatrix
p1878
(dp1879
g23
(lp1880
(I00
g1022
tp1881
a(I00
g686
tp1882
a(I01
g742
tp1883
asg25
Nsbasg29
I00
sg25
Nsg31
I01
sg32
S'L'
sbsg33
(irule
FeatureMatrix
p1884
(dp1885
g23
(lp1886
(I00
g686
tp1887
a(I00
g694
tp1888
asg25
Nsbsg42
(irule
Guard
p1889
(dp1890
g18
I00
sg19
(lp1891
sg29
I00
sg25
Nsg31
I00
sg32
S'R'
sbsg46
(irule
FeatureMatrix
p1892
(dp1893
g23
(lp1894
sg25
Nsbsg25
Nsba(irule
Rule
p1895
(dp1896
g15
(irule
Guard
p1897
(dp1898
g18
I00
sg19
(lp1899
(irule
FeatureMatrix
p1900
(dp1901
g23
(lp1902
sg25
Nsba(irule
FeatureMatrix
p1903
(dp1904
g23
(lp1905
(I00
g686
tp1906
a(I01
g742
tp1907
asg25
Nsbasg29
I00
sg25
Nsg31
I01
sg32
S'L'
sbsg33
(irule
FeatureMatrix
p1908
(dp1909
g23
(lp1910
(I00
g686
tp1911
a(I00
g694
tp1912
asg25
Nsbsg42
(irule
Guard
p1913
(dp1914
g18
I00
sg19
(lp1915
sg29
I00
sg25
Nsg31
I00
sg32
S'R'
sbsg46
(irule
FeatureMatrix
p1916
(dp1917
g23
(lp1918
(I01
g688
tp1919
asg25
Nsbsg25
Nsba(irule
Rule
p1920
(dp1921
g15
(irule
Guard
p1922
(dp1923
g18
I00
sg19
(lp1924
(irule
FeatureMatrix
p1925
(dp1926
g23
(lp1927
sg25
Nsba(irule
FeatureMatrix
p1928
(dp1929
g23
(lp1930
(I00
g686
tp1931
a(I01
g688
tp1932
asg25
Nsbasg29
I00
sg25
Nsg31
I01
sg32
S'L'
sbsg33
(irule
FeatureMatrix
p1933
(dp1934
g23
(lp1935
(I00
g686
tp1936
a(I00
g694
tp1937
asg25
Nsbsg42
(irule
Guard
p1938
(dp1939
g18
I00
sg19
(lp1940
sg29
I00
sg25
Nsg31
I00
sg32
S'R'
sbsg46
(irule
FeatureMatrix
p1941
(dp1942
g23
(lp1943
(I00
g1001
tp1944
asg25
Nsbsg25
Nsba(irule
Rule
p1945
(dp1946
g15
(irule
Guard
p1947
(dp1948
g18
I00
sg19
(lp1949
(irule
FeatureMatrix
p1950
(dp1951
g23
(lp1952
sg25
Nsba(irule
FeatureMatrix
p1953
(dp1954
g23
(lp1955
(I00
g686
tp1956
a(I01
g742
tp1957
asg25
Nsbasg29
I00
sg25
Nsg31
I01
sg32
S'L'
sbsg33
(irule
FeatureMatrix
p1958
(dp1959
g23
(lp1960
(I00
g686
tp1961
a(I00
g694
tp1962
asg25
Nsbsg42
(irule
Guard
p1963
(dp1964
g18
I00
sg19
(lp1965
sg29
I00
sg25
Nsg31
I00
sg32
S'R'
sbsg46
(irule
FeatureMatrix
p1966
(dp1967
g23
(lp1968
(I00
g716
tp1969
asg25
Nsbsg25
Nsba(irule
Rule
p1970
(dp1971
g15
(irule
Guard
p1972
(dp1973
g18
I00
sg19
(lp1974
(irule
FeatureMatrix
p1975
(dp1976
g23
(lp1977
sg25
Nsba(irule
FeatureMatrix
p1978
(dp1979
g23
(lp1980
(I00
g686
tp1981
a(I01
g688
tp1982
asg25
Nsbasg29
I00
sg25
Nsg31
I01
sg32
S'L'
sbsg33
(irule
FeatureMatrix
p1983
(dp1984
g23
(lp1985
(I00
g686
tp1986
a(I00
g694
tp1987
asg25
Nsbsg42
(irule
Guard
p1988
(dp1989
g18
I00
sg19
(lp1990
sg29
I00
sg25
Nsg31
I00
sg32
S'R'
sbsg46
(irule
FeatureMatrix
p1991
(dp1992
g23
(lp1993
(I01
g688
tp1994
asg25
Nsbsg25
Nsba(irule
Rule
p1995
(dp1996
g15
(irule
Guard
p1997
(dp1998
g18
I00
sg19
(lp1999
(irule
FeatureMatrix
p2000
(dp2001
g23
(lp2002
sg25
Nsba(irule
FeatureMatrix
p2003
(dp2004
g23
(lp2005
(I00
g686
tp2006
a(I01
g688
tp2007
asg25
Nsbasg29
I00
sg25
Nsg31
I01
sg32
S'L'
sbsg33
(irule
FeatureMatrix
p2008
(dp2009
g23
(lp2010
(I00
g686
tp2011
a(I00
g694
tp2012
asg25
Nsbsg42
(irule
Guard
p2013
(dp2014
g18
I00
sg19
(lp2015
sg29
I00
sg25
Nsg31
I00
sg32
S'R'
sbsg46
(irule
FeatureMatrix
p2016
(dp2017
g23
(lp2018
(I00
g716
tp2019
asg25
Nsbsg25
Nsba(irule
Rule
p2020
(dp2021
g15
(irule
Guard
p2022
(dp2023
g18
I00
sg19
(lp2024
(irule
FeatureMatrix
p2025
(dp2026
g23
(lp2027
sg25
Nsba(irule
FeatureMatrix
p2028
(dp2029
g23
(lp2030
(I00
g686
tp2031
a(I01
g742
tp2032
asg25
Nsbasg29
I00
sg25
Nsg31
I01
sg32
S'L'
sbsg33
(irule
FeatureMatrix
p2033
(dp2034
g23
(lp2035
(I00
g686
tp2036
a(I00
g694
tp2037
asg25
Nsbsg42
(irule
Guard
p2038
(dp2039
g18
I00
sg19
(lp2040
sg29
I00
sg25
Nsg31
I00
sg32
S'R'
sbsg46
(irule
FeatureMatrix
p2041
(dp2042
g23
(lp2043
(I00
g1022
tp2044
asg25
Nsbsg25
Nsba(irule
Rule
p2045
(dp2046
g15
(irule
Guard
p2047
(dp2048
g18
I00
sg19
(lp2049
(irule
FeatureMatrix
p2050
(dp2051
g23
(lp2052
sg25
Nsba(irule
FeatureMatrix
p2053
(dp2054
g23
(lp2055
(I00
g686
tp2056
a(I01
g742
tp2057
asg25
Nsbasg29
I00
sg25
Nsg31
I01
sg32
S'L'
sbsg33
(irule
FeatureMatrix
p2058
(dp2059
g23
(lp2060
(I00
g686
tp2061
a(I00
g694
tp2062
asg25
Nsbsg42
(irule
Guard
p2063
(dp2064
g18
I00
sg19
(lp2065
sg29
I00
sg25
Nsg31
I00
sg32
S'R'
sbsg46
(irule
FeatureMatrix
p2066
(dp2067
g23
(lp2068
(I00
g1153
tp2069
asg25
Nsbsg25
Nsba(irule
Rule
p2070
(dp2071
g15
(irule
Guard
p2072
(dp2073
g18
I00
sg19
(lp2074
(irule
FeatureMatrix
p2075
(dp2076
g23
(lp2077
sg25
Nsba(irule
FeatureMatrix
p2078
(dp2079
g23
(lp2080
(I00
g686
tp2081
a(I01
g688
tp2082
asg25
Nsbasg29
I00
sg25
Nsg31
I01
sg32
S'L'
sbsg33
(irule
FeatureMatrix
p2083
(dp2084
g23
(lp2085
(I00
g686
tp2086
a(I00
g694
tp2087
asg25
Nsbsg42
(irule
Guard
p2088
(dp2089
g18
I00
sg19
(lp2090
sg29
I00
sg25
Nsg31
I00
sg32
S'R'
sbsg46
(irule
FeatureMatrix
p2091
(dp2092
g23
(lp2093
(I00
g1022
tp2094
asg25
Nsbsg25
Nsba(irule
Rule
p2095
(dp2096
g15
(irule
Guard
p2097
(dp2098
g18
I00
sg19
(lp2099
(irule
FeatureMatrix
p2100
(dp2101
g23
(lp2102
sg25
Nsba(irule
FeatureMatrix
p2103
(dp2104
g23
(lp2105
(I00
g686
tp2106
a(I01
g742
tp2107
asg25
Nsbasg29
I00
sg25
Nsg31
I01
sg32
S'L'
sbsg33
(irule
FeatureMatrix
p2108
(dp2109
g23
(lp2110
(I00
g686
tp2111
a(I00
g694
tp2112
asg25
Nsbsg42
(irule
Guard
p2113
(dp2114
g18
I00
sg19
(lp2115
sg29
I00
sg25
Nsg31
I00
sg32
S'R'
sbsg46
(irule
FeatureMatrix
p2116
(dp2117
g23
(lp2118
(I01
g1255
tp2119
asg25
Nsbsg25
Nsba(irule
Rule
p2120
(dp2121
g15
(irule
Guard
p2122
(dp2123
g18
I00
sg19
(lp2124
(irule
FeatureMatrix
p2125
(dp2126
g23
(lp2127
sg25
Nsba(irule
FeatureMatrix
p2128
(dp2129
g23
(lp2130
(I00
g686
tp2131
a(I01
g688
tp2132
asg25
Nsbasg29
I00
sg25
Nsg31
I01
sg32
S'L'
sbsg33
(irule
FeatureMatrix
p2133
(dp2134
g23
(lp2135
(I00
g686
tp2136
a(I00
g694
tp2137
asg25
Nsbsg42
(irule
Guard
p2138
(dp2139
g18
I00
sg19
(lp2140
sg29
I00
sg25
Nsg31
I00
sg32
S'R'
sbsg46
(irule
FeatureMatrix
p2141
(dp2142
g23
(lp2143
(I00
g1089
tp2144
asg25
Nsbsg25
Nsba(irule
Rule
p2145
(dp2146
g15
(irule
Guard
p2147
(dp2148
g18
I00
sg19
(lp2149
(irule
FeatureMatrix
p2150
(dp2151
g23
(lp2152
sg25
Nsba(irule
FeatureMatrix
p2153
(dp2154
g23
(lp2155
(I00
g686
tp2156
a(I01
g688
tp2157
asg25
Nsbasg29
I00
sg25
Nsg31
I01
sg32
S'L'
sbsg33
(irule
FeatureMatrix
p2158
(dp2159
g23
(lp2160
(I00
g686
tp2161
a(I00
g694
tp2162
asg25
Nsbsg42
(irule
Guard
p2163
(dp2164
g18
I00
sg19
(lp2165
sg29
I00
sg25
Nsg31
I00
sg32
S'R'
sbsg46
(irule
FeatureMatrix
p2166
(dp2167
g23
(lp2168
(I00
g1153
tp2169
asg25
Nsbsg25
Nsba(irule
Rule
p2170
(dp2171
g15
(irule
Guard
p2172
(dp2173
g18
I00
sg19
(lp2174
(irule
FeatureMatrix
p2175
(dp2176
g23
(lp2177
sg25
Nsba(irule
FeatureMatrix
p2178
(dp2179
g23
(lp2180
(I00
g686
tp2181
a(I01
g742
tp2182
asg25
Nsbasg29
I00
sg25
Nsg31
I01
sg32
S'L'
sbsg33
(irule
FeatureMatrix
p2183
(dp2184
g23
(lp2185
(I00
g686
tp2186
a(I00
g694
tp2187
asg25
Nsbsg42
(irule
Guard
p2188
(dp2189
g18
I00
sg19
(lp2190
sg29
I00
sg25
Nsg31
I00
sg32
S'R'
sbsg46
(irule
FeatureMatrix
p2191
(dp2192
g23
(lp2193
(I01
g686
tp2194
asg25
Nsbsg25
Nsba(irule
Rule
p2195
(dp2196
g15
(irule
Guard
p2197
(dp2198
g18
I00
sg19
(lp2199
(irule
FeatureMatrix
p2200
(dp2201
g23
(lp2202
sg25
Nsba(irule
FeatureMatrix
p2203
(dp2204
g23
(lp2205
(I00
g686
tp2206
a(I01
g688
tp2207
asg25
Nsbasg29
I00
sg25
Nsg31
I01
sg32
S'L'
sbsg33
(irule
FeatureMatrix
p2208
(dp2209
g23
(lp2210
(I00
g686
tp2211
a(I00
g694
tp2212
asg25
Nsbsg42
(irule
Guard
p2213
(dp2214
g18
I00
sg19
(lp2215
sg29
I00
sg25
Nsg31
I00
sg32
S'R'
sbsg46
(irule
FeatureMatrix
p2216
(dp2217
g23
(lp2218
(I01
g1255
tp2219
asg25
Nsbsg25
Nsba(irule
Rule
p2220
(dp2221
g15
(irule
Guard
p2222
(dp2223
g18
I00
sg19
(lp2224
(irule
FeatureMatrix
p2225
(dp2226
g23
(lp2227
sg25
Nsba(irule
FeatureMatrix
p2228
(dp2229
g23
(lp2230
(I00
g686
tp2231
a(I01
g742
tp2232
asg25
Nsbasg29
I00
sg25
Nsg31
I01
sg32
S'L'
sbsg33
(irule
FeatureMatrix
p2233
(dp2234
g23
(lp2235
(I00
g686
tp2236
a(I00
g694
tp2237
asg25
Nsbsg42
(irule
Guard
p2238
(dp2239
g18
I00
sg19
(lp2240
sg29
I00
sg25
Nsg31
I00
sg32
S'R'
sbsg46
(irule
FeatureMatrix
p2241
(dp2242
g23
(lp2243
(I00
g713
tp2244
asg25
Nsbsg25
Nsba(irule
Rule
p2245
(dp2246
g15
(irule
Guard
p2247
(dp2248
g18
I00
sg19
(lp2249
(irule
FeatureMatrix
p2250
(dp2251
g23
(lp2252
sg25
Nsba(irule
FeatureMatrix
p2253
(dp2254
g23
(lp2255
(I00
g686
tp2256
a(I01
g688
tp2257
asg25
Nsbasg29
I00
sg25
Nsg31
I01
sg32
S'L'
sbsg33
(irule
FeatureMatrix
p2258
(dp2259
g23
(lp2260
(I00
g686
tp2261
a(I00
g694
tp2262
asg25
Nsbsg42
(irule
Guard
p2263
(dp2264
g18
I00
sg19
(lp2265
sg29
I00
sg25
Nsg31
I00
sg32
S'R'
sbsg46
(irule
FeatureMatrix
p2266
(dp2267
g23
(lp2268
(I01
g686
tp2269
asg25
Nsbsg25
Nsba(irule
Rule
p2270
(dp2271
g15
(irule
Guard
p2272
(dp2273
g18
I00
sg19
(lp2274
(irule
FeatureMatrix
p2275
(dp2276
g23
(lp2277
sg25
Nsba(irule
FeatureMatrix
p2278
(dp2279
g23
(lp2280
(I00
g686
tp2281
a(I01
g742
tp2282
asg25
Nsbasg29
I00
sg25
Nsg31
I01
sg32
S'L'
sbsg33
(irule
FeatureMatrix
p2283
(dp2284
g23
(lp2285
(I00
g686
tp2286
a(I00
g694
tp2287
asg25
Nsbsg42
(irule
Guard
p2288
(dp2289
g18
I00
sg19
(lp2290
sg29
I00
sg25
Nsg31
I00
sg32
S'R'
sbsg46
(irule
FeatureMatrix
p2291
(dp2292
g23
(lp2293
(I01
g897
tp2294
asg25
Nsbsg25
Nsba(irule
Rule
p2295
(dp2296
g15
(irule
Guard
p2297
(dp2298
g18
I00
sg19
(lp2299
(irule
FeatureMatrix
p2300
(dp2301
g23
(lp2302
sg25
Nsba(irule
FeatureMatrix
p2303
(dp2304
g23
(lp2305
(I00
g686
tp2306
a(I01
g688
tp2307
asg25
Nsbasg29
I00
sg25
Nsg31
I01
sg32
S'L'
sbsg33
(irule
FeatureMatrix
p2308
(dp2309
g23
(lp2310
(I00
g686
tp2311
a(I00
g694
tp2312
asg25
Nsbsg42
(irule
Guard
p2313
(dp2314
g18
I00
sg19
(lp2315
sg29
I00
sg25
Nsg31
I00
sg32
S'R'
sbsg46
(irule
FeatureMatrix
p2316
(dp2317
g23
(lp2318
(I00
g713
tp2319
asg25
Nsbsg25
Nsba(irule
Rule
p2320
(dp2321
g15
(irule
Guard
p2322
(dp2323
g18
I00
sg19
(lp2324
(irule
FeatureMatrix
p2325
(dp2326
g23
(lp2327
sg25
Nsba(irule
FeatureMatrix
p2328
(dp2329
g23
(lp2330
(I00
g686
tp2331
a(I01
g688
tp2332
asg25
Nsbasg29
I00
sg25
Nsg31
I01
sg32
S'L'
sbsg33
(irule
FeatureMatrix
p2333
(dp2334
g23
(lp2335
(I00
g686
tp2336
a(I00
g694
tp2337
asg25
Nsbsg42
(irule
Guard
p2338
(dp2339
g18
I00
sg19
(lp2340
sg29
I00
sg25
Nsg31
I00
sg32
S'R'
sbsg46
(irule
FeatureMatrix
p2341
(dp2342
g23
(lp2343
(I01
g897
tp2344
asg25
Nsbsg25
Nsba(irule
Rule
p2345
(dp2346
g15
(irule
Guard
p2347
(dp2348
g18
I00
sg19
(lp2349
(irule
FeatureMatrix
p2350
(dp2351
g23
(lp2352
sg25
Nsba(irule
FeatureMatrix
p2353
(dp2354
g23
(lp2355
(I00
g686
tp2356
a(I01
g742
tp2357
asg25
Nsbasg29
I00
sg25
Nsg31
I01
sg32
S'L'
sbsg33
(irule
FeatureMatrix
p2358
(dp2359
g23
(lp2360
(I00
g686
tp2361
a(I00
g694
tp2362
asg25
Nsbsg42
(irule
Guard
p2363
(dp2364
g18
I00
sg19
(lp2365
(irule
FeatureMatrix
p2366
(dp2367
g23
(lp2368
(I00
g742
tp2369
asg25
Nsbasg29
I00
sg25
Nsg31
I00
sg32
S'R'
sbsg46
(irule
FeatureMatrix
p2370
(dp2371
g23
(lp2372
sg25
Nsbsg25
Nsba(irule
Rule
p2373
(dp2374
g15
(irule
Guard
p2375
(dp2376
g18
I00
sg19
(lp2377
(irule
FeatureMatrix
p2378
(dp2379
g23
(lp2380
(I00
g945
tp2381
asg25
Nsba(irule
FeatureMatrix
p2382
(dp2383
g23
(lp2384
(I00
g686
tp2385
a(I00
g716
tp2386
a(I01
g833
tp2387
asg25
Nsbasg29
I00
sg25
Nsg31
I01
sg32
S'L'
sbsg33
(irule
FeatureMatrix
p2388
(dp2389
g23
(lp2390
(I00
g686
tp2391
a(I00
g694
tp2392
asg25
Nsbsg42
(irule
Guard
p2393
(dp2394
g18
I00
sg19
(lp2395
sg29
I00
sg25
Nsg31
I00
sg32
S'R'
sbsg46
(irule
FeatureMatrix
p2396
(dp2397
g23
(lp2398
sg25
Nsbsg25
Nsba(irule
Rule
p2399
(dp2400
g15
(irule
Guard
p2401
(dp2402
g18
I00
sg19
(lp2403
(irule
FeatureMatrix
p2404
(dp2405
g23
(lp2406
(I00
g945
tp2407
asg25
Nsba(irule
FeatureMatrix
p2408
(dp2409
g23
(lp2410
(I00
g713
tp2411
a(I00
g686
tp2412
a(I00
g716
tp2413
asg25
Nsbasg29
I00
sg25
Nsg31
I01
sg32
S'L'
sbsg33
(irule
FeatureMatrix
p2414
(dp2415
g23
(lp2416
(I00
g686
tp2417
a(I00
g694
tp2418
asg25
Nsbsg42
(irule
Guard
p2419
(dp2420
g18
I00
sg19
(lp2421
sg29
I00
sg25
Nsg31
I00
sg32
S'R'
sbsg46
(irule
FeatureMatrix
p2422
(dp2423
g23
(lp2424
sg25
Nsbsg25
Nsba(irule
Rule
p2425
(dp2426
g15
(irule
Guard
p2427
(dp2428
g18
I00
sg19
(lp2429
(irule
FeatureMatrix
p2430
(dp2431
g23
(lp2432
(I00
g1153
tp2433
asg25
Nsba(irule
FeatureMatrix
p2434
(dp2435
g23
(lp2436
(I00
g713
tp2437
a(I00
g686
tp2438
a(I00
g716
tp2439
asg25
Nsbasg29
I00
sg25
Nsg31
I01
sg32
S'L'
sbsg33
(irule
FeatureMatrix
p2440
(dp2441
g23
(lp2442
(I00
g686
tp2443
a(I00
g694
tp2444
asg25
Nsbsg42
(irule
Guard
p2445
(dp2446
g18
I00
sg19
(lp2447
sg29
I00
sg25
Nsg31
I00
sg32
S'R'
sbsg46
(irule
FeatureMatrix
p2448
(dp2449
g23
(lp2450
sg25
Nsbsg25
Nsba(irule
Rule
p2451
(dp2452
g15
(irule
Guard
p2453
(dp2454
g18
I00
sg19
(lp2455
(irule
FeatureMatrix
p2456
(dp2457
g23
(lp2458
(I00
g945
tp2459
asg25
Nsba(irule
FeatureMatrix
p2460
(dp2461
g23
(lp2462
(I00
g686
tp2463
a(I01
g742
tp2464
asg25
Nsbasg29
I00
sg25
Nsg31
I01
sg32
S'L'
sbsg33
(irule
FeatureMatrix
p2465
(dp2466
g23
(lp2467
(I00
g1022
tp2468
a(I00
g686
tp2469
a(I00
g694
tp2470
asg25
Nsbsg42
(irule
Guard
p2471
(dp2472
g18
I00
sg19
(lp2473
sg29
I00
sg25
Nsg31
I00
sg32
S'R'
sbsg46
(irule
FeatureMatrix
p2474
(dp2475
g23
(lp2476
sg25
Nsbsg25
Nsba(irule
Rule
p2477
(dp2478
g15
(irule
Guard
p2479
(dp2480
g18
I00
sg19
(lp2481
(irule
FeatureMatrix
p2482
(dp2483
g23
(lp2484
(I00
g945
tp2485
asg25
Nsba(irule
FeatureMatrix
p2486
(dp2487
g23
(lp2488
(I00
g686
tp2489
a(I00
g694
tp2490
a(I01
g742
tp2491
asg25
Nsbasg29
I00
sg25
Nsg31
I01
sg32
S'L'
sbsg33
(irule
FeatureMatrix
p2492
(dp2493
g23
(lp2494
(I00
g686
tp2495
a(I00
g694
tp2496
asg25
Nsbsg42
(irule
Guard
p2497
(dp2498
g18
I00
sg19
(lp2499
sg29
I00
sg25
Nsg31
I00
sg32
S'R'
sbsg46
(irule
FeatureMatrix
p2500
(dp2501
g23
(lp2502
sg25
Nsbsg25
Nsba(irule
Rule
p2503
(dp2504
g15
(irule
Guard
p2505
(dp2506
g18
I00
sg19
(lp2507
(irule
FeatureMatrix
p2508
(dp2509
g23
(lp2510
sg25
Nsba(irule
FeatureMatrix
p2511
(dp2512
g23
(lp2513
(I00
g713
tp2514
a(I00
g686
tp2515
a(I00
g716
tp2516
asg25
Nsbasg29
I00
sg25
Nsg31
I01
sg32
S'L'
sbsg33
(irule
FeatureMatrix
p2517
(dp2518
g23
(lp2519
(I00
g686
tp2520
a(I00
g694
tp2521
asg25
Nsbsg42
(irule
Guard
p2522
(dp2523
g18
I00
sg19
(lp2524
(irule
FeatureMatrix
p2525
(dp2526
g23
(lp2527
sg25
Nsbasg29
I00
sg25
Nsg31
I00
sg32
S'R'
sbsg46
(irule
FeatureMatrix
p2528
(dp2529
g23
(lp2530
sg25
Nsbsg25
Nsba(irule
Rule
p2531
(dp2532
g15
(irule
Guard
p2533
(dp2534
g18
I00
sg19
(lp2535
(irule
FeatureMatrix
p2536
(dp2537
g23
(lp2538
(I00
g945
tp2539
asg25
Nsba(irule
FeatureMatrix
p2540
(dp2541
g23
(lp2542
(I01
g897
tp2543
a(I00
g686
tp2544
a(I00
g716
tp2545
asg25
Nsbasg29
I00
sg25
Nsg31
I01
sg32
S'L'
sbsg33
(irule
FeatureMatrix
p2546
(dp2547
g23
(lp2548
(I00
g686
tp2549
a(I00
g694
tp2550
asg25
Nsbsg42
(irule
Guard
p2551
(dp2552
g18
I00
sg19
(lp2553
sg29
I00
sg25
Nsg31
I00
sg32
S'R'
sbsg46
(irule
FeatureMatrix
p2554
(dp2555
g23
(lp2556
sg25
Nsbsg25
Nsba(irule
Rule
p2557
(dp2558
g15
(irule
Guard
p2559
(dp2560
g18
I00
sg19
(lp2561
(irule
FeatureMatrix
p2562
(dp2563
g23
(lp2564
(I00
g945
tp2565
asg25
Nsba(irule
FeatureMatrix
p2566
(dp2567
g23
(lp2568
(I00
g686
tp2569
a(I01
g688
tp2570
asg25
Nsbasg29
I00
sg25
Nsg31
I01
sg32
S'L'
sbsg33
(irule
FeatureMatrix
p2571
(dp2572
g23
(lp2573
(I00
g686
tp2574
a(I00
g694
tp2575
asg25
Nsbsg42
(irule
Guard
p2576
(dp2577
g18
I00
sg19
(lp2578
(irule
FeatureMatrix
p2579
(dp2580
g23
(lp2581
sg25
Nsbasg29
I00
sg25
Nsg31
I00
sg32
S'R'
sbsg46
(irule
FeatureMatrix
p2582
(dp2583
g23
(lp2584
sg25
Nsbsg25
Nsba(irule
Rule
p2585
(dp2586
g15
(irule
Guard
p2587
(dp2588
g18
I00
sg19
(lp2589
(irule
FeatureMatrix
p2590
(dp2591
g23
(lp2592
(I00
g1153
tp2593
asg25
Nsba(irule
FeatureMatrix
p2594
(dp2595
g23
(lp2596
(I01
g897
tp2597
a(I00
g686
tp2598
a(I00
g716
tp2599
asg25
Nsbasg29
I00
sg25
Nsg31
I01
sg32
S'L'
sbsg33
(irule
FeatureMatrix
p2600
(dp2601
g23
(lp2602
(I00
g686
tp2603
a(I00
g694
tp2604
asg25
Nsbsg42
(irule
Guard
p2605
(dp2606
g18
I00
sg19
(lp2607
sg29
I00
sg25
Nsg31
I00
sg32
S'R'
sbsg46
(irule
FeatureMatrix
p2608
(dp2609
g23
(lp2610
sg25
Nsbsg25
Nsba(irule
Rule
p2611
(dp2612
g15
(irule
Guard
p2613
(dp2614
g18
I00
sg19
(lp2615
(irule
FeatureMatrix
p2616
(dp2617
g23
(lp2618
(I00
g945
tp2619
asg25
Nsba(irule
FeatureMatrix
p2620
(dp2621
g23
(lp2622
(I00
g686
tp2623
a(I01
g1255
tp2624
a(I00
g716
tp2625
asg25
Nsbasg29
I00
sg25
Nsg31
I01
sg32
S'L'
sbsg33
(irule
FeatureMatrix
p2626
(dp2627
g23
(lp2628
(I00
g686
tp2629
a(I00
g694
tp2630
asg25
Nsbsg42
(irule
Guard
p2631
(dp2632
g18
I00
sg19
(lp2633
sg29
I00
sg25
Nsg31
I00
sg32
S'R'
sbsg46
(irule
FeatureMatrix
p2634
(dp2635
g23
(lp2636
sg25
Nsbsg25
Nsba(irule
Rule
p2637
(dp2638
g15
(irule
Guard
p2639
(dp2640
g18
I00
sg19
(lp2641
(irule
FeatureMatrix
p2642
(dp2643
g23
(lp2644
(I00
g1022
tp2645
asg25
Nsba(irule
FeatureMatrix
p2646
(dp2647
g23
(lp2648
(I00
g713
tp2649
a(I00
g686
tp2650
a(I00
g716
tp2651
asg25
Nsbasg29
I00
sg25
Nsg31
I01
sg32
S'L'
sbsg33
(irule
FeatureMatrix
p2652
(dp2653
g23
(lp2654
(I00
g686
tp2655
a(I00
g694
tp2656
asg25
Nsbsg42
(irule
Guard
p2657
(dp2658
g18
I00
sg19
(lp2659
sg29
I00
sg25
Nsg31
I00
sg32
S'R'
sbsg46
(irule
FeatureMatrix
p2660
(dp2661
g23
(lp2662
sg25
Nsbsg25
Nsba(irule
Rule
p2663
(dp2664
g15
(irule
Guard
p2665
(dp2666
g18
I00
sg19
(lp2667
(irule
FeatureMatrix
p2668
(dp2669
g23
(lp2670
sg25
Nsba(irule
FeatureMatrix
p2671
(dp2672
g23
(lp2673
(I00
g713
tp2674
a(I00
g686
tp2675
a(I00
g716
tp2676
asg25
Nsbasg29
I00
sg25
Nsg31
I01
sg32
S'L'
sbsg33
(irule
FeatureMatrix
p2677
(dp2678
g23
(lp2679
(I00
g686
tp2680
a(I00
g694
tp2681
asg25
Nsbsg42
(irule
Guard
p2682
(dp2683
g18
I00
sg19
(lp2684
sg29
I00
sg25
Nsg31
I00
sg32
S'R'
sbsg46
(irule
FeatureMatrix
p2685
(dp2686
g23
(lp2687
(I00
g713
tp2688
asg25
Nsbsg25
Nsba(irule
Rule
p2689
(dp2690
g15
(irule
Guard
p2691
(dp2692
g18
I00
sg19
(lp2693
(irule
FeatureMatrix
p2694
(dp2695
g23
(lp2696
sg25
Nsba(irule
FeatureMatrix
p2697
(dp2698
g23
(lp2699
(I00
g686
tp2700
a(I01
g688
tp2701
asg25
Nsbasg29
I00
sg25
Nsg31
I01
sg32
S'L'
sbsg33
(irule
FeatureMatrix
p2702
(dp2703
g23
(lp2704
(I00
g686
tp2705
a(I00
g694
tp2706
asg25
Nsbsg42
(irule
Guard
p2707
(dp2708
g18
I00
sg19
(lp2709
(irule
FeatureMatrix
p2710
(dp2711
g23
(lp2712
(I00
g686
tp2713
asg25
Nsbasg29
I00
sg25
Nsg31
I00
sg32
S'R'
sbsg46
(irule
FeatureMatrix
p2714
(dp2715
g23
(lp2716
sg25
Nsbsg25
Nsba(irule
Rule
p2717
(dp2718
g15
(irule
Guard
p2719
(dp2720
g18
I00
sg19
(lp2721
(irule
FeatureMatrix
p2722
(dp2723
g23
(lp2724
sg25
Nsba(irule
FeatureMatrix
p2725
(dp2726
g23
(lp2727
(I00
g871
tp2728
a(I00
g686
tp2729
a(I01
g688
tp2730
asg25
Nsbasg29
I00
sg25
Nsg31
I01
sg32
S'L'
sbsg33
(irule
FeatureMatrix
p2731
(dp2732
g23
(lp2733
(I00
g686
tp2734
a(I00
g694
tp2735
asg25
Nsbsg42
(irule
Guard
p2736
(dp2737
g18
I00
sg19
(lp2738
sg29
I00
sg25
Nsg31
I00
sg32
S'R'
sbsg46
(irule
FeatureMatrix
p2739
(dp2740
g23
(lp2741
(I00
g713
tp2742
asg25
Nsbsg25
Nsba(irule
Rule
p2743
(dp2744
g15
(irule
Guard
p2745
(dp2746
g18
I00
sg19
(lp2747
(irule
FeatureMatrix
p2748
(dp2749
g23
(lp2750
sg25
Nsba(irule
FeatureMatrix
p2751
(dp2752
g23
(lp2753
(I00
g686
tp2754
a(I01
g688
tp2755
asg25
Nsbasg29
I00
sg25
Nsg31
I01
sg32
S'L'
sbsg33
(irule
FeatureMatrix
p2756
(dp2757
g23
(lp2758
(I00
g1022
tp2759
a(I00
g686
tp2760
a(I00
g694
tp2761
asg25
Nsbsg42
(irule
Guard
p2762
(dp2763
g18
I00
sg19
(lp2764
(irule
FeatureMatrix
p2765
(dp2766
g23
(lp2767
sg25
Nsbasg29
I00
sg25
Nsg31
I00
sg32
S'R'
sbsg46
(irule
FeatureMatrix
p2768
(dp2769
g23
(lp2770
sg25
Nsbsg25
Nsba(irule
Rule
p2771
(dp2772
g15
(irule
Guard
p2773
(dp2774
g18
I00
sg19
(lp2775
(irule
FeatureMatrix
p2776
(dp2777
g23
(lp2778
(I00
g1099
tp2779
asg25
Nsba(irule
FeatureMatrix
p2780
(dp2781
g23
(lp2782
(I00
g713
tp2783
a(I00
g686
tp2784
a(I00
g716
tp2785
asg25
Nsbasg29
I00
sg25
Nsg31
I01
sg32
S'L'
sbsg33
(irule
FeatureMatrix
p2786
(dp2787
g23
(lp2788
(I00
g686
tp2789
a(I00
g694
tp2790
asg25
Nsbsg42
(irule
Guard
p2791
(dp2792
g18
I00
sg19
(lp2793
sg29
I00
sg25
Nsg31
I00
sg32
S'R'
sbsg46
(irule
FeatureMatrix
p2794
(dp2795
g23
(lp2796
sg25
Nsbsg25
Nsba(irule
Rule
p2797
(dp2798
g15
(irule
Guard
p2799
(dp2800
g18
I00
sg19
(lp2801
(irule
FeatureMatrix
p2802
(dp2803
g23
(lp2804
sg25
Nsba(irule
FeatureMatrix
p2805
(dp2806
g23
(lp2807
(I00
g686
tp2808
a(I00
g716
tp2809
a(I01
g833
tp2810
asg25
Nsbasg29
I00
sg25
Nsg31
I01
sg32
S'L'
sbsg33
(irule
FeatureMatrix
p2811
(dp2812
g23
(lp2813
(I00
g686
tp2814
a(I00
g694
tp2815
asg25
Nsbsg42
(irule
Guard
p2816
(dp2817
g18
I00
sg19
(lp2818
(irule
FeatureMatrix
p2819
(dp2820
g23
(lp2821
sg25
Nsbasg29
I00
sg25
Nsg31
I00
sg32
S'R'
sbsg46
(irule
FeatureMatrix
p2822
(dp2823
g23
(lp2824
sg25
Nsbsg25
Nsba(irule
Rule
p2825
(dp2826
g15
(irule
Guard
p2827
(dp2828
g18
I00
sg19
(lp2829
(irule
FeatureMatrix
p2830
(dp2831
g23
(lp2832
sg25
Nsba(irule
FeatureMatrix
p2833
(dp2834
g23
(lp2835
(I00
g686
tp2836
a(I00
g694
tp2837
a(I01
g742
tp2838
asg25
Nsbasg29
I00
sg25
Nsg31
I01
sg32
S'L'
sbsg33
(irule
FeatureMatrix
p2839
(dp2840
g23
(lp2841
(I00
g686
tp2842
a(I00
g694
tp2843
asg25
Nsbsg42
(irule
Guard
p2844
(dp2845
g18
I00
sg19
(lp2846
(irule
FeatureMatrix
p2847
(dp2848
g23
(lp2849
sg25
Nsbasg29
I00
sg25
Nsg31
I00
sg32
S'R'
sbsg46
(irule
FeatureMatrix
p2850
(dp2851
g23
(lp2852
sg25
Nsbsg25
Nsba(irule
Rule
p2853
(dp2854
g15
(irule
Guard
p2855
(dp2856
g18
I00
sg19
(lp2857
(irule
FeatureMatrix
p2858
(dp2859
g23
(lp2860
sg25
Nsba(irule
FeatureMatrix
p2861
(dp2862
g23
(lp2863
(I00
g686
tp2864
a(I01
g742
tp2865
asg25
Nsbasg29
I00
sg25
Nsg31
I01
sg32
S'L'
sbsg33
(irule
FeatureMatrix
p2866
(dp2867
g23
(lp2868
(I00
g1022
tp2869
a(I00
g686
tp2870
a(I00
g694
tp2871
asg25
Nsbsg42
(irule
Guard
p2872
(dp2873
g18
I00
sg19
(lp2874
(irule
FeatureMatrix
p2875
(dp2876
g23
(lp2877
sg25
Nsbasg29
I00
sg25
Nsg31
I00
sg32
S'R'
sbsg46
(irule
FeatureMatrix
p2878
(dp2879
g23
(lp2880
sg25
Nsbsg25
Nsba(irule
Rule
p2881
(dp2882
g15
(irule
Guard
p2883
(dp2884
g18
I00
sg19
(lp2885
(irule
FeatureMatrix
p2886
(dp2887
g23
(lp2888
(I00
g1306
tp2889
asg25
Nsba(irule
FeatureMatrix
p2890
(dp2891
g23
(lp2892
(I00
g713
tp2893
a(I00
g686
tp2894
a(I00
g716
tp2895
asg25
Nsbasg29
I00
sg25
Nsg31
I01
sg32
S'L'
sbsg33
(irule
FeatureMatrix
p2896
(dp2897
g23
(lp2898
(I00
g686
tp2899
a(I00
g694
tp2900
asg25
Nsbsg42
(irule
Guard
p2901
(dp2902
g18
I00
sg19
(lp2903
sg29
I00
sg25
Nsg31
I00
sg32
S'R'
sbsg46
(irule
FeatureMatrix
p2904
(dp2905
g23
(lp2906
sg25
Nsbsg25
Nsba(irule
Rule
p2907
(dp2908
g15
(irule
Guard
p2909
(dp2910
g18
I00
sg19
(lp2911
(irule
FeatureMatrix
p2912
(dp2913
g23
(lp2914
(I00
g1022
tp2915
asg25
Nsba(irule
FeatureMatrix
p2916
(dp2917
g23
(lp2918
(I00
g686
tp2919
a(I01
g742
tp2920
asg25
Nsbasg29
I00
sg25
Nsg31
I01
sg32
S'L'
sbsg33
(irule
FeatureMatrix
p2921
(dp2922
g23
(lp2923
(I00
g686
tp2924
a(I00
g694
tp2925
asg25
Nsbsg42
(irule
Guard
p2926
(dp2927
g18
I00
sg19
(lp2928
(irule
FeatureMatrix
p2929
(dp2930
g23
(lp2931
sg25
Nsbasg29
I00
sg25
Nsg31
I00
sg32
S'R'
sbsg46
(irule
FeatureMatrix
p2932
(dp2933
g23
(lp2934
sg25
Nsbsg25
Nsba(irule
Rule
p2935
(dp2936
g15
(irule
Guard
p2937
(dp2938
g18
I00
sg19
(lp2939
(irule
FeatureMatrix
p2940
(dp2941
g23
(lp2942
sg25
Nsba(irule
FeatureMatrix
p2943
(dp2944
g23
(lp2945
(I00
g713
tp2946
a(I00
g686
tp2947
a(I00
g716
tp2948
asg25
Nsbasg29
I00
sg25
Nsg31
I01
sg32
S'L'
sbsg33
(irule
FeatureMatrix
p2949
(dp2950
g23
(lp2951
(I00
g686
tp2952
a(I00
g694
tp2953
asg25
Nsbsg42
(irule
Guard
p2954
(dp2955
g18
I00
sg19
(lp2956
sg29
I00
sg25
Nsg31
I00
sg32
S'R'
sbsg46
(irule
FeatureMatrix
p2957
(dp2958
g23
(lp2959
(I01
g833
tp2960
asg25
Nsbsg25
Nsba(irule
Rule
p2961
(dp2962
g15
(irule
Guard
p2963
(dp2964
g18
I00
sg19
(lp2965
(irule
FeatureMatrix
p2966
(dp2967
g23
(lp2968
sg25
Nsba(irule
FeatureMatrix
p2969
(dp2970
g23
(lp2971
(I00
g686
tp2972
a(I01
g742
tp2973
asg25
Nsbasg29
I00
sg25
Nsg31
I01
sg32
S'L'
sbsg33
(irule
FeatureMatrix
p2974
(dp2975
g23
(lp2976
(I00
g686
tp2977
a(I00
g694
tp2978
asg25
Nsbsg42
(irule
Guard
p2979
(dp2980
g18
I00
sg19
(lp2981
(irule
FeatureMatrix
p2982
(dp2983
g23
(lp2984
(I01
g716
tp2985
asg25
Nsbasg29
I00
sg25
Nsg31
I00
sg32
S'R'
sbsg46
(irule
FeatureMatrix
p2986
(dp2987
g23
(lp2988
sg25
Nsbsg25
Nsba(irule
Rule
p2989
(dp2990
g15
(irule
Guard
p2991
(dp2992
g18
I00
sg19
(lp2993
(irule
FeatureMatrix
p2994
(dp2995
g23
(lp2996
(I00
g1099
tp2997
asg25
Nsba(irule
FeatureMatrix
p2998
(dp2999
g23
(lp3000
(I00
g686
tp3001
a(I00
g716
tp3002
a(I01
g833
tp3003
asg25
Nsbasg29
I00
sg25
Nsg31
I01
sg32
S'L'
sbsg33
(irule
FeatureMatrix
p3004
(dp3005
g23
(lp3006
(I00
g686
tp3007
a(I00
g694
tp3008
asg25
Nsbsg42
(irule
Guard
p3009
(dp3010
g18
I00
sg19
(lp3011
sg29
I00
sg25
Nsg31
I00
sg32
S'R'
sbsg46
(irule
FeatureMatrix
p3012
(dp3013
g23
(lp3014
sg25
Nsbsg25
Nsba(irule
Rule
p3015
(dp3016
g15
(irule
Guard
p3017
(dp3018
g18
I00
sg19
(lp3019
(irule
FeatureMatrix
p3020
(dp3021
g23
(lp3022
(I00
g1099
tp3023
asg25
Nsba(irule
FeatureMatrix
p3024
(dp3025
g23
(lp3026
(I00
g686
tp3027
a(I00
g694
tp3028
a(I01
g742
tp3029
asg25
Nsbasg29
I00
sg25
Nsg31
I01
sg32
S'L'
sbsg33
(irule
FeatureMatrix
p3030
(dp3031
g23
(lp3032
(I00
g686
tp3033
a(I00
g694
tp3034
asg25
Nsbsg42
(irule
Guard
p3035
(dp3036
g18
I00
sg19
(lp3037
sg29
I00
sg25
Nsg31
I00
sg32
S'R'
sbsg46
(irule
FeatureMatrix
p3038
(dp3039
g23
(lp3040
sg25
Nsbsg25
Nsba(irule
Rule
p3041
(dp3042
g15
(irule
Guard
p3043
(dp3044
g18
I00
sg19
(lp3045
(irule
FeatureMatrix
p3046
(dp3047
g23
(lp3048
(I00
g1153
tp3049
asg25
Nsba(irule
FeatureMatrix
p3050
(dp3051
g23
(lp3052
(I00
g686
tp3053
a(I00
g716
tp3054
a(I01
g833
tp3055
asg25
Nsbasg29
I00
sg25
Nsg31
I01
sg32
S'L'
sbsg33
(irule
FeatureMatrix
p3056
(dp3057
g23
(lp3058
(I00
g686
tp3059
a(I00
g694
tp3060
asg25
Nsbsg42
(irule
Guard
p3061
(dp3062
g18
I00
sg19
(lp3063
sg29
I00
sg25
Nsg31
I00
sg32
S'R'
sbsg46
(irule
FeatureMatrix
p3064
(dp3065
g23
(lp3066
sg25
Nsbsg25
Nsba(irule
Rule
p3067
(dp3068
g15
(irule
Guard
p3069
(dp3070
g18
I00
sg19
(lp3071
(irule
FeatureMatrix
p3072
(dp3073
g23
(lp3074
sg25
Nsba(irule
FeatureMatrix
p3075
(dp3076
g23
(lp3077
(I00
g686
tp3078
a(I01
g742
tp3079
asg25
Nsbasg29
I00
sg25
Nsg31
I01
sg32
S'L'
sbsg33
(irule
FeatureMatrix
p3080
(dp3081
g23
(lp3082
(I00
g686
tp3083
a(I00
g694
tp3084
asg25
Nsbsg42
(irule
Guard
p3085
(dp3086
g18
I00
sg19
(lp3087
(irule
FeatureMatrix
p3088
(dp3089
g23
(lp3090
(I00
g945
tp3091
asg25
Nsbasg29
I00
sg25
Nsg31
I00
sg32
S'R'
sbsg46
(irule
FeatureMatrix
p3092
(dp3093
g23
(lp3094
sg25
Nsbsg25
Nsba(irule
Rule
p3095
(dp3096
g15
(irule
Guard
p3097
(dp3098
g18
I00
sg19
(lp3099
(irule
FeatureMatrix
p3100
(dp3101
g23
(lp3102
sg25
Nsba(irule
FeatureMatrix
p3103
(dp3104
g23
(lp3105
(I01
g897
tp3106
a(I00
g686
tp3107
a(I00
g716
tp3108
asg25
Nsbasg29
I00
sg25
Nsg31
I01
sg32
S'L'
sbsg33
(irule
FeatureMatrix
p3109
(dp3110
g23
(lp3111
(I00
g686
tp3112
a(I00
g694
tp3113
asg25
Nsbsg42
(irule
Guard
p3114
(dp3115
g18
I00
sg19
(lp3116
sg29
I00
sg25
Nsg31
I00
sg32
S'R'
sbsg46
(irule
FeatureMatrix
p3117
(dp3118
g23
(lp3119
(I01
g686
tp3120
asg25
Nsbsg25
Nsba(irule
Rule
p3121
(dp3122
g15
(irule
Guard
p3123
(dp3124
g18
I00
sg19
(lp3125
(irule
FeatureMatrix
p3126
(dp3127
g23
(lp3128
sg25
Nsba(irule
FeatureMatrix
p3129
(dp3130
g23
(lp3131
(I00
g686
tp3132
a(I01
g742
tp3133
asg25
Nsbasg29
I00
sg25
Nsg31
I01
sg32
S'L'
sbsg33
(irule
FeatureMatrix
p3134
(dp3135
g23
(lp3136
(I00
g686
tp3137
a(I00
g694
tp3138
asg25
Nsbsg42
(irule
Guard
p3139
(dp3140
g18
I00
sg19
(lp3141
(irule
FeatureMatrix
p3142
(dp3143
g23
(lp3144
sg25
Nsbasg29
I00
sg25
Nsg31
I00
sg32
S'R'
sbsg46
(irule
FeatureMatrix
p3145
(dp3146
g23
(lp3147
(I01
g833
tp3148
asg25
Nsbsg25
Nsba(irule
Rule
p3149
(dp3150
g15
(irule
Guard
p3151
(dp3152
g18
I00
sg19
(lp3153
(irule
FeatureMatrix
p3154
(dp3155
g23
(lp3156
sg25
Nsba(irule
FeatureMatrix
p3157
(dp3158
g23
(lp3159
(I01
g897
tp3160
a(I00
g686
tp3161
a(I00
g716
tp3162
asg25
Nsbasg29
I00
sg25
Nsg31
I01
sg32
S'L'
sbsg33
(irule
FeatureMatrix
p3163
(dp3164
g23
(lp3165
(I00
g686
tp3166
a(I00
g694
tp3167
asg25
Nsbsg42
(irule
Guard
p3168
(dp3169
g18
I00
sg19
(lp3170
(irule
FeatureMatrix
p3171
(dp3172
g23
(lp3173
sg25
Nsbasg29
I00
sg25
Nsg31
I00
sg32
S'R'
sbsg46
(irule
FeatureMatrix
p3174
(dp3175
g23
(lp3176
sg25
Nsbsg25
Nsba(irule
Rule
p3177
(dp3178
g15
(irule
Guard
p3179
(dp3180
g18
I00
sg19
(lp3181
(irule
FeatureMatrix
p3182
(dp3183
g23
(lp3184
(I00
g1022
tp3185
asg25
Nsba(irule
FeatureMatrix
p3186
(dp3187
g23
(lp3188
(I00
g686
tp3189
a(I00
g716
tp3190
a(I01
g833
tp3191
asg25
Nsbasg29
I00
sg25
Nsg31
I01
sg32
S'L'
sbsg33
(irule
FeatureMatrix
p3192
(dp3193
g23
(lp3194
(I00
g686
tp3195
a(I00
g694
tp3196
asg25
Nsbsg42
(irule
Guard
p3197
(dp3198
g18
I00
sg19
(lp3199
sg29
I00
sg25
Nsg31
I00
sg32
S'R'
sbsg46
(irule
FeatureMatrix
p3200
(dp3201
g23
(lp3202
sg25
Nsbsg25
Nsba(irule
Rule
p3203
(dp3204
g15
(irule
Guard
p3205
(dp3206
g18
I00
sg19
(lp3207
(irule
FeatureMatrix
p3208
(dp3209
g23
(lp3210
sg25
Nsba(irule
FeatureMatrix
p3211
(dp3212
g23
(lp3213
(I00
g686
tp3214
a(I01
g1255
tp3215
a(I00
g716
tp3216
asg25
Nsbasg29
I00
sg25
Nsg31
I01
sg32
S'L'
sbsg33
(irule
FeatureMatrix
p3217
(dp3218
g23
(lp3219
(I00
g686
tp3220
a(I00
g694
tp3221
asg25
Nsbsg42
(irule
Guard
p3222
(dp3223
g18
I00
sg19
(lp3224
(irule
FeatureMatrix
p3225
(dp3226
g23
(lp3227
sg25
Nsbasg29
I00
sg25
Nsg31
I00
sg32
S'R'
sbsg46
(irule
FeatureMatrix
p3228
(dp3229
g23
(lp3230
sg25
Nsbsg25
Nsbaa(lp3231
(irule
Rule
p3232
(dp3233
g15
(irule
Guard
p3234
(dp3235
g18
I00
sg19
(lp3236
(irule
FeatureMatrix
p3237
(dp3238
g23
(lp3239
sg25
V[  ]
p3240
sba(irule
FeatureMatrix
p3241
(dp3242
g23
(lp3243
(I00
S'rounded'
p3244
tp3245
asg25
V[ -rounded ]
p3246
sbasg29
I00
sg25
V[ -rounded ] [  ]
p3247
sg31
I00
sg32
S'L'
sbsg33
(irule
FeatureMatrix
p3248
(dp3249
g23
(lp3250
(I00
g3244
tp3251
asg25
V[ -rounded ]
p3252
sbsg42
(irule
Guard
p3253
(dp3254
g18
I00
sg19
(lp3255
sg29
I00
sg25
V
sg31
I00
sg32
S'R'
sbsg46
(irule
FeatureMatrix
p3256
(dp3257
g23
(lp3258
sg25
V[  ]
p3259
sbsg25
V[  ] ---> [ -rounded ] / [ -rounded ] [  ] _ 
p3260
sba(irule
Rule
p3261
(dp3262
g15
(irule
Guard
p3263
(dp3264
g18
I00
sg19
(lp3265
(irule
FeatureMatrix
p3266
(dp3267
g23
(lp3268
sg25
Nsba(irule
FeatureMatrix
p3269
(dp3270
g23
(lp3271
(I00
S'rounded'
p3272
tp3273
asg25
Nsbasg29
I00
sg25
Nsg31
I00
sg32
S'L'
sbsg33
(irule
FeatureMatrix
p3274
(dp3275
g23
(lp3276
(I00
g3272
tp3277
a(I01
S'voice'
p3278
tp3279
asg25
Nsbsg42
(irule
Guard
p3280
(dp3281
g18
I00
sg19
(lp3282
sg29
I00
sg25
Nsg31
I00
sg32
S'R'
sbsg46
(irule
FeatureMatrix
p3283
(dp3284
g23
(lp3285
sg25
Nsbsg25
Nsba(irule
Rule
p3286
(dp3287
g15
(irule
Guard
p3288
(dp3289
g18
I00
sg19
(lp3290
(irule
FeatureMatrix
p3291
(dp3292
g23
(lp3293
sg25
Nsba(irule
FeatureMatrix
p3294
(dp3295
g23
(lp3296
(I00
g3272
tp3297
asg25
Nsbasg29
I00
sg25
Nsg31
I00
sg32
S'L'
sbsg33
(irule
FeatureMatrix
p3298
(dp3299
g23
(lp3300
(I00
g3272
tp3301
asg25
Nsbsg42
(irule
Guard
p3302
(dp3303
g18
I00
sg19
(lp3304
(irule
FeatureMatrix
p3305
(dp3306
g23
(lp3307
sg25
Nsbasg29
I00
sg25
Nsg31
I00
sg32
S'R'
sbsg46
(irule
FeatureMatrix
p3308
(dp3309
g23
(lp3310
sg25
Nsbsg25
Nsba(irule
Rule
p3311
(dp3312
g15
(irule
Guard
p3313
(dp3314
g18
I00
sg19
(lp3315
(irule
FeatureMatrix
p3316
(dp3317
g23
(lp3318
sg25
Nsba(irule
FeatureMatrix
p3319
(dp3320
g23
(lp3321
(I00
g3272
tp3322
asg25
Nsbasg29
I00
sg25
Nsg31
I00
sg32
S'L'
sbsg33
(irule
FeatureMatrix
p3323
(dp3324
g23
(lp3325
(I00
g3272
tp3326
asg25
Nsbsg42
(irule
Guard
p3327
(dp3328
g18
I00
sg19
(lp3329
sg29
I00
sg25
Nsg31
I00
sg32
S'R'
sbsg46
(irule
FeatureMatrix
p3330
(dp3331
g23
(lp3332
(I01
g3278
tp3333
asg25
Nsbsg25
Nsba(irule
Rule
p3334
(dp3335
g15
(irule
Guard
p3336
(dp3337
g18
I00
sg19
(lp3338
(irule
FeatureMatrix
p3339
(dp3340
g23
(lp3341
(I00
S'low'
p3342
tp3343
asg25
Nsba(irule
FeatureMatrix
p3344
(dp3345
g23
(lp3346
(I00
g3272
tp3347
asg25
Nsbasg29
I00
sg25
Nsg31
I00
sg32
S'L'
sbsg33
(irule
FeatureMatrix
p3348
(dp3349
g23
(lp3350
(I00
g3272
tp3351
asg25
Nsbsg42
(irule
Guard
p3352
(dp3353
g18
I00
sg19
(lp3354
sg29
I00
sg25
Nsg31
I00
sg32
S'R'
sbsg46
(irule
FeatureMatrix
p3355
(dp3356
g23
(lp3357
sg25
Nsbsg25
Nsba(irule
Rule
p3358
(dp3359
g15
(irule
Guard
p3360
(dp3361
g18
I00
sg19
(lp3362
(irule
FeatureMatrix
p3363
(dp3364
g23
(lp3365
sg25
Nsba(irule
FeatureMatrix
p3366
(dp3367
g23
(lp3368
(I00
g3272
tp3369
asg25
Nsbasg29
I00
sg25
Nsg31
I00
sg32
S'L'
sbsg33
(irule
FeatureMatrix
p3370
(dp3371
g23
(lp3372
(I00
g3272
tp3373
asg25
Nsbsg42
(irule
Guard
p3374
(dp3375
g18
I00
sg19
(lp3376
sg29
I00
sg25
Nsg31
I00
sg32
S'R'
sbsg46
(irule
FeatureMatrix
p3377
(dp3378
g23
(lp3379
(I00
S'sibilant'
p3380
tp3381
asg25
Nsbsg25
Nsba(irule
Rule
p3382
(dp3383
g15
(irule
Guard
p3384
(dp3385
g18
I00
sg19
(lp3386
(irule
FeatureMatrix
p3387
(dp3388
g23
(lp3389
(I00
S'vowel'
p3390
tp3391
asg25
Nsba(irule
FeatureMatrix
p3392
(dp3393
g23
(lp3394
(I00
g3272
tp3395
asg25
Nsbasg29
I00
sg25
Nsg31
I00
sg32
S'L'
sbsg33
(irule
FeatureMatrix
p3396
(dp3397
g23
(lp3398
(I00
g3272
tp3399
asg25
Nsbsg42
(irule
Guard
p3400
(dp3401
g18
I00
sg19
(lp3402
sg29
I00
sg25
Nsg31
I00
sg32
S'R'
sbsg46
(irule
FeatureMatrix
p3403
(dp3404
g23
(lp3405
sg25
Nsbsg25
Nsba(irule
Rule
p3406
(dp3407
g15
(irule
Guard
p3408
(dp3409
g18
I00
sg19
(lp3410
(irule
FeatureMatrix
p3411
(dp3412
g23
(lp3413
(I00
S'palletized'
p3414
tp3415
asg25
Nsba(irule
FeatureMatrix
p3416
(dp3417
g23
(lp3418
(I00
g3272
tp3419
asg25
Nsbasg29
I00
sg25
Nsg31
I00
sg32
S'L'
sbsg33
(irule
FeatureMatrix
p3420
(dp3421
g23
(lp3422
(I00
g3272
tp3423
asg25
Nsbsg42
(irule
Guard
p3424
(dp3425
g18
I00
sg19
(lp3426
sg29
I00
sg25
Nsg31
I00
sg32
S'R'
sbsg46
(irule
FeatureMatrix
p3427
(dp3428
g23
(lp3429
sg25
Nsbsg25
Nsba(irule
Rule
p3430
(dp3431
g15
(irule
Guard
p3432
(dp3433
g18
I00
sg19
(lp3434
(irule
FeatureMatrix
p3435
(dp3436
g23
(lp3437
sg25
Nsba(irule
FeatureMatrix
p3438
(dp3439
g23
(lp3440
(I00
g3272
tp3441
asg25
Nsbasg29
I00
sg25
Nsg31
I00
sg32
S'L'
sbsg33
(irule
FeatureMatrix
p3442
(dp3443
g23
(lp3444
(I00
g3272
tp3445
asg25
Nsbsg42
(irule
Guard
p3446
(dp3447
g18
I00
sg19
(lp3448
sg29
I00
sg25
Nsg31
I00
sg32
S'R'
sbsg46
(irule
FeatureMatrix
p3449
(dp3450
g23
(lp3451
(I01
g3390
tp3452
asg25
Nsbsg25
Nsba(irule
Rule
p3453
(dp3454
g15
(irule
Guard
p3455
(dp3456
g18
I00
sg19
(lp3457
(irule
FeatureMatrix
p3458
(dp3459
g23
(lp3460
(I00
S'high'
p3461
tp3462
asg25
Nsba(irule
FeatureMatrix
p3463
(dp3464
g23
(lp3465
(I00
g3272
tp3466
asg25
Nsbasg29
I00
sg25
Nsg31
I00
sg32
S'L'
sbsg33
(irule
FeatureMatrix
p3467
(dp3468
g23
(lp3469
(I00
g3272
tp3470
asg25
Nsbsg42
(irule
Guard
p3471
(dp3472
g18
I00
sg19
(lp3473
sg29
I00
sg25
Nsg31
I00
sg32
S'R'
sbsg46
(irule
FeatureMatrix
p3474
(dp3475
g23
(lp3476
sg25
Nsbsg25
Nsba(irule
Rule
p3477
(dp3478
g15
(irule
Guard
p3479
(dp3480
g18
I00
sg19
(lp3481
(irule
FeatureMatrix
p3482
(dp3483
g23
(lp3484
(I00
g3272
tp3485
asg25
Nsba(irule
FeatureMatrix
p3486
(dp3487
g23
(lp3488
(I00
g3272
tp3489
asg25
Nsbasg29
I00
sg25
Nsg31
I00
sg32
S'L'
sbsg33
(irule
FeatureMatrix
p3490
(dp3491
g23
(lp3492
(I00
g3272
tp3493
asg25
Nsbsg42
(irule
Guard
p3494
(dp3495
g18
I00
sg19
(lp3496
sg29
I00
sg25
Nsg31
I00
sg32
S'R'
sbsg46
(irule
FeatureMatrix
p3497
(dp3498
g23
(lp3499
sg25
Nsbsg25
Nsba(irule
Rule
p3500
(dp3501
g15
(irule
Guard
p3502
(dp3503
g18
I00
sg19
(lp3504
(irule
FeatureMatrix
p3505
(dp3506
g23
(lp3507
sg25
Nsba(irule
FeatureMatrix
p3508
(dp3509
g23
(lp3510
(I00
g3272
tp3511
asg25
Nsbasg29
I00
sg25
Nsg31
I00
sg32
S'L'
sbsg33
(irule
FeatureMatrix
p3512
(dp3513
g23
(lp3514
(I00
g3272
tp3515
asg25
Nsbsg42
(irule
Guard
p3516
(dp3517
g18
I00
sg19
(lp3518
sg29
I00
sg25
Nsg31
I00
sg32
S'R'
sbsg46
(irule
FeatureMatrix
p3519
(dp3520
g23
(lp3521
(I01
g3272
tp3522
asg25
Nsbsg25
Nsba(irule
Rule
p3523
(dp3524
g15
(irule
Guard
p3525
(dp3526
g18
I00
sg19
(lp3527
(irule
FeatureMatrix
p3528
(dp3529
g23
(lp3530
(I00
S'tense'
p3531
tp3532
asg25
Nsba(irule
FeatureMatrix
p3533
(dp3534
g23
(lp3535
(I00
g3272
tp3536
asg25
Nsbasg29
I00
sg25
Nsg31
I00
sg32
S'L'
sbsg33
(irule
FeatureMatrix
p3537
(dp3538
g23
(lp3539
(I00
g3272
tp3540
asg25
Nsbsg42
(irule
Guard
p3541
(dp3542
g18
I00
sg19
(lp3543
sg29
I00
sg25
Nsg31
I00
sg32
S'R'
sbsg46
(irule
FeatureMatrix
p3544
(dp3545
g23
(lp3546
sg25
Nsbsg25
Nsba(irule
Rule
p3547
(dp3548
g15
(irule
Guard
p3549
(dp3550
g18
I00
sg19
(lp3551
(irule
FeatureMatrix
p3552
(dp3553
g23
(lp3554
sg25
Nsba(irule
FeatureMatrix
p3555
(dp3556
g23
(lp3557
(I00
g3272
tp3558
asg25
Nsbasg29
I00
sg25
Nsg31
I00
sg32
S'L'
sbsg33
(irule
FeatureMatrix
p3559
(dp3560
g23
(lp3561
(I00
g3272
tp3562
asg25
Nsbsg42
(irule
Guard
p3563
(dp3564
g18
I00
sg19
(lp3565
sg29
I00
sg25
Nsg31
I00
sg32
S'R'
sbsg46
(irule
FeatureMatrix
p3566
(dp3567
g23
(lp3568
(I00
S'coronal'
p3569
tp3570
asg25
Nsbsg25
Nsba(irule
Rule
p3571
(dp3572
g15
(irule
Guard
p3573
(dp3574
g18
I00
sg19
(lp3575
(irule
FeatureMatrix
p3576
(dp3577
g23
(lp3578
(I00
S'back'
p3579
tp3580
asg25
Nsba(irule
FeatureMatrix
p3581
(dp3582
g23
(lp3583
(I00
g3272
tp3584
asg25
Nsbasg29
I00
sg25
Nsg31
I00
sg32
S'L'
sbsg33
(irule
FeatureMatrix
p3585
(dp3586
g23
(lp3587
(I00
g3272
tp3588
asg25
Nsbsg42
(irule
Guard
p3589
(dp3590
g18
I00
sg19
(lp3591
sg29
I00
sg25
Nsg31
I00
sg32
S'R'
sbsg46
(irule
FeatureMatrix
p3592
(dp3593
g23
(lp3594
sg25
Nsbsg25
Nsba(irule
Rule
p3595
(dp3596
g15
(irule
Guard
p3597
(dp3598
g18
I00
sg19
(lp3599
(irule
FeatureMatrix
p3600
(dp3601
g23
(lp3602
(I00
S'glide'
p3603
tp3604
asg25
Nsba(irule
FeatureMatrix
p3605
(dp3606
g23
(lp3607
(I00
g3272
tp3608
asg25
Nsbasg29
I00
sg25
Nsg31
I00
sg32
S'L'
sbsg33
(irule
FeatureMatrix
p3609
(dp3610
g23
(lp3611
(I00
g3272
tp3612
asg25
Nsbsg42
(irule
Guard
p3613
(dp3614
g18
I00
sg19
(lp3615
sg29
I00
sg25
Nsg31
I00
sg32
S'R'
sbsg46
(irule
FeatureMatrix
p3616
(dp3617
g23
(lp3618
sg25
Nsbsg25
Nsba(irule
Rule
p3619
(dp3620
g15
(irule
Guard
p3621
(dp3622
g18
I00
sg19
(lp3623
(irule
FeatureMatrix
p3624
(dp3625
g23
(lp3626
sg25
Nsba(irule
FeatureMatrix
p3627
(dp3628
g23
(lp3629
(I00
g3272
tp3630
asg25
Nsbasg29
I00
sg25
Nsg31
I00
sg32
S'L'
sbsg33
(irule
FeatureMatrix
p3631
(dp3632
g23
(lp3633
(I00
g3272
tp3634
asg25
Nsbsg42
(irule
Guard
p3635
(dp3636
g18
I00
sg19
(lp3637
sg29
I00
sg25
Nsg31
I00
sg32
S'R'
sbsg46
(irule
FeatureMatrix
p3638
(dp3639
g23
(lp3640
(I01
g3531
tp3641
asg25
Nsbsg25
Nsba(irule
Rule
p3642
(dp3643
g15
(irule
Guard
p3644
(dp3645
g18
I00
sg19
(lp3646
(irule
FeatureMatrix
p3647
(dp3648
g23
(lp3649
sg25
Nsba(irule
FeatureMatrix
p3650
(dp3651
g23
(lp3652
(I00
g3272
tp3653
asg25
Nsbasg29
I00
sg25
Nsg31
I00
sg32
S'L'
sbsg33
(irule
FeatureMatrix
p3654
(dp3655
g23
(lp3656
(I00
g3272
tp3657
asg25
Nsbsg42
(irule
Guard
p3658
(dp3659
g18
I00
sg19
(lp3660
sg29
I00
sg25
Nsg31
I00
sg32
S'R'
sbsg46
(irule
FeatureMatrix
p3661
(dp3662
g23
(lp3663
(I00
g3414
tp3664
asg25
Nsbsg25
Nsba(irule
Rule
p3665
(dp3666
g15
(irule
Guard
p3667
(dp3668
g18
I00
sg19
(lp3669
(irule
FeatureMatrix
p3670
(dp3671
g23
(lp3672
sg25
Nsba(irule
FeatureMatrix
p3673
(dp3674
g23
(lp3675
(I00
g3272
tp3676
asg25
Nsbasg29
I00
sg25
Nsg31
I00
sg32
S'L'
sbsg33
(irule
FeatureMatrix
p3677
(dp3678
g23
(lp3679
(I00
g3272
tp3680
asg25
Nsbsg42
(irule
Guard
p3681
(dp3682
g18
I00
sg19
(lp3683
sg29
I00
sg25
Nsg31
I00
sg32
S'R'
sbsg46
(irule
FeatureMatrix
p3684
(dp3685
g23
(lp3686
(I00
S'anterior'
p3687
tp3688
asg25
Nsbsg25
Nsba(irule
Rule
p3689
(dp3690
g15
(irule
Guard
p3691
(dp3692
g18
I00
sg19
(lp3693
(irule
FeatureMatrix
p3694
(dp3695
g23
(lp3696
sg25
Nsba(irule
FeatureMatrix
p3697
(dp3698
g23
(lp3699
(I00
g3272
tp3700
asg25
Nsbasg29
I00
sg25
Nsg31
I00
sg32
S'L'
sbsg33
(irule
FeatureMatrix
p3701
(dp3702
g23
(lp3703
(I00
g3272
tp3704
asg25
Nsbsg42
(irule
Guard
p3705
(dp3706
g18
I00
sg19
(lp3707
sg29
I00
sg25
Nsg31
I00
sg32
S'R'
sbsg46
(irule
FeatureMatrix
p3708
(dp3709
g23
(lp3710
(I00
S'lateral'
p3711
tp3712
asg25
Nsbsg25
Nsba(irule
Rule
p3713
(dp3714
g15
(irule
Guard
p3715
(dp3716
g18
I00
sg19
(lp3717
(irule
FeatureMatrix
p3718
(dp3719
g23
(lp3720
sg25
Nsba(irule
FeatureMatrix
p3721
(dp3722
g23
(lp3723
(I00
g3272
tp3724
asg25
Nsbasg29
I00
sg25
Nsg31
I00
sg32
S'L'
sbsg33
(irule
FeatureMatrix
p3725
(dp3726
g23
(lp3727
(I00
g3272
tp3728
asg25
Nsbsg42
(irule
Guard
p3729
(dp3730
g18
I00
sg19
(lp3731
sg29
I00
sg25
Nsg31
I00
sg32
S'R'
sbsg46
(irule
FeatureMatrix
p3732
(dp3733
g23
(lp3734
(I00
S'nasal'
p3735
tp3736
asg25
Nsbsg25
Nsba(irule
Rule
p3737
(dp3738
g15
(irule
Guard
p3739
(dp3740
g18
I00
sg19
(lp3741
(irule
FeatureMatrix
p3742
(dp3743
g23
(lp3744
sg25
Nsba(irule
FeatureMatrix
p3745
(dp3746
g23
(lp3747
(I00
g3272
tp3748
asg25
Nsbasg29
I00
sg25
Nsg31
I00
sg32
S'L'
sbsg33
(irule
FeatureMatrix
p3749
(dp3750
g23
(lp3751
(I00
g3272
tp3752
asg25
Nsbsg42
(irule
Guard
p3753
(dp3754
g18
I00
sg19
(lp3755
sg29
I00
sg25
Nsg31
I00
sg32
S'R'
sbsg46
(irule
FeatureMatrix
p3756
(dp3757
g23
(lp3758
(I00
S'liquid'
p3759
tp3760
asg25
Nsbsg25
Nsba(irule
Rule
p3761
(dp3762
g15
(irule
Guard
p3763
(dp3764
g18
I00
sg19
(lp3765
(irule
FeatureMatrix
p3766
(dp3767
g23
(lp3768
sg25
Nsba(irule
FeatureMatrix
p3769
(dp3770
g23
(lp3771
(I00
g3272
tp3772
asg25
Nsbasg29
I00
sg25
Nsg31
I00
sg32
S'L'
sbsg33
(irule
FeatureMatrix
p3773
(dp3774
g23
(lp3775
(I00
g3272
tp3776
asg25
Nsbsg42
(irule
Guard
p3777
(dp3778
g18
I00
sg19
(lp3779
sg29
I00
sg25
Nsg31
I00
sg32
S'R'
sbsg46
(irule
FeatureMatrix
p3780
(dp3781
g23
(lp3782
(I01
S'sonorant'
p3783
tp3784
asg25
Nsbsg25
Nsba(irule
Rule
p3785
(dp3786
g15
(irule
Guard
p3787
(dp3788
g18
I00
sg19
(lp3789
(irule
FeatureMatrix
p3790
(dp3791
g23
(lp3792
sg25
Nsba(irule
FeatureMatrix
p3793
(dp3794
g23
(lp3795
(I00
g3272
tp3796
asg25
Nsbasg29
I00
sg25
Nsg31
I00
sg32
S'L'
sbsg33
(irule
FeatureMatrix
p3797
(dp3798
g23
(lp3799
(I00
g3272
tp3800
asg25
Nsbsg42
(irule
Guard
p3801
(dp3802
g18
I00
sg19
(lp3803
sg29
I00
sg25
Nsg31
I00
sg32
S'R'
sbsg46
(irule
FeatureMatrix
p3804
(dp3805
g23
(lp3806
(I00
g3603
tp3807
asg25
Nsbsg25
Nsba(irule
Rule
p3808
(dp3809
g15
(irule
Guard
p3810
(dp3811
g18
I00
sg19
(lp3812
(irule
FeatureMatrix
p3813
(dp3814
g23
(lp3815
sg25
Nsba(irule
FeatureMatrix
p3816
(dp3817
g23
(lp3818
(I00
g3272
tp3819
asg25
Nsbasg29
I00
sg25
Nsg31
I00
sg32
S'L'
sbsg33
(irule
FeatureMatrix
p3820
(dp3821
g23
(lp3822
(I00
g3272
tp3823
asg25
Nsbsg42
(irule
Guard
p3824
(dp3825
g18
I00
sg19
(lp3826
sg29
I00
sg25
Nsg31
I00
sg32
S'R'
sbsg46
(irule
FeatureMatrix
p3827
(dp3828
g23
(lp3829
(I01
S'continuant'
p3830
tp3831
asg25
Nsbsg25
Nsba(irule
Rule
p3832
(dp3833
g15
(irule
Guard
p3834
(dp3835
g18
I00
sg19
(lp3836
(irule
FeatureMatrix
p3837
(dp3838
g23
(lp3839
sg25
Nsba(irule
FeatureMatrix
p3840
(dp3841
g23
(lp3842
(I00
g3272
tp3843
asg25
Nsbasg29
I00
sg25
Nsg31
I00
sg32
S'L'
sbsg33
(irule
FeatureMatrix
p3844
(dp3845
g23
(lp3846
(I00
g3272
tp3847
asg25
Nsbsg42
(irule
Guard
p3848
(dp3849
g18
I00
sg19
(lp3850
(irule
FeatureMatrix
p3851
(dp3852
g23
(lp3853
sg25
Nsbasg29
I00
sg25
Nsg31
I00
sg32
S'R'
sbsg46
(irule
FeatureMatrix
p3854
(dp3855
g23
(lp3856
(I00
g3687
tp3857
asg25
Nsbsg25
Nsba(irule
Rule
p3858
(dp3859
g15
(irule
Guard
p3860
(dp3861
g18
I00
sg19
(lp3862
(irule
FeatureMatrix
p3863
(dp3864
g23
(lp3865
sg25
Nsba(irule
FeatureMatrix
p3866
(dp3867
g23
(lp3868
(I00
g3272
tp3869
asg25
Nsbasg29
I00
sg25
Nsg31
I00
sg32
S'L'
sbsg33
(irule
FeatureMatrix
p3870
(dp3871
g23
(lp3872
(I00
g3272
tp3873
asg25
Nsbsg42
(irule
Guard
p3874
(dp3875
g18
I01
sg19
(lp3876
(irule
FeatureMatrix
p3877
(dp3878
g23
(lp3879
sg25
Nsbasg29
I00
sg25
Nsg31
I00
sg32
S'R'
sbsg46
(irule
FeatureMatrix
p3880
(dp3881
g23
(lp3882
sg25
Nsbsg25
Nsba(irule
Rule
p3883
(dp3884
g15
(irule
Guard
p3885
(dp3886
g18
I00
sg19
(lp3887
(irule
FeatureMatrix
p3888
(dp3889
g23
(lp3890
sg25
Nsba(irule
FeatureMatrix
p3891
(dp3892
g23
(lp3893
(I00
g3272
tp3894
asg25
Nsbasg29
I00
sg25
Nsg31
I00
sg32
S'L'
sbsg33
(irule
FeatureMatrix
p3895
(dp3896
g23
(lp3897
(I00
g3272
tp3898
asg25
Nsbsg42
(irule
Guard
p3899
(dp3900
g18
I00
sg19
(lp3901
(irule
FeatureMatrix
p3902
(dp3903
g23
(lp3904
(I01
g3278
tp3905
asg25
Nsbasg29
I00
sg25
Nsg31
I00
sg32
S'R'
sbsg46
(irule
FeatureMatrix
p3906
(dp3907
g23
(lp3908
sg25
Nsbsg25
Nsba(irule
Rule
p3909
(dp3910
g15
(irule
Guard
p3911
(dp3912
g18
I00
sg19
(lp3913
(irule
FeatureMatrix
p3914
(dp3915
g23
(lp3916
sg25
Nsba(irule
FeatureMatrix
p3917
(dp3918
g23
(lp3919
(I00
g3272
tp3920
asg25
Nsbasg29
I00
sg25
Nsg31
I00
sg32
S'L'
sbsg33
(irule
FeatureMatrix
p3921
(dp3922
g23
(lp3923
(I00
g3272
tp3924
asg25
Nsbsg42
(irule
Guard
p3925
(dp3926
g18
I00
sg19
(lp3927
(irule
FeatureMatrix
p3928
(dp3929
g23
(lp3930
(I00
g3380
tp3931
asg25
Nsbasg29
I00
sg25
Nsg31
I00
sg32
S'R'
sbsg46
(irule
FeatureMatrix
p3932
(dp3933
g23
(lp3934
sg25
Nsbsg25
Nsba(irule
Rule
p3935
(dp3936
g15
(irule
Guard
p3937
(dp3938
g18
I00
sg19
(lp3939
(irule
FeatureMatrix
p3940
(dp3941
g23
(lp3942
sg25
Nsba(irule
FeatureMatrix
p3943
(dp3944
g23
(lp3945
(I00
g3272
tp3946
asg25
Nsbasg29
I00
sg25
Nsg31
I00
sg32
S'L'
sbsg33
(irule
FeatureMatrix
p3947
(dp3948
g23
(lp3949
(I00
g3272
tp3950
asg25
Nsbsg42
(irule
Guard
p3951
(dp3952
g18
I00
sg19
(lp3953
(irule
FeatureMatrix
p3954
(dp3955
g23
(lp3956
sg25
Nsbasg29
I00
sg25
Nsg31
I00
sg32
S'R'
sbsg46
(irule
FeatureMatrix
p3957
(dp3958
g23
(lp3959
(I01
g3272
tp3960
asg25
Nsbsg25
Nsba(irule
Rule
p3961
(dp3962
g15
(irule
Guard
p3963
(dp3964
g18
I00
sg19
(lp3965
(irule
FeatureMatrix
p3966
(dp3967
g23
(lp3968
sg25
Nsba(irule
FeatureMatrix
p3969
(dp3970
g23
(lp3971
(I00
g3272
tp3972
asg25
Nsbasg29
I00
sg25
Nsg31
I00
sg32
S'L'
sbsg33
(irule
FeatureMatrix
p3973
(dp3974
g23
(lp3975
(I00
g3272
tp3976
asg25
Nsbsg42
(irule
Guard
p3977
(dp3978
g18
I00
sg19
(lp3979
(irule
FeatureMatrix
p3980
(dp3981
g23
(lp3982
(I00
g3390
tp3983
asg25
Nsbasg29
I00
sg25
Nsg31
I00
sg32
S'R'
sbsg46
(irule
FeatureMatrix
p3984
(dp3985
g23
(lp3986
sg25
Nsbsg25
Nsba(irule
Rule
p3987
(dp3988
g15
(irule
Guard
p3989
(dp3990
g18
I00
sg19
(lp3991
(irule
FeatureMatrix
p3992
(dp3993
g23
(lp3994
sg25
Nsba(irule
FeatureMatrix
p3995
(dp3996
g23
(lp3997
(I00
g3272
tp3998
asg25
Nsbasg29
I00
sg25
Nsg31
I00
sg32
S'L'
sbsg33
(irule
FeatureMatrix
p3999
(dp4000
g23
(lp4001
(I00
g3272
tp4002
asg25
Nsbsg42
(irule
Guard
p4003
(dp4004
g18
I00
sg19
(lp4005
(irule
FeatureMatrix
p4006
(dp4007
g23
(lp4008
sg25
Nsbasg29
I00
sg25
Nsg31
I00
sg32
S'R'
sbsg46
(irule
FeatureMatrix
p4009
(dp4010
g23
(lp4011
(I01
g3278
tp4012
asg25
Nsbsg25
Nsba(irule
Rule
p4013
(dp4014
g15
(irule
Guard
p4015
(dp4016
g18
I00
sg19
(lp4017
(irule
FeatureMatrix
p4018
(dp4019
g23
(lp4020
sg25
Nsba(irule
FeatureMatrix
p4021
(dp4022
g23
(lp4023
(I00
g3272
tp4024
asg25
Nsbasg29
I00
sg25
Nsg31
I00
sg32
S'L'
sbsg33
(irule
FeatureMatrix
p4025
(dp4026
g23
(lp4027
(I00
g3272
tp4028
asg25
Nsbsg42
(irule
Guard
p4029
(dp4030
g18
I00
sg19
(lp4031
(irule
FeatureMatrix
p4032
(dp4033
g23
(lp4034
(I00
g3711
tp4035
asg25
Nsbasg29
I00
sg25
Nsg31
I00
sg32
S'R'
sbsg46
(irule
FeatureMatrix
p4036
(dp4037
g23
(lp4038
sg25
Nsbsg25
Nsba(irule
Rule
p4039
(dp4040
g15
(irule
Guard
p4041
(dp4042
g18
I00
sg19
(lp4043
(irule
FeatureMatrix
p4044
(dp4045
g23
(lp4046
sg25
Nsba(irule
FeatureMatrix
p4047
(dp4048
g23
(lp4049
(I00
g3272
tp4050
asg25
Nsbasg29
I00
sg25
Nsg31
I00
sg32
S'L'
sbsg33
(irule
FeatureMatrix
p4051
(dp4052
g23
(lp4053
(I00
g3272
tp4054
asg25
Nsbsg42
(irule
Guard
p4055
(dp4056
g18
I00
sg19
(lp4057
sg29
I00
sg25
Nsg31
I00
sg32
S'R'
sbsg46
(irule
FeatureMatrix
p4058
(dp4059
g23
(lp4060
(I01
g3272
tp4061
a(I01
g3278
tp4062
asg25
Nsbsg25
Nsba(irule
Rule
p4063
(dp4064
g15
(irule
Guard
p4065
(dp4066
g18
I00
sg19
(lp4067
(irule
FeatureMatrix
p4068
(dp4069
g23
(lp4070
sg25
Nsba(irule
FeatureMatrix
p4071
(dp4072
g23
(lp4073
(I00
g3272
tp4074
asg25
Nsbasg29
I00
sg25
Nsg31
I00
sg32
S'L'
sbsg33
(irule
FeatureMatrix
p4075
(dp4076
g23
(lp4077
(I00
g3272
tp4078
asg25
Nsbsg42
(irule
Guard
p4079
(dp4080
g18
I00
sg19
(lp4081
sg29
I00
sg25
Nsg31
I00
sg32
S'R'
sbsg46
(irule
FeatureMatrix
p4082
(dp4083
g23
(lp4084
(I00
g3687
tp4085
a(I01
g3272
tp4086
asg25
Nsbsg25
Nsba(irule
Rule
p4087
(dp4088
g15
(irule
Guard
p4089
(dp4090
g18
I00
sg19
(lp4091
(irule
FeatureMatrix
p4092
(dp4093
g23
(lp4094
(I00
g3390
tp4095
asg25
Nsba(irule
FeatureMatrix
p4096
(dp4097
g23
(lp4098
(I00
g3272
tp4099
asg25
Nsbasg29
I00
sg25
Nsg31
I00
sg32
S'L'
sbsg33
(irule
FeatureMatrix
p4100
(dp4101
g23
(lp4102
(I00
g3272
tp4103
asg25
Nsbsg42
(irule
Guard
p4104
(dp4105
g18
I00
sg19
(lp4106
(irule
FeatureMatrix
p4107
(dp4108
g23
(lp4109
sg25
Nsbasg29
I00
sg25
Nsg31
I00
sg32
S'R'
sbsg46
(irule
FeatureMatrix
p4110
(dp4111
g23
(lp4112
sg25
Nsbsg25
Nsba(irule
Rule
p4113
(dp4114
g15
(irule
Guard
p4115
(dp4116
g18
I00
sg19
(lp4117
(irule
FeatureMatrix
p4118
(dp4119
g23
(lp4120
sg25
Nsba(irule
FeatureMatrix
p4121
(dp4122
g23
(lp4123
(I00
g3272
tp4124
asg25
Nsbasg29
I00
sg25
Nsg31
I00
sg32
S'L'
sbsg33
(irule
FeatureMatrix
p4125
(dp4126
g23
(lp4127
(I00
g3272
tp4128
asg25
Nsbsg42
(irule
Guard
p4129
(dp4130
g18
I00
sg19
(lp4131
(irule
FeatureMatrix
p4132
(dp4133
g23
(lp4134
(I00
g3342
tp4135
asg25
Nsbasg29
I00
sg25
Nsg31
I00
sg32
S'R'
sbsg46
(irule
FeatureMatrix
p4136
(dp4137
g23
(lp4138
sg25
Nsbsg25
Nsba(irule
Rule
p4139
(dp4140
g15
(irule
Guard
p4141
(dp4142
g18
I00
sg19
(lp4143
(irule
FeatureMatrix
p4144
(dp4145
g23
(lp4146
sg25
Nsba(irule
FeatureMatrix
p4147
(dp4148
g23
(lp4149
(I00
g3272
tp4150
asg25
Nsbasg29
I00
sg25
Nsg31
I00
sg32
S'L'
sbsg33
(irule
FeatureMatrix
p4151
(dp4152
g23
(lp4153
(I00
g3272
tp4154
asg25
Nsbsg42
(irule
Guard
p4155
(dp4156
g18
I00
sg19
(lp4157
(irule
FeatureMatrix
p4158
(dp4159
g23
(lp4160
sg25
Nsbasg29
I00
sg25
Nsg31
I00
sg32
S'R'
sbsg46
(irule
FeatureMatrix
p4161
(dp4162
g23
(lp4163
(I01
g3390
tp4164
asg25
Nsbsg25
Nsba(irule
Rule
p4165
(dp4166
g15
(irule
Guard
p4167
(dp4168
g18
I00
sg19
(lp4169
(irule
FeatureMatrix
p4170
(dp4171
g23
(lp4172
sg25
Nsba(irule
FeatureMatrix
p4173
(dp4174
g23
(lp4175
(I00
g3272
tp4176
asg25
Nsbasg29
I00
sg25
Nsg31
I00
sg32
S'L'
sbsg33
(irule
FeatureMatrix
p4177
(dp4178
g23
(lp4179
(I00
g3272
tp4180
asg25
Nsbsg42
(irule
Guard
p4181
(dp4182
g18
I00
sg19
(lp4183
(irule
FeatureMatrix
p4184
(dp4185
g23
(lp4186
sg25
Nsbasg29
I00
sg25
Nsg31
I00
sg32
S'R'
sbsg46
(irule
FeatureMatrix
p4187
(dp4188
g23
(lp4189
(I00
g3603
tp4190
asg25
Nsbsg25
Nsba(irule
Rule
p4191
(dp4192
g15
(irule
Guard
p4193
(dp4194
g18
I00
sg19
(lp4195
(irule
FeatureMatrix
p4196
(dp4197
g23
(lp4198
sg25
Nsba(irule
FeatureMatrix
p4199
(dp4200
g23
(lp4201
(I00
g3272
tp4202
asg25
Nsbasg29
I00
sg25
Nsg31
I00
sg32
S'L'
sbsg33
(irule
FeatureMatrix
p4203
(dp4204
g23
(lp4205
(I00
g3272
tp4206
asg25
Nsbsg42
(irule
Guard
p4207
(dp4208
g18
I00
sg19
(lp4209
(irule
FeatureMatrix
p4210
(dp4211
g23
(lp4212
(I00
g3531
tp4213
asg25
Nsbasg29
I00
sg25
Nsg31
I00
sg32
S'R'
sbsg46
(irule
FeatureMatrix
p4214
(dp4215
g23
(lp4216
sg25
Nsbsg25
Nsba(irule
Rule
p4217
(dp4218
g15
(irule
Guard
p4219
(dp4220
g18
I00
sg19
(lp4221
(irule
FeatureMatrix
p4222
(dp4223
g23
(lp4224
sg25
Nsba(irule
FeatureMatrix
p4225
(dp4226
g23
(lp4227
(I00
g3272
tp4228
asg25
Nsbasg29
I00
sg25
Nsg31
I00
sg32
S'L'
sbsg33
(irule
FeatureMatrix
p4229
(dp4230
g23
(lp4231
(I00
g3272
tp4232
asg25
Nsbsg42
(irule
Guard
p4233
(dp4234
g18
I00
sg19
(lp4235
(irule
FeatureMatrix
p4236
(dp4237
g23
(lp4238
sg25
Nsbasg29
I00
sg25
Nsg31
I00
sg32
S'R'
sbsg46
(irule
FeatureMatrix
p4239
(dp4240
g23
(lp4241
(I00
g3759
tp4242
asg25
Nsbsg25
Nsba(irule
Rule
p4243
(dp4244
g15
(irule
Guard
p4245
(dp4246
g18
I00
sg19
(lp4247
(irule
FeatureMatrix
p4248
(dp4249
g23
(lp4250
sg25
Nsba(irule
FeatureMatrix
p4251
(dp4252
g23
(lp4253
(I00
g3272
tp4254
asg25
Nsbasg29
I00
sg25
Nsg31
I00
sg32
S'L'
sbsg33
(irule
FeatureMatrix
p4255
(dp4256
g23
(lp4257
(I00
g3272
tp4258
asg25
Nsbsg42
(irule
Guard
p4259
(dp4260
g18
I00
sg19
(lp4261
(irule
FeatureMatrix
p4262
(dp4263
g23
(lp4264
(I00
g3414
tp4265
asg25
Nsbasg29
I00
sg25
Nsg31
I00
sg32
S'R'
sbsg46
(irule
FeatureMatrix
p4266
(dp4267
g23
(lp4268
sg25
Nsbsg25
Nsba(irule
Rule
p4269
(dp4270
g15
(irule
Guard
p4271
(dp4272
g18
I00
sg19
(lp4273
(irule
FeatureMatrix
p4274
(dp4275
g23
(lp4276
sg25
Nsba(irule
FeatureMatrix
p4277
(dp4278
g23
(lp4279
(I00
g3272
tp4280
asg25
Nsbasg29
I00
sg25
Nsg31
I00
sg32
S'L'
sbsg33
(irule
FeatureMatrix
p4281
(dp4282
g23
(lp4283
(I00
g3272
tp4284
a(I00
g3380
tp4285
asg25
Nsbsg42
(irule
Guard
p4286
(dp4287
g18
I00
sg19
(lp4288
sg29
I00
sg25
Nsg31
I00
sg32
S'R'
sbsg46
(irule
FeatureMatrix
p4289
(dp4290
g23
(lp4291
(I00
g3687
tp4292
asg25
Nsbsg25
Nsba(irule
Rule
p4293
(dp4294
g15
(irule
Guard
p4295
(dp4296
g18
I00
sg19
(lp4297
(irule
FeatureMatrix
p4298
(dp4299
g23
(lp4300
sg25
Nsba(irule
FeatureMatrix
p4301
(dp4302
g23
(lp4303
(I00
g3272
tp4304
asg25
Nsbasg29
I00
sg25
Nsg31
I00
sg32
S'L'
sbsg33
(irule
FeatureMatrix
p4305
(dp4306
g23
(lp4307
(I00
g3272
tp4308
asg25
Nsbsg42
(irule
Guard
p4309
(dp4310
g18
I00
sg19
(lp4311
(irule
FeatureMatrix
p4312
(dp4313
g23
(lp4314
(I00
g3461
tp4315
asg25
Nsbasg29
I00
sg25
Nsg31
I00
sg32
S'R'
sbsg46
(irule
FeatureMatrix
p4316
(dp4317
g23
(lp4318
sg25
Nsbsg25
Nsba(irule
Rule
p4319
(dp4320
g15
(irule
Guard
p4321
(dp4322
g18
I00
sg19
(lp4323
(irule
FeatureMatrix
p4324
(dp4325
g23
(lp4326
sg25
Nsba(irule
FeatureMatrix
p4327
(dp4328
g23
(lp4329
(I00
g3272
tp4330
asg25
Nsbasg29
I00
sg25
Nsg31
I00
sg32
S'L'
sbsg33
(irule
FeatureMatrix
p4331
(dp4332
g23
(lp4333
(I00
g3272
tp4334
asg25
Nsbsg42
(irule
Guard
p4335
(dp4336
g18
I00
sg19
(lp4337
(irule
FeatureMatrix
p4338
(dp4339
g23
(lp4340
(I00
g3579
tp4341
asg25
Nsbasg29
I00
sg25
Nsg31
I00
sg32
S'R'
sbsg46
(irule
FeatureMatrix
p4342
(dp4343
g23
(lp4344
sg25
Nsbsg25
Nsba(irule
Rule
p4345
(dp4346
g15
(irule
Guard
p4347
(dp4348
g18
I00
sg19
(lp4349
(irule
FeatureMatrix
p4350
(dp4351
g23
(lp4352
sg25
Nsba(irule
FeatureMatrix
p4353
(dp4354
g23
(lp4355
(I00
g3272
tp4356
asg25
Nsbasg29
I00
sg25
Nsg31
I00
sg32
S'L'
sbsg33
(irule
FeatureMatrix
p4357
(dp4358
g23
(lp4359
(I00
g3272
tp4360
asg25
Nsbsg42
(irule
Guard
p4361
(dp4362
g18
I00
sg19
(lp4363
(irule
FeatureMatrix
p4364
(dp4365
g23
(lp4366
sg25
Nsbasg29
I00
sg25
Nsg31
I00
sg32
S'R'
sbsg46
(irule
FeatureMatrix
p4367
(dp4368
g23
(lp4369
(I01
g3830
tp4370
asg25
Nsbsg25
Nsba(irule
Rule
p4371
(dp4372
g15
(irule
Guard
p4373
(dp4374
g18
I00
sg19
(lp4375
(irule
FeatureMatrix
p4376
(dp4377
g23
(lp4378
sg25
Nsba(irule
FeatureMatrix
p4379
(dp4380
g23
(lp4381
(I00
g3272
tp4382
asg25
Nsbasg29
I00
sg25
Nsg31
I00
sg32
S'L'
sbsg33
(irule
FeatureMatrix
p4383
(dp4384
g23
(lp4385
(I00
g3272
tp4386
asg25
Nsbsg42
(irule
Guard
p4387
(dp4388
g18
I00
sg19
(lp4389
(irule
FeatureMatrix
p4390
(dp4391
g23
(lp4392
(I01
g3569
tp4393
asg25
Nsbasg29
I00
sg25
Nsg31
I00
sg32
S'R'
sbsg46
(irule
FeatureMatrix
p4394
(dp4395
g23
(lp4396
sg25
Nsbsg25
Nsba(irule
Rule
p4397
(dp4398
g15
(irule
Guard
p4399
(dp4400
g18
I00
sg19
(lp4401
(irule
FeatureMatrix
p4402
(dp4403
g23
(lp4404
sg25
Nsba(irule
FeatureMatrix
p4405
(dp4406
g23
(lp4407
(I00
g3272
tp4408
asg25
Nsbasg29
I00
sg25
Nsg31
I00
sg32
S'L'
sbsg33
(irule
FeatureMatrix
p4409
(dp4410
g23
(lp4411
(I00
g3272
tp4412
asg25
Nsbsg42
(irule
Guard
p4413
(dp4414
g18
I00
sg19
(lp4415
(irule
FeatureMatrix
p4416
(dp4417
g23
(lp4418
(I01
g3783
tp4419
asg25
Nsbasg29
I00
sg25
Nsg31
I00
sg32
S'R'
sbsg46
(irule
FeatureMatrix
p4420
(dp4421
g23
(lp4422
sg25
Nsbsg25
Nsba(irule
Rule
p4423
(dp4424
g15
(irule
Guard
p4425
(dp4426
g18
I00
sg19
(lp4427
(irule
FeatureMatrix
p4428
(dp4429
g23
(lp4430
sg25
Nsba(irule
FeatureMatrix
p4431
(dp4432
g23
(lp4433
(I00
g3272
tp4434
asg25
Nsbasg29
I00
sg25
Nsg31
I00
sg32
S'L'
sbsg33
(irule
FeatureMatrix
p4435
(dp4436
g23
(lp4437
(I00
g3272
tp4438
asg25
Nsbsg42
(irule
Guard
p4439
(dp4440
g18
I00
sg19
(lp4441
(irule
FeatureMatrix
p4442
(dp4443
g23
(lp4444
(I00
g3603
tp4445
asg25
Nsbasg29
I00
sg25
Nsg31
I00
sg32
S'R'
sbsg46
(irule
FeatureMatrix
p4446
(dp4447
g23
(lp4448
sg25
Nsbsg25
Nsba(irule
Rule
p4449
(dp4450
g15
(irule
Guard
p4451
(dp4452
g18
I00
sg19
(lp4453
(irule
FeatureMatrix
p4454
(dp4455
g23
(lp4456
sg25
Nsba(irule
FeatureMatrix
p4457
(dp4458
g23
(lp4459
(I00
g3272
tp4460
asg25
Nsbasg29
I00
sg25
Nsg31
I00
sg32
S'L'
sbsg33
(irule
FeatureMatrix
p4461
(dp4462
g23
(lp4463
(I00
g3272
tp4464
asg25
Nsbsg42
(irule
Guard
p4465
(dp4466
g18
I00
sg19
(lp4467
(irule
FeatureMatrix
p4468
(dp4469
g23
(lp4470
(I00
g3272
tp4471
asg25
Nsbasg29
I00
sg25
Nsg31
I00
sg32
S'R'
sbsg46
(irule
FeatureMatrix
p4472
(dp4473
g23
(lp4474
sg25
Nsbsg25
Nsba(irule
Rule
p4475
(dp4476
g15
(irule
Guard
p4477
(dp4478
g18
I00
sg19
(lp4479
(irule
FeatureMatrix
p4480
(dp4481
g23
(lp4482
sg25
Nsba(irule
FeatureMatrix
p4483
(dp4484
g23
(lp4485
(I00
g3272
tp4486
asg25
Nsbasg29
I00
sg25
Nsg31
I00
sg32
S'L'
sbsg33
(irule
FeatureMatrix
p4487
(dp4488
g23
(lp4489
(I00
g3272
tp4490
asg25
Nsbsg42
(irule
Guard
p4491
(dp4492
g18
I00
sg19
(lp4493
sg29
I00
sg25
Nsg31
I00
sg32
S'R'
sbsg46
(irule
FeatureMatrix
p4494
(dp4495
g23
(lp4496
(I00
g3687
tp4497
a(I00
g3603
tp4498
asg25
Nsbsg25
Nsba(irule
Rule
p4499
(dp4500
g15
(irule
Guard
p4501
(dp4502
g18
I00
sg19
(lp4503
(irule
FeatureMatrix
p4504
(dp4505
g23
(lp4506
sg25
Nsba(irule
FeatureMatrix
p4507
(dp4508
g23
(lp4509
(I00
g3272
tp4510
asg25
Nsbasg29
I00
sg25
Nsg31
I00
sg32
S'L'
sbsg33
(irule
FeatureMatrix
p4511
(dp4512
g23
(lp4513
(I00
g3272
tp4514
a(I01
g3278
tp4515
asg25
Nsbsg42
(irule
Guard
p4516
(dp4517
g18
I00
sg19
(lp4518
(irule
FeatureMatrix
p4519
(dp4520
g23
(lp4521
sg25
Nsbasg29
I00
sg25
Nsg31
I00
sg32
S'R'
sbsg46
(irule
FeatureMatrix
p4522
(dp4523
g23
(lp4524
sg25
Nsbsg25
Nsba(irule
Rule
p4525
(dp4526
g15
(irule
Guard
p4527
(dp4528
g18
I00
sg19
(lp4529
(irule
FeatureMatrix
p4530
(dp4531
g23
(lp4532
sg25
Nsba(irule
FeatureMatrix
p4533
(dp4534
g23
(lp4535
(I00
g3272
tp4536
asg25
Nsbasg29
I00
sg25
Nsg31
I00
sg32
S'L'
sbsg33
(irule
FeatureMatrix
p4537
(dp4538
g23
(lp4539
(I00
g3272
tp4540
asg25
Nsbsg42
(irule
Guard
p4541
(dp4542
g18
I00
sg19
(lp4543
(irule
FeatureMatrix
p4544
(dp4545
g23
(lp4546
sg25
Nsbasg29
I00
sg25
Nsg31
I00
sg32
S'R'
sbsg46
(irule
FeatureMatrix
p4547
(dp4548
g23
(lp4549
(I00
g3711
tp4550
asg25
Nsbsg25
Nsba(irule
Rule
p4551
(dp4552
g15
(irule
Guard
p4553
(dp4554
g18
I00
sg19
(lp4555
(irule
FeatureMatrix
p4556
(dp4557
g23
(lp4558
(I00
g3531
tp4559
asg25
Nsba(irule
FeatureMatrix
p4560
(dp4561
g23
(lp4562
(I00
g3272
tp4563
asg25
Nsbasg29
I00
sg25
Nsg31
I00
sg32
S'L'
sbsg33
(irule
FeatureMatrix
p4564
(dp4565
g23
(lp4566
(I00
g3272
tp4567
asg25
Nsbsg42
(irule
Guard
p4568
(dp4569
g18
I00
sg19
(lp4570
sg29
I00
sg25
Nsg31
I00
sg32
S'R'
sbsg46
(irule
FeatureMatrix
p4571
(dp4572
g23
(lp4573
(I00
g3687
tp4574
asg25
Nsbsg25
Nsba(irule
Rule
p4575
(dp4576
g15
(irule
Guard
p4577
(dp4578
g18
I00
sg19
(lp4579
(irule
FeatureMatrix
p4580
(dp4581
g23
(lp4582
sg25
Nsba(irule
FeatureMatrix
p4583
(dp4584
g23
(lp4585
(I00
g3272
tp4586
asg25
Nsbasg29
I00
sg25
Nsg31
I00
sg32
S'L'
sbsg33
(irule
FeatureMatrix
p4587
(dp4588
g23
(lp4589
(I00
g3272
tp4590
asg25
Nsbsg42
(irule
Guard
p4591
(dp4592
g18
I00
sg19
(lp4593
(irule
FeatureMatrix
p4594
(dp4595
g23
(lp4596
sg25
Nsbasg29
I00
sg25
Nsg31
I00
sg32
S'R'
sbsg46
(irule
FeatureMatrix
p4597
(dp4598
g23
(lp4599
(I00
g3735
tp4600
asg25
Nsbsg25
Nsba(irule
Rule
p4601
(dp4602
g15
(irule
Guard
p4603
(dp4604
g18
I00
sg19
(lp4605
(irule
FeatureMatrix
p4606
(dp4607
g23
(lp4608
(I00
g3531
tp4609
asg25
Nsba(irule
FeatureMatrix
p4610
(dp4611
g23
(lp4612
(I00
g3272
tp4613
asg25
Nsbasg29
I00
sg25
Nsg31
I00
sg32
S'L'
sbsg33
(irule
FeatureMatrix
p4614
(dp4615
g23
(lp4616
(I00
g3272
tp4617
asg25
Nsbsg42
(irule
Guard
p4618
(dp4619
g18
I00
sg19
(lp4620
(irule
FeatureMatrix
p4621
(dp4622
g23
(lp4623
sg25
Nsbasg29
I00
sg25
Nsg31
I00
sg32
S'R'
sbsg46
(irule
FeatureMatrix
p4624
(dp4625
g23
(lp4626
sg25
Nsbsg25
Nsba(irule
Rule
p4627
(dp4628
g15
(irule
Guard
p4629
(dp4630
g18
I00
sg19
(lp4631
(irule
FeatureMatrix
p4632
(dp4633
g23
(lp4634
sg25
Nsba(irule
FeatureMatrix
p4635
(dp4636
g23
(lp4637
(I00
g3272
tp4638
asg25
Nsbasg29
I00
sg25
Nsg31
I00
sg32
S'L'
sbsg33
(irule
FeatureMatrix
p4639
(dp4640
g23
(lp4641
(I00
g3272
tp4642
a(I01
g3830
tp4643
asg25
Nsbsg42
(irule
Guard
p4644
(dp4645
g18
I00
sg19
(lp4646
sg29
I00
sg25
Nsg31
I00
sg32
S'R'
sbsg46
(irule
FeatureMatrix
p4647
(dp4648
g23
(lp4649
(I01
g3272
tp4650
asg25
Nsbsg25
Nsba(irule
Rule
p4651
(dp4652
g15
(irule
Guard
p4653
(dp4654
g18
I00
sg19
(lp4655
(irule
FeatureMatrix
p4656
(dp4657
g23
(lp4658
sg25
Nsba(irule
FeatureMatrix
p4659
(dp4660
g23
(lp4661
(I00
g3272
tp4662
asg25
Nsbasg29
I00
sg25
Nsg31
I00
sg32
S'L'
sbsg33
(irule
FeatureMatrix
p4663
(dp4664
g23
(lp4665
(I00
g3272
tp4666
asg25
Nsbsg42
(irule
Guard
p4667
(dp4668
g18
I00
sg19
(lp4669
sg29
I00
sg25
Nsg31
I00
sg32
S'R'
sbsg46
(irule
FeatureMatrix
p4670
(dp4671
g23
(lp4672
(I00
g3687
tp4673
a(I00
g3759
tp4674
asg25
Nsbsg25
Nsba(irule
Rule
p4675
(dp4676
g15
(irule
Guard
p4677
(dp4678
g18
I00
sg19
(lp4679
(irule
FeatureMatrix
p4680
(dp4681
g23
(lp4682
sg25
Nsba(irule
FeatureMatrix
p4683
(dp4684
g23
(lp4685
(I00
g3272
tp4686
asg25
Nsbasg29
I00
sg25
Nsg31
I00
sg32
S'L'
sbsg33
(irule
FeatureMatrix
p4687
(dp4688
g23
(lp4689
(I00
g3272
tp4690
a(I01
g3830
tp4691
asg25
Nsbsg42
(irule
Guard
p4692
(dp4693
g18
I00
sg19
(lp4694
sg29
I00
sg25
Nsg31
I00
sg32
S'R'
sbsg46
(irule
FeatureMatrix
p4695
(dp4696
g23
(lp4697
(I00
g3687
tp4698
asg25
Nsbsg25
Nsba(irule
Rule
p4699
(dp4700
g15
(irule
Guard
p4701
(dp4702
g18
I00
sg19
(lp4703
(irule
FeatureMatrix
p4704
(dp4705
g23
(lp4706
sg25
Nsba(irule
FeatureMatrix
p4707
(dp4708
g23
(lp4709
(I00
g3272
tp4710
asg25
Nsbasg29
I00
sg25
Nsg31
I00
sg32
S'L'
sbsg33
(irule
FeatureMatrix
p4711
(dp4712
g23
(lp4713
(I00
g3272
tp4714
asg25
Nsbsg42
(irule
Guard
p4715
(dp4716
g18
I00
sg19
(lp4717
(irule
FeatureMatrix
p4718
(dp4719
g23
(lp4720
sg25
Nsbasg29
I00
sg25
Nsg31
I00
sg32
S'R'
sbsg46
(irule
FeatureMatrix
p4721
(dp4722
g23
(lp4723
(I00
g3380
tp4724
asg25
Nsbsg25
Nsba(irule
Rule
p4725
(dp4726
g15
(irule
Guard
p4727
(dp4728
g18
I00
sg19
(lp4729
(irule
FeatureMatrix
p4730
(dp4731
g23
(lp4732
sg25
Nsba(irule
FeatureMatrix
p4733
(dp4734
g23
(lp4735
(I00
g3272
tp4736
asg25
Nsbasg29
I00
sg25
Nsg31
I00
sg32
S'L'
sbsg33
(irule
FeatureMatrix
p4737
(dp4738
g23
(lp4739
(I00
g3272
tp4740
asg25
Nsbsg42
(irule
Guard
p4741
(dp4742
g18
I00
sg19
(lp4743
(irule
FeatureMatrix
p4744
(dp4745
g23
(lp4746
sg25
Nsbasg29
I00
sg25
Nsg31
I00
sg32
S'R'
sbsg46
(irule
FeatureMatrix
p4747
(dp4748
g23
(lp4749
(I01
g3783
tp4750
asg25
Nsbsg25
Nsba(irule
Rule
p4751
(dp4752
g15
(irule
Guard
p4753
(dp4754
g18
I00
sg19
(lp4755
(irule
FeatureMatrix
p4756
(dp4757
g23
(lp4758
sg25
Nsba(irule
FeatureMatrix
p4759
(dp4760
g23
(lp4761
(I00
g3272
tp4762
asg25
Nsbasg29
I00
sg25
Nsg31
I00
sg32
S'L'
sbsg33
(irule
FeatureMatrix
p4763
(dp4764
g23
(lp4765
(I00
g3272
tp4766
asg25
Nsbsg42
(irule
Guard
p4767
(dp4768
g18
I00
sg19
(lp4769
(irule
FeatureMatrix
p4770
(dp4771
g23
(lp4772
sg25
Nsbasg29
I00
sg25
Nsg31
I00
sg32
S'R'
sbsg46
(irule
FeatureMatrix
p4773
(dp4774
g23
(lp4775
(I00
g3414
tp4776
asg25
Nsbsg25
Nsba(irule
Rule
p4777
(dp4778
g15
(irule
Guard
p4779
(dp4780
g18
I00
sg19
(lp4781
(irule
FeatureMatrix
p4782
(dp4783
g23
(lp4784
sg25
Nsba(irule
FeatureMatrix
p4785
(dp4786
g23
(lp4787
(I00
g3272
tp4788
asg25
Nsbasg29
I00
sg25
Nsg31
I00
sg32
S'L'
sbsg33
(irule
FeatureMatrix
p4789
(dp4790
g23
(lp4791
(I00
g3272
tp4792
asg25
Nsbsg42
(irule
Guard
p4793
(dp4794
g18
I00
sg19
(lp4795
(irule
FeatureMatrix
p4796
(dp4797
g23
(lp4798
sg25
Nsbasg29
I00
sg25
Nsg31
I00
sg32
S'R'
sbsg46
(irule
FeatureMatrix
p4799
(dp4800
g23
(lp4801
(I01
g3531
tp4802
asg25
Nsbsg25
Nsba(irule
Rule
p4803
(dp4804
g15
(irule
Guard
p4805
(dp4806
g18
I00
sg19
(lp4807
(irule
FeatureMatrix
p4808
(dp4809
g23
(lp4810
(I00
g3342
tp4811
asg25
Nsba(irule
FeatureMatrix
p4812
(dp4813
g23
(lp4814
(I00
g3272
tp4815
asg25
Nsbasg29
I00
sg25
Nsg31
I00
sg32
S'L'
sbsg33
(irule
FeatureMatrix
p4816
(dp4817
g23
(lp4818
(I00
g3272
tp4819
asg25
Nsbsg42
(irule
Guard
p4820
(dp4821
g18
I00
sg19
(lp4822
(irule
FeatureMatrix
p4823
(dp4824
g23
(lp4825
sg25
Nsbasg29
I00
sg25
Nsg31
I00
sg32
S'R'
sbsg46
(irule
FeatureMatrix
p4826
(dp4827
g23
(lp4828
sg25
Nsbsg25
Nsba(irule
Rule
p4829
(dp4830
g15
(irule
Guard
p4831
(dp4832
g18
I00
sg19
(lp4833
(irule
FeatureMatrix
p4834
(dp4835
g23
(lp4836
(I00
g3414
tp4837
asg25
Nsba(irule
FeatureMatrix
p4838
(dp4839
g23
(lp4840
(I00
g3272
tp4841
asg25
Nsbasg29
I00
sg25
Nsg31
I00
sg32
S'L'
sbsg33
(irule
FeatureMatrix
p4842
(dp4843
g23
(lp4844
(I00
g3272
tp4845
asg25
Nsbsg42
(irule
Guard
p4846
(dp4847
g18
I00
sg19
(lp4848
(irule
FeatureMatrix
p4849
(dp4850
g23
(lp4851
sg25
Nsbasg29
I00
sg25
Nsg31
I00
sg32
S'R'
sbsg46
(irule
FeatureMatrix
p4852
(dp4853
g23
(lp4854
sg25
Nsbsg25
Nsba(irule
Rule
p4855
(dp4856
g15
(irule
Guard
p4857
(dp4858
g18
I00
sg19
(lp4859
(irule
FeatureMatrix
p4860
(dp4861
g23
(lp4862
sg25
Nsba(irule
FeatureMatrix
p4863
(dp4864
g23
(lp4865
(I00
g3272
tp4866
asg25
Nsbasg29
I00
sg25
Nsg31
I00
sg32
S'L'
sbsg33
(irule
FeatureMatrix
p4867
(dp4868
g23
(lp4869
(I00
g3272
tp4870
asg25
Nsbsg42
(irule
Guard
p4871
(dp4872
g18
I00
sg19
(lp4873
(irule
FeatureMatrix
p4874
(dp4875
g23
(lp4876
sg25
Nsbasg29
I00
sg25
Nsg31
I00
sg32
S'R'
sbsg46
(irule
FeatureMatrix
p4877
(dp4878
g23
(lp4879
(I00
g3569
tp4880
asg25
Nsbsg25
Nsba(irule
Rule
p4881
(dp4882
g15
(irule
Guard
p4883
(dp4884
g18
I00
sg19
(lp4885
(irule
FeatureMatrix
p4886
(dp4887
g23
(lp4888
sg25
Nsba(irule
FeatureMatrix
p4889
(dp4890
g23
(lp4891
(I00
g3272
tp4892
asg25
Nsbasg29
I00
sg25
Nsg31
I00
sg32
S'L'
sbsg33
(irule
FeatureMatrix
p4893
(dp4894
g23
(lp4895
(I00
g3272
tp4896
asg25
Nsbsg42
(irule
Guard
p4897
(dp4898
g18
I00
sg19
(lp4899
sg29
I00
sg25
Nsg31
I00
sg32
S'R'
sbsg46
(irule
FeatureMatrix
p4900
(dp4901
g23
(lp4902
(I00
g3687
tp4903
a(I01
g3830
tp4904
asg25
Nsbsg25
Nsba(irule
Rule
p4905
(dp4906
g15
(irule
Guard
p4907
(dp4908
g18
I00
sg19
(lp4909
(irule
FeatureMatrix
p4910
(dp4911
g23
(lp4912
(I00
g3531
tp4913
a(I00
g3390
tp4914
asg25
Nsba(irule
FeatureMatrix
p4915
(dp4916
g23
(lp4917
(I00
g3272
tp4918
asg25
Nsbasg29
I00
sg25
Nsg31
I00
sg32
S'L'
sbsg33
(irule
FeatureMatrix
p4919
(dp4920
g23
(lp4921
(I00
g3272
tp4922
asg25
Nsbsg42
(irule
Guard
p4923
(dp4924
g18
I00
sg19
(lp4925
sg29
I00
sg25
Nsg31
I00
sg32
S'R'
sbsg46
(irule
FeatureMatrix
p4926
(dp4927
g23
(lp4928
sg25
Nsbsg25
Nsba(irule
Rule
p4929
(dp4930
g15
(irule
Guard
p4931
(dp4932
g18
I00
sg19
(lp4933
(irule
FeatureMatrix
p4934
(dp4935
g23
(lp4936
(I00
g3390
tp4937
asg25
Nsba(irule
FeatureMatrix
p4938
(dp4939
g23
(lp4940
(I00
g3272
tp4941
asg25
Nsbasg29
I00
sg25
Nsg31
I00
sg32
S'L'
sbsg33
(irule
FeatureMatrix
p4942
(dp4943
g23
(lp4944
(I00
g3272
tp4945
asg25
Nsbsg42
(irule
Guard
p4946
(dp4947
g18
I00
sg19
(lp4948
sg29
I00
sg25
Nsg31
I00
sg32
S'R'
sbsg46
(irule
FeatureMatrix
p4949
(dp4950
g23
(lp4951
(I00
g3687
tp4952
asg25
Nsbsg25
Nsba(irule
Rule
p4953
(dp4954
g15
(irule
Guard
p4955
(dp4956
g18
I00
sg19
(lp4957
(irule
FeatureMatrix
p4958
(dp4959
g23
(lp4960
(I00
g3461
tp4961
asg25
Nsba(irule
FeatureMatrix
p4962
(dp4963
g23
(lp4964
(I00
g3272
tp4965
asg25
Nsbasg29
I00
sg25
Nsg31
I00
sg32
S'L'
sbsg33
(irule
FeatureMatrix
p4966
(dp4967
g23
(lp4968
(I00
g3272
tp4969
asg25
Nsbsg42
(irule
Guard
p4970
(dp4971
g18
I00
sg19
(lp4972
(irule
FeatureMatrix
p4973
(dp4974
g23
(lp4975
sg25
Nsbasg29
I00
sg25
Nsg31
I00
sg32
S'R'
sbsg46
(irule
FeatureMatrix
p4976
(dp4977
g23
(lp4978
sg25
Nsbsg25
Nsba(irule
Rule
p4979
(dp4980
g15
(irule
Guard
p4981
(dp4982
g18
I00
sg19
(lp4983
(irule
FeatureMatrix
p4984
(dp4985
g23
(lp4986
(I00
g3414
tp4987
asg25
Nsba(irule
FeatureMatrix
p4988
(dp4989
g23
(lp4990
(I00
g3272
tp4991
asg25
Nsbasg29
I00
sg25
Nsg31
I00
sg32
S'L'
sbsg33
(irule
FeatureMatrix
p4992
(dp4993
g23
(lp4994
(I00
g3272
tp4995
a(I01
g3278
tp4996
asg25
Nsbsg42
(irule
Guard
p4997
(dp4998
g18
I00
sg19
(lp4999
sg29
I00
sg25
Nsg31
I00
sg32
S'R'
sbsg46
(irule
FeatureMatrix
p5000
(dp5001
g23
(lp5002
sg25
Nsbsg25
Nsba(irule
Rule
p5003
(dp5004
g15
(irule
Guard
p5005
(dp5006
g18
I00
sg19
(lp5007
(irule
FeatureMatrix
p5008
(dp5009
g23
(lp5010
(I00
g3579
tp5011
asg25
Nsba(irule
FeatureMatrix
p5012
(dp5013
g23
(lp5014
(I00
g3272
tp5015
asg25
Nsbasg29
I00
sg25
Nsg31
I00
sg32
S'L'
sbsg33
(irule
FeatureMatrix
p5016
(dp5017
g23
(lp5018
(I00
g3272
tp5019
asg25
Nsbsg42
(irule
Guard
p5020
(dp5021
g18
I00
sg19
(lp5022
(irule
FeatureMatrix
p5023
(dp5024
g23
(lp5025
sg25
Nsbasg29
I00
sg25
Nsg31
I00
sg32
S'R'
sbsg46
(irule
FeatureMatrix
p5026
(dp5027
g23
(lp5028
sg25
Nsbsg25
Nsba(irule
Rule
p5029
(dp5030
g15
(irule
Guard
p5031
(dp5032
g18
I00
sg19
(lp5033
(irule
FeatureMatrix
p5034
(dp5035
g23
(lp5036
sg25
Nsba(irule
FeatureMatrix
p5037
(dp5038
g23
(lp5039
(I00
g3272
tp5040
asg25
Nsbasg29
I00
sg25
Nsg31
I00
sg32
S'L'
sbsg33
(irule
FeatureMatrix
p5041
(dp5042
g23
(lp5043
(I00
g3272
tp5044
asg25
Nsbsg42
(irule
Guard
p5045
(dp5046
g18
I00
sg19
(lp5047
sg29
I00
sg25
Nsg31
I00
sg32
S'R'
sbsg46
(irule
FeatureMatrix
p5048
(dp5049
g23
(lp5050
(I01
g3272
tp5051
a(I00
g3603
tp5052
asg25
Nsbsg25
Nsba(irule
Rule
p5053
(dp5054
g15
(irule
Guard
p5055
(dp5056
g18
I00
sg19
(lp5057
(irule
FeatureMatrix
p5058
(dp5059
g23
(lp5060
sg25
Nsba(irule
FeatureMatrix
p5061
(dp5062
g23
(lp5063
(I00
g3272
tp5064
asg25
Nsbasg29
I00
sg25
Nsg31
I00
sg32
S'L'
sbsg33
(irule
FeatureMatrix
p5065
(dp5066
g23
(lp5067
(I00
g3272
tp5068
a(I00
g3735
tp5069
asg25
Nsbsg42
(irule
Guard
p5070
(dp5071
g18
I00
sg19
(lp5072
sg29
I00
sg25
Nsg31
I00
sg32
S'R'
sbsg46
(irule
FeatureMatrix
p5073
(dp5074
g23
(lp5075
(I00
g3687
tp5076
asg25
Nsbsg25
Nsba(irule
Rule
p5077
(dp5078
g15
(irule
Guard
p5079
(dp5080
g18
I00
sg19
(lp5081
(irule
FeatureMatrix
p5082
(dp5083
g23
(lp5084
(I00
g3272
tp5085
asg25
Nsba(irule
FeatureMatrix
p5086
(dp5087
g23
(lp5088
(I00
g3272
tp5089
asg25
Nsbasg29
I00
sg25
Nsg31
I00
sg32
S'L'
sbsg33
(irule
FeatureMatrix
p5090
(dp5091
g23
(lp5092
(I00
g3272
tp5093
asg25
Nsbsg42
(irule
Guard
p5094
(dp5095
g18
I00
sg19
(lp5096
(irule
FeatureMatrix
p5097
(dp5098
g23
(lp5099
sg25
Nsbasg29
I00
sg25
Nsg31
I00
sg32
S'R'
sbsg46
(irule
FeatureMatrix
p5100
(dp5101
g23
(lp5102
sg25
Nsbsg25
Nsba(irule
Rule
p5103
(dp5104
g15
(irule
Guard
p5105
(dp5106
g18
I00
sg19
(lp5107
(irule
FeatureMatrix
p5108
(dp5109
g23
(lp5110
sg25
Nsba(irule
FeatureMatrix
p5111
(dp5112
g23
(lp5113
(I00
g3272
tp5114
asg25
Nsbasg29
I00
sg25
Nsg31
I00
sg32
S'L'
sbsg33
(irule
FeatureMatrix
p5115
(dp5116
g23
(lp5117
(I00
g3272
tp5118
asg25
Nsbsg42
(irule
Guard
p5119
(dp5120
g18
I00
sg19
(lp5121
sg29
I00
sg25
Nsg31
I00
sg32
S'R'
sbsg46
(irule
FeatureMatrix
p5122
(dp5123
g23
(lp5124
(I01
g3272
tp5125
a(I00
g3711
tp5126
asg25
Nsbsg25
Nsba(irule
Rule
p5127
(dp5128
g15
(irule
Guard
p5129
(dp5130
g18
I00
sg19
(lp5131
(irule
FeatureMatrix
p5132
(dp5133
g23
(lp5134
sg25
Nsba(irule
FeatureMatrix
p5135
(dp5136
g23
(lp5137
(I00
g3272
tp5138
asg25
Nsbasg29
I00
sg25
Nsg31
I00
sg32
S'L'
sbsg33
(irule
FeatureMatrix
p5139
(dp5140
g23
(lp5141
(I00
g3272
tp5142
a(I00
g3711
tp5143
asg25
Nsbsg42
(irule
Guard
p5144
(dp5145
g18
I00
sg19
(lp5146
sg29
I00
sg25
Nsg31
I00
sg32
S'R'
sbsg46
(irule
FeatureMatrix
p5147
(dp5148
g23
(lp5149
(I00
g3759
tp5150
asg25
Nsbsg25
Nsba(irule
Rule
p5151
(dp5152
g15
(irule
Guard
p5153
(dp5154
g18
I00
sg19
(lp5155
(irule
FeatureMatrix
p5156
(dp5157
g23
(lp5158
sg25
Nsba(irule
FeatureMatrix
p5159
(dp5160
g23
(lp5161
(I00
g3272
tp5162
asg25
Nsbasg29
I00
sg25
Nsg31
I00
sg32
S'L'
sbsg33
(irule
FeatureMatrix
p5163
(dp5164
g23
(lp5165
(I00
g3272
tp5166
asg25
Nsbsg42
(irule
Guard
p5167
(dp5168
g18
I00
sg19
(lp5169
sg29
I00
sg25
Nsg31
I00
sg32
S'R'
sbsg46
(irule
FeatureMatrix
p5170
(dp5171
g23
(lp5172
(I00
g3687
tp5173
a(I00
g3711
tp5174
asg25
Nsbsg25
Nsba(irule
Rule
p5175
(dp5176
g15
(irule
Guard
p5177
(dp5178
g18
I00
sg19
(lp5179
(irule
FeatureMatrix
p5180
(dp5181
g23
(lp5182
sg25
Nsba(irule
FeatureMatrix
p5183
(dp5184
g23
(lp5185
(I00
g3272
tp5186
asg25
Nsbasg29
I00
sg25
Nsg31
I00
sg32
S'L'
sbsg33
(irule
FeatureMatrix
p5187
(dp5188
g23
(lp5189
(I00
g3272
tp5190
asg25
Nsbsg42
(irule
Guard
p5191
(dp5192
g18
I00
sg19
(lp5193
sg29
I00
sg25
Nsg31
I00
sg32
S'R'
sbsg46
(irule
FeatureMatrix
p5194
(dp5195
g23
(lp5196
(I00
g3687
tp5197
a(I01
g3531
tp5198
asg25
Nsbsg25
Nsba(irule
Rule
p5199
(dp5200
g15
(irule
Guard
p5201
(dp5202
g18
I00
sg19
(lp5203
(irule
FeatureMatrix
p5204
(dp5205
g23
(lp5206
(I00
g3603
tp5207
asg25
Nsba(irule
FeatureMatrix
p5208
(dp5209
g23
(lp5210
(I00
g3272
tp5211
asg25
Nsbasg29
I00
sg25
Nsg31
I00
sg32
S'L'
sbsg33
(irule
FeatureMatrix
p5212
(dp5213
g23
(lp5214
(I00
g3272
tp5215
asg25
Nsbsg42
(irule
Guard
p5216
(dp5217
g18
I00
sg19
(lp5218
(irule
FeatureMatrix
p5219
(dp5220
g23
(lp5221
sg25
Nsbasg29
I00
sg25
Nsg31
I00
sg32
S'R'
sbsg46
(irule
FeatureMatrix
p5222
(dp5223
g23
(lp5224
sg25
Nsbsg25
Nsba(irule
Rule
p5225
(dp5226
g15
(irule
Guard
p5227
(dp5228
g18
I00
sg19
(lp5229
(irule
FeatureMatrix
p5230
(dp5231
g23
(lp5232
sg25
Nsba(irule
FeatureMatrix
p5233
(dp5234
g23
(lp5235
(I00
g3272
tp5236
asg25
Nsbasg29
I00
sg25
Nsg31
I00
sg32
S'L'
sbsg33
(irule
FeatureMatrix
p5237
(dp5238
g23
(lp5239
(I00
g3272
tp5240
a(I01
g3278
tp5241
asg25
Nsbsg42
(irule
Guard
p5242
(dp5243
g18
I00
sg19
(lp5244
sg29
I00
sg25
Nsg31
I00
sg32
S'R'
sbsg46
(irule
FeatureMatrix
p5245
(dp5246
g23
(lp5247
(I00
g3735
tp5248
asg25
Nsbsg25
Nsba(irule
Rule
p5249
(dp5250
g15
(irule
Guard
p5251
(dp5252
g18
I00
sg19
(lp5253
(irule
FeatureMatrix
p5254
(dp5255
g23
(lp5256
(I00
g3342
tp5257
asg25
Nsba(irule
FeatureMatrix
p5258
(dp5259
g23
(lp5260
(I00
g3272
tp5261
asg25
Nsbasg29
I00
sg25
Nsg31
I00
sg32
S'L'
sbsg33
(irule
FeatureMatrix
p5262
(dp5263
g23
(lp5264
(I00
g3272
tp5265
a(I01
g3278
tp5266
asg25
Nsbsg42
(irule
Guard
p5267
(dp5268
g18
I00
sg19
(lp5269
sg29
I00
sg25
Nsg31
I00
sg32
S'R'
sbsg46
(irule
FeatureMatrix
p5270
(dp5271
g23
(lp5272
sg25
Nsbsg25
Nsba(irule
Rule
p5273
(dp5274
g15
(irule
Guard
p5275
(dp5276
g18
I00
sg19
(lp5277
(irule
FeatureMatrix
p5278
(dp5279
g23
(lp5280
sg25
Nsba(irule
FeatureMatrix
p5281
(dp5282
g23
(lp5283
(I00
g3272
tp5284
asg25
Nsbasg29
I00
sg25
Nsg31
I00
sg32
S'L'
sbsg33
(irule
FeatureMatrix
p5285
(dp5286
g23
(lp5287
(I00
g3272
tp5288
a(I01
g3278
tp5289
asg25
Nsbsg42
(irule
Guard
p5290
(dp5291
g18
I00
sg19
(lp5292
sg29
I00
sg25
Nsg31
I00
sg32
S'R'
sbsg46
(irule
FeatureMatrix
p5293
(dp5294
g23
(lp5295
(I01
g3278
tp5296
asg25
Nsbsg25
Nsba(irule
Rule
p5297
(dp5298
g15
(irule
Guard
p5299
(dp5300
g18
I00
sg19
(lp5301
(irule
FeatureMatrix
p5302
(dp5303
g23
(lp5304
sg25
Nsba(irule
FeatureMatrix
p5305
(dp5306
g23
(lp5307
(I00
g3272
tp5308
asg25
Nsbasg29
I00
sg25
Nsg31
I00
sg32
S'L'
sbsg33
(irule
FeatureMatrix
p5309
(dp5310
g23
(lp5311
(I00
g3272
tp5312
a(I01
g3783
tp5313
asg25
Nsbsg42
(irule
Guard
p5314
(dp5315
g18
I00
sg19
(lp5316
sg29
I00
sg25
Nsg31
I00
sg32
S'R'
sbsg46
(irule
FeatureMatrix
p5317
(dp5318
g23
(lp5319
(I00
g3687
tp5320
asg25
Nsbsg25
Nsba(irule
Rule
p5321
(dp5322
g15
(irule
Guard
p5323
(dp5324
g18
I00
sg19
(lp5325
(irule
FeatureMatrix
p5326
(dp5327
g23
(lp5328
sg25
Nsba(irule
FeatureMatrix
p5329
(dp5330
g23
(lp5331
(I00
g3272
tp5332
asg25
Nsbasg29
I00
sg25
Nsg31
I00
sg32
S'L'
sbsg33
(irule
FeatureMatrix
p5333
(dp5334
g23
(lp5335
(I00
g3272
tp5336
a(I00
g3759
tp5337
asg25
Nsbsg42
(irule
Guard
p5338
(dp5339
g18
I00
sg19
(lp5340
sg29
I00
sg25
Nsg31
I00
sg32
S'R'
sbsg46
(irule
FeatureMatrix
p5341
(dp5342
g23
(lp5343
(I00
g3759
tp5344
asg25
Nsbsg25
Nsba(irule
Rule
p5345
(dp5346
g15
(irule
Guard
p5347
(dp5348
g18
I00
sg19
(lp5349
(irule
FeatureMatrix
p5350
(dp5351
g23
(lp5352
sg25
Nsba(irule
FeatureMatrix
p5353
(dp5354
g23
(lp5355
(I00
g3272
tp5356
asg25
Nsbasg29
I00
sg25
Nsg31
I00
sg32
S'L'
sbsg33
(irule
FeatureMatrix
p5357
(dp5358
g23
(lp5359
(I00
g3272
tp5360
asg25
Nsbsg42
(irule
Guard
p5361
(dp5362
g18
I00
sg19
(lp5363
sg29
I00
sg25
Nsg31
I00
sg32
S'R'
sbsg46
(irule
FeatureMatrix
p5364
(dp5365
g23
(lp5366
(I01
g3272
tp5367
a(I01
g3830
tp5368
asg25
Nsbsg25
Nsba(irule
Rule
p5369
(dp5370
g15
(irule
Guard
p5371
(dp5372
g18
I00
sg19
(lp5373
(irule
FeatureMatrix
p5374
(dp5375
g23
(lp5376
sg25
Nsba(irule
FeatureMatrix
p5377
(dp5378
g23
(lp5379
(I00
g3272
tp5380
asg25
Nsbasg29
I00
sg25
Nsg31
I00
sg32
S'L'
sbsg33
(irule
FeatureMatrix
p5381
(dp5382
g23
(lp5383
(I00
g3687
tp5384
a(I00
g3272
tp5385
asg25
Nsbsg42
(irule
Guard
p5386
(dp5387
g18
I00
sg19
(lp5388
sg29
I00
sg25
Nsg31
I00
sg32
S'R'
sbsg46
(irule
FeatureMatrix
p5389
(dp5390
g23
(lp5391
(I00
g3687
tp5392
asg25
Nsbsg25
Nsba(irule
Rule
p5393
(dp5394
g15
(irule
Guard
p5395
(dp5396
g18
I00
sg19
(lp5397
(irule
FeatureMatrix
p5398
(dp5399
g23
(lp5400
(I00
g3461
tp5401
asg25
Nsba(irule
FeatureMatrix
p5402
(dp5403
g23
(lp5404
(I00
g3272
tp5405
asg25
Nsbasg29
I00
sg25
Nsg31
I00
sg32
S'L'
sbsg33
(irule
FeatureMatrix
p5406
(dp5407
g23
(lp5408
(I00
g3272
tp5409
a(I01
g3783
tp5410
asg25
Nsbsg42
(irule
Guard
p5411
(dp5412
g18
I00
sg19
(lp5413
sg29
I00
sg25
Nsg31
I00
sg32
S'R'
sbsg46
(irule
FeatureMatrix
p5414
(dp5415
g23
(lp5416
sg25
Nsbsg25
Nsba(irule
Rule
p5417
(dp5418
g15
(irule
Guard
p5419
(dp5420
g18
I00
sg19
(lp5421
(irule
FeatureMatrix
p5422
(dp5423
g23
(lp5424
sg25
Nsba(irule
FeatureMatrix
p5425
(dp5426
g23
(lp5427
(I00
g3272
tp5428
asg25
Nsbasg29
I00
sg25
Nsg31
I00
sg32
S'L'
sbsg33
(irule
FeatureMatrix
p5429
(dp5430
g23
(lp5431
(I00
g3272
tp5432
asg25
Nsbsg42
(irule
Guard
p5433
(dp5434
g18
I00
sg19
(lp5435
sg29
I00
sg25
Nsg31
I00
sg32
S'R'
sbsg46
(irule
FeatureMatrix
p5436
(dp5437
g23
(lp5438
(I01
g3272
tp5439
a(I00
g3759
tp5440
asg25
Nsbsg25
Nsba(irule
Rule
p5441
(dp5442
g15
(irule
Guard
p5443
(dp5444
g18
I00
sg19
(lp5445
(irule
FeatureMatrix
p5446
(dp5447
g23
(lp5448
sg25
Nsba(irule
FeatureMatrix
p5449
(dp5450
g23
(lp5451
(I00
g3272
tp5452
asg25
Nsbasg29
I00
sg25
Nsg31
I00
sg32
S'L'
sbsg33
(irule
FeatureMatrix
p5453
(dp5454
g23
(lp5455
(I00
g3272
tp5456
asg25
Nsbsg42
(irule
Guard
p5457
(dp5458
g18
I00
sg19
(lp5459
sg29
I00
sg25
Nsg31
I00
sg32
S'R'
sbsg46
(irule
FeatureMatrix
p5460
(dp5461
g23
(lp5462
(I00
g3687
tp5463
a(I00
g3735
tp5464
asg25
Nsbsg25
Nsba(irule
Rule
p5465
(dp5466
g15
(irule
Guard
p5467
(dp5468
g18
I00
sg19
(lp5469
(irule
FeatureMatrix
p5470
(dp5471
g23
(lp5472
sg25
Nsba(irule
FeatureMatrix
p5473
(dp5474
g23
(lp5475
(I00
g3272
tp5476
asg25
Nsbasg29
I00
sg25
Nsg31
I00
sg32
S'L'
sbsg33
(irule
FeatureMatrix
p5477
(dp5478
g23
(lp5479
(I00
g3272
tp5480
asg25
Nsbsg42
(irule
Guard
p5481
(dp5482
g18
I00
sg19
(lp5483
sg29
I00
sg25
Nsg31
I00
sg32
S'R'
sbsg46
(irule
FeatureMatrix
p5484
(dp5485
g23
(lp5486
(I01
g3272
tp5487
a(I01
g3390
tp5488
asg25
Nsbsg25
Nsba(irule
Rule
p5489
(dp5490
g15
(irule
Guard
p5491
(dp5492
g18
I00
sg19
(lp5493
(irule
FeatureMatrix
p5494
(dp5495
g23
(lp5496
(I00
g3342
tp5497
a(I00
g3390
tp5498
asg25
Nsba(irule
FeatureMatrix
p5499
(dp5500
g23
(lp5501
(I00
g3272
tp5502
asg25
Nsbasg29
I00
sg25
Nsg31
I00
sg32
S'L'
sbsg33
(irule
FeatureMatrix
p5503
(dp5504
g23
(lp5505
(I00
g3272
tp5506
asg25
Nsbsg42
(irule
Guard
p5507
(dp5508
g18
I00
sg19
(lp5509
sg29
I00
sg25
Nsg31
I00
sg32
S'R'
sbsg46
(irule
FeatureMatrix
p5510
(dp5511
g23
(lp5512
sg25
Nsbsg25
Nsba(irule
Rule
p5513
(dp5514
g15
(irule
Guard
p5515
(dp5516
g18
I00
sg19
(lp5517
(irule
FeatureMatrix
p5518
(dp5519
g23
(lp5520
(I00
g3531
tp5521
a(I00
g3342
tp5522
asg25
Nsba(irule
FeatureMatrix
p5523
(dp5524
g23
(lp5525
(I00
g3272
tp5526
asg25
Nsbasg29
I00
sg25
Nsg31
I00
sg32
S'L'
sbsg33
(irule
FeatureMatrix
p5527
(dp5528
g23
(lp5529
(I00
g3272
tp5530
asg25
Nsbsg42
(irule
Guard
p5531
(dp5532
g18
I00
sg19
(lp5533
sg29
I00
sg25
Nsg31
I00
sg32
S'R'
sbsg46
(irule
FeatureMatrix
p5534
(dp5535
g23
(lp5536
sg25
Nsbsg25
Nsba(irule
Rule
p5537
(dp5538
g15
(irule
Guard
p5539
(dp5540
g18
I00
sg19
(lp5541
(irule
FeatureMatrix
p5542
(dp5543
g23
(lp5544
sg25
Nsba(irule
FeatureMatrix
p5545
(dp5546
g23
(lp5547
(I00
g3272
tp5548
asg25
Nsbasg29
I00
sg25
Nsg31
I00
sg32
S'L'
sbsg33
(irule
FeatureMatrix
p5549
(dp5550
g23
(lp5551
(I00
g3272
tp5552
asg25
Nsbsg42
(irule
Guard
p5553
(dp5554
g18
I00
sg19
(lp5555
sg29
I00
sg25
Nsg31
I00
sg32
S'R'
sbsg46
(irule
FeatureMatrix
p5556
(dp5557
g23
(lp5558
(I00
g3380
tp5559
a(I01
g3278
tp5560
asg25
Nsbsg25
Nsba(irule
Rule
p5561
(dp5562
g15
(irule
Guard
p5563
(dp5564
g18
I00
sg19
(lp5565
(irule
FeatureMatrix
p5566
(dp5567
g23
(lp5568
sg25
Nsba(irule
FeatureMatrix
p5569
(dp5570
g23
(lp5571
(I00
g3272
tp5572
asg25
Nsbasg29
I00
sg25
Nsg31
I00
sg32
S'L'
sbsg33
(irule
FeatureMatrix
p5573
(dp5574
g23
(lp5575
(I00
g3272
tp5576
a(I00
g3380
tp5577
asg25
Nsbsg42
(irule
Guard
p5578
(dp5579
g18
I00
sg19
(lp5580
sg29
I00
sg25
Nsg31
I00
sg32
S'R'
sbsg46
(irule
FeatureMatrix
p5581
(dp5582
g23
(lp5583
(I01
g3272
tp5584
asg25
Nsbsg25
Nsba(irule
Rule
p5585
(dp5586
g15
(irule
Guard
p5587
(dp5588
g18
I00
sg19
(lp5589
(irule
FeatureMatrix
p5590
(dp5591
g23
(lp5592
(I00
g3342
tp5593
asg25
Nsba(irule
FeatureMatrix
p5594
(dp5595
g23
(lp5596
(I00
g3272
tp5597
asg25
Nsbasg29
I00
sg25
Nsg31
I00
sg32
S'L'
sbsg33
(irule
FeatureMatrix
p5598
(dp5599
g23
(lp5600
(I00
g3272
tp5601
asg25
Nsbsg42
(irule
Guard
p5602
(dp5603
g18
I00
sg19
(lp5604
sg29
I00
sg25
Nsg31
I00
sg32
S'R'
sbsg46
(irule
FeatureMatrix
p5605
(dp5606
g23
(lp5607
(I01
g3783
tp5608
asg25
Nsbsg25
Nsba(irule
Rule
p5609
(dp5610
g15
(irule
Guard
p5611
(dp5612
g18
I00
sg19
(lp5613
(irule
FeatureMatrix
p5614
(dp5615
g23
(lp5616
sg25
Nsba(irule
FeatureMatrix
p5617
(dp5618
g23
(lp5619
(I00
g3272
tp5620
asg25
Nsbasg29
I00
sg25
Nsg31
I00
sg32
S'L'
sbsg33
(irule
FeatureMatrix
p5621
(dp5622
g23
(lp5623
(I00
g3272
tp5624
asg25
Nsbsg42
(irule
Guard
p5625
(dp5626
g18
I00
sg19
(lp5627
sg29
I00
sg25
Nsg31
I00
sg32
S'R'
sbsg46
(irule
FeatureMatrix
p5628
(dp5629
g23
(lp5630
(I01
g3272
tp5631
a(I00
g3414
tp5632
asg25
Nsbsg25
Nsba(irule
Rule
p5633
(dp5634
g15
(irule
Guard
p5635
(dp5636
g18
I00
sg19
(lp5637
(irule
FeatureMatrix
p5638
(dp5639
g23
(lp5640
sg25
Nsba(irule
FeatureMatrix
p5641
(dp5642
g23
(lp5643
(I00
g3272
tp5644
asg25
Nsbasg29
I00
sg25
Nsg31
I00
sg32
S'L'
sbsg33
(irule
FeatureMatrix
p5645
(dp5646
g23
(lp5647
(I00
g3272
tp5648
a(I00
g3569
tp5649
asg25
Nsbsg42
(irule
Guard
p5650
(dp5651
g18
I00
sg19
(lp5652
sg29
I00
sg25
Nsg31
I00
sg32
S'R'
sbsg46
(irule
FeatureMatrix
p5653
(dp5654
g23
(lp5655
(I01
g3272
tp5656
asg25
Nsbsg25
Nsba(irule
Rule
p5657
(dp5658
g15
(irule
Guard
p5659
(dp5660
g18
I00
sg19
(lp5661
(irule
FeatureMatrix
p5662
(dp5663
g23
(lp5664
sg25
Nsba(irule
FeatureMatrix
p5665
(dp5666
g23
(lp5667
(I00
g3272
tp5668
asg25
Nsbasg29
I00
sg25
Nsg31
I00
sg32
S'L'
sbsg33
(irule
FeatureMatrix
p5669
(dp5670
g23
(lp5671
(I00
g3272
tp5672
a(I01
g3278
tp5673
asg25
Nsbsg42
(irule
Guard
p5674
(dp5675
g18
I00
sg19
(lp5676
sg29
I00
sg25
Nsg31
I00
sg32
S'R'
sbsg46
(irule
FeatureMatrix
p5677
(dp5678
g23
(lp5679
(I01
g3272
tp5680
asg25
Nsbsg25
Nsba(irule
Rule
p5681
(dp5682
g15
(irule
Guard
p5683
(dp5684
g18
I00
sg19
(lp5685
(irule
FeatureMatrix
p5686
(dp5687
g23
(lp5688
(I00
g3272
tp5689
a(I00
g3342
tp5690
asg25
Nsba(irule
FeatureMatrix
p5691
(dp5692
g23
(lp5693
(I00
g3272
tp5694
asg25
Nsbasg29
I00
sg25
Nsg31
I00
sg32
S'L'
sbsg33
(irule
FeatureMatrix
p5695
(dp5696
g23
(lp5697
(I00
g3272
tp5698
asg25
Nsbsg42
(irule
Guard
p5699
(dp5700
g18
I00
sg19
(lp5701
sg29
I00
sg25
Nsg31
I00
sg32
S'R'
sbsg46
(irule
FeatureMatrix
p5702
(dp5703
g23
(lp5704
sg25
Nsbsg25
NsbaasbsS'parameters'
p5705
g6
(cargparse
Namespace
p5706
g8
NtRp5707
(dp5708
S'dummy'
p5709
I00
sS'task'
p5710
S'CEGIS'
p5711
sS'features'
p5712
S'sophisticated'
p5713
sS'resume'
p5714
I00
sS'geometry'
p5715
I01
sS'top'
p5716
I100
sS'disableClean'
p5717
I00
sS'universal'
p5718
NsS'restrict'
p5719
NsS'window'
p5720
NsS'seed'
p5721
S'0'
sS'restore'
p5722
NsS'verbosity'
p5723
I0
sS'timeout'
p5724
F24
sS'debug'
p5725
NsS'cores'
p5726
I40
sg635
S'Halle_85_Turkish'
p5727
sS'save'
p5728
NsS'serial'
p5729
I00
sS'alignment'
p5730
I00
sS'samples'
p5731
I30
sbsb.