(iresult
Result
p1
(dp2
S'startTime'
p3
F1591191709.0993669
sS'solutionSequence'
p4
(lp5
(ccopy_reg
_reconstructor
p6
(csolution
Solution
p7
c__builtin__
object
p8
NtRp9
(dp10
S'rules'
p11
(lp12
sS'prefixes'
p13
(lp14
(imorph
Morph
p15
(dp16
S'phonemes'
p17
(lp18
sbag15
ag15
ag15
asS'underlyingForms'
p19
(dp20
sS'suffixes'
p21
(lp22
(imorph
Morph
p23
(dp24
g17
(lp25
sbag23
ag23
ag23
asbF86363.304515123367
tp26
asS'problem'
p27
S'Halle_149_Russian'
p28
sS'finalFrontier'
p29
g6
(csolution
Frontier
p30
g8
NtRp31
(dp32
g13
g14
sg21
g22
sg19
g20
sS'frontiers'
p33
(lp34
sbsS'parameters'
p35
g6
(cargparse
Namespace
p36
g8
NtRp37
(dp38
S'restore'
p39
NsS'features'
p40
S'none'
p41
sS'universal'
p42
NsS'restrict'
p43
NsS'seed'
p44
NsS'serial'
p45
I00
sS'cv'
p46
I00
sS'alignment'
p47
I00
sS'top'
p48
I1
sS'maximumDepth'
p49
I3
sS'window'
p50
NsS'minimizeBits'
p51
I5
sS'samples'
p52
I30
sS'save'
p53
NsS'resume'
p54
I00
sS'disableClean'
p55
I01
sS'stemBaseline'
p56
I30
sS'dummy'
p57
I00
sS'task'
p58
S'CEGIS'
p59
sS'geometry'
p60
NsS'verbosity'
p61
I0
sS'noConstant'
p62
I00
sS'timeout'
p63
F24
sS'debug'
p64
NsS'cores'
p65
I40
sg27
S'Halle_149_Russian'
p66
sS'mergeFrontiers'
p67
I00
sbsb.