(iresult
Result
p1
(dp2
S'startTime'
p3
F1559660713.6494751
sS'solutionSequence'
p4
(lp5
(ccopy_reg
_reconstructor
p6
(csolution
Solution
p7
c__builtin__
object
p8
NtRp9
(dp10
S'rules'
p11
(lp12
(irule
Rule
p13
(dp14
S'leftTriggers'
p15
(irule
Guard
p16
(dp17
S'endOfString'
p18
I00
sS'specifications'
p19
(lp20
sS'optionalEnding'
p21
I00
sS'representation'
p22
V
sS'starred'
p23
I00
sS'side'
p24
S'L'
sbsS'structuralChange'
p25
(irule
FeatureMatrix
p26
(dp27
S'featuresAndPolarities'
p28
(lp29
sg22
V[  ]
p30
sbsS'rightTriggers'
p31
(irule
Guard
p32
(dp33
g18
I00
sg19
(lp34
sg21
I00
sg22
V
sg23
I00
sg24
S'R'
sbsS'focus'
p35
(irule
FeatureMatrix
p36
(dp37
g28
(lp38
sg22
V[  ]
p39
sbsg22
V[  ] ---> [  ] /  _ 
p40
sbasS'prefixes'
p41
(lp42
(imorph
Morph
p43
(dp44
S'phonemes'
p45
(lp46
sba(imorph
Morph
p47
(dp48
g45
(lp49
sba(imorph
Morph
p50
(dp51
g45
(lp52
sba(imorph
Morph
p53
(dp54
g45
(lp55
sbasS'underlyingForms'
p56
(dp57
((imorph
Morph
p58
(dp59
g45
(lp60
Vh
aVa
aVl
aVs
asb(imorph
Morph
p61
(dp62
g45
(lp63
Vh
aVa
aVl
aVo
aVs
asb(imorph
Morph
p64
(dp65
g45
(lp66
Vh
aVa
aVl
aVi
asb(imorph
Morph
p67
(dp68
g45
(lp69
Vh
aVa
aVl
aVs
aVi
asbtp70
(imorph
Morph
p71
(dp72
g45
(lp73
Vh
aVa
aVl
asbs((imorph
Morph
p74
(dp75
g45
(lp76
Vo
aVy
aVs
asb(imorph
Morph
p77
(dp78
g45
(lp79
Vo
aVy
aVo
aVs
asb(imorph
Morph
p80
(dp81
g45
(lp82
Vo
aVy
aVi
asb(imorph
Morph
p83
(dp84
g45
(lp85
Vo
aVy
aVs
aVi
asbtp86
(imorph
Morph
p87
(dp88
g45
(lp89
Vo
aVy
asbssS'suffixes'
p90
(lp91
(imorph
Morph
p92
(dp93
g45
(lp94
Vs
asba(imorph
Morph
p95
(dp96
g45
(lp97
Vo
aVs
asba(imorph
Morph
p98
(dp99
g45
(lp100
Vi
asba(imorph
Morph
p101
(dp102
g45
(lp103
Vs
aVi
asbasbF27.408780813217163
tp104
a(g6
(g7
g8
NtRp105
(dp106
g11
(lp107
(irule
Rule
p108
(dp109
g15
(irule
Guard
p110
(dp111
g18
I00
sg19
(lp112
sg21
I00
sg22
V
sg23
I00
sg24
S'L'
sbsg25
(irule
ConstantPhoneme
p113
(dp114
S'p'
Vp
sbsg31
(irule
Guard
p115
(dp116
g18
I00
sg19
(lp117
(irule
ConstantPhoneme
p118
(dp119
S'p'
Vs
sbasg21
I00
sg22
Vs
sg23
I00
sg24
S'R'
sbsg35
(irule
ConstantPhoneme
p120
(dp121
S'p'
Vb
sbsg22
Vb ---> p /  _ s
p122
sbasg41
(lp123
(imorph
Morph
p124
(dp125
g45
(lp126
sba(imorph
Morph
p127
(dp128
g45
(lp129
sba(imorph
Morph
p130
(dp131
g45
(lp132
sba(imorph
Morph
p133
(dp134
g45
(lp135
sbasg56
(dp136
(g58
g61
g64
g67
tp137
(imorph
Morph
p138
(dp139
g45
(lp140
Vh
aVa
aVl
asbs(g74
g77
g80
g83
tp141
(imorph
Morph
p142
(dp143
g45
(lp144
Vo
aVy
asbs((imorph
Morph
p145
(dp146
g45
(lp147
Vp^h
p148
aVl
aVe:
p149
aVp
aVs
asb(imorph
Morph
p150
(dp151
g45
(lp152
Vp^h
p153
aVl
aVe:
p154
aVb
aVo
aVs
asb(imorph
Morph
p155
(dp156
g45
(lp157
Vp^h
p158
aVl
aVe:
p159
aVb
aVi
asb(imorph
Morph
p160
(dp161
g45
(lp162
Vp^h
p163
aVl
aVe:
p164
aVp
aVs
aVi
asbtp165
(imorph
Morph
p166
(dp167
g45
(lp168
Vp^h
p169
aVl
aVe:
p170
aVb
asbssg90
(lp171
(imorph
Morph
p172
(dp173
g45
(lp174
Vs
asba(imorph
Morph
p175
(dp176
g45
(lp177
Vo
aVs
asba(imorph
Morph
p178
(dp179
g45
(lp180
Vi
asba(imorph
Morph
p181
(dp182
g45
(lp183
Vs
aVi
asbasbF96.638176918029785
tp184
a(g6
(g7
g8
NtRp185
(dp186
g11
(lp187
(irule
Rule
p188
(dp189
g15
(irule
Guard
p190
(dp191
g18
I00
sg19
(lp192
(irule
FeatureMatrix
p193
(dp194
g28
(lp195
sg22
V[  ]
p196
sba(irule
ConstantPhoneme
p197
(dp198
S'p'
Vl
sbasg21
I00
sg22
Vl [  ]
p199
sg23
I00
sg24
S'L'
sbsg25
(irule
ConstantPhoneme
p200
(dp201
S'p'
Vp
sbsg31
(irule
Guard
p202
(dp203
g18
I00
sg19
(lp204
(irule
ConstantPhoneme
p205
(dp206
S'p'
Vs
sbasg21
I00
sg22
Vs
sg23
I00
sg24
S'R'
sbsg35
(irule
FeatureMatrix
p207
(dp208
g28
(lp209
sg22
V[  ]
p210
sbsg22
V[  ] ---> p / l [  ] _ s
p211
sbasg41
(lp212
(imorph
Morph
p213
(dp214
g45
(lp215
sba(imorph
Morph
p216
(dp217
g45
(lp218
sba(imorph
Morph
p219
(dp220
g45
(lp221
sba(imorph
Morph
p222
(dp223
g45
(lp224
sbasg56
(dp225
(g58
g61
g64
g67
tp226
(imorph
Morph
p227
(dp228
g45
(lp229
Vh
aVa
aVl
asbs((imorph
Morph
p230
(dp231
g45
(lp232
Vk
aVa
aVt
aVe:
p233
aVl
aVi
aVp
aVs
asb(imorph
Morph
p234
(dp235
g45
(lp236
Vk
aVa
aVt
aVe:
p237
aVl
aVi
aVp^h
p238
aVo
aVs
asb(imorph
Morph
p239
(dp240
g45
(lp241
Vk
aVa
aVt
aVe:
p242
aVl
aVi
aVp^h
p243
aVi
asb(imorph
Morph
p244
(dp245
g45
(lp246
Vk
aVa
aVt
aVe:
p247
aVl
aVi
aVp
aVs
aVi
asbtp248
(imorph
Morph
p249
(dp250
g45
(lp251
Vk
aVa
aVt
ag170
aVl
aVi
ag169
asbs(g74
g77
g80
g83
tp252
(imorph
Morph
p253
(dp254
g45
(lp255
Vo
aVy
asbs(g145
g150
g155
g160
tp256
(imorph
Morph
p257
(dp258
g45
(lp259
g169
aVl
ag170
aVb
asbssg90
(lp260
(imorph
Morph
p261
(dp262
g45
(lp263
Vs
asba(imorph
Morph
p264
(dp265
g45
(lp266
Vo
aVs
asba(imorph
Morph
p267
(dp268
g45
(lp269
Vi
asba(imorph
Morph
p270
(dp271
g45
(lp272
Vs
aVi
asbasbF255.09734582901001
tp273
a(g6
(g7
g8
NtRp274
(dp275
g11
(lp276
(irule
Rule
p277
(dp278
g15
(irule
Guard
p279
(dp280
g18
I00
sg19
(lp281
sg21
I00
sg22
V
sg23
I00
sg24
S'L'
sbsg25
(irule
ConstantPhoneme
p282
(dp283
S'p'
Vp
sbsg31
(irule
Guard
p284
(dp285
g18
I00
sg19
(lp286
(irule
ConstantPhoneme
p287
(dp288
S'p'
Vs
sbasg21
I00
sg22
Vs
sg23
I00
sg24
S'R'
sbsg35
(irule
ConstantPhoneme
p289
(dp290
S'p'
g169
sbsg22
Vp^h ---> p /  _ s
p291
sba(irule
Rule
p292
(dp293
g15
(irule
Guard
p294
(dp295
g18
I00
sg19
(lp296
(irule
ConstantPhoneme
p297
(dp298
S'p'
g170
sbasg21
I00
sg22
g170
sg23
I00
sg24
S'L'
sbsg25
(irule
ConstantPhoneme
p299
(dp300
S'p'
Vb
sbsg31
(irule
Guard
p301
(dp302
g18
I00
sg19
(lp303
sg21
I00
sg22
V
sg23
I00
sg24
S'R'
sbsg35
(irule
ConstantPhoneme
p304
(dp305
S'p'
g169
sbsg22
Vp^h ---> b / e: _ 
p306
sbasg41
(lp307
(imorph
Morph
p308
(dp309
g45
(lp310
sba(imorph
Morph
p311
(dp312
g45
(lp313
sba(imorph
Morph
p314
(dp315
g45
(lp316
sba(imorph
Morph
p317
(dp318
g45
(lp319
sbasg56
(dp320
(g58
g61
g64
g67
tp321
(imorph
Morph
p322
(dp323
g45
(lp324
Vh
aVa
aVl
asbs(g230
g234
g239
g244
tp325
(imorph
Morph
p326
(dp327
g45
(lp328
Vk
aVa
aVt
ag170
aVl
aVi
ag169
asbs(g74
g77
g80
g83
tp329
(imorph
Morph
p330
(dp331
g45
(lp332
Vo
aVy
asbs((imorph
Morph
p333
(dp334
g45
(lp335
Vp^h
p336
aVu
aVl
aVa
aVk
aVs
asb(imorph
Morph
p337
(dp338
g45
(lp339
Vp^h
p340
aVu
aVl
aVa
aVk
aVo
aVs
asb(imorph
Morph
p341
(dp342
g45
(lp343
Vp^h
p344
aVu
aVl
aVa
aVk
aVi
asb(imorph
Morph
p345
(dp346
g45
(lp347
Vp^h
p348
aVu
aVl
aVa
aVk
aVs
aVi
asbtp349
(imorph
Morph
p350
(dp351
g45
(lp352
g169
aVu
aVl
aVa
aVk
asbs(g145
g150
g155
g160
tp353
(imorph
Morph
p354
(dp355
g45
(lp356
g169
aVl
ag170
ag169
asbssg90
(lp357
(imorph
Morph
p358
(dp359
g45
(lp360
Vs
asba(imorph
Morph
p361
(dp362
g45
(lp363
Vo
aVs
asba(imorph
Morph
p364
(dp365
g45
(lp366
Vi
asba(imorph
Morph
p367
(dp368
g45
(lp369
Vs
aVi
asbasbF3331.6617929935455
tp370
a(g6
(g7
g8
NtRp371
(dp372
g11
(lp373
(irule
Rule
p374
(dp375
g15
(irule
Guard
p376
(dp377
g18
I00
sg19
(lp378
sg21
I00
sg22
V
sg23
I00
sg24
S'L'
sbsg25
(irule
ConstantPhoneme
p379
(dp380
S'p'
Vk
sbsg31
(irule
Guard
p381
(dp382
g18
I00
sg19
(lp383
(irule
ConstantPhoneme
p384
(dp385
S'p'
Vs
sbasg21
I00
sg22
Vs
sg23
I00
sg24
S'R'
sbsg35
(irule
ConstantPhoneme
p386
(dp387
S'p'
Vg
sbsg22
Vg ---> k /  _ s
p388
sba(irule
Rule
p389
(dp390
g15
(irule
Guard
p391
(dp392
g18
I00
sg19
(lp393
sg21
I00
sg22
V
sg23
I00
sg24
S'L'
sbsg25
(irule
ConstantPhoneme
p394
(dp395
S'p'
Vp
sbsg31
(irule
Guard
p396
(dp397
g18
I00
sg19
(lp398
(irule
ConstantPhoneme
p399
(dp400
S'p'
Vs
sbasg21
I00
sg22
Vs
sg23
I00
sg24
S'R'
sbsg35
(irule
ConstantPhoneme
p401
(dp402
S'p'
g169
sbsg22
Vp^h ---> p /  _ s
p403
sba(irule
Rule
p404
(dp405
g15
(irule
Guard
p406
(dp407
g18
I00
sg19
(lp408
sg21
I00
sg22
V
sg23
I00
sg24
S'L'
sbsg25
(irule
ConstantPhoneme
p409
(dp410
S'p'
Vp
sbsg31
(irule
Guard
p411
(dp412
g18
I00
sg19
(lp413
(irule
ConstantPhoneme
p414
(dp415
S'p'
Vs
sbasg21
I00
sg22
Vs
sg23
I00
sg24
S'R'
sbsg35
(irule
ConstantPhoneme
p416
(dp417
S'p'
Vb
sbsg22
Vb ---> p /  _ s
p418
sbasg41
(lp419
(imorph
Morph
p420
(dp421
g45
(lp422
sba(imorph
Morph
p423
(dp424
g45
(lp425
sba(imorph
Morph
p426
(dp427
g45
(lp428
sba(imorph
Morph
p429
(dp430
g45
(lp431
sbasg56
(dp432
(g58
g61
g64
g67
tp433
(imorph
Morph
p434
(dp435
g45
(lp436
Vh
aVa
aVl
asbs(g145
g150
g155
g160
tp437
(imorph
Morph
p438
(dp439
g45
(lp440
g169
aVl
ag170
aVb
asbs((imorph
Morph
(dp441
g45
(lp442
Vs
aVa
aVl
aVp
aVi
aV\u014b
aVk
aVs
asb(imorph
Morph
(dp443
g45
(lp444
Vs
aVa
aVl
aVp
aVi
aV\u014b
aVg
aVo
aVs
asb(imorph
Morph
(dp445
g45
(lp446
Vs
aVa
aVl
aVp
aVi
aV\u014b
aVg
aVi
asb(imorph
Morph
(dp447
g45
(lp448
Vs
aVa
aVl
aVp
aVi
aV\u014b
aVk
aVs
aVi
asbtp449
(imorph
Morph
p450
(dp451
g45
(lp452
Vs
aVa
aVl
aVp
aVi
aV\u014b
aVg
asbs(g74
g77
g80
g83
tp453
(imorph
Morph
p454
(dp455
g45
(lp456
Vo
aVy
asbs((imorph
Morph
(dp457
g45
(lp458
Vs
aVu
aVs
asb(imorph
Morph
(dp459
g45
(lp460
Vs
aVu
aVo
aVs
asb(imorph
Morph
(dp461
g45
(lp462
Vs
aVu
aVi
asb(imorph
Morph
(dp463
g45
(lp464
Vs
aVu
aVs
aVi
asbtp465
(imorph
Morph
p466
(dp467
g45
(lp468
Vs
aVu
asbs(g230
g234
g239
g244
tp469
(imorph
Morph
p470
(dp471
g45
(lp472
Vk
aVa
aVt
ag170
aVl
aVi
ag169
asbs(g333
g337
g341
g345
tp473
(imorph
Morph
p474
(dp475
g45
(lp476
g169
aVu
aVl
aVa
aVk
asbs((imorph
Morph
p477
(dp478
g45
(lp479
Va
aVy
aVk
aVs
asb(imorph
Morph
p480
(dp481
g45
(lp482
Va
aVy
aVg
aVo
aVs
asb(imorph
Morph
p483
(dp484
g45
(lp485
Va
aVy
aVg
aVi
asb(imorph
Morph
p486
(dp487
g45
(lp488
Va
aVy
aVk
aVs
aVi
asbtp489
(imorph
Morph
p490
(dp491
g45
(lp492
Va
aVy
aVg
asbs((imorph
Morph
(dp493
g45
(lp494
Vk
aVl
aVo:
p495
aVp
aVs
asb(imorph
Morph
(dp496
g45
(lp497
Vk
aVl
aVo:
p498
aVp
aVo
aVs
asb(imorph
Morph
(dp499
g45
(lp500
Vk
aVl
aVo:
p501
aVp
aVi
asb(imorph
Morph
(dp502
g45
(lp503
Vk
aVl
aVo:
p504
aVp
aVs
aVi
asbtp505
(imorph
Morph
p506
(dp507
g45
(lp508
Vk
aVl
aVo:
p509
aVp
asbssg90
(lp510
(imorph
Morph
p511
(dp512
g45
(lp513
Vs
asba(imorph
Morph
p514
(dp515
g45
(lp516
Vo
aVs
asba(imorph
Morph
p517
(dp518
g45
(lp519
Vi
asba(imorph
Morph
p520
(dp521
g45
(lp522
Vs
aVi
asbasbF58180.258149862289
tp523
asS'problem'
p524
S'Odden_3.3_Ancient_Greek'
p525
sS'finalFrontier'
p526
g6
(csolution
Frontier
p527
g8
NtRp528
(dp529
g41
g419
sg90
g510
sg56
g432
sS'frontiers'
p530
(lp531
(lp532
g374
aa(lp533
g389
aa(lp534
g404
aasbsS'parameters'
p535
g6
(cargparse
Namespace
p536
g8
NtRp537
(dp538
S'restore'
p539
NsS'features'
p540
S'none'
p541
sS'universal'
p542
NsS'restrict'
p543
NsS'seed'
p544
S'0'
sS'serial'
p545
I00
sS'alignment'
p546
I00
sS'top'
p547
I1
sS'maximumDepth'
p548
I3
sS'window'
p549
NsS'minimizeBits'
p550
I5
sS'samples'
p551
I30
sS'save'
p552
NsS'resume'
p553
I00
sS'disableClean'
p554
I01
sS'stemBaseline'
p555
I30
sS'dummy'
p556
I00
sS'task'
p557
S'CEGIS'
p558
sS'geometry'
p559
NsS'verbosity'
p560
I0
sS'timeout'
p561
F24
sS'debug'
p562
NsS'cores'
p563
I64
sg524
S'Odden_3.3_Ancient_Greek'
p564
sS'mergeFrontiers'
p565
I00
sbsb.