(iresult
Result
p1
(dp2
S'startTime'
p3
F1556133876.952368
sS'solutionSequence'
p4
(lp5
(ccopy_reg
_reconstructor
p6
(csolution
Solution
p7
c__builtin__
object
p8
NtRp9
(dp10
S'rules'
p11
(lp12
(irule
Rule
p13
(dp14
S'leftTriggers'
p15
(irule
Guard
p16
(dp17
S'endOfString'
p18
I00
sS'specifications'
p19
(lp20
sS'optionalEnding'
p21
I00
sS'representation'
p22
V
sS'starred'
p23
I00
sS'side'
p24
S'L'
sbsS'structuralChange'
p25
(irule
ConstantPhoneme
p26
(dp27
S'p'
V\u0268
sbsS'rightTriggers'
p28
(irule
Guard
p29
(dp30
g18
I00
sg19
(lp31
(irule
FeatureMatrix
p32
(dp33
S'featuresAndPolarities'
p34
(lp35
(I00
S'low'
p36
tp37
asg22
V[ -low ]
p38
sba(irule
FeatureMatrix
p39
(dp40
g34
(lp41
(I00
g36
tp42
asg22
V[ -low ]
p43
sbasg21
I00
sg22
V[ -low ] [ -low ]
p44
sg23
I00
sg24
S'R'
sbsS'focus'
p45
(irule
FeatureMatrix
p46
(dp47
g34
(lp48
sg22
V[  ]
p49
sbsg22
V[  ] ---> \u0268 /  _ [ -low ] [ -low ]
p50
sbasS'prefixes'
p51
(lp52
(imorph
Morph
p53
(dp54
S'phonemes'
p55
(lp56
sba(imorph
Morph
p57
(dp58
g55
(lp59
sba(imorph
Morph
p60
(dp61
g55
(lp62
sba(imorph
Morph
p63
(dp64
g55
(lp65
sba(imorph
Morph
p66
(dp67
g55
(lp68
sba(imorph
Morph
p69
(dp70
g55
(lp71
sbasS'underlyingForms'
p72
(dp73
((imorph
Morph
p74
(dp75
g55
(lp76
Vh
aVa
aVm
aVa
aVn
asb(imorph
Morph
p77
(dp78
g55
(lp79
Vh
aVa
aVm
aVa
aVm
asb(imorph
Morph
p80
(dp81
g55
(lp82
Vh
aV\u0268
aVm
aVi
asb(imorph
Morph
p83
(dp84
g55
(lp85
Vh
aV\u0268
aVm
aVu
asb(imorph
Morph
p86
(dp87
g55
(lp88
Vh
aVa
aVm
aVa
asb(imorph
Morph
p89
(dp90
g55
(lp91
Vh
aVa
aVm
aVa
aV\u014b
asbtp92
(imorph
Morph
p93
(dp94
g55
(lp95
Vh
aVa
aVm
asbssS'suffixes'
p96
(lp97
(imorph
Morph
p98
(dp99
g55
(lp100
Va
aVn
asba(imorph
Morph
p101
(dp102
g55
(lp103
Va
aVm
asba(imorph
Morph
p104
(dp105
g55
(lp106
Vi
asba(imorph
Morph
p107
(dp108
g55
(lp109
Vu
asba(imorph
Morph
p110
(dp111
g55
(lp112
Va
asba(imorph
Morph
p113
(dp114
g55
(lp115
Va
aV\u014b
asbasbF19.411699056625366
tp116
a(g6
(g7
g8
NtRp117
(dp118
g11
(lp119
(irule
Rule
p120
(dp121
g15
(irule
Guard
p122
(dp123
g18
I00
sg19
(lp124
sg21
I00
sg22
V
sg23
I00
sg24
S'L'
sbsg25
(irule
FeatureMatrix
p125
(dp126
g34
(lp127
(I00
S'back'
tp128
a(I00
S'high'
p129
tp130
asg22
V[ -back -high ]
p131
sbsg28
(irule
Guard
p132
(dp133
g18
I00
sg19
(lp134
(irule
FeatureMatrix
p135
(dp136
g34
(lp137
sg22
V[  ]
p138
sba(irule
FeatureMatrix
p139
(dp140
g34
(lp141
(I00
g129
tp142
asg22
V[ -high ]
p143
sbasg21
I00
sg22
V[  ] [ -high ]
p144
sg23
I00
sg24
S'R'
sbsg45
(irule
FeatureMatrix
p145
(dp146
g34
(lp147
sg22
V[  ]
p148
sbsg22
V[  ] ---> [ -back -high ] /  _ [  ] [ -high ]
p149
sba(irule
Rule
p150
(dp151
g15
(irule
Guard
p152
(dp153
g18
I00
sg19
(lp154
(irule
FeatureMatrix
p155
(dp156
g34
(lp157
(I00
S'coronal'
tp158
asg22
V[ -coronal ]
p159
sbasg21
I00
sg22
g159
sg23
I00
sg24
S'L'
sbsg25
(irule
ConstantPhoneme
p160
(dp161
S'p'
Va
sbsg28
(irule
Guard
p162
(dp163
g18
I00
sg19
(lp164
sg21
I00
sg22
V
sg23
I00
sg24
S'R'
sbsg45
(irule
ConstantPhoneme
p165
(dp166
S'p'
Ve
sbsg22
Ve ---> a / [ -coronal ] _ 
p167
sbasg51
(lp168
(imorph
Morph
p169
(dp170
g55
(lp171
sba(imorph
Morph
p172
(dp173
g55
(lp174
sba(imorph
Morph
p175
(dp176
g55
(lp177
sba(imorph
Morph
p178
(dp179
g55
(lp180
sba(imorph
Morph
p181
(dp182
g55
(lp183
sba(imorph
Morph
p184
(dp185
g55
(lp186
sbasg72
(dp187
((imorph
Morph
(dp188
g55
(lp189
Vh
aVa
aVm
aVa
aVn
asb(imorph
Morph
(dp190
g55
(lp191
Vh
aVa
aVm
aVa
aVm
asb(imorph
Morph
(dp192
g55
(lp193
Vh
aV\u0268
aVm
aVi
asb(imorph
Morph
(dp194
g55
(lp195
Vh
aV\u0268
aVm
aVu
asb(imorph
Morph
(dp196
g55
(lp197
Vh
aVa
aVm
aVa
asb(imorph
Morph
(dp198
g55
(lp199
Vh
aVa
aVm
aVa
aV\u014b
asbtp200
(imorph
Morph
p201
(dp202
g55
(lp203
Vh
aV\u0268
aVm
asbs((imorph
Morph
(dp204
g55
(lp205
Vs
aVe:
p206
aVn
aVe
aVn
asb(imorph
Morph
(dp207
g55
(lp208
Vs
aVe:
p209
aVn
aVe
aVm
asb(imorph
Morph
(dp210
g55
(lp211
Vs
aVi:
p212
aVn
aVi
asb(imorph
Morph
(dp213
g55
(lp214
Vs
aVi:
p215
aVn
aVu
asb(imorph
Morph
(dp216
g55
(lp217
Vs
aVe:
p218
aVn
aVa
asb(imorph
Morph
(dp219
g55
(lp220
Vs
aVe:
p221
aVn
aVe
aV\u014b
asbtp222
(imorph
Morph
p223
(dp224
g55
(lp225
Vs
aVi:
p226
aVn
asbssg96
(lp227
(imorph
Morph
p228
(dp229
g55
(lp230
Ve
aVn
asba(imorph
Morph
p231
(dp232
g55
(lp233
Ve
aVm
asba(imorph
Morph
p234
(dp235
g55
(lp236
Vi
asba(imorph
Morph
p237
(dp238
g55
(lp239
Vu
asba(imorph
Morph
p240
(dp241
g55
(lp242
Va
asba(imorph
Morph
p243
(dp244
g55
(lp245
Ve
aV\u014b
asbasbF1037.0809938907623
tp246
a(g6
(g7
g8
NtRp247
(dp248
g11
(lp249
(irule
Rule
p250
(dp251
g15
(irule
Guard
p252
(dp253
g18
I00
sg19
(lp254
(irule
FeatureMatrix
p255
(dp256
g34
(lp257
(I01
S'nasal'
tp258
asg22
V[ +nasal ]
p259
sbasg21
I00
sg22
g259
sg23
I00
sg24
S'L'
sbsg25
(irule
ConstantPhoneme
p260
(dp261
S'p'
Ve
sbsg28
(irule
Guard
p262
(dp263
g18
I00
sg19
(lp264
(irule
FeatureMatrix
p265
(dp266
g34
(lp267
sg22
V[  ]
p268
sbasg21
I00
sg22
g268
sg23
I00
sg24
S'R'
sbsg45
(irule
FeatureMatrix
p269
(dp270
g34
(lp271
sg22
V[  ]
p272
sbsg22
V[  ] ---> e / [ +nasal ] _ [  ]
p273
sba(irule
Rule
p274
(dp275
g15
(irule
Guard
p276
(dp277
g18
I00
sg19
(lp278
(irule
FeatureMatrix
p279
(dp280
g34
(lp281
(I00
S'coronal'
tp282
asg22
V[ -coronal ]
p283
sbasg21
I00
sg22
g283
sg23
I00
sg24
S'L'
sbsg25
(irule
ConstantPhoneme
p284
(dp285
S'p'
Va
sbsg28
(irule
Guard
p286
(dp287
g18
I00
sg19
(lp288
sg21
I00
sg22
V
sg23
I00
sg24
S'R'
sbsg45
(irule
ConstantPhoneme
p289
(dp290
S'p'
Ve
sbsg22
Ve ---> a / [ -coronal ] _ 
p291
sba(irule
Rule
p292
(dp293
g15
(irule
Guard
p294
(dp295
g18
I00
sg19
(lp296
sg21
I00
sg22
V
sg23
I00
sg24
S'L'
sbsg25
(irule
FeatureMatrix
p297
(dp298
g34
(lp299
(I01
S'high'
p300
tp301
a(I00
S'low'
tp302
asg22
V[ +high -low ]
p303
sbsg28
(irule
Guard
p304
(dp305
g18
I00
sg19
(lp306
(irule
FeatureMatrix
p307
(dp308
g34
(lp309
sg22
V[  ]
p310
sba(irule
FeatureMatrix
p311
(dp312
g34
(lp313
(I01
g300
tp314
asg22
V[ +high ]
p315
sbasg21
I00
sg22
V[  ] [ +high ]
p316
sg23
I00
sg24
S'R'
sbsg45
(irule
FeatureMatrix
p317
(dp318
g34
(lp319
(I01
S'vowel'
tp320
asg22
V[ +vowel ]
p321
sbsg22
V[ +vowel ] ---> [ +high -low ] /  _ [  ] [ +high ]
p322
sbasg51
(lp323
(imorph
Morph
p324
(dp325
g55
(lp326
sba(imorph
Morph
p327
(dp328
g55
(lp329
sba(imorph
Morph
p330
(dp331
g55
(lp332
sba(imorph
Morph
p333
(dp334
g55
(lp335
sba(imorph
Morph
p336
(dp337
g55
(lp338
sba(imorph
Morph
p339
(dp340
g55
(lp341
sbasg72
(dp342
((imorph
Morph
(dp343
g55
(lp344
Vh
aVa
aVm
aVa
aVn
asb(imorph
Morph
(dp345
g55
(lp346
Vh
aVa
aVm
aVa
aVm
asb(imorph
Morph
(dp347
g55
(lp348
Vh
aV\u0268
aVm
aVi
asb(imorph
Morph
(dp349
g55
(lp350
Vh
aV\u0268
aVm
aVu
asb(imorph
Morph
(dp351
g55
(lp352
Vh
aVa
aVm
aVa
asb(imorph
Morph
(dp353
g55
(lp354
Vh
aVa
aVm
aVa
aV\u014b
asbtp355
(imorph
Morph
p356
(dp357
g55
(lp358
Vh
aVe
aVm
asbs((imorph
Morph
(dp359
g55
(lp360
Vs
aVe:
p361
aVn
aVe
aVn
asb(imorph
Morph
(dp362
g55
(lp363
Vs
aVe:
p364
aVn
aVe
aVm
asb(imorph
Morph
(dp365
g55
(lp366
Vs
aVi:
p367
aVn
aVi
asb(imorph
Morph
(dp368
g55
(lp369
Vs
aVi:
p370
aVn
aVu
asb(imorph
Morph
(dp371
g55
(lp372
Vs
aVe:
p373
aVn
aVa
asb(imorph
Morph
(dp374
g55
(lp375
Vs
aVe:
p376
aVn
aVe
aV\u014b
asbtp377
(imorph
Morph
p378
(dp379
g55
(lp380
Vs
aVe:
p381
aVn
asbs((imorph
Morph
(dp382
g55
(lp383
Vk
aVo
aVl
aVo
aVn
asb(imorph
Morph
(dp384
g55
(lp385
Vk
aVo
aVl
aVo
aVm
asb(imorph
Morph
(dp386
g55
(lp387
Vk
aVu
aVl
aVi
asb(imorph
Morph
(dp388
g55
(lp389
Vk
aVu
aVl
aVu
asb(imorph
Morph
(dp390
g55
(lp391
Vk
aVo
aVl
aVa
asb(imorph
Morph
(dp392
g55
(lp393
Vk
aVo
aVl
aVo
aV\u014b
asbtp394
(imorph
Morph
p395
(dp396
g55
(lp397
Vk
aVo
aVl
asbssg96
(lp398
(imorph
Morph
p399
(dp400
g55
(lp401
Vo
aVn
asba(imorph
Morph
p402
(dp403
g55
(lp404
Vo
aVm
asba(imorph
Morph
p405
(dp406
g55
(lp407
Vi
asba(imorph
Morph
p408
(dp409
g55
(lp410
Vu
asba(imorph
Morph
p411
(dp412
g55
(lp413
Va
asba(imorph
Morph
p414
(dp415
g55
(lp416
Vo
aV\u014b
asbasbF1641.8994669914246
tp417
a(g6
(g7
g8
NtRp418
(dp419
g11
(lp420
(irule
Rule
p421
(dp422
g15
(irule
Guard
p423
(dp424
g18
I00
sg19
(lp425
(irule
FeatureMatrix
p426
(dp427
g34
(lp428
sg22
V[  ]
p429
sba(irule
FeatureMatrix
p430
(dp431
g34
(lp432
(I01
S'low'
p433
tp434
asg22
V[ +low ]
p435
sbasg21
I00
sg22
V[ +low ] [  ]
p436
sg23
I00
sg24
S'L'
sbsg25
(irule
OffsetSpecification
p437
(dp438
S'offset'
p439
I-2
sbsg28
(irule
Guard
p440
(dp441
g18
I00
sg19
(lp442
sg21
I00
sg22
V
sg23
I00
sg24
S'R'
sbsg45
(irule
ConstantPhoneme
p443
(dp444
S'p'
Ve
sbsg22
Ve ---> -2 / [ +low ] [  ] _ 
p445
sba(irule
Rule
p446
(dp447
g15
(irule
Guard
p448
(dp449
g18
I00
sg19
(lp450
(irule
ConstantPhoneme
p451
(dp452
S'p'
Vd
sbasg21
I00
sg22
Vd
sg23
I00
sg24
S'L'
sbsg25
(irule
FeatureMatrix
p453
(dp454
g34
(lp455
(I01
S'high'
tp456
a(I00
g433
tp457
asg22
V[ +high -low ]
p458
sbsg28
(irule
Guard
p459
(dp460
g18
I00
sg19
(lp461
sg21
I00
sg22
V
sg23
I00
sg24
S'R'
sbsg45
(irule
FeatureMatrix
p462
(dp463
g34
(lp464
sg22
V[  ]
p465
sbsg22
V[  ] ---> [ +high -low ] / d _ 
p466
sba(irule
Rule
p467
(dp468
g15
(irule
Guard
p469
(dp470
g18
I00
sg19
(lp471
sg21
I00
sg22
V
sg23
I00
sg24
S'L'
sbsg25
(irule
FeatureMatrix
p472
(dp473
g34
(lp474
(I01
S'high'
p475
tp476
a(I00
S'low'
tp477
asg22
V[ +high -low ]
p478
sbsg28
(irule
Guard
p479
(dp480
g18
I00
sg19
(lp481
(irule
FeatureMatrix
p482
(dp483
g34
(lp484
sg22
V[  ]
p485
sba(irule
FeatureMatrix
p486
(dp487
g34
(lp488
(I01
g475
tp489
asg22
V[ +high ]
p490
sbasg21
I00
sg22
V[  ] [ +high ]
p491
sg23
I00
sg24
S'R'
sbsg45
(irule
FeatureMatrix
p492
(dp493
g34
(lp494
(I01
S'vowel'
tp495
asg22
V[ +vowel ]
p496
sbsg22
V[ +vowel ] ---> [ +high -low ] /  _ [  ] [ +high ]
p497
sbasg51
(lp498
(imorph
Morph
p499
(dp500
g55
(lp501
sba(imorph
Morph
p502
(dp503
g55
(lp504
sba(imorph
Morph
p505
(dp506
g55
(lp507
sba(imorph
Morph
p508
(dp509
g55
(lp510
sba(imorph
Morph
p511
(dp512
g55
(lp513
sba(imorph
Morph
p514
(dp515
g55
(lp516
sbasg72
(dp517
((imorph
Morph
(dp518
g55
(lp519
Vh
aVa
aVm
aVa
aVn
asb(imorph
Morph
(dp520
g55
(lp521
Vh
aVa
aVm
aVa
aVm
asb(imorph
Morph
(dp522
g55
(lp523
Vh
aV\u0268
aVm
aVi
asb(imorph
Morph
(dp524
g55
(lp525
Vh
aV\u0268
aVm
aVu
asb(imorph
Morph
(dp526
g55
(lp527
Vh
aVa
aVm
aVa
asb(imorph
Morph
(dp528
g55
(lp529
Vh
aVa
aVm
aVa
aV\u014b
asbtp530
(imorph
Morph
p531
(dp532
g55
(lp533
Vh
aVa
aVm
asbs((imorph
Morph
(dp534
g55
(lp535
V\u0294
aVa
aVp
aVa
aVn
asb(imorph
Morph
(dp536
g55
(lp537
V\u0294
aVa
aVp
aVa
aVm
asb(imorph
Morph
(dp538
g55
(lp539
V\u0294
aV\u0268
aVp
aVi
asb(imorph
Morph
(dp540
g55
(lp541
V\u0294
aV\u0268
aVp
aVu
asb(imorph
Morph
(dp542
g55
(lp543
V\u0294
aVa
aVp
aVa
asb(imorph
Morph
(dp544
g55
(lp545
V\u0294
aVa
aVp
aVa
aV\u014b
asbtp546
(imorph
Morph
p547
(dp548
g55
(lp549
V\u0294
aVa
aVp
asbs((imorph
Morph
(dp550
g55
(lp551
Vg
aVi:
p552
aVd
aVi
aVn
asb(imorph
Morph
(dp553
g55
(lp554
Vg
aVi:
p555
aVd
aVi
aVm
asb(imorph
Morph
(dp556
g55
(lp557
Vg
aVi:
p558
aVd
aVi
asb(imorph
Morph
(dp559
g55
(lp560
Vg
aVi:
p561
aVd
aVu
asb(imorph
Morph
(dp562
g55
(lp563
Vg
aVi:
p564
aVd
aV\u0268
asb(imorph
Morph
(dp565
g55
(lp566
Vg
aVi:
p567
aVd
aVi
aV\u014b
asbtp568
(imorph
Morph
p569
(dp570
g55
(lp571
Vg
aVi:
p572
aVd
asbs((imorph
Morph
(dp573
g55
(lp574
Vk
aVo
aVl
aVo
aVn
asb(imorph
Morph
(dp575
g55
(lp576
Vk
aVo
aVl
aVo
aVm
asb(imorph
Morph
(dp577
g55
(lp578
Vk
aVu
aVl
aVi
asb(imorph
Morph
(dp579
g55
(lp580
Vk
aVu
aVl
aVu
asb(imorph
Morph
(dp581
g55
(lp582
Vk
aVo
aVl
aVa
asb(imorph
Morph
(dp583
g55
(lp584
Vk
aVo
aVl
aVo
aV\u014b
asbtp585
(imorph
Morph
p586
(dp587
g55
(lp588
Vk
aVo
aVl
asbs((imorph
Morph
(dp589
g55
(lp590
V\u0294
aVa
aVs
aVa
aVn
asb(imorph
Morph
(dp591
g55
(lp592
V\u0294
aVa
aVs
aVa
aVm
asb(imorph
Morph
(dp593
g55
(lp594
V\u0294
aV\u0268
aVs
aVi
asb(imorph
Morph
(dp595
g55
(lp596
V\u0294
aV\u0268
aVs
aVu
asb(imorph
Morph
(dp597
g55
(lp598
V\u0294
aVa
aVs
aVa
asb(imorph
Morph
(dp599
g55
(lp600
V\u0294
aVa
aVs
aVa
aV\u014b
asbtp601
(imorph
Morph
p602
(dp603
g55
(lp604
V\u0294
aVa
aVs
asbs((imorph
Morph
(dp605
g55
(lp606
Vs
aVe:
p607
aVn
aVe
aVn
asb(imorph
Morph
(dp608
g55
(lp609
Vs
aVe:
p610
aVn
aVe
aVm
asb(imorph
Morph
(dp611
g55
(lp612
Vs
aVi:
p613
aVn
aVi
asb(imorph
Morph
(dp614
g55
(lp615
Vs
aVi:
p616
aVn
aVu
asb(imorph
Morph
(dp617
g55
(lp618
Vs
aVe:
p619
aVn
aVa
asb(imorph
Morph
(dp620
g55
(lp621
Vs
aVe:
p622
aVn
aVe
aV\u014b
asbtp623
(imorph
Morph
p624
(dp625
g55
(lp626
Vs
aVe:
p627
aVn
asbs((imorph
Morph
(dp628
g55
(lp629
Vh
aVa
aVr
aVa
aVn
asb(imorph
Morph
(dp630
g55
(lp631
Vh
aVa
aVr
aVa
aVm
asb(imorph
Morph
(dp632
g55
(lp633
Vh
aV\u0268
aVr
aVi
asb(imorph
Morph
(dp634
g55
(lp635
Vh
aV\u0268
aVr
aVu
asb(imorph
Morph
(dp636
g55
(lp637
Vh
aVa
aVr
aVa
asb(imorph
Morph
(dp638
g55
(lp639
Vh
aVa
aVr
aVa
aV\u014b
asbtp640
(imorph
Morph
p641
(dp642
g55
(lp643
Vh
aVa
aVr
asbssg96
(lp644
(imorph
Morph
p645
(dp646
g55
(lp647
Ve
aVn
asba(imorph
Morph
p648
(dp649
g55
(lp650
Ve
aVm
asba(imorph
Morph
p651
(dp652
g55
(lp653
Vi
asba(imorph
Morph
p654
(dp655
g55
(lp656
Vu
asba(imorph
Morph
p657
(dp658
g55
(lp659
Va
asba(imorph
Morph
p660
(dp661
g55
(lp662
Ve
aV\u014b
asbasbF2435.5556819438934
tp663
asS'problem'
p664
S'Odden_4.6_Kera'
p665
sS'finalFrontier'
p666
g6
(csolution
Frontier
p667
g8
NtRp668
(dp669
g51
g498
sg96
g644
sg72
g517
sS'frontiers'
p670
(lp671
(lp672
(irule
Rule
p673
(dp674
g15
(irule
Guard
p675
(dp676
g18
I00
sg19
(lp677
(irule
FeatureMatrix
p678
(dp679
g34
(lp680
sg22
V[  ]
p681
sba(irule
FeatureMatrix
p682
(dp683
g34
(lp684
(I01
S'low'
tp685
asg22
V[ +low ]
p686
sbasg21
I00
sg22
V[ +low ] [  ]
p687
sg23
I00
sg24
S'L'
sbsg25
(irule
OffsetSpecification
p688
(dp689
g439
I-2
sbsg28
(irule
Guard
p690
(dp691
g18
I00
sg19
(lp692
sg21
I00
sg22
V
sg23
I00
sg24
S'R'
sbsg45
(irule
ConstantPhoneme
p693
(dp694
S'p'
Ve
sbsg22
Ve ---> -2 / [ +low ] [  ] _ 
p695
sba(irule
Rule
p696
(dp697
g15
(irule
Guard
p698
(dp699
g18
I00
sg19
(lp700
(irule
FeatureMatrix
p701
(dp702
g34
(lp703
sg22
Nsba(irule
FeatureMatrix
p704
(dp705
g34
(lp706
(I01
S'back'
p707
tp708
asg22
Nsbasg21
I00
sg22
Nsg23
I00
sg24
S'L'
sbsg25
(irule
OffsetSpecification
p709
(dp710
g439
I-2
sbsg28
(irule
Guard
p711
(dp712
g18
I00
sg19
(lp713
sg21
I00
sg22
Nsg23
I00
sg24
S'R'
sbsg45
(irule
ConstantPhoneme
p714
(dp715
S'p'
Ve
sbsg22
Nsba(irule
Rule
p716
(dp717
g15
(irule
Guard
p718
(dp719
g18
I00
sg19
(lp720
(irule
FeatureMatrix
p721
(dp722
g34
(lp723
sg22
Nsba(irule
FeatureMatrix
p724
(dp725
g34
(lp726
(I00
S'long'
p727
tp728
asg22
Nsbasg21
I00
sg22
Nsg23
I00
sg24
S'L'
sbsg25
(irule
OffsetSpecification
p729
(dp730
g439
I-2
sbsg28
(irule
Guard
p731
(dp732
g18
I00
sg19
(lp733
sg21
I00
sg22
Nsg23
I00
sg24
S'R'
sbsg45
(irule
ConstantPhoneme
p734
(dp735
S'p'
Ve
sbsg22
Nsba(irule
Rule
p736
(dp737
g15
(irule
Guard
p738
(dp739
g18
I00
sg19
(lp740
(irule
FeatureMatrix
p741
(dp742
g34
(lp743
sg22
Nsba(irule
FeatureMatrix
p744
(dp745
g34
(lp746
(I01
S'continuant'
p747
tp748
a(I01
g707
tp749
asg22
Nsbasg21
I00
sg22
Nsg23
I00
sg24
S'L'
sbsg25
(irule
OffsetSpecification
p750
(dp751
g439
I-2
sbsg28
(irule
Guard
p752
(dp753
g18
I00
sg19
(lp754
(irule
FeatureMatrix
p755
(dp756
g34
(lp757
sg22
Nsbasg21
I00
sg22
Nsg23
I00
sg24
S'R'
sbsg45
(irule
FeatureMatrix
p758
(dp759
g34
(lp760
sg22
Nsbsg22
Nsba(irule
Rule
p761
(dp762
g15
(irule
Guard
p763
(dp764
g18
I00
sg19
(lp765
(irule
FeatureMatrix
p766
(dp767
g34
(lp768
sg22
Nsba(irule
FeatureMatrix
p769
(dp770
g34
(lp771
(I01
S'low'
p772
tp773
asg22
Nsbasg21
I00
sg22
Nsg23
I00
sg24
S'L'
sbsg25
(irule
OffsetSpecification
p774
(dp775
g439
I-2
sbsg28
(irule
Guard
p776
(dp777
g18
I00
sg19
(lp778
(irule
FeatureMatrix
p779
(dp780
g34
(lp781
sg22
Nsbasg21
I00
sg22
Nsg23
I00
sg24
S'R'
sbsg45
(irule
ConstantPhoneme
p782
(dp783
S'p'
Ve
sbsg22
Nsba(irule
Rule
p784
(dp785
g15
(irule
Guard
p786
(dp787
g18
I00
sg19
(lp788
(irule
FeatureMatrix
p789
(dp790
g34
(lp791
sg22
Nsba(irule
FeatureMatrix
p792
(dp793
g34
(lp794
(I01
g707
tp795
a(I01
g772
tp796
asg22
Nsbasg21
I00
sg22
Nsg23
I00
sg24
S'L'
sbsg25
(irule
OffsetSpecification
p797
(dp798
g439
I-2
sbsg28
(irule
Guard
p799
(dp800
g18
I00
sg19
(lp801
sg21
I00
sg22
Nsg23
I00
sg24
S'R'
sbsg45
(irule
ConstantPhoneme
p802
(dp803
S'p'
Ve
sbsg22
Nsba(irule
Rule
p804
(dp805
g15
(irule
Guard
p806
(dp807
g18
I00
sg19
(lp808
(irule
FeatureMatrix
p809
(dp810
g34
(lp811
sg22
Nsba(irule
FeatureMatrix
p812
(dp813
g34
(lp814
(I00
S'anterior'
p815
tp816
a(I01
g707
tp817
asg22
Nsbasg21
I00
sg22
Nsg23
I00
sg24
S'L'
sbsg25
(irule
OffsetSpecification
p818
(dp819
g439
I-2
sbsg28
(irule
Guard
p820
(dp821
g18
I00
sg19
(lp822
sg21
I00
sg22
Nsg23
I00
sg24
S'R'
sbsg45
(irule
ConstantPhoneme
p823
(dp824
S'p'
Ve
sbsg22
Nsba(irule
Rule
p825
(dp826
g15
(irule
Guard
p827
(dp828
g18
I00
sg19
(lp829
(irule
FeatureMatrix
p830
(dp831
g34
(lp832
(I00
g772
tp833
asg22
Nsba(irule
FeatureMatrix
p834
(dp835
g34
(lp836
(I01
g707
tp837
asg22
Nsbasg21
I00
sg22
Nsg23
I00
sg24
S'L'
sbsg25
(irule
OffsetSpecification
p838
(dp839
g439
I-2
sbsg28
(irule
Guard
p840
(dp841
g18
I00
sg19
(lp842
sg21
I00
sg22
Nsg23
I00
sg24
S'R'
sbsg45
(irule
ConstantPhoneme
p843
(dp844
S'p'
Ve
sbsg22
Nsba(irule
Rule
p845
(dp846
g15
(irule
Guard
p847
(dp848
g18
I00
sg19
(lp849
(irule
FeatureMatrix
p850
(dp851
g34
(lp852
sg22
Nsba(irule
FeatureMatrix
p853
(dp854
g34
(lp855
(I00
S'lateral'
p856
tp857
a(I01
g707
tp858
asg22
Nsbasg21
I00
sg22
Nsg23
I00
sg24
S'L'
sbsg25
(irule
OffsetSpecification
p859
(dp860
g439
I-2
sbsg28
(irule
Guard
p861
(dp862
g18
I00
sg19
(lp863
sg21
I00
sg22
Nsg23
I00
sg24
S'R'
sbsg45
(irule
ConstantPhoneme
p864
(dp865
S'p'
Ve
sbsg22
Nsba(irule
Rule
p866
(dp867
g15
(irule
Guard
p868
(dp869
g18
I00
sg19
(lp870
(irule
FeatureMatrix
p871
(dp872
g34
(lp873
sg22
Nsba(irule
FeatureMatrix
p874
(dp875
g34
(lp876
(I01
g747
tp877
a(I01
g707
tp878
asg22
Nsbasg21
I00
sg22
Nsg23
I00
sg24
S'L'
sbsg25
(irule
OffsetSpecification
p879
(dp880
g439
I-2
sbsg28
(irule
Guard
p881
(dp882
g18
I00
sg19
(lp883
sg21
I00
sg22
Nsg23
I00
sg24
S'R'
sbsg45
(irule
ConstantPhoneme
p884
(dp885
S'p'
Ve
sbsg22
Nsba(irule
Rule
p886
(dp887
g15
(irule
Guard
p888
(dp889
g18
I00
sg19
(lp890
(irule
FeatureMatrix
p891
(dp892
g34
(lp893
sg22
Nsba(irule
FeatureMatrix
p894
(dp895
g34
(lp896
(I00
S'palatal'
p897
tp898
a(I01
g707
tp899
asg22
Nsbasg21
I00
sg22
Nsg23
I00
sg24
S'L'
sbsg25
(irule
OffsetSpecification
p900
(dp901
g439
I-2
sbsg28
(irule
Guard
p902
(dp903
g18
I00
sg19
(lp904
sg21
I00
sg22
Nsg23
I00
sg24
S'R'
sbsg45
(irule
ConstantPhoneme
p905
(dp906
S'p'
Ve
sbsg22
Nsba(irule
Rule
p907
(dp908
g15
(irule
Guard
p909
(dp910
g18
I00
sg19
(lp911
(irule
FeatureMatrix
p912
(dp913
g34
(lp914
sg22
Nsba(irule
FeatureMatrix
p915
(dp916
g34
(lp917
(I01
g707
tp918
asg22
Nsbasg21
I00
sg22
Nsg23
I00
sg24
S'L'
sbsg25
(irule
OffsetSpecification
p919
(dp920
g439
I-2
sbsg28
(irule
Guard
p921
(dp922
g18
I00
sg19
(lp923
(irule
FeatureMatrix
p924
(dp925
g34
(lp926
(I00
S'vowel'
p927
tp928
asg22
Nsbasg21
I00
sg22
Nsg23
I00
sg24
S'R'
sbsg45
(irule
FeatureMatrix
p929
(dp930
g34
(lp931
sg22
Nsbsg22
Nsba(irule
Rule
p932
(dp933
g15
(irule
Guard
p934
(dp935
g18
I00
sg19
(lp936
(irule
FeatureMatrix
p937
(dp938
g34
(lp939
sg22
Nsba(irule
FeatureMatrix
p940
(dp941
g34
(lp942
(I01
g707
tp943
asg22
Nsbasg21
I00
sg22
Nsg23
I00
sg24
S'L'
sbsg25
(irule
OffsetSpecification
p944
(dp945
g439
I-2
sbsg28
(irule
Guard
p946
(dp947
g18
I00
sg19
(lp948
(irule
FeatureMatrix
p949
(dp950
g34
(lp951
sg22
Nsbasg21
I00
sg22
Nsg23
I00
sg24
S'R'
sbsg45
(irule
ConstantPhoneme
p952
(dp953
S'p'
Ve
sbsg22
Nsba(irule
Rule
p954
(dp955
g15
(irule
Guard
p956
(dp957
g18
I00
sg19
(lp958
(irule
FeatureMatrix
p959
(dp960
g34
(lp961
sg22
Nsba(irule
FeatureMatrix
p962
(dp963
g34
(lp964
(I00
S'nasal'
p965
tp966
a(I01
g707
tp967
asg22
Nsbasg21
I00
sg22
Nsg23
I00
sg24
S'L'
sbsg25
(irule
OffsetSpecification
p968
(dp969
g439
I-2
sbsg28
(irule
Guard
p970
(dp971
g18
I00
sg19
(lp972
sg21
I00
sg22
Nsg23
I00
sg24
S'R'
sbsg45
(irule
ConstantPhoneme
p973
(dp974
S'p'
Ve
sbsg22
Nsba(irule
Rule
p975
(dp976
g15
(irule
Guard
p977
(dp978
g18
I00
sg19
(lp979
(irule
FeatureMatrix
p980
(dp981
g34
(lp982
sg22
Nsba(irule
FeatureMatrix
p983
(dp984
g34
(lp985
(I01
g707
tp986
asg22
Nsbasg21
I00
sg22
Nsg23
I00
sg24
S'L'
sbsg25
(irule
OffsetSpecification
p987
(dp988
g439
I-2
sbsg28
(irule
Guard
p989
(dp990
g18
I00
sg19
(lp991
(irule
FeatureMatrix
p992
(dp993
g34
(lp994
(I00
S'tense'
p995
tp996
asg22
Nsbasg21
I00
sg22
Nsg23
I00
sg24
S'R'
sbsg45
(irule
FeatureMatrix
p997
(dp998
g34
(lp999
sg22
Nsbsg22
Nsba(irule
Rule
p1000
(dp1001
g15
(irule
Guard
p1002
(dp1003
g18
I00
sg19
(lp1004
(irule
FeatureMatrix
p1005
(dp1006
g34
(lp1007
sg22
Nsba(irule
FeatureMatrix
p1008
(dp1009
g34
(lp1010
(I01
g707
tp1011
asg22
Nsbasg21
I00
sg22
Nsg23
I00
sg24
S'L'
sbsg25
(irule
OffsetSpecification
p1012
(dp1013
g439
I-2
sbsg28
(irule
Guard
p1014
(dp1015
g18
I00
sg19
(lp1016
(irule
FeatureMatrix
p1017
(dp1018
g34
(lp1019
(I01
g965
tp1020
asg22
Nsbasg21
I00
sg22
Nsg23
I00
sg24
S'R'
sbsg45
(irule
FeatureMatrix
p1021
(dp1022
g34
(lp1023
sg22
Nsbsg22
Nsba(irule
Rule
p1024
(dp1025
g15
(irule
Guard
p1026
(dp1027
g18
I00
sg19
(lp1028
(irule
FeatureMatrix
p1029
(dp1030
g34
(lp1031
sg22
Nsba(irule
FeatureMatrix
p1032
(dp1033
g34
(lp1034
(I01
g707
tp1035
asg22
Nsbasg21
I00
sg22
Nsg23
I00
sg24
S'L'
sbsg25
(irule
OffsetSpecification
p1036
(dp1037
g439
I-2
sbsg28
(irule
Guard
p1038
(dp1039
g18
I00
sg19
(lp1040
(irule
FeatureMatrix
p1041
(dp1042
g34
(lp1043
sg22
Nsbasg21
I00
sg22
Nsg23
I00
sg24
S'R'
sbsg45
(irule
FeatureMatrix
p1044
(dp1045
g34
(lp1046
(I01
g927
tp1047
asg22
Nsbsg22
Nsba(irule
Rule
p1048
(dp1049
g15
(irule
Guard
p1050
(dp1051
g18
I00
sg19
(lp1052
(irule
FeatureMatrix
p1053
(dp1054
g34
(lp1055
sg22
Nsba(irule
FeatureMatrix
p1056
(dp1057
g34
(lp1058
(I01
g707
tp1059
asg22
Nsbasg21
I00
sg22
Nsg23
I00
sg24
S'L'
sbsg25
(irule
OffsetSpecification
p1060
(dp1061
g439
I-2
sbsg28
(irule
Guard
p1062
(dp1063
g18
I00
sg19
(lp1064
(irule
FeatureMatrix
p1065
(dp1066
g34
(lp1067
(I00
g747
tp1068
asg22
Nsbasg21
I00
sg22
Nsg23
I00
sg24
S'R'
sbsg45
(irule
FeatureMatrix
p1069
(dp1070
g34
(lp1071
sg22
Nsbsg22
Nsba(irule
Rule
p1072
(dp1073
g15
(irule
Guard
p1074
(dp1075
g18
I00
sg19
(lp1076
(irule
FeatureMatrix
p1077
(dp1078
g34
(lp1079
(I00
g927
tp1080
asg22
Nsba(irule
FeatureMatrix
p1081
(dp1082
g34
(lp1083
(I01
g707
tp1084
asg22
Nsbasg21
I00
sg22
Nsg23
I00
sg24
S'L'
sbsg25
(irule
OffsetSpecification
p1085
(dp1086
g439
I-2
sbsg28
(irule
Guard
p1087
(dp1088
g18
I00
sg19
(lp1089
sg21
I00
sg22
Nsg23
I00
sg24
S'R'
sbsg45
(irule
ConstantPhoneme
p1090
(dp1091
S'p'
Ve
sbsg22
Nsba(irule
Rule
p1092
(dp1093
g15
(irule
Guard
p1094
(dp1095
g18
I00
sg19
(lp1096
(irule
FeatureMatrix
p1097
(dp1098
g34
(lp1099
sg22
Nsba(irule
FeatureMatrix
p1100
(dp1101
g34
(lp1102
(I01
g707
tp1103
asg22
Nsbasg21
I00
sg22
Nsg23
I00
sg24
S'L'
sbsg25
(irule
OffsetSpecification
p1104
(dp1105
g439
I-2
sbsg28
(irule
Guard
p1106
(dp1107
g18
I00
sg19
(lp1108
(irule
FeatureMatrix
p1109
(dp1110
g34
(lp1111
sg22
Nsbasg21
I00
sg22
Nsg23
I00
sg24
S'R'
sbsg45
(irule
FeatureMatrix
p1112
(dp1113
g34
(lp1114
(I00
S'coronal'
p1115
tp1116
asg22
Nsbsg22
Nsba(irule
Rule
p1117
(dp1118
g15
(irule
Guard
p1119
(dp1120
g18
I00
sg19
(lp1121
(irule
FeatureMatrix
p1122
(dp1123
g34
(lp1124
sg22
Nsba(irule
FeatureMatrix
p1125
(dp1126
g34
(lp1127
(I01
g772
tp1128
asg22
Nsbasg21
I00
sg22
Nsg23
I00
sg24
S'L'
sbsg25
(irule
OffsetSpecification
p1129
(dp1130
g439
I-2
sbsg28
(irule
Guard
p1131
(dp1132
g18
I00
sg19
(lp1133
(irule
FeatureMatrix
p1134
(dp1135
g34
(lp1136
sg22
Nsbasg21
I00
sg22
Nsg23
I00
sg24
S'R'
sbsg45
(irule
FeatureMatrix
p1137
(dp1138
g34
(lp1139
(I01
g927
tp1140
asg22
Nsbsg22
Nsba(irule
Rule
p1141
(dp1142
g15
(irule
Guard
p1143
(dp1144
g18
I00
sg19
(lp1145
(irule
FeatureMatrix
p1146
(dp1147
g34
(lp1148
sg22
Nsba(irule
FeatureMatrix
p1149
(dp1150
g34
(lp1151
(I01
g707
tp1152
asg22
Nsbasg21
I00
sg22
Nsg23
I00
sg24
S'L'
sbsg25
(irule
OffsetSpecification
p1153
(dp1154
g439
I-2
sbsg28
(irule
Guard
p1155
(dp1156
g18
I00
sg19
(lp1157
(irule
FeatureMatrix
p1158
(dp1159
g34
(lp1160
sg22
Nsbasg21
I00
sg22
Nsg23
I00
sg24
S'R'
sbsg45
(irule
FeatureMatrix
p1161
(dp1162
g34
(lp1163
(I01
g995
tp1164
asg22
Nsbsg22
Nsba(irule
Rule
p1165
(dp1166
g15
(irule
Guard
p1167
(dp1168
g18
I00
sg19
(lp1169
(irule
FeatureMatrix
p1170
(dp1171
g34
(lp1172
sg22
Nsba(irule
FeatureMatrix
p1173
(dp1174
g34
(lp1175
(I01
g707
tp1176
a(I01
g772
tp1177
asg22
Nsbasg21
I00
sg22
Nsg23
I00
sg24
S'L'
sbsg25
(irule
OffsetSpecification
p1178
(dp1179
g439
I-2
sbsg28
(irule
Guard
p1180
(dp1181
g18
I00
sg19
(lp1182
(irule
FeatureMatrix
p1183
(dp1184
g34
(lp1185
sg22
Nsbasg21
I00
sg22
Nsg23
I00
sg24
S'R'
sbsg45
(irule
FeatureMatrix
p1186
(dp1187
g34
(lp1188
sg22
Nsbsg22
Nsba(irule
Rule
p1189
(dp1190
g15
(irule
Guard
p1191
(dp1192
g18
I00
sg19
(lp1193
(irule
FeatureMatrix
p1194
(dp1195
g34
(lp1196
sg22
Nsba(irule
FeatureMatrix
p1197
(dp1198
g34
(lp1199
(I00
g727
tp1200
asg22
Nsbasg21
I00
sg22
Nsg23
I00
sg24
S'L'
sbsg25
(irule
OffsetSpecification
p1201
(dp1202
g439
I-2
sbsg28
(irule
Guard
p1203
(dp1204
g18
I00
sg19
(lp1205
(irule
FeatureMatrix
p1206
(dp1207
g34
(lp1208
sg22
Nsbasg21
I00
sg22
Nsg23
I00
sg24
S'R'
sbsg45
(irule
ConstantPhoneme
p1209
(dp1210
S'p'
Ve
sbsg22
Nsba(irule
Rule
p1211
(dp1212
g15
(irule
Guard
p1213
(dp1214
g18
I00
sg19
(lp1215
(irule
FeatureMatrix
p1216
(dp1217
g34
(lp1218
sg22
Nsba(irule
FeatureMatrix
p1219
(dp1220
g34
(lp1221
(I00
g727
tp1222
asg22
Nsbasg21
I00
sg22
Nsg23
I00
sg24
S'L'
sbsg25
(irule
OffsetSpecification
p1223
(dp1224
g439
I-2
sbsg28
(irule
Guard
p1225
(dp1226
g18
I00
sg19
(lp1227
(irule
FeatureMatrix
p1228
(dp1229
g34
(lp1230
sg22
Nsbasg21
I00
sg22
Nsg23
I00
sg24
S'R'
sbsg45
(irule
FeatureMatrix
p1231
(dp1232
g34
(lp1233
(I01
g927
tp1234
asg22
Nsbsg22
Nsba(irule
Rule
p1235
(dp1236
g15
(irule
Guard
p1237
(dp1238
g18
I00
sg19
(lp1239
(irule
FeatureMatrix
p1240
(dp1241
g34
(lp1242
sg22
Nsba(irule
FeatureMatrix
p1243
(dp1244
g34
(lp1245
(I00
S'liquid'
p1246
tp1247
a(I01
g707
tp1248
asg22
Nsbasg21
I00
sg22
Nsg23
I00
sg24
S'L'
sbsg25
(irule
OffsetSpecification
p1249
(dp1250
g439
I-2
sbsg28
(irule
Guard
p1251
(dp1252
g18
I00
sg19
(lp1253
sg21
I00
sg22
Nsg23
I00
sg24
S'R'
sbsg45
(irule
ConstantPhoneme
p1254
(dp1255
S'p'
Ve
sbsg22
Nsba(irule
Rule
p1256
(dp1257
g15
(irule
Guard
p1258
(dp1259
g18
I00
sg19
(lp1260
(irule
FeatureMatrix
p1261
(dp1262
g34
(lp1263
sg22
Nsba(irule
FeatureMatrix
p1264
(dp1265
g34
(lp1266
(I00
g727
tp1267
asg22
Nsbasg21
I00
sg22
Nsg23
I00
sg24
S'L'
sbsg25
(irule
OffsetSpecification
p1268
(dp1269
g439
I-2
sbsg28
(irule
Guard
p1270
(dp1271
g18
I00
sg19
(lp1272
(irule
FeatureMatrix
p1273
(dp1274
g34
(lp1275
(I01
g965
tp1276
asg22
Nsbasg21
I00
sg22
Nsg23
I00
sg24
S'R'
sbsg45
(irule
FeatureMatrix
p1277
(dp1278
g34
(lp1279
sg22
Nsbsg22
Nsba(irule
Rule
p1280
(dp1281
g15
(irule
Guard
p1282
(dp1283
g18
I00
sg19
(lp1284
(irule
FeatureMatrix
p1285
(dp1286
g34
(lp1287
sg22
Nsba(irule
FeatureMatrix
p1288
(dp1289
g34
(lp1290
(I00
g727
tp1291
asg22
Nsbasg21
I00
sg22
Nsg23
I00
sg24
S'L'
sbsg25
(irule
OffsetSpecification
p1292
(dp1293
g439
I-2
sbsg28
(irule
Guard
p1294
(dp1295
g18
I00
sg19
(lp1296
(irule
FeatureMatrix
p1297
(dp1298
g34
(lp1299
sg22
Nsbasg21
I00
sg22
Nsg23
I00
sg24
S'R'
sbsg45
(irule
FeatureMatrix
p1300
(dp1301
g34
(lp1302
(I01
g995
tp1303
asg22
Nsbsg22
Nsba(irule
Rule
p1304
(dp1305
g15
(irule
Guard
p1306
(dp1307
g18
I00
sg19
(lp1308
(irule
FeatureMatrix
p1309
(dp1310
g34
(lp1311
(I00
S'high'
p1312
tp1313
asg22
Nsba(irule
FeatureMatrix
p1314
(dp1315
g34
(lp1316
(I01
g707
tp1317
asg22
Nsbasg21
I00
sg22
Nsg23
I00
sg24
S'L'
sbsg25
(irule
OffsetSpecification
p1318
(dp1319
g439
I-2
sbsg28
(irule
Guard
p1320
(dp1321
g18
I00
sg19
(lp1322
sg21
I00
sg22
Nsg23
I00
sg24
S'R'
sbsg45
(irule
ConstantPhoneme
p1323
(dp1324
S'p'
Ve
sbsg22
Nsba(irule
Rule
p1325
(dp1326
g15
(irule
Guard
p1327
(dp1328
g18
I00
sg19
(lp1329
(irule
FeatureMatrix
p1330
(dp1331
g34
(lp1332
sg22
Nsba(irule
FeatureMatrix
p1333
(dp1334
g34
(lp1335
(I01
g707
tp1336
a(I00
g1312
tp1337
asg22
Nsbasg21
I00
sg22
Nsg23
I00
sg24
S'L'
sbsg25
(irule
OffsetSpecification
p1338
(dp1339
g439
I-2
sbsg28
(irule
Guard
p1340
(dp1341
g18
I00
sg19
(lp1342
(irule
FeatureMatrix
p1343
(dp1344
g34
(lp1345
sg22
Nsbasg21
I00
sg22
Nsg23
I00
sg24
S'R'
sbsg45
(irule
FeatureMatrix
p1346
(dp1347
g34
(lp1348
sg22
Nsbsg22
Nsba(irule
Rule
p1349
(dp1350
g15
(irule
Guard
p1351
(dp1352
g18
I00
sg19
(lp1353
(irule
FeatureMatrix
p1354
(dp1355
g34
(lp1356
sg22
Nsba(irule
FeatureMatrix
p1357
(dp1358
g34
(lp1359
(I01
g707
tp1360
a(I01
g927
tp1361
asg22
Nsbasg21
I00
sg22
Nsg23
I00
sg24
S'L'
sbsg25
(irule
OffsetSpecification
p1362
(dp1363
g439
I-2
sbsg28
(irule
Guard
p1364
(dp1365
g18
I00
sg19
(lp1366
sg21
I00
sg22
Nsg23
I00
sg24
S'R'
sbsg45
(irule
ConstantPhoneme
p1367
(dp1368
S'p'
Ve
sbsg22
Nsba(irule
Rule
p1369
(dp1370
g15
(irule
Guard
p1371
(dp1372
g18
I00
sg19
(lp1373
(irule
FeatureMatrix
p1374
(dp1375
g34
(lp1376
(I00
g727
tp1377
asg22
Nsba(irule
FeatureMatrix
p1378
(dp1379
g34
(lp1380
(I01
g707
tp1381
asg22
Nsbasg21
I00
sg22
Nsg23
I00
sg24
S'L'
sbsg25
(irule
OffsetSpecification
p1382
(dp1383
g439
I-2
sbsg28
(irule
Guard
p1384
(dp1385
g18
I00
sg19
(lp1386
sg21
I00
sg22
Nsg23
I00
sg24
S'R'
sbsg45
(irule
ConstantPhoneme
p1387
(dp1388
S'p'
Ve
sbsg22
Nsba(irule
Rule
p1389
(dp1390
g15
(irule
Guard
p1391
(dp1392
g18
I00
sg19
(lp1393
(irule
FeatureMatrix
p1394
(dp1395
g34
(lp1396
sg22
Nsba(irule
FeatureMatrix
p1397
(dp1398
g34
(lp1399
(I01
g772
tp1400
asg22
Nsbasg21
I00
sg22
Nsg23
I00
sg24
S'L'
sbsg25
(irule
OffsetSpecification
p1401
(dp1402
g439
I-2
sbsg28
(irule
Guard
p1403
(dp1404
g18
I00
sg19
(lp1405
(irule
FeatureMatrix
p1406
(dp1407
g34
(lp1408
(I01
g965
tp1409
asg22
Nsbasg21
I00
sg22
Nsg23
I00
sg24
S'R'
sbsg45
(irule
FeatureMatrix
p1410
(dp1411
g34
(lp1412
sg22
Nsbsg22
Nsba(irule
Rule
p1413
(dp1414
g15
(irule
Guard
p1415
(dp1416
g18
I00
sg19
(lp1417
(irule
FeatureMatrix
p1418
(dp1419
g34
(lp1420
sg22
Nsba(irule
FeatureMatrix
p1421
(dp1422
g34
(lp1423
(I00
g727
tp1424
asg22
Nsbasg21
I00
sg22
Nsg23
I00
sg24
S'L'
sbsg25
(irule
OffsetSpecification
p1425
(dp1426
g439
I-2
sbsg28
(irule
Guard
p1427
(dp1428
g18
I00
sg19
(lp1429
(irule
FeatureMatrix
p1430
(dp1431
g34
(lp1432
(I00
g927
tp1433
asg22
Nsbasg21
I00
sg22
Nsg23
I00
sg24
S'R'
sbsg45
(irule
FeatureMatrix
p1434
(dp1435
g34
(lp1436
sg22
Nsbsg22
Nsba(irule
Rule
p1437
(dp1438
g15
(irule
Guard
p1439
(dp1440
g18
I00
sg19
(lp1441
(irule
FeatureMatrix
p1442
(dp1443
g34
(lp1444
(I00
g927
tp1445
asg22
Nsba(irule
FeatureMatrix
p1446
(dp1447
g34
(lp1448
(I01
g707
tp1449
asg22
Nsbasg21
I00
sg22
Nsg23
I00
sg24
S'L'
sbsg25
(irule
OffsetSpecification
p1450
(dp1451
g439
I-2
sbsg28
(irule
Guard
p1452
(dp1453
g18
I00
sg19
(lp1454
(irule
FeatureMatrix
p1455
(dp1456
g34
(lp1457
sg22
Nsbasg21
I00
sg22
Nsg23
I00
sg24
S'R'
sbsg45
(irule
FeatureMatrix
p1458
(dp1459
g34
(lp1460
sg22
Nsbsg22
Nsba(irule
Rule
p1461
(dp1462
g15
(irule
Guard
p1463
(dp1464
g18
I00
sg19
(lp1465
(irule
FeatureMatrix
p1466
(dp1467
g34
(lp1468
sg22
Nsba(irule
FeatureMatrix
p1469
(dp1470
g34
(lp1471
(I01
g772
tp1472
asg22
Nsbasg21
I00
sg22
Nsg23
I00
sg24
S'L'
sbsg25
(irule
OffsetSpecification
p1473
(dp1474
g439
I-2
sbsg28
(irule
Guard
p1475
(dp1476
g18
I00
sg19
(lp1477
(irule
FeatureMatrix
p1478
(dp1479
g34
(lp1480
(I00
g927
tp1481
asg22
Nsbasg21
I00
sg22
Nsg23
I00
sg24
S'R'
sbsg45
(irule
FeatureMatrix
p1482
(dp1483
g34
(lp1484
sg22
Nsbsg22
Nsba(irule
Rule
p1485
(dp1486
g15
(irule
Guard
p1487
(dp1488
g18
I00
sg19
(lp1489
(irule
FeatureMatrix
p1490
(dp1491
g34
(lp1492
sg22
Nsba(irule
FeatureMatrix
p1493
(dp1494
g34
(lp1495
(I01
g772
tp1496
asg22
Nsbasg21
I00
sg22
Nsg23
I00
sg24
S'L'
sbsg25
(irule
OffsetSpecification
p1497
(dp1498
g439
I-2
sbsg28
(irule
Guard
p1499
(dp1500
g18
I00
sg19
(lp1501
(irule
FeatureMatrix
p1502
(dp1503
g34
(lp1504
sg22
Nsbasg21
I00
sg22
Nsg23
I00
sg24
S'R'
sbsg45
(irule
FeatureMatrix
p1505
(dp1506
g34
(lp1507
(I01
g995
tp1508
asg22
Nsbsg22
Nsba(irule
Rule
p1509
(dp1510
g15
(irule
Guard
p1511
(dp1512
g18
I00
sg19
(lp1513
(irule
FeatureMatrix
p1514
(dp1515
g34
(lp1516
sg22
Nsba(irule
FeatureMatrix
p1517
(dp1518
g34
(lp1519
(I00
g727
tp1520
a(I00
S'sibilant'
p1521
tp1522
asg22
Nsbasg21
I00
sg22
Nsg23
I00
sg24
S'L'
sbsg25
(irule
OffsetSpecification
p1523
(dp1524
g439
I-2
sbsg28
(irule
Guard
p1525
(dp1526
g18
I00
sg19
(lp1527
sg21
I00
sg22
Nsg23
I00
sg24
S'R'
sbsg45
(irule
ConstantPhoneme
p1528
(dp1529
S'p'
Ve
sbsg22
Nsba(irule
Rule
p1530
(dp1531
g15
(irule
Guard
p1532
(dp1533
g18
I00
sg19
(lp1534
(irule
FeatureMatrix
p1535
(dp1536
g34
(lp1537
sg22
Nsba(irule
FeatureMatrix
p1538
(dp1539
g34
(lp1540
(I01
g707
tp1541
a(I00
g1521
tp1542
asg22
Nsbasg21
I00
sg22
Nsg23
I00
sg24
S'L'
sbsg25
(irule
OffsetSpecification
p1543
(dp1544
g439
I-2
sbsg28
(irule
Guard
p1545
(dp1546
g18
I00
sg19
(lp1547
sg21
I00
sg22
Nsg23
I00
sg24
S'R'
sbsg45
(irule
ConstantPhoneme
p1548
(dp1549
S'p'
Ve
sbsg22
Nsba(irule
Rule
p1550
(dp1551
g15
(irule
Guard
p1552
(dp1553
g18
I00
sg19
(lp1554
(irule
FeatureMatrix
p1555
(dp1556
g34
(lp1557
sg22
Nsba(irule
FeatureMatrix
p1558
(dp1559
g34
(lp1560
(I01
g707
tp1561
a(I00
g727
tp1562
asg22
Nsbasg21
I00
sg22
Nsg23
I00
sg24
S'L'
sbsg25
(irule
OffsetSpecification
p1563
(dp1564
g439
I-2
sbsg28
(irule
Guard
p1565
(dp1566
g18
I00
sg19
(lp1567
sg21
I00
sg22
Nsg23
I00
sg24
S'R'
sbsg45
(irule
ConstantPhoneme
p1568
(dp1569
S'p'
Ve
sbsg22
Nsba(irule
Rule
p1570
(dp1571
g15
(irule
Guard
p1572
(dp1573
g18
I00
sg19
(lp1574
(irule
FeatureMatrix
p1575
(dp1576
g34
(lp1577
sg22
Nsba(irule
FeatureMatrix
p1578
(dp1579
g34
(lp1580
(I01
g707
tp1581
a(I00
g1115
tp1582
asg22
Nsbasg21
I00
sg22
Nsg23
I00
sg24
S'L'
sbsg25
(irule
OffsetSpecification
p1583
(dp1584
g439
I-2
sbsg28
(irule
Guard
p1585
(dp1586
g18
I00
sg19
(lp1587
sg21
I00
sg22
Nsg23
I00
sg24
S'R'
sbsg45
(irule
ConstantPhoneme
p1588
(dp1589
S'p'
Ve
sbsg22
Nsba(irule
Rule
p1590
(dp1591
g15
(irule
Guard
p1592
(dp1593
g18
I00
sg19
(lp1594
(irule
FeatureMatrix
p1595
(dp1596
g34
(lp1597
sg22
Nsba(irule
FeatureMatrix
p1598
(dp1599
g34
(lp1600
(I00
g727
tp1601
asg22
Nsbasg21
I00
sg22
Nsg23
I00
sg24
S'L'
sbsg25
(irule
OffsetSpecification
p1602
(dp1603
g439
I-2
sbsg28
(irule
Guard
p1604
(dp1605
g18
I00
sg19
(lp1606
(irule
FeatureMatrix
p1607
(dp1608
g34
(lp1609
(I00
g747
tp1610
asg22
Nsbasg21
I00
sg22
Nsg23
I00
sg24
S'R'
sbsg45
(irule
FeatureMatrix
p1611
(dp1612
g34
(lp1613
sg22
Nsbsg22
Nsba(irule
Rule
p1614
(dp1615
g15
(irule
Guard
p1616
(dp1617
g18
I00
sg19
(lp1618
(irule
FeatureMatrix
p1619
(dp1620
g34
(lp1621
(I00
g1312
tp1622
asg22
Nsba(irule
FeatureMatrix
p1623
(dp1624
g34
(lp1625
(I00
g727
tp1626
asg22
Nsbasg21
I00
sg22
Nsg23
I00
sg24
S'L'
sbsg25
(irule
OffsetSpecification
p1627
(dp1628
g439
I-2
sbsg28
(irule
Guard
p1629
(dp1630
g18
I00
sg19
(lp1631
sg21
I00
sg22
Nsg23
I00
sg24
S'R'
sbsg45
(irule
ConstantPhoneme
p1632
(dp1633
S'p'
Ve
sbsg22
Nsba(irule
Rule
p1634
(dp1635
g15
(irule
Guard
p1636
(dp1637
g18
I00
sg19
(lp1638
(irule
FeatureMatrix
p1639
(dp1640
g34
(lp1641
sg22
Nsba(irule
FeatureMatrix
p1642
(dp1643
g34
(lp1644
(I01
g707
tp1645
a(I01
S'voice'
p1646
tp1647
asg22
Nsbasg21
I00
sg22
Nsg23
I00
sg24
S'L'
sbsg25
(irule
OffsetSpecification
p1648
(dp1649
g439
I-2
sbsg28
(irule
Guard
p1650
(dp1651
g18
I00
sg19
(lp1652
sg21
I00
sg22
Nsg23
I00
sg24
S'R'
sbsg45
(irule
ConstantPhoneme
p1653
(dp1654
S'p'
Ve
sbsg22
Nsba(irule
Rule
p1655
(dp1656
g15
(irule
Guard
p1657
(dp1658
g18
I00
sg19
(lp1659
(irule
FeatureMatrix
p1660
(dp1661
g34
(lp1662
sg22
Nsba(irule
FeatureMatrix
p1663
(dp1664
g34
(lp1665
(I00
g727
tp1666
asg22
Nsbasg21
I00
sg22
Nsg23
I00
sg24
S'L'
sbsg25
(irule
OffsetSpecification
p1667
(dp1668
g439
I-2
sbsg28
(irule
Guard
p1669
(dp1670
g18
I00
sg19
(lp1671
(irule
FeatureMatrix
p1672
(dp1673
g34
(lp1674
(I00
g995
tp1675
asg22
Nsbasg21
I00
sg22
Nsg23
I00
sg24
S'R'
sbsg45
(irule
FeatureMatrix
p1676
(dp1677
g34
(lp1678
sg22
Nsbsg22
Nsba(irule
Rule
p1679
(dp1680
g15
(irule
Guard
p1681
(dp1682
g18
I00
sg19
(lp1683
(irule
FeatureMatrix
p1684
(dp1685
g34
(lp1686
sg22
Nsba(irule
FeatureMatrix
p1687
(dp1688
g34
(lp1689
(I01
g707
tp1690
a(I01
g995
tp1691
asg22
Nsbasg21
I00
sg22
Nsg23
I00
sg24
S'L'
sbsg25
(irule
OffsetSpecification
p1692
(dp1693
g439
I-2
sbsg28
(irule
Guard
p1694
(dp1695
g18
I00
sg19
(lp1696
sg21
I00
sg22
Nsg23
I00
sg24
S'R'
sbsg45
(irule
ConstantPhoneme
p1697
(dp1698
S'p'
Ve
sbsg22
Nsba(irule
Rule
p1699
(dp1700
g15
(irule
Guard
p1701
(dp1702
g18
I00
sg19
(lp1703
(irule
FeatureMatrix
p1704
(dp1705
g34
(lp1706
sg22
Nsba(irule
FeatureMatrix
p1707
(dp1708
g34
(lp1709
(I01
g707
tp1710
a(I01
S'sonorant'
p1711
tp1712
asg22
Nsbasg21
I00
sg22
Nsg23
I00
sg24
S'L'
sbsg25
(irule
OffsetSpecification
p1713
(dp1714
g439
I-2
sbsg28
(irule
Guard
p1715
(dp1716
g18
I00
sg19
(lp1717
(irule
FeatureMatrix
p1718
(dp1719
g34
(lp1720
sg22
Nsbasg21
I00
sg22
Nsg23
I00
sg24
S'R'
sbsg45
(irule
FeatureMatrix
p1721
(dp1722
g34
(lp1723
sg22
Nsbsg22
Nsba(irule
Rule
p1724
(dp1725
g15
(irule
Guard
p1726
(dp1727
g18
I00
sg19
(lp1728
(irule
FeatureMatrix
p1729
(dp1730
g34
(lp1731
(I00
g995
tp1732
asg22
Nsba(irule
FeatureMatrix
p1733
(dp1734
g34
(lp1735
(I01
g707
tp1736
asg22
Nsbasg21
I00
sg22
Nsg23
I00
sg24
S'L'
sbsg25
(irule
OffsetSpecification
p1737
(dp1738
g439
I-2
sbsg28
(irule
Guard
p1739
(dp1740
g18
I00
sg19
(lp1741
(irule
FeatureMatrix
p1742
(dp1743
g34
(lp1744
sg22
Nsbasg21
I00
sg22
Nsg23
I00
sg24
S'R'
sbsg45
(irule
FeatureMatrix
p1745
(dp1746
g34
(lp1747
sg22
Nsbsg22
Nsba(irule
Rule
p1748
(dp1749
g15
(irule
Guard
p1750
(dp1751
g18
I00
sg19
(lp1752
(irule
FeatureMatrix
p1753
(dp1754
g34
(lp1755
sg22
Nsba(irule
FeatureMatrix
p1756
(dp1757
g34
(lp1758
(I01
g707
tp1759
a(I00
g1312
tp1760
asg22
Nsbasg21
I00
sg22
Nsg23
I00
sg24
S'L'
sbsg25
(irule
OffsetSpecification
p1761
(dp1762
g439
I-2
sbsg28
(irule
Guard
p1763
(dp1764
g18
I00
sg19
(lp1765
sg21
I00
sg22
Nsg23
I00
sg24
S'R'
sbsg45
(irule
ConstantPhoneme
p1766
(dp1767
S'p'
Ve
sbsg22
Nsba(irule
Rule
p1768
(dp1769
g15
(irule
Guard
p1770
(dp1771
g18
I00
sg19
(lp1772
(irule
FeatureMatrix
p1773
(dp1774
g34
(lp1775
sg22
Nsba(irule
FeatureMatrix
p1776
(dp1777
g34
(lp1778
(I00
g856
tp1779
a(I00
g727
tp1780
asg22
Nsbasg21
I00
sg22
Nsg23
I00
sg24
S'L'
sbsg25
(irule
OffsetSpecification
p1781
(dp1782
g439
I-2
sbsg28
(irule
Guard
p1783
(dp1784
g18
I00
sg19
(lp1785
sg21
I00
sg22
Nsg23
I00
sg24
S'R'
sbsg45
(irule
ConstantPhoneme
p1786
(dp1787
S'p'
Ve
sbsg22
Nsba(irule
Rule
p1788
(dp1789
g15
(irule
Guard
p1790
(dp1791
g18
I00
sg19
(lp1792
(irule
FeatureMatrix
p1793
(dp1794
g34
(lp1795
sg22
Nsba(irule
FeatureMatrix
p1796
(dp1797
g34
(lp1798
(I00
g727
tp1799
a(I01
g927
tp1800
asg22
Nsbasg21
I00
sg22
Nsg23
I00
sg24
S'L'
sbsg25
(irule
OffsetSpecification
p1801
(dp1802
g439
I-2
sbsg28
(irule
Guard
p1803
(dp1804
g18
I00
sg19
(lp1805
sg21
I00
sg22
Nsg23
I00
sg24
S'R'
sbsg45
(irule
ConstantPhoneme
p1806
(dp1807
S'p'
Ve
sbsg22
Nsba(irule
Rule
p1808
(dp1809
g15
(irule
Guard
p1810
(dp1811
g18
I00
sg19
(lp1812
(irule
FeatureMatrix
p1813
(dp1814
g34
(lp1815
sg22
Nsba(irule
FeatureMatrix
p1816
(dp1817
g34
(lp1818
(I01
g772
tp1819
asg22
Nsbasg21
I00
sg22
Nsg23
I00
sg24
S'L'
sbsg25
(irule
OffsetSpecification
p1820
(dp1821
g439
I-2
sbsg28
(irule
Guard
p1822
(dp1823
g18
I00
sg19
(lp1824
(irule
FeatureMatrix
p1825
(dp1826
g34
(lp1827
(I00
g995
tp1828
asg22
Nsbasg21
I00
sg22
Nsg23
I00
sg24
S'R'
sbsg45
(irule
FeatureMatrix
p1829
(dp1830
g34
(lp1831
sg22
Nsbsg22
Nsba(irule
Rule
p1832
(dp1833
g15
(irule
Guard
p1834
(dp1835
g18
I00
sg19
(lp1836
(irule
FeatureMatrix
p1837
(dp1838
g34
(lp1839
sg22
Nsba(irule
FeatureMatrix
p1840
(dp1841
g34
(lp1842
(I01
g772
tp1843
asg22
Nsbasg21
I00
sg22
Nsg23
I00
sg24
S'L'
sbsg25
(irule
OffsetSpecification
p1844
(dp1845
g439
I-2
sbsg28
(irule
Guard
p1846
(dp1847
g18
I00
sg19
(lp1848
(irule
FeatureMatrix
p1849
(dp1850
g34
(lp1851
(I00
g747
tp1852
asg22
Nsbasg21
I00
sg22
Nsg23
I00
sg24
S'R'
sbsg45
(irule
FeatureMatrix
p1853
(dp1854
g34
(lp1855
sg22
Nsbsg22
Nsba(irule
Rule
p1856
(dp1857
g15
(irule
Guard
p1858
(dp1859
g18
I00
sg19
(lp1860
(irule
FeatureMatrix
p1861
(dp1862
g34
(lp1863
(I00
g995
tp1864
asg22
Nsba(irule
FeatureMatrix
p1865
(dp1866
g34
(lp1867
(I01
g707
tp1868
asg22
Nsbasg21
I00
sg22
Nsg23
I00
sg24
S'L'
sbsg25
(irule
OffsetSpecification
p1869
(dp1870
g439
I-2
sbsg28
(irule
Guard
p1871
(dp1872
g18
I00
sg19
(lp1873
sg21
I00
sg22
Nsg23
I00
sg24
S'R'
sbsg45
(irule
ConstantPhoneme
p1874
(dp1875
S'p'
Ve
sbsg22
Nsba(irule
Rule
p1876
(dp1877
g15
(irule
Guard
p1878
(dp1879
g18
I00
sg19
(lp1880
(irule
FeatureMatrix
p1881
(dp1882
g34
(lp1883
sg22
Nsba(irule
FeatureMatrix
p1884
(dp1885
g34
(lp1886
(I01
g707
tp1887
a(I01
g1711
tp1888
asg22
Nsbasg21
I00
sg22
Nsg23
I00
sg24
S'L'
sbsg25
(irule
OffsetSpecification
p1889
(dp1890
g439
I-2
sbsg28
(irule
Guard
p1891
(dp1892
g18
I00
sg19
(lp1893
sg21
I00
sg22
Nsg23
I00
sg24
S'R'
sbsg45
(irule
ConstantPhoneme
p1894
(dp1895
S'p'
Ve
sbsg22
Nsba(irule
Rule
p1896
(dp1897
g15
(irule
Guard
p1898
(dp1899
g18
I00
sg19
(lp1900
(irule
FeatureMatrix
p1901
(dp1902
g34
(lp1903
(I00
g897
tp1904
asg22
Nsba(irule
FeatureMatrix
p1905
(dp1906
g34
(lp1907
(I01
g707
tp1908
asg22
Nsbasg21
I00
sg22
Nsg23
I00
sg24
S'L'
sbsg25
(irule
OffsetSpecification
p1909
(dp1910
g439
I-2
sbsg28
(irule
Guard
p1911
(dp1912
g18
I00
sg19
(lp1913
sg21
I00
sg22
Nsg23
I00
sg24
S'R'
sbsg45
(irule
ConstantPhoneme
p1914
(dp1915
S'p'
Ve
sbsg22
Nsba(irule
Rule
p1916
(dp1917
g15
(irule
Guard
p1918
(dp1919
g18
I00
sg19
(lp1920
(irule
FeatureMatrix
p1921
(dp1922
g34
(lp1923
sg22
Nsba(irule
FeatureMatrix
p1924
(dp1925
g34
(lp1926
(I00
g1115
tp1927
a(I00
g727
tp1928
asg22
Nsbasg21
I00
sg22
Nsg23
I00
sg24
S'L'
sbsg25
(irule
OffsetSpecification
p1929
(dp1930
g439
I-2
sbsg28
(irule
Guard
p1931
(dp1932
g18
I00
sg19
(lp1933
sg21
I00
sg22
Nsg23
I00
sg24
S'R'
sbsg45
(irule
ConstantPhoneme
p1934
(dp1935
S'p'
Ve
sbsg22
Nsba(irule
Rule
p1936
(dp1937
g15
(irule
Guard
p1938
(dp1939
g18
I00
sg19
(lp1940
(irule
FeatureMatrix
p1941
(dp1942
g34
(lp1943
sg22
Nsba(irule
FeatureMatrix
p1944
(dp1945
g34
(lp1946
(I00
g815
tp1947
a(I01
g772
tp1948
asg22
Nsbasg21
I00
sg22
Nsg23
I00
sg24
S'L'
sbsg25
(irule
OffsetSpecification
p1949
(dp1950
g439
I-2
sbsg28
(irule
Guard
p1951
(dp1952
g18
I00
sg19
(lp1953
sg21
I00
sg22
Nsg23
I00
sg24
S'R'
sbsg45
(irule
ConstantPhoneme
p1954
(dp1955
S'p'
Ve
sbsg22
Nsba(irule
Rule
p1956
(dp1957
g15
(irule
Guard
p1958
(dp1959
g18
I00
sg19
(lp1960
(irule
FeatureMatrix
p1961
(dp1962
g34
(lp1963
sg22
Nsba(irule
FeatureMatrix
p1964
(dp1965
g34
(lp1966
(I00
g856
tp1967
a(I01
g772
tp1968
asg22
Nsbasg21
I00
sg22
Nsg23
I00
sg24
S'L'
sbsg25
(irule
OffsetSpecification
p1969
(dp1970
g439
I-2
sbsg28
(irule
Guard
p1971
(dp1972
g18
I00
sg19
(lp1973
sg21
I00
sg22
Nsg23
I00
sg24
S'R'
sbsg45
(irule
ConstantPhoneme
p1974
(dp1975
S'p'
Ve
sbsg22
Nsba(irule
Rule
p1976
(dp1977
g15
(irule
Guard
p1978
(dp1979
g18
I00
sg19
(lp1980
(irule
FeatureMatrix
p1981
(dp1982
g34
(lp1983
sg22
Nsba(irule
FeatureMatrix
p1984
(dp1985
g34
(lp1986
(I01
g707
tp1987
a(I01
g927
tp1988
asg22
Nsbasg21
I00
sg22
Nsg23
I00
sg24
S'L'
sbsg25
(irule
OffsetSpecification
p1989
(dp1990
g439
I-2
sbsg28
(irule
Guard
p1991
(dp1992
g18
I00
sg19
(lp1993
(irule
FeatureMatrix
p1994
(dp1995
g34
(lp1996
sg22
Nsbasg21
I00
sg22
Nsg23
I00
sg24
S'R'
sbsg45
(irule
FeatureMatrix
p1997
(dp1998
g34
(lp1999
sg22
Nsbsg22
Nsba(irule
Rule
p2000
(dp2001
g15
(irule
Guard
p2002
(dp2003
g18
I00
sg19
(lp2004
(irule
FeatureMatrix
p2005
(dp2006
g34
(lp2007
(I00
g995
tp2008
asg22
Nsba(irule
FeatureMatrix
p2009
(dp2010
g34
(lp2011
(I00
g727
tp2012
asg22
Nsbasg21
I00
sg22
Nsg23
I00
sg24
S'L'
sbsg25
(irule
OffsetSpecification
p2013
(dp2014
g439
I-2
sbsg28
(irule
Guard
p2015
(dp2016
g18
I00
sg19
(lp2017
(irule
FeatureMatrix
p2018
(dp2019
g34
(lp2020
sg22
Nsbasg21
I00
sg22
Nsg23
I00
sg24
S'R'
sbsg45
(irule
FeatureMatrix
p2021
(dp2022
g34
(lp2023
sg22
Nsbsg22
Nsba(irule
Rule
p2024
(dp2025
g15
(irule
Guard
p2026
(dp2027
g18
I00
sg19
(lp2028
(irule
FeatureMatrix
p2029
(dp2030
g34
(lp2031
sg22
Nsba(irule
FeatureMatrix
p2032
(dp2033
g34
(lp2034
(I01
g707
tp2035
a(I01
g995
tp2036
asg22
Nsbasg21
I00
sg22
Nsg23
I00
sg24
S'L'
sbsg25
(irule
OffsetSpecification
p2037
(dp2038
g439
I-2
sbsg28
(irule
Guard
p2039
(dp2040
g18
I00
sg19
(lp2041
(irule
FeatureMatrix
p2042
(dp2043
g34
(lp2044
sg22
Nsbasg21
I00
sg22
Nsg23
I00
sg24
S'R'
sbsg45
(irule
FeatureMatrix
p2045
(dp2046
g34
(lp2047
sg22
Nsbsg22
Nsba(irule
Rule
p2048
(dp2049
g15
(irule
Guard
p2050
(dp2051
g18
I00
sg19
(lp2052
(irule
FeatureMatrix
p2053
(dp2054
g34
(lp2055
sg22
Nsba(irule
FeatureMatrix
p2056
(dp2057
g34
(lp2058
(I01
g1646
tp2059
a(I01
g772
tp2060
asg22
Nsbasg21
I00
sg22
Nsg23
I00
sg24
S'L'
sbsg25
(irule
OffsetSpecification
p2061
(dp2062
g439
I-2
sbsg28
(irule
Guard
p2063
(dp2064
g18
I00
sg19
(lp2065
(irule
FeatureMatrix
p2066
(dp2067
g34
(lp2068
sg22
Nsbasg21
I00
sg22
Nsg23
I00
sg24
S'R'
sbsg45
(irule
FeatureMatrix
p2069
(dp2070
g34
(lp2071
sg22
Nsbsg22
Nsba(irule
Rule
p2072
(dp2073
g15
(irule
Guard
p2074
(dp2075
g18
I00
sg19
(lp2076
(irule
FeatureMatrix
p2077
(dp2078
g34
(lp2079
(I00
g927
tp2080
asg22
Nsba(irule
FeatureMatrix
p2081
(dp2082
g34
(lp2083
(I00
g727
tp2084
asg22
Nsbasg21
I00
sg22
Nsg23
I00
sg24
S'L'
sbsg25
(irule
OffsetSpecification
p2085
(dp2086
g439
I-2
sbsg28
(irule
Guard
p2087
(dp2088
g18
I00
sg19
(lp2089
(irule
FeatureMatrix
p2090
(dp2091
g34
(lp2092
sg22
Nsbasg21
I00
sg22
Nsg23
I00
sg24
S'R'
sbsg45
(irule
FeatureMatrix
p2093
(dp2094
g34
(lp2095
sg22
Nsbsg22
Nsba(irule
Rule
p2096
(dp2097
g15
(irule
Guard
p2098
(dp2099
g18
I00
sg19
(lp2100
(irule
FeatureMatrix
p2101
(dp2102
g34
(lp2103
(I00
g772
tp2104
asg22
Nsba(irule
FeatureMatrix
p2105
(dp2106
g34
(lp2107
(I01
g772
tp2108
asg22
Nsbasg21
I00
sg22
Nsg23
I00
sg24
S'L'
sbsg25
(irule
OffsetSpecification
p2109
(dp2110
g439
I-2
sbsg28
(irule
Guard
p2111
(dp2112
g18
I00
sg19
(lp2113
(irule
FeatureMatrix
p2114
(dp2115
g34
(lp2116
sg22
Nsbasg21
I00
sg22
Nsg23
I00
sg24
S'R'
sbsg45
(irule
FeatureMatrix
p2117
(dp2118
g34
(lp2119
sg22
Nsbsg22
Nsba(irule
Rule
p2120
(dp2121
g15
(irule
Guard
p2122
(dp2123
g18
I00
sg19
(lp2124
(irule
FeatureMatrix
p2125
(dp2126
g34
(lp2127
sg22
Nsba(irule
FeatureMatrix
p2128
(dp2129
g34
(lp2130
(I01
g995
tp2131
a(I00
g727
tp2132
asg22
Nsbasg21
I00
sg22
Nsg23
I00
sg24
S'L'
sbsg25
(irule
OffsetSpecification
p2133
(dp2134
g439
I-2
sbsg28
(irule
Guard
p2135
(dp2136
g18
I00
sg19
(lp2137
(irule
FeatureMatrix
p2138
(dp2139
g34
(lp2140
sg22
Nsbasg21
I00
sg22
Nsg23
I00
sg24
S'R'
sbsg45
(irule
FeatureMatrix
p2141
(dp2142
g34
(lp2143
sg22
Nsbsg22
Nsba(irule
Rule
p2144
(dp2145
g15
(irule
Guard
p2146
(dp2147
g18
I00
sg19
(lp2148
(irule
FeatureMatrix
p2149
(dp2150
g34
(lp2151
sg22
Nsba(irule
FeatureMatrix
p2152
(dp2153
g34
(lp2154
(I01
g995
tp2155
a(I01
g772
tp2156
asg22
Nsbasg21
I00
sg22
Nsg23
I00
sg24
S'L'
sbsg25
(irule
OffsetSpecification
p2157
(dp2158
g439
I-2
sbsg28
(irule
Guard
p2159
(dp2160
g18
I00
sg19
(lp2161
(irule
FeatureMatrix
p2162
(dp2163
g34
(lp2164
sg22
Nsbasg21
I00
sg22
Nsg23
I00
sg24
S'R'
sbsg45
(irule
FeatureMatrix
p2165
(dp2166
g34
(lp2167
sg22
Nsbsg22
Nsba(irule
Rule
p2168
(dp2169
g15
(irule
Guard
p2170
(dp2171
g18
I00
sg19
(lp2172
(irule
FeatureMatrix
p2173
(dp2174
g34
(lp2175
sg22
Nsba(irule
FeatureMatrix
p2176
(dp2177
g34
(lp2178
(I00
g727
tp2179
a(I01
g927
tp2180
asg22
Nsbasg21
I00
sg22
Nsg23
I00
sg24
S'L'
sbsg25
(irule
OffsetSpecification
p2181
(dp2182
g439
I-2
sbsg28
(irule
Guard
p2183
(dp2184
g18
I00
sg19
(lp2185
(irule
FeatureMatrix
p2186
(dp2187
g34
(lp2188
sg22
Nsbasg21
I00
sg22
Nsg23
I00
sg24
S'R'
sbsg45
(irule
FeatureMatrix
p2189
(dp2190
g34
(lp2191
sg22
Nsbsg22
Nsba(irule
Rule
p2192
(dp2193
g15
(irule
Guard
p2194
(dp2195
g18
I00
sg19
(lp2196
(irule
FeatureMatrix
p2197
(dp2198
g34
(lp2199
(I00
g707
tp2200
asg22
Nsba(irule
FeatureMatrix
p2201
(dp2202
g34
(lp2203
(I01
g772
tp2204
asg22
Nsbasg21
I00
sg22
Nsg23
I00
sg24
S'L'
sbsg25
(irule
OffsetSpecification
p2205
(dp2206
g439
I-2
sbsg28
(irule
Guard
p2207
(dp2208
g18
I00
sg19
(lp2209
(irule
FeatureMatrix
p2210
(dp2211
g34
(lp2212
sg22
Nsbasg21
I00
sg22
Nsg23
I00
sg24
S'R'
sbsg45
(irule
FeatureMatrix
p2213
(dp2214
g34
(lp2215
sg22
Nsbsg22
Nsba(irule
Rule
p2216
(dp2217
g15
(irule
Guard
p2218
(dp2219
g18
I00
sg19
(lp2220
(irule
FeatureMatrix
p2221
(dp2222
g34
(lp2223
sg22
Nsba(irule
FeatureMatrix
p2224
(dp2225
g34
(lp2226
(I00
g965
tp2227
a(I01
g772
tp2228
asg22
Nsbasg21
I00
sg22
Nsg23
I00
sg24
S'L'
sbsg25
(irule
OffsetSpecification
p2229
(dp2230
g439
I-2
sbsg28
(irule
Guard
p2231
(dp2232
g18
I00
sg19
(lp2233
sg21
I00
sg22
Nsg23
I00
sg24
S'R'
sbsg45
(irule
ConstantPhoneme
p2234
(dp2235
S'p'
Ve
sbsg22
Nsba(irule
Rule
p2236
(dp2237
g15
(irule
Guard
p2238
(dp2239
g18
I00
sg19
(lp2240
(irule
FeatureMatrix
p2241
(dp2242
g34
(lp2243
(I00
S'rounded'
p2244
tp2245
asg22
Nsba(irule
FeatureMatrix
p2246
(dp2247
g34
(lp2248
(I01
g707
tp2249
asg22
Nsbasg21
I00
sg22
Nsg23
I00
sg24
S'L'
sbsg25
(irule
OffsetSpecification
p2250
(dp2251
g439
I-2
sbsg28
(irule
Guard
p2252
(dp2253
g18
I00
sg19
(lp2254
sg21
I00
sg22
Nsg23
I00
sg24
S'R'
sbsg45
(irule
ConstantPhoneme
p2255
(dp2256
S'p'
Ve
sbsg22
Nsba(irule
Rule
p2257
(dp2258
g15
(irule
Guard
p2259
(dp2260
g18
I00
sg19
(lp2261
(irule
FeatureMatrix
p2262
(dp2263
g34
(lp2264
(I00
g727
tp2265
asg22
Nsba(irule
FeatureMatrix
p2266
(dp2267
g34
(lp2268
(I01
g772
tp2269
asg22
Nsbasg21
I00
sg22
Nsg23
I00
sg24
S'L'
sbsg25
(irule
OffsetSpecification
p2270
(dp2271
g439
I-2
sbsg28
(irule
Guard
p2272
(dp2273
g18
I00
sg19
(lp2274
sg21
I00
sg22
Nsg23
I00
sg24
S'R'
sbsg45
(irule
ConstantPhoneme
p2275
(dp2276
S'p'
Ve
sbsg22
Nsba(irule
Rule
p2277
(dp2278
g15
(irule
Guard
p2279
(dp2280
g18
I00
sg19
(lp2281
(irule
FeatureMatrix
p2282
(dp2283
g34
(lp2284
(I00
g707
tp2285
asg22
Nsba(irule
FeatureMatrix
p2286
(dp2287
g34
(lp2288
(I01
g707
tp2289
asg22
Nsbasg21
I00
sg22
Nsg23
I00
sg24
S'L'
sbsg25
(irule
OffsetSpecification
p2290
(dp2291
g439
I-2
sbsg28
(irule
Guard
p2292
(dp2293
g18
I00
sg19
(lp2294
sg21
I00
sg22
Nsg23
I00
sg24
S'R'
sbsg45
(irule
ConstantPhoneme
p2295
(dp2296
S'p'
Ve
sbsg22
Nsba(irule
Rule
p2297
(dp2298
g15
(irule
Guard
p2299
(dp2300
g18
I00
sg19
(lp2301
(irule
FeatureMatrix
p2302
(dp2303
g34
(lp2304
(I00
g927
tp2305
asg22
Nsba(irule
FeatureMatrix
p2306
(dp2307
g34
(lp2308
(I01
g772
tp2309
asg22
Nsbasg21
I00
sg22
Nsg23
I00
sg24
S'L'
sbsg25
(irule
OffsetSpecification
p2310
(dp2311
g439
I-2
sbsg28
(irule
Guard
p2312
(dp2313
g18
I00
sg19
(lp2314
(irule
FeatureMatrix
p2315
(dp2316
g34
(lp2317
sg22
Nsbasg21
I00
sg22
Nsg23
I00
sg24
S'R'
sbsg45
(irule
FeatureMatrix
p2318
(dp2319
g34
(lp2320
sg22
Nsbsg22
Nsba(irule
Rule
p2321
(dp2322
g15
(irule
Guard
p2323
(dp2324
g18
I00
sg19
(lp2325
(irule
FeatureMatrix
p2326
(dp2327
g34
(lp2328
(I00
g897
tp2329
asg22
Nsba(irule
FeatureMatrix
p2330
(dp2331
g34
(lp2332
(I00
g727
tp2333
asg22
Nsbasg21
I00
sg22
Nsg23
I00
sg24
S'L'
sbsg25
(irule
OffsetSpecification
p2334
(dp2335
g439
I-2
sbsg28
(irule
Guard
p2336
(dp2337
g18
I00
sg19
(lp2338
sg21
I00
sg22
Nsg23
I00
sg24
S'R'
sbsg45
(irule
ConstantPhoneme
p2339
(dp2340
S'p'
Ve
sbsg22
Nsba(irule
Rule
p2341
(dp2342
g15
(irule
Guard
p2343
(dp2344
g18
I00
sg19
(lp2345
(irule
FeatureMatrix
p2346
(dp2347
g34
(lp2348
sg22
Nsba(irule
FeatureMatrix
p2349
(dp2350
g34
(lp2351
(I01
g927
tp2352
a(I01
g772
tp2353
asg22
Nsbasg21
I00
sg22
Nsg23
I00
sg24
S'L'
sbsg25
(irule
OffsetSpecification
p2354
(dp2355
g439
I-2
sbsg28
(irule
Guard
p2356
(dp2357
g18
I00
sg19
(lp2358
(irule
FeatureMatrix
p2359
(dp2360
g34
(lp2361
sg22
Nsbasg21
I00
sg22
Nsg23
I00
sg24
S'R'
sbsg45
(irule
FeatureMatrix
p2362
(dp2363
g34
(lp2364
sg22
Nsbsg22
Nsba(irule
Rule
p2365
(dp2366
g15
(irule
Guard
p2367
(dp2368
g18
I00
sg19
(lp2369
(irule
FeatureMatrix
p2370
(dp2371
g34
(lp2372
(I00
g772
tp2373
asg22
Nsba(irule
FeatureMatrix
p2374
(dp2375
g34
(lp2376
(I01
g772
tp2377
asg22
Nsbasg21
I00
sg22
Nsg23
I00
sg24
S'L'
sbsg25
(irule
OffsetSpecification
p2378
(dp2379
g439
I-2
sbsg28
(irule
Guard
p2380
(dp2381
g18
I00
sg19
(lp2382
sg21
I00
sg22
Nsg23
I00
sg24
S'R'
sbsg45
(irule
ConstantPhoneme
p2383
(dp2384
S'p'
Ve
sbsg22
Nsba(irule
Rule
p2385
(dp2386
g15
(irule
Guard
p2387
(dp2388
g18
I00
sg19
(lp2389
(irule
FeatureMatrix
p2390
(dp2391
g34
(lp2392
(I00
g995
tp2393
asg22
Nsba(irule
FeatureMatrix
p2394
(dp2395
g34
(lp2396
(I01
g772
tp2397
asg22
Nsbasg21
I00
sg22
Nsg23
I00
sg24
S'L'
sbsg25
(irule
OffsetSpecification
p2398
(dp2399
g439
I-2
sbsg28
(irule
Guard
p2400
(dp2401
g18
I00
sg19
(lp2402
(irule
FeatureMatrix
p2403
(dp2404
g34
(lp2405
sg22
Nsbasg21
I00
sg22
Nsg23
I00
sg24
S'R'
sbsg45
(irule
FeatureMatrix
p2406
(dp2407
g34
(lp2408
sg22
Nsbsg22
Nsba(irule
Rule
p2409
(dp2410
g15
(irule
Guard
p2411
(dp2412
g18
I00
sg19
(lp2413
(irule
FeatureMatrix
p2414
(dp2415
g34
(lp2416
(I00
g772
tp2417
asg22
Nsba(irule
FeatureMatrix
p2418
(dp2419
g34
(lp2420
(I00
g727
tp2421
asg22
Nsbasg21
I00
sg22
Nsg23
I00
sg24
S'L'
sbsg25
(irule
OffsetSpecification
p2422
(dp2423
g439
I-2
sbsg28
(irule
Guard
p2424
(dp2425
g18
I00
sg19
(lp2426
sg21
I00
sg22
Nsg23
I00
sg24
S'R'
sbsg45
(irule
ConstantPhoneme
p2427
(dp2428
S'p'
Ve
sbsg22
Nsba(irule
Rule
p2429
(dp2430
g15
(irule
Guard
p2431
(dp2432
g18
I00
sg19
(lp2433
(irule
FeatureMatrix
p2434
(dp2435
g34
(lp2436
sg22
Nsba(irule
FeatureMatrix
p2437
(dp2438
g34
(lp2439
(I00
g1246
tp2440
a(I00
g727
tp2441
asg22
Nsbasg21
I00
sg22
Nsg23
I00
sg24
S'L'
sbsg25
(irule
OffsetSpecification
p2442
(dp2443
g439
I-2
sbsg28
(irule
Guard
p2444
(dp2445
g18
I00
sg19
(lp2446
sg21
I00
sg22
Nsg23
I00
sg24
S'R'
sbsg45
(irule
ConstantPhoneme
p2447
(dp2448
S'p'
Ve
sbsg22
Nsba(irule
Rule
p2449
(dp2450
g15
(irule
Guard
p2451
(dp2452
g18
I00
sg19
(lp2453
(irule
FeatureMatrix
p2454
(dp2455
g34
(lp2456
sg22
Nsba(irule
FeatureMatrix
p2457
(dp2458
g34
(lp2459
(I00
g897
tp2460
a(I01
g772
tp2461
asg22
Nsbasg21
I00
sg22
Nsg23
I00
sg24
S'L'
sbsg25
(irule
OffsetSpecification
p2462
(dp2463
g439
I-2
sbsg28
(irule
Guard
p2464
(dp2465
g18
I00
sg19
(lp2466
sg21
I00
sg22
Nsg23
I00
sg24
S'R'
sbsg45
(irule
ConstantPhoneme
p2467
(dp2468
S'p'
Ve
sbsg22
Nsba(irule
Rule
p2469
(dp2470
g15
(irule
Guard
p2471
(dp2472
g18
I00
sg19
(lp2473
(irule
FeatureMatrix
p2474
(dp2475
g34
(lp2476
sg22
Nsba(irule
FeatureMatrix
p2477
(dp2478
g34
(lp2479
(I01
g995
tp2480
a(I00
g727
tp2481
asg22
Nsbasg21
I00
sg22
Nsg23
I00
sg24
S'L'
sbsg25
(irule
OffsetSpecification
p2482
(dp2483
g439
I-2
sbsg28
(irule
Guard
p2484
(dp2485
g18
I00
sg19
(lp2486
sg21
I00
sg22
Nsg23
I00
sg24
S'R'
sbsg45
(irule
ConstantPhoneme
p2487
(dp2488
S'p'
Ve
sbsg22
Nsba(irule
Rule
p2489
(dp2490
g15
(irule
Guard
p2491
(dp2492
g18
I00
sg19
(lp2493
(irule
FeatureMatrix
p2494
(dp2495
g34
(lp2496
sg22
Nsba(irule
FeatureMatrix
p2497
(dp2498
g34
(lp2499
(I00
g1246
tp2500
a(I01
g772
tp2501
asg22
Nsbasg21
I00
sg22
Nsg23
I00
sg24
S'L'
sbsg25
(irule
OffsetSpecification
p2502
(dp2503
g439
I-2
sbsg28
(irule
Guard
p2504
(dp2505
g18
I00
sg19
(lp2506
sg21
I00
sg22
Nsg23
I00
sg24
S'R'
sbsg45
(irule
ConstantPhoneme
p2507
(dp2508
S'p'
Ve
sbsg22
Nsba(irule
Rule
p2509
(dp2510
g15
(irule
Guard
p2511
(dp2512
g18
I00
sg19
(lp2513
(irule
FeatureMatrix
p2514
(dp2515
g34
(lp2516
sg22
Nsba(irule
FeatureMatrix
p2517
(dp2518
g34
(lp2519
(I00
g1521
tp2520
a(I01
g772
tp2521
asg22
Nsbasg21
I00
sg22
Nsg23
I00
sg24
S'L'
sbsg25
(irule
OffsetSpecification
p2522
(dp2523
g439
I-2
sbsg28
(irule
Guard
p2524
(dp2525
g18
I00
sg19
(lp2526
sg21
I00
sg22
Nsg23
I00
sg24
S'R'
sbsg45
(irule
ConstantPhoneme
p2527
(dp2528
S'p'
Ve
sbsg22
Nsba(irule
Rule
p2529
(dp2530
g15
(irule
Guard
p2531
(dp2532
g18
I00
sg19
(lp2533
(irule
FeatureMatrix
p2534
(dp2535
g34
(lp2536
sg22
Nsba(irule
FeatureMatrix
p2537
(dp2538
g34
(lp2539
(I00
g965
tp2540
a(I00
g727
tp2541
asg22
Nsbasg21
I00
sg22
Nsg23
I00
sg24
S'L'
sbsg25
(irule
OffsetSpecification
p2542
(dp2543
g439
I-2
sbsg28
(irule
Guard
p2544
(dp2545
g18
I00
sg19
(lp2546
sg21
I00
sg22
Nsg23
I00
sg24
S'R'
sbsg45
(irule
ConstantPhoneme
p2547
(dp2548
S'p'
Ve
sbsg22
Nsba(irule
Rule
p2549
(dp2550
g15
(irule
Guard
p2551
(dp2552
g18
I00
sg19
(lp2553
(irule
FeatureMatrix
p2554
(dp2555
g34
(lp2556
(I00
g927
tp2557
asg22
Nsba(irule
FeatureMatrix
p2558
(dp2559
g34
(lp2560
(I01
g772
tp2561
asg22
Nsbasg21
I00
sg22
Nsg23
I00
sg24
S'L'
sbsg25
(irule
OffsetSpecification
p2562
(dp2563
g439
I-2
sbsg28
(irule
Guard
p2564
(dp2565
g18
I00
sg19
(lp2566
sg21
I00
sg22
Nsg23
I00
sg24
S'R'
sbsg45
(irule
ConstantPhoneme
p2567
(dp2568
S'p'
Ve
sbsg22
Nsba(irule
Rule
p2569
(dp2570
g15
(irule
Guard
p2571
(dp2572
g18
I00
sg19
(lp2573
(irule
FeatureMatrix
p2574
(dp2575
g34
(lp2576
sg22
Nsba(irule
FeatureMatrix
p2577
(dp2578
g34
(lp2579
(I01
g1711
tp2580
a(I01
g772
tp2581
asg22
Nsbasg21
I00
sg22
Nsg23
I00
sg24
S'L'
sbsg25
(irule
OffsetSpecification
p2582
(dp2583
g439
I-2
sbsg28
(irule
Guard
p2584
(dp2585
g18
I00
sg19
(lp2586
sg21
I00
sg22
Nsg23
I00
sg24
S'R'
sbsg45
(irule
ConstantPhoneme
p2587
(dp2588
S'p'
Ve
sbsg22
Nsba(irule
Rule
p2589
(dp2590
g15
(irule
Guard
p2591
(dp2592
g18
I00
sg19
(lp2593
(irule
FeatureMatrix
p2594
(dp2595
g34
(lp2596
sg22
Nsba(irule
FeatureMatrix
p2597
(dp2598
g34
(lp2599
(I00
g897
tp2600
a(I00
g727
tp2601
asg22
Nsbasg21
I00
sg22
Nsg23
I00
sg24
S'L'
sbsg25
(irule
OffsetSpecification
p2602
(dp2603
g439
I-2
sbsg28
(irule
Guard
p2604
(dp2605
g18
I00
sg19
(lp2606
sg21
I00
sg22
Nsg23
I00
sg24
S'R'
sbsg45
(irule
ConstantPhoneme
p2607
(dp2608
S'p'
Ve
sbsg22
Nsba(irule
Rule
p2609
(dp2610
g15
(irule
Guard
p2611
(dp2612
g18
I00
sg19
(lp2613
(irule
FeatureMatrix
p2614
(dp2615
g34
(lp2616
sg22
Nsba(irule
FeatureMatrix
p2617
(dp2618
g34
(lp2619
(I00
g1312
tp2620
a(I01
g772
tp2621
asg22
Nsbasg21
I00
sg22
Nsg23
I00
sg24
S'L'
sbsg25
(irule
OffsetSpecification
p2622
(dp2623
g439
I-2
sbsg28
(irule
Guard
p2624
(dp2625
g18
I00
sg19
(lp2626
sg21
I00
sg22
Nsg23
I00
sg24
S'R'
sbsg45
(irule
ConstantPhoneme
p2627
(dp2628
S'p'
Ve
sbsg22
Nsba(irule
Rule
p2629
(dp2630
g15
(irule
Guard
p2631
(dp2632
g18
I00
sg19
(lp2633
(irule
FeatureMatrix
p2634
(dp2635
g34
(lp2636
sg22
Nsba(irule
FeatureMatrix
p2637
(dp2638
g34
(lp2639
(I00
g815
tp2640
a(I00
g727
tp2641
asg22
Nsbasg21
I00
sg22
Nsg23
I00
sg24
S'L'
sbsg25
(irule
OffsetSpecification
p2642
(dp2643
g439
I-2
sbsg28
(irule
Guard
p2644
(dp2645
g18
I00
sg19
(lp2646
sg21
I00
sg22
Nsg23
I00
sg24
S'R'
sbsg45
(irule
ConstantPhoneme
p2647
(dp2648
S'p'
Ve
sbsg22
Nsba(irule
Rule
p2649
(dp2650
g15
(irule
Guard
p2651
(dp2652
g18
I00
sg19
(lp2653
(irule
FeatureMatrix
p2654
(dp2655
g34
(lp2656
(I00
g927
tp2657
asg22
Nsba(irule
FeatureMatrix
p2658
(dp2659
g34
(lp2660
(I00
g727
tp2661
asg22
Nsbasg21
I00
sg22
Nsg23
I00
sg24
S'L'
sbsg25
(irule
OffsetSpecification
p2662
(dp2663
g439
I-2
sbsg28
(irule
Guard
p2664
(dp2665
g18
I00
sg19
(lp2666
sg21
I00
sg22
Nsg23
I00
sg24
S'R'
sbsg45
(irule
ConstantPhoneme
p2667
(dp2668
S'p'
Ve
sbsg22
Nsba(irule
Rule
p2669
(dp2670
g15
(irule
Guard
p2671
(dp2672
g18
I00
sg19
(lp2673
(irule
FeatureMatrix
p2674
(dp2675
g34
(lp2676
(I00
g2244
tp2677
asg22
Nsba(irule
FeatureMatrix
p2678
(dp2679
g34
(lp2680
(I00
g727
tp2681
asg22
Nsbasg21
I00
sg22
Nsg23
I00
sg24
S'L'
sbsg25
(irule
OffsetSpecification
p2682
(dp2683
g439
I-2
sbsg28
(irule
Guard
p2684
(dp2685
g18
I00
sg19
(lp2686
sg21
I00
sg22
Nsg23
I00
sg24
S'R'
sbsg45
(irule
ConstantPhoneme
p2687
(dp2688
S'p'
Ve
sbsg22
Nsba(irule
Rule
p2689
(dp2690
g15
(irule
Guard
p2691
(dp2692
g18
I00
sg19
(lp2693
(irule
FeatureMatrix
p2694
(dp2695
g34
(lp2696
(I00
g727
tp2697
asg22
Nsba(irule
FeatureMatrix
p2698
(dp2699
g34
(lp2700
(I00
g727
tp2701
asg22
Nsbasg21
I00
sg22
Nsg23
I00
sg24
S'L'
sbsg25
(irule
OffsetSpecification
p2702
(dp2703
g439
I-2
sbsg28
(irule
Guard
p2704
(dp2705
g18
I00
sg19
(lp2706
sg21
I00
sg22
Nsg23
I00
sg24
S'R'
sbsg45
(irule
ConstantPhoneme
p2707
(dp2708
S'p'
Ve
sbsg22
Nsba(irule
Rule
p2709
(dp2710
g15
(irule
Guard
p2711
(dp2712
g18
I00
sg19
(lp2713
(irule
FeatureMatrix
p2714
(dp2715
g34
(lp2716
sg22
Nsba(irule
FeatureMatrix
p2717
(dp2718
g34
(lp2719
(I01
g747
tp2720
a(I00
g727
tp2721
asg22
Nsbasg21
I00
sg22
Nsg23
I00
sg24
S'L'
sbsg25
(irule
OffsetSpecification
p2722
(dp2723
g439
I-2
sbsg28
(irule
Guard
p2724
(dp2725
g18
I00
sg19
(lp2726
sg21
I00
sg22
Nsg23
I00
sg24
S'R'
sbsg45
(irule
ConstantPhoneme
p2727
(dp2728
S'p'
Ve
sbsg22
Nsba(irule
Rule
p2729
(dp2730
g15
(irule
Guard
p2731
(dp2732
g18
I00
sg19
(lp2733
(irule
FeatureMatrix
p2734
(dp2735
g34
(lp2736
sg22
Nsba(irule
FeatureMatrix
p2737
(dp2738
g34
(lp2739
(I00
g727
tp2740
a(I01
g1646
tp2741
asg22
Nsbasg21
I00
sg22
Nsg23
I00
sg24
S'L'
sbsg25
(irule
OffsetSpecification
p2742
(dp2743
g439
I-2
sbsg28
(irule
Guard
p2744
(dp2745
g18
I00
sg19
(lp2746
sg21
I00
sg22
Nsg23
I00
sg24
S'R'
sbsg45
(irule
ConstantPhoneme
p2747
(dp2748
S'p'
Ve
sbsg22
Nsba(irule
Rule
p2749
(dp2750
g15
(irule
Guard
p2751
(dp2752
g18
I00
sg19
(lp2753
(irule
FeatureMatrix
p2754
(dp2755
g34
(lp2756
sg22
Nsba(irule
FeatureMatrix
p2757
(dp2758
g34
(lp2759
(I01
g995
tp2760
a(I01
g772
tp2761
asg22
Nsbasg21
I00
sg22
Nsg23
I00
sg24
S'L'
sbsg25
(irule
OffsetSpecification
p2762
(dp2763
g439
I-2
sbsg28
(irule
Guard
p2764
(dp2765
g18
I00
sg19
(lp2766
sg21
I00
sg22
Nsg23
I00
sg24
S'R'
sbsg45
(irule
ConstantPhoneme
p2767
(dp2768
S'p'
Ve
sbsg22
Nsba(irule
Rule
p2769
(dp2770
g15
(irule
Guard
p2771
(dp2772
g18
I00
sg19
(lp2773
(irule
FeatureMatrix
p2774
(dp2775
g34
(lp2776
sg22
Nsba(irule
FeatureMatrix
p2777
(dp2778
g34
(lp2779
(I01
g1711
tp2780
a(I00
g727
tp2781
asg22
Nsbasg21
I00
sg22
Nsg23
I00
sg24
S'L'
sbsg25
(irule
OffsetSpecification
p2782
(dp2783
g439
I-2
sbsg28
(irule
Guard
p2784
(dp2785
g18
I00
sg19
(lp2786
sg21
I00
sg22
Nsg23
I00
sg24
S'R'
sbsg45
(irule
ConstantPhoneme
p2787
(dp2788
S'p'
Ve
sbsg22
Nsba(irule
Rule
p2789
(dp2790
g15
(irule
Guard
p2791
(dp2792
g18
I00
sg19
(lp2793
(irule
FeatureMatrix
p2794
(dp2795
g34
(lp2796
(I00
g995
tp2797
asg22
Nsba(irule
FeatureMatrix
p2798
(dp2799
g34
(lp2800
(I00
g727
tp2801
asg22
Nsbasg21
I00
sg22
Nsg23
I00
sg24
S'L'
sbsg25
(irule
OffsetSpecification
p2802
(dp2803
g439
I-2
sbsg28
(irule
Guard
p2804
(dp2805
g18
I00
sg19
(lp2806
sg21
I00
sg22
Nsg23
I00
sg24
S'R'
sbsg45
(irule
ConstantPhoneme
p2807
(dp2808
S'p'
Ve
sbsg22
Nsba(irule
Rule
p2809
(dp2810
g15
(irule
Guard
p2811
(dp2812
g18
I00
sg19
(lp2813
(irule
FeatureMatrix
p2814
(dp2815
g34
(lp2816
sg22
Nsba(irule
FeatureMatrix
p2817
(dp2818
g34
(lp2819
(I00
g1115
tp2820
a(I01
g772
tp2821
asg22
Nsbasg21
I00
sg22
Nsg23
I00
sg24
S'L'
sbsg25
(irule
OffsetSpecification
p2822
(dp2823
g439
I-2
sbsg28
(irule
Guard
p2824
(dp2825
g18
I00
sg19
(lp2826
sg21
I00
sg22
Nsg23
I00
sg24
S'R'
sbsg45
(irule
ConstantPhoneme
p2827
(dp2828
S'p'
Ve
sbsg22
Nsba(irule
Rule
p2829
(dp2830
g15
(irule
Guard
p2831
(dp2832
g18
I00
sg19
(lp2833
(irule
FeatureMatrix
p2834
(dp2835
g34
(lp2836
sg22
Nsba(irule
FeatureMatrix
p2837
(dp2838
g34
(lp2839
(I01
g1646
tp2840
a(I01
g772
tp2841
asg22
Nsbasg21
I00
sg22
Nsg23
I00
sg24
S'L'
sbsg25
(irule
OffsetSpecification
p2842
(dp2843
g439
I-2
sbsg28
(irule
Guard
p2844
(dp2845
g18
I00
sg19
(lp2846
sg21
I00
sg22
Nsg23
I00
sg24
S'R'
sbsg45
(irule
ConstantPhoneme
p2847
(dp2848
S'p'
Ve
sbsg22
Nsbaa(lp2849
(irule
Rule
p2850
(dp2851
g15
(irule
Guard
p2852
(dp2853
g18
I00
sg19
(lp2854
(irule
ConstantPhoneme
p2855
(dp2856
S'p'
Vd
sbasg21
I00
sg22
Vd
sg23
I00
sg24
S'L'
sbsg25
(irule
FeatureMatrix
p2857
(dp2858
g34
(lp2859
(I01
S'high'
tp2860
a(I00
S'low'
tp2861
asg22
V[ +high -low ]
p2862
sbsg28
(irule
Guard
p2863
(dp2864
g18
I00
sg19
(lp2865
sg21
I00
sg22
V
sg23
I00
sg24
S'R'
sbsg45
(irule
FeatureMatrix
p2866
(dp2867
g34
(lp2868
sg22
V[  ]
p2869
sbsg22
V[  ] ---> [ +high -low ] / d _ 
p2870
sba(irule
Rule
p2871
(dp2872
g15
(irule
Guard
p2873
(dp2874
g18
I00
sg19
(lp2875
(irule
FeatureMatrix
p2876
(dp2877
g34
(lp2878
sg22
Nsba(irule
ConstantPhoneme
p2879
(dp2880
S'p'
Vi:
p2881
sbasg21
I00
sg22
Nsg23
I00
sg24
S'L'
sbsg25
(irule
FeatureMatrix
p2882
(dp2883
g34
(lp2884
(I01
S'high'
p2885
tp2886
a(I00
S'low'
p2887
tp2888
asg22
Nsbsg28
(irule
Guard
p2889
(dp2890
g18
I00
sg19
(lp2891
sg21
I00
sg22
Nsg23
I00
sg24
S'R'
sbsg45
(irule
FeatureMatrix
p2892
(dp2893
g34
(lp2894
sg22
Nsbsg22
Nsba(irule
Rule
p2895
(dp2896
g15
(irule
Guard
p2897
(dp2898
g18
I00
sg19
(lp2899
(irule
ConstantPhoneme
p2900
(dp2901
S'p'
Vd
sbasg21
I00
sg22
Nsg23
I00
sg24
S'L'
sbsg25
(irule
FeatureMatrix
p2902
(dp2903
g34
(lp2904
(I01
g2885
tp2905
a(I00
g2887
tp2906
asg22
Nsbsg28
(irule
Guard
p2907
(dp2908
g18
I00
sg19
(lp2909
sg21
I00
sg22
Nsg23
I00
sg24
S'R'
sbsg45
(irule
FeatureMatrix
p2910
(dp2911
g34
(lp2912
(I01
S'voice'
p2913
tp2914
asg22
Nsbsg22
Nsba(irule
Rule
p2915
(dp2916
g15
(irule
Guard
p2917
(dp2918
g18
I00
sg19
(lp2919
(irule
ConstantPhoneme
p2920
(dp2921
S'p'
Vd
sba(irule
FeatureMatrix
p2922
(dp2923
g34
(lp2924
sg22
Nsbasg21
I00
sg22
Nsg23
I00
sg24
S'L'
sbsg25
(irule
FeatureMatrix
p2925
(dp2926
g34
(lp2927
(I01
g2885
tp2928
a(I00
g2887
tp2929
asg22
Nsbsg28
(irule
Guard
p2930
(dp2931
g18
I00
sg19
(lp2932
sg21
I00
sg22
Nsg23
I00
sg24
S'R'
sbsg45
(irule
FeatureMatrix
p2933
(dp2934
g34
(lp2935
sg22
Nsbsg22
Nsba(irule
Rule
p2936
(dp2937
g15
(irule
Guard
p2938
(dp2939
g18
I00
sg19
(lp2940
(irule
FeatureMatrix
p2941
(dp2942
g34
(lp2943
(I00
S'sonorant'
p2944
tp2945
a(I01
g2913
tp2946
asg22
Nsbasg21
I00
sg22
Nsg23
I00
sg24
S'L'
sbsg25
(irule
FeatureMatrix
p2947
(dp2948
g34
(lp2949
(I01
g2885
tp2950
a(I00
g2887
tp2951
asg22
Nsbsg28
(irule
Guard
p2952
(dp2953
g18
I00
sg19
(lp2954
sg21
I00
sg22
Nsg23
I00
sg24
S'R'
sbsg45
(irule
FeatureMatrix
p2955
(dp2956
g34
(lp2957
sg22
Nsbsg22
Nsba(irule
Rule
p2958
(dp2959
g15
(irule
Guard
p2960
(dp2961
g18
I00
sg19
(lp2962
(irule
ConstantPhoneme
p2963
(dp2964
S'p'
Vd
sbasg21
I00
sg22
Nsg23
I00
sg24
S'L'
sbsg25
(irule
FeatureMatrix
p2965
(dp2966
g34
(lp2967
(I01
g2885
tp2968
a(I00
g2887
tp2969
asg22
Nsbsg28
(irule
Guard
p2970
(dp2971
g18
I00
sg19
(lp2972
sg21
I00
sg22
Nsg23
I00
sg24
S'R'
sbsg45
(irule
FeatureMatrix
p2973
(dp2974
g34
(lp2975
(I00
S'sibilant'
p2976
tp2977
asg22
Nsbsg22
Nsba(irule
Rule
p2978
(dp2979
g15
(irule
Guard
p2980
(dp2981
g18
I00
sg19
(lp2982
(irule
ConstantPhoneme
p2983
(dp2984
S'p'
Vd
sbasg21
I00
sg22
Nsg23
I00
sg24
S'L'
sbsg25
(irule
FeatureMatrix
p2985
(dp2986
g34
(lp2987
(I01
g2885
tp2988
a(I00
g2887
tp2989
asg22
Nsbsg28
(irule
Guard
p2990
(dp2991
g18
I00
sg19
(lp2992
sg21
I00
sg22
Nsg23
I00
sg24
S'R'
sbsg45
(irule
FeatureMatrix
p2993
(dp2994
g34
(lp2995
(I01
S'vowel'
p2996
tp2997
asg22
Nsbsg22
Nsba(irule
Rule
p2998
(dp2999
g15
(irule
Guard
p3000
(dp3001
g18
I00
sg19
(lp3002
(irule
ConstantPhoneme
p3003
(dp3004
S'p'
Vd
sbasg21
I00
sg22
Nsg23
I00
sg24
S'L'
sbsg25
(irule
FeatureMatrix
p3005
(dp3006
g34
(lp3007
(I01
g2885
tp3008
a(I00
g2976
tp3009
a(I00
g2887
tp3010
asg22
Nsbsg28
(irule
Guard
p3011
(dp3012
g18
I00
sg19
(lp3013
sg21
I00
sg22
Nsg23
I00
sg24
S'R'
sbsg45
(irule
FeatureMatrix
p3014
(dp3015
g34
(lp3016
sg22
Nsbsg22
Nsba(irule
Rule
p3017
(dp3018
g15
(irule
Guard
p3019
(dp3020
g18
I00
sg19
(lp3021
(irule
ConstantPhoneme
p3022
(dp3023
S'p'
Vd
sbasg21
I00
sg22
Nsg23
I00
sg24
S'L'
sbsg25
(irule
FeatureMatrix
p3024
(dp3025
g34
(lp3026
(I01
g2885
tp3027
a(I01
g2913
tp3028
a(I00
g2887
tp3029
asg22
Nsbsg28
(irule
Guard
p3030
(dp3031
g18
I00
sg19
(lp3032
sg21
I00
sg22
Nsg23
I00
sg24
S'R'
sbsg45
(irule
FeatureMatrix
p3033
(dp3034
g34
(lp3035
sg22
Nsbsg22
Nsba(irule
Rule
p3036
(dp3037
g15
(irule
Guard
p3038
(dp3039
g18
I00
sg19
(lp3040
(irule
ConstantPhoneme
p3041
(dp3042
S'p'
Vd
sbasg21
I00
sg22
Nsg23
I00
sg24
S'L'
sbsg25
(irule
FeatureMatrix
p3043
(dp3044
g34
(lp3045
(I01
g2885
tp3046
a(I00
g2887
tp3047
asg22
Nsbsg28
(irule
Guard
p3048
(dp3049
g18
I00
sg19
(lp3050
sg21
I00
sg22
Nsg23
I00
sg24
S'R'
sbsg45
(irule
FeatureMatrix
p3051
(dp3052
g34
(lp3053
(I00
S'coronal'
p3054
tp3055
asg22
Nsbsg22
Nsba(irule
Rule
p3056
(dp3057
g15
(irule
Guard
p3058
(dp3059
g18
I00
sg19
(lp3060
(irule
ConstantPhoneme
p3061
(dp3062
S'p'
Vd
sbasg21
I00
sg22
Nsg23
I00
sg24
S'L'
sbsg25
(irule
FeatureMatrix
p3063
(dp3064
g34
(lp3065
(I01
S'continuant'
p3066
tp3067
a(I01
g2885
tp3068
a(I00
g2887
tp3069
asg22
Nsbsg28
(irule
Guard
p3070
(dp3071
g18
I00
sg19
(lp3072
sg21
I00
sg22
Nsg23
I00
sg24
S'R'
sbsg45
(irule
FeatureMatrix
p3073
(dp3074
g34
(lp3075
sg22
Nsbsg22
Nsba(irule
Rule
p3076
(dp3077
g15
(irule
Guard
p3078
(dp3079
g18
I00
sg19
(lp3080
(irule
ConstantPhoneme
p3081
(dp3082
S'p'
Vd
sbasg21
I00
sg22
Nsg23
I00
sg24
S'L'
sbsg25
(irule
FeatureMatrix
p3083
(dp3084
g34
(lp3085
(I01
g2885
tp3086
a(I00
g2887
tp3087
asg22
Nsbsg28
(irule
Guard
p3088
(dp3089
g18
I00
sg19
(lp3090
sg21
I00
sg22
Nsg23
I00
sg24
S'R'
sbsg45
(irule
FeatureMatrix
p3091
(dp3092
g34
(lp3093
(I00
S'long'
p3094
tp3095
asg22
Nsbsg22
Nsba(irule
Rule
p3096
(dp3097
g15
(irule
Guard
p3098
(dp3099
g18
I00
sg19
(lp3100
(irule
ConstantPhoneme
p3101
(dp3102
S'p'
Vd
sbasg21
I00
sg22
Nsg23
I00
sg24
S'L'
sbsg25
(irule
FeatureMatrix
p3103
(dp3104
g34
(lp3105
(I01
g2885
tp3106
a(I00
g2887
tp3107
asg22
Nsbsg28
(irule
Guard
p3108
(dp3109
g18
I00
sg19
(lp3110
sg21
I00
sg22
Nsg23
I00
sg24
S'R'
sbsg45
(irule
FeatureMatrix
p3111
(dp3112
g34
(lp3113
(I01
g3066
tp3114
asg22
Nsbsg22
Nsba(irule
Rule
p3115
(dp3116
g15
(irule
Guard
p3117
(dp3118
g18
I00
sg19
(lp3119
(irule
ConstantPhoneme
p3120
(dp3121
S'p'
Vd
sbasg21
I00
sg22
Nsg23
I00
sg24
S'L'
sbsg25
(irule
FeatureMatrix
p3122
(dp3123
g34
(lp3124
(I01
g2885
tp3125
a(I00
g2887
tp3126
asg22
Nsbsg28
(irule
Guard
p3127
(dp3128
g18
I00
sg19
(lp3129
sg21
I00
sg22
Nsg23
I00
sg24
S'R'
sbsg45
(irule
FeatureMatrix
p3130
(dp3131
g34
(lp3132
(I00
g2885
tp3133
asg22
Nsbsg22
Nsba(irule
Rule
p3134
(dp3135
g15
(irule
Guard
p3136
(dp3137
g18
I00
sg19
(lp3138
(irule
ConstantPhoneme
p3139
(dp3140
S'p'
Vd
sbasg21
I00
sg22
Nsg23
I00
sg24
S'L'
sbsg25
(irule
FeatureMatrix
p3141
(dp3142
g34
(lp3143
(I01
g2885
tp3144
a(I00
g3094
tp3145
a(I00
g2887
tp3146
asg22
Nsbsg28
(irule
Guard
p3147
(dp3148
g18
I00
sg19
(lp3149
sg21
I00
sg22
Nsg23
I00
sg24
S'R'
sbsg45
(irule
FeatureMatrix
p3150
(dp3151
g34
(lp3152
sg22
Nsbsg22
Nsba(irule
Rule
p3153
(dp3154
g15
(irule
Guard
p3155
(dp3156
g18
I00
sg19
(lp3157
(irule
ConstantPhoneme
p3158
(dp3159
S'p'
Vd
sbasg21
I00
sg22
Nsg23
I00
sg24
S'L'
sbsg25
(irule
FeatureMatrix
p3160
(dp3161
g34
(lp3162
(I01
g2885
tp3163
a(I00
g3054
tp3164
a(I00
g2887
tp3165
asg22
Nsbsg28
(irule
Guard
p3166
(dp3167
g18
I00
sg19
(lp3168
sg21
I00
sg22
Nsg23
I00
sg24
S'R'
sbsg45
(irule
FeatureMatrix
p3169
(dp3170
g34
(lp3171
sg22
Nsbsg22
Nsba(irule
Rule
p3172
(dp3173
g15
(irule
Guard
p3174
(dp3175
g18
I00
sg19
(lp3176
(irule
ConstantPhoneme
p3177
(dp3178
S'p'
Vd
sbasg21
I00
sg22
Nsg23
I00
sg24
S'L'
sbsg25
(irule
FeatureMatrix
p3179
(dp3180
g34
(lp3181
(I01
g2885
tp3182
a(I01
g2996
tp3183
a(I00
g2887
tp3184
asg22
Nsbsg28
(irule
Guard
p3185
(dp3186
g18
I00
sg19
(lp3187
sg21
I00
sg22
Nsg23
I00
sg24
S'R'
sbsg45
(irule
FeatureMatrix
p3188
(dp3189
g34
(lp3190
sg22
Nsbsg22
Nsba(irule
Rule
p3191
(dp3192
g15
(irule
Guard
p3193
(dp3194
g18
I00
sg19
(lp3195
(irule
ConstantPhoneme
p3196
(dp3197
S'p'
Vd
sbasg21
I00
sg22
Nsg23
I00
sg24
S'L'
sbsg25
(irule
FeatureMatrix
p3198
(dp3199
g34
(lp3200
(I01
g2885
tp3201
a(I00
g2887
tp3202
asg22
Nsbsg28
(irule
Guard
p3203
(dp3204
g18
I00
sg19
(lp3205
sg21
I00
sg22
Nsg23
I00
sg24
S'R'
sbsg45
(irule
FeatureMatrix
p3206
(dp3207
g34
(lp3208
(I01
S'tense'
p3209
tp3210
asg22
Nsbsg22
Nsba(irule
Rule
p3211
(dp3212
g15
(irule
Guard
p3213
(dp3214
g18
I00
sg19
(lp3215
(irule
ConstantPhoneme
p3216
(dp3217
S'p'
Vd
sbasg21
I00
sg22
Nsg23
I00
sg24
S'L'
sbsg25
(irule
FeatureMatrix
p3218
(dp3219
g34
(lp3220
(I00
S'nasal'
p3221
tp3222
a(I01
g2885
tp3223
a(I00
g2887
tp3224
asg22
Nsbsg28
(irule
Guard
p3225
(dp3226
g18
I00
sg19
(lp3227
sg21
I00
sg22
Nsg23
I00
sg24
S'R'
sbsg45
(irule
FeatureMatrix
p3228
(dp3229
g34
(lp3230
sg22
Nsbsg22
Nsba(irule
Rule
p3231
(dp3232
g15
(irule
Guard
p3233
(dp3234
g18
I00
sg19
(lp3235
(irule
ConstantPhoneme
p3236
(dp3237
S'p'
Vd
sbasg21
I00
sg22
Nsg23
I00
sg24
S'L'
sbsg25
(irule
FeatureMatrix
p3238
(dp3239
g34
(lp3240
(I00
S'lateral'
p3241
tp3242
a(I01
g2885
tp3243
a(I00
g2887
tp3244
asg22
Nsbsg28
(irule
Guard
p3245
(dp3246
g18
I00
sg19
(lp3247
sg21
I00
sg22
Nsg23
I00
sg24
S'R'
sbsg45
(irule
FeatureMatrix
p3248
(dp3249
g34
(lp3250
sg22
Nsbsg22
Nsba(irule
Rule
p3251
(dp3252
g15
(irule
Guard
p3253
(dp3254
g18
I00
sg19
(lp3255
(irule
ConstantPhoneme
p3256
(dp3257
S'p'
Vd
sbasg21
I00
sg22
Nsg23
I00
sg24
S'L'
sbsg25
(irule
FeatureMatrix
p3258
(dp3259
g34
(lp3260
(I01
g2944
tp3261
a(I01
g2885
tp3262
a(I00
g2887
tp3263
asg22
Nsbsg28
(irule
Guard
p3264
(dp3265
g18
I00
sg19
(lp3266
sg21
I00
sg22
Nsg23
I00
sg24
S'R'
sbsg45
(irule
FeatureMatrix
p3267
(dp3268
g34
(lp3269
sg22
Nsbsg22
Nsba(irule
Rule
p3270
(dp3271
g15
(irule
Guard
p3272
(dp3273
g18
I00
sg19
(lp3274
(irule
ConstantPhoneme
p3275
(dp3276
S'p'
Vd
sbasg21
I00
sg22
Nsg23
I00
sg24
S'L'
sbsg25
(irule
FeatureMatrix
p3277
(dp3278
g34
(lp3279
(I00
S'palatal'
p3280
tp3281
a(I01
g2885
tp3282
a(I00
g2887
tp3283
asg22
Nsbsg28
(irule
Guard
p3284
(dp3285
g18
I00
sg19
(lp3286
sg21
I00
sg22
Nsg23
I00
sg24
S'R'
sbsg45
(irule
FeatureMatrix
p3287
(dp3288
g34
(lp3289
sg22
Nsbsg22
Nsba(irule
Rule
p3290
(dp3291
g15
(irule
Guard
p3292
(dp3293
g18
I00
sg19
(lp3294
(irule
ConstantPhoneme
p3295
(dp3296
S'p'
Vd
sbasg21
I00
sg22
Nsg23
I00
sg24
S'L'
sbsg25
(irule
FeatureMatrix
p3297
(dp3298
g34
(lp3299
(I00
S'liquid'
p3300
tp3301
a(I01
g2885
tp3302
a(I00
g2887
tp3303
asg22
Nsbsg28
(irule
Guard
p3304
(dp3305
g18
I00
sg19
(lp3306
sg21
I00
sg22
Nsg23
I00
sg24
S'R'
sbsg45
(irule
FeatureMatrix
p3307
(dp3308
g34
(lp3309
sg22
Nsbsg22
Nsba(irule
Rule
p3310
(dp3311
g15
(irule
Guard
p3312
(dp3313
g18
I00
sg19
(lp3314
(irule
ConstantPhoneme
p3315
(dp3316
S'p'
Vd
sbasg21
I00
sg22
Nsg23
I00
sg24
S'L'
sbsg25
(irule
FeatureMatrix
p3317
(dp3318
g34
(lp3319
(I00
S'anterior'
p3320
tp3321
a(I01
g2885
tp3322
a(I00
g2887
tp3323
asg22
Nsbsg28
(irule
Guard
p3324
(dp3325
g18
I00
sg19
(lp3326
sg21
I00
sg22
Nsg23
I00
sg24
S'R'
sbsg45
(irule
FeatureMatrix
p3327
(dp3328
g34
(lp3329
sg22
Nsbsg22
Nsba(irule
Rule
p3330
(dp3331
g15
(irule
Guard
p3332
(dp3333
g18
I00
sg19
(lp3334
(irule
ConstantPhoneme
p3335
(dp3336
S'p'
Vd
sbasg21
I00
sg22
Nsg23
I00
sg24
S'L'
sbsg25
(irule
FeatureMatrix
p3337
(dp3338
g34
(lp3339
(I01
g2885
tp3340
a(I00
g2887
tp3341
asg22
Nsbsg28
(irule
Guard
p3342
(dp3343
g18
I00
sg19
(lp3344
sg21
I00
sg22
Nsg23
I00
sg24
S'R'
sbsg45
(irule
FeatureMatrix
p3345
(dp3346
g34
(lp3347
(I01
g2944
tp3348
asg22
Nsbsg22
Nsba(irule
Rule
p3349
(dp3350
g15
(irule
Guard
p3351
(dp3352
g18
I00
sg19
(lp3353
(irule
ConstantPhoneme
p3354
(dp3355
S'p'
Vd
sbasg21
I00
sg22
Nsg23
I00
sg24
S'L'
sbsg25
(irule
FeatureMatrix
p3356
(dp3357
g34
(lp3358
(I01
g2885
tp3359
a(I00
g2887
tp3360
asg22
Nsbsg28
(irule
Guard
p3361
(dp3362
g18
I00
sg19
(lp3363
sg21
I00
sg22
Nsg23
I00
sg24
S'R'
sbsg45
(irule
FeatureMatrix
p3364
(dp3365
g34
(lp3366
(I00
g3221
tp3367
asg22
Nsbsg22
Nsba(irule
Rule
p3368
(dp3369
g15
(irule
Guard
p3370
(dp3371
g18
I00
sg19
(lp3372
(irule
ConstantPhoneme
p3373
(dp3374
S'p'
Vd
sbasg21
I00
sg22
Nsg23
I00
sg24
S'L'
sbsg25
(irule
FeatureMatrix
p3375
(dp3376
g34
(lp3377
(I01
g2885
tp3378
a(I01
g3209
tp3379
a(I00
g2887
tp3380
asg22
Nsbsg28
(irule
Guard
p3381
(dp3382
g18
I00
sg19
(lp3383
sg21
I00
sg22
Nsg23
I00
sg24
S'R'
sbsg45
(irule
FeatureMatrix
p3384
(dp3385
g34
(lp3386
sg22
Nsbsg22
Nsba(irule
Rule
p3387
(dp3388
g15
(irule
Guard
p3389
(dp3390
g18
I00
sg19
(lp3391
(irule
ConstantPhoneme
p3392
(dp3393
S'p'
Vd
sbasg21
I00
sg22
Nsg23
I00
sg24
S'L'
sbsg25
(irule
FeatureMatrix
p3394
(dp3395
g34
(lp3396
(I01
g2885
tp3397
a(I00
g2887
tp3398
asg22
Nsbsg28
(irule
Guard
p3399
(dp3400
g18
I00
sg19
(lp3401
sg21
I00
sg22
Nsg23
I00
sg24
S'R'
sbsg45
(irule
FeatureMatrix
p3402
(dp3403
g34
(lp3404
(I00
g3241
tp3405
asg22
Nsbsg22
Nsba(irule
Rule
p3406
(dp3407
g15
(irule
Guard
p3408
(dp3409
g18
I00
sg19
(lp3410
(irule
ConstantPhoneme
p3411
(dp3412
S'p'
Vd
sbasg21
I00
sg22
Nsg23
I00
sg24
S'L'
sbsg25
(irule
FeatureMatrix
p3413
(dp3414
g34
(lp3415
(I01
g2885
tp3416
a(I00
g2887
tp3417
asg22
Nsbsg28
(irule
Guard
p3418
(dp3419
g18
I00
sg19
(lp3420
sg21
I00
sg22
Nsg23
I00
sg24
S'R'
sbsg45
(irule
FeatureMatrix
p3421
(dp3422
g34
(lp3423
(I00
g3280
tp3424
asg22
Nsbsg22
Nsba(irule
Rule
p3425
(dp3426
g15
(irule
Guard
p3427
(dp3428
g18
I00
sg19
(lp3429
(irule
ConstantPhoneme
p3430
(dp3431
S'p'
Vd
sbasg21
I00
sg22
Nsg23
I00
sg24
S'L'
sbsg25
(irule
FeatureMatrix
p3432
(dp3433
g34
(lp3434
(I01
g2885
tp3435
a(I00
g2887
tp3436
asg22
Nsbsg28
(irule
Guard
p3437
(dp3438
g18
I00
sg19
(lp3439
sg21
I00
sg22
Nsg23
I00
sg24
S'R'
sbsg45
(irule
FeatureMatrix
p3440
(dp3441
g34
(lp3442
(I00
g3300
tp3443
asg22
Nsbsg22
Nsba(irule
Rule
p3444
(dp3445
g15
(irule
Guard
p3446
(dp3447
g18
I00
sg19
(lp3448
(irule
ConstantPhoneme
p3449
(dp3450
S'p'
Vd
sbasg21
I00
sg22
Nsg23
I00
sg24
S'L'
sbsg25
(irule
FeatureMatrix
p3451
(dp3452
g34
(lp3453
(I01
g2885
tp3454
a(I00
g2887
tp3455
asg22
Nsbsg28
(irule
Guard
p3456
(dp3457
g18
I00
sg19
(lp3458
sg21
I00
sg22
Nsg23
I00
sg24
S'R'
sbsg45
(irule
FeatureMatrix
p3459
(dp3460
g34
(lp3461
(I00
g3320
tp3462
asg22
Nsbsg22
Nsba(irule
Rule
p3463
(dp3464
g15
(irule
Guard
p3465
(dp3466
g18
I00
sg19
(lp3467
(irule
ConstantPhoneme
p3468
(dp3469
S'p'
Vd
sbasg21
I00
sg22
Nsg23
I00
sg24
S'L'
sbsg25
(irule
FeatureMatrix
p3470
(dp3471
g34
(lp3472
(I01
g2885
tp3473
a(I00
g2887
tp3474
asg22
Nsbsg28
(irule
Guard
p3475
(dp3476
g18
I00
sg19
(lp3477
sg21
I00
sg22
Nsg23
I00
sg24
S'R'
sbsg45
(irule
FeatureMatrix
p3478
(dp3479
g34
(lp3480
(I00
S'rounded'
p3481
tp3482
asg22
Nsbsg22
Nsba(irule
Rule
p3483
(dp3484
g15
(irule
Guard
p3485
(dp3486
g18
I00
sg19
(lp3487
(irule
BoundarySpecification
p3488
(dp3489
ba(irule
ConstantPhoneme
p3490
(dp3491
S'p'
Vd
sbasg21
I00
sg22
Nsg23
I00
sg24
S'L'
sbsg25
(irule
FeatureMatrix
p3492
(dp3493
g34
(lp3494
(I01
g2885
tp3495
a(I00
g2887
tp3496
asg22
Nsbsg28
(irule
Guard
p3497
(dp3498
g18
I00
sg19
(lp3499
sg21
I00
sg22
Nsg23
I00
sg24
S'R'
sbsg45
(irule
FeatureMatrix
p3500
(dp3501
g34
(lp3502
sg22
Nsbsg22
Nsba(irule
Rule
p3503
(dp3504
g15
(irule
Guard
p3505
(dp3506
g18
I00
sg19
(lp3507
(irule
FeatureMatrix
p3508
(dp3509
g34
(lp3510
sg22
Nsba(irule
ConstantPhoneme
p3511
(dp3512
S'p'
g2881
sbasg21
I00
sg22
Nsg23
I00
sg24
S'L'
sbsg25
(irule
FeatureMatrix
p3513
(dp3514
g34
(lp3515
(I01
g2885
tp3516
a(I01
g2913
tp3517
a(I00
g2887
tp3518
asg22
Nsbsg28
(irule
Guard
p3519
(dp3520
g18
I00
sg19
(lp3521
sg21
I00
sg22
Nsg23
I00
sg24
S'R'
sbsg45
(irule
FeatureMatrix
p3522
(dp3523
g34
(lp3524
sg22
Nsbsg22
Nsba(irule
Rule
p3525
(dp3526
g15
(irule
Guard
p3527
(dp3528
g18
I00
sg19
(lp3529
(irule
FeatureMatrix
p3530
(dp3531
g34
(lp3532
(I00
g2996
tp3533
asg22
Nsba(irule
ConstantPhoneme
p3534
(dp3535
S'p'
g2881
sbasg21
I00
sg22
Nsg23
I00
sg24
S'L'
sbsg25
(irule
FeatureMatrix
p3536
(dp3537
g34
(lp3538
(I01
g2885
tp3539
a(I00
g2887
tp3540
asg22
Nsbsg28
(irule
Guard
p3541
(dp3542
g18
I00
sg19
(lp3543
sg21
I00
sg22
Nsg23
I00
sg24
S'R'
sbsg45
(irule
FeatureMatrix
p3544
(dp3545
g34
(lp3546
sg22
Nsbsg22
Nsba(irule
Rule
p3547
(dp3548
g15
(irule
Guard
p3549
(dp3550
g18
I00
sg19
(lp3551
(irule
FeatureMatrix
p3552
(dp3553
g34
(lp3554
sg22
Nsba(irule
ConstantPhoneme
p3555
(dp3556
S'p'
g2881
sbasg21
I00
sg22
Nsg23
I00
sg24
S'L'
sbsg25
(irule
FeatureMatrix
p3557
(dp3558
g34
(lp3559
(I01
g2885
tp3560
a(I00
g2976
tp3561
a(I00
g2887
tp3562
asg22
Nsbsg28
(irule
Guard
p3563
(dp3564
g18
I00
sg19
(lp3565
sg21
I00
sg22
Nsg23
I00
sg24
S'R'
sbsg45
(irule
FeatureMatrix
p3566
(dp3567
g34
(lp3568
sg22
Nsbsg22
Nsba(irule
Rule
p3569
(dp3570
g15
(irule
Guard
p3571
(dp3572
g18
I00
sg19
(lp3573
(irule
FeatureMatrix
p3574
(dp3575
g34
(lp3576
(I00
g3221
tp3577
asg22
Nsba(irule
ConstantPhoneme
p3578
(dp3579
S'p'
g2881
sbasg21
I00
sg22
Nsg23
I00
sg24
S'L'
sbsg25
(irule
FeatureMatrix
p3580
(dp3581
g34
(lp3582
(I01
g2885
tp3583
a(I00
g2887
tp3584
asg22
Nsbsg28
(irule
Guard
p3585
(dp3586
g18
I00
sg19
(lp3587
sg21
I00
sg22
Nsg23
I00
sg24
S'R'
sbsg45
(irule
FeatureMatrix
p3588
(dp3589
g34
(lp3590
sg22
Nsbsg22
Nsba(irule
Rule
p3591
(dp3592
g15
(irule
Guard
p3593
(dp3594
g18
I00
sg19
(lp3595
(irule
FeatureMatrix
p3596
(dp3597
g34
(lp3598
sg22
Nsba(irule
ConstantPhoneme
p3599
(dp3600
S'p'
g2881
sbasg21
I00
sg22
Nsg23
I00
sg24
S'L'
sbsg25
(irule
FeatureMatrix
p3601
(dp3602
g34
(lp3603
(I01
g2885
tp3604
a(I00
g2887
tp3605
asg22
Nsbsg28
(irule
Guard
p3606
(dp3607
g18
I00
sg19
(lp3608
sg21
I00
sg22
Nsg23
I00
sg24
S'R'
sbsg45
(irule
FeatureMatrix
p3609
(dp3610
g34
(lp3611
(I01
g3209
tp3612
asg22
Nsbsg22
Nsba(irule
Rule
p3613
(dp3614
g15
(irule
Guard
p3615
(dp3616
g18
I00
sg19
(lp3617
(irule
FeatureMatrix
p3618
(dp3619
g34
(lp3620
(I00
g2887
tp3621
asg22
Nsba(irule
ConstantPhoneme
p3622
(dp3623
S'p'
g2881
sbasg21
I00
sg22
Nsg23
I00
sg24
S'L'
sbsg25
(irule
FeatureMatrix
p3624
(dp3625
g34
(lp3626
(I01
g2885
tp3627
a(I00
g2887
tp3628
asg22
Nsbsg28
(irule
Guard
p3629
(dp3630
g18
I00
sg19
(lp3631
sg21
I00
sg22
Nsg23
I00
sg24
S'R'
sbsg45
(irule
FeatureMatrix
p3632
(dp3633
g34
(lp3634
sg22
Nsbsg22
Nsba(irule
Rule
p3635
(dp3636
g15
(irule
Guard
p3637
(dp3638
g18
I00
sg19
(lp3639
(irule
FeatureMatrix
p3640
(dp3641
g34
(lp3642
sg22
Nsba(irule
ConstantPhoneme
p3643
(dp3644
S'p'
g2881
sbasg21
I00
sg22
Nsg23
I00
sg24
S'L'
sbsg25
(irule
FeatureMatrix
p3645
(dp3646
g34
(lp3647
(I01
g2885
tp3648
a(I00
g2887
tp3649
asg22
Nsbsg28
(irule
Guard
p3650
(dp3651
g18
I00
sg19
(lp3652
sg21
I00
sg22
Nsg23
I00
sg24
S'R'
sbsg45
(irule
FeatureMatrix
p3653
(dp3654
g34
(lp3655
(I01
g2996
tp3656
asg22
Nsbsg22
Nsba(irule
Rule
p3657
(dp3658
g15
(irule
Guard
p3659
(dp3660
g18
I00
sg19
(lp3661
(irule
FeatureMatrix
p3662
(dp3663
g34
(lp3664
(I00
g2944
tp3665
a(I01
g2913
tp3666
asg22
Nsbasg21
I00
sg22
Nsg23
I00
sg24
S'L'
sbsg25
(irule
FeatureMatrix
p3667
(dp3668
g34
(lp3669
(I01
g2885
tp3670
a(I01
g2913
tp3671
a(I00
g2887
tp3672
asg22
Nsbsg28
(irule
Guard
p3673
(dp3674
g18
I00
sg19
(lp3675
sg21
I00
sg22
Nsg23
I00
sg24
S'R'
sbsg45
(irule
FeatureMatrix
p3676
(dp3677
g34
(lp3678
sg22
Nsbsg22
Nsba(irule
Rule
p3679
(dp3680
g15
(irule
Guard
p3681
(dp3682
g18
I00
sg19
(lp3683
(irule
FeatureMatrix
p3684
(dp3685
g34
(lp3686
(I01
g2913
tp3687
asg22
Nsba(irule
ConstantPhoneme
p3688
(dp3689
S'p'
g2881
sbasg21
I00
sg22
Nsg23
I00
sg24
S'L'
sbsg25
(irule
FeatureMatrix
p3690
(dp3691
g34
(lp3692
(I01
g2885
tp3693
a(I00
g2887
tp3694
asg22
Nsbsg28
(irule
Guard
p3695
(dp3696
g18
I00
sg19
(lp3697
sg21
I00
sg22
Nsg23
I00
sg24
S'R'
sbsg45
(irule
FeatureMatrix
p3698
(dp3699
g34
(lp3700
sg22
Nsbsg22
Nsba(irule
Rule
p3701
(dp3702
g15
(irule
Guard
p3703
(dp3704
g18
I00
sg19
(lp3705
(irule
FeatureMatrix
p3706
(dp3707
g34
(lp3708
(I00
g2944
tp3709
a(I01
g2913
tp3710
asg22
Nsbasg21
I00
sg22
Nsg23
I00
sg24
S'L'
sbsg25
(irule
FeatureMatrix
p3711
(dp3712
g34
(lp3713
(I01
g2885
tp3714
a(I00
g2976
tp3715
a(I00
g2887
tp3716
asg22
Nsbsg28
(irule
Guard
p3717
(dp3718
g18
I00
sg19
(lp3719
sg21
I00
sg22
Nsg23
I00
sg24
S'R'
sbsg45
(irule
FeatureMatrix
p3720
(dp3721
g34
(lp3722
sg22
Nsbsg22
Nsba(irule
Rule
p3723
(dp3724
g15
(irule
Guard
p3725
(dp3726
g18
I00
sg19
(lp3727
(irule
FeatureMatrix
p3728
(dp3729
g34
(lp3730
sg22
Nsba(irule
ConstantPhoneme
p3731
(dp3732
S'p'
g2881
sbasg21
I00
sg22
Nsg23
I00
sg24
S'L'
sbsg25
(irule
FeatureMatrix
p3733
(dp3734
g34
(lp3735
(I01
g2885
tp3736
a(I00
g2887
tp3737
asg22
Nsbsg28
(irule
Guard
p3738
(dp3739
g18
I00
sg19
(lp3740
sg21
I00
sg22
Nsg23
I00
sg24
S'R'
sbsg45
(irule
FeatureMatrix
p3741
(dp3742
g34
(lp3743
(I01
g2913
tp3744
asg22
Nsbsg22
Nsba(irule
Rule
p3745
(dp3746
g15
(irule
Guard
p3747
(dp3748
g18
I00
sg19
(lp3749
(irule
FeatureMatrix
p3750
(dp3751
g34
(lp3752
(I00
g3094
tp3753
asg22
Nsba(irule
ConstantPhoneme
p3754
(dp3755
S'p'
g2881
sbasg21
I00
sg22
Nsg23
I00
sg24
S'L'
sbsg25
(irule
FeatureMatrix
p3756
(dp3757
g34
(lp3758
(I01
g2885
tp3759
a(I00
g2887
tp3760
asg22
Nsbsg28
(irule
Guard
p3761
(dp3762
g18
I00
sg19
(lp3763
sg21
I00
sg22
Nsg23
I00
sg24
S'R'
sbsg45
(irule
FeatureMatrix
p3764
(dp3765
g34
(lp3766
sg22
Nsbsg22
Nsba(irule
Rule
p3767
(dp3768
g15
(irule
Guard
p3769
(dp3770
g18
I00
sg19
(lp3771
(irule
FeatureMatrix
p3772
(dp3773
g34
(lp3774
(I00
g2944
tp3775
a(I01
g2913
tp3776
asg22
Nsbasg21
I00
sg22
Nsg23
I00
sg24
S'L'
sbsg25
(irule
FeatureMatrix
p3777
(dp3778
g34
(lp3779
(I01
g2885
tp3780
a(I00
g2887
tp3781
asg22
Nsbsg28
(irule
Guard
p3782
(dp3783
g18
I00
sg19
(lp3784
sg21
I00
sg22
Nsg23
I00
sg24
S'R'
sbsg45
(irule
FeatureMatrix
p3785
(dp3786
g34
(lp3787
(I01
g2913
tp3788
asg22
Nsbsg22
Nsba(irule
Rule
p3789
(dp3790
g15
(irule
Guard
p3791
(dp3792
g18
I00
sg19
(lp3793
(irule
FeatureMatrix
p3794
(dp3795
g34
(lp3796
(I00
S'back'
p3797
tp3798
asg22
Nsba(irule
ConstantPhoneme
p3799
(dp3800
S'p'
g2881
sbasg21
I00
sg22
Nsg23
I00
sg24
S'L'
sbsg25
(irule
FeatureMatrix
p3801
(dp3802
g34
(lp3803
(I01
g2885
tp3804
a(I00
g2887
tp3805
asg22
Nsbsg28
(irule
Guard
p3806
(dp3807
g18
I00
sg19
(lp3808
sg21
I00
sg22
Nsg23
I00
sg24
S'R'
sbsg45
(irule
FeatureMatrix
p3809
(dp3810
g34
(lp3811
sg22
Nsbsg22
Nsba(irule
Rule
p3812
(dp3813
g15
(irule
Guard
p3814
(dp3815
g18
I00
sg19
(lp3816
(irule
FeatureMatrix
p3817
(dp3818
g34
(lp3819
sg22
Nsba(irule
ConstantPhoneme
p3820
(dp3821
S'p'
g2881
sbasg21
I00
sg22
Nsg23
I00
sg24
S'L'
sbsg25
(irule
FeatureMatrix
p3822
(dp3823
g34
(lp3824
(I01
g2885
tp3825
a(I01
g2996
tp3826
a(I00
g2887
tp3827
asg22
Nsbsg28
(irule
Guard
p3828
(dp3829
g18
I00
sg19
(lp3830
sg21
I00
sg22
Nsg23
I00
sg24
S'R'
sbsg45
(irule
FeatureMatrix
p3831
(dp3832
g34
(lp3833
sg22
Nsbsg22
Nsba(irule
Rule
p3834
(dp3835
g15
(irule
Guard
p3836
(dp3837
g18
I00
sg19
(lp3838
(irule
ConstantPhoneme
p3839
(dp3840
S'p'
Vd
sbasg21
I00
sg22
Nsg23
I00
sg24
S'L'
sbsg25
(irule
FeatureMatrix
p3841
(dp3842
g34
(lp3843
(I01
g2885
tp3844
a(I01
g2913
tp3845
a(I00
g2887
tp3846
asg22
Nsbsg28
(irule
Guard
p3847
(dp3848
g18
I00
sg19
(lp3849
sg21
I00
sg22
Nsg23
I00
sg24
S'R'
sbsg45
(irule
FeatureMatrix
p3850
(dp3851
g34
(lp3852
(I01
g2996
tp3853
asg22
Nsbsg22
Nsba(irule
Rule
p3854
(dp3855
g15
(irule
Guard
p3856
(dp3857
g18
I00
sg19
(lp3858
(irule
FeatureMatrix
p3859
(dp3860
g34
(lp3861
(I00
g3481
tp3862
asg22
Nsba(irule
ConstantPhoneme
p3863
(dp3864
S'p'
g2881
sbasg21
I00
sg22
Nsg23
I00
sg24
S'L'
sbsg25
(irule
FeatureMatrix
p3865
(dp3866
g34
(lp3867
(I01
g2885
tp3868
a(I00
g2887
tp3869
asg22
Nsbsg28
(irule
Guard
p3870
(dp3871
g18
I00
sg19
(lp3872
sg21
I00
sg22
Nsg23
I00
sg24
S'R'
sbsg45
(irule
FeatureMatrix
p3873
(dp3874
g34
(lp3875
sg22
Nsbsg22
Nsba(irule
Rule
p3876
(dp3877
g15
(irule
Guard
p3878
(dp3879
g18
I00
sg19
(lp3880
(irule
FeatureMatrix
p3881
(dp3882
g34
(lp3883
sg22
Nsba(irule
ConstantPhoneme
p3884
(dp3885
S'p'
g2881
sbasg21
I00
sg22
Nsg23
I00
sg24
S'L'
sbsg25
(irule
FeatureMatrix
p3886
(dp3887
g34
(lp3888
(I01
g3066
tp3889
a(I01
g2885
tp3890
a(I00
g2887
tp3891
asg22
Nsbsg28
(irule
Guard
p3892
(dp3893
g18
I00
sg19
(lp3894
sg21
I00
sg22
Nsg23
I00
sg24
S'R'
sbsg45
(irule
FeatureMatrix
p3895
(dp3896
g34
(lp3897
sg22
Nsbsg22
Nsba(irule
Rule
p3898
(dp3899
g15
(irule
Guard
p3900
(dp3901
g18
I00
sg19
(lp3902
(irule
FeatureMatrix
p3903
(dp3904
g34
(lp3905
sg22
Nsba(irule
ConstantPhoneme
p3906
(dp3907
S'p'
g2881
sbasg21
I00
sg22
Nsg23
I00
sg24
S'L'
sbsg25
(irule
FeatureMatrix
p3908
(dp3909
g34
(lp3910
(I01
g2885
tp3911
a(I00
g2887
tp3912
asg22
Nsbsg28
(irule
Guard
p3913
(dp3914
g18
I00
sg19
(lp3915
sg21
I00
sg22
Nsg23
I00
sg24
S'R'
sbsg45
(irule
FeatureMatrix
p3916
(dp3917
g34
(lp3918
(I00
g2885
tp3919
asg22
Nsbsg22
Nsba(irule
Rule
p3920
(dp3921
g15
(irule
Guard
p3922
(dp3923
g18
I00
sg19
(lp3924
(irule
FeatureMatrix
p3925
(dp3926
g34
(lp3927
sg22
Nsba(irule
ConstantPhoneme
p3928
(dp3929
S'p'
g2881
sbasg21
I00
sg22
Nsg23
I00
sg24
S'L'
sbsg25
(irule
FeatureMatrix
p3930
(dp3931
g34
(lp3932
(I01
g2885
tp3933
a(I00
g3094
tp3934
a(I00
g2887
tp3935
asg22
Nsbsg28
(irule
Guard
p3936
(dp3937
g18
I00
sg19
(lp3938
sg21
I00
sg22
Nsg23
I00
sg24
S'R'
sbsg45
(irule
FeatureMatrix
p3939
(dp3940
g34
(lp3941
sg22
Nsbsg22
Nsba(irule
Rule
p3942
(dp3943
g15
(irule
Guard
p3944
(dp3945
g18
I00
sg19
(lp3946
(irule
FeatureMatrix
p3947
(dp3948
g34
(lp3949
(I00
g3241
tp3950
asg22
Nsba(irule
ConstantPhoneme
p3951
(dp3952
S'p'
g2881
sbasg21
I00
sg22
Nsg23
I00
sg24
S'L'
sbsg25
(irule
FeatureMatrix
p3953
(dp3954
g34
(lp3955
(I01
g2885
tp3956
a(I00
g2887
tp3957
asg22
Nsbsg28
(irule
Guard
p3958
(dp3959
g18
I00
sg19
(lp3960
sg21
I00
sg22
Nsg23
I00
sg24
S'R'
sbsg45
(irule
FeatureMatrix
p3961
(dp3962
g34
(lp3963
sg22
Nsbsg22
Nsba(irule
Rule
p3964
(dp3965
g15
(irule
Guard
p3966
(dp3967
g18
I00
sg19
(lp3968
(irule
FeatureMatrix
p3969
(dp3970
g34
(lp3971
(I00
g2976
tp3972
asg22
Nsba(irule
ConstantPhoneme
p3973
(dp3974
S'p'
g2881
sbasg21
I00
sg22
Nsg23
I00
sg24
S'L'
sbsg25
(irule
FeatureMatrix
p3975
(dp3976
g34
(lp3977
(I01
g2885
tp3978
a(I00
g2887
tp3979
asg22
Nsbsg28
(irule
Guard
p3980
(dp3981
g18
I00
sg19
(lp3982
sg21
I00
sg22
Nsg23
I00
sg24
S'R'
sbsg45
(irule
FeatureMatrix
p3983
(dp3984
g34
(lp3985
sg22
Nsbsg22
Nsba(irule
Rule
p3986
(dp3987
g15
(irule
Guard
p3988
(dp3989
g18
I00
sg19
(lp3990
(irule
ConstantPhoneme
p3991
(dp3992
S'p'
Vd
sbasg21
I00
sg22
Nsg23
I00
sg24
S'L'
sbsg25
(irule
FeatureMatrix
p3993
(dp3994
g34
(lp3995
(I00
g3481
tp3996
a(I01
g2885
tp3997
a(I00
g2887
tp3998
asg22
Nsbsg28
(irule
Guard
p3999
(dp4000
g18
I00
sg19
(lp4001
sg21
I00
sg22
Nsg23
I00
sg24
S'R'
sbsg45
(irule
FeatureMatrix
p4002
(dp4003
g34
(lp4004
(I00
g2885
tp4005
asg22
Nsbsg22
Nsba(irule
Rule
p4006
(dp4007
g15
(irule
Guard
p4008
(dp4009
g18
I00
sg19
(lp4010
(irule
FeatureMatrix
p4011
(dp4012
g34
(lp4013
(I00
g3209
tp4014
asg22
Nsba(irule
ConstantPhoneme
p4015
(dp4016
S'p'
g2881
sbasg21
I00
sg22
Nsg23
I00
sg24
S'L'
sbsg25
(irule
FeatureMatrix
p4017
(dp4018
g34
(lp4019
(I01
g2885
tp4020
a(I00
g2887
tp4021
asg22
Nsbsg28
(irule
Guard
p4022
(dp4023
g18
I00
sg19
(lp4024
sg21
I00
sg22
Nsg23
I00
sg24
S'R'
sbsg45
(irule
FeatureMatrix
p4025
(dp4026
g34
(lp4027
sg22
Nsbsg22
Nsba(irule
Rule
p4028
(dp4029
g15
(irule
Guard
p4030
(dp4031
g18
I00
sg19
(lp4032
(irule
FeatureMatrix
p4033
(dp4034
g34
(lp4035
(I00
g2996
tp4036
asg22
Nsba(irule
FeatureMatrix
p4037
(dp4038
g34
(lp4039
(I01
g2885
tp4040
asg22
Nsbasg21
I00
sg22
Nsg23
I00
sg24
S'L'
sbsg25
(irule
FeatureMatrix
p4041
(dp4042
g34
(lp4043
(I01
g2885
tp4044
a(I00
g2887
tp4045
asg22
Nsbsg28
(irule
Guard
p4046
(dp4047
g18
I00
sg19
(lp4048
sg21
I00
sg22
Nsg23
I00
sg24
S'R'
sbsg45
(irule
FeatureMatrix
p4049
(dp4050
g34
(lp4051
sg22
Nsbsg22
Nsba(irule
Rule
p4052
(dp4053
g15
(irule
Guard
p4054
(dp4055
g18
I00
sg19
(lp4056
(irule
FeatureMatrix
p4057
(dp4058
g34
(lp4059
sg22
Nsba(irule
ConstantPhoneme
p4060
(dp4061
S'p'
g2881
sbasg21
I00
sg22
Nsg23
I00
sg24
S'L'
sbsg25
(irule
FeatureMatrix
p4062
(dp4063
g34
(lp4064
(I00
g3241
tp4065
a(I01
g2885
tp4066
a(I00
g2887
tp4067
asg22
Nsbsg28
(irule
Guard
p4068
(dp4069
g18
I00
sg19
(lp4070
sg21
I00
sg22
Nsg23
I00
sg24
S'R'
sbsg45
(irule
FeatureMatrix
p4071
(dp4072
g34
(lp4073
sg22
Nsbsg22
Nsba(irule
Rule
p4074
(dp4075
g15
(irule
Guard
p4076
(dp4077
g18
I00
sg19
(lp4078
(irule
FeatureMatrix
p4079
(dp4080
g34
(lp4081
(I00
g3280
tp4082
asg22
Nsba(irule
ConstantPhoneme
p4083
(dp4084
S'p'
g2881
sbasg21
I00
sg22
Nsg23
I00
sg24
S'L'
sbsg25
(irule
FeatureMatrix
p4085
(dp4086
g34
(lp4087
(I01
g2885
tp4088
a(I00
g2887
tp4089
asg22
Nsbsg28
(irule
Guard
p4090
(dp4091
g18
I00
sg19
(lp4092
sg21
I00
sg22
Nsg23
I00
sg24
S'R'
sbsg45
(irule
FeatureMatrix
p4093
(dp4094
g34
(lp4095
sg22
Nsbsg22
Nsba(irule
Rule
p4096
(dp4097
g15
(irule
Guard
p4098
(dp4099
g18
I00
sg19
(lp4100
(irule
FeatureMatrix
p4101
(dp4102
g34
(lp4103
(I00
g3300
tp4104
asg22
Nsba(irule
ConstantPhoneme
p4105
(dp4106
S'p'
g2881
sbasg21
I00
sg22
Nsg23
I00
sg24
S'L'
sbsg25
(irule
FeatureMatrix
p4107
(dp4108
g34
(lp4109
(I01
g2885
tp4110
a(I00
g2887
tp4111
asg22
Nsbsg28
(irule
Guard
p4112
(dp4113
g18
I00
sg19
(lp4114
sg21
I00
sg22
Nsg23
I00
sg24
S'R'
sbsg45
(irule
FeatureMatrix
p4115
(dp4116
g34
(lp4117
sg22
Nsbsg22
Nsba(irule
Rule
p4118
(dp4119
g15
(irule
Guard
p4120
(dp4121
g18
I00
sg19
(lp4122
(irule
FeatureMatrix
p4123
(dp4124
g34
(lp4125
sg22
Nsba(irule
FeatureMatrix
p4126
(dp4127
g34
(lp4128
(I01
g2885
tp4129
a(I01
g3209
tp4130
asg22
Nsbasg21
I00
sg22
Nsg23
I00
sg24
S'L'
sbsg25
(irule
FeatureMatrix
p4131
(dp4132
g34
(lp4133
(I01
g2885
tp4134
a(I00
g2887
tp4135
asg22
Nsbsg28
(irule
Guard
p4136
(dp4137
g18
I00
sg19
(lp4138
sg21
I00
sg22
Nsg23
I00
sg24
S'R'
sbsg45
(irule
FeatureMatrix
p4139
(dp4140
g34
(lp4141
sg22
Nsbsg22
Nsba(irule
Rule
p4142
(dp4143
g15
(irule
Guard
p4144
(dp4145
g18
I00
sg19
(lp4146
(irule
FeatureMatrix
p4147
(dp4148
g34
(lp4149
(I00
g2885
tp4150
asg22
Nsba(irule
ConstantPhoneme
p4151
(dp4152
S'p'
g2881
sbasg21
I00
sg22
Nsg23
I00
sg24
S'L'
sbsg25
(irule
FeatureMatrix
p4153
(dp4154
g34
(lp4155
(I01
g2885
tp4156
a(I00
g2887
tp4157
asg22
Nsbsg28
(irule
Guard
p4158
(dp4159
g18
I00
sg19
(lp4160
sg21
I00
sg22
Nsg23
I00
sg24
S'R'
sbsg45
(irule
FeatureMatrix
p4161
(dp4162
g34
(lp4163
sg22
Nsbsg22
Nsba(irule
Rule
p4164
(dp4165
g15
(irule
Guard
p4166
(dp4167
g18
I00
sg19
(lp4168
(irule
FeatureMatrix
p4169
(dp4170
g34
(lp4171
(I00
g3066
tp4172
asg22
Nsba(irule
ConstantPhoneme
p4173
(dp4174
S'p'
g2881
sbasg21
I00
sg22
Nsg23
I00
sg24
S'L'
sbsg25
(irule
FeatureMatrix
p4175
(dp4176
g34
(lp4177
(I01
g2885
tp4178
a(I00
g2887
tp4179
asg22
Nsbsg28
(irule
Guard
p4180
(dp4181
g18
I00
sg19
(lp4182
sg21
I00
sg22
Nsg23
I00
sg24
S'R'
sbsg45
(irule
FeatureMatrix
p4183
(dp4184
g34
(lp4185
sg22
Nsbsg22
Nsba(irule
Rule
p4186
(dp4187
g15
(irule
Guard
p4188
(dp4189
g18
I00
sg19
(lp4190
(irule
FeatureMatrix
p4191
(dp4192
g34
(lp4193
(I00
g3066
tp4194
a(I00
g3221
tp4195
a(I01
g2913
tp4196
asg22
Nsbasg21
I00
sg22
Nsg23
I00
sg24
S'L'
sbsg25
(irule
FeatureMatrix
p4197
(dp4198
g34
(lp4199
(I01
g2885
tp4200
a(I00
g2887
tp4201
asg22
Nsbsg28
(irule
Guard
p4202
(dp4203
g18
I00
sg19
(lp4204
sg21
I00
sg22
Nsg23
I00
sg24
S'R'
sbsg45
(irule
FeatureMatrix
p4205
(dp4206
g34
(lp4207
sg22
Nsbsg22
Nsba(irule
Rule
p4208
(dp4209
g15
(irule
Guard
p4210
(dp4211
g18
I00
sg19
(lp4212
(irule
ConstantPhoneme
p4213
(dp4214
S'p'
Vd
sbasg21
I00
sg22
Nsg23
I00
sg24
S'L'
sbsg25
(irule
FeatureMatrix
p4215
(dp4216
g34
(lp4217
(I01
g2885
tp4218
a(I00
g2887
tp4219
asg22
Nsbsg28
(irule
Guard
p4220
(dp4221
g18
I00
sg19
(lp4222
sg21
I00
sg22
Nsg23
I00
sg24
S'R'
sbsg45
(irule
FeatureMatrix
p4223
(dp4224
g34
(lp4225
(I00
g2885
tp4226
a(I00
g3054
tp4227
asg22
Nsbsg22
Nsba(irule
Rule
p4228
(dp4229
g15
(irule
Guard
p4230
(dp4231
g18
I00
sg19
(lp4232
(irule
FeatureMatrix
p4233
(dp4234
g34
(lp4235
sg22
Nsba(irule
ConstantPhoneme
p4236
(dp4237
S'p'
g2881
sbasg21
I00
sg22
Nsg23
I00
sg24
S'L'
sbsg25
(irule
FeatureMatrix
p4238
(dp4239
g34
(lp4240
(I01
g2885
tp4241
a(I00
g3054
tp4242
a(I00
g2887
tp4243
asg22
Nsbsg28
(irule
Guard
p4244
(dp4245
g18
I00
sg19
(lp4246
sg21
I00
sg22
Nsg23
I00
sg24
S'R'
sbsg45
(irule
FeatureMatrix
p4247
(dp4248
g34
(lp4249
sg22
Nsbsg22
Nsba(irule
Rule
p4250
(dp4251
g15
(irule
Guard
p4252
(dp4253
g18
I00
sg19
(lp4254
(irule
FeatureMatrix
p4255
(dp4256
g34
(lp4257
sg22
Nsba(irule
ConstantPhoneme
p4258
(dp4259
S'p'
g2881
sbasg21
I00
sg22
Nsg23
I00
sg24
S'L'
sbsg25
(irule
FeatureMatrix
p4260
(dp4261
g34
(lp4262
(I01
g2885
tp4263
a(I00
g2887
tp4264
asg22
Nsbsg28
(irule
Guard
p4265
(dp4266
g18
I00
sg19
(lp4267
sg21
I00
sg22
Nsg23
I00
sg24
S'R'
sbsg45
(irule
FeatureMatrix
p4268
(dp4269
g34
(lp4270
(I00
g3054
tp4271
asg22
Nsbsg22
Nsba(irule
Rule
p4272
(dp4273
g15
(irule
Guard
p4274
(dp4275
g18
I00
sg19
(lp4276
(irule
FeatureMatrix
p4277
(dp4278
g34
(lp4279
(I01
g3320
tp4280
a(I00
g3221
tp4281
a(I01
g2913
tp4282
asg22
Nsbasg21
I00
sg22
Nsg23
I00
sg24
S'L'
sbsg25
(irule
FeatureMatrix
p4283
(dp4284
g34
(lp4285
(I01
g2885
tp4286
a(I00
g2887
tp4287
asg22
Nsbsg28
(irule
Guard
p4288
(dp4289
g18
I00
sg19
(lp4290
sg21
I00
sg22
Nsg23
I00
sg24
S'R'
sbsg45
(irule
FeatureMatrix
p4291
(dp4292
g34
(lp4293
sg22
Nsbsg22
Nsba(irule
Rule
p4294
(dp4295
g15
(irule
Guard
p4296
(dp4297
g18
I00
sg19
(lp4298
(irule
FeatureMatrix
p4299
(dp4300
g34
(lp4301
sg22
Nsba(irule
ConstantPhoneme
p4302
(dp4303
S'p'
g2881
sbasg21
I00
sg22
Nsg23
I00
sg24
S'L'
sbsg25
(irule
FeatureMatrix
p4304
(dp4305
g34
(lp4306
(I00
g3221
tp4307
a(I01
g2885
tp4308
a(I00
g2887
tp4309
asg22
Nsbsg28
(irule
Guard
p4310
(dp4311
g18
I00
sg19
(lp4312
sg21
I00
sg22
Nsg23
I00
sg24
S'R'
sbsg45
(irule
FeatureMatrix
p4313
(dp4314
g34
(lp4315
sg22
Nsbsg22
Nsba(irule
Rule
p4316
(dp4317
g15
(irule
Guard
p4318
(dp4319
g18
I00
sg19
(lp4320
(irule
FeatureMatrix
p4321
(dp4322
g34
(lp4323
sg22
Nsba(irule
ConstantPhoneme
p4324
(dp4325
S'p'
g2881
sbasg21
I00
sg22
Nsg23
I00
sg24
S'L'
sbsg25
(irule
FeatureMatrix
p4326
(dp4327
g34
(lp4328
(I01
g2944
tp4329
a(I01
g2885
tp4330
a(I00
g2887
tp4331
asg22
Nsbsg28
(irule
Guard
p4332
(dp4333
g18
I00
sg19
(lp4334
sg21
I00
sg22
Nsg23
I00
sg24
S'R'
sbsg45
(irule
FeatureMatrix
p4335
(dp4336
g34
(lp4337
sg22
Nsbsg22
Nsba(irule
Rule
p4338
(dp4339
g15
(irule
Guard
p4340
(dp4341
g18
I00
sg19
(lp4342
(irule
FeatureMatrix
p4343
(dp4344
g34
(lp4345
(I01
g3320
tp4346
asg22
Nsba(irule
ConstantPhoneme
p4347
(dp4348
S'p'
g2881
sbasg21
I00
sg22
Nsg23
I00
sg24
S'L'
sbsg25
(irule
FeatureMatrix
p4349
(dp4350
g34
(lp4351
(I01
g2885
tp4352
a(I00
g2887
tp4353
asg22
Nsbsg28
(irule
Guard
p4354
(dp4355
g18
I00
sg19
(lp4356
sg21
I00
sg22
Nsg23
I00
sg24
S'R'
sbsg45
(irule
FeatureMatrix
p4357
(dp4358
g34
(lp4359
sg22
Nsbsg22
Nsba(irule
Rule
p4360
(dp4361
g15
(irule
Guard
p4362
(dp4363
g18
I00
sg19
(lp4364
(irule
FeatureMatrix
p4365
(dp4366
g34
(lp4367
(I01
g3054
tp4368
asg22
Nsba(irule
ConstantPhoneme
p4369
(dp4370
S'p'
g2881
sbasg21
I00
sg22
Nsg23
I00
sg24
S'L'
sbsg25
(irule
FeatureMatrix
p4371
(dp4372
g34
(lp4373
(I01
g2885
tp4374
a(I00
g2887
tp4375
asg22
Nsbsg28
(irule
Guard
p4376
(dp4377
g18
I00
sg19
(lp4378
sg21
I00
sg22
Nsg23
I00
sg24
S'R'
sbsg45
(irule
FeatureMatrix
p4379
(dp4380
g34
(lp4381
sg22
Nsbsg22
Nsba(irule
Rule
p4382
(dp4383
g15
(irule
Guard
p4384
(dp4385
g18
I00
sg19
(lp4386
(irule
ConstantPhoneme
p4387
(dp4388
S'p'
Vd
sbasg21
I00
sg22
Nsg23
I00
sg24
S'L'
sbsg25
(irule
FeatureMatrix
p4389
(dp4390
g34
(lp4391
(I00
g3481
tp4392
a(I01
g2885
tp4393
a(I00
g2887
tp4394
asg22
Nsbsg28
(irule
Guard
p4395
(dp4396
g18
I00
sg19
(lp4397
sg21
I00
sg22
Nsg23
I00
sg24
S'R'
sbsg45
(irule
FeatureMatrix
p4398
(dp4399
g34
(lp4400
(I00
g3481
tp4401
asg22
Nsbsg22
Nsba(irule
Rule
p4402
(dp4403
g15
(irule
Guard
p4404
(dp4405
g18
I00
sg19
(lp4406
(irule
FeatureMatrix
p4407
(dp4408
g34
(lp4409
sg22
Nsba(irule
FeatureMatrix
p4410
(dp4411
g34
(lp4412
(I01
g2885
tp4413
a(I01
g2996
tp4414
asg22
Nsbasg21
I00
sg22
Nsg23
I00
sg24
S'L'
sbsg25
(irule
FeatureMatrix
p4415
(dp4416
g34
(lp4417
(I01
g2885
tp4418
a(I00
g2887
tp4419
asg22
Nsbsg28
(irule
Guard
p4420
(dp4421
g18
I00
sg19
(lp4422
sg21
I00
sg22
Nsg23
I00
sg24
S'R'
sbsg45
(irule
FeatureMatrix
p4423
(dp4424
g34
(lp4425
sg22
Nsbsg22
Nsba(irule
Rule
p4426
(dp4427
g15
(irule
Guard
p4428
(dp4429
g18
I00
sg19
(lp4430
(irule
FeatureMatrix
p4431
(dp4432
g34
(lp4433
sg22
Nsba(irule
ConstantPhoneme
p4434
(dp4435
S'p'
g2881
sbasg21
I00
sg22
Nsg23
I00
sg24
S'L'
sbsg25
(irule
FeatureMatrix
p4436
(dp4437
g34
(lp4438
(I01
g2885
tp4439
a(I00
g2887
tp4440
asg22
Nsbsg28
(irule
Guard
p4441
(dp4442
g18
I00
sg19
(lp4443
sg21
I00
sg22
Nsg23
I00
sg24
S'R'
sbsg45
(irule
FeatureMatrix
p4444
(dp4445
g34
(lp4446
(I00
g3320
tp4447
asg22
Nsbsg22
Nsba(irule
Rule
p4448
(dp4449
g15
(irule
Guard
p4450
(dp4451
g18
I00
sg19
(lp4452
(irule
ConstantPhoneme
p4453
(dp4454
S'p'
Vd
sba(irule
FeatureMatrix
p4455
(dp4456
g34
(lp4457
sg22
Nsbasg21
I00
sg22
Nsg23
I00
sg24
S'L'
sbsg25
(irule
FeatureMatrix
p4458
(dp4459
g34
(lp4460
(I01
g2885
tp4461
a(I00
g2887
tp4462
asg22
Nsbsg28
(irule
Guard
p4463
(dp4464
g18
I00
sg19
(lp4465
sg21
I00
sg22
Nsg23
I00
sg24
S'R'
sbsg45
(irule
FeatureMatrix
p4466
(dp4467
g34
(lp4468
(I00
g3094
tp4469
asg22
Nsbsg22
Nsba(irule
Rule
p4470
(dp4471
g15
(irule
Guard
p4472
(dp4473
g18
I00
sg19
(lp4474
(irule
FeatureMatrix
p4475
(dp4476
g34
(lp4477
(I00
g2944
tp4478
asg22
Nsba(irule
ConstantPhoneme
p4479
(dp4480
S'p'
g2881
sbasg21
I00
sg22
Nsg23
I00
sg24
S'L'
sbsg25
(irule
FeatureMatrix
p4481
(dp4482
g34
(lp4483
(I01
g2885
tp4484
a(I00
g2887
tp4485
asg22
Nsbsg28
(irule
Guard
p4486
(dp4487
g18
I00
sg19
(lp4488
sg21
I00
sg22
Nsg23
I00
sg24
S'R'
sbsg45
(irule
FeatureMatrix
p4489
(dp4490
g34
(lp4491
sg22
Nsbsg22
Nsba(irule
Rule
p4492
(dp4493
g15
(irule
Guard
p4494
(dp4495
g18
I00
sg19
(lp4496
(irule
FeatureMatrix
p4497
(dp4498
g34
(lp4499
(I00
g2944
tp4500
a(I01
g2913
tp4501
asg22
Nsba(irule
FeatureMatrix
p4502
(dp4503
g34
(lp4504
sg22
Nsbasg21
I00
sg22
Nsg23
I00
sg24
S'L'
sbsg25
(irule
FeatureMatrix
p4505
(dp4506
g34
(lp4507
(I01
g2885
tp4508
a(I00
g2887
tp4509
asg22
Nsbsg28
(irule
Guard
p4510
(dp4511
g18
I00
sg19
(lp4512
sg21
I00
sg22
Nsg23
I00
sg24
S'R'
sbsg45
(irule
FeatureMatrix
p4513
(dp4514
g34
(lp4515
sg22
Nsbsg22
Nsba(irule
Rule
p4516
(dp4517
g15
(irule
Guard
p4518
(dp4519
g18
I00
sg19
(lp4520
(irule
FeatureMatrix
p4521
(dp4522
g34
(lp4523
sg22
Nsba(irule
FeatureMatrix
p4524
(dp4525
g34
(lp4526
(I01
g2944
tp4527
a(I01
g2885
tp4528
asg22
Nsbasg21
I00
sg22
Nsg23
I00
sg24
S'L'
sbsg25
(irule
FeatureMatrix
p4529
(dp4530
g34
(lp4531
(I01
g2885
tp4532
a(I00
g2887
tp4533
asg22
Nsbsg28
(irule
Guard
p4534
(dp4535
g18
I00
sg19
(lp4536
sg21
I00
sg22
Nsg23
I00
sg24
S'R'
sbsg45
(irule
FeatureMatrix
p4537
(dp4538
g34
(lp4539
sg22
Nsbsg22
Nsba(irule
Rule
p4540
(dp4541
g15
(irule
Guard
p4542
(dp4543
g18
I00
sg19
(lp4544
(irule
FeatureMatrix
p4545
(dp4546
g34
(lp4547
(I00
g3221
tp4548
asg22
Nsba(irule
FeatureMatrix
p4549
(dp4550
g34
(lp4551
(I01
g3094
tp4552
asg22
Nsbasg21
I00
sg22
Nsg23
I00
sg24
S'L'
sbsg25
(irule
FeatureMatrix
p4553
(dp4554
g34
(lp4555
(I01
g2885
tp4556
a(I00
g2887
tp4557
asg22
Nsbsg28
(irule
Guard
p4558
(dp4559
g18
I00
sg19
(lp4560
sg21
I00
sg22
Nsg23
I00
sg24
S'R'
sbsg45
(irule
FeatureMatrix
p4561
(dp4562
g34
(lp4563
sg22
Nsbsg22
Nsba(irule
Rule
p4564
(dp4565
g15
(irule
Guard
p4566
(dp4567
g18
I00
sg19
(lp4568
(irule
ConstantPhoneme
p4569
(dp4570
S'p'
Vd
sba(irule
ConstantPhoneme
p4571
(dp4572
S'p'
g2881
sbasg21
I00
sg22
Nsg23
I00
sg24
S'L'
sbsg25
(irule
FeatureMatrix
p4573
(dp4574
g34
(lp4575
(I01
g2885
tp4576
a(I00
g2887
tp4577
asg22
Nsbsg28
(irule
Guard
p4578
(dp4579
g18
I00
sg19
(lp4580
sg21
I00
sg22
Nsg23
I00
sg24
S'R'
sbsg45
(irule
FeatureMatrix
p4581
(dp4582
g34
(lp4583
sg22
Nsbsg22
Nsba(irule
Rule
p4584
(dp4585
g15
(irule
Guard
p4586
(dp4587
g18
I00
sg19
(lp4588
(irule
FeatureMatrix
p4589
(dp4590
g34
(lp4591
sg22
Nsba(irule
ConstantPhoneme
p4592
(dp4593
S'p'
g2881
sbasg21
I00
sg22
Nsg23
I00
sg24
S'L'
sbsg25
(irule
FeatureMatrix
p4594
(dp4595
g34
(lp4596
(I00
g3280
tp4597
a(I01
g2885
tp4598
a(I00
g2887
tp4599
asg22
Nsbsg28
(irule
Guard
p4600
(dp4601
g18
I00
sg19
(lp4602
sg21
I00
sg22
Nsg23
I00
sg24
S'R'
sbsg45
(irule
FeatureMatrix
p4603
(dp4604
g34
(lp4605
sg22
Nsbsg22
Nsba(irule
Rule
p4606
(dp4607
g15
(irule
Guard
p4608
(dp4609
g18
I00
sg19
(lp4610
(irule
FeatureMatrix
p4611
(dp4612
g34
(lp4613
sg22
Nsba(irule
ConstantPhoneme
p4614
(dp4615
S'p'
g2881
sbasg21
I00
sg22
Nsg23
I00
sg24
S'L'
sbsg25
(irule
FeatureMatrix
p4616
(dp4617
g34
(lp4618
(I01
g2885
tp4619
a(I00
g2887
tp4620
asg22
Nsbsg28
(irule
Guard
p4621
(dp4622
g18
I00
sg19
(lp4623
sg21
I00
sg22
Nsg23
I00
sg24
S'R'
sbsg45
(irule
FeatureMatrix
p4624
(dp4625
g34
(lp4626
(I00
g3094
tp4627
asg22
Nsbsg22
Nsba(irule
Rule
p4628
(dp4629
g15
(irule
Guard
p4630
(dp4631
g18
I00
sg19
(lp4632
(irule
FeatureMatrix
p4633
(dp4634
g34
(lp4635
sg22
Nsba(irule
ConstantPhoneme
p4636
(dp4637
S'p'
g2881
sbasg21
I00
sg22
Nsg23
I00
sg24
S'L'
sbsg25
(irule
FeatureMatrix
p4638
(dp4639
g34
(lp4640
(I00
g3320
tp4641
a(I01
g2885
tp4642
a(I00
g2887
tp4643
asg22
Nsbsg28
(irule
Guard
p4644
(dp4645
g18
I00
sg19
(lp4646
sg21
I00
sg22
Nsg23
I00
sg24
S'R'
sbsg45
(irule
FeatureMatrix
p4647
(dp4648
g34
(lp4649
sg22
Nsbsg22
Nsba(irule
Rule
p4650
(dp4651
g15
(irule
Guard
p4652
(dp4653
g18
I00
sg19
(lp4654
(irule
FeatureMatrix
p4655
(dp4656
g34
(lp4657
(I00
g3066
tp4658
asg22
Nsba(irule
FeatureMatrix
p4659
(dp4660
g34
(lp4661
(I01
g2885
tp4662
asg22
Nsbasg21
I00
sg22
Nsg23
I00
sg24
S'L'
sbsg25
(irule
FeatureMatrix
p4663
(dp4664
g34
(lp4665
(I01
g2885
tp4666
a(I00
g2887
tp4667
asg22
Nsbsg28
(irule
Guard
p4668
(dp4669
g18
I00
sg19
(lp4670
sg21
I00
sg22
Nsg23
I00
sg24
S'R'
sbsg45
(irule
FeatureMatrix
p4671
(dp4672
g34
(lp4673
sg22
Nsbsg22
Nsba(irule
Rule
p4674
(dp4675
g15
(irule
Guard
p4676
(dp4677
g18
I00
sg19
(lp4678
(irule
FeatureMatrix
p4679
(dp4680
g34
(lp4681
sg22
Nsba(irule
ConstantPhoneme
p4682
(dp4683
S'p'
g2881
sbasg21
I00
sg22
Nsg23
I00
sg24
S'L'
sbsg25
(irule
FeatureMatrix
p4684
(dp4685
g34
(lp4686
(I00
g3300
tp4687
a(I01
g2885
tp4688
a(I00
g2887
tp4689
asg22
Nsbsg28
(irule
Guard
p4690
(dp4691
g18
I00
sg19
(lp4692
sg21
I00
sg22
Nsg23
I00
sg24
S'R'
sbsg45
(irule
FeatureMatrix
p4693
(dp4694
g34
(lp4695
sg22
Nsbsg22
Nsba(irule
Rule
p4696
(dp4697
g15
(irule
Guard
p4698
(dp4699
g18
I00
sg19
(lp4700
(irule
FeatureMatrix
p4701
(dp4702
g34
(lp4703
(I00
g3209
tp4704
asg22
Nsba(irule
FeatureMatrix
p4705
(dp4706
g34
(lp4707
(I01
g2885
tp4708
asg22
Nsbasg21
I00
sg22
Nsg23
I00
sg24
S'L'
sbsg25
(irule
FeatureMatrix
p4709
(dp4710
g34
(lp4711
(I01
g2885
tp4712
a(I00
g2887
tp4713
asg22
Nsbsg28
(irule
Guard
p4714
(dp4715
g18
I00
sg19
(lp4716
sg21
I00
sg22
Nsg23
I00
sg24
S'R'
sbsg45
(irule
FeatureMatrix
p4717
(dp4718
g34
(lp4719
sg22
Nsbsg22
Nsba(irule
Rule
p4720
(dp4721
g15
(irule
Guard
p4722
(dp4723
g18
I00
sg19
(lp4724
(irule
FeatureMatrix
p4725
(dp4726
g34
(lp4727
sg22
Nsba(irule
ConstantPhoneme
p4728
(dp4729
S'p'
g2881
sbasg21
I00
sg22
Nsg23
I00
sg24
S'L'
sbsg25
(irule
FeatureMatrix
p4730
(dp4731
g34
(lp4732
(I01
g2885
tp4733
a(I01
g3209
tp4734
a(I00
g2887
tp4735
asg22
Nsbsg28
(irule
Guard
p4736
(dp4737
g18
I00
sg19
(lp4738
sg21
I00
sg22
Nsg23
I00
sg24
S'R'
sbsg45
(irule
FeatureMatrix
p4739
(dp4740
g34
(lp4741
sg22
Nsbsg22
Nsba(irule
Rule
p4742
(dp4743
g15
(irule
Guard
p4744
(dp4745
g18
I00
sg19
(lp4746
(irule
FeatureMatrix
p4747
(dp4748
g34
(lp4749
(I00
g2944
tp4750
asg22
Nsba(irule
FeatureMatrix
p4751
(dp4752
g34
(lp4753
(I00
g2887
tp4754
asg22
Nsbasg21
I00
sg22
Nsg23
I00
sg24
S'L'
sbsg25
(irule
FeatureMatrix
p4755
(dp4756
g34
(lp4757
(I01
g2885
tp4758
a(I00
g2887
tp4759
asg22
Nsbsg28
(irule
Guard
p4760
(dp4761
g18
I00
sg19
(lp4762
sg21
I00
sg22
Nsg23
I00
sg24
S'R'
sbsg45
(irule
FeatureMatrix
p4763
(dp4764
g34
(lp4765
sg22
Nsbsg22
Nsba(irule
Rule
p4766
(dp4767
g15
(irule
Guard
p4768
(dp4769
g18
I00
sg19
(lp4770
(irule
FeatureMatrix
p4771
(dp4772
g34
(lp4773
sg22
Nsba(irule
ConstantPhoneme
p4774
(dp4775
S'p'
g2881
sbasg21
I00
sg22
Nsg23
I00
sg24
S'L'
sbsg25
(irule
FeatureMatrix
p4776
(dp4777
g34
(lp4778
(I01
g2885
tp4779
a(I00
g2887
tp4780
asg22
Nsbsg28
(irule
Guard
p4781
(dp4782
g18
I00
sg19
(lp4783
sg21
I00
sg22
Nsg23
I00
sg24
S'R'
sbsg45
(irule
FeatureMatrix
p4784
(dp4785
g34
(lp4786
(I00
g3300
tp4787
asg22
Nsbsg22
Nsba(irule
Rule
p4788
(dp4789
g15
(irule
Guard
p4790
(dp4791
g18
I00
sg19
(lp4792
(irule
FeatureMatrix
p4793
(dp4794
g34
(lp4795
sg22
Nsba(irule
ConstantPhoneme
p4796
(dp4797
S'p'
g2881
sbasg21
I00
sg22
Nsg23
I00
sg24
S'L'
sbsg25
(irule
FeatureMatrix
p4798
(dp4799
g34
(lp4800
(I01
g2885
tp4801
a(I00
g2887
tp4802
asg22
Nsbsg28
(irule
Guard
p4803
(dp4804
g18
I00
sg19
(lp4805
sg21
I00
sg22
Nsg23
I00
sg24
S'R'
sbsg45
(irule
FeatureMatrix
p4806
(dp4807
g34
(lp4808
(I01
g3066
tp4809
asg22
Nsbsg22
Nsba(irule
Rule
p4810
(dp4811
g15
(irule
Guard
p4812
(dp4813
g18
I00
sg19
(lp4814
(irule
FeatureMatrix
p4815
(dp4816
g34
(lp4817
sg22
Nsba(irule
FeatureMatrix
p4818
(dp4819
g34
(lp4820
(I00
g3797
tp4821
a(I01
g2885
tp4822
asg22
Nsbasg21
I00
sg22
Nsg23
I00
sg24
S'L'
sbsg25
(irule
FeatureMatrix
p4823
(dp4824
g34
(lp4825
(I01
g2885
tp4826
a(I00
g2887
tp4827
asg22
Nsbsg28
(irule
Guard
p4828
(dp4829
g18
I00
sg19
(lp4830
sg21
I00
sg22
Nsg23
I00
sg24
S'R'
sbsg45
(irule
FeatureMatrix
p4831
(dp4832
g34
(lp4833
sg22
Nsbsg22
Nsba(irule
Rule
p4834
(dp4835
g15
(irule
Guard
p4836
(dp4837
g18
I00
sg19
(lp4838
(irule
FeatureMatrix
p4839
(dp4840
g34
(lp4841
(I00
g2944
tp4842
asg22
Nsba(irule
FeatureMatrix
p4843
(dp4844
g34
(lp4845
(I00
g3797
tp4846
asg22
Nsbasg21
I00
sg22
Nsg23
I00
sg24
S'L'
sbsg25
(irule
FeatureMatrix
p4847
(dp4848
g34
(lp4849
(I01
g2885
tp4850
a(I00
g2887
tp4851
asg22
Nsbsg28
(irule
Guard
p4852
(dp4853
g18
I00
sg19
(lp4854
sg21
I00
sg22
Nsg23
I00
sg24
S'R'
sbsg45
(irule
FeatureMatrix
p4855
(dp4856
g34
(lp4857
sg22
Nsbsg22
Nsba(irule
Rule
p4858
(dp4859
g15
(irule
Guard
p4860
(dp4861
g18
I00
sg19
(lp4862
(irule
FeatureMatrix
p4863
(dp4864
g34
(lp4865
(I00
g2944
tp4866
a(I00
g2976
tp4867
a(I01
g2913
tp4868
asg22
Nsbasg21
I00
sg22
Nsg23
I00
sg24
S'L'
sbsg25
(irule
FeatureMatrix
p4869
(dp4870
g34
(lp4871
(I01
g2885
tp4872
a(I00
g2887
tp4873
asg22
Nsbsg28
(irule
Guard
p4874
(dp4875
g18
I00
sg19
(lp4876
sg21
I00
sg22
Nsg23
I00
sg24
S'R'
sbsg45
(irule
FeatureMatrix
p4877
(dp4878
g34
(lp4879
sg22
Nsbsg22
Nsba(irule
Rule
p4880
(dp4881
g15
(irule
Guard
p4882
(dp4883
g18
I00
sg19
(lp4884
(irule
FeatureMatrix
p4885
(dp4886
g34
(lp4887
sg22
Nsba(irule
ConstantPhoneme
p4888
(dp4889
S'p'
g2881
sbasg21
I00
sg22
Nsg23
I00
sg24
S'L'
sbsg25
(irule
FeatureMatrix
p4890
(dp4891
g34
(lp4892
(I01
g2885
tp4893
a(I00
g2887
tp4894
asg22
Nsbsg28
(irule
Guard
p4895
(dp4896
g18
I00
sg19
(lp4897
sg21
I00
sg22
Nsg23
I00
sg24
S'R'
sbsg45
(irule
FeatureMatrix
p4898
(dp4899
g34
(lp4900
(I00
g3221
tp4901
asg22
Nsbsg22
Nsba(irule
Rule
p4902
(dp4903
g15
(irule
Guard
p4904
(dp4905
g18
I00
sg19
(lp4906
(irule
FeatureMatrix
p4907
(dp4908
g34
(lp4909
sg22
Nsba(irule
FeatureMatrix
p4910
(dp4911
g34
(lp4912
(I01
g3066
tp4913
a(I01
g2885
tp4914
asg22
Nsbasg21
I00
sg22
Nsg23
I00
sg24
S'L'
sbsg25
(irule
FeatureMatrix
p4915
(dp4916
g34
(lp4917
(I01
g2885
tp4918
a(I00
g2887
tp4919
asg22
Nsbsg28
(irule
Guard
p4920
(dp4921
g18
I00
sg19
(lp4922
sg21
I00
sg22
Nsg23
I00
sg24
S'R'
sbsg45
(irule
FeatureMatrix
p4923
(dp4924
g34
(lp4925
sg22
Nsbsg22
Nsba(irule
Rule
p4926
(dp4927
g15
(irule
Guard
p4928
(dp4929
g18
I00
sg19
(lp4930
(irule
FeatureMatrix
p4931
(dp4932
g34
(lp4933
sg22
Nsba(irule
ConstantPhoneme
p4934
(dp4935
S'p'
g2881
sbasg21
I00
sg22
Nsg23
I00
sg24
S'L'
sbsg25
(irule
FeatureMatrix
p4936
(dp4937
g34
(lp4938
(I01
g2885
tp4939
a(I00
g2887
tp4940
asg22
Nsbsg28
(irule
Guard
p4941
(dp4942
g18
I00
sg19
(lp4943
sg21
I00
sg22
Nsg23
I00
sg24
S'R'
sbsg45
(irule
FeatureMatrix
p4944
(dp4945
g34
(lp4946
(I00
g2976
tp4947
asg22
Nsbsg22
Nsba(irule
Rule
p4948
(dp4949
g15
(irule
Guard
p4950
(dp4951
g18
I00
sg19
(lp4952
(irule
FeatureMatrix
p4953
(dp4954
g34
(lp4955
(I00
g3066
tp4956
a(I00
g3221
tp4957
a(I01
g3054
tp4958
asg22
Nsbasg21
I00
sg22
Nsg23
I00
sg24
S'L'
sbsg25
(irule
FeatureMatrix
p4959
(dp4960
g34
(lp4961
(I01
g2885
tp4962
a(I00
g2887
tp4963
asg22
Nsbsg28
(irule
Guard
p4964
(dp4965
g18
I00
sg19
(lp4966
sg21
I00
sg22
Nsg23
I00
sg24
S'R'
sbsg45
(irule
FeatureMatrix
p4967
(dp4968
g34
(lp4969
sg22
Nsbsg22
Nsba(irule
Rule
p4970
(dp4971
g15
(irule
Guard
p4972
(dp4973
g18
I00
sg19
(lp4974
(irule
FeatureMatrix
p4975
(dp4976
g34
(lp4977
sg22
Nsba(irule
ConstantPhoneme
p4978
(dp4979
S'p'
g2881
sbasg21
I00
sg22
Nsg23
I00
sg24
S'L'
sbsg25
(irule
FeatureMatrix
p4980
(dp4981
g34
(lp4982
(I01
g2885
tp4983
a(I00
g2887
tp4984
asg22
Nsbsg28
(irule
Guard
p4985
(dp4986
g18
I00
sg19
(lp4987
sg21
I00
sg22
Nsg23
I00
sg24
S'R'
sbsg45
(irule
FeatureMatrix
p4988
(dp4989
g34
(lp4990
(I00
g3241
tp4991
asg22
Nsbsg22
Nsbaa(lp4992
(irule
Rule
p4993
(dp4994
g15
(irule
Guard
p4995
(dp4996
g18
I00
sg19
(lp4997
sg21
I00
sg22
V
sg23
I00
sg24
S'L'
sbsg25
(irule
FeatureMatrix
p4998
(dp4999
g34
(lp5000
(I01
S'high'
p5001
tp5002
a(I00
S'low'
tp5003
asg22
V[ +high -low ]
p5004
sbsg28
(irule
Guard
p5005
(dp5006
g18
I00
sg19
(lp5007
(irule
FeatureMatrix
p5008
(dp5009
g34
(lp5010
sg22
V[  ]
p5011
sba(irule
FeatureMatrix
p5012
(dp5013
g34
(lp5014
(I01
g5001
tp5015
asg22
V[ +high ]
p5016
sbasg21
I00
sg22
V[  ] [ +high ]
p5017
sg23
I00
sg24
S'R'
sbsg45
(irule
FeatureMatrix
p5018
(dp5019
g34
(lp5020
(I01
S'vowel'
tp5021
asg22
V[ +vowel ]
p5022
sbsg22
V[ +vowel ] ---> [ +high -low ] /  _ [  ] [ +high ]
p5023
sba(irule
Rule
p5024
(dp5025
g15
(irule
Guard
p5026
(dp5027
g18
I00
sg19
(lp5028
sg21
I00
sg22
Nsg23
I00
sg24
S'L'
sbsg25
(irule
FeatureMatrix
p5029
(dp5030
g34
(lp5031
(I01
S'high'
p5032
tp5033
a(I00
S'low'
p5034
tp5035
asg22
Nsbsg28
(irule
Guard
p5036
(dp5037
g18
I00
sg19
(lp5038
(irule
FeatureMatrix
p5039
(dp5040
g34
(lp5041
sg22
Nsba(irule
FeatureMatrix
p5042
(dp5043
g34
(lp5044
(I00
S'nasal'
p5045
tp5046
a(I01
g5032
tp5047
asg22
Nsbasg21
I00
sg22
Nsg23
I00
sg24
S'R'
sbsg45
(irule
FeatureMatrix
p5048
(dp5049
g34
(lp5050
sg22
Nsbsg22
Nsba(irule
Rule
p5051
(dp5052
g15
(irule
Guard
p5053
(dp5054
g18
I00
sg19
(lp5055
sg21
I00
sg22
Nsg23
I00
sg24
S'L'
sbsg25
(irule
FeatureMatrix
p5056
(dp5057
g34
(lp5058
(I01
g5032
tp5059
a(I00
g5034
tp5060
asg22
Nsbsg28
(irule
Guard
p5061
(dp5062
g18
I00
sg19
(lp5063
(irule
FeatureMatrix
p5064
(dp5065
g34
(lp5066
sg22
Nsba(irule
FeatureMatrix
p5067
(dp5068
g34
(lp5069
(I01
S'continuant'
p5070
tp5071
a(I01
g5032
tp5072
asg22
Nsbasg21
I00
sg22
Nsg23
I00
sg24
S'R'
sbsg45
(irule
FeatureMatrix
p5073
(dp5074
g34
(lp5075
sg22
Nsbsg22
Nsba(irule
Rule
p5076
(dp5077
g15
(irule
Guard
p5078
(dp5079
g18
I00
sg19
(lp5080
sg21
I00
sg22
Nsg23
I00
sg24
S'L'
sbsg25
(irule
FeatureMatrix
p5081
(dp5082
g34
(lp5083
(I01
g5032
tp5084
a(I00
g5034
tp5085
asg22
Nsbsg28
(irule
Guard
p5086
(dp5087
g18
I00
sg19
(lp5088
(irule
FeatureMatrix
p5089
(dp5090
g34
(lp5091
(I00
S'tense'
p5092
tp5093
asg22
Nsba(irule
FeatureMatrix
p5094
(dp5095
g34
(lp5096
(I01
g5032
tp5097
asg22
Nsbasg21
I00
sg22
Nsg23
I00
sg24
S'R'
sbsg45
(irule
FeatureMatrix
p5098
(dp5099
g34
(lp5100
sg22
Nsbsg22
Nsba(irule
Rule
p5101
(dp5102
g15
(irule
Guard
p5103
(dp5104
g18
I00
sg19
(lp5105
sg21
I00
sg22
Nsg23
I00
sg24
S'L'
sbsg25
(irule
FeatureMatrix
p5106
(dp5107
g34
(lp5108
(I01
g5032
tp5109
a(I00
g5034
tp5110
asg22
Nsbsg28
(irule
Guard
p5111
(dp5112
g18
I00
sg19
(lp5113
(irule
FeatureMatrix
p5114
(dp5115
g34
(lp5116
sg22
Nsba(irule
FeatureMatrix
p5117
(dp5118
g34
(lp5119
(I01
g5032
tp5120
a(I01
S'vowel'
p5121
tp5122
asg22
Nsbasg21
I00
sg22
Nsg23
I00
sg24
S'R'
sbsg45
(irule
FeatureMatrix
p5123
(dp5124
g34
(lp5125
sg22
Nsbsg22
Nsba(irule
Rule
p5126
(dp5127
g15
(irule
Guard
p5128
(dp5129
g18
I00
sg19
(lp5130
sg21
I00
sg22
Nsg23
I00
sg24
S'L'
sbsg25
(irule
FeatureMatrix
p5131
(dp5132
g34
(lp5133
(I01
g5032
tp5134
a(I00
g5034
tp5135
asg22
Nsbsg28
(irule
Guard
p5136
(dp5137
g18
I00
sg19
(lp5138
(irule
FeatureMatrix
p5139
(dp5140
g34
(lp5141
(I00
g5121
tp5142
asg22
Nsba(irule
FeatureMatrix
p5143
(dp5144
g34
(lp5145
(I01
g5032
tp5146
asg22
Nsbasg21
I00
sg22
Nsg23
I00
sg24
S'R'
sbsg45
(irule
FeatureMatrix
p5147
(dp5148
g34
(lp5149
sg22
Nsbsg22
Nsba(irule
Rule
p5150
(dp5151
g15
(irule
Guard
p5152
(dp5153
g18
I00
sg19
(lp5154
sg21
I00
sg22
Nsg23
I00
sg24
S'L'
sbsg25
(irule
FeatureMatrix
p5155
(dp5156
g34
(lp5157
(I01
g5032
tp5158
a(I00
g5034
tp5159
asg22
Nsbsg28
(irule
Guard
p5160
(dp5161
g18
I00
sg19
(lp5162
(irule
FeatureMatrix
p5163
(dp5164
g34
(lp5165
sg22
Nsba(irule
FeatureMatrix
p5166
(dp5167
g34
(lp5168
(I01
g5032
tp5169
a(I01
g5092
tp5170
asg22
Nsbasg21
I00
sg22
Nsg23
I00
sg24
S'R'
sbsg45
(irule
FeatureMatrix
p5171
(dp5172
g34
(lp5173
sg22
Nsbsg22
Nsba(irule
Rule
p5174
(dp5175
g15
(irule
Guard
p5176
(dp5177
g18
I00
sg19
(lp5178
sg21
I00
sg22
Nsg23
I00
sg24
S'L'
sbsg25
(irule
FeatureMatrix
p5179
(dp5180
g34
(lp5181
(I01
g5032
tp5182
a(I00
g5034
tp5183
asg22
Nsbsg28
(irule
Guard
p5184
(dp5185
g18
I00
sg19
(lp5186
(irule
FeatureMatrix
p5187
(dp5188
g34
(lp5189
sg22
Nsba(irule
FeatureMatrix
p5190
(dp5191
g34
(lp5192
(I01
g5032
tp5193
asg22
Nsbasg21
I00
sg22
Nsg23
I00
sg24
S'R'
sbsg45
(irule
FeatureMatrix
p5194
(dp5195
g34
(lp5196
(I01
g5092
tp5197
asg22
Nsbsg22
Nsba(irule
Rule
p5198
(dp5199
g15
(irule
Guard
p5200
(dp5201
g18
I00
sg19
(lp5202
(irule
FeatureMatrix
p5203
(dp5204
g34
(lp5205
sg22
Nsbasg21
I00
sg22
Nsg23
I00
sg24
S'L'
sbsg25
(irule
FeatureMatrix
p5206
(dp5207
g34
(lp5208
(I01
g5032
tp5209
a(I00
g5034
tp5210
asg22
Nsbsg28
(irule
Guard
p5211
(dp5212
g18
I00
sg19
(lp5213
(irule
FeatureMatrix
p5214
(dp5215
g34
(lp5216
sg22
Nsba(irule
FeatureMatrix
p5217
(dp5218
g34
(lp5219
(I01
g5070
tp5220
a(I01
g5032
tp5221
asg22
Nsbasg21
I00
sg22
Nsg23
I00
sg24
S'R'
sbsg45
(irule
FeatureMatrix
p5222
(dp5223
g34
(lp5224
sg22
Nsbsg22
Nsba(irule
Rule
p5225
(dp5226
g15
(irule
Guard
p5227
(dp5228
g18
I00
sg19
(lp5229
sg21
I00
sg22
Nsg23
I00
sg24
S'L'
sbsg25
(irule
FeatureMatrix
p5230
(dp5231
g34
(lp5232
(I01
g5032
tp5233
a(I00
g5034
tp5234
asg22
Nsbsg28
(irule
Guard
p5235
(dp5236
g18
I01
sg19
(lp5237
(irule
FeatureMatrix
p5238
(dp5239
g34
(lp5240
sg22
Nsba(irule
FeatureMatrix
p5241
(dp5242
g34
(lp5243
(I01
g5070
tp5244
a(I00
g5034
tp5245
asg22
Nsbasg21
I00
sg22
Nsg23
I00
sg24
S'R'
sbsg45
(irule
FeatureMatrix
p5246
(dp5247
g34
(lp5248
sg22
Nsbsg22
Nsba(irule
Rule
p5249
(dp5250
g15
(irule
Guard
p5251
(dp5252
g18
I00
sg19
(lp5253
(irule
FeatureMatrix
p5254
(dp5255
g34
(lp5256
sg22
Nsbasg21
I00
sg22
Nsg23
I00
sg24
S'L'
sbsg25
(irule
FeatureMatrix
p5257
(dp5258
g34
(lp5259
(I01
g5032
tp5260
a(I00
g5034
tp5261
asg22
Nsbsg28
(irule
Guard
p5262
(dp5263
g18
I00
sg19
(lp5264
(irule
FeatureMatrix
p5265
(dp5266
g34
(lp5267
sg22
Nsba(irule
FeatureMatrix
p5268
(dp5269
g34
(lp5270
(I01
g5032
tp5271
a(I01
g5121
tp5272
asg22
Nsbasg21
I00
sg22
Nsg23
I00
sg24
S'R'
sbsg45
(irule
FeatureMatrix
p5273
(dp5274
g34
(lp5275
sg22
Nsbsg22
Nsba(irule
Rule
p5276
(dp5277
g15
(irule
Guard
p5278
(dp5279
g18
I00
sg19
(lp5280
sg21
I00
sg22
Nsg23
I00
sg24
S'L'
sbsg25
(irule
FeatureMatrix
p5281
(dp5282
g34
(lp5283
(I01
g5032
tp5284
a(I01
S'voice'
p5285
tp5286
a(I00
g5034
tp5287
asg22
Nsbsg28
(irule
Guard
p5288
(dp5289
g18
I00
sg19
(lp5290
(irule
FeatureMatrix
p5291
(dp5292
g34
(lp5293
sg22
Nsba(irule
FeatureMatrix
p5294
(dp5295
g34
(lp5296
(I01
g5032
tp5297
asg22
Nsbasg21
I00
sg22
Nsg23
I00
sg24
S'R'
sbsg45
(irule
FeatureMatrix
p5298
(dp5299
g34
(lp5300
(I01
g5092
tp5301
asg22
Nsbsg22
Nsba(irule
Rule
p5302
(dp5303
g15
(irule
Guard
p5304
(dp5305
g18
I00
sg19
(lp5306
sg21
I00
sg22
Nsg23
I00
sg24
S'L'
sbsg25
(irule
FeatureMatrix
p5307
(dp5308
g34
(lp5309
(I01
g5032
tp5310
a(I01
g5285
tp5311
a(I00
g5034
tp5312
asg22
Nsbsg28
(irule
Guard
p5313
(dp5314
g18
I00
sg19
(lp5315
(irule
FeatureMatrix
p5316
(dp5317
g34
(lp5318
sg22
Nsba(irule
FeatureMatrix
p5319
(dp5320
g34
(lp5321
(I01
g5070
tp5322
a(I01
g5032
tp5323
asg22
Nsbasg21
I00
sg22
Nsg23
I00
sg24
S'R'
sbsg45
(irule
FeatureMatrix
p5324
(dp5325
g34
(lp5326
sg22
Nsbsg22
Nsba(irule
Rule
p5327
(dp5328
g15
(irule
Guard
p5329
(dp5330
g18
I00
sg19
(lp5331
sg21
I00
sg22
Nsg23
I00
sg24
S'L'
sbsg25
(irule
FeatureMatrix
p5332
(dp5333
g34
(lp5334
(I01
g5032
tp5335
a(I00
g5034
tp5336
asg22
Nsbsg28
(irule
Guard
p5337
(dp5338
g18
I00
sg19
(lp5339
(irule
FeatureMatrix
p5340
(dp5341
g34
(lp5342
sg22
Nsba(irule
FeatureMatrix
p5343
(dp5344
g34
(lp5345
(I01
g5070
tp5346
a(I01
g5032
tp5347
a(I00
g5034
tp5348
asg22
Nsbasg21
I00
sg22
Nsg23
I00
sg24
S'R'
sbsg45
(irule
FeatureMatrix
p5349
(dp5350
g34
(lp5351
sg22
Nsbsg22
Nsba(irule
Rule
p5352
(dp5353
g15
(irule
Guard
p5354
(dp5355
g18
I00
sg19
(lp5356
sg21
I00
sg22
Nsg23
I00
sg24
S'L'
sbsg25
(irule
FeatureMatrix
p5357
(dp5358
g34
(lp5359
(I01
g5032
tp5360
a(I00
g5034
tp5361
asg22
Nsbsg28
(irule
Guard
p5362
(dp5363
g18
I01
sg19
(lp5364
(irule
FeatureMatrix
p5365
(dp5366
g34
(lp5367
sg22
Nsba(irule
FeatureMatrix
p5368
(dp5369
g34
(lp5370
(I01
g5070
tp5371
a(I01
g5032
tp5372
asg22
Nsbasg21
I00
sg22
Nsg23
I00
sg24
S'R'
sbsg45
(irule
FeatureMatrix
p5373
(dp5374
g34
(lp5375
sg22
Nsbsg22
Nsba(irule
Rule
p5376
(dp5377
g15
(irule
Guard
p5378
(dp5379
g18
I00
sg19
(lp5380
sg21
I00
sg22
Nsg23
I00
sg24
S'L'
sbsg25
(irule
FeatureMatrix
p5381
(dp5382
g34
(lp5383
(I01
g5032
tp5384
a(I00
g5034
tp5385
asg22
Nsbsg28
(irule
Guard
p5386
(dp5387
g18
I00
sg19
(lp5388
(irule
FeatureMatrix
p5389
(dp5390
g34
(lp5391
(I00
g5092
tp5392
a(I00
S'long'
p5393
tp5394
asg22
Nsba(irule
FeatureMatrix
p5395
(dp5396
g34
(lp5397
(I01
g5032
tp5398
asg22
Nsbasg21
I00
sg22
Nsg23
I00
sg24
S'R'
sbsg45
(irule
FeatureMatrix
p5399
(dp5400
g34
(lp5401
sg22
Nsbsg22
Nsba(irule
Rule
p5402
(dp5403
g15
(irule
Guard
p5404
(dp5405
g18
I00
sg19
(lp5406
sg21
I00
sg22
Nsg23
I00
sg24
S'L'
sbsg25
(irule
FeatureMatrix
p5407
(dp5408
g34
(lp5409
(I01
g5032
tp5410
a(I00
g5034
tp5411
asg22
Nsbsg28
(irule
Guard
p5412
(dp5413
g18
I00
sg19
(lp5414
(irule
FeatureMatrix
p5415
(dp5416
g34
(lp5417
sg22
Nsba(irule
FeatureMatrix
p5418
(dp5419
g34
(lp5420
(I01
g5032
tp5421
asg22
Nsbasg21
I00
sg22
Nsg23
I00
sg24
S'R'
sbsg45
(irule
FeatureMatrix
p5422
(dp5423
g34
(lp5424
(I00
S'anterior'
p5425
tp5426
a(I00
S'liquid'
p5427
tp5428
asg22
Nsbsg22
Nsba(irule
Rule
p5429
(dp5430
g15
(irule
Guard
p5431
(dp5432
g18
I00
sg19
(lp5433
sg21
I00
sg22
Nsg23
I00
sg24
S'L'
sbsg25
(irule
FeatureMatrix
p5434
(dp5435
g34
(lp5436
(I01
g5032
tp5437
a(I00
g5034
tp5438
asg22
Nsbsg28
(irule
Guard
p5439
(dp5440
g18
I01
sg19
(lp5441
(irule
FeatureMatrix
p5442
(dp5443
g34
(lp5444
sg22
Nsba(irule
FeatureMatrix
p5445
(dp5446
g34
(lp5447
(I01
g5121
tp5448
a(I00
g5034
tp5449
asg22
Nsbasg21
I00
sg22
Nsg23
I00
sg24
S'R'
sbsg45
(irule
FeatureMatrix
p5450
(dp5451
g34
(lp5452
sg22
Nsbsg22
Nsba(irule
Rule
p5453
(dp5454
g15
(irule
Guard
p5455
(dp5456
g18
I00
sg19
(lp5457
(irule
FeatureMatrix
p5458
(dp5459
g34
(lp5460
sg22
Nsbasg21
I00
sg22
Nsg23
I00
sg24
S'L'
sbsg25
(irule
FeatureMatrix
p5461
(dp5462
g34
(lp5463
(I01
g5032
tp5464
a(I00
g5034
tp5465
asg22
Nsbsg28
(irule
Guard
p5466
(dp5467
g18
I00
sg19
(lp5468
(irule
FeatureMatrix
p5469
(dp5470
g34
(lp5471
sg22
Nsba(irule
FeatureMatrix
p5472
(dp5473
g34
(lp5474
(I00
g5045
tp5475
a(I01
g5032
tp5476
asg22
Nsbasg21
I00
sg22
Nsg23
I00
sg24
S'R'
sbsg45
(irule
FeatureMatrix
p5477
(dp5478
g34
(lp5479
sg22
Nsbsg22
Nsba(irule
Rule
p5480
(dp5481
g15
(irule
Guard
p5482
(dp5483
g18
I00
sg19
(lp5484
(irule
FeatureMatrix
p5485
(dp5486
g34
(lp5487
sg22
Nsbasg21
I00
sg22
Nsg23
I00
sg24
S'L'
sbsg25
(irule
FeatureMatrix
p5488
(dp5489
g34
(lp5490
(I01
g5032
tp5491
a(I00
g5034
tp5492
asg22
Nsbsg28
(irule
Guard
p5493
(dp5494
g18
I00
sg19
(lp5495
(irule
FeatureMatrix
p5496
(dp5497
g34
(lp5498
(I00
g5121
tp5499
asg22
Nsba(irule
FeatureMatrix
p5500
(dp5501
g34
(lp5502
(I01
g5032
tp5503
asg22
Nsbasg21
I00
sg22
Nsg23
I00
sg24
S'R'
sbsg45
(irule
FeatureMatrix
p5504
(dp5505
g34
(lp5506
sg22
Nsbsg22
Nsba(irule
Rule
p5507
(dp5508
g15
(irule
Guard
p5509
(dp5510
g18
I00
sg19
(lp5511
(irule
FeatureMatrix
p5512
(dp5513
g34
(lp5514
sg22
Nsbasg21
I00
sg22
Nsg23
I00
sg24
S'L'
sbsg25
(irule
FeatureMatrix
p5515
(dp5516
g34
(lp5517
(I01
g5032
tp5518
a(I00
g5034
tp5519
asg22
Nsbsg28
(irule
Guard
p5520
(dp5521
g18
I00
sg19
(lp5522
(irule
FeatureMatrix
p5523
(dp5524
g34
(lp5525
(I00
g5092
tp5526
asg22
Nsba(irule
FeatureMatrix
p5527
(dp5528
g34
(lp5529
(I01
g5032
tp5530
asg22
Nsbasg21
I00
sg22
Nsg23
I00
sg24
S'R'
sbsg45
(irule
FeatureMatrix
p5531
(dp5532
g34
(lp5533
sg22
Nsbsg22
Nsba(irule
Rule
p5534
(dp5535
g15
(irule
Guard
p5536
(dp5537
g18
I00
sg19
(lp5538
sg21
I00
sg22
Nsg23
I00
sg24
S'L'
sbsg25
(irule
FeatureMatrix
p5539
(dp5540
g34
(lp5541
(I01
g5032
tp5542
a(I00
g5034
tp5543
asg22
Nsbsg28
(irule
Guard
p5544
(dp5545
g18
I00
sg19
(lp5546
(irule
FeatureMatrix
p5547
(dp5548
g34
(lp5549
sg22
Nsba(irule
FeatureMatrix
p5550
(dp5551
g34
(lp5552
(I01
g5032
tp5553
asg22
Nsbasg21
I00
sg22
Nsg23
I00
sg24
S'R'
sbsg45
(irule
FeatureMatrix
p5554
(dp5555
g34
(lp5556
(I01
g5121
tp5557
a(I01
g5285
tp5558
asg22
Nsbsg22
Nsba(irule
Rule
p5559
(dp5560
g15
(irule
Guard
p5561
(dp5562
g18
I00
sg19
(lp5563
(irule
FeatureMatrix
p5564
(dp5565
g34
(lp5566
sg22
Nsbasg21
I00
sg22
Nsg23
I00
sg24
S'L'
sbsg25
(irule
FeatureMatrix
p5567
(dp5568
g34
(lp5569
(I01
g5032
tp5570
a(I00
g5034
tp5571
asg22
Nsbsg28
(irule
Guard
p5572
(dp5573
g18
I00
sg19
(lp5574
(irule
FeatureMatrix
p5575
(dp5576
g34
(lp5577
sg22
Nsba(irule
FeatureMatrix
p5578
(dp5579
g34
(lp5580
(I01
g5032
tp5581
a(I01
g5092
tp5582
asg22
Nsbasg21
I00
sg22
Nsg23
I00
sg24
S'R'
sbsg45
(irule
FeatureMatrix
p5583
(dp5584
g34
(lp5585
sg22
Nsbsg22
Nsba(irule
Rule
p5586
(dp5587
g15
(irule
Guard
p5588
(dp5589
g18
I00
sg19
(lp5590
sg21
I00
sg22
Nsg23
I00
sg24
S'L'
sbsg25
(irule
FeatureMatrix
p5591
(dp5592
g34
(lp5593
(I01
g5032
tp5594
a(I00
g5034
tp5595
asg22
Nsbsg28
(irule
Guard
p5596
(dp5597
g18
I01
sg19
(lp5598
(irule
FeatureMatrix
p5599
(dp5600
g34
(lp5601
sg22
Nsba(irule
FeatureMatrix
p5602
(dp5603
g34
(lp5604
(I00
g5045
tp5605
a(I01
g5032
tp5606
asg22
Nsbasg21
I00
sg22
Nsg23
I00
sg24
S'R'
sbsg45
(irule
FeatureMatrix
p5607
(dp5608
g34
(lp5609
sg22
Nsbsg22
Nsba(irule
Rule
p5610
(dp5611
g15
(irule
Guard
p5612
(dp5613
g18
I00
sg19
(lp5614
(irule
FeatureMatrix
p5615
(dp5616
g34
(lp5617
sg22
Nsbasg21
I00
sg22
Nsg23
I00
sg24
S'L'
sbsg25
(irule
FeatureMatrix
p5618
(dp5619
g34
(lp5620
(I01
g5032
tp5621
a(I00
g5034
tp5622
asg22
Nsbsg28
(irule
Guard
p5623
(dp5624
g18
I00
sg19
(lp5625
(irule
FeatureMatrix
p5626
(dp5627
g34
(lp5628
sg22
Nsba(irule
FeatureMatrix
p5629
(dp5630
g34
(lp5631
(I01
g5032
tp5632
asg22
Nsbasg21
I00
sg22
Nsg23
I00
sg24
S'R'
sbsg45
(irule
FeatureMatrix
p5633
(dp5634
g34
(lp5635
(I01
g5121
tp5636
asg22
Nsbsg22
Nsba(irule
Rule
p5637
(dp5638
g15
(irule
Guard
p5639
(dp5640
g18
I00
sg19
(lp5641
sg21
I00
sg22
Nsg23
I00
sg24
S'L'
sbsg25
(irule
FeatureMatrix
p5642
(dp5643
g34
(lp5644
(I01
g5032
tp5645
a(I00
g5034
tp5646
asg22
Nsbsg28
(irule
Guard
p5647
(dp5648
g18
I00
sg19
(lp5649
(irule
FeatureMatrix
p5650
(dp5651
g34
(lp5652
(I00
S'palatal'
p5653
tp5654
asg22
Nsba(irule
FeatureMatrix
p5655
(dp5656
g34
(lp5657
(I01
g5070
tp5658
a(I01
g5032
tp5659
asg22
Nsbasg21
I00
sg22
Nsg23
I00
sg24
S'R'
sbsg45
(irule
FeatureMatrix
p5660
(dp5661
g34
(lp5662
sg22
Nsbsg22
Nsba(irule
Rule
p5663
(dp5664
g15
(irule
Guard
p5665
(dp5666
g18
I00
sg19
(lp5667
sg21
I00
sg22
Nsg23
I00
sg24
S'L'
sbsg25
(irule
FeatureMatrix
p5668
(dp5669
g34
(lp5670
(I01
g5032
tp5671
a(I00
g5034
tp5672
asg22
Nsbsg28
(irule
Guard
p5673
(dp5674
g18
I00
sg19
(lp5675
(irule
FeatureMatrix
p5676
(dp5677
g34
(lp5678
sg22
Nsba(irule
FeatureMatrix
p5679
(dp5680
g34
(lp5681
(I01
g5070
tp5682
a(I01
g5032
tp5683
asg22
Nsbasg21
I00
sg22
Nsg23
I00
sg24
S'R'
sbsg45
(irule
FeatureMatrix
p5684
(dp5685
g34
(lp5686
(I00
g5032
tp5687
asg22
Nsbsg22
Nsba(irule
Rule
p5688
(dp5689
g15
(irule
Guard
p5690
(dp5691
g18
I00
sg19
(lp5692
sg21
I00
sg22
Nsg23
I00
sg24
S'L'
sbsg25
(irule
FeatureMatrix
p5693
(dp5694
g34
(lp5695
(I01
g5032
tp5696
a(I00
S'sibilant'
p5697
tp5698
a(I00
g5034
tp5699
asg22
Nsbsg28
(irule
Guard
p5700
(dp5701
g18
I00
sg19
(lp5702
(irule
FeatureMatrix
p5703
(dp5704
g34
(lp5705
sg22
Nsba(irule
FeatureMatrix
p5706
(dp5707
g34
(lp5708
(I01
g5070
tp5709
a(I01
g5032
tp5710
asg22
Nsbasg21
I00
sg22
Nsg23
I00
sg24
S'R'
sbsg45
(irule
FeatureMatrix
p5711
(dp5712
g34
(lp5713
sg22
Nsbsg22
Nsba(irule
Rule
p5714
(dp5715
g15
(irule
Guard
p5716
(dp5717
g18
I00
sg19
(lp5718
(irule
FeatureMatrix
p5719
(dp5720
g34
(lp5721
(I00
g5121
tp5722
asg22
Nsbasg21
I00
sg22
Nsg23
I00
sg24
S'L'
sbsg25
(irule
FeatureMatrix
p5723
(dp5724
g34
(lp5725
(I01
g5032
tp5726
a(I00
g5034
tp5727
asg22
Nsbsg28
(irule
Guard
p5728
(dp5729
g18
I00
sg19
(lp5730
(irule
FeatureMatrix
p5731
(dp5732
g34
(lp5733
sg22
Nsba(irule
FeatureMatrix
p5734
(dp5735
g34
(lp5736
(I01
g5032
tp5737
asg22
Nsbasg21
I00
sg22
Nsg23
I00
sg24
S'R'
sbsg45
(irule
FeatureMatrix
p5738
(dp5739
g34
(lp5740
sg22
Nsbsg22
Nsba(irule
Rule
p5741
(dp5742
g15
(irule
Guard
p5743
(dp5744
g18
I00
sg19
(lp5745
(irule
FeatureMatrix
p5746
(dp5747
g34
(lp5748
(I00
g5285
tp5749
asg22
Nsbasg21
I00
sg22
Nsg23
I00
sg24
S'L'
sbsg25
(irule
FeatureMatrix
p5750
(dp5751
g34
(lp5752
(I01
g5032
tp5753
a(I00
g5034
tp5754
asg22
Nsbsg28
(irule
Guard
p5755
(dp5756
g18
I00
sg19
(lp5757
(irule
FeatureMatrix
p5758
(dp5759
g34
(lp5760
sg22
Nsba(irule
FeatureMatrix
p5761
(dp5762
g34
(lp5763
(I01
g5032
tp5764
asg22
Nsbasg21
I00
sg22
Nsg23
I00
sg24
S'R'
sbsg45
(irule
FeatureMatrix
p5765
(dp5766
g34
(lp5767
sg22
Nsbsg22
Nsba(irule
Rule
p5768
(dp5769
g15
(irule
Guard
p5770
(dp5771
g18
I00
sg19
(lp5772
sg21
I00
sg22
Nsg23
I00
sg24
S'L'
sbsg25
(irule
FeatureMatrix
p5773
(dp5774
g34
(lp5775
(I01
g5032
tp5776
a(I00
g5034
tp5777
asg22
Nsbsg28
(irule
Guard
p5778
(dp5779
g18
I00
sg19
(lp5780
(irule
FeatureMatrix
p5781
(dp5782
g34
(lp5783
(I00
g5092
tp5784
asg22
Nsba(irule
FeatureMatrix
p5785
(dp5786
g34
(lp5787
(I01
g5032
tp5788
asg22
Nsbasg21
I00
sg22
Nsg23
I00
sg24
S'R'
sbsg45
(irule
FeatureMatrix
p5789
(dp5790
g34
(lp5791
(I00
g5653
tp5792
asg22
Nsbsg22
Nsba(irule
Rule
p5793
(dp5794
g15
(irule
Guard
p5795
(dp5796
g18
I01
sg19
(lp5797
(irule
FeatureMatrix
p5798
(dp5799
g34
(lp5800
sg22
Nsbasg21
I00
sg22
Nsg23
I00
sg24
S'L'
sbsg25
(irule
FeatureMatrix
p5801
(dp5802
g34
(lp5803
(I01
g5032
tp5804
a(I00
g5034
tp5805
asg22
Nsbsg28
(irule
Guard
p5806
(dp5807
g18
I00
sg19
(lp5808
(irule
FeatureMatrix
p5809
(dp5810
g34
(lp5811
sg22
Nsba(irule
FeatureMatrix
p5812
(dp5813
g34
(lp5814
(I01
g5032
tp5815
asg22
Nsbasg21
I00
sg22
Nsg23
I00
sg24
S'R'
sbsg45
(irule
FeatureMatrix
p5816
(dp5817
g34
(lp5818
sg22
Nsbsg22
Nsba(irule
Rule
p5819
(dp5820
g15
(irule
Guard
p5821
(dp5822
g18
I00
sg19
(lp5823
sg21
I00
sg22
Nsg23
I00
sg24
S'L'
sbsg25
(irule
FeatureMatrix
p5824
(dp5825
g34
(lp5826
(I01
g5032
tp5827
a(I00
g5697
tp5828
a(I00
g5034
tp5829
asg22
Nsbsg28
(irule
Guard
p5830
(dp5831
g18
I00
sg19
(lp5832
(irule
FeatureMatrix
p5833
(dp5834
g34
(lp5835
sg22
Nsba(irule
FeatureMatrix
p5836
(dp5837
g34
(lp5838
(I01
g5032
tp5839
asg22
Nsbasg21
I00
sg22
Nsg23
I00
sg24
S'R'
sbsg45
(irule
FeatureMatrix
p5840
(dp5841
g34
(lp5842
(I01
g5121
tp5843
asg22
Nsbsg22
Nsba(irule
Rule
p5844
(dp5845
g15
(irule
Guard
p5846
(dp5847
g18
I00
sg19
(lp5848
(irule
FeatureMatrix
p5849
(dp5850
g34
(lp5851
(I00
g5092
tp5852
asg22
Nsbasg21
I00
sg22
Nsg23
I00
sg24
S'L'
sbsg25
(irule
FeatureMatrix
p5853
(dp5854
g34
(lp5855
(I01
g5032
tp5856
a(I00
g5034
tp5857
asg22
Nsbsg28
(irule
Guard
p5858
(dp5859
g18
I00
sg19
(lp5860
(irule
FeatureMatrix
p5861
(dp5862
g34
(lp5863
sg22
Nsba(irule
FeatureMatrix
p5864
(dp5865
g34
(lp5866
(I01
g5032
tp5867
asg22
Nsbasg21
I00
sg22
Nsg23
I00
sg24
S'R'
sbsg45
(irule
FeatureMatrix
p5868
(dp5869
g34
(lp5870
sg22
Nsbsg22
Nsba(irule
Rule
p5871
(dp5872
g15
(irule
Guard
p5873
(dp5874
g18
I00
sg19
(lp5875
(irule
FeatureMatrix
p5876
(dp5877
g34
(lp5878
sg22
Nsbasg21
I00
sg22
Nsg23
I00
sg24
S'L'
sbsg25
(irule
FeatureMatrix
p5879
(dp5880
g34
(lp5881
(I01
g5032
tp5882
a(I00
g5034
tp5883
asg22
Nsbsg28
(irule
Guard
p5884
(dp5885
g18
I00
sg19
(lp5886
(irule
FeatureMatrix
p5887
(dp5888
g34
(lp5889
sg22
Nsba(irule
FeatureMatrix
p5890
(dp5891
g34
(lp5892
(I01
g5032
tp5893
asg22
Nsbasg21
I00
sg22
Nsg23
I00
sg24
S'R'
sbsg45
(irule
FeatureMatrix
p5894
(dp5895
g34
(lp5896
(I01
g5092
tp5897
asg22
Nsbsg22
Nsba(irule
Rule
p5898
(dp5899
g15
(irule
Guard
p5900
(dp5901
g18
I00
sg19
(lp5902
sg21
I00
sg22
Nsg23
I00
sg24
S'L'
sbsg25
(irule
FeatureMatrix
p5903
(dp5904
g34
(lp5905
(I01
g5032
tp5906
a(I00
g5034
tp5907
asg22
Nsbsg28
(irule
Guard
p5908
(dp5909
g18
I00
sg19
(lp5910
(irule
FeatureMatrix
p5911
(dp5912
g34
(lp5913
(I00
S'back'
p5914
tp5915
asg22
Nsba(irule
FeatureMatrix
p5916
(dp5917
g34
(lp5918
(I01
g5070
tp5919
a(I01
g5032
tp5920
asg22
Nsbasg21
I00
sg22
Nsg23
I00
sg24
S'R'
sbsg45
(irule
FeatureMatrix
p5921
(dp5922
g34
(lp5923
sg22
Nsbsg22
Nsba(irule
Rule
p5924
(dp5925
g15
(irule
Guard
p5926
(dp5927
g18
I00
sg19
(lp5928
sg21
I00
sg22
Nsg23
I00
sg24
S'L'
sbsg25
(irule
FeatureMatrix
p5929
(dp5930
g34
(lp5931
(I01
g5032
tp5932
a(I00
g5034
tp5933
asg22
Nsbsg28
(irule
Guard
p5934
(dp5935
g18
I00
sg19
(lp5936
(irule
FeatureMatrix
p5937
(dp5938
g34
(lp5939
(I00
g5034
tp5940
asg22
Nsba(irule
FeatureMatrix
p5941
(dp5942
g34
(lp5943
(I01
g5070
tp5944
a(I01
g5032
tp5945
asg22
Nsbasg21
I00
sg22
Nsg23
I00
sg24
S'R'
sbsg45
(irule
FeatureMatrix
p5946
(dp5947
g34
(lp5948
sg22
Nsbsg22
Nsba(irule
Rule
p5949
(dp5950
g15
(irule
Guard
p5951
(dp5952
g18
I00
sg19
(lp5953
sg21
I00
sg22
Nsg23
I00
sg24
S'L'
sbsg25
(irule
FeatureMatrix
p5954
(dp5955
g34
(lp5956
(I01
g5032
tp5957
a(I00
g5034
tp5958
asg22
Nsbsg28
(irule
Guard
p5959
(dp5960
g18
I00
sg19
(lp5961
(irule
FeatureMatrix
p5962
(dp5963
g34
(lp5964
(I00
g5914
tp5965
asg22
Nsba(irule
FeatureMatrix
p5966
(dp5967
g34
(lp5968
(I00
g5045
tp5969
a(I01
g5032
tp5970
asg22
Nsbasg21
I00
sg22
Nsg23
I00
sg24
S'R'
sbsg45
(irule
FeatureMatrix
p5971
(dp5972
g34
(lp5973
sg22
Nsbsg22
Nsba(irule
Rule
p5974
(dp5975
g15
(irule
Guard
p5976
(dp5977
g18
I00
sg19
(lp5978
sg21
I00
sg22
Nsg23
I00
sg24
S'L'
sbsg25
(irule
FeatureMatrix
p5979
(dp5980
g34
(lp5981
(I01
g5032
tp5982
a(I00
g5034
tp5983
asg22
Nsbsg28
(irule
Guard
p5984
(dp5985
g18
I01
sg19
(lp5986
(irule
FeatureMatrix
p5987
(dp5988
g34
(lp5989
sg22
Nsba(irule
FeatureMatrix
p5990
(dp5991
g34
(lp5992
(I01
g5032
tp5993
asg22
Nsbasg21
I00
sg22
Nsg23
I00
sg24
S'R'
sbsg45
(irule
FeatureMatrix
p5994
(dp5995
g34
(lp5996
(I01
g5121
tp5997
asg22
Nsbsg22
Nsba(irule
Rule
p5998
(dp5999
g15
(irule
Guard
p6000
(dp6001
g18
I00
sg19
(lp6002
sg21
I00
sg22
Nsg23
I00
sg24
S'L'
sbsg25
(irule
FeatureMatrix
p6003
(dp6004
g34
(lp6005
(I01
g5032
tp6006
a(I00
g5034
tp6007
asg22
Nsbsg28
(irule
Guard
p6008
(dp6009
g18
I00
sg19
(lp6010
(irule
FeatureMatrix
p6011
(dp6012
g34
(lp6013
sg22
Nsba(irule
FeatureMatrix
p6014
(dp6015
g34
(lp6016
(I00
g5425
tp6017
a(I01
g5032
tp6018
asg22
Nsbasg21
I00
sg22
Nsg23
I00
sg24
S'R'
sbsg45
(irule
FeatureMatrix
p6019
(dp6020
g34
(lp6021
(I01
g5092
tp6022
asg22
Nsbsg22
Nsba(irule
Rule
p6023
(dp6024
g15
(irule
Guard
p6025
(dp6026
g18
I00
sg19
(lp6027
sg21
I00
sg22
Nsg23
I00
sg24
S'L'
sbsg25
(irule
FeatureMatrix
p6028
(dp6029
g34
(lp6030
(I01
g5032
tp6031
a(I00
g5034
tp6032
asg22
Nsbsg28
(irule
Guard
p6033
(dp6034
g18
I01
sg19
(lp6035
(irule
FeatureMatrix
p6036
(dp6037
g34
(lp6038
sg22
Nsba(irule
FeatureMatrix
p6039
(dp6040
g34
(lp6041
(I00
g5045
tp6042
a(I00
g5034
tp6043
asg22
Nsbasg21
I00
sg22
Nsg23
I00
sg24
S'R'
sbsg45
(irule
FeatureMatrix
p6044
(dp6045
g34
(lp6046
sg22
Nsbsg22
Nsba(irule
Rule
p6047
(dp6048
g15
(irule
Guard
p6049
(dp6050
g18
I00
sg19
(lp6051
sg21
I00
sg22
Nsg23
I00
sg24
S'L'
sbsg25
(irule
FeatureMatrix
p6052
(dp6053
g34
(lp6054
(I01
g5032
tp6055
a(I00
g5034
tp6056
asg22
Nsbsg28
(irule
Guard
p6057
(dp6058
g18
I00
sg19
(lp6059
(irule
FeatureMatrix
p6060
(dp6061
g34
(lp6062
sg22
Nsba(irule
FeatureMatrix
p6063
(dp6064
g34
(lp6065
(I01
g5070
tp6066
a(I00
g5653
tp6067
a(I01
g5032
tp6068
asg22
Nsbasg21
I00
sg22
Nsg23
I00
sg24
S'R'
sbsg45
(irule
FeatureMatrix
p6069
(dp6070
g34
(lp6071
sg22
Nsbsg22
Nsba(irule
Rule
p6072
(dp6073
g15
(irule
Guard
p6074
(dp6075
g18
I00
sg19
(lp6076
sg21
I00
sg22
Nsg23
I00
sg24
S'L'
sbsg25
(irule
FeatureMatrix
p6077
(dp6078
g34
(lp6079
(I01
g5032
tp6080
a(I01
g5121
tp6081
a(I00
g5034
tp6082
asg22
Nsbsg28
(irule
Guard
p6083
(dp6084
g18
I00
sg19
(lp6085
(irule
FeatureMatrix
p6086
(dp6087
g34
(lp6088
sg22
Nsba(irule
FeatureMatrix
p6089
(dp6090
g34
(lp6091
(I01
g5070
tp6092
a(I01
g5032
tp6093
asg22
Nsbasg21
I00
sg22
Nsg23
I00
sg24
S'R'
sbsg45
(irule
FeatureMatrix
p6094
(dp6095
g34
(lp6096
sg22
Nsbsg22
Nsba(irule
Rule
p6097
(dp6098
g15
(irule
Guard
p6099
(dp6100
g18
I00
sg19
(lp6101
sg21
I00
sg22
Nsg23
I00
sg24
S'L'
sbsg25
(irule
FeatureMatrix
p6102
(dp6103
g34
(lp6104
(I01
g5032
tp6105
a(I00
g5034
tp6106
asg22
Nsbsg28
(irule
Guard
p6107
(dp6108
g18
I01
sg19
(lp6109
(irule
FeatureMatrix
p6110
(dp6111
g34
(lp6112
sg22
Nsba(irule
FeatureMatrix
p6113
(dp6114
g34
(lp6115
(I01
g5032
tp6116
a(I01
g5121
tp6117
asg22
Nsbasg21
I00
sg22
Nsg23
I00
sg24
S'R'
sbsg45
(irule
FeatureMatrix
p6118
(dp6119
g34
(lp6120
sg22
Nsbsg22
Nsba(irule
Rule
p6121
(dp6122
g15
(irule
Guard
p6123
(dp6124
g18
I00
sg19
(lp6125
sg21
I00
sg22
Nsg23
I00
sg24
S'L'
sbsg25
(irule
FeatureMatrix
p6126
(dp6127
g34
(lp6128
(I01
g5032
tp6129
a(I00
g5034
tp6130
asg22
Nsbsg28
(irule
Guard
p6131
(dp6132
g18
I00
sg19
(lp6133
(irule
FeatureMatrix
p6134
(dp6135
g34
(lp6136
sg22
Nsba(irule
FeatureMatrix
p6137
(dp6138
g34
(lp6139
(I01
g5032
tp6140
a(I01
g5121
tp6141
asg22
Nsbasg21
I00
sg22
Nsg23
I00
sg24
S'R'
sbsg45
(irule
FeatureMatrix
p6142
(dp6143
g34
(lp6144
(I01
g5121
tp6145
asg22
Nsbsg22
Nsba(irule
Rule
p6146
(dp6147
g15
(irule
Guard
p6148
(dp6149
g18
I00
sg19
(lp6150
sg21
I00
sg22
Nsg23
I00
sg24
S'L'
sbsg25
(irule
FeatureMatrix
p6151
(dp6152
g34
(lp6153
(I01
g5032
tp6154
a(I00
g5034
tp6155
asg22
Nsbsg28
(irule
Guard
p6156
(dp6157
g18
I00
sg19
(lp6158
(irule
FeatureMatrix
p6159
(dp6160
g34
(lp6161
(I00
g5121
tp6162
asg22
Nsba(irule
FeatureMatrix
p6163
(dp6164
g34
(lp6165
(I01
g5070
tp6166
a(I01
g5032
tp6167
asg22
Nsbasg21
I00
sg22
Nsg23
I00
sg24
S'R'
sbsg45
(irule
FeatureMatrix
p6168
(dp6169
g34
(lp6170
sg22
Nsbsg22
Nsba(irule
Rule
p6171
(dp6172
g15
(irule
Guard
p6173
(dp6174
g18
I00
sg19
(lp6175
sg21
I00
sg22
Nsg23
I00
sg24
S'L'
sbsg25
(irule
FeatureMatrix
p6176
(dp6177
g34
(lp6178
(I01
g5032
tp6179
a(I00
g5034
tp6180
asg22
Nsbsg28
(irule
Guard
p6181
(dp6182
g18
I00
sg19
(lp6183
(irule
FeatureMatrix
p6184
(dp6185
g34
(lp6186
sg22
Nsba(irule
FeatureMatrix
p6187
(dp6188
g34
(lp6189
(I01
g5032
tp6190
a(I01
g5121
tp6191
a(I00
g5034
tp6192
asg22
Nsbasg21
I00
sg22
Nsg23
I00
sg24
S'R'
sbsg45
(irule
FeatureMatrix
p6193
(dp6194
g34
(lp6195
sg22
Nsbsg22
Nsba(irule
Rule
p6196
(dp6197
g15
(irule
Guard
p6198
(dp6199
g18
I00
sg19
(lp6200
sg21
I00
sg22
Nsg23
I00
sg24
S'L'
sbsg25
(irule
FeatureMatrix
p6201
(dp6202
g34
(lp6203
(I01
g5032
tp6204
a(I00
g5034
tp6205
asg22
Nsbsg28
(irule
Guard
p6206
(dp6207
g18
I01
sg19
(lp6208
(irule
FeatureMatrix
p6209
(dp6210
g34
(lp6211
(I00
g5092
tp6212
asg22
Nsba(irule
FeatureMatrix
p6213
(dp6214
g34
(lp6215
(I01
g5032
tp6216
asg22
Nsbasg21
I00
sg22
Nsg23
I00
sg24
S'R'
sbsg45
(irule
FeatureMatrix
p6217
(dp6218
g34
(lp6219
sg22
Nsbsg22
Nsba(irule
Rule
p6220
(dp6221
g15
(irule
Guard
p6222
(dp6223
g18
I00
sg19
(lp6224
sg21
I00
sg22
Nsg23
I00
sg24
S'L'
sbsg25
(irule
FeatureMatrix
p6225
(dp6226
g34
(lp6227
(I01
g5032
tp6228
a(I00
g5034
tp6229
asg22
Nsbsg28
(irule
Guard
p6230
(dp6231
g18
I00
sg19
(lp6232
(irule
FeatureMatrix
p6233
(dp6234
g34
(lp6235
(I00
S'rounded'
tp6236
asg22
Nsba(irule
FeatureMatrix
p6237
(dp6238
g34
(lp6239
(I01
g5070
tp6240
a(I01
g5032
tp6241
asg22
Nsbasg21
I00
sg22
Nsg23
I00
sg24
S'R'
sbsg45
(irule
FeatureMatrix
p6242
(dp6243
g34
(lp6244
sg22
Nsbsg22
Nsba(irule
Rule
p6245
(dp6246
g15
(irule
Guard
p6247
(dp6248
g18
I00
sg19
(lp6249
sg21
I00
sg22
Nsg23
I00
sg24
S'L'
sbsg25
(irule
FeatureMatrix
p6250
(dp6251
g34
(lp6252
(I01
g5032
tp6253
a(I00
g5034
tp6254
asg22
Nsbsg28
(irule
Guard
p6255
(dp6256
g18
I01
sg19
(lp6257
(irule
FeatureMatrix
p6258
(dp6259
g34
(lp6260
sg22
Nsba(irule
FeatureMatrix
p6261
(dp6262
g34
(lp6263
(I01
g5032
tp6264
asg22
Nsbasg21
I00
sg22
Nsg23
I00
sg24
S'R'
sbsg45
(irule
FeatureMatrix
p6265
(dp6266
g34
(lp6267
(I01
g5092
tp6268
asg22
Nsbsg22
Nsba(irule
Rule
p6269
(dp6270
g15
(irule
Guard
p6271
(dp6272
g18
I00
sg19
(lp6273
sg21
I00
sg22
Nsg23
I00
sg24
S'L'
sbsg25
(irule
FeatureMatrix
p6274
(dp6275
g34
(lp6276
(I01
g5032
tp6277
a(I00
g5034
tp6278
asg22
Nsbsg28
(irule
Guard
p6279
(dp6280
g18
I01
sg19
(lp6281
(irule
FeatureMatrix
p6282
(dp6283
g34
(lp6284
sg22
Nsba(irule
FeatureMatrix
p6285
(dp6286
g34
(lp6287
(I01
g5032
tp6288
a(I01
g5092
tp6289
asg22
Nsbasg21
I00
sg22
Nsg23
I00
sg24
S'R'
sbsg45
(irule
FeatureMatrix
p6290
(dp6291
g34
(lp6292
sg22
Nsbsg22
Nsba(irule
Rule
p6293
(dp6294
g15
(irule
Guard
p6295
(dp6296
g18
I00
sg19
(lp6297
sg21
I00
sg22
Nsg23
I00
sg24
S'L'
sbsg25
(irule
FeatureMatrix
p6298
(dp6299
g34
(lp6300
(I01
g5032
tp6301
a(I00
g5034
tp6302
asg22
Nsbsg28
(irule
Guard
p6303
(dp6304
g18
I00
sg19
(lp6305
(irule
FeatureMatrix
p6306
(dp6307
g34
(lp6308
sg22
Nsba(irule
FeatureMatrix
p6309
(dp6310
g34
(lp6311
(I01
g5032
tp6312
asg22
Nsbasg21
I00
sg22
Nsg23
I00
sg24
S'R'
sbsg45
(irule
FeatureMatrix
p6313
(dp6314
g34
(lp6315
(I01
g5121
tp6316
a(I00
g5697
tp6317
asg22
Nsbsg22
Nsba(irule
Rule
p6318
(dp6319
g15
(irule
Guard
p6320
(dp6321
g18
I00
sg19
(lp6322
sg21
I00
sg22
Nsg23
I00
sg24
S'L'
sbsg25
(irule
FeatureMatrix
p6323
(dp6324
g34
(lp6325
(I01
g5032
tp6326
a(I00
S'coronal'
p6327
tp6328
a(I00
g5034
tp6329
asg22
Nsbsg28
(irule
Guard
p6330
(dp6331
g18
I00
sg19
(lp6332
(irule
FeatureMatrix
p6333
(dp6334
g34
(lp6335
(I00
g5121
tp6336
asg22
Nsba(irule
FeatureMatrix
p6337
(dp6338
g34
(lp6339
(I01
g5032
tp6340
asg22
Nsbasg21
I00
sg22
Nsg23
I00
sg24
S'R'
sbsg45
(irule
FeatureMatrix
p6341
(dp6342
g34
(lp6343
sg22
Nsbsg22
Nsba(irule
Rule
p6344
(dp6345
g15
(irule
Guard
p6346
(dp6347
g18
I00
sg19
(lp6348
sg21
I00
sg22
Nsg23
I00
sg24
S'L'
sbsg25
(irule
FeatureMatrix
p6349
(dp6350
g34
(lp6351
(I00
g5425
tp6352
a(I01
g5032
tp6353
a(I00
g5034
tp6354
asg22
Nsbsg28
(irule
Guard
p6355
(dp6356
g18
I00
sg19
(lp6357
(irule
FeatureMatrix
p6358
(dp6359
g34
(lp6360
sg22
Nsba(irule
FeatureMatrix
p6361
(dp6362
g34
(lp6363
(I01
g5032
tp6364
asg22
Nsbasg21
I00
sg22
Nsg23
I00
sg24
S'R'
sbsg45
(irule
FeatureMatrix
p6365
(dp6366
g34
(lp6367
(I01
g5121
tp6368
asg22
Nsbsg22
Nsba(irule
Rule
p6369
(dp6370
g15
(irule
Guard
p6371
(dp6372
g18
I00
sg19
(lp6373
sg21
I00
sg22
Nsg23
I00
sg24
S'L'
sbsg25
(irule
FeatureMatrix
p6374
(dp6375
g34
(lp6376
(I01
g5032
tp6377
a(I00
g5034
tp6378
asg22
Nsbsg28
(irule
Guard
p6379
(dp6380
g18
I00
sg19
(lp6381
(irule
FeatureMatrix
p6382
(dp6383
g34
(lp6384
(I00
g5393
tp6385
asg22
Nsba(irule
FeatureMatrix
p6386
(dp6387
g34
(lp6388
(I01
g5032
tp6389
asg22
Nsbasg21
I00
sg22
Nsg23
I00
sg24
S'R'
sbsg45
(irule
FeatureMatrix
p6390
(dp6391
g34
(lp6392
(I01
g5121
tp6393
asg22
Nsbsg22
Nsba(irule
Rule
p6394
(dp6395
g15
(irule
Guard
p6396
(dp6397
g18
I00
sg19
(lp6398
sg21
I00
sg22
Nsg23
I00
sg24
S'L'
sbsg25
(irule
FeatureMatrix
p6399
(dp6400
g34
(lp6401
(I01
g5032
tp6402
a(I00
g5034
tp6403
asg22
Nsbsg28
(irule
Guard
p6404
(dp6405
g18
I00
sg19
(lp6406
(irule
FeatureMatrix
p6407
(dp6408
g34
(lp6409
sg22
Nsba(irule
FeatureMatrix
p6410
(dp6411
g34
(lp6412
(I01
g5070
tp6413
a(I01
g5032
tp6414
asg22
Nsbasg21
I00
sg22
Nsg23
I00
sg24
S'R'
sbsg45
(irule
FeatureMatrix
p6415
(dp6416
g34
(lp6417
(I01
g5092
tp6418
asg22
Nsbsg22
Nsba(irule
Rule
p6419
(dp6420
g15
(irule
Guard
p6421
(dp6422
g18
I00
sg19
(lp6423
sg21
I00
sg22
Nsg23
I00
sg24
S'L'
sbsg25
(irule
FeatureMatrix
p6424
(dp6425
g34
(lp6426
(I01
g5032
tp6427
a(I00
g5034
tp6428
asg22
Nsbsg28
(irule
Guard
p6429
(dp6430
g18
I00
sg19
(lp6431
(irule
FeatureMatrix
p6432
(dp6433
g34
(lp6434
(I00
g5092
tp6435
a(I00
g5034
tp6436
asg22
Nsba(irule
FeatureMatrix
p6437
(dp6438
g34
(lp6439
(I01
g5032
tp6440
asg22
Nsbasg21
I00
sg22
Nsg23
I00
sg24
S'R'
sbsg45
(irule
FeatureMatrix
p6441
(dp6442
g34
(lp6443
sg22
Nsbsg22
Nsba(irule
Rule
p6444
(dp6445
g15
(irule
Guard
p6446
(dp6447
g18
I00
sg19
(lp6448
sg21
I00
sg22
Nsg23
I00
sg24
S'L'
sbsg25
(irule
FeatureMatrix
p6449
(dp6450
g34
(lp6451
(I01
g5032
tp6452
a(I00
g6327
tp6453
a(I00
g5034
tp6454
asg22
Nsbsg28
(irule
Guard
p6455
(dp6456
g18
I00
sg19
(lp6457
(irule
FeatureMatrix
p6458
(dp6459
g34
(lp6460
sg22
Nsba(irule
FeatureMatrix
p6461
(dp6462
g34
(lp6463
(I01
g5070
tp6464
a(I01
g5032
tp6465
asg22
Nsbasg21
I00
sg22
Nsg23
I00
sg24
S'R'
sbsg45
(irule
FeatureMatrix
p6466
(dp6467
g34
(lp6468
sg22
Nsbsg22
Nsba(irule
Rule
p6469
(dp6470
g15
(irule
Guard
p6471
(dp6472
g18
I00
sg19
(lp6473
sg21
I00
sg22
Nsg23
I00
sg24
S'L'
sbsg25
(irule
FeatureMatrix
p6474
(dp6475
g34
(lp6476
(I00
g5425
tp6477
a(I01
g5032
tp6478
a(I00
g5034
tp6479
asg22
Nsbsg28
(irule
Guard
p6480
(dp6481
g18
I00
sg19
(lp6482
(irule
FeatureMatrix
p6483
(dp6484
g34
(lp6485
(I00
g5092
tp6486
asg22
Nsba(irule
FeatureMatrix
p6487
(dp6488
g34
(lp6489
(I01
g5032
tp6490
asg22
Nsbasg21
I00
sg22
Nsg23
I00
sg24
S'R'
sbsg45
(irule
FeatureMatrix
p6491
(dp6492
g34
(lp6493
sg22
Nsbsg22
Nsba(irule
Rule
p6494
(dp6495
g15
(irule
Guard
p6496
(dp6497
g18
I00
sg19
(lp6498
sg21
I00
sg22
Nsg23
I00
sg24
S'L'
sbsg25
(irule
FeatureMatrix
p6499
(dp6500
g34
(lp6501
(I01
g5032
tp6502
a(I00
g5034
tp6503
asg22
Nsbsg28
(irule
Guard
p6504
(dp6505
g18
I00
sg19
(lp6506
(irule
FeatureMatrix
p6507
(dp6508
g34
(lp6509
sg22
Nsba(irule
FeatureMatrix
p6510
(dp6511
g34
(lp6512
(I00
g5425
tp6513
a(I01
g5032
tp6514
asg22
Nsbasg21
I00
sg22
Nsg23
I00
sg24
S'R'
sbsg45
(irule
FeatureMatrix
p6515
(dp6516
g34
(lp6517
(I01
g5121
tp6518
asg22
Nsbsg22
Nsba(irule
Rule
p6519
(dp6520
g15
(irule
Guard
p6521
(dp6522
g18
I00
sg19
(lp6523
sg21
I00
sg22
Nsg23
I00
sg24
S'L'
sbsg25
(irule
FeatureMatrix
p6524
(dp6525
g34
(lp6526
(I01
g5032
tp6527
a(I00
g5034
tp6528
asg22
Nsbsg28
(irule
Guard
p6529
(dp6530
g18
I00
sg19
(lp6531
(irule
FeatureMatrix
p6532
(dp6533
g34
(lp6534
(I00
g5121
tp6535
asg22
Nsba(irule
FeatureMatrix
p6536
(dp6537
g34
(lp6538
(I01
g5032
tp6539
asg22
Nsbasg21
I00
sg22
Nsg23
I00
sg24
S'R'
sbsg45
(irule
FeatureMatrix
p6540
(dp6541
g34
(lp6542
(I00
g5032
tp6543
asg22
Nsbsg22
Nsba(irule
Rule
p6544
(dp6545
g15
(irule
Guard
p6546
(dp6547
g18
I00
sg19
(lp6548
sg21
I00
sg22
Nsg23
I00
sg24
S'L'
sbsg25
(irule
FeatureMatrix
p6549
(dp6550
g34
(lp6551
(I01
g5032
tp6552
a(I00
g5034
tp6553
asg22
Nsbsg28
(irule
Guard
p6554
(dp6555
g18
I00
sg19
(lp6556
(irule
FeatureMatrix
p6557
(dp6558
g34
(lp6559
(I00
g5121
tp6560
asg22
Nsba(irule
FeatureMatrix
p6561
(dp6562
g34
(lp6563
(I00
g5425
tp6564
a(I01
g5032
tp6565
asg22
Nsbasg21
I00
sg22
Nsg23
I00
sg24
S'R'
sbsg45
(irule
FeatureMatrix
p6566
(dp6567
g34
(lp6568
sg22
Nsbsg22
Nsba(irule
Rule
p6569
(dp6570
g15
(irule
Guard
p6571
(dp6572
g18
I00
sg19
(lp6573
sg21
I00
sg22
Nsg23
I00
sg24
S'L'
sbsg25
(irule
FeatureMatrix
p6574
(dp6575
g34
(lp6576
(I01
g5032
tp6577
a(I00
g5034
tp6578
asg22
Nsbsg28
(irule
Guard
p6579
(dp6580
g18
I00
sg19
(lp6581
(irule
FeatureMatrix
p6582
(dp6583
g34
(lp6584
(I00
g5121
tp6585
a(I00
g5034
tp6586
asg22
Nsba(irule
FeatureMatrix
p6587
(dp6588
g34
(lp6589
(I01
g5032
tp6590
asg22
Nsbasg21
I00
sg22
Nsg23
I00
sg24
S'R'
sbsg45
(irule
FeatureMatrix
p6591
(dp6592
g34
(lp6593
sg22
Nsbsg22
Nsba(irule
Rule
p6594
(dp6595
g15
(irule
Guard
p6596
(dp6597
g18
I00
sg19
(lp6598
sg21
I00
sg22
Nsg23
I00
sg24
S'L'
sbsg25
(irule
FeatureMatrix
p6599
(dp6600
g34
(lp6601
(I01
g5032
tp6602
a(I00
g5034
tp6603
asg22
Nsbsg28
(irule
Guard
p6604
(dp6605
g18
I00
sg19
(lp6606
(irule
FeatureMatrix
p6607
(dp6608
g34
(lp6609
sg22
Nsba(irule
FeatureMatrix
p6610
(dp6611
g34
(lp6612
(I01
g5032
tp6613
asg22
Nsbasg21
I00
sg22
Nsg23
I00
sg24
S'R'
sbsg45
(irule
FeatureMatrix
p6614
(dp6615
g34
(lp6616
(I01
g5092
tp6617
a(I00
g5697
tp6618
asg22
Nsbsg22
Nsba(irule
Rule
p6619
(dp6620
g15
(irule
Guard
p6621
(dp6622
g18
I00
sg19
(lp6623
sg21
I00
sg22
Nsg23
I00
sg24
S'L'
sbsg25
(irule
FeatureMatrix
p6624
(dp6625
g34
(lp6626
(I01
g5032
tp6627
a(I00
g5034
tp6628
asg22
Nsbsg28
(irule
Guard
p6629
(dp6630
g18
I00
sg19
(lp6631
(irule
FeatureMatrix
p6632
(dp6633
g34
(lp6634
(I00
g5393
tp6635
asg22
Nsba(irule
FeatureMatrix
p6636
(dp6637
g34
(lp6638
(I01
g5070
tp6639
a(I01
g5032
tp6640
asg22
Nsbasg21
I00
sg22
Nsg23
I00
sg24
S'R'
sbsg45
(irule
FeatureMatrix
p6641
(dp6642
g34
(lp6643
sg22
Nsbsg22
Nsba(irule
Rule
p6644
(dp6645
g15
(irule
Guard
p6646
(dp6647
g18
I00
sg19
(lp6648
sg21
I00
sg22
Nsg23
I00
sg24
S'L'
sbsg25
(irule
FeatureMatrix
p6649
(dp6650
g34
(lp6651
(I00
g5045
tp6652
a(I01
g5032
tp6653
a(I00
g5034
tp6654
asg22
Nsbsg28
(irule
Guard
p6655
(dp6656
g18
I00
sg19
(lp6657
(irule
FeatureMatrix
p6658
(dp6659
g34
(lp6660
sg22
Nsba(irule
FeatureMatrix
p6661
(dp6662
g34
(lp6663
(I01
g5070
tp6664
a(I01
g5032
tp6665
asg22
Nsbasg21
I00
sg22
Nsg23
I00
sg24
S'R'
sbsg45
(irule
FeatureMatrix
p6666
(dp6667
g34
(lp6668
sg22
Nsbsg22
Nsba(irule
Rule
p6669
(dp6670
g15
(irule
Guard
p6671
(dp6672
g18
I00
sg19
(lp6673
sg21
I00
sg22
Nsg23
I00
sg24
S'L'
sbsg25
(irule
FeatureMatrix
p6674
(dp6675
g34
(lp6676
(I00
g5425
tp6677
a(I01
g5032
tp6678
a(I00
g5034
tp6679
asg22
Nsbsg28
(irule
Guard
p6680
(dp6681
g18
I00
sg19
(lp6682
(irule
FeatureMatrix
p6683
(dp6684
g34
(lp6685
sg22
Nsba(irule
FeatureMatrix
p6686
(dp6687
g34
(lp6688
(I01
g5070
tp6689
a(I01
g5032
tp6690
asg22
Nsbasg21
I00
sg22
Nsg23
I00
sg24
S'R'
sbsg45
(irule
FeatureMatrix
p6691
(dp6692
g34
(lp6693
sg22
Nsbsg22
Nsba(irule
Rule
p6694
(dp6695
g15
(irule
Guard
p6696
(dp6697
g18
I00
sg19
(lp6698
sg21
I00
sg22
Nsg23
I00
sg24
S'L'
sbsg25
(irule
FeatureMatrix
p6699
(dp6700
g34
(lp6701
(I01
g5032
tp6702
a(I00
g5034
tp6703
asg22
Nsbsg28
(irule
Guard
p6704
(dp6705
g18
I00
sg19
(lp6706
(irule
FeatureMatrix
p6707
(dp6708
g34
(lp6709
sg22
Nsba(irule
FeatureMatrix
p6710
(dp6711
g34
(lp6712
(I01
g5070
tp6713
a(I01
g5032
tp6714
asg22
Nsbasg21
I00
sg22
Nsg23
I00
sg24
S'R'
sbsg45
(irule
FeatureMatrix
p6715
(dp6716
g34
(lp6717
(I00
g5697
tp6718
asg22
Nsbsg22
Nsba(irule
Rule
p6719
(dp6720
g15
(irule
Guard
p6721
(dp6722
g18
I00
sg19
(lp6723
sg21
I00
sg22
Nsg23
I00
sg24
S'L'
sbsg25
(irule
FeatureMatrix
p6724
(dp6725
g34
(lp6726
(I01
g5032
tp6727
a(I00
g5034
tp6728
asg22
Nsbsg28
(irule
Guard
p6729
(dp6730
g18
I01
sg19
(lp6731
(irule
FeatureMatrix
p6732
(dp6733
g34
(lp6734
(I00
g5121
tp6735
asg22
Nsba(irule
FeatureMatrix
p6736
(dp6737
g34
(lp6738
(I01
g5032
tp6739
asg22
Nsbasg21
I00
sg22
Nsg23
I00
sg24
S'R'
sbsg45
(irule
FeatureMatrix
p6740
(dp6741
g34
(lp6742
sg22
Nsbsg22
Nsba(irule
Rule
p6743
(dp6744
g15
(irule
Guard
p6745
(dp6746
g18
I00
sg19
(lp6747
sg21
I00
sg22
Nsg23
I00
sg24
S'L'
sbsg25
(irule
FeatureMatrix
p6748
(dp6749
g34
(lp6750
(I01
g5032
tp6751
a(I00
g5034
tp6752
asg22
Nsbsg28
(irule
Guard
p6753
(dp6754
g18
I00
sg19
(lp6755
(irule
FeatureMatrix
p6756
(dp6757
g34
(lp6758
sg22
Nsba(irule
FeatureMatrix
p6759
(dp6760
g34
(lp6761
(I01
g5032
tp6762
a(I01
g5121
tp6763
a(I01
g5285
tp6764
asg22
Nsbasg21
I00
sg22
Nsg23
I00
sg24
S'R'
sbsg45
(irule
FeatureMatrix
p6765
(dp6766
g34
(lp6767
sg22
Nsbsg22
Nsba(irule
Rule
p6768
(dp6769
g15
(irule
Guard
p6770
(dp6771
g18
I00
sg19
(lp6772
sg21
I00
sg22
Nsg23
I00
sg24
S'L'
sbsg25
(irule
FeatureMatrix
p6773
(dp6774
g34
(lp6775
(I01
g5032
tp6776
a(I00
g5034
tp6777
asg22
Nsbsg28
(irule
Guard
p6778
(dp6779
g18
I00
sg19
(lp6780
(irule
FeatureMatrix
p6781
(dp6782
g34
(lp6783
sg22
Nsba(irule
FeatureMatrix
p6784
(dp6785
g34
(lp6786
(I00
g5045
tp6787
a(I01
g5032
tp6788
a(I01
g5285
tp6789
asg22
Nsbasg21
I00
sg22
Nsg23
I00
sg24
S'R'
sbsg45
(irule
FeatureMatrix
p6790
(dp6791
g34
(lp6792
sg22
Nsbsg22
Nsba(irule
Rule
p6793
(dp6794
g15
(irule
Guard
p6795
(dp6796
g18
I00
sg19
(lp6797
sg21
I00
sg22
Nsg23
I00
sg24
S'L'
sbsg25
(irule
FeatureMatrix
p6798
(dp6799
g34
(lp6800
(I01
g5032
tp6801
a(I00
g5034
tp6802
asg22
Nsbsg28
(irule
Guard
p6803
(dp6804
g18
I00
sg19
(lp6805
(irule
FeatureMatrix
p6806
(dp6807
g34
(lp6808
(I00
g5034
tp6809
asg22
Nsba(irule
FeatureMatrix
p6810
(dp6811
g34
(lp6812
(I01
g5032
tp6813
asg22
Nsbasg21
I00
sg22
Nsg23
I00
sg24
S'R'
sbsg45
(irule
FeatureMatrix
p6814
(dp6815
g34
(lp6816
(I01
g5121
tp6817
asg22
Nsbsg22
Nsba(irule
Rule
p6818
(dp6819
g15
(irule
Guard
p6820
(dp6821
g18
I00
sg19
(lp6822
sg21
I00
sg22
Nsg23
I00
sg24
S'L'
sbsg25
(irule
FeatureMatrix
p6823
(dp6824
g34
(lp6825
(I01
g5032
tp6826
a(I00
g5034
tp6827
asg22
Nsbsg28
(irule
Guard
p6828
(dp6829
g18
I00
sg19
(lp6830
(irule
FeatureMatrix
p6831
(dp6832
g34
(lp6833
(I00
g5032
tp6834
asg22
Nsba(irule
FeatureMatrix
p6835
(dp6836
g34
(lp6837
(I01
g5070
tp6838
a(I01
g5032
tp6839
asg22
Nsbasg21
I00
sg22
Nsg23
I00
sg24
S'R'
sbsg45
(irule
FeatureMatrix
p6840
(dp6841
g34
(lp6842
sg22
Nsbsg22
Nsba(irule
Rule
p6843
(dp6844
g15
(irule
Guard
p6845
(dp6846
g18
I00
sg19
(lp6847
sg21
I00
sg22
Nsg23
I00
sg24
S'L'
sbsg25
(irule
FeatureMatrix
p6848
(dp6849
g34
(lp6850
(I01
g5032
tp6851
a(I00
g5034
tp6852
asg22
Nsbsg28
(irule
Guard
p6853
(dp6854
g18
I00
sg19
(lp6855
(irule
FeatureMatrix
p6856
(dp6857
g34
(lp6858
(I00
g5121
tp6859
asg22
Nsba(irule
FeatureMatrix
p6860
(dp6861
g34
(lp6862
(I00
g5045
tp6863
a(I01
g5032
tp6864
asg22
Nsbasg21
I00
sg22
Nsg23
I00
sg24
S'R'
sbsg45
(irule
FeatureMatrix
p6865
(dp6866
g34
(lp6867
sg22
Nsbsg22
Nsba(irule
Rule
p6868
(dp6869
g15
(irule
Guard
p6870
(dp6871
g18
I00
sg19
(lp6872
sg21
I00
sg22
Nsg23
I00
sg24
S'L'
sbsg25
(irule
FeatureMatrix
p6873
(dp6874
g34
(lp6875
(I01
g5032
tp6876
a(I00
g5034
tp6877
asg22
Nsbsg28
(irule
Guard
p6878
(dp6879
g18
I00
sg19
(lp6880
(irule
FeatureMatrix
p6881
(dp6882
g34
(lp6883
sg22
Nsba(irule
FeatureMatrix
p6884
(dp6885
g34
(lp6886
(I01
g5070
tp6887
a(I01
S'sonorant'
tp6888
a(I01
g5032
tp6889
asg22
Nsbasg21
I00
sg22
Nsg23
I00
sg24
S'R'
sbsg45
(irule
FeatureMatrix
p6890
(dp6891
g34
(lp6892
sg22
Nsbsg22
Nsba(irule
Rule
p6893
(dp6894
g15
(irule
Guard
p6895
(dp6896
g18
I00
sg19
(lp6897
sg21
I00
sg22
Nsg23
I00
sg24
S'L'
sbsg25
(irule
FeatureMatrix
p6898
(dp6899
g34
(lp6900
(I01
g5032
tp6901
a(I00
g5034
tp6902
asg22
Nsbsg28
(irule
Guard
p6903
(dp6904
g18
I00
sg19
(lp6905
(irule
FeatureMatrix
p6906
(dp6907
g34
(lp6908
sg22
Nsba(irule
FeatureMatrix
p6909
(dp6910
g34
(lp6911
(I01
g5070
tp6912
a(I01
g5032
tp6913
asg22
Nsbasg21
I00
sg22
Nsg23
I00
sg24
S'R'
sbsg45
(irule
FeatureMatrix
p6914
(dp6915
g34
(lp6916
(I01
g5285
tp6917
asg22
Nsbsg22
Nsba(irule
Rule
p6918
(dp6919
g15
(irule
Guard
p6920
(dp6921
g18
I00
sg19
(lp6922
sg21
I00
sg22
Nsg23
I00
sg24
S'L'
sbsg25
(irule
FeatureMatrix
p6923
(dp6924
g34
(lp6925
(I01
g5032
tp6926
a(I00
g5034
tp6927
asg22
Nsbsg28
(irule
Guard
p6928
(dp6929
g18
I00
sg19
(lp6930
(irule
FeatureMatrix
p6931
(dp6932
g34
(lp6933
sg22
Nsba(irule
FeatureMatrix
p6934
(dp6935
g34
(lp6936
(I00
g5425
tp6937
a(I01
g5070
tp6938
a(I01
g5032
tp6939
asg22
Nsbasg21
I00
sg22
Nsg23
I00
sg24
S'R'
sbsg45
(irule
FeatureMatrix
p6940
(dp6941
g34
(lp6942
sg22
Nsbsg22
Nsba(irule
Rule
p6943
(dp6944
g15
(irule
Guard
p6945
(dp6946
g18
I00
sg19
(lp6947
sg21
I00
sg22
Nsg23
I00
sg24
S'L'
sbsg25
(irule
FeatureMatrix
p6948
(dp6949
g34
(lp6950
(I01
g5032
tp6951
a(I00
g5034
tp6952
asg22
Nsbsg28
(irule
Guard
p6953
(dp6954
g18
I00
sg19
(lp6955
(irule
FeatureMatrix
p6956
(dp6957
g34
(lp6958
sg22
Nsba(irule
FeatureMatrix
p6959
(dp6960
g34
(lp6961
(I01
g5070
tp6962
a(I01
g5032
tp6963
a(I01
g5285
tp6964
asg22
Nsbasg21
I00
sg22
Nsg23
I00
sg24
S'R'
sbsg45
(irule
FeatureMatrix
p6965
(dp6966
g34
(lp6967
sg22
Nsbsg22
Nsba(irule
Rule
p6968
(dp6969
g15
(irule
Guard
p6970
(dp6971
g18
I00
sg19
(lp6972
sg21
I00
sg22
Nsg23
I00
sg24
S'L'
sbsg25
(irule
FeatureMatrix
p6973
(dp6974
g34
(lp6975
(I01
g5032
tp6976
a(I00
g5034
tp6977
asg22
Nsbsg28
(irule
Guard
p6978
(dp6979
g18
I01
sg19
(lp6980
(irule
FeatureMatrix
p6981
(dp6982
g34
(lp6983
(I00
g5092
tp6984
asg22
Nsba(irule
FeatureMatrix
p6985
(dp6986
g34
(lp6987
(I00
g5034
tp6988
asg22
Nsbasg21
I00
sg22
Nsg23
I00
sg24
S'R'
sbsg45
(irule
FeatureMatrix
p6989
(dp6990
g34
(lp6991
sg22
Nsbsg22
Nsba(irule
Rule
p6992
(dp6993
g15
(irule
Guard
p6994
(dp6995
g18
I00
sg19
(lp6996
sg21
I00
sg22
Nsg23
I00
sg24
S'L'
sbsg25
(irule
FeatureMatrix
p6997
(dp6998
g34
(lp6999
(I01
g5032
tp7000
a(I00
g5034
tp7001
asg22
Nsbsg28
(irule
Guard
p7002
(dp7003
g18
I00
sg19
(lp7004
(irule
FeatureMatrix
p7005
(dp7006
g34
(lp7007
(I00
g5092
tp7008
asg22
Nsba(irule
FeatureMatrix
p7009
(dp7010
g34
(lp7011
(I00
g5425
tp7012
a(I01
g5032
tp7013
asg22
Nsbasg21
I00
sg22
Nsg23
I00
sg24
S'R'
sbsg45
(irule
FeatureMatrix
p7014
(dp7015
g34
(lp7016
sg22
Nsbsg22
Nsba(irule
Rule
p7017
(dp7018
g15
(irule
Guard
p7019
(dp7020
g18
I00
sg19
(lp7021
sg21
I00
sg22
Nsg23
I00
sg24
S'L'
sbsg25
(irule
FeatureMatrix
p7022
(dp7023
g34
(lp7024
(I01
g5032
tp7025
a(I00
g5034
tp7026
asg22
Nsbsg28
(irule
Guard
p7027
(dp7028
g18
I00
sg19
(lp7029
(irule
FeatureMatrix
p7030
(dp7031
g34
(lp7032
(I00
g5032
tp7033
a(I00
g5092
tp7034
asg22
Nsba(irule
FeatureMatrix
p7035
(dp7036
g34
(lp7037
(I01
g5032
tp7038
asg22
Nsbasg21
I00
sg22
Nsg23
I00
sg24
S'R'
sbsg45
(irule
FeatureMatrix
p7039
(dp7040
g34
(lp7041
sg22
Nsbsg22
Nsba(irule
Rule
p7042
(dp7043
g15
(irule
Guard
p7044
(dp7045
g18
I00
sg19
(lp7046
sg21
I00
sg22
Nsg23
I00
sg24
S'L'
sbsg25
(irule
FeatureMatrix
p7047
(dp7048
g34
(lp7049
(I01
g5032
tp7050
a(I00
g5034
tp7051
asg22
Nsbsg28
(irule
Guard
p7052
(dp7053
g18
I00
sg19
(lp7054
(irule
FeatureMatrix
p7055
(dp7056
g34
(lp7057
sg22
Nsba(irule
FeatureMatrix
p7058
(dp7059
g34
(lp7060
(I00
g5427
tp7061
a(I01
g5070
tp7062
a(I01
g5032
tp7063
asg22
Nsbasg21
I00
sg22
Nsg23
I00
sg24
S'R'
sbsg45
(irule
FeatureMatrix
p7064
(dp7065
g34
(lp7066
sg22
Nsbsg22
Nsba(irule
Rule
p7067
(dp7068
g15
(irule
Guard
p7069
(dp7070
g18
I00
sg19
(lp7071
sg21
I00
sg22
Nsg23
I00
sg24
S'L'
sbsg25
(irule
FeatureMatrix
p7072
(dp7073
g34
(lp7074
(I01
g5032
tp7075
a(I00
g5034
tp7076
asg22
Nsbsg28
(irule
Guard
p7077
(dp7078
g18
I00
sg19
(lp7079
(irule
FeatureMatrix
p7080
(dp7081
g34
(lp7082
sg22
Nsba(irule
FeatureMatrix
p7083
(dp7084
g34
(lp7085
(I01
g5070
tp7086
a(I01
g5032
tp7087
asg22
Nsbasg21
I00
sg22
Nsg23
I00
sg24
S'R'
sbsg45
(irule
FeatureMatrix
p7088
(dp7089
g34
(lp7090
(I00
g6327
tp7091
asg22
Nsbsg22
Nsba(irule
Rule
p7092
(dp7093
g15
(irule
Guard
p7094
(dp7095
g18
I00
sg19
(lp7096
sg21
I00
sg22
Nsg23
I00
sg24
S'L'
sbsg25
(irule
FeatureMatrix
p7097
(dp7098
g34
(lp7099
(I01
g5032
tp7100
a(I00
g5034
tp7101
asg22
Nsbsg28
(irule
Guard
p7102
(dp7103
g18
I00
sg19
(lp7104
(irule
FeatureMatrix
p7105
(dp7106
g34
(lp7107
sg22
Nsba(irule
FeatureMatrix
p7108
(dp7109
g34
(lp7110
(I01
g5070
tp7111
a(I01
g5032
tp7112
asg22
Nsbasg21
I00
sg22
Nsg23
I00
sg24
S'R'
sbsg45
(irule
FeatureMatrix
p7113
(dp7114
g34
(lp7115
(I00
g5653
tp7116
asg22
Nsbsg22
Nsba(irule
Rule
p7117
(dp7118
g15
(irule
Guard
p7119
(dp7120
g18
I00
sg19
(lp7121
sg21
I00
sg22
Nsg23
I00
sg24
S'L'
sbsg25
(irule
FeatureMatrix
p7122
(dp7123
g34
(lp7124
(I01
g5032
tp7125
a(I00
g5034
tp7126
asg22
Nsbsg28
(irule
Guard
p7127
(dp7128
g18
I00
sg19
(lp7129
(irule
FeatureMatrix
p7130
(dp7131
g34
(lp7132
(I00
g5032
tp7133
asg22
Nsba(irule
FeatureMatrix
p7134
(dp7135
g34
(lp7136
(I00
g5045
tp7137
a(I01
g5032
tp7138
asg22
Nsbasg21
I00
sg22
Nsg23
I00
sg24
S'R'
sbsg45
(irule
FeatureMatrix
p7139
(dp7140
g34
(lp7141
sg22
Nsbsg22
Nsba(irule
Rule
p7142
(dp7143
g15
(irule
Guard
p7144
(dp7145
g18
I00
sg19
(lp7146
sg21
I00
sg22
Nsg23
I00
sg24
S'L'
sbsg25
(irule
FeatureMatrix
p7147
(dp7148
g34
(lp7149
(I01
g5032
tp7150
a(I00
g5034
tp7151
asg22
Nsbsg28
(irule
Guard
p7152
(dp7153
g18
I00
sg19
(lp7154
(irule
FeatureMatrix
p7155
(dp7156
g34
(lp7157
sg22
Nsba(irule
FeatureMatrix
p7158
(dp7159
g34
(lp7160
(I01
g5032
tp7161
a(I01
g5121
tp7162
asg22
Nsbasg21
I00
sg22
Nsg23
I00
sg24
S'R'
sbsg45
(irule
FeatureMatrix
p7163
(dp7164
g34
(lp7165
(I01
g5285
tp7166
asg22
Nsbsg22
Nsba(irule
Rule
p7167
(dp7168
g15
(irule
Guard
p7169
(dp7170
g18
I00
sg19
(lp7171
sg21
I00
sg22
Nsg23
I00
sg24
S'L'
sbsg25
(irule
FeatureMatrix
p7172
(dp7173
g34
(lp7174
(I01
g5032
tp7175
a(I01
g5092
tp7176
a(I00
g5034
tp7177
asg22
Nsbsg28
(irule
Guard
p7178
(dp7179
g18
I00
sg19
(lp7180
(irule
FeatureMatrix
p7181
(dp7182
g34
(lp7183
sg22
Nsba(irule
FeatureMatrix
p7184
(dp7185
g34
(lp7186
(I01
g5070
tp7187
a(I01
g5032
tp7188
asg22
Nsbasg21
I00
sg22
Nsg23
I00
sg24
S'R'
sbsg45
(irule
FeatureMatrix
p7189
(dp7190
g34
(lp7191
sg22
Nsbsg22
Nsba(irule
Rule
p7192
(dp7193
g15
(irule
Guard
p7194
(dp7195
g18
I00
sg19
(lp7196
sg21
I00
sg22
Nsg23
I00
sg24
S'L'
sbsg25
(irule
FeatureMatrix
p7197
(dp7198
g34
(lp7199
(I01
g5032
tp7200
a(I00
g5034
tp7201
asg22
Nsbsg28
(irule
Guard
p7202
(dp7203
g18
I00
sg19
(lp7204
(irule
FeatureMatrix
p7205
(dp7206
g34
(lp7207
sg22
Nsba(irule
FeatureMatrix
p7208
(dp7209
g34
(lp7210
(I01
g5032
tp7211
asg22
Nsbasg21
I00
sg22
Nsg23
I00
sg24
S'R'
sbsg45
(irule
FeatureMatrix
p7212
(dp7213
g34
(lp7214
(I01
g5070
tp7215
a(I00
g6327
tp7216
asg22
Nsbsg22
Nsba(irule
Rule
p7217
(dp7218
g15
(irule
Guard
p7219
(dp7220
g18
I00
sg19
(lp7221
sg21
I00
sg22
Nsg23
I00
sg24
S'L'
sbsg25
(irule
FeatureMatrix
p7222
(dp7223
g34
(lp7224
(I01
g5032
tp7225
a(I00
g5034
tp7226
asg22
Nsbsg28
(irule
Guard
p7227
(dp7228
g18
I00
sg19
(lp7229
(irule
FeatureMatrix
p7230
(dp7231
g34
(lp7232
sg22
Nsba(irule
FeatureMatrix
p7233
(dp7234
g34
(lp7235
(I01
g5070
tp7236
a(I01
g5032
tp7237
a(I00
g5697
tp7238
asg22
Nsbasg21
I00
sg22
Nsg23
I00
sg24
S'R'
sbsg45
(irule
FeatureMatrix
p7239
(dp7240
g34
(lp7241
sg22
Nsbsg22
Nsba(irule
Rule
p7242
(dp7243
g15
(irule
Guard
p7244
(dp7245
g18
I00
sg19
(lp7246
sg21
I00
sg22
Nsg23
I00
sg24
S'L'
sbsg25
(irule
FeatureMatrix
p7247
(dp7248
g34
(lp7249
(I01
g5032
tp7250
a(I00
g5034
tp7251
asg22
Nsbsg28
(irule
Guard
p7252
(dp7253
g18
I00
sg19
(lp7254
(irule
FeatureMatrix
p7255
(dp7256
g34
(lp7257
sg22
Nsba(irule
FeatureMatrix
p7258
(dp7259
g34
(lp7260
(I01
g5032
tp7261
asg22
Nsbasg21
I00
sg22
Nsg23
I00
sg24
S'R'
sbsg45
(irule
FeatureMatrix
p7262
(dp7263
g34
(lp7264
(I00
g6327
tp7265
a(I01
g5092
tp7266
asg22
Nsbsg22
Nsba(irule
Rule
p7267
(dp7268
g15
(irule
Guard
p7269
(dp7270
g18
I00
sg19
(lp7271
sg21
I00
sg22
Nsg23
I00
sg24
S'L'
sbsg25
(irule
FeatureMatrix
p7272
(dp7273
g34
(lp7274
(I01
g5032
tp7275
a(I00
g5034
tp7276
asg22
Nsbsg28
(irule
Guard
p7277
(dp7278
g18
I00
sg19
(lp7279
(irule
FeatureMatrix
p7280
(dp7281
g34
(lp7282
sg22
Nsba(irule
FeatureMatrix
p7283
(dp7284
g34
(lp7285
(I01
g5070
tp7286
a(I00
S'lateral'
tp7287
a(I01
g5032
tp7288
asg22
Nsbasg21
I00
sg22
Nsg23
I00
sg24
S'R'
sbsg45
(irule
FeatureMatrix
p7289
(dp7290
g34
(lp7291
sg22
Nsbsg22
Nsba(irule
Rule
p7292
(dp7293
g15
(irule
Guard
p7294
(dp7295
g18
I00
sg19
(lp7296
sg21
I00
sg22
Nsg23
I00
sg24
S'L'
sbsg25
(irule
FeatureMatrix
p7297
(dp7298
g34
(lp7299
(I01
g5032
tp7300
a(I00
g5034
tp7301
asg22
Nsbsg28
(irule
Guard
p7302
(dp7303
g18
I00
sg19
(lp7304
(irule
FeatureMatrix
p7305
(dp7306
g34
(lp7307
(I00
g5121
tp7308
asg22
Nsba(irule
FeatureMatrix
p7309
(dp7310
g34
(lp7311
(I01
g5032
tp7312
asg22
Nsbasg21
I00
sg22
Nsg23
I00
sg24
S'R'
sbsg45
(irule
FeatureMatrix
p7313
(dp7314
g34
(lp7315
(I00
g5697
tp7316
asg22
Nsbsg22
Nsba(irule
Rule
p7317
(dp7318
g15
(irule
Guard
p7319
(dp7320
g18
I00
sg19
(lp7321
sg21
I00
sg22
Nsg23
I00
sg24
S'L'
sbsg25
(irule
FeatureMatrix
p7322
(dp7323
g34
(lp7324
(I01
g5032
tp7325
a(I00
g5034
tp7326
asg22
Nsbsg28
(irule
Guard
p7327
(dp7328
g18
I00
sg19
(lp7329
(irule
FeatureMatrix
p7330
(dp7331
g34
(lp7332
sg22
Nsba(irule
FeatureMatrix
p7333
(dp7334
g34
(lp7335
(I01
g5070
tp7336
a(I01
g5032
tp7337
a(I00
g6327
tp7338
asg22
Nsbasg21
I00
sg22
Nsg23
I00
sg24
S'R'
sbsg45
(irule
FeatureMatrix
p7339
(dp7340
g34
(lp7341
sg22
Nsbsg22
Nsba(irule
Rule
p7342
(dp7343
g15
(irule
Guard
p7344
(dp7345
g18
I00
sg19
(lp7346
sg21
I00
sg22
Nsg23
I00
sg24
S'L'
sbsg25
(irule
FeatureMatrix
p7347
(dp7348
g34
(lp7349
(I01
g5032
tp7350
a(I00
g5034
tp7351
asg22
Nsbsg28
(irule
Guard
p7352
(dp7353
g18
I00
sg19
(lp7354
(irule
FeatureMatrix
p7355
(dp7356
g34
(lp7357
sg22
Nsba(irule
FeatureMatrix
p7358
(dp7359
g34
(lp7360
(I01
g5070
tp7361
a(I00
g5045
tp7362
a(I01
g5032
tp7363
asg22
Nsbasg21
I00
sg22
Nsg23
I00
sg24
S'R'
sbsg45
(irule
FeatureMatrix
p7364
(dp7365
g34
(lp7366
sg22
Nsbsg22
Nsba(irule
Rule
p7367
(dp7368
g15
(irule
Guard
p7369
(dp7370
g18
I00
sg19
(lp7371
sg21
I00
sg22
Nsg23
I00
sg24
S'L'
sbsg25
(irule
FeatureMatrix
p7372
(dp7373
g34
(lp7374
(I01
g5032
tp7375
a(I00
g5034
tp7376
asg22
Nsbsg28
(irule
Guard
p7377
(dp7378
g18
I00
sg19
(lp7379
(irule
FeatureMatrix
p7380
(dp7381
g34
(lp7382
(I00
g5092
tp7383
asg22
Nsba(irule
FeatureMatrix
p7384
(dp7385
g34
(lp7386
(I01
g5032
tp7387
asg22
Nsbasg21
I00
sg22
Nsg23
I00
sg24
S'R'
sbsg45
(irule
FeatureMatrix
p7388
(dp7389
g34
(lp7390
(I00
g5697
tp7391
asg22
Nsbsg22
Nsba(irule
Rule
p7392
(dp7393
g15
(irule
Guard
p7394
(dp7395
g18
I00
sg19
(lp7396
sg21
I00
sg22
Nsg23
I00
sg24
S'L'
sbsg25
(irule
FeatureMatrix
p7397
(dp7398
g34
(lp7399
(I01
g5032
tp7400
a(I00
g5034
tp7401
asg22
Nsbsg28
(irule
Guard
p7402
(dp7403
g18
I00
sg19
(lp7404
(irule
FeatureMatrix
p7405
(dp7406
g34
(lp7407
sg22
Nsba(irule
FeatureMatrix
p7408
(dp7409
g34
(lp7410
(I01
g5070
tp7411
a(I01
g5032
tp7412
asg22
Nsbasg21
I00
sg22
Nsg23
I00
sg24
S'R'
sbsg45
(irule
FeatureMatrix
p7413
(dp7414
g34
(lp7415
(I01
g5121
tp7416
asg22
Nsbsg22
Nsba(irule
Rule
p7417
(dp7418
g15
(irule
Guard
p7419
(dp7420
g18
I00
sg19
(lp7421
sg21
I00
sg22
Nsg23
I00
sg24
S'L'
sbsg25
(irule
FeatureMatrix
p7422
(dp7423
g34
(lp7424
(I00
g5653
tp7425
a(I01
g5032
tp7426
a(I00
g5034
tp7427
asg22
Nsbsg28
(irule
Guard
p7428
(dp7429
g18
I00
sg19
(lp7430
(irule
FeatureMatrix
p7431
(dp7432
g34
(lp7433
sg22
Nsba(irule
FeatureMatrix
p7434
(dp7435
g34
(lp7436
(I01
g5070
tp7437
a(I01
g5032
tp7438
asg22
Nsbasg21
I00
sg22
Nsg23
I00
sg24
S'R'
sbsg45
(irule
FeatureMatrix
p7439
(dp7440
g34
(lp7441
sg22
Nsbsg22
Nsba(irule
Rule
p7442
(dp7443
g15
(irule
Guard
p7444
(dp7445
g18
I00
sg19
(lp7446
sg21
I00
sg22
Nsg23
I00
sg24
S'L'
sbsg25
(irule
FeatureMatrix
p7447
(dp7448
g34
(lp7449
(I01
g5032
tp7450
a(I01
g5285
tp7451
a(I00
g5034
tp7452
asg22
Nsbsg28
(irule
Guard
p7453
(dp7454
g18
I00
sg19
(lp7455
(irule
FeatureMatrix
p7456
(dp7457
g34
(lp7458
sg22
Nsba(irule
FeatureMatrix
p7459
(dp7460
g34
(lp7461
(I01
g5032
tp7462
asg22
Nsbasg21
I00
sg22
Nsg23
I00
sg24
S'R'
sbsg45
(irule
FeatureMatrix
p7463
(dp7464
g34
(lp7465
(I01
g5121
tp7466
asg22
Nsbsg22
Nsba(irule
Rule
p7467
(dp7468
g15
(irule
Guard
p7469
(dp7470
g18
I00
sg19
(lp7471
sg21
I00
sg22
Nsg23
I00
sg24
S'L'
sbsg25
(irule
FeatureMatrix
p7472
(dp7473
g34
(lp7474
(I01
g5032
tp7475
a(I00
g5034
tp7476
asg22
Nsbsg28
(irule
Guard
p7477
(dp7478
g18
I00
sg19
(lp7479
(irule
FeatureMatrix
p7480
(dp7481
g34
(lp7482
sg22
Nsba(irule
FeatureMatrix
p7483
(dp7484
g34
(lp7485
(I01
g5032
tp7486
a(I01
g5121
tp7487
a(I00
g5697
tp7488
asg22
Nsbasg21
I00
sg22
Nsg23
I00
sg24
S'R'
sbsg45
(irule
FeatureMatrix
p7489
(dp7490
g34
(lp7491
sg22
Nsbsg22
Nsba(irule
Rule
p7492
(dp7493
g15
(irule
Guard
p7494
(dp7495
g18
I00
sg19
(lp7496
sg21
I00
sg22
Nsg23
I00
sg24
S'L'
sbsg25
(irule
FeatureMatrix
p7497
(dp7498
g34
(lp7499
(I01
g5032
tp7500
a(I00
g5034
tp7501
asg22
Nsbsg28
(irule
Guard
p7502
(dp7503
g18
I00
sg19
(lp7504
(irule
FeatureMatrix
p7505
(dp7506
g34
(lp7507
(I00
g5914
tp7508
a(I00
g5092
tp7509
asg22
Nsba(irule
FeatureMatrix
p7510
(dp7511
g34
(lp7512
(I01
g5032
tp7513
asg22
Nsbasg21
I00
sg22
Nsg23
I00
sg24
S'R'
sbsg45
(irule
FeatureMatrix
p7514
(dp7515
g34
(lp7516
sg22
Nsbsg22
NsbaasbsS'parameters'
p7517
g6
(cargparse
Namespace
p7518
g8
NtRp7519
(dp7520
S'dummy'
p7521
I00
sS'task'
p7522
S'incremental'
p7523
sS'features'
p7524
S'sophisticated'
p7525
sS'resume'
p7526
I00
sS'geometry'
p7527
I01
sS'top'
p7528
I100
sS'disableClean'
p7529
I00
sS'universal'
p7530
NsS'restrict'
p7531
NsS'window'
p7532
NsS'seed'
p7533
S'0'
sS'restore'
p7534
NsS'verbosity'
p7535
I0
sS'timeout'
p7536
F24
sS'debug'
p7537
NsS'cores'
p7538
I40
sg664
S'Odden_4.6_Kera'
p7539
sS'save'
p7540
NsS'serial'
p7541
I00
sS'alignment'
p7542
I00
sS'samples'
p7543
I30
sbsb.