(iresult
Result
p1
(dp2
S'startTime'
p3
F1555426389.3602719
sS'solutionSequence'
p4
(lp5
(ccopy_reg
_reconstructor
p6
(csolution
Solution
p7
c__builtin__
object
p8
NtRp9
(dp10
S'rules'
p11
(lp12
(irule
Rule
p13
(dp14
S'leftTriggers'
p15
(irule
Guard
p16
(dp17
S'endOfString'
p18
I00
sS'specifications'
p19
(lp20
sS'optionalEnding'
p21
I00
sS'representation'
p22
V
sS'starred'
p23
I00
sS'side'
p24
S'L'
sbsS'structuralChange'
p25
(irule
FeatureMatrix
p26
(dp27
S'featuresAndPolarities'
p28
(lp29
sg22
V[  ]
p30
sbsS'rightTriggers'
p31
(irule
Guard
p32
(dp33
g18
I00
sg19
(lp34
sg21
I00
sg22
V
sg23
I00
sg24
S'R'
sbsS'focus'
p35
(irule
FeatureMatrix
p36
(dp37
g28
(lp38
sg22
V[  ]
p39
sbsg22
V[  ] ---> [  ] /  _ 
p40
sbasS'prefixes'
p41
(lp42
(imorph
Morph
p43
(dp44
S'phonemes'
p45
(lp46
Vc\u030c
p47
asba(imorph
Morph
p48
(dp49
g45
(lp50
V\u03b2
aVa
ag47
asba(imorph
Morph
p51
(dp52
g45
(lp53
Vn\u0303
p54
aVj\u030c
p55
asbasS'underlyingForms'
p56
(dp57
((imorph
Morph
p58
(dp59
g45
(lp60
Vc\u030c
p61
aVa
asb(imorph
Morph
p62
(dp63
g45
(lp64
V\u03b2
aVa
aVc\u030c
p65
aVa
asb(imorph
Morph
p66
(dp67
g45
(lp68
Vn\u0303
p69
aVj\u030c
p70
aVa
asbtp71
(imorph
Morph
p72
(dp73
g45
(lp74
Va
asbs((imorph
Morph
p75
(dp76
g45
(lp77
Vc\u030c
p78
aVe
aVx
aVa
asb(imorph
Morph
p79
(dp80
g45
(lp81
V\u03b2
aVa
aVc\u030c
p82
aVe
aVx
aVa
asb(imorph
Morph
p83
(dp84
g45
(lp85
Vn\u0303
p86
aVj\u030c
p87
aVe
aVx
aVa
asbtp88
(imorph
Morph
p89
(dp90
g45
(lp91
Ve
aVx
aVa
asbssS'suffixes'
p92
(lp93
(imorph
Morph
p94
(dp95
g45
(lp96
sba(imorph
Morph
p97
(dp98
g45
(lp99
sba(imorph
Morph
p100
(dp101
g45
(lp102
sbasbF38.871808052062988
tp103
a(g6
(g7
g8
NtRp104
(dp105
g11
(lp106
(irule
Rule
p107
(dp108
g15
(irule
Guard
p109
(dp110
g18
I00
sg19
(lp111
sg21
I00
sg22
V
sg23
I00
sg24
S'L'
sbsg25
(irule
FeatureMatrix
p112
(dp113
g28
(lp114
(I01
S'anterior'
p115
tp116
a(I00
S'sibilant'
p117
tp118
asg22
V[ +anterior -sibilant ]
p119
sbsg31
(irule
Guard
p120
(dp121
g18
I00
sg19
(lp122
(irule
FeatureMatrix
p123
(dp124
g28
(lp125
sg22
V[  ]
p126
sba(irule
FeatureMatrix
p127
(dp128
g28
(lp129
(I01
g115
tp130
asg22
V[ +anterior ]
p131
sbasg21
I00
sg22
V[  ]* [ +anterior ]
p132
sg23
I01
sg24
S'R'
sbsg35
(irule
FeatureMatrix
p133
(dp134
g28
(lp135
(I00
S'continuant'
p136
tp137
asg22
V[ -continuant ]
p138
sbsg22
V[ -continuant ] ---> [ +anterior -sibilant ] /  _ [  ]* [ +anterior ]
p139
sbasg41
(lp140
(imorph
Morph
p141
(dp142
g45
(lp143
g47
asba(imorph
Morph
p144
(dp145
g45
(lp146
V\u03b2
aVa
ag47
asba(imorph
Morph
p147
(dp148
g45
(lp149
g54
ag55
asbasg56
(dp150
(g58
g62
g66
tp151
(imorph
Morph
p152
(dp153
g45
(lp154
sbs((imorph
Morph
p155
(dp156
g45
(lp157
Vt
aVa
aVl
aVa
aVa
aVn
aVd
aVa
asb(imorph
Morph
p158
(dp159
g45
(lp160
V\u03b2
aVa
aVt
aVa
aVl
aVa
aVa
aVn
aVd
aVa
asb(imorph
Morph
p161
(dp162
g45
(lp163
Vn
aVd
aVa
aVl
aVa
aVa
aVn
aVd
aVa
asbtp164
(imorph
Morph
p165
(dp166
g45
(lp167
Va
aVl
aVa
aVa
ag54
aVd
asbs(g75
g79
g83
tp168
(imorph
Morph
p169
(dp170
g45
(lp171
Ve
aVx
asbssg92
(lp172
(imorph
Morph
p173
(dp174
g45
(lp175
Va
asba(imorph
Morph
p176
(dp177
g45
(lp178
Va
asba(imorph
Morph
p179
(dp180
g45
(lp181
Va
asbasbF103.73121500015259
tp182
a(g6
(g7
g8
NtRp183
(dp184
g11
(lp185
(irule
Rule
p186
(dp187
g15
(irule
Guard
p188
(dp189
g18
I00
sg19
(lp190
sg21
I00
sg22
V
sg23
I00
sg24
S'L'
sbsg25
(irule
PlaceSpecification
p191
(dp192
S'offset'
p193
I1
sbsg31
(irule
Guard
p194
(dp195
g18
I00
sg19
(lp196
sg21
I00
sg22
V
sg23
I00
sg24
S'R'
sbsg35
(irule
ConstantPhoneme
p197
(dp198
S'p'
Vn
sbsg22
Vn ---> place1 /  _ 
p199
sba(irule
Rule
p200
(dp201
g15
(irule
Guard
p202
(dp203
g18
I00
sg19
(lp204
(irule
FeatureMatrix
p205
(dp206
g28
(lp207
(I01
S'coronal'
p208
tp209
asg22
V[ +coronal ]
p210
sbasg21
I00
sg22
g210
sg23
I00
sg24
S'L'
sbsg25
(irule
FeatureMatrix
p211
(dp212
g28
(lp213
(I01
S'voice'
p214
tp215
asg22
V[ +voice ]
p216
sbsg31
(irule
Guard
p217
(dp218
g18
I00
sg19
(lp219
sg21
I00
sg22
V
sg23
I00
sg24
S'R'
sbsg35
(irule
FeatureMatrix
p220
(dp221
g28
(lp222
sg22
V[  ]
p223
sbsg22
V[  ] ---> [ +voice ] / [ +coronal ] _ 
p224
sbasg41
(lp225
(imorph
Morph
p226
(dp227
g45
(lp228
sba(imorph
Morph
p229
(dp230
g45
(lp231
V\u03b2
aVa
asba(imorph
Morph
p232
(dp233
g45
(lp234
Vn
asbasg56
(dp235
(g58
g62
g66
tp236
(imorph
Morph
p237
(dp238
g45
(lp239
g47
asbs(g155
g158
g161
tp240
(imorph
Morph
p241
(dp242
g45
(lp243
Vt
aVa
aVl
aVa
aVa
aVn
aVt
asbs(g75
g79
g83
tp244
(imorph
Morph
p245
(dp246
g45
(lp247
g47
aVe
aVx
asbs((imorph
Morph
p248
(dp249
g45
(lp250
Vt
aVe
aVe
aVx
aVa
asb(imorph
Morph
p251
(dp252
g45
(lp253
V\u03b2
aVa
aVt
aVe
aVe
aVx
aVa
asb(imorph
Morph
p254
(dp255
g45
(lp256
Vn
aVd
aVe
aVe
aVx
aVa
asbtp257
(imorph
Morph
p258
(dp259
g45
(lp260
Vt
aVe
aVe
aVx
asbssg92
(lp261
(imorph
Morph
p262
(dp263
g45
(lp264
Va
asba(imorph
Morph
p265
(dp266
g45
(lp267
Va
asba(imorph
Morph
p268
(dp269
g45
(lp270
Va
asbasbF1416.7729141712189
tp271
a(g6
(g7
g8
NtRp272
(dp273
g11
(lp274
(irule
Rule
p275
(dp276
g15
(irule
Guard
p277
(dp278
g18
I00
sg19
(lp279
sg21
I00
sg22
V
sg23
I00
sg24
S'L'
sbsg25
(irule
PlaceSpecification
p280
(dp281
g193
I1
sbsg31
(irule
Guard
p282
(dp283
g18
I00
sg19
(lp284
sg21
I00
sg22
V
sg23
I00
sg24
S'R'
sbsg35
(irule
ConstantPhoneme
p285
(dp286
S'p'
g54
sbsg22
Vn\u0303 ---> place1 /  _ 
p287
sba(irule
Rule
p288
(dp289
g15
(irule
Guard
p290
(dp291
g18
I01
sg19
(lp292
(irule
FeatureMatrix
p293
(dp294
g28
(lp295
sg22
V[  ]
p296
sbasg21
I00
sg22
V# [  ]
p297
sg23
I00
sg24
S'L'
sbsg25
(irule
FeatureMatrix
p298
(dp299
g28
(lp300
(I01
g214
tp301
asg22
V[ +voice ]
p302
sbsg31
(irule
Guard
p303
(dp304
g18
I00
sg19
(lp305
sg21
I00
sg22
V
sg23
I00
sg24
S'R'
sbsg35
(irule
FeatureMatrix
p306
(dp307
g28
(lp308
sg22
V[  ]
p309
sbsg22
V[  ] ---> [ +voice ] / # [  ] _ 
p310
sbasg41
(lp311
(imorph
Morph
p312
(dp313
g45
(lp314
sba(imorph
Morph
p315
(dp316
g45
(lp317
V\u03b2
aVa
asba(imorph
Morph
p318
(dp319
g45
(lp320
g54
asbasg56
(dp321
(g58
g62
g66
tp322
(imorph
Morph
p323
(dp324
g45
(lp325
g47
asbs((imorph
Morph
(dp326
g45
(lp327
Vp
aVa
aVk
aVa
aVl
aVa
asb(imorph
Morph
(dp328
g45
(lp329
V\u03b2
aVa
aVp
aVa
aVk
aVa
aVl
aVa
asb(imorph
Morph
(dp330
g45
(lp331
Vm
aVb
aVa
aVk
aVa
aVl
aVa
asbtp332
(imorph
Morph
p333
(dp334
g45
(lp335
Vp
aVa
aVk
aVa
aVl
asbs((imorph
Morph
(dp336
g45
(lp337
Vk
aVu
aVl
aVa
asb(imorph
Morph
(dp338
g45
(lp339
V\u03b2
aVa
aVk
aVu
aVl
aVa
asb(imorph
Morph
(dp340
g45
(lp341
V\u014b
aVg
aVu
aVl
aVa
asbtp342
(imorph
Morph
p343
(dp344
g45
(lp345
Vk
aVu
aVl
asbs(g248
g251
g254
tp346
(imorph
Morph
p347
(dp348
g45
(lp349
Vt
aVe
aVe
aVx
asbs((imorph
Morph
p350
(dp351
g45
(lp352
Vp
aVi
aVi
aVm
aVa
asb(imorph
Morph
p353
(dp354
g45
(lp355
V\u03b2
aVa
aVp
aVi
aVi
aVm
aVa
asb(imorph
Morph
p356
(dp357
g45
(lp358
Vm
aVb
aVi
aVi
aVm
aVa
asbtp359
(imorph
Morph
p360
(dp361
g45
(lp362
Vp
aVi
aVi
aVm
asbs((imorph
Morph
(dp363
g45
(lp364
Vc\u030c
p365
aVu
aVc\u030c
p366
aVu
aVu
aV\u014b
aVg
aVa
asb(imorph
Morph
(dp367
g45
(lp368
V\u03b2
aVa
aVc\u030c
p369
aVu
aVc\u030c
p370
aVu
aVu
aV\u014b
aVg
aVa
asb(imorph
Morph
(dp371
g45
(lp372
Vn\u0303
p373
aVj\u030c
p374
aVu
aVc\u030c
p375
aVu
aVu
aV\u014b
aVg
aVa
asbtp376
(imorph
Morph
p377
(dp378
g45
(lp379
g47
aVu
ag47
aVu
aVu
aV\u014b
aVg
asbs((imorph
Morph
(dp380
g45
(lp381
Vk
aVe
aVt
aVu
aVl
aVu
aVl
aVa
asb(imorph
Morph
(dp382
g45
(lp383
V\u03b2
aVa
aVk
aVe
aVt
aVu
aVl
aVu
aVl
aVa
asb(imorph
Morph
(dp384
g45
(lp385
V\u014b
aVg
aVe
aVt
aVu
aVl
aVu
aVl
aVa
asbtp386
(imorph
Morph
p387
(dp388
g45
(lp389
Vk
aVe
aVt
aVu
aVl
aVu
aVl
asbs(g75
g79
g83
tp390
(imorph
Morph
p391
(dp392
g45
(lp393
g47
aVe
aVx
asbs((imorph
Morph
(dp394
g45
(lp395
Vk
aVo
aVn
aVa
asb(imorph
Morph
(dp396
g45
(lp397
V\u03b2
aVa
aVk
aVo
aVn
aVa
asb(imorph
Morph
(dp398
g45
(lp399
V\u014b
aVg
aVo
aVn
aVa
asbtp400
(imorph
Morph
p401
(dp402
g45
(lp403
Vk
aVo
aVn
asbs(g155
g158
g161
tp404
(imorph
Morph
p405
(dp406
g45
(lp407
Vt
aVa
aVl
aVa
aVa
aVn
aVd
asbs((imorph
Morph
(dp408
g45
(lp409
Vt
aVi
aVi
aVr
aVa
asb(imorph
Morph
(dp410
g45
(lp411
V\u03b2
aVa
aVt
aVi
aVi
aVr
aVa
asb(imorph
Morph
(dp412
g45
(lp413
Vn
aVd
aVi
aVi
aVr
aVa
asbtp414
(imorph
Morph
p415
(dp416
g45
(lp417
Vt
aVi
aVi
aVr
asbs((imorph
Morph
(dp418
g45
(lp419
Vk
aVw
aVa
asb(imorph
Morph
(dp420
g45
(lp421
V\u03b2
aVa
aVk
aVw
aVa
asb(imorph
Morph
(dp422
g45
(lp423
V\u014b
aVg
aVw
aVa
asbtp424
(imorph
Morph
p425
(dp426
g45
(lp427
Vk
aVw
asbssg92
(lp428
(imorph
Morph
p429
(dp430
g45
(lp431
Va
asba(imorph
Morph
p432
(dp433
g45
(lp434
Va
asba(imorph
Morph
p435
(dp436
g45
(lp437
Va
asbasbF2492.3966820240021
tp438
asS'problem'
p439
S'Odden_105_Bukusu'
p440
sS'finalFrontier'
p441
g6
(csolution
Frontier
p442
g8
NtRp443
(dp444
g41
g311
sg92
g428
sg56
g321
sS'frontiers'
p445
(lp446
(lp447
(irule
Rule
p448
(dp449
g15
(irule
Guard
p450
(dp451
g18
I00
sg19
(lp452
sg21
I00
sg22
V
sg23
I00
sg24
S'L'
sbsg25
(irule
PlaceSpecification
p453
(dp454
g193
I1
sbsg31
(irule
Guard
p455
(dp456
g18
I00
sg19
(lp457
sg21
I00
sg22
V
sg23
I00
sg24
S'R'
sbsg35
(irule
ConstantPhoneme
p458
(dp459
S'p'
Vn\u0303
p460
sbsg22
Vn\u0303 ---> place1 /  _ 
p461
sba(irule
Rule
p462
(dp463
g15
(irule
Guard
p464
(dp465
g18
I00
sg19
(lp466
sg21
I00
sg22
Nsg23
I00
sg24
S'L'
sbsg25
(irule
PlaceSpecification
p467
(dp468
g193
I1
sbsg31
(irule
Guard
p469
(dp470
g18
I00
sg19
(lp471
sg21
I00
sg22
Nsg23
I00
sg24
S'R'
sbsg35
(irule
FeatureMatrix
p472
(dp473
g28
(lp474
(I00
S'anterior'
p475
tp476
a(I01
S'nasal'
p477
tp478
asg22
Nsbsg22
Nsba(irule
Rule
p479
(dp480
g15
(irule
Guard
p481
(dp482
g18
I00
sg19
(lp483
sg21
I00
sg22
Nsg23
I00
sg24
S'L'
sbsg25
(irule
PlaceSpecification
p484
(dp485
g193
I1
sbsg31
(irule
Guard
p486
(dp487
g18
I00
sg19
(lp488
(irule
FeatureMatrix
p489
(dp490
g28
(lp491
sg22
Nsbasg21
I00
sg22
Nsg23
I00
sg24
S'R'
sbsg35
(irule
ConstantPhoneme
p492
(dp493
S'p'
g460
sbsg22
Nsba(irule
Rule
p494
(dp495
g15
(irule
Guard
p496
(dp497
g18
I01
sg19
(lp498
sg21
I00
sg22
Nsg23
I00
sg24
S'L'
sbsg25
(irule
PlaceSpecification
p499
(dp500
g193
I1
sbsg31
(irule
Guard
p501
(dp502
g18
I00
sg19
(lp503
sg21
I00
sg22
Nsg23
I00
sg24
S'R'
sbsg35
(irule
FeatureMatrix
p504
(dp505
g28
(lp506
(I01
g477
tp507
asg22
Nsbsg22
Nsba(irule
Rule
p508
(dp509
g15
(irule
Guard
p510
(dp511
g18
I01
sg19
(lp512
sg21
I00
sg22
Nsg23
I00
sg24
S'L'
sbsg25
(irule
PlaceSpecification
p513
(dp514
g193
I1
sbsg31
(irule
Guard
p515
(dp516
g18
I00
sg19
(lp517
sg21
I00
sg22
Nsg23
I00
sg24
S'R'
sbsg35
(irule
FeatureMatrix
p518
(dp519
g28
(lp520
(I01
S'sonorant'
p521
tp522
asg22
Nsbsg22
Nsba(irule
Rule
p523
(dp524
g15
(irule
Guard
p525
(dp526
g18
I01
sg19
(lp527
sg21
I00
sg22
Nsg23
I00
sg24
S'L'
sbsg25
(irule
PlaceSpecification
p528
(dp529
g193
I1
sbsg31
(irule
Guard
p530
(dp531
g18
I00
sg19
(lp532
sg21
I00
sg22
Nsg23
I00
sg24
S'R'
sbsg35
(irule
ConstantPhoneme
p533
(dp534
S'p'
g460
sbsg22
Nsba(irule
Rule
p535
(dp536
g15
(irule
Guard
p537
(dp538
g18
I01
sg19
(lp539
sg21
I00
sg22
Nsg23
I00
sg24
S'L'
sbsg25
(irule
PlaceSpecification
p540
(dp541
g193
I1
sbsg31
(irule
Guard
p542
(dp543
g18
I00
sg19
(lp544
(irule
FeatureMatrix
p545
(dp546
g28
(lp547
sg22
Nsbasg21
I00
sg22
Nsg23
I00
sg24
S'R'
sbsg35
(irule
FeatureMatrix
p548
(dp549
g28
(lp550
(I01
g521
tp551
asg22
Nsbsg22
Nsba(irule
Rule
p552
(dp553
g15
(irule
Guard
p554
(dp555
g18
I00
sg19
(lp556
sg21
I00
sg22
Nsg23
I00
sg24
S'L'
sbsg25
(irule
PlaceSpecification
p557
(dp558
g193
I1
sbsg31
(irule
Guard
p559
(dp560
g18
I00
sg19
(lp561
(irule
FeatureMatrix
p562
(dp563
g28
(lp564
sg22
Nsbasg21
I00
sg22
Nsg23
I00
sg24
S'R'
sbsg35
(irule
FeatureMatrix
p565
(dp566
g28
(lp567
(I00
g475
tp568
a(I01
g477
tp569
asg22
Nsbsg22
Nsba(irule
Rule
p570
(dp571
g15
(irule
Guard
p572
(dp573
g18
I00
sg19
(lp574
sg21
I00
sg22
Nsg23
I00
sg24
S'L'
sbsg25
(irule
PlaceSpecification
p575
(dp576
g193
I1
sbsg31
(irule
Guard
p577
(dp578
g18
I00
sg19
(lp579
(irule
FeatureMatrix
p580
(dp581
g28
(lp582
(I00
S'glide'
p583
tp584
asg22
Nsbasg21
I00
sg22
Nsg23
I00
sg24
S'R'
sbsg35
(irule
ConstantPhoneme
p585
(dp586
S'p'
g460
sbsg22
Nsba(irule
Rule
p587
(dp588
g15
(irule
Guard
p589
(dp590
g18
I01
sg19
(lp591
sg21
I00
sg22
Nsg23
I00
sg24
S'L'
sbsg25
(irule
PlaceSpecification
p592
(dp593
g193
I1
sbsg31
(irule
Guard
p594
(dp595
g18
I00
sg19
(lp596
(irule
FeatureMatrix
p597
(dp598
g28
(lp599
(I00
S'voice'
p600
tp601
asg22
Nsbasg21
I00
sg22
Nsg23
I00
sg24
S'R'
sbsg35
(irule
FeatureMatrix
p602
(dp603
g28
(lp604
sg22
Nsbsg22
Nsba(irule
Rule
p605
(dp606
g15
(irule
Guard
p607
(dp608
g18
I01
sg19
(lp609
sg21
I00
sg22
Nsg23
I00
sg24
S'L'
sbsg25
(irule
PlaceSpecification
p610
(dp611
g193
I1
sbsg31
(irule
Guard
p612
(dp613
g18
I00
sg19
(lp614
(irule
FeatureMatrix
p615
(dp616
g28
(lp617
(I00
g521
tp618
asg22
Nsbasg21
I00
sg22
Nsg23
I00
sg24
S'R'
sbsg35
(irule
FeatureMatrix
p619
(dp620
g28
(lp621
sg22
Nsbsg22
Nsba(irule
Rule
p622
(dp623
g15
(irule
Guard
p624
(dp625
g18
I01
sg19
(lp626
sg21
I00
sg22
Nsg23
I00
sg24
S'L'
sbsg25
(irule
PlaceSpecification
p627
(dp628
g193
I1
sbsg31
(irule
Guard
p629
(dp630
g18
I00
sg19
(lp631
(irule
FeatureMatrix
p632
(dp633
g28
(lp634
(I00
S'continuant'
p635
tp636
asg22
Nsbasg21
I00
sg22
Nsg23
I00
sg24
S'R'
sbsg35
(irule
FeatureMatrix
p637
(dp638
g28
(lp639
sg22
Nsbsg22
Nsba(irule
Rule
p640
(dp641
g15
(irule
Guard
p642
(dp643
g18
I01
sg19
(lp644
sg21
I00
sg22
Nsg23
I00
sg24
S'L'
sbsg25
(irule
PlaceSpecification
p645
(dp646
g193
I1
sbsg31
(irule
Guard
p647
(dp648
g18
I00
sg19
(lp649
(irule
FeatureMatrix
p650
(dp651
g28
(lp652
sg22
Nsbasg21
I00
sg22
Nsg23
I00
sg24
S'R'
sbsg35
(irule
ConstantPhoneme
p653
(dp654
S'p'
g460
sbsg22
Nsba(irule
Rule
p655
(dp656
g15
(irule
Guard
p657
(dp658
g18
I00
sg19
(lp659
sg21
I00
sg22
Nsg23
I00
sg24
S'L'
sbsg25
(irule
PlaceSpecification
p660
(dp661
g193
I1
sbsg31
(irule
Guard
p662
(dp663
g18
I00
sg19
(lp664
sg21
I00
sg22
Nsg23
I00
sg24
S'R'
sbsg35
(irule
FeatureMatrix
p665
(dp666
g28
(lp667
(I00
g475
tp668
a(I00
g635
tp669
a(I01
g521
tp670
asg22
Nsbsg22
Nsba(irule
Rule
p671
(dp672
g15
(irule
Guard
p673
(dp674
g18
I00
sg19
(lp675
sg21
I00
sg22
Nsg23
I00
sg24
S'L'
sbsg25
(irule
PlaceSpecification
p676
(dp677
g193
I1
sbsg31
(irule
Guard
p678
(dp679
g18
I00
sg19
(lp680
(irule
FeatureMatrix
p681
(dp682
g28
(lp683
sg22
Nsba(irule
FeatureMatrix
p684
(dp685
g28
(lp686
sg22
Nsbasg21
I00
sg22
Nsg23
I00
sg24
S'R'
sbsg35
(irule
ConstantPhoneme
p687
(dp688
S'p'
g460
sbsg22
Nsba(irule
Rule
p689
(dp690
g15
(irule
Guard
p691
(dp692
g18
I00
sg19
(lp693
sg21
I00
sg22
Nsg23
I00
sg24
S'L'
sbsg25
(irule
PlaceSpecification
p694
(dp695
g193
I1
sbsg31
(irule
Guard
p696
(dp697
g18
I00
sg19
(lp698
(irule
FeatureMatrix
p699
(dp700
g28
(lp701
sg22
Nsba(irule
FeatureMatrix
p702
(dp703
g28
(lp704
sg22
Nsbasg21
I00
sg22
Nsg23
I00
sg24
S'R'
sbsg35
(irule
FeatureMatrix
p705
(dp706
g28
(lp707
(I01
g477
tp708
asg22
Nsbsg22
Nsba(irule
Rule
p709
(dp710
g15
(irule
Guard
p711
(dp712
g18
I00
sg19
(lp713
sg21
I00
sg22
Nsg23
I00
sg24
S'L'
sbsg25
(irule
PlaceSpecification
p714
(dp715
g193
I1
sbsg31
(irule
Guard
p716
(dp717
g18
I00
sg19
(lp718
(irule
FeatureMatrix
p719
(dp720
g28
(lp721
(I00
g600
tp722
asg22
Nsbasg21
I00
sg22
Nsg23
I00
sg24
S'R'
sbsg35
(irule
ConstantPhoneme
p723
(dp724
S'p'
g460
sbsg22
Nsba(irule
Rule
p725
(dp726
g15
(irule
Guard
p727
(dp728
g18
I00
sg19
(lp729
sg21
I00
sg22
Nsg23
I00
sg24
S'L'
sbsg25
(irule
PlaceSpecification
p730
(dp731
g193
I1
sbsg31
(irule
Guard
p732
(dp733
g18
I00
sg19
(lp734
sg21
I00
sg22
Nsg23
I00
sg24
S'R'
sbsg35
(irule
FeatureMatrix
p735
(dp736
g28
(lp737
(I00
g475
tp738
a(I01
g477
tp739
a(I01
g521
tp740
asg22
Nsbsg22
Nsba(irule
Rule
p741
(dp742
g15
(irule
Guard
p743
(dp744
g18
I00
sg19
(lp745
sg21
I00
sg22
Nsg23
I00
sg24
S'L'
sbsg25
(irule
PlaceSpecification
p746
(dp747
g193
I1
sbsg31
(irule
Guard
p748
(dp749
g18
I00
sg19
(lp750
sg21
I00
sg22
Nsg23
I00
sg24
S'R'
sbsg35
(irule
FeatureMatrix
p751
(dp752
g28
(lp753
(I00
g475
tp754
a(I00
S'rounded'
p755
tp756
a(I01
g477
tp757
asg22
Nsbsg22
Nsba(irule
Rule
p758
(dp759
g15
(irule
Guard
p760
(dp761
g18
I00
sg19
(lp762
sg21
I00
sg22
Nsg23
I00
sg24
S'L'
sbsg25
(irule
PlaceSpecification
p763
(dp764
g193
I1
sbsg31
(irule
Guard
p765
(dp766
g18
I00
sg19
(lp767
(irule
FeatureMatrix
p768
(dp769
g28
(lp770
(I00
S'low'
p771
tp772
asg22
Nsbasg21
I00
sg22
Nsg23
I00
sg24
S'R'
sbsg35
(irule
FeatureMatrix
p773
(dp774
g28
(lp775
(I01
g477
tp776
asg22
Nsbsg22
Nsba(irule
Rule
p777
(dp778
g15
(irule
Guard
p779
(dp780
g18
I00
sg19
(lp781
sg21
I00
sg22
Nsg23
I00
sg24
S'L'
sbsg25
(irule
PlaceSpecification
p782
(dp783
g193
I1
sbsg31
(irule
Guard
p784
(dp785
g18
I00
sg19
(lp786
sg21
I00
sg22
Nsg23
I00
sg24
S'R'
sbsg35
(irule
FeatureMatrix
p787
(dp788
g28
(lp789
(I00
g475
tp790
a(I00
g583
tp791
a(I01
g477
tp792
asg22
Nsbsg22
Nsba(irule
Rule
p793
(dp794
g15
(irule
Guard
p795
(dp796
g18
I00
sg19
(lp797
sg21
I00
sg22
Nsg23
I00
sg24
S'L'
sbsg25
(irule
PlaceSpecification
p798
(dp799
g193
I1
sbsg31
(irule
Guard
p800
(dp801
g18
I00
sg19
(lp802
(irule
FeatureMatrix
p803
(dp804
g28
(lp805
(I00
g600
tp806
asg22
Nsbasg21
I00
sg22
Nsg23
I00
sg24
S'R'
sbsg35
(irule
FeatureMatrix
p807
(dp808
g28
(lp809
(I01
g477
tp810
asg22
Nsbsg22
Nsba(irule
Rule
p811
(dp812
g15
(irule
Guard
p813
(dp814
g18
I00
sg19
(lp815
sg21
I00
sg22
Nsg23
I00
sg24
S'L'
sbsg25
(irule
PlaceSpecification
p816
(dp817
g193
I1
sbsg31
(irule
Guard
p818
(dp819
g18
I00
sg19
(lp820
sg21
I00
sg22
Nsg23
I00
sg24
S'R'
sbsg35
(irule
FeatureMatrix
p821
(dp822
g28
(lp823
(I00
g475
tp824
a(I00
S'lateral'
p825
tp826
a(I01
g477
tp827
asg22
Nsbsg22
Nsba(irule
Rule
p828
(dp829
g15
(irule
Guard
p830
(dp831
g18
I00
sg19
(lp832
sg21
I00
sg22
Nsg23
I00
sg24
S'L'
sbsg25
(irule
PlaceSpecification
p833
(dp834
g193
I1
sbsg31
(irule
Guard
p835
(dp836
g18
I00
sg19
(lp837
(irule
FeatureMatrix
p838
(dp839
g28
(lp840
(I00
S'sibilant'
p841
tp842
asg22
Nsbasg21
I00
sg22
Nsg23
I00
sg24
S'R'
sbsg35
(irule
ConstantPhoneme
p843
(dp844
S'p'
g460
sbsg22
Nsba(irule
Rule
p845
(dp846
g15
(irule
Guard
p847
(dp848
g18
I00
sg19
(lp849
sg21
I00
sg22
Nsg23
I00
sg24
S'L'
sbsg25
(irule
PlaceSpecification
p850
(dp851
g193
I1
sbsg31
(irule
Guard
p852
(dp853
g18
I00
sg19
(lp854
(irule
FeatureMatrix
p855
(dp856
g28
(lp857
(I00
S'vowel'
p858
tp859
asg22
Nsbasg21
I00
sg22
Nsg23
I00
sg24
S'R'
sbsg35
(irule
ConstantPhoneme
p860
(dp861
S'p'
g460
sbsg22
Nsba(irule
Rule
p862
(dp863
g15
(irule
Guard
p864
(dp865
g18
I00
sg19
(lp866
sg21
I00
sg22
Nsg23
I00
sg24
S'L'
sbsg25
(irule
PlaceSpecification
p867
(dp868
g193
I1
sbsg31
(irule
Guard
p869
(dp870
g18
I00
sg19
(lp871
sg21
I00
sg22
Nsg23
I00
sg24
S'R'
sbsg35
(irule
FeatureMatrix
p872
(dp873
g28
(lp874
(I00
g475
tp875
a(I00
S'liquid'
p876
tp877
a(I01
g477
tp878
asg22
Nsbsg22
Nsba(irule
Rule
p879
(dp880
g15
(irule
Guard
p881
(dp882
g18
I01
sg19
(lp883
sg21
I00
sg22
Nsg23
I00
sg24
S'L'
sbsg25
(irule
PlaceSpecification
p884
(dp885
g193
I1
sbsg31
(irule
Guard
p886
(dp887
g18
I00
sg19
(lp888
(irule
FeatureMatrix
p889
(dp890
g28
(lp891
sg22
Nsbasg21
I00
sg22
Nsg23
I00
sg24
S'R'
sbsg35
(irule
FeatureMatrix
p892
(dp893
g28
(lp894
(I01
g477
tp895
asg22
Nsbsg22
Nsba(irule
Rule
p896
(dp897
g15
(irule
Guard
p898
(dp899
g18
I01
sg19
(lp900
sg21
I00
sg22
Nsg23
I00
sg24
S'L'
sbsg25
(irule
PlaceSpecification
p901
(dp902
g193
I1
sbsg31
(irule
Guard
p903
(dp904
g18
I00
sg19
(lp905
sg21
I00
sg22
Nsg23
I00
sg24
S'R'
sbsg35
(irule
FeatureMatrix
p906
(dp907
g28
(lp908
(I01
S'coronal'
p909
tp910
a(I01
g600
tp911
asg22
Nsbsg22
Nsba(irule
Rule
p912
(dp913
g15
(irule
Guard
p914
(dp915
g18
I00
sg19
(lp916
sg21
I00
sg22
Nsg23
I00
sg24
S'L'
sbsg25
(irule
PlaceSpecification
p917
(dp918
g193
I1
sbsg31
(irule
Guard
p919
(dp920
g18
I00
sg19
(lp921
sg21
I00
sg22
Nsg23
I00
sg24
S'R'
sbsg35
(irule
FeatureMatrix
p922
(dp923
g28
(lp924
(I00
g475
tp925
a(I00
g635
tp926
a(I01
g477
tp927
asg22
Nsbsg22
Nsba(irule
Rule
p928
(dp929
g15
(irule
Guard
p930
(dp931
g18
I00
sg19
(lp932
sg21
I00
sg22
Nsg23
I00
sg24
S'L'
sbsg25
(irule
PlaceSpecification
p933
(dp934
g193
I1
sbsg31
(irule
Guard
p935
(dp936
g18
I00
sg19
(lp937
(irule
FeatureMatrix
p938
(dp939
g28
(lp940
(I00
g521
tp941
asg22
Nsbasg21
I00
sg22
Nsg23
I00
sg24
S'R'
sbsg35
(irule
FeatureMatrix
p942
(dp943
g28
(lp944
(I00
g858
tp945
asg22
Nsbsg22
Nsba(irule
Rule
p946
(dp947
g15
(irule
Guard
p948
(dp949
g18
I00
sg19
(lp950
sg21
I00
sg22
Nsg23
I00
sg24
S'L'
sbsg25
(irule
PlaceSpecification
p951
(dp952
g193
I1
sbsg31
(irule
Guard
p953
(dp954
g18
I00
sg19
(lp955
(irule
FeatureMatrix
p956
(dp957
g28
(lp958
(I00
g771
tp959
asg22
Nsbasg21
I00
sg22
Nsg23
I00
sg24
S'R'
sbsg35
(irule
ConstantPhoneme
p960
(dp961
S'p'
g460
sbsg22
Nsba(irule
Rule
p962
(dp963
g15
(irule
Guard
p964
(dp965
g18
I01
sg19
(lp966
sg21
I00
sg22
Nsg23
I00
sg24
S'L'
sbsg25
(irule
PlaceSpecification
p967
(dp968
g193
I1
sbsg31
(irule
Guard
p969
(dp970
g18
I00
sg19
(lp971
sg21
I00
sg22
Nsg23
I00
sg24
S'R'
sbsg35
(irule
FeatureMatrix
p972
(dp973
g28
(lp974
(I01
g521
tp975
a(I00
S'high'
p976
tp977
asg22
Nsbsg22
Nsba(irule
Rule
p978
(dp979
g15
(irule
Guard
p980
(dp981
g18
I00
sg19
(lp982
sg21
I00
sg22
Nsg23
I00
sg24
S'L'
sbsg25
(irule
PlaceSpecification
p983
(dp984
g193
I1
sbsg31
(irule
Guard
p985
(dp986
g18
I00
sg19
(lp987
(irule
FeatureMatrix
p988
(dp989
g28
(lp990
(I00
g521
tp991
asg22
Nsbasg21
I00
sg22
Nsg23
I00
sg24
S'R'
sbsg35
(irule
FeatureMatrix
p992
(dp993
g28
(lp994
(I01
g477
tp995
asg22
Nsbsg22
Nsba(irule
Rule
p996
(dp997
g15
(irule
Guard
p998
(dp999
g18
I00
sg19
(lp1000
sg21
I00
sg22
Nsg23
I00
sg24
S'L'
sbsg25
(irule
PlaceSpecification
p1001
(dp1002
g193
I1
sbsg31
(irule
Guard
p1003
(dp1004
g18
I00
sg19
(lp1005
(irule
FeatureMatrix
p1006
(dp1007
g28
(lp1008
(I00
g858
tp1009
asg22
Nsbasg21
I00
sg22
Nsg23
I00
sg24
S'R'
sbsg35
(irule
FeatureMatrix
p1010
(dp1011
g28
(lp1012
(I01
g477
tp1013
asg22
Nsbsg22
Nsba(irule
Rule
p1014
(dp1015
g15
(irule
Guard
p1016
(dp1017
g18
I00
sg19
(lp1018
sg21
I00
sg22
Nsg23
I00
sg24
S'L'
sbsg25
(irule
PlaceSpecification
p1019
(dp1020
g193
I1
sbsg31
(irule
Guard
p1021
(dp1022
g18
I00
sg19
(lp1023
sg21
I00
sg22
Nsg23
I00
sg24
S'R'
sbsg35
(irule
FeatureMatrix
p1024
(dp1025
g28
(lp1026
(I00
g475
tp1027
a(I01
g477
tp1028
a(I00
g976
tp1029
asg22
Nsbsg22
Nsba(irule
Rule
p1030
(dp1031
g15
(irule
Guard
p1032
(dp1033
g18
I01
sg19
(lp1034
sg21
I00
sg22
Nsg23
I00
sg24
S'L'
sbsg25
(irule
PlaceSpecification
p1035
(dp1036
g193
I1
sbsg31
(irule
Guard
p1037
(dp1038
g18
I00
sg19
(lp1039
sg21
I00
sg22
Nsg23
I00
sg24
S'R'
sbsg35
(irule
FeatureMatrix
p1040
(dp1041
g28
(lp1042
(I01
g521
tp1043
a(I01
g909
tp1044
asg22
Nsbsg22
Nsba(irule
Rule
p1045
(dp1046
g15
(irule
Guard
p1047
(dp1048
g18
I00
sg19
(lp1049
sg21
I00
sg22
Nsg23
I00
sg24
S'L'
sbsg25
(irule
PlaceSpecification
p1050
(dp1051
g193
I1
sbsg31
(irule
Guard
p1052
(dp1053
g18
I00
sg19
(lp1054
(irule
FeatureMatrix
p1055
(dp1056
g28
(lp1057
(I00
g600
tp1058
asg22
Nsbasg21
I00
sg22
Nsg23
I00
sg24
S'R'
sbsg35
(irule
FeatureMatrix
p1059
(dp1060
g28
(lp1061
(I00
g858
tp1062
asg22
Nsbsg22
Nsba(irule
Rule
p1063
(dp1064
g15
(irule
Guard
p1065
(dp1066
g18
I00
sg19
(lp1067
sg21
I00
sg22
Nsg23
I00
sg24
S'L'
sbsg25
(irule
PlaceSpecification
p1068
(dp1069
g193
I1
sbsg31
(irule
Guard
p1070
(dp1071
g18
I00
sg19
(lp1072
sg21
I00
sg22
Nsg23
I00
sg24
S'R'
sbsg35
(irule
FeatureMatrix
p1073
(dp1074
g28
(lp1075
(I00
g475
tp1076
a(I01
g477
tp1077
a(I00
S'back'
p1078
tp1079
asg22
Nsbsg22
Nsba(irule
Rule
p1080
(dp1081
g15
(irule
Guard
p1082
(dp1083
g18
I00
sg19
(lp1084
sg21
I00
sg22
Nsg23
I00
sg24
S'L'
sbsg25
(irule
PlaceSpecification
p1085
(dp1086
g193
I1
sbsg31
(irule
Guard
p1087
(dp1088
g18
I00
sg19
(lp1089
sg21
I00
sg22
Nsg23
I00
sg24
S'R'
sbsg35
(irule
FeatureMatrix
p1090
(dp1091
g28
(lp1092
(I00
g475
tp1093
a(I01
g477
tp1094
a(I00
g771
tp1095
asg22
Nsbsg22
Nsba(irule
Rule
p1096
(dp1097
g15
(irule
Guard
p1098
(dp1099
g18
I00
sg19
(lp1100
sg21
I00
sg22
Nsg23
I00
sg24
S'L'
sbsg25
(irule
PlaceSpecification
p1101
(dp1102
g193
I1
sbsg31
(irule
Guard
p1103
(dp1104
g18
I00
sg19
(lp1105
(irule
FeatureMatrix
p1106
(dp1107
g28
(lp1108
(I00
g600
tp1109
asg22
Nsbasg21
I00
sg22
Nsg23
I00
sg24
S'R'
sbsg35
(irule
FeatureMatrix
p1110
(dp1111
g28
(lp1112
(I00
S'tense'
p1113
tp1114
asg22
Nsbsg22
Nsba(irule
Rule
p1115
(dp1116
g15
(irule
Guard
p1117
(dp1118
g18
I00
sg19
(lp1119
sg21
I00
sg22
Nsg23
I00
sg24
S'L'
sbsg25
(irule
PlaceSpecification
p1120
(dp1121
g193
I1
sbsg31
(irule
Guard
p1122
(dp1123
g18
I00
sg19
(lp1124
(irule
FeatureMatrix
p1125
(dp1126
g28
(lp1127
(I00
g1113
tp1128
asg22
Nsbasg21
I00
sg22
Nsg23
I00
sg24
S'R'
sbsg35
(irule
ConstantPhoneme
p1129
(dp1130
S'p'
g460
sbsg22
Nsba(irule
Rule
p1131
(dp1132
g15
(irule
Guard
p1133
(dp1134
g18
I01
sg19
(lp1135
sg21
I00
sg22
Nsg23
I00
sg24
S'L'
sbsg25
(irule
PlaceSpecification
p1136
(dp1137
g193
I1
sbsg31
(irule
Guard
p1138
(dp1139
g18
I00
sg19
(lp1140
sg21
I00
sg22
Nsg23
I00
sg24
S'R'
sbsg35
(irule
FeatureMatrix
p1141
(dp1142
g28
(lp1143
(I00
g635
tp1144
a(I01
g600
tp1145
asg22
Nsbsg22
Nsba(irule
Rule
p1146
(dp1147
g15
(irule
Guard
p1148
(dp1149
g18
I00
sg19
(lp1150
sg21
I00
sg22
Nsg23
I00
sg24
S'L'
sbsg25
(irule
PlaceSpecification
p1151
(dp1152
g193
I1
sbsg31
(irule
Guard
p1153
(dp1154
g18
I00
sg19
(lp1155
(irule
FeatureMatrix
p1156
(dp1157
g28
(lp1158
(I00
g600
tp1159
asg22
Nsbasg21
I00
sg22
Nsg23
I00
sg24
S'R'
sbsg35
(irule
FeatureMatrix
p1160
(dp1161
g28
(lp1162
(I00
g635
tp1163
asg22
Nsbsg22
Nsba(irule
Rule
p1164
(dp1165
g15
(irule
Guard
p1166
(dp1167
g18
I00
sg19
(lp1168
sg21
I00
sg22
Nsg23
I00
sg24
S'L'
sbsg25
(irule
PlaceSpecification
p1169
(dp1170
g193
I1
sbsg31
(irule
Guard
p1171
(dp1172
g18
I00
sg19
(lp1173
(irule
FeatureMatrix
p1174
(dp1175
g28
(lp1176
(I00
g521
tp1177
asg22
Nsbasg21
I00
sg22
Nsg23
I00
sg24
S'R'
sbsg35
(irule
ConstantPhoneme
p1178
(dp1179
S'p'
g460
sbsg22
Nsba(irule
Rule
p1180
(dp1181
g15
(irule
Guard
p1182
(dp1183
g18
I00
sg19
(lp1184
sg21
I00
sg22
Nsg23
I00
sg24
S'L'
sbsg25
(irule
PlaceSpecification
p1185
(dp1186
g193
I1
sbsg31
(irule
Guard
p1187
(dp1188
g18
I00
sg19
(lp1189
(irule
FeatureMatrix
p1190
(dp1191
g28
(lp1192
(I00
g477
tp1193
asg22
Nsbasg21
I00
sg22
Nsg23
I00
sg24
S'R'
sbsg35
(irule
ConstantPhoneme
p1194
(dp1195
S'p'
g460
sbsg22
Nsba(irule
Rule
p1196
(dp1197
g15
(irule
Guard
p1198
(dp1199
g18
I00
sg19
(lp1200
sg21
I00
sg22
Nsg23
I00
sg24
S'L'
sbsg25
(irule
PlaceSpecification
p1201
(dp1202
g193
I1
sbsg31
(irule
Guard
p1203
(dp1204
g18
I00
sg19
(lp1205
(irule
FeatureMatrix
p1206
(dp1207
g28
(lp1208
(I00
g635
tp1209
asg22
Nsbasg21
I00
sg22
Nsg23
I00
sg24
S'R'
sbsg35
(irule
FeatureMatrix
p1210
(dp1211
g28
(lp1212
(I00
g858
tp1213
asg22
Nsbsg22
Nsba(irule
Rule
p1214
(dp1215
g15
(irule
Guard
p1216
(dp1217
g18
I01
sg19
(lp1218
sg21
I00
sg22
Nsg23
I00
sg24
S'L'
sbsg25
(irule
PlaceSpecification
p1219
(dp1220
g193
I1
sbsg31
(irule
Guard
p1221
(dp1222
g18
I00
sg19
(lp1223
sg21
I00
sg22
Nsg23
I00
sg24
S'R'
sbsg35
(irule
FeatureMatrix
p1224
(dp1225
g28
(lp1226
(I00
g475
tp1227
a(I01
g477
tp1228
asg22
Nsbsg22
Nsba(irule
Rule
p1229
(dp1230
g15
(irule
Guard
p1231
(dp1232
g18
I00
sg19
(lp1233
sg21
I00
sg22
Nsg23
I00
sg24
S'L'
sbsg25
(irule
PlaceSpecification
p1234
(dp1235
g193
I1
sbsg31
(irule
Guard
p1236
(dp1237
g18
I00
sg19
(lp1238
(irule
FeatureMatrix
p1239
(dp1240
g28
(lp1241
(I00
g600
tp1242
asg22
Nsbasg21
I00
sg22
Nsg23
I00
sg24
S'R'
sbsg35
(irule
FeatureMatrix
p1243
(dp1244
g28
(lp1245
(I01
g909
tp1246
asg22
Nsbsg22
Nsba(irule
Rule
p1247
(dp1248
g15
(irule
Guard
p1249
(dp1250
g18
I00
sg19
(lp1251
sg21
I00
sg22
Nsg23
I00
sg24
S'L'
sbsg25
(irule
PlaceSpecification
p1252
(dp1253
g193
I1
sbsg31
(irule
Guard
p1254
(dp1255
g18
I00
sg19
(lp1256
(irule
FeatureMatrix
p1257
(dp1258
g28
(lp1259
(I00
g825
tp1260
asg22
Nsbasg21
I00
sg22
Nsg23
I00
sg24
S'R'
sbsg35
(irule
ConstantPhoneme
p1261
(dp1262
S'p'
g460
sbsg22
Nsba(irule
Rule
p1263
(dp1264
g15
(irule
Guard
p1265
(dp1266
g18
I01
sg19
(lp1267
sg21
I00
sg22
Nsg23
I00
sg24
S'L'
sbsg25
(irule
PlaceSpecification
p1268
(dp1269
g193
I1
sbsg31
(irule
Guard
p1270
(dp1271
g18
I00
sg19
(lp1272
sg21
I00
sg22
Nsg23
I00
sg24
S'R'
sbsg35
(irule
FeatureMatrix
p1273
(dp1274
g28
(lp1275
(I00
g755
tp1276
a(I01
g477
tp1277
asg22
Nsbsg22
Nsba(irule
Rule
p1278
(dp1279
g15
(irule
Guard
p1280
(dp1281
g18
I00
sg19
(lp1282
sg21
I00
sg22
Nsg23
I00
sg24
S'L'
sbsg25
(irule
PlaceSpecification
p1283
(dp1284
g193
I1
sbsg31
(irule
Guard
p1285
(dp1286
g18
I00
sg19
(lp1287
sg21
I00
sg22
Nsg23
I00
sg24
S'R'
sbsg35
(irule
FeatureMatrix
p1288
(dp1289
g28
(lp1290
(I00
g475
tp1291
a(I01
g477
tp1292
a(I01
g909
tp1293
asg22
Nsbsg22
Nsba(irule
Rule
p1294
(dp1295
g15
(irule
Guard
p1296
(dp1297
g18
I00
sg19
(lp1298
sg21
I00
sg22
Nsg23
I00
sg24
S'L'
sbsg25
(irule
PlaceSpecification
p1299
(dp1300
g193
I1
sbsg31
(irule
Guard
p1301
(dp1302
g18
I00
sg19
(lp1303
sg21
I00
sg22
Nsg23
I00
sg24
S'R'
sbsg35
(irule
FeatureMatrix
p1304
(dp1305
g28
(lp1306
(I00
g475
tp1307
a(I01
g477
tp1308
a(I00
g1113
tp1309
asg22
Nsbsg22
Nsba(irule
Rule
p1310
(dp1311
g15
(irule
Guard
p1312
(dp1313
g18
I00
sg19
(lp1314
sg21
I00
sg22
Nsg23
I00
sg24
S'L'
sbsg25
(irule
PlaceSpecification
p1315
(dp1316
g193
I1
sbsg31
(irule
Guard
p1317
(dp1318
g18
I00
sg19
(lp1319
(irule
FeatureMatrix
p1320
(dp1321
g28
(lp1322
(I00
g521
tp1323
asg22
Nsbasg21
I00
sg22
Nsg23
I00
sg24
S'R'
sbsg35
(irule
FeatureMatrix
p1324
(dp1325
g28
(lp1326
(I00
g1113
tp1327
asg22
Nsbsg22
Nsba(irule
Rule
p1328
(dp1329
g15
(irule
Guard
p1330
(dp1331
g18
I00
sg19
(lp1332
sg21
I00
sg22
Nsg23
I00
sg24
S'L'
sbsg25
(irule
PlaceSpecification
p1333
(dp1334
g193
I1
sbsg31
(irule
Guard
p1335
(dp1336
g18
I00
sg19
(lp1337
(irule
FeatureMatrix
p1338
(dp1339
g28
(lp1340
(I00
g635
tp1341
asg22
Nsbasg21
I00
sg22
Nsg23
I00
sg24
S'R'
sbsg35
(irule
FeatureMatrix
p1342
(dp1343
g28
(lp1344
(I00
g1113
tp1345
asg22
Nsbsg22
Nsba(irule
Rule
p1346
(dp1347
g15
(irule
Guard
p1348
(dp1349
g18
I01
sg19
(lp1350
sg21
I00
sg22
Nsg23
I00
sg24
S'L'
sbsg25
(irule
PlaceSpecification
p1351
(dp1352
g193
I1
sbsg31
(irule
Guard
p1353
(dp1354
g18
I00
sg19
(lp1355
sg21
I00
sg22
Nsg23
I00
sg24
S'R'
sbsg35
(irule
FeatureMatrix
p1356
(dp1357
g28
(lp1358
(I00
g635
tp1359
a(I01
g521
tp1360
asg22
Nsbsg22
Nsba(irule
Rule
p1361
(dp1362
g15
(irule
Guard
p1363
(dp1364
g18
I00
sg19
(lp1365
sg21
I00
sg22
Nsg23
I00
sg24
S'L'
sbsg25
(irule
PlaceSpecification
p1366
(dp1367
g193
I1
sbsg31
(irule
Guard
p1368
(dp1369
g18
I00
sg19
(lp1370
(irule
FeatureMatrix
p1371
(dp1372
g28
(lp1373
(I00
g755
tp1374
asg22
Nsbasg21
I00
sg22
Nsg23
I00
sg24
S'R'
sbsg35
(irule
ConstantPhoneme
p1375
(dp1376
S'p'
g460
sbsg22
Nsba(irule
Rule
p1377
(dp1378
g15
(irule
Guard
p1379
(dp1380
g18
I00
sg19
(lp1381
sg21
I00
sg22
Nsg23
I00
sg24
S'L'
sbsg25
(irule
PlaceSpecification
p1382
(dp1383
g193
I1
sbsg31
(irule
Guard
p1384
(dp1385
g18
I00
sg19
(lp1386
(irule
FeatureMatrix
p1387
(dp1388
g28
(lp1389
(I00
g876
tp1390
asg22
Nsbasg21
I00
sg22
Nsg23
I00
sg24
S'R'
sbsg35
(irule
ConstantPhoneme
p1391
(dp1392
S'p'
g460
sbsg22
Nsba(irule
Rule
p1393
(dp1394
g15
(irule
Guard
p1395
(dp1396
g18
I00
sg19
(lp1397
sg21
I00
sg22
Nsg23
I00
sg24
S'L'
sbsg25
(irule
PlaceSpecification
p1398
(dp1399
g193
I1
sbsg31
(irule
Guard
p1400
(dp1401
g18
I00
sg19
(lp1402
(irule
FeatureMatrix
p1403
(dp1404
g28
(lp1405
(I00
g858
tp1406
asg22
Nsbasg21
I00
sg22
Nsg23
I00
sg24
S'R'
sbsg35
(irule
FeatureMatrix
p1407
(dp1408
g28
(lp1409
(I01
g909
tp1410
asg22
Nsbsg22
Nsba(irule
Rule
p1411
(dp1412
g15
(irule
Guard
p1413
(dp1414
g18
I00
sg19
(lp1415
sg21
I00
sg22
Nsg23
I00
sg24
S'L'
sbsg25
(irule
PlaceSpecification
p1416
(dp1417
g193
I1
sbsg31
(irule
Guard
p1418
(dp1419
g18
I00
sg19
(lp1420
sg21
I00
sg22
Nsg23
I00
sg24
S'R'
sbsg35
(irule
FeatureMatrix
p1421
(dp1422
g28
(lp1423
(I00
g475
tp1424
a(I01
g477
tp1425
a(I00
g841
tp1426
asg22
Nsbsg22
Nsba(irule
Rule
p1427
(dp1428
g15
(irule
Guard
p1429
(dp1430
g18
I00
sg19
(lp1431
sg21
I00
sg22
Nsg23
I00
sg24
S'L'
sbsg25
(irule
PlaceSpecification
p1432
(dp1433
g193
I1
sbsg31
(irule
Guard
p1434
(dp1435
g18
I00
sg19
(lp1436
(irule
FeatureMatrix
p1437
(dp1438
g28
(lp1439
(I00
g521
tp1440
asg22
Nsbasg21
I00
sg22
Nsg23
I00
sg24
S'R'
sbsg35
(irule
FeatureMatrix
p1441
(dp1442
g28
(lp1443
(I00
g635
tp1444
asg22
Nsbsg22
Nsba(irule
Rule
p1445
(dp1446
g15
(irule
Guard
p1447
(dp1448
g18
I00
sg19
(lp1449
sg21
I00
sg22
Nsg23
I00
sg24
S'L'
sbsg25
(irule
PlaceSpecification
p1450
(dp1451
g193
I1
sbsg31
(irule
Guard
p1452
(dp1453
g18
I00
sg19
(lp1454
(irule
FeatureMatrix
p1455
(dp1456
g28
(lp1457
(I00
g1113
tp1458
asg22
Nsbasg21
I00
sg22
Nsg23
I00
sg24
S'R'
sbsg35
(irule
FeatureMatrix
p1459
(dp1460
g28
(lp1461
(I01
g477
tp1462
asg22
Nsbsg22
Nsba(irule
Rule
p1463
(dp1464
g15
(irule
Guard
p1465
(dp1466
g18
I00
sg19
(lp1467
sg21
I00
sg22
Nsg23
I00
sg24
S'L'
sbsg25
(irule
PlaceSpecification
p1468
(dp1469
g193
I1
sbsg31
(irule
Guard
p1470
(dp1471
g18
I00
sg19
(lp1472
(irule
FeatureMatrix
p1473
(dp1474
g28
(lp1475
(I00
g635
tp1476
asg22
Nsbasg21
I00
sg22
Nsg23
I00
sg24
S'R'
sbsg35
(irule
FeatureMatrix
p1477
(dp1478
g28
(lp1479
(I00
g635
tp1480
asg22
Nsbsg22
Nsba(irule
Rule
p1481
(dp1482
g15
(irule
Guard
p1483
(dp1484
g18
I00
sg19
(lp1485
sg21
I00
sg22
Nsg23
I00
sg24
S'L'
sbsg25
(irule
PlaceSpecification
p1486
(dp1487
g193
I1
sbsg31
(irule
Guard
p1488
(dp1489
g18
I00
sg19
(lp1490
(irule
FeatureMatrix
p1491
(dp1492
g28
(lp1493
(I00
g635
tp1494
asg22
Nsbasg21
I00
sg22
Nsg23
I00
sg24
S'R'
sbsg35
(irule
FeatureMatrix
p1495
(dp1496
g28
(lp1497
(I01
g477
tp1498
asg22
Nsbsg22
Nsba(irule
Rule
p1499
(dp1500
g15
(irule
Guard
p1501
(dp1502
g18
I00
sg19
(lp1503
sg21
I00
sg22
Nsg23
I00
sg24
S'L'
sbsg25
(irule
PlaceSpecification
p1504
(dp1505
g193
I1
sbsg31
(irule
Guard
p1506
(dp1507
g18
I00
sg19
(lp1508
(irule
FeatureMatrix
p1509
(dp1510
g28
(lp1511
(I00
g1113
tp1512
asg22
Nsbasg21
I00
sg22
Nsg23
I00
sg24
S'R'
sbsg35
(irule
FeatureMatrix
p1513
(dp1514
g28
(lp1515
(I01
g909
tp1516
asg22
Nsbsg22
Nsba(irule
Rule
p1517
(dp1518
g15
(irule
Guard
p1519
(dp1520
g18
I01
sg19
(lp1521
sg21
I00
sg22
Nsg23
I00
sg24
S'L'
sbsg25
(irule
PlaceSpecification
p1522
(dp1523
g193
I1
sbsg31
(irule
Guard
p1524
(dp1525
g18
I00
sg19
(lp1526
sg21
I00
sg22
Nsg23
I00
sg24
S'R'
sbsg35
(irule
FeatureMatrix
p1527
(dp1528
g28
(lp1529
(I00
g583
tp1530
a(I01
g477
tp1531
asg22
Nsbsg22
Nsba(irule
Rule
p1532
(dp1533
g15
(irule
Guard
p1534
(dp1535
g18
I00
sg19
(lp1536
sg21
I00
sg22
Nsg23
I00
sg24
S'L'
sbsg25
(irule
PlaceSpecification
p1537
(dp1538
g193
I1
sbsg31
(irule
Guard
p1539
(dp1540
g18
I00
sg19
(lp1541
(irule
FeatureMatrix
p1542
(dp1543
g28
(lp1544
(I00
g635
tp1545
asg22
Nsbasg21
I00
sg22
Nsg23
I00
sg24
S'R'
sbsg35
(irule
ConstantPhoneme
p1546
(dp1547
S'p'
g460
sbsg22
Nsba(irule
Rule
p1548
(dp1549
g15
(irule
Guard
p1550
(dp1551
g18
I01
sg19
(lp1552
sg21
I00
sg22
Nsg23
I00
sg24
S'L'
sbsg25
(irule
PlaceSpecification
p1553
(dp1554
g193
I1
sbsg31
(irule
Guard
p1555
(dp1556
g18
I00
sg19
(lp1557
sg21
I00
sg22
Nsg23
I00
sg24
S'R'
sbsg35
(irule
FeatureMatrix
p1558
(dp1559
g28
(lp1560
(I00
g475
tp1561
a(I01
g600
tp1562
asg22
Nsbsg22
Nsba(irule
Rule
p1563
(dp1564
g15
(irule
Guard
p1565
(dp1566
g18
I01
sg19
(lp1567
sg21
I00
sg22
Nsg23
I00
sg24
S'L'
sbsg25
(irule
PlaceSpecification
p1568
(dp1569
g193
I1
sbsg31
(irule
Guard
p1570
(dp1571
g18
I00
sg19
(lp1572
sg21
I00
sg22
Nsg23
I00
sg24
S'R'
sbsg35
(irule
FeatureMatrix
p1573
(dp1574
g28
(lp1575
(I01
g477
tp1576
a(I00
g858
tp1577
asg22
Nsbsg22
Nsba(irule
Rule
p1578
(dp1579
g15
(irule
Guard
p1580
(dp1581
g18
I00
sg19
(lp1582
sg21
I00
sg22
Nsg23
I00
sg24
S'L'
sbsg25
(irule
PlaceSpecification
p1583
(dp1584
g193
I1
sbsg31
(irule
Guard
p1585
(dp1586
g18
I00
sg19
(lp1587
(irule
FeatureMatrix
p1588
(dp1589
g28
(lp1590
(I00
g635
tp1591
asg22
Nsbasg21
I00
sg22
Nsg23
I00
sg24
S'R'
sbsg35
(irule
FeatureMatrix
p1592
(dp1593
g28
(lp1594
(I01
g909
tp1595
asg22
Nsbsg22
Nsba(irule
Rule
p1596
(dp1597
g15
(irule
Guard
p1598
(dp1599
g18
I00
sg19
(lp1600
sg21
I00
sg22
Nsg23
I00
sg24
S'L'
sbsg25
(irule
PlaceSpecification
p1601
(dp1602
g193
I1
sbsg31
(irule
Guard
p1603
(dp1604
g18
I00
sg19
(lp1605
sg21
I00
sg22
Nsg23
I00
sg24
S'R'
sbsg35
(irule
FeatureMatrix
p1606
(dp1607
g28
(lp1608
(I00
g475
tp1609
a(I01
g477
tp1610
a(I00
g858
tp1611
asg22
Nsbsg22
Nsba(irule
Rule
p1612
(dp1613
g15
(irule
Guard
p1614
(dp1615
g18
I00
sg19
(lp1616
sg21
I00
sg22
Nsg23
I00
sg24
S'L'
sbsg25
(irule
PlaceSpecification
p1617
(dp1618
g193
I1
sbsg31
(irule
Guard
p1619
(dp1620
g18
I00
sg19
(lp1621
(irule
FeatureMatrix
p1622
(dp1623
g28
(lp1624
(I00
g521
tp1625
asg22
Nsbasg21
I00
sg22
Nsg23
I00
sg24
S'R'
sbsg35
(irule
FeatureMatrix
p1626
(dp1627
g28
(lp1628
(I01
g909
tp1629
asg22
Nsbsg22
Nsba(irule
Rule
p1630
(dp1631
g15
(irule
Guard
p1632
(dp1633
g18
I01
sg19
(lp1634
sg21
I00
sg22
Nsg23
I00
sg24
S'L'
sbsg25
(irule
PlaceSpecification
p1635
(dp1636
g193
I1
sbsg31
(irule
Guard
p1637
(dp1638
g18
I00
sg19
(lp1639
sg21
I00
sg22
Nsg23
I00
sg24
S'R'
sbsg35
(irule
FeatureMatrix
p1640
(dp1641
g28
(lp1642
(I01
g521
tp1643
a(I00
g1113
tp1644
asg22
Nsbsg22
Nsba(irule
Rule
p1645
(dp1646
g15
(irule
Guard
p1647
(dp1648
g18
I00
sg19
(lp1649
sg21
I00
sg22
Nsg23
I00
sg24
S'L'
sbsg25
(irule
PlaceSpecification
p1650
(dp1651
g193
I1
sbsg31
(irule
Guard
p1652
(dp1653
g18
I00
sg19
(lp1654
sg21
I00
sg22
Nsg23
I00
sg24
S'R'
sbsg35
(irule
FeatureMatrix
p1655
(dp1656
g28
(lp1657
(I00
g475
tp1658
a(I01
g477
tp1659
a(I01
g600
tp1660
asg22
Nsbsg22
Nsba(irule
Rule
p1661
(dp1662
g15
(irule
Guard
p1663
(dp1664
g18
I01
sg19
(lp1665
sg21
I00
sg22
Nsg23
I00
sg24
S'L'
sbsg25
(irule
PlaceSpecification
p1666
(dp1667
g193
I1
sbsg31
(irule
Guard
p1668
(dp1669
g18
I00
sg19
(lp1670
sg21
I00
sg22
Nsg23
I00
sg24
S'R'
sbsg35
(irule
FeatureMatrix
p1671
(dp1672
g28
(lp1673
(I00
g1078
tp1674
a(I01
g521
tp1675
asg22
Nsbsg22
Nsba(irule
Rule
p1676
(dp1677
g15
(irule
Guard
p1678
(dp1679
g18
I01
sg19
(lp1680
sg21
I00
sg22
Nsg23
I00
sg24
S'L'
sbsg25
(irule
PlaceSpecification
p1681
(dp1682
g193
I1
sbsg31
(irule
Guard
p1683
(dp1684
g18
I00
sg19
(lp1685
sg21
I00
sg22
Nsg23
I00
sg24
S'R'
sbsg35
(irule
FeatureMatrix
p1686
(dp1687
g28
(lp1688
(I01
g477
tp1689
a(I00
g1078
tp1690
asg22
Nsbsg22
Nsba(irule
Rule
p1691
(dp1692
g15
(irule
Guard
p1693
(dp1694
g18
I01
sg19
(lp1695
sg21
I00
sg22
Nsg23
I00
sg24
S'L'
sbsg25
(irule
PlaceSpecification
p1696
(dp1697
g193
I1
sbsg31
(irule
Guard
p1698
(dp1699
g18
I00
sg19
(lp1700
sg21
I00
sg22
Nsg23
I00
sg24
S'R'
sbsg35
(irule
FeatureMatrix
p1701
(dp1702
g28
(lp1703
(I01
g477
tp1704
a(I01
g600
tp1705
asg22
Nsbsg22
Nsba(irule
Rule
p1706
(dp1707
g15
(irule
Guard
p1708
(dp1709
g18
I01
sg19
(lp1710
sg21
I00
sg22
Nsg23
I00
sg24
S'L'
sbsg25
(irule
PlaceSpecification
p1711
(dp1712
g193
I1
sbsg31
(irule
Guard
p1713
(dp1714
g18
I00
sg19
(lp1715
sg21
I00
sg22
Nsg23
I00
sg24
S'R'
sbsg35
(irule
FeatureMatrix
p1716
(dp1717
g28
(lp1718
(I01
g521
tp1719
a(I00
g841
tp1720
asg22
Nsbsg22
Nsba(irule
Rule
p1721
(dp1722
g15
(irule
Guard
p1723
(dp1724
g18
I01
sg19
(lp1725
sg21
I00
sg22
Nsg23
I00
sg24
S'L'
sbsg25
(irule
PlaceSpecification
p1726
(dp1727
g193
I1
sbsg31
(irule
Guard
p1728
(dp1729
g18
I00
sg19
(lp1730
sg21
I00
sg22
Nsg23
I00
sg24
S'R'
sbsg35
(irule
FeatureMatrix
p1731
(dp1732
g28
(lp1733
(I01
g521
tp1734
a(I00
g771
tp1735
asg22
Nsbsg22
Nsba(irule
Rule
p1736
(dp1737
g15
(irule
Guard
p1738
(dp1739
g18
I01
sg19
(lp1740
sg21
I00
sg22
Nsg23
I00
sg24
S'L'
sbsg25
(irule
PlaceSpecification
p1741
(dp1742
g193
I1
sbsg31
(irule
Guard
p1743
(dp1744
g18
I00
sg19
(lp1745
sg21
I00
sg22
Nsg23
I00
sg24
S'R'
sbsg35
(irule
FeatureMatrix
p1746
(dp1747
g28
(lp1748
(I00
g825
tp1749
a(I01
g521
tp1750
asg22
Nsbsg22
Nsba(irule
Rule
p1751
(dp1752
g15
(irule
Guard
p1753
(dp1754
g18
I01
sg19
(lp1755
sg21
I00
sg22
Nsg23
I00
sg24
S'L'
sbsg25
(irule
PlaceSpecification
p1756
(dp1757
g193
I1
sbsg31
(irule
Guard
p1758
(dp1759
g18
I00
sg19
(lp1760
sg21
I00
sg22
Nsg23
I00
sg24
S'R'
sbsg35
(irule
FeatureMatrix
p1761
(dp1762
g28
(lp1763
(I01
g521
tp1764
a(I00
g858
tp1765
asg22
Nsbsg22
Nsba(irule
Rule
p1766
(dp1767
g15
(irule
Guard
p1768
(dp1769
g18
I01
sg19
(lp1770
sg21
I00
sg22
Nsg23
I00
sg24
S'L'
sbsg25
(irule
PlaceSpecification
p1771
(dp1772
g193
I1
sbsg31
(irule
Guard
p1773
(dp1774
g18
I00
sg19
(lp1775
sg21
I00
sg22
Nsg23
I00
sg24
S'R'
sbsg35
(irule
FeatureMatrix
p1776
(dp1777
g28
(lp1778
(I00
g825
tp1779
a(I01
g477
tp1780
asg22
Nsbsg22
Nsba(irule
Rule
p1781
(dp1782
g15
(irule
Guard
p1783
(dp1784
g18
I01
sg19
(lp1785
sg21
I00
sg22
Nsg23
I00
sg24
S'L'
sbsg25
(irule
PlaceSpecification
p1786
(dp1787
g193
I1
sbsg31
(irule
Guard
p1788
(dp1789
g18
I00
sg19
(lp1790
sg21
I00
sg22
Nsg23
I00
sg24
S'R'
sbsg35
(irule
FeatureMatrix
p1791
(dp1792
g28
(lp1793
(I01
g477
tp1794
a(I00
g841
tp1795
asg22
Nsbsg22
Nsba(irule
Rule
p1796
(dp1797
g15
(irule
Guard
p1798
(dp1799
g18
I01
sg19
(lp1800
sg21
I00
sg22
Nsg23
I00
sg24
S'L'
sbsg25
(irule
PlaceSpecification
p1801
(dp1802
g193
I1
sbsg31
(irule
Guard
p1803
(dp1804
g18
I00
sg19
(lp1805
sg21
I00
sg22
Nsg23
I00
sg24
S'R'
sbsg35
(irule
FeatureMatrix
p1806
(dp1807
g28
(lp1808
(I00
g876
tp1809
a(I01
g521
tp1810
asg22
Nsbsg22
Nsba(irule
Rule
p1811
(dp1812
g15
(irule
Guard
p1813
(dp1814
g18
I01
sg19
(lp1815
sg21
I00
sg22
Nsg23
I00
sg24
S'L'
sbsg25
(irule
PlaceSpecification
p1816
(dp1817
g193
I1
sbsg31
(irule
Guard
p1818
(dp1819
g18
I00
sg19
(lp1820
sg21
I00
sg22
Nsg23
I00
sg24
S'R'
sbsg35
(irule
FeatureMatrix
p1821
(dp1822
g28
(lp1823
(I01
g521
tp1824
a(I01
g600
tp1825
asg22
Nsbsg22
Nsba(irule
Rule
p1826
(dp1827
g15
(irule
Guard
p1828
(dp1829
g18
I01
sg19
(lp1830
sg21
I00
sg22
Nsg23
I00
sg24
S'L'
sbsg25
(irule
PlaceSpecification
p1831
(dp1832
g193
I1
sbsg31
(irule
Guard
p1833
(dp1834
g18
I00
sg19
(lp1835
sg21
I00
sg22
Nsg23
I00
sg24
S'R'
sbsg35
(irule
FeatureMatrix
p1836
(dp1837
g28
(lp1838
(I00
g583
tp1839
a(I01
g521
tp1840
asg22
Nsbsg22
Nsba(irule
Rule
p1841
(dp1842
g15
(irule
Guard
p1843
(dp1844
g18
I01
sg19
(lp1845
sg21
I00
sg22
Nsg23
I00
sg24
S'L'
sbsg25
(irule
PlaceSpecification
p1846
(dp1847
g193
I1
sbsg31
(irule
Guard
p1848
(dp1849
g18
I00
sg19
(lp1850
sg21
I00
sg22
Nsg23
I00
sg24
S'R'
sbsg35
(irule
FeatureMatrix
p1851
(dp1852
g28
(lp1853
(I00
g755
tp1854
a(I01
g521
tp1855
asg22
Nsbsg22
Nsba(irule
Rule
p1856
(dp1857
g15
(irule
Guard
p1858
(dp1859
g18
I01
sg19
(lp1860
sg21
I00
sg22
Nsg23
I00
sg24
S'L'
sbsg25
(irule
PlaceSpecification
p1861
(dp1862
g193
I1
sbsg31
(irule
Guard
p1863
(dp1864
g18
I00
sg19
(lp1865
sg21
I00
sg22
Nsg23
I00
sg24
S'R'
sbsg35
(irule
FeatureMatrix
p1866
(dp1867
g28
(lp1868
(I00
g635
tp1869
a(I01
g477
tp1870
asg22
Nsbsg22
Nsba(irule
Rule
p1871
(dp1872
g15
(irule
Guard
p1873
(dp1874
g18
I01
sg19
(lp1875
sg21
I00
sg22
Nsg23
I00
sg24
S'L'
sbsg25
(irule
PlaceSpecification
p1876
(dp1877
g193
I1
sbsg31
(irule
Guard
p1878
(dp1879
g18
I00
sg19
(lp1880
sg21
I00
sg22
Nsg23
I00
sg24
S'R'
sbsg35
(irule
FeatureMatrix
p1881
(dp1882
g28
(lp1883
(I00
g475
tp1884
a(I01
g521
tp1885
asg22
Nsbsg22
Nsba(irule
Rule
p1886
(dp1887
g15
(irule
Guard
p1888
(dp1889
g18
I01
sg19
(lp1890
sg21
I00
sg22
Nsg23
I00
sg24
S'L'
sbsg25
(irule
PlaceSpecification
p1891
(dp1892
g193
I1
sbsg31
(irule
Guard
p1893
(dp1894
g18
I00
sg19
(lp1895
sg21
I00
sg22
Nsg23
I00
sg24
S'R'
sbsg35
(irule
FeatureMatrix
p1896
(dp1897
g28
(lp1898
(I01
g477
tp1899
a(I01
g521
tp1900
asg22
Nsbsg22
Nsba(irule
Rule
p1901
(dp1902
g15
(irule
Guard
p1903
(dp1904
g18
I01
sg19
(lp1905
sg21
I00
sg22
Nsg23
I00
sg24
S'L'
sbsg25
(irule
PlaceSpecification
p1906
(dp1907
g193
I1
sbsg31
(irule
Guard
p1908
(dp1909
g18
I00
sg19
(lp1910
sg21
I00
sg22
Nsg23
I00
sg24
S'R'
sbsg35
(irule
FeatureMatrix
p1911
(dp1912
g28
(lp1913
(I01
g477
tp1914
a(I00
g976
tp1915
asg22
Nsbsg22
Nsba(irule
Rule
p1916
(dp1917
g15
(irule
Guard
p1918
(dp1919
g18
I01
sg19
(lp1920
sg21
I00
sg22
Nsg23
I00
sg24
S'L'
sbsg25
(irule
PlaceSpecification
p1921
(dp1922
g193
I1
sbsg31
(irule
Guard
p1923
(dp1924
g18
I00
sg19
(lp1925
sg21
I00
sg22
Nsg23
I00
sg24
S'R'
sbsg35
(irule
FeatureMatrix
p1926
(dp1927
g28
(lp1928
(I01
g477
tp1929
a(I00
g1113
tp1930
asg22
Nsbsg22
Nsba(irule
Rule
p1931
(dp1932
g15
(irule
Guard
p1933
(dp1934
g18
I01
sg19
(lp1935
sg21
I00
sg22
Nsg23
I00
sg24
S'L'
sbsg25
(irule
PlaceSpecification
p1936
(dp1937
g193
I1
sbsg31
(irule
Guard
p1938
(dp1939
g18
I00
sg19
(lp1940
sg21
I00
sg22
Nsg23
I00
sg24
S'R'
sbsg35
(irule
FeatureMatrix
p1941
(dp1942
g28
(lp1943
(I00
g876
tp1944
a(I01
g477
tp1945
asg22
Nsbsg22
Nsba(irule
Rule
p1946
(dp1947
g15
(irule
Guard
p1948
(dp1949
g18
I01
sg19
(lp1950
sg21
I00
sg22
Nsg23
I00
sg24
S'L'
sbsg25
(irule
PlaceSpecification
p1951
(dp1952
g193
I1
sbsg31
(irule
Guard
p1953
(dp1954
g18
I00
sg19
(lp1955
sg21
I00
sg22
Nsg23
I00
sg24
S'R'
sbsg35
(irule
FeatureMatrix
p1956
(dp1957
g28
(lp1958
(I01
g477
tp1959
a(I01
g909
tp1960
asg22
Nsbsg22
Nsba(irule
Rule
p1961
(dp1962
g15
(irule
Guard
p1963
(dp1964
g18
I01
sg19
(lp1965
sg21
I00
sg22
Nsg23
I00
sg24
S'L'
sbsg25
(irule
PlaceSpecification
p1966
(dp1967
g193
I1
sbsg31
(irule
Guard
p1968
(dp1969
g18
I00
sg19
(lp1970
sg21
I00
sg22
Nsg23
I00
sg24
S'R'
sbsg35
(irule
FeatureMatrix
p1971
(dp1972
g28
(lp1973
(I01
g477
tp1974
a(I00
g771
tp1975
asg22
Nsbsg22
Nsba(irule
Rule
p1976
(dp1977
g15
(irule
Guard
p1978
(dp1979
g18
I00
sg19
(lp1980
sg21
I00
sg22
Nsg23
I00
sg24
S'L'
sbsg25
(irule
PlaceSpecification
p1981
(dp1982
g193
I1
sbsg31
(irule
Guard
p1983
(dp1984
g18
I00
sg19
(lp1985
(irule
FeatureMatrix
p1986
(dp1987
g28
(lp1988
sg22
Nsba(irule
FeatureMatrix
p1989
(dp1990
g28
(lp1991
sg22
Nsbasg21
I00
sg22
Nsg23
I01
sg24
S'R'
sbsg35
(irule
ConstantPhoneme
p1992
(dp1993
S'p'
g460
sbsg22
Nsba(irule
Rule
p1994
(dp1995
g15
(irule
Guard
p1996
(dp1997
g18
I01
sg19
(lp1998
sg21
I00
sg22
Nsg23
I00
sg24
S'L'
sbsg25
(irule
PlaceSpecification
p1999
(dp2000
g193
I1
sbsg31
(irule
Guard
p2001
(dp2002
g18
I00
sg19
(lp2003
(irule
FeatureMatrix
p2004
(dp2005
g28
(lp2006
sg22
Nsba(irule
FeatureMatrix
p2007
(dp2008
g28
(lp2009
sg22
Nsbasg21
I00
sg22
Nsg23
I00
sg24
S'R'
sbsg35
(irule
FeatureMatrix
p2010
(dp2011
g28
(lp2012
(I01
g521
tp2013
asg22
Nsbsg22
Nsba(irule
Rule
p2014
(dp2015
g15
(irule
Guard
p2016
(dp2017
g18
I01
sg19
(lp2018
sg21
I00
sg22
Nsg23
I00
sg24
S'L'
sbsg25
(irule
PlaceSpecification
p2019
(dp2020
g193
I1
sbsg31
(irule
Guard
p2021
(dp2022
g18
I00
sg19
(lp2023
(irule
FeatureMatrix
p2024
(dp2025
g28
(lp2026
(I00
g600
tp2027
asg22
Nsba(irule
FeatureMatrix
p2028
(dp2029
g28
(lp2030
sg22
Nsbasg21
I00
sg22
Nsg23
I00
sg24
S'R'
sbsg35
(irule
FeatureMatrix
p2031
(dp2032
g28
(lp2033
sg22
Nsbsg22
Nsba(irule
Rule
p2034
(dp2035
g15
(irule
Guard
p2036
(dp2037
g18
I00
sg19
(lp2038
sg21
I00
sg22
Nsg23
I00
sg24
S'L'
sbsg25
(irule
PlaceSpecification
p2039
(dp2040
g193
I1
sbsg31
(irule
Guard
p2041
(dp2042
g18
I00
sg19
(lp2043
(irule
FeatureMatrix
p2044
(dp2045
g28
(lp2046
(I00
g755
tp2047
asg22
Nsbasg21
I00
sg22
Nsg23
I00
sg24
S'R'
sbsg35
(irule
FeatureMatrix
p2048
(dp2049
g28
(lp2050
(I00
g475
tp2051
a(I01
g477
tp2052
asg22
Nsbsg22
Nsba(irule
Rule
p2053
(dp2054
g15
(irule
Guard
p2055
(dp2056
g18
I00
sg19
(lp2057
sg21
I00
sg22
Nsg23
I00
sg24
S'L'
sbsg25
(irule
PlaceSpecification
p2058
(dp2059
g193
I1
sbsg31
(irule
Guard
p2060
(dp2061
g18
I00
sg19
(lp2062
(irule
FeatureMatrix
p2063
(dp2064
g28
(lp2065
sg22
Nsba(irule
FeatureMatrix
p2066
(dp2067
g28
(lp2068
(I01
g521
tp2069
asg22
Nsbasg21
I00
sg22
Nsg23
I00
sg24
S'R'
sbsg35
(irule
FeatureMatrix
p2070
(dp2071
g28
(lp2072
(I01
g477
tp2073
asg22
Nsbsg22
Nsba(irule
Rule
p2074
(dp2075
g15
(irule
Guard
p2076
(dp2077
g18
I01
sg19
(lp2078
sg21
I00
sg22
Nsg23
I00
sg24
S'L'
sbsg25
(irule
PlaceSpecification
p2079
(dp2080
g193
I1
sbsg31
(irule
Guard
p2081
(dp2082
g18
I00
sg19
(lp2083
(irule
FeatureMatrix
p2084
(dp2085
g28
(lp2086
(I00
g635
tp2087
asg22
Nsba(irule
FeatureMatrix
p2088
(dp2089
g28
(lp2090
sg22
Nsbasg21
I00
sg22
Nsg23
I00
sg24
S'R'
sbsg35
(irule
FeatureMatrix
p2091
(dp2092
g28
(lp2093
sg22
Nsbsg22
Nsbaa(lp2094
(irule
Rule
p2095
(dp2096
g15
(irule
Guard
p2097
(dp2098
g18
I01
sg19
(lp2099
(irule
FeatureMatrix
p2100
(dp2101
g28
(lp2102
sg22
V[  ]
p2103
sbasg21
I00
sg22
V# [  ]
p2104
sg23
I00
sg24
S'L'
sbsg25
(irule
FeatureMatrix
p2105
(dp2106
g28
(lp2107
(I01
S'voice'
tp2108
asg22
V[ +voice ]
p2109
sbsg31
(irule
Guard
p2110
(dp2111
g18
I00
sg19
(lp2112
sg21
I00
sg22
V
sg23
I00
sg24
S'R'
sbsg35
(irule
FeatureMatrix
p2113
(dp2114
g28
(lp2115
sg22
V[  ]
p2116
sbsg22
V[  ] ---> [ +voice ] / # [  ] _ 
p2117
sba(irule
Rule
p2118
(dp2119
g15
(irule
Guard
p2120
(dp2121
g18
I00
sg19
(lp2122
(irule
FeatureMatrix
p2123
(dp2124
g28
(lp2125
(I00
S'continuant'
p2126
tp2127
asg22
Nsbasg21
I00
sg22
Nsg23
I00
sg24
S'L'
sbsg25
(irule
FeatureMatrix
p2128
(dp2129
g28
(lp2130
(I01
S'voice'
p2131
tp2132
asg22
Nsbsg31
(irule
Guard
p2133
(dp2134
g18
I00
sg19
(lp2135
sg21
I00
sg22
Nsg23
I00
sg24
S'R'
sbsg35
(irule
FeatureMatrix
p2136
(dp2137
g28
(lp2138
sg22
Nsbsg22
Nsba(irule
Rule
p2139
(dp2140
g15
(irule
Guard
p2141
(dp2142
g18
I00
sg19
(lp2143
(irule
FeatureMatrix
p2144
(dp2145
g28
(lp2146
(I00
S'tense'
p2147
tp2148
asg22
Nsbasg21
I00
sg22
Nsg23
I00
sg24
S'L'
sbsg25
(irule
FeatureMatrix
p2149
(dp2150
g28
(lp2151
(I01
g2131
tp2152
asg22
Nsbsg31
(irule
Guard
p2153
(dp2154
g18
I00
sg19
(lp2155
sg21
I00
sg22
Nsg23
I00
sg24
S'R'
sbsg35
(irule
FeatureMatrix
p2156
(dp2157
g28
(lp2158
sg22
Nsbsg22
Nsba(irule
Rule
p2159
(dp2160
g15
(irule
Guard
p2161
(dp2162
g18
I00
sg19
(lp2163
(irule
FeatureMatrix
p2164
(dp2165
g28
(lp2166
(I01
S'nasal'
p2167
tp2168
asg22
Nsbasg21
I00
sg22
Nsg23
I00
sg24
S'L'
sbsg25
(irule
FeatureMatrix
p2169
(dp2170
g28
(lp2171
(I01
g2131
tp2172
asg22
Nsbsg31
(irule
Guard
p2173
(dp2174
g18
I00
sg19
(lp2175
sg21
I00
sg22
Nsg23
I00
sg24
S'R'
sbsg35
(irule
FeatureMatrix
p2176
(dp2177
g28
(lp2178
sg22
Nsbsg22
Nsba(irule
Rule
p2179
(dp2180
g15
(irule
Guard
p2181
(dp2182
g18
I00
sg19
(lp2183
(irule
FeatureMatrix
p2184
(dp2185
g28
(lp2186
(I00
S'vowel'
p2187
tp2188
asg22
Nsbasg21
I00
sg22
Nsg23
I00
sg24
S'L'
sbsg25
(irule
FeatureMatrix
p2189
(dp2190
g28
(lp2191
(I01
g2131
tp2192
asg22
Nsbsg31
(irule
Guard
p2193
(dp2194
g18
I00
sg19
(lp2195
sg21
I00
sg22
Nsg23
I00
sg24
S'R'
sbsg35
(irule
FeatureMatrix
p2196
(dp2197
g28
(lp2198
sg22
Nsbsg22
Nsba(irule
Rule
p2199
(dp2200
g15
(irule
Guard
p2201
(dp2202
g18
I00
sg19
(lp2203
(irule
FeatureMatrix
p2204
(dp2205
g28
(lp2206
(I00
g2126
tp2207
asg22
Nsbasg21
I00
sg22
Nsg23
I00
sg24
S'L'
sbsg25
(irule
FeatureMatrix
p2208
(dp2209
g28
(lp2210
(I01
g2131
tp2211
asg22
Nsbsg31
(irule
Guard
p2212
(dp2213
g18
I00
sg19
(lp2214
(irule
FeatureMatrix
p2215
(dp2216
g28
(lp2217
sg22
Nsbasg21
I00
sg22
Nsg23
I00
sg24
S'R'
sbsg35
(irule
FeatureMatrix
p2218
(dp2219
g28
(lp2220
sg22
Nsbsg22
Nsba(irule
Rule
p2221
(dp2222
g15
(irule
Guard
p2223
(dp2224
g18
I00
sg19
(lp2225
(irule
FeatureMatrix
p2226
(dp2227
g28
(lp2228
(I00
g2126
tp2229
asg22
Nsbasg21
I00
sg22
Nsg23
I00
sg24
S'L'
sbsg25
(irule
FeatureMatrix
p2230
(dp2231
g28
(lp2232
(I00
g2167
tp2233
a(I01
g2131
tp2234
asg22
Nsbsg31
(irule
Guard
p2235
(dp2236
g18
I00
sg19
(lp2237
sg21
I00
sg22
Nsg23
I00
sg24
S'R'
sbsg35
(irule
FeatureMatrix
p2238
(dp2239
g28
(lp2240
sg22
Nsbsg22
Nsba(irule
Rule
p2241
(dp2242
g15
(irule
Guard
p2243
(dp2244
g18
I00
sg19
(lp2245
(irule
FeatureMatrix
p2246
(dp2247
g28
(lp2248
(I01
g2167
tp2249
asg22
Nsbasg21
I00
sg22
Nsg23
I00
sg24
S'L'
sbsg25
(irule
FeatureMatrix
p2250
(dp2251
g28
(lp2252
(I01
g2131
tp2253
asg22
Nsbsg31
(irule
Guard
p2254
(dp2255
g18
I00
sg19
(lp2256
(irule
FeatureMatrix
p2257
(dp2258
g28
(lp2259
sg22
Nsbasg21
I00
sg22
Nsg23
I00
sg24
S'R'
sbsg35
(irule
FeatureMatrix
p2260
(dp2261
g28
(lp2262
sg22
Nsbsg22
Nsba(irule
Rule
p2263
(dp2264
g15
(irule
Guard
p2265
(dp2266
g18
I00
sg19
(lp2267
(irule
FeatureMatrix
p2268
(dp2269
g28
(lp2270
(I00
g2126
tp2271
asg22
Nsbasg21
I00
sg22
Nsg23
I00
sg24
S'L'
sbsg25
(irule
FeatureMatrix
p2272
(dp2273
g28
(lp2274
(I00
S'lateral'
p2275
tp2276
a(I01
g2131
tp2277
asg22
Nsbsg31
(irule
Guard
p2278
(dp2279
g18
I00
sg19
(lp2280
sg21
I00
sg22
Nsg23
I00
sg24
S'R'
sbsg35
(irule
FeatureMatrix
p2281
(dp2282
g28
(lp2283
sg22
Nsbsg22
Nsba(irule
Rule
p2284
(dp2285
g15
(irule
Guard
p2286
(dp2287
g18
I00
sg19
(lp2288
(irule
FeatureMatrix
p2289
(dp2290
g28
(lp2291
(I00
g2147
tp2292
asg22
Nsbasg21
I00
sg22
Nsg23
I00
sg24
S'L'
sbsg25
(irule
FeatureMatrix
p2293
(dp2294
g28
(lp2295
(I01
g2131
tp2296
asg22
Nsbsg31
(irule
Guard
p2297
(dp2298
g18
I00
sg19
(lp2299
(irule
FeatureMatrix
p2300
(dp2301
g28
(lp2302
sg22
Nsbasg21
I00
sg22
Nsg23
I00
sg24
S'R'
sbsg35
(irule
FeatureMatrix
p2303
(dp2304
g28
(lp2305
sg22
Nsbsg22
Nsba(irule
Rule
p2306
(dp2307
g15
(irule
Guard
p2308
(dp2309
g18
I01
sg19
(lp2310
(irule
FeatureMatrix
p2311
(dp2312
g28
(lp2313
sg22
Nsbasg21
I00
sg22
Nsg23
I00
sg24
S'L'
sbsg25
(irule
FeatureMatrix
p2314
(dp2315
g28
(lp2316
(I01
g2131
tp2317
asg22
Nsbsg31
(irule
Guard
p2318
(dp2319
g18
I00
sg19
(lp2320
(irule
FeatureMatrix
p2321
(dp2322
g28
(lp2323
sg22
Nsbasg21
I00
sg22
Nsg23
I00
sg24
S'R'
sbsg35
(irule
FeatureMatrix
p2324
(dp2325
g28
(lp2326
sg22
Nsbsg22
Nsba(irule
Rule
p2327
(dp2328
g15
(irule
Guard
p2329
(dp2330
g18
I00
sg19
(lp2331
(irule
FeatureMatrix
p2332
(dp2333
g28
(lp2334
(I00
g2126
tp2335
asg22
Nsbasg21
I00
sg22
Nsg23
I00
sg24
S'L'
sbsg25
(irule
FeatureMatrix
p2336
(dp2337
g28
(lp2338
(I00
S'liquid'
p2339
tp2340
a(I01
g2131
tp2341
asg22
Nsbsg31
(irule
Guard
p2342
(dp2343
g18
I00
sg19
(lp2344
sg21
I00
sg22
Nsg23
I00
sg24
S'R'
sbsg35
(irule
FeatureMatrix
p2345
(dp2346
g28
(lp2347
sg22
Nsbsg22
Nsba(irule
Rule
p2348
(dp2349
g15
(irule
Guard
p2350
(dp2351
g18
I00
sg19
(lp2352
(irule
FeatureMatrix
p2353
(dp2354
g28
(lp2355
(I01
g2167
tp2356
asg22
Nsbasg21
I00
sg22
Nsg23
I00
sg24
S'L'
sbsg25
(irule
FeatureMatrix
p2357
(dp2358
g28
(lp2359
(I00
g2339
tp2360
a(I01
g2131
tp2361
asg22
Nsbsg31
(irule
Guard
p2362
(dp2363
g18
I00
sg19
(lp2364
sg21
I00
sg22
Nsg23
I00
sg24
S'R'
sbsg35
(irule
FeatureMatrix
p2365
(dp2366
g28
(lp2367
sg22
Nsbsg22
Nsba(irule
Rule
p2368
(dp2369
g15
(irule
Guard
p2370
(dp2371
g18
I00
sg19
(lp2372
(irule
FeatureMatrix
p2373
(dp2374
g28
(lp2375
(I01
g2167
tp2376
asg22
Nsbasg21
I00
sg22
Nsg23
I00
sg24
S'L'
sbsg25
(irule
FeatureMatrix
p2377
(dp2378
g28
(lp2379
(I01
g2131
tp2380
asg22
Nsbsg31
(irule
Guard
p2381
(dp2382
g18
I00
sg19
(lp2383
sg21
I00
sg22
Nsg23
I00
sg24
S'R'
sbsg35
(irule
FeatureMatrix
p2384
(dp2385
g28
(lp2386
(I00
S'low'
p2387
tp2388
asg22
Nsbsg22
Nsba(irule
Rule
p2389
(dp2390
g15
(irule
Guard
p2391
(dp2392
g18
I00
sg19
(lp2393
(irule
FeatureMatrix
p2394
(dp2395
g28
(lp2396
(I01
g2167
tp2397
asg22
Nsbasg21
I00
sg22
Nsg23
I00
sg24
S'L'
sbsg25
(irule
FeatureMatrix
p2398
(dp2399
g28
(lp2400
(I00
g2275
tp2401
a(I01
g2131
tp2402
asg22
Nsbsg31
(irule
Guard
p2403
(dp2404
g18
I00
sg19
(lp2405
sg21
I00
sg22
Nsg23
I00
sg24
S'R'
sbsg35
(irule
FeatureMatrix
p2406
(dp2407
g28
(lp2408
sg22
Nsbsg22
Nsba(irule
Rule
p2409
(dp2410
g15
(irule
Guard
p2411
(dp2412
g18
I00
sg19
(lp2413
(irule
FeatureMatrix
p2414
(dp2415
g28
(lp2416
(I00
g2126
tp2417
asg22
Nsbasg21
I00
sg22
Nsg23
I00
sg24
S'L'
sbsg25
(irule
FeatureMatrix
p2418
(dp2419
g28
(lp2420
(I01
g2131
tp2421
asg22
Nsbsg31
(irule
Guard
p2422
(dp2423
g18
I00
sg19
(lp2424
sg21
I00
sg22
Nsg23
I00
sg24
S'R'
sbsg35
(irule
FeatureMatrix
p2425
(dp2426
g28
(lp2427
(I00
g2167
tp2428
asg22
Nsbsg22
Nsba(irule
Rule
p2429
(dp2430
g15
(irule
Guard
p2431
(dp2432
g18
I00
sg19
(lp2433
(irule
FeatureMatrix
p2434
(dp2435
g28
(lp2436
(I01
g2167
tp2437
asg22
Nsbasg21
I00
sg22
Nsg23
I00
sg24
S'L'
sbsg25
(irule
FeatureMatrix
p2438
(dp2439
g28
(lp2440
(I01
g2131
tp2441
asg22
Nsbsg31
(irule
Guard
p2442
(dp2443
g18
I00
sg19
(lp2444
sg21
I00
sg22
Nsg23
I00
sg24
S'R'
sbsg35
(irule
FeatureMatrix
p2445
(dp2446
g28
(lp2447
(I00
g2147
tp2448
asg22
Nsbsg22
Nsba(irule
Rule
p2449
(dp2450
g15
(irule
Guard
p2451
(dp2452
g18
I00
sg19
(lp2453
(irule
FeatureMatrix
p2454
(dp2455
g28
(lp2456
(I00
g2187
tp2457
asg22
Nsbasg21
I00
sg22
Nsg23
I00
sg24
S'L'
sbsg25
(irule
FeatureMatrix
p2458
(dp2459
g28
(lp2460
(I00
g2275
tp2461
a(I01
g2131
tp2462
asg22
Nsbsg31
(irule
Guard
p2463
(dp2464
g18
I00
sg19
(lp2465
sg21
I00
sg22
Nsg23
I00
sg24
S'R'
sbsg35
(irule
FeatureMatrix
p2466
(dp2467
g28
(lp2468
sg22
Nsbsg22
Nsba(irule
Rule
p2469
(dp2470
g15
(irule
Guard
p2471
(dp2472
g18
I00
sg19
(lp2473
(irule
FeatureMatrix
p2474
(dp2475
g28
(lp2476
(I00
g2126
tp2477
asg22
Nsbasg21
I00
sg22
Nsg23
I00
sg24
S'L'
sbsg25
(irule
FeatureMatrix
p2478
(dp2479
g28
(lp2480
(I01
g2131
tp2481
asg22
Nsbsg31
(irule
Guard
p2482
(dp2483
g18
I00
sg19
(lp2484
sg21
I00
sg22
Nsg23
I00
sg24
S'R'
sbsg35
(irule
FeatureMatrix
p2485
(dp2486
g28
(lp2487
(I00
g2126
tp2488
asg22
Nsbsg22
Nsba(irule
Rule
p2489
(dp2490
g15
(irule
Guard
p2491
(dp2492
g18
I00
sg19
(lp2493
(irule
FeatureMatrix
p2494
(dp2495
g28
(lp2496
(I01
g2167
tp2497
asg22
Nsbasg21
I00
sg22
Nsg23
I00
sg24
S'L'
sbsg25
(irule
FeatureMatrix
p2498
(dp2499
g28
(lp2500
(I00
S'rounded'
p2501
tp2502
a(I01
g2131
tp2503
asg22
Nsbsg31
(irule
Guard
p2504
(dp2505
g18
I00
sg19
(lp2506
sg21
I00
sg22
Nsg23
I00
sg24
S'R'
sbsg35
(irule
FeatureMatrix
p2507
(dp2508
g28
(lp2509
sg22
Nsbsg22
Nsba(irule
Rule
p2510
(dp2511
g15
(irule
Guard
p2512
(dp2513
g18
I00
sg19
(lp2514
(irule
FeatureMatrix
p2515
(dp2516
g28
(lp2517
(I00
g2147
tp2518
asg22
Nsbasg21
I00
sg22
Nsg23
I00
sg24
S'L'
sbsg25
(irule
FeatureMatrix
p2519
(dp2520
g28
(lp2521
(I00
g2167
tp2522
a(I01
g2131
tp2523
asg22
Nsbsg31
(irule
Guard
p2524
(dp2525
g18
I00
sg19
(lp2526
sg21
I00
sg22
Nsg23
I00
sg24
S'R'
sbsg35
(irule
FeatureMatrix
p2527
(dp2528
g28
(lp2529
sg22
Nsbsg22
Nsba(irule
Rule
p2530
(dp2531
g15
(irule
Guard
p2532
(dp2533
g18
I00
sg19
(lp2534
(irule
FeatureMatrix
p2535
(dp2536
g28
(lp2537
(I00
g2187
tp2538
asg22
Nsbasg21
I00
sg22
Nsg23
I00
sg24
S'L'
sbsg25
(irule
FeatureMatrix
p2539
(dp2540
g28
(lp2541
(I00
g2167
tp2542
a(I01
g2131
tp2543
asg22
Nsbsg31
(irule
Guard
p2544
(dp2545
g18
I00
sg19
(lp2546
sg21
I00
sg22
Nsg23
I00
sg24
S'R'
sbsg35
(irule
FeatureMatrix
p2547
(dp2548
g28
(lp2549
sg22
Nsbsg22
Nsba(irule
Rule
p2550
(dp2551
g15
(irule
Guard
p2552
(dp2553
g18
I00
sg19
(lp2554
(irule
FeatureMatrix
p2555
(dp2556
g28
(lp2557
(I00
g2187
tp2558
asg22
Nsbasg21
I00
sg22
Nsg23
I00
sg24
S'L'
sbsg25
(irule
FeatureMatrix
p2559
(dp2560
g28
(lp2561
(I01
g2131
tp2562
asg22
Nsbsg31
(irule
Guard
p2563
(dp2564
g18
I00
sg19
(lp2565
(irule
FeatureMatrix
p2566
(dp2567
g28
(lp2568
sg22
Nsbasg21
I00
sg22
Nsg23
I00
sg24
S'R'
sbsg35
(irule
FeatureMatrix
p2569
(dp2570
g28
(lp2571
sg22
Nsbsg22
Nsba(irule
Rule
p2572
(dp2573
g15
(irule
Guard
p2574
(dp2575
g18
I00
sg19
(lp2576
(irule
FeatureMatrix
p2577
(dp2578
g28
(lp2579
(I00
g2147
tp2580
asg22
Nsbasg21
I00
sg22
Nsg23
I00
sg24
S'L'
sbsg25
(irule
FeatureMatrix
p2581
(dp2582
g28
(lp2583
(I00
g2275
tp2584
a(I01
g2131
tp2585
asg22
Nsbsg31
(irule
Guard
p2586
(dp2587
g18
I00
sg19
(lp2588
sg21
I00
sg22
Nsg23
I00
sg24
S'R'
sbsg35
(irule
FeatureMatrix
p2589
(dp2590
g28
(lp2591
sg22
Nsbsg22
Nsba(irule
Rule
p2592
(dp2593
g15
(irule
Guard
p2594
(dp2595
g18
I00
sg19
(lp2596
(irule
FeatureMatrix
p2597
(dp2598
g28
(lp2599
(I01
g2167
tp2600
asg22
Nsbasg21
I00
sg22
Nsg23
I00
sg24
S'L'
sbsg25
(irule
FeatureMatrix
p2601
(dp2602
g28
(lp2603
(I00
S'glide'
p2604
tp2605
a(I01
g2131
tp2606
asg22
Nsbsg31
(irule
Guard
p2607
(dp2608
g18
I00
sg19
(lp2609
sg21
I00
sg22
Nsg23
I00
sg24
S'R'
sbsg35
(irule
FeatureMatrix
p2610
(dp2611
g28
(lp2612
sg22
Nsbsg22
Nsba(irule
Rule
p2613
(dp2614
g15
(irule
Guard
p2615
(dp2616
g18
I00
sg19
(lp2617
(irule
FeatureMatrix
p2618
(dp2619
g28
(lp2620
(I00
g2126
tp2621
asg22
Nsbasg21
I00
sg22
Nsg23
I00
sg24
S'L'
sbsg25
(irule
FeatureMatrix
p2622
(dp2623
g28
(lp2624
(I01
g2131
tp2625
asg22
Nsbsg31
(irule
Guard
p2626
(dp2627
g18
I00
sg19
(lp2628
sg21
I00
sg22
Nsg23
I00
sg24
S'R'
sbsg35
(irule
FeatureMatrix
p2629
(dp2630
g28
(lp2631
(I00
g2501
tp2632
asg22
Nsbsg22
Nsba(irule
Rule
p2633
(dp2634
g15
(irule
Guard
p2635
(dp2636
g18
I00
sg19
(lp2637
(irule
FeatureMatrix
p2638
(dp2639
g28
(lp2640
(I01
g2167
tp2641
asg22
Nsbasg21
I00
sg22
Nsg23
I00
sg24
S'L'
sbsg25
(irule
FeatureMatrix
p2642
(dp2643
g28
(lp2644
(I00
g2167
tp2645
a(I01
g2131
tp2646
asg22
Nsbsg31
(irule
Guard
p2647
(dp2648
g18
I00
sg19
(lp2649
sg21
I00
sg22
Nsg23
I00
sg24
S'R'
sbsg35
(irule
FeatureMatrix
p2650
(dp2651
g28
(lp2652
sg22
Nsbsg22
Nsba(irule
Rule
p2653
(dp2654
g15
(irule
Guard
p2655
(dp2656
g18
I00
sg19
(lp2657
(irule
FeatureMatrix
p2658
(dp2659
g28
(lp2660
(I01
g2167
tp2661
a(I00
g2387
tp2662
asg22
Nsbasg21
I00
sg22
Nsg23
I00
sg24
S'L'
sbsg25
(irule
FeatureMatrix
p2663
(dp2664
g28
(lp2665
(I01
g2131
tp2666
asg22
Nsbsg31
(irule
Guard
p2667
(dp2668
g18
I00
sg19
(lp2669
sg21
I00
sg22
Nsg23
I00
sg24
S'R'
sbsg35
(irule
FeatureMatrix
p2670
(dp2671
g28
(lp2672
sg22
Nsbsg22
Nsba(irule
Rule
p2673
(dp2674
g15
(irule
Guard
p2675
(dp2676
g18
I00
sg19
(lp2677
(irule
FeatureMatrix
p2678
(dp2679
g28
(lp2680
(I00
g2126
tp2681
a(I00
S'sibilant'
p2682
tp2683
asg22
Nsbasg21
I00
sg22
Nsg23
I00
sg24
S'L'
sbsg25
(irule
FeatureMatrix
p2684
(dp2685
g28
(lp2686
(I01
g2131
tp2687
asg22
Nsbsg31
(irule
Guard
p2688
(dp2689
g18
I00
sg19
(lp2690
sg21
I00
sg22
Nsg23
I00
sg24
S'R'
sbsg35
(irule
FeatureMatrix
p2691
(dp2692
g28
(lp2693
sg22
Nsbsg22
Nsba(irule
Rule
p2694
(dp2695
g15
(irule
Guard
p2696
(dp2697
g18
I00
sg19
(lp2698
(irule
FeatureMatrix
p2699
(dp2700
g28
(lp2701
(I01
g2167
tp2702
a(I00
g2682
tp2703
asg22
Nsbasg21
I00
sg22
Nsg23
I00
sg24
S'L'
sbsg25
(irule
FeatureMatrix
p2704
(dp2705
g28
(lp2706
(I01
g2131
tp2707
asg22
Nsbsg31
(irule
Guard
p2708
(dp2709
g18
I00
sg19
(lp2710
sg21
I00
sg22
Nsg23
I00
sg24
S'R'
sbsg35
(irule
FeatureMatrix
p2711
(dp2712
g28
(lp2713
sg22
Nsbsg22
Nsba(irule
Rule
p2714
(dp2715
g15
(irule
Guard
p2716
(dp2717
g18
I01
sg19
(lp2718
(irule
FeatureMatrix
p2719
(dp2720
g28
(lp2721
(I01
g2167
tp2722
asg22
Nsbasg21
I00
sg22
Nsg23
I00
sg24
S'L'
sbsg25
(irule
FeatureMatrix
p2723
(dp2724
g28
(lp2725
(I01
g2131
tp2726
asg22
Nsbsg31
(irule
Guard
p2727
(dp2728
g18
I00
sg19
(lp2729
sg21
I00
sg22
Nsg23
I00
sg24
S'R'
sbsg35
(irule
FeatureMatrix
p2730
(dp2731
g28
(lp2732
sg22
Nsbsg22
Nsba(irule
Rule
p2733
(dp2734
g15
(irule
Guard
p2735
(dp2736
g18
I01
sg19
(lp2737
(irule
FeatureMatrix
p2738
(dp2739
g28
(lp2740
(I00
g2126
tp2741
asg22
Nsbasg21
I00
sg22
Nsg23
I00
sg24
S'L'
sbsg25
(irule
FeatureMatrix
p2742
(dp2743
g28
(lp2744
(I01
g2131
tp2745
asg22
Nsbsg31
(irule
Guard
p2746
(dp2747
g18
I00
sg19
(lp2748
sg21
I00
sg22
Nsg23
I00
sg24
S'R'
sbsg35
(irule
FeatureMatrix
p2749
(dp2750
g28
(lp2751
sg22
Nsbsg22
Nsba(irule
Rule
p2752
(dp2753
g15
(irule
Guard
p2754
(dp2755
g18
I00
sg19
(lp2756
(irule
FeatureMatrix
p2757
(dp2758
g28
(lp2759
(I00
g2126
tp2760
asg22
Nsbasg21
I00
sg22
Nsg23
I00
sg24
S'L'
sbsg25
(irule
FeatureMatrix
p2761
(dp2762
g28
(lp2763
(I01
g2131
tp2764
asg22
Nsbsg31
(irule
Guard
p2765
(dp2766
g18
I00
sg19
(lp2767
sg21
I00
sg22
Nsg23
I00
sg24
S'R'
sbsg35
(irule
FeatureMatrix
p2768
(dp2769
g28
(lp2770
(I00
g2187
tp2771
asg22
Nsbsg22
Nsba(irule
Rule
p2772
(dp2773
g15
(irule
Guard
p2774
(dp2775
g18
I01
sg19
(lp2776
(irule
FeatureMatrix
p2777
(dp2778
g28
(lp2779
(I00
g2339
tp2780
asg22
Nsbasg21
I00
sg22
Nsg23
I00
sg24
S'L'
sbsg25
(irule
FeatureMatrix
p2781
(dp2782
g28
(lp2783
(I01
g2131
tp2784
asg22
Nsbsg31
(irule
Guard
p2785
(dp2786
g18
I00
sg19
(lp2787
sg21
I00
sg22
Nsg23
I00
sg24
S'R'
sbsg35
(irule
FeatureMatrix
p2788
(dp2789
g28
(lp2790
sg22
Nsbsg22
Nsba(irule
Rule
p2791
(dp2792
g15
(irule
Guard
p2793
(dp2794
g18
I00
sg19
(lp2795
(irule
FeatureMatrix
p2796
(dp2797
g28
(lp2798
(I00
g2187
tp2799
asg22
Nsbasg21
I00
sg22
Nsg23
I00
sg24
S'L'
sbsg25
(irule
FeatureMatrix
p2800
(dp2801
g28
(lp2802
(I00
g2339
tp2803
a(I01
g2131
tp2804
asg22
Nsbsg31
(irule
Guard
p2805
(dp2806
g18
I00
sg19
(lp2807
sg21
I00
sg22
Nsg23
I00
sg24
S'R'
sbsg35
(irule
FeatureMatrix
p2808
(dp2809
g28
(lp2810
sg22
Nsbsg22
Nsba(irule
Rule
p2811
(dp2812
g15
(irule
Guard
p2813
(dp2814
g18
I01
sg19
(lp2815
(irule
FeatureMatrix
p2816
(dp2817
g28
(lp2818
sg22
Nsbasg21
I00
sg22
Nsg23
I00
sg24
S'L'
sbsg25
(irule
FeatureMatrix
p2819
(dp2820
g28
(lp2821
(I00
g2275
tp2822
a(I01
g2131
tp2823
asg22
Nsbsg31
(irule
Guard
p2824
(dp2825
g18
I00
sg19
(lp2826
sg21
I00
sg22
Nsg23
I00
sg24
S'R'
sbsg35
(irule
FeatureMatrix
p2827
(dp2828
g28
(lp2829
sg22
Nsbsg22
Nsba(irule
Rule
p2830
(dp2831
g15
(irule
Guard
p2832
(dp2833
g18
I00
sg19
(lp2834
(irule
FeatureMatrix
p2835
(dp2836
g28
(lp2837
(I01
g2167
tp2838
a(I01
g2131
tp2839
asg22
Nsbasg21
I00
sg22
Nsg23
I00
sg24
S'L'
sbsg25
(irule
FeatureMatrix
p2840
(dp2841
g28
(lp2842
(I01
g2131
tp2843
asg22
Nsbsg31
(irule
Guard
p2844
(dp2845
g18
I00
sg19
(lp2846
sg21
I00
sg22
Nsg23
I00
sg24
S'R'
sbsg35
(irule
FeatureMatrix
p2847
(dp2848
g28
(lp2849
sg22
Nsbsg22
Nsba(irule
Rule
p2850
(dp2851
g15
(irule
Guard
p2852
(dp2853
g18
I00
sg19
(lp2854
(irule
FeatureMatrix
p2855
(dp2856
g28
(lp2857
(I00
g2126
tp2858
a(I00
g2275
tp2859
asg22
Nsbasg21
I00
sg22
Nsg23
I00
sg24
S'L'
sbsg25
(irule
FeatureMatrix
p2860
(dp2861
g28
(lp2862
(I01
g2131
tp2863
asg22
Nsbsg31
(irule
Guard
p2864
(dp2865
g18
I00
sg19
(lp2866
sg21
I00
sg22
Nsg23
I00
sg24
S'R'
sbsg35
(irule
FeatureMatrix
p2867
(dp2868
g28
(lp2869
sg22
Nsbsg22
Nsba(irule
Rule
p2870
(dp2871
g15
(irule
Guard
p2872
(dp2873
g18
I00
sg19
(lp2874
(irule
FeatureMatrix
p2875
(dp2876
g28
(lp2877
(I00
g2147
tp2878
asg22
Nsbasg21
I00
sg22
Nsg23
I00
sg24
S'L'
sbsg25
(irule
FeatureMatrix
p2879
(dp2880
g28
(lp2881
(I00
g2339
tp2882
a(I01
g2131
tp2883
asg22
Nsbsg31
(irule
Guard
p2884
(dp2885
g18
I00
sg19
(lp2886
sg21
I00
sg22
Nsg23
I00
sg24
S'R'
sbsg35
(irule
FeatureMatrix
p2887
(dp2888
g28
(lp2889
sg22
Nsbsg22
Nsba(irule
Rule
p2890
(dp2891
g15
(irule
Guard
p2892
(dp2893
g18
I00
sg19
(lp2894
(irule
FeatureMatrix
p2895
(dp2896
g28
(lp2897
(I00
g2126
tp2898
a(I01
g2131
tp2899
asg22
Nsbasg21
I00
sg22
Nsg23
I00
sg24
S'L'
sbsg25
(irule
FeatureMatrix
p2900
(dp2901
g28
(lp2902
(I01
g2131
tp2903
asg22
Nsbsg31
(irule
Guard
p2904
(dp2905
g18
I00
sg19
(lp2906
sg21
I00
sg22
Nsg23
I00
sg24
S'R'
sbsg35
(irule
FeatureMatrix
p2907
(dp2908
g28
(lp2909
sg22
Nsbsg22
Nsba(irule
Rule
p2910
(dp2911
g15
(irule
Guard
p2912
(dp2913
g18
I00
sg19
(lp2914
(irule
FeatureMatrix
p2915
(dp2916
g28
(lp2917
(I01
g2167
tp2918
asg22
Nsbasg21
I00
sg22
Nsg23
I00
sg24
S'L'
sbsg25
(irule
FeatureMatrix
p2919
(dp2920
g28
(lp2921
(I01
g2131
tp2922
asg22
Nsbsg31
(irule
Guard
p2923
(dp2924
g18
I00
sg19
(lp2925
sg21
I00
sg22
Nsg23
I00
sg24
S'R'
sbsg35
(irule
FeatureMatrix
p2926
(dp2927
g28
(lp2928
(I00
g2275
tp2929
asg22
Nsbsg22
Nsba(irule
Rule
p2930
(dp2931
g15
(irule
Guard
p2932
(dp2933
g18
I01
sg19
(lp2934
(irule
FeatureMatrix
p2935
(dp2936
g28
(lp2937
sg22
Nsbasg21
I00
sg22
Nsg23
I00
sg24
S'L'
sbsg25
(irule
FeatureMatrix
p2938
(dp2939
g28
(lp2940
(I00
g2167
tp2941
a(I01
g2131
tp2942
asg22
Nsbsg31
(irule
Guard
p2943
(dp2944
g18
I00
sg19
(lp2945
sg21
I00
sg22
Nsg23
I00
sg24
S'R'
sbsg35
(irule
FeatureMatrix
p2946
(dp2947
g28
(lp2948
sg22
Nsbsg22
Nsba(irule
Rule
p2949
(dp2950
g15
(irule
Guard
p2951
(dp2952
g18
I01
sg19
(lp2953
(irule
FeatureMatrix
p2954
(dp2955
g28
(lp2956
sg22
Nsbasg21
I00
sg22
Nsg23
I00
sg24
S'L'
sbsg25
(irule
FeatureMatrix
p2957
(dp2958
g28
(lp2959
(I01
g2131
tp2960
asg22
Nsbsg31
(irule
Guard
p2961
(dp2962
g18
I00
sg19
(lp2963
sg21
I00
sg22
Nsg23
I00
sg24
S'R'
sbsg35
(irule
FeatureMatrix
p2964
(dp2965
g28
(lp2966
(I00
g2167
tp2967
asg22
Nsbsg22
Nsba(irule
Rule
p2968
(dp2969
g15
(irule
Guard
p2970
(dp2971
g18
I00
sg19
(lp2972
(irule
FeatureMatrix
p2973
(dp2974
g28
(lp2975
(I00
g2126
tp2976
a(I01
S'sonorant'
p2977
tp2978
asg22
Nsbasg21
I00
sg22
Nsg23
I00
sg24
S'L'
sbsg25
(irule
FeatureMatrix
p2979
(dp2980
g28
(lp2981
(I01
g2131
tp2982
asg22
Nsbsg31
(irule
Guard
p2983
(dp2984
g18
I00
sg19
(lp2985
sg21
I00
sg22
Nsg23
I00
sg24
S'R'
sbsg35
(irule
FeatureMatrix
p2986
(dp2987
g28
(lp2988
sg22
Nsbsg22
Nsba(irule
Rule
p2989
(dp2990
g15
(irule
Guard
p2991
(dp2992
g18
I01
sg19
(lp2993
(irule
FeatureMatrix
p2994
(dp2995
g28
(lp2996
sg22
Nsbasg21
I00
sg22
Nsg23
I00
sg24
S'L'
sbsg25
(irule
FeatureMatrix
p2997
(dp2998
g28
(lp2999
(I00
g2339
tp3000
a(I01
g2131
tp3001
asg22
Nsbsg31
(irule
Guard
p3002
(dp3003
g18
I00
sg19
(lp3004
sg21
I00
sg22
Nsg23
I00
sg24
S'R'
sbsg35
(irule
FeatureMatrix
p3005
(dp3006
g28
(lp3007
sg22
Nsbsg22
Nsba(irule
Rule
p3008
(dp3009
g15
(irule
Guard
p3010
(dp3011
g18
I01
sg19
(lp3012
(irule
FeatureMatrix
p3013
(dp3014
g28
(lp3015
(I00
g2275
tp3016
asg22
Nsbasg21
I00
sg22
Nsg23
I00
sg24
S'L'
sbsg25
(irule
FeatureMatrix
p3017
(dp3018
g28
(lp3019
(I01
g2131
tp3020
asg22
Nsbsg31
(irule
Guard
p3021
(dp3022
g18
I00
sg19
(lp3023
sg21
I00
sg22
Nsg23
I00
sg24
S'R'
sbsg35
(irule
FeatureMatrix
p3024
(dp3025
g28
(lp3026
sg22
Nsbsg22
Nsba(irule
Rule
p3027
(dp3028
g15
(irule
Guard
p3029
(dp3030
g18
I00
sg19
(lp3031
(irule
FeatureMatrix
p3032
(dp3033
g28
(lp3034
(I01
g2167
tp3035
asg22
Nsbasg21
I00
sg22
Nsg23
I00
sg24
S'L'
sbsg25
(irule
FeatureMatrix
p3036
(dp3037
g28
(lp3038
(I01
g2131
tp3039
asg22
Nsbsg31
(irule
Guard
p3040
(dp3041
g18
I00
sg19
(lp3042
sg21
I00
sg22
Nsg23
I00
sg24
S'R'
sbsg35
(irule
FeatureMatrix
p3043
(dp3044
g28
(lp3045
(I00
g2131
tp3046
asg22
Nsbsg22
Nsba(irule
Rule
p3047
(dp3048
g15
(irule
Guard
p3049
(dp3050
g18
I00
sg19
(lp3051
(irule
FeatureMatrix
p3052
(dp3053
g28
(lp3054
(I01
g2167
tp3055
a(I00
g2147
tp3056
asg22
Nsbasg21
I00
sg22
Nsg23
I00
sg24
S'L'
sbsg25
(irule
FeatureMatrix
p3057
(dp3058
g28
(lp3059
(I01
g2131
tp3060
asg22
Nsbsg31
(irule
Guard
p3061
(dp3062
g18
I00
sg19
(lp3063
sg21
I00
sg22
Nsg23
I00
sg24
S'R'
sbsg35
(irule
FeatureMatrix
p3064
(dp3065
g28
(lp3066
sg22
Nsbsg22
Nsba(irule
Rule
p3067
(dp3068
g15
(irule
Guard
p3069
(dp3070
g18
I00
sg19
(lp3071
(irule
FeatureMatrix
p3072
(dp3073
g28
(lp3074
(I01
g2167
tp3075
a(I00
g2187
tp3076
asg22
Nsbasg21
I00
sg22
Nsg23
I00
sg24
S'L'
sbsg25
(irule
FeatureMatrix
p3077
(dp3078
g28
(lp3079
(I01
g2131
tp3080
asg22
Nsbsg31
(irule
Guard
p3081
(dp3082
g18
I00
sg19
(lp3083
sg21
I00
sg22
Nsg23
I00
sg24
S'R'
sbsg35
(irule
FeatureMatrix
p3084
(dp3085
g28
(lp3086
sg22
Nsbsg22
Nsba(irule
Rule
p3087
(dp3088
g15
(irule
Guard
p3089
(dp3090
g18
I00
sg19
(lp3091
(irule
FeatureMatrix
p3092
(dp3093
g28
(lp3094
(I00
g2126
tp3095
asg22
Nsbasg21
I00
sg22
Nsg23
I00
sg24
S'L'
sbsg25
(irule
FeatureMatrix
p3096
(dp3097
g28
(lp3098
(I01
g2131
tp3099
asg22
Nsbsg31
(irule
Guard
p3100
(dp3101
g18
I00
sg19
(lp3102
sg21
I00
sg22
Nsg23
I00
sg24
S'R'
sbsg35
(irule
FeatureMatrix
p3103
(dp3104
g28
(lp3105
(I00
g2604
tp3106
asg22
Nsbsg22
Nsba(irule
Rule
p3107
(dp3108
g15
(irule
Guard
p3109
(dp3110
g18
I00
sg19
(lp3111
(irule
FeatureMatrix
p3112
(dp3113
g28
(lp3114
(I00
g2187
tp3115
a(I01
g2131
tp3116
asg22
Nsbasg21
I00
sg22
Nsg23
I00
sg24
S'L'
sbsg25
(irule
FeatureMatrix
p3117
(dp3118
g28
(lp3119
(I01
g2131
tp3120
asg22
Nsbsg31
(irule
Guard
p3121
(dp3122
g18
I00
sg19
(lp3123
sg21
I00
sg22
Nsg23
I00
sg24
S'R'
sbsg35
(irule
FeatureMatrix
p3124
(dp3125
g28
(lp3126
sg22
Nsbsg22
Nsba(irule
Rule
p3127
(dp3128
g15
(irule
Guard
p3129
(dp3130
g18
I00
sg19
(lp3131
(irule
FeatureMatrix
p3132
(dp3133
g28
(lp3134
(I00
g2126
tp3135
asg22
Nsbasg21
I00
sg22
Nsg23
I00
sg24
S'L'
sbsg25
(irule
FeatureMatrix
p3136
(dp3137
g28
(lp3138
(I01
g2131
tp3139
asg22
Nsbsg31
(irule
Guard
p3140
(dp3141
g18
I00
sg19
(lp3142
sg21
I00
sg22
Nsg23
I00
sg24
S'R'
sbsg35
(irule
FeatureMatrix
p3143
(dp3144
g28
(lp3145
(I00
g2147
tp3146
asg22
Nsbsg22
Nsba(irule
Rule
p3147
(dp3148
g15
(irule
Guard
p3149
(dp3150
g18
I00
sg19
(lp3151
(irule
FeatureMatrix
p3152
(dp3153
g28
(lp3154
(I00
g2275
tp3155
a(I01
g2167
tp3156
asg22
Nsbasg21
I00
sg22
Nsg23
I00
sg24
S'L'
sbsg25
(irule
FeatureMatrix
p3157
(dp3158
g28
(lp3159
(I01
g2131
tp3160
asg22
Nsbsg31
(irule
Guard
p3161
(dp3162
g18
I00
sg19
(lp3163
sg21
I00
sg22
Nsg23
I00
sg24
S'R'
sbsg35
(irule
FeatureMatrix
p3164
(dp3165
g28
(lp3166
sg22
Nsbsg22
Nsba(irule
Rule
p3167
(dp3168
g15
(irule
Guard
p3169
(dp3170
g18
I00
sg19
(lp3171
(irule
FeatureMatrix
p3172
(dp3173
g28
(lp3174
(I01
g2167
tp3175
asg22
Nsbasg21
I00
sg22
Nsg23
I00
sg24
S'L'
sbsg25
(irule
FeatureMatrix
p3176
(dp3177
g28
(lp3178
(I01
g2131
tp3179
asg22
Nsbsg31
(irule
Guard
p3180
(dp3181
g18
I00
sg19
(lp3182
sg21
I00
sg22
Nsg23
I00
sg24
S'R'
sbsg35
(irule
FeatureMatrix
p3183
(dp3184
g28
(lp3185
(I00
g2167
tp3186
asg22
Nsbsg22
Nsba(irule
Rule
p3187
(dp3188
g15
(irule
Guard
p3189
(dp3190
g18
I00
sg19
(lp3191
(irule
FeatureMatrix
p3192
(dp3193
g28
(lp3194
(I00
g2126
tp3195
asg22
Nsbasg21
I00
sg22
Nsg23
I00
sg24
S'L'
sbsg25
(irule
FeatureMatrix
p3196
(dp3197
g28
(lp3198
(I01
g2131
tp3199
asg22
Nsbsg31
(irule
Guard
p3200
(dp3201
g18
I00
sg19
(lp3202
sg21
I00
sg22
Nsg23
I00
sg24
S'R'
sbsg35
(irule
FeatureMatrix
p3203
(dp3204
g28
(lp3205
(I00
g2339
tp3206
asg22
Nsbsg22
Nsba(irule
Rule
p3207
(dp3208
g15
(irule
Guard
p3209
(dp3210
g18
I00
sg19
(lp3211
(irule
FeatureMatrix
p3212
(dp3213
g28
(lp3214
(I01
g2167
tp3215
asg22
Nsbasg21
I00
sg22
Nsg23
I00
sg24
S'L'
sbsg25
(irule
FeatureMatrix
p3216
(dp3217
g28
(lp3218
(I01
g2131
tp3219
asg22
Nsbsg31
(irule
Guard
p3220
(dp3221
g18
I00
sg19
(lp3222
sg21
I00
sg22
Nsg23
I00
sg24
S'R'
sbsg35
(irule
FeatureMatrix
p3223
(dp3224
g28
(lp3225
(I00
g2187
tp3226
asg22
Nsbsg22
Nsba(irule
Rule
p3227
(dp3228
g15
(irule
Guard
p3229
(dp3230
g18
I00
sg19
(lp3231
(irule
FeatureMatrix
p3232
(dp3233
g28
(lp3234
(I01
g2167
tp3235
asg22
Nsbasg21
I00
sg22
Nsg23
I00
sg24
S'L'
sbsg25
(irule
FeatureMatrix
p3236
(dp3237
g28
(lp3238
(I01
g2131
tp3239
asg22
Nsbsg31
(irule
Guard
p3240
(dp3241
g18
I00
sg19
(lp3242
sg21
I00
sg22
Nsg23
I00
sg24
S'R'
sbsg35
(irule
FeatureMatrix
p3243
(dp3244
g28
(lp3245
(I00
g2126
tp3246
asg22
Nsbsg22
Nsba(irule
Rule
p3247
(dp3248
g15
(irule
Guard
p3249
(dp3250
g18
I00
sg19
(lp3251
(irule
FeatureMatrix
p3252
(dp3253
g28
(lp3254
(I01
g2167
tp3255
asg22
Nsbasg21
I00
sg22
Nsg23
I00
sg24
S'L'
sbsg25
(irule
FeatureMatrix
p3256
(dp3257
g28
(lp3258
(I01
g2131
tp3259
asg22
Nsbsg31
(irule
Guard
p3260
(dp3261
g18
I00
sg19
(lp3262
sg21
I00
sg22
Nsg23
I00
sg24
S'R'
sbsg35
(irule
FeatureMatrix
p3263
(dp3264
g28
(lp3265
(I00
g2977
tp3266
asg22
Nsbsg22
Nsba(irule
Rule
p3267
(dp3268
g15
(irule
Guard
p3269
(dp3270
g18
I00
sg19
(lp3271
(irule
FeatureMatrix
p3272
(dp3273
g28
(lp3274
(I01
g2167
tp3275
asg22
Nsbasg21
I00
sg22
Nsg23
I00
sg24
S'L'
sbsg25
(irule
FeatureMatrix
p3276
(dp3277
g28
(lp3278
(I01
g2131
tp3279
asg22
Nsbsg31
(irule
Guard
p3280
(dp3281
g18
I00
sg19
(lp3282
sg21
I00
sg22
Nsg23
I00
sg24
S'R'
sbsg35
(irule
FeatureMatrix
p3283
(dp3284
g28
(lp3285
(I00
g2501
tp3286
asg22
Nsbsg22
Nsba(irule
Rule
p3287
(dp3288
g15
(irule
Guard
p3289
(dp3290
g18
I00
sg19
(lp3291
(irule
FeatureMatrix
p3292
(dp3293
g28
(lp3294
(I01
g2167
tp3295
asg22
Nsbasg21
I00
sg22
Nsg23
I00
sg24
S'L'
sbsg25
(irule
FeatureMatrix
p3296
(dp3297
g28
(lp3298
(I01
g2131
tp3299
asg22
Nsbsg31
(irule
Guard
p3300
(dp3301
g18
I00
sg19
(lp3302
sg21
I00
sg22
Nsg23
I00
sg24
S'R'
sbsg35
(irule
FeatureMatrix
p3303
(dp3304
g28
(lp3305
(I00
g2339
tp3306
asg22
Nsbsg22
Nsba(irule
Rule
p3307
(dp3308
g15
(irule
Guard
p3309
(dp3310
g18
I00
sg19
(lp3311
(irule
FeatureMatrix
p3312
(dp3313
g28
(lp3314
(I01
g2167
tp3315
asg22
Nsbasg21
I00
sg22
Nsg23
I00
sg24
S'L'
sbsg25
(irule
FeatureMatrix
p3316
(dp3317
g28
(lp3318
(I01
g2131
tp3319
asg22
Nsbsg31
(irule
Guard
p3320
(dp3321
g18
I00
sg19
(lp3322
sg21
I00
sg22
Nsg23
I00
sg24
S'R'
sbsg35
(irule
FeatureMatrix
p3323
(dp3324
g28
(lp3325
(I00
g2604
tp3326
asg22
Nsbsg22
Nsba(irule
Rule
p3327
(dp3328
g15
(irule
Guard
p3329
(dp3330
g18
I00
sg19
(lp3331
(irule
FeatureMatrix
p3332
(dp3333
g28
(lp3334
(I00
g2387
tp3335
a(I00
g2187
tp3336
asg22
Nsbasg21
I00
sg22
Nsg23
I00
sg24
S'L'
sbsg25
(irule
FeatureMatrix
p3337
(dp3338
g28
(lp3339
(I01
g2131
tp3340
asg22
Nsbsg31
(irule
Guard
p3341
(dp3342
g18
I00
sg19
(lp3343
sg21
I00
sg22
Nsg23
I00
sg24
S'R'
sbsg35
(irule
FeatureMatrix
p3344
(dp3345
g28
(lp3346
sg22
Nsbsg22
Nsba(irule
Rule
p3347
(dp3348
g15
(irule
Guard
p3349
(dp3350
g18
I00
sg19
(lp3351
(irule
FeatureMatrix
p3352
(dp3353
g28
(lp3354
(I00
g2275
tp3355
a(I00
g2147
tp3356
asg22
Nsbasg21
I00
sg22
Nsg23
I00
sg24
S'L'
sbsg25
(irule
FeatureMatrix
p3357
(dp3358
g28
(lp3359
(I01
g2131
tp3360
asg22
Nsbsg31
(irule
Guard
p3361
(dp3362
g18
I00
sg19
(lp3363
sg21
I00
sg22
Nsg23
I00
sg24
S'R'
sbsg35
(irule
FeatureMatrix
p3364
(dp3365
g28
(lp3366
sg22
Nsbsg22
Nsba(irule
Rule
p3367
(dp3368
g15
(irule
Guard
p3369
(dp3370
g18
I01
sg19
(lp3371
(irule
FeatureMatrix
p3372
(dp3373
g28
(lp3374
(I00
g2501
tp3375
asg22
Nsbasg21
I00
sg22
Nsg23
I00
sg24
S'L'
sbsg25
(irule
FeatureMatrix
p3376
(dp3377
g28
(lp3378
(I01
g2131
tp3379
asg22
Nsbsg31
(irule
Guard
p3380
(dp3381
g18
I00
sg19
(lp3382
sg21
I00
sg22
Nsg23
I00
sg24
S'R'
sbsg35
(irule
FeatureMatrix
p3383
(dp3384
g28
(lp3385
sg22
Nsbsg22
Nsba(irule
Rule
p3386
(dp3387
g15
(irule
Guard
p3388
(dp3389
g18
I00
sg19
(lp3390
(irule
FeatureMatrix
p3391
(dp3392
g28
(lp3393
(I00
g2126
tp3394
asg22
Nsbasg21
I00
sg22
Nsg23
I00
sg24
S'L'
sbsg25
(irule
FeatureMatrix
p3395
(dp3396
g28
(lp3397
(I01
g2131
tp3398
asg22
Nsbsg31
(irule
Guard
p3399
(dp3400
g18
I00
sg19
(lp3401
sg21
I00
sg22
Nsg23
I00
sg24
S'R'
sbsg35
(irule
FeatureMatrix
p3402
(dp3403
g28
(lp3404
(I00
g2131
tp3405
asg22
Nsbsg22
Nsba(irule
Rule
p3406
(dp3407
g15
(irule
Guard
p3408
(dp3409
g18
I00
sg19
(lp3410
(irule
FeatureMatrix
p3411
(dp3412
g28
(lp3413
(I00
g2126
tp3414
a(I00
g2387
tp3415
asg22
Nsbasg21
I00
sg22
Nsg23
I00
sg24
S'L'
sbsg25
(irule
FeatureMatrix
p3416
(dp3417
g28
(lp3418
(I01
g2131
tp3419
asg22
Nsbsg31
(irule
Guard
p3420
(dp3421
g18
I00
sg19
(lp3422
sg21
I00
sg22
Nsg23
I00
sg24
S'R'
sbsg35
(irule
FeatureMatrix
p3423
(dp3424
g28
(lp3425
sg22
Nsbsg22
Nsba(irule
Rule
p3426
(dp3427
g15
(irule
Guard
p3428
(dp3429
g18
I00
sg19
(lp3430
(irule
FeatureMatrix
p3431
(dp3432
g28
(lp3433
(I00
g2126
tp3434
a(I00
g2147
tp3435
asg22
Nsbasg21
I00
sg22
Nsg23
I00
sg24
S'L'
sbsg25
(irule
FeatureMatrix
p3436
(dp3437
g28
(lp3438
(I01
g2131
tp3439
asg22
Nsbsg31
(irule
Guard
p3440
(dp3441
g18
I00
sg19
(lp3442
sg21
I00
sg22
Nsg23
I00
sg24
S'R'
sbsg35
(irule
FeatureMatrix
p3443
(dp3444
g28
(lp3445
sg22
Nsbsg22
Nsba(irule
Rule
p3446
(dp3447
g15
(irule
Guard
p3448
(dp3449
g18
I00
sg19
(lp3450
(irule
FeatureMatrix
p3451
(dp3452
g28
(lp3453
(I00
g2339
tp3454
a(I01
g2167
tp3455
asg22
Nsbasg21
I00
sg22
Nsg23
I00
sg24
S'L'
sbsg25
(irule
FeatureMatrix
p3456
(dp3457
g28
(lp3458
(I01
g2131
tp3459
asg22
Nsbsg31
(irule
Guard
p3460
(dp3461
g18
I00
sg19
(lp3462
sg21
I00
sg22
Nsg23
I00
sg24
S'R'
sbsg35
(irule
FeatureMatrix
p3463
(dp3464
g28
(lp3465
sg22
Nsbsg22
Nsba(irule
Rule
p3466
(dp3467
g15
(irule
Guard
p3468
(dp3469
g18
I01
sg19
(lp3470
(irule
FeatureMatrix
p3471
(dp3472
g28
(lp3473
(I00
g2604
tp3474
asg22
Nsbasg21
I00
sg22
Nsg23
I00
sg24
S'L'
sbsg25
(irule
FeatureMatrix
p3475
(dp3476
g28
(lp3477
(I01
g2131
tp3478
asg22
Nsbsg31
(irule
Guard
p3479
(dp3480
g18
I00
sg19
(lp3481
sg21
I00
sg22
Nsg23
I00
sg24
S'R'
sbsg35
(irule
FeatureMatrix
p3482
(dp3483
g28
(lp3484
sg22
Nsbsg22
Nsba(irule
Rule
p3485
(dp3486
g15
(irule
Guard
p3487
(dp3488
g18
I00
sg19
(lp3489
(irule
FeatureMatrix
p3490
(dp3491
g28
(lp3492
(I00
g2126
tp3493
a(I00
g2187
tp3494
asg22
Nsbasg21
I00
sg22
Nsg23
I00
sg24
S'L'
sbsg25
(irule
FeatureMatrix
p3495
(dp3496
g28
(lp3497
(I01
g2131
tp3498
asg22
Nsbsg31
(irule
Guard
p3499
(dp3500
g18
I00
sg19
(lp3501
sg21
I00
sg22
Nsg23
I00
sg24
S'R'
sbsg35
(irule
FeatureMatrix
p3502
(dp3503
g28
(lp3504
sg22
Nsbsg22
Nsba(irule
Rule
p3505
(dp3506
g15
(irule
Guard
p3507
(dp3508
g18
I00
sg19
(lp3509
(irule
FeatureMatrix
p3510
(dp3511
g28
(lp3512
(I00
g2126
tp3513
asg22
Nsbasg21
I00
sg22
Nsg23
I00
sg24
S'L'
sbsg25
(irule
FeatureMatrix
p3514
(dp3515
g28
(lp3516
(I01
g2131
tp3517
asg22
Nsbsg31
(irule
Guard
p3518
(dp3519
g18
I00
sg19
(lp3520
sg21
I00
sg22
Nsg23
I00
sg24
S'R'
sbsg35
(irule
FeatureMatrix
p3521
(dp3522
g28
(lp3523
(I00
g2387
tp3524
asg22
Nsbsg22
Nsba(irule
Rule
p3525
(dp3526
g15
(irule
Guard
p3527
(dp3528
g18
I00
sg19
(lp3529
(irule
FeatureMatrix
p3530
(dp3531
g28
(lp3532
(I00
g2501
tp3533
a(I01
g2167
tp3534
asg22
Nsbasg21
I00
sg22
Nsg23
I00
sg24
S'L'
sbsg25
(irule
FeatureMatrix
p3535
(dp3536
g28
(lp3537
(I01
g2131
tp3538
asg22
Nsbsg31
(irule
Guard
p3539
(dp3540
g18
I00
sg19
(lp3541
sg21
I00
sg22
Nsg23
I00
sg24
S'R'
sbsg35
(irule
FeatureMatrix
p3542
(dp3543
g28
(lp3544
sg22
Nsbsg22
Nsba(irule
Rule
p3545
(dp3546
g15
(irule
Guard
p3547
(dp3548
g18
I00
sg19
(lp3549
(irule
FeatureMatrix
p3550
(dp3551
g28
(lp3552
(I00
g2126
tp3553
asg22
Nsbasg21
I00
sg22
Nsg23
I00
sg24
S'L'
sbsg25
(irule
FeatureMatrix
p3554
(dp3555
g28
(lp3556
(I01
g2131
tp3557
asg22
Nsbsg31
(irule
Guard
p3558
(dp3559
g18
I00
sg19
(lp3560
sg21
I00
sg22
Nsg23
I00
sg24
S'R'
sbsg35
(irule
FeatureMatrix
p3561
(dp3562
g28
(lp3563
(I00
g2275
tp3564
asg22
Nsbsg22
Nsba(irule
Rule
p3565
(dp3566
g15
(irule
Guard
p3567
(dp3568
g18
I00
sg19
(lp3569
(irule
FeatureMatrix
p3570
(dp3571
g28
(lp3572
(I00
g2126
tp3573
asg22
Nsbasg21
I00
sg22
Nsg23
I00
sg24
S'L'
sbsg25
(irule
FeatureMatrix
p3574
(dp3575
g28
(lp3576
(I01
g2131
tp3577
asg22
Nsbsg31
(irule
Guard
p3578
(dp3579
g18
I00
sg19
(lp3580
sg21
I00
sg22
Nsg23
I00
sg24
S'R'
sbsg35
(irule
FeatureMatrix
p3581
(dp3582
g28
(lp3583
(I00
g2977
tp3584
asg22
Nsbsg22
Nsba(irule
Rule
p3585
(dp3586
g15
(irule
Guard
p3587
(dp3588
g18
I00
sg19
(lp3589
(irule
FeatureMatrix
p3590
(dp3591
g28
(lp3592
(I00
g2187
tp3593
asg22
Nsbasg21
I00
sg22
Nsg23
I00
sg24
S'L'
sbsg25
(irule
FeatureMatrix
p3594
(dp3595
g28
(lp3596
(I01
g2131
tp3597
asg22
Nsbsg31
(irule
Guard
p3598
(dp3599
g18
I00
sg19
(lp3600
sg21
I00
sg22
Nsg23
I00
sg24
S'R'
sbsg35
(irule
FeatureMatrix
p3601
(dp3602
g28
(lp3603
(I00
g2131
tp3604
asg22
Nsbsg22
Nsba(irule
Rule
p3605
(dp3606
g15
(irule
Guard
p3607
(dp3608
g18
I00
sg19
(lp3609
(irule
FeatureMatrix
p3610
(dp3611
g28
(lp3612
(I00
g2339
tp3613
a(I00
g2126
tp3614
asg22
Nsbasg21
I00
sg22
Nsg23
I00
sg24
S'L'
sbsg25
(irule
FeatureMatrix
p3615
(dp3616
g28
(lp3617
(I01
g2131
tp3618
asg22
Nsbsg31
(irule
Guard
p3619
(dp3620
g18
I00
sg19
(lp3621
sg21
I00
sg22
Nsg23
I00
sg24
S'R'
sbsg35
(irule
FeatureMatrix
p3622
(dp3623
g28
(lp3624
sg22
Nsbsg22
Nsba(irule
Rule
p3625
(dp3626
g15
(irule
Guard
p3627
(dp3628
g18
I00
sg19
(lp3629
(irule
FeatureMatrix
p3630
(dp3631
g28
(lp3632
(I00
g2339
tp3633
a(I00
g2187
tp3634
asg22
Nsbasg21
I00
sg22
Nsg23
I00
sg24
S'L'
sbsg25
(irule
FeatureMatrix
p3635
(dp3636
g28
(lp3637
(I01
g2131
tp3638
asg22
Nsbsg31
(irule
Guard
p3639
(dp3640
g18
I00
sg19
(lp3641
sg21
I00
sg22
Nsg23
I00
sg24
S'R'
sbsg35
(irule
FeatureMatrix
p3642
(dp3643
g28
(lp3644
sg22
Nsbsg22
Nsba(irule
Rule
p3645
(dp3646
g15
(irule
Guard
p3647
(dp3648
g18
I00
sg19
(lp3649
(irule
FeatureMatrix
p3650
(dp3651
g28
(lp3652
(I00
g2187
tp3653
asg22
Nsbasg21
I00
sg22
Nsg23
I00
sg24
S'L'
sbsg25
(irule
FeatureMatrix
p3654
(dp3655
g28
(lp3656
(I01
g2131
tp3657
asg22
Nsbsg31
(irule
Guard
p3658
(dp3659
g18
I00
sg19
(lp3660
sg21
I00
sg22
Nsg23
I00
sg24
S'R'
sbsg35
(irule
FeatureMatrix
p3661
(dp3662
g28
(lp3663
(I00
g2604
tp3664
asg22
Nsbsg22
Nsba(irule
Rule
p3665
(dp3666
g15
(irule
Guard
p3667
(dp3668
g18
I00
sg19
(lp3669
(irule
FeatureMatrix
p3670
(dp3671
g28
(lp3672
(I00
g2604
tp3673
a(I01
g2167
tp3674
asg22
Nsbasg21
I00
sg22
Nsg23
I00
sg24
S'L'
sbsg25
(irule
FeatureMatrix
p3675
(dp3676
g28
(lp3677
(I01
g2131
tp3678
asg22
Nsbsg31
(irule
Guard
p3679
(dp3680
g18
I00
sg19
(lp3681
sg21
I00
sg22
Nsg23
I00
sg24
S'R'
sbsg35
(irule
FeatureMatrix
p3682
(dp3683
g28
(lp3684
sg22
Nsbsg22
Nsba(irule
Rule
p3685
(dp3686
g15
(irule
Guard
p3687
(dp3688
g18
I00
sg19
(lp3689
(irule
FeatureMatrix
p3690
(dp3691
g28
(lp3692
(I00
g2147
tp3693
asg22
Nsbasg21
I00
sg22
Nsg23
I00
sg24
S'L'
sbsg25
(irule
FeatureMatrix
p3694
(dp3695
g28
(lp3696
(I01
g2131
tp3697
asg22
Nsbsg31
(irule
Guard
p3698
(dp3699
g18
I00
sg19
(lp3700
sg21
I00
sg22
Nsg23
I00
sg24
S'R'
sbsg35
(irule
FeatureMatrix
p3701
(dp3702
g28
(lp3703
(I00
g2131
tp3704
asg22
Nsbsg22
Nsba(irule
Rule
p3705
(dp3706
g15
(irule
Guard
p3707
(dp3708
g18
I00
sg19
(lp3709
(irule
FeatureMatrix
p3710
(dp3711
g28
(lp3712
(I00
g2339
tp3713
a(I00
g2147
tp3714
asg22
Nsbasg21
I00
sg22
Nsg23
I00
sg24
S'L'
sbsg25
(irule
FeatureMatrix
p3715
(dp3716
g28
(lp3717
(I01
g2131
tp3718
asg22
Nsbsg31
(irule
Guard
p3719
(dp3720
g18
I00
sg19
(lp3721
sg21
I00
sg22
Nsg23
I00
sg24
S'R'
sbsg35
(irule
FeatureMatrix
p3722
(dp3723
g28
(lp3724
sg22
Nsbsg22
Nsba(irule
Rule
p3725
(dp3726
g15
(irule
Guard
p3727
(dp3728
g18
I00
sg19
(lp3729
(irule
FeatureMatrix
p3730
(dp3731
g28
(lp3732
(I00
g2501
tp3733
a(I00
g2126
tp3734
asg22
Nsbasg21
I00
sg22
Nsg23
I00
sg24
S'L'
sbsg25
(irule
FeatureMatrix
p3735
(dp3736
g28
(lp3737
(I01
g2131
tp3738
asg22
Nsbsg31
(irule
Guard
p3739
(dp3740
g18
I00
sg19
(lp3741
sg21
I00
sg22
Nsg23
I00
sg24
S'R'
sbsg35
(irule
FeatureMatrix
p3742
(dp3743
g28
(lp3744
sg22
Nsbsg22
Nsba(irule
Rule
p3745
(dp3746
g15
(irule
Guard
p3747
(dp3748
g18
I01
sg19
(lp3749
(irule
FeatureMatrix
p3750
(dp3751
g28
(lp3752
sg22
Nsbasg21
I00
sg22
Nsg23
I00
sg24
S'L'
sbsg25
(irule
FeatureMatrix
p3753
(dp3754
g28
(lp3755
(I01
g2131
tp3756
asg22
Nsbsg31
(irule
Guard
p3757
(dp3758
g18
I00
sg19
(lp3759
sg21
I00
sg22
Nsg23
I00
sg24
S'R'
sbsg35
(irule
FeatureMatrix
p3760
(dp3761
g28
(lp3762
(I00
g2131
tp3763
asg22
Nsbsg22
Nsba(irule
Rule
p3764
(dp3765
g15
(irule
Guard
p3766
(dp3767
g18
I01
sg19
(lp3768
(irule
FeatureMatrix
p3769
(dp3770
g28
(lp3771
(I01
g2977
tp3772
asg22
Nsbasg21
I00
sg22
Nsg23
I00
sg24
S'L'
sbsg25
(irule
FeatureMatrix
p3773
(dp3774
g28
(lp3775
(I01
g2131
tp3776
asg22
Nsbsg31
(irule
Guard
p3777
(dp3778
g18
I00
sg19
(lp3779
sg21
I00
sg22
Nsg23
I00
sg24
S'R'
sbsg35
(irule
FeatureMatrix
p3780
(dp3781
g28
(lp3782
sg22
Nsbsg22
Nsba(irule
Rule
p3783
(dp3784
g15
(irule
Guard
p3785
(dp3786
g18
I00
sg19
(lp3787
(irule
FeatureMatrix
p3788
(dp3789
g28
(lp3790
(I00
g2187
tp3791
asg22
Nsbasg21
I00
sg22
Nsg23
I00
sg24
S'L'
sbsg25
(irule
FeatureMatrix
p3792
(dp3793
g28
(lp3794
(I01
g2131
tp3795
asg22
Nsbsg31
(irule
Guard
p3796
(dp3797
g18
I00
sg19
(lp3798
sg21
I00
sg22
Nsg23
I00
sg24
S'R'
sbsg35
(irule
FeatureMatrix
p3799
(dp3800
g28
(lp3801
(I00
g2977
tp3802
asg22
Nsbsg22
Nsba(irule
Rule
p3803
(dp3804
g15
(irule
Guard
p3805
(dp3806
g18
I00
sg19
(lp3807
(irule
FeatureMatrix
p3808
(dp3809
g28
(lp3810
(I00
g2682
tp3811
a(I00
g2147
tp3812
asg22
Nsbasg21
I00
sg22
Nsg23
I00
sg24
S'L'
sbsg25
(irule
FeatureMatrix
p3813
(dp3814
g28
(lp3815
(I01
g2131
tp3816
asg22
Nsbsg31
(irule
Guard
p3817
(dp3818
g18
I00
sg19
(lp3819
sg21
I00
sg22
Nsg23
I00
sg24
S'R'
sbsg35
(irule
FeatureMatrix
p3820
(dp3821
g28
(lp3822
sg22
Nsbsg22
Nsba(irule
Rule
p3823
(dp3824
g15
(irule
Guard
p3825
(dp3826
g18
I00
sg19
(lp3827
(irule
FeatureMatrix
p3828
(dp3829
g28
(lp3830
(I01
g2167
tp3831
a(I01
g2977
tp3832
asg22
Nsbasg21
I00
sg22
Nsg23
I00
sg24
S'L'
sbsg25
(irule
FeatureMatrix
p3833
(dp3834
g28
(lp3835
(I01
g2131
tp3836
asg22
Nsbsg31
(irule
Guard
p3837
(dp3838
g18
I00
sg19
(lp3839
sg21
I00
sg22
Nsg23
I00
sg24
S'R'
sbsg35
(irule
FeatureMatrix
p3840
(dp3841
g28
(lp3842
sg22
Nsbsg22
Nsba(irule
Rule
p3843
(dp3844
g15
(irule
Guard
p3845
(dp3846
g18
I01
sg19
(lp3847
(irule
FeatureMatrix
p3848
(dp3849
g28
(lp3850
(I00
g2147
tp3851
asg22
Nsbasg21
I00
sg22
Nsg23
I00
sg24
S'L'
sbsg25
(irule
FeatureMatrix
p3852
(dp3853
g28
(lp3854
(I01
g2131
tp3855
asg22
Nsbsg31
(irule
Guard
p3856
(dp3857
g18
I00
sg19
(lp3858
sg21
I00
sg22
Nsg23
I00
sg24
S'R'
sbsg35
(irule
FeatureMatrix
p3859
(dp3860
g28
(lp3861
sg22
Nsbsg22
Nsba(irule
Rule
p3862
(dp3863
g15
(irule
Guard
p3864
(dp3865
g18
I00
sg19
(lp3866
(irule
FeatureMatrix
p3867
(dp3868
g28
(lp3869
(I00
g2187
tp3870
asg22
Nsbasg21
I00
sg22
Nsg23
I00
sg24
S'L'
sbsg25
(irule
FeatureMatrix
p3871
(dp3872
g28
(lp3873
(I01
g2131
tp3874
asg22
Nsbsg31
(irule
Guard
p3875
(dp3876
g18
I00
sg19
(lp3877
sg21
I00
sg22
Nsg23
I00
sg24
S'R'
sbsg35
(irule
FeatureMatrix
p3878
(dp3879
g28
(lp3880
(I00
g2187
tp3881
asg22
Nsbsg22
Nsba(irule
Rule
p3882
(dp3883
g15
(irule
Guard
p3884
(dp3885
g18
I00
sg19
(lp3886
(irule
FeatureMatrix
p3887
(dp3888
g28
(lp3889
(I00
g2187
tp3890
asg22
Nsbasg21
I00
sg22
Nsg23
I00
sg24
S'L'
sbsg25
(irule
FeatureMatrix
p3891
(dp3892
g28
(lp3893
(I01
g2131
tp3894
asg22
Nsbsg31
(irule
Guard
p3895
(dp3896
g18
I00
sg19
(lp3897
sg21
I00
sg22
Nsg23
I00
sg24
S'R'
sbsg35
(irule
FeatureMatrix
p3898
(dp3899
g28
(lp3900
(I00
g2147
tp3901
asg22
Nsbsg22
Nsba(irule
Rule
p3902
(dp3903
g15
(irule
Guard
p3904
(dp3905
g18
I00
sg19
(lp3906
(irule
FeatureMatrix
p3907
(dp3908
g28
(lp3909
(I00
g2126
tp3910
a(I01
g2167
tp3911
asg22
Nsbasg21
I00
sg22
Nsg23
I00
sg24
S'L'
sbsg25
(irule
FeatureMatrix
p3912
(dp3913
g28
(lp3914
(I01
g2131
tp3915
asg22
Nsbsg31
(irule
Guard
p3916
(dp3917
g18
I00
sg19
(lp3918
sg21
I00
sg22
Nsg23
I00
sg24
S'R'
sbsg35
(irule
FeatureMatrix
p3919
(dp3920
g28
(lp3921
sg22
Nsbsg22
Nsba(irule
Rule
p3922
(dp3923
g15
(irule
Guard
p3924
(dp3925
g18
I01
sg19
(lp3926
(irule
FeatureMatrix
p3927
(dp3928
g28
(lp3929
sg22
Nsbasg21
I00
sg22
Nsg23
I00
sg24
S'L'
sbsg25
(irule
FeatureMatrix
p3930
(dp3931
g28
(lp3932
(I01
g2131
tp3933
asg22
Nsbsg31
(irule
Guard
p3934
(dp3935
g18
I00
sg19
(lp3936
sg21
I00
sg22
Nsg23
I00
sg24
S'R'
sbsg35
(irule
FeatureMatrix
p3937
(dp3938
g28
(lp3939
(I00
g2501
tp3940
asg22
Nsbsg22
Nsba(irule
Rule
p3941
(dp3942
g15
(irule
Guard
p3943
(dp3944
g18
I00
sg19
(lp3945
(irule
FeatureMatrix
p3946
(dp3947
g28
(lp3948
(I00
g2187
tp3949
asg22
Nsbasg21
I00
sg22
Nsg23
I00
sg24
S'L'
sbsg25
(irule
FeatureMatrix
p3950
(dp3951
g28
(lp3952
(I01
g2131
tp3953
asg22
Nsbsg31
(irule
Guard
p3954
(dp3955
g18
I00
sg19
(lp3956
sg21
I00
sg22
Nsg23
I00
sg24
S'R'
sbsg35
(irule
FeatureMatrix
p3957
(dp3958
g28
(lp3959
(I00
g2339
tp3960
asg22
Nsbsg22
Nsba(irule
Rule
p3961
(dp3962
g15
(irule
Guard
p3963
(dp3964
g18
I00
sg19
(lp3965
(irule
FeatureMatrix
p3966
(dp3967
g28
(lp3968
(I00
g2604
tp3969
a(I00
g2126
tp3970
asg22
Nsbasg21
I00
sg22
Nsg23
I00
sg24
S'L'
sbsg25
(irule
FeatureMatrix
p3971
(dp3972
g28
(lp3973
(I01
g2131
tp3974
asg22
Nsbsg31
(irule
Guard
p3975
(dp3976
g18
I00
sg19
(lp3977
sg21
I00
sg22
Nsg23
I00
sg24
S'R'
sbsg35
(irule
FeatureMatrix
p3978
(dp3979
g28
(lp3980
sg22
Nsbsg22
Nsba(irule
Rule
p3981
(dp3982
g15
(irule
Guard
p3983
(dp3984
g18
I00
sg19
(lp3985
(irule
FeatureMatrix
p3986
(dp3987
g28
(lp3988
(I00
g2147
tp3989
asg22
Nsbasg21
I00
sg22
Nsg23
I00
sg24
S'L'
sbsg25
(irule
FeatureMatrix
p3990
(dp3991
g28
(lp3992
(I01
g2131
tp3993
asg22
Nsbsg31
(irule
Guard
p3994
(dp3995
g18
I00
sg19
(lp3996
sg21
I00
sg22
Nsg23
I00
sg24
S'R'
sbsg35
(irule
FeatureMatrix
p3997
(dp3998
g28
(lp3999
(I00
g2339
tp4000
asg22
Nsbsg22
Nsba(irule
Rule
p4001
(dp4002
g15
(irule
Guard
p4003
(dp4004
g18
I01
sg19
(lp4005
(irule
FeatureMatrix
p4006
(dp4007
g28
(lp4008
sg22
Nsbasg21
I00
sg22
Nsg23
I00
sg24
S'L'
sbsg25
(irule
FeatureMatrix
p4009
(dp4010
g28
(lp4011
(I01
g2131
tp4012
asg22
Nsbsg31
(irule
Guard
p4013
(dp4014
g18
I00
sg19
(lp4015
sg21
I00
sg22
Nsg23
I00
sg24
S'R'
sbsg35
(irule
FeatureMatrix
p4016
(dp4017
g28
(lp4018
(I00
g2275
tp4019
asg22
Nsbsg22
Nsba(irule
Rule
p4020
(dp4021
g15
(irule
Guard
p4022
(dp4023
g18
I00
sg19
(lp4024
(irule
FeatureMatrix
p4025
(dp4026
g28
(lp4027
(I00
g2682
tp4028
a(I00
g2187
tp4029
asg22
Nsbasg21
I00
sg22
Nsg23
I00
sg24
S'L'
sbsg25
(irule
FeatureMatrix
p4030
(dp4031
g28
(lp4032
(I01
g2131
tp4033
asg22
Nsbsg31
(irule
Guard
p4034
(dp4035
g18
I00
sg19
(lp4036
sg21
I00
sg22
Nsg23
I00
sg24
S'R'
sbsg35
(irule
FeatureMatrix
p4037
(dp4038
g28
(lp4039
sg22
Nsbsg22
Nsba(irule
Rule
p4040
(dp4041
g15
(irule
Guard
p4042
(dp4043
g18
I00
sg19
(lp4044
(irule
FeatureMatrix
p4045
(dp4046
g28
(lp4047
(I00
g2187
tp4048
a(I00
g2147
tp4049
asg22
Nsbasg21
I00
sg22
Nsg23
I00
sg24
S'L'
sbsg25
(irule
FeatureMatrix
p4050
(dp4051
g28
(lp4052
(I01
g2131
tp4053
asg22
Nsbsg31
(irule
Guard
p4054
(dp4055
g18
I00
sg19
(lp4056
sg21
I00
sg22
Nsg23
I00
sg24
S'R'
sbsg35
(irule
FeatureMatrix
p4057
(dp4058
g28
(lp4059
sg22
Nsbsg22
Nsba(irule
Rule
p4060
(dp4061
g15
(irule
Guard
p4062
(dp4063
g18
I00
sg19
(lp4064
(irule
FeatureMatrix
p4065
(dp4066
g28
(lp4067
(I00
g2187
tp4068
asg22
Nsbasg21
I00
sg22
Nsg23
I00
sg24
S'L'
sbsg25
(irule
FeatureMatrix
p4069
(dp4070
g28
(lp4071
(I01
g2131
tp4072
asg22
Nsbsg31
(irule
Guard
p4073
(dp4074
g18
I00
sg19
(lp4075
sg21
I00
sg22
Nsg23
I00
sg24
S'R'
sbsg35
(irule
FeatureMatrix
p4076
(dp4077
g28
(lp4078
(I00
g2387
tp4079
asg22
Nsbsg22
Nsba(irule
Rule
p4080
(dp4081
g15
(irule
Guard
p4082
(dp4083
g18
I00
sg19
(lp4084
(irule
FeatureMatrix
p4085
(dp4086
g28
(lp4087
(I00
g2147
tp4088
asg22
Nsbasg21
I00
sg22
Nsg23
I00
sg24
S'L'
sbsg25
(irule
FeatureMatrix
p4089
(dp4090
g28
(lp4091
(I01
g2131
tp4092
asg22
Nsbsg31
(irule
Guard
p4093
(dp4094
g18
I00
sg19
(lp4095
sg21
I00
sg22
Nsg23
I00
sg24
S'R'
sbsg35
(irule
FeatureMatrix
p4096
(dp4097
g28
(lp4098
(I00
g2147
tp4099
asg22
Nsbsg22
NsbaasbsS'parameters'
p4100
g6
(cargparse
Namespace
p4101
g8
NtRp4102
(dp4103
S'dummy'
p4104
I00
sS'task'
p4105
S'CEGIS'
p4106
sS'features'
p4107
S'sophisticated'
p4108
sS'resume'
p4109
I00
sS'geometry'
p4110
I01
sS'top'
p4111
I100
sS'disableClean'
p4112
I00
sS'universal'
p4113
NsS'restrict'
p4114
NsS'window'
p4115
NsS'seed'
p4116
S'0'
sS'restore'
p4117
NsS'verbosity'
p4118
I0
sS'timeout'
p4119
F24
sS'debug'
p4120
NsS'cores'
p4121
I40
sg439
S'Odden_105_Bukusu'
p4122
sS'save'
p4123
NsS'serial'
p4124
I00
sS'alignment'
p4125
I00
sS'samples'
p4126
I30
sbsb.