(iresult
Result
p1
(dp2
S'startTime'
p3
F1565820378.887485
sS'solutionSequence'
p4
(lp5
(ccopy_reg
_reconstructor
p6
(csolution
Solution
p7
c__builtin__
object
p8
NtRp9
(dp10
S'rules'
p11
(lp12
(irule
Rule
p13
(dp14
S'leftTriggers'
p15
(irule
Guard
p16
(dp17
S'endOfString'
p18
I00
sS'specifications'
p19
(lp20
sS'optionalEnding'
p21
I00
sS'representation'
p22
V
sS'starred'
p23
I00
sS'side'
p24
S'L'
sbsS'structuralChange'
p25
(irule
FeatureMatrix
p26
(dp27
S'featuresAndPolarities'
p28
(lp29
sg22
V[  ]
p30
sbsS'rightTriggers'
p31
(irule
Guard
p32
(dp33
g18
I00
sg19
(lp34
sg21
I00
sg22
V
sg23
I00
sg24
S'R'
sbsS'focus'
p35
(irule
FeatureMatrix
p36
(dp37
g28
(lp38
sg22
V[  ]
p39
sbsg22
V[  ] ---> [  ] /  _ 
p40
sbasS'prefixes'
p41
(lp42
(imorph
Morph
p43
(dp44
S'phonemes'
p45
(lp46
sba(imorph
Morph
p47
(dp48
g45
(lp49
sba(imorph
Morph
p50
(dp51
g45
(lp52
sba(imorph
Morph
p53
(dp54
g45
(lp55
sba(imorph
Morph
p56
(dp57
g45
(lp58
sbasS'underlyingForms'
p59
(dp60
((imorph
Morph
p61
(dp62
g45
(lp63
Vo
aVd
aVa
asb(imorph
Morph
p64
(dp65
g45
(lp66
Vo
aVd
aVa
aVs
aV\u0268
asb(imorph
Morph
p67
(dp68
g45
(lp69
Vo
aVd
aVa
aVy
aVa
asb(imorph
Morph
p70
(dp71
g45
(lp72
Vo
aVd
aVa
aVd
aVa
aVn
asb(imorph
Morph
p73
(dp74
g45
(lp75
Vo
aVd
aVa
aVl
aVa
aVr
asbtp76
(imorph
Morph
p77
(dp78
g45
(lp79
Vo
aVd
aVa
asbssS'suffixes'
p80
(lp81
(imorph
Morph
p82
(dp83
g45
(lp84
sba(imorph
Morph
p85
(dp86
g45
(lp87
Vs
aV\u0268
asba(imorph
Morph
p88
(dp89
g45
(lp90
Vy
aVa
asba(imorph
Morph
p91
(dp92
g45
(lp93
Vd
aVa
aVn
asba(imorph
Morph
p94
(dp95
g45
(lp96
Vl
aVa
aVr
asbasbF132.86201405525208
tp97
a(g6
(g7
g8
NtRp98
(dp99
g11
(lp100
(irule
Rule
p101
(dp102
g15
(irule
Guard
p103
(dp104
g18
I00
sg19
(lp105
(irule
FeatureMatrix
p106
(dp107
g28
(lp108
sg22
V[  ]
p109
sba(irule
FeatureMatrix
p110
(dp111
g28
(lp112
(I01
S'high'
p113
tp114
asg22
V[ +high ]
p115
sbasg21
I00
sg22
V[ +high ] [  ]
p116
sg23
I00
sg24
S'L'
sbsg25
(irule
OffsetSpecification
p117
(dp118
S'offset'
p119
I-2
sbsg31
(irule
Guard
p120
(dp121
g18
I00
sg19
(lp122
sg21
I00
sg22
V
sg23
I00
sg24
S'R'
sbsg35
(irule
FeatureMatrix
p123
(dp124
g28
(lp125
sg22
V[  ]
p126
sbsg22
V[  ] ---> -2 / [ +high ] [  ] _ 
p127
sba(irule
Rule
p128
(dp129
g15
(irule
Guard
p130
(dp131
g18
I00
sg19
(lp132
(irule
FeatureMatrix
p133
(dp134
g28
(lp135
(I01
S'voice'
p136
tp137
asg22
V[ +voice ]
p138
sbasg21
I00
sg22
g138
sg23
I00
sg24
S'L'
sbsg25
(irule
ConstantPhoneme
p139
(dp140
S'p'
Va
sbsg31
(irule
Guard
p141
(dp142
g18
I00
sg19
(lp143
sg21
I00
sg22
V
sg23
I00
sg24
S'R'
sbsg35
(irule
FeatureMatrix
p144
(dp145
g28
(lp146
(I01
S'central'
p147
tp148
asg22
V[ +central ]
p149
sbsg22
V[ +central ] ---> a / [ +voice ] _ 
p150
sbasg41
(lp151
(imorph
Morph
p152
(dp153
g45
(lp154
sba(imorph
Morph
p155
(dp156
g45
(lp157
sba(imorph
Morph
p158
(dp159
g45
(lp160
sba(imorph
Morph
p161
(dp162
g45
(lp163
sba(imorph
Morph
p164
(dp165
g45
(lp166
sbasg59
(dp167
((imorph
Morph
p168
(dp169
g45
(lp170
Vd
aVe
aVr
aVe
asb(imorph
Morph
p171
(dp172
g45
(lp173
Vd
aVe
aVr
aVe
aVs
aVi
asb(imorph
Morph
p174
(dp175
g45
(lp176
Vd
aVe
aVr
aVe
aVy
aVe
asb(imorph
Morph
p177
(dp178
g45
(lp179
Vd
aVe
aVr
aVe
aVd
aVe
aVn
asb(imorph
Morph
p180
(dp181
g45
(lp182
Vd
aVe
aVr
aVe
aVl
aVe
aVr
asbtp183
(imorph
Morph
p184
(dp185
g45
(lp186
Vd
aVe
aVr
aVe
asbs(g61
g64
g67
g70
g73
tp187
(imorph
Morph
p188
(dp189
g45
(lp190
Vo
aVd
aV\u0268
asbssg80
(lp191
(imorph
Morph
p192
(dp193
g45
(lp194
sba(imorph
Morph
p195
(dp196
g45
(lp197
Vs
aVi
asba(imorph
Morph
p198
(dp199
g45
(lp200
Vy
aVe
asba(imorph
Morph
p201
(dp202
g45
(lp203
Vd
aVe
aVn
asba(imorph
Morph
p204
(dp205
g45
(lp206
Vl
aVe
aVr
asbasbF3388.0800569057465
tp207
a(g6
(g7
g8
NtRp208
(dp209
g11
(lp210
(irule
Rule
p211
(dp212
g15
(irule
Guard
p213
(dp214
g18
I00
sg19
(lp215
(irule
FeatureMatrix
p216
(dp217
g28
(lp218
sg22
V[  ]
p219
sba(irule
FeatureMatrix
p220
(dp221
g28
(lp222
(I01
g113
tp223
asg22
V[ +high ]
p224
sbasg21
I00
sg22
V[ +high ] [  ]
p225
sg23
I00
sg24
S'L'
sbsg25
(irule
OffsetSpecification
p226
(dp227
g119
I-2
sbsg31
(irule
Guard
p228
(dp229
g18
I00
sg19
(lp230
sg21
I00
sg22
V
sg23
I00
sg24
S'R'
sbsg35
(irule
FeatureMatrix
p231
(dp232
g28
(lp233
sg22
V[  ]
p234
sbsg22
V[  ] ---> -2 / [ +high ] [  ] _ 
p235
sba(irule
Rule
p236
(dp237
g15
(irule
Guard
p238
(dp239
g18
I00
sg19
(lp240
(irule
FeatureMatrix
p241
(dp242
g28
(lp243
(I01
g136
tp244
asg22
V[ +voice ]
p245
sbasg21
I00
sg22
g245
sg23
I00
sg24
S'L'
sbsg25
(irule
ConstantPhoneme
p246
(dp247
S'p'
Ve
sbsg31
(irule
Guard
p248
(dp249
g18
I00
sg19
(lp250
sg21
I00
sg22
V
sg23
I00
sg24
S'R'
sbsg35
(irule
FeatureMatrix
p251
(dp252
g28
(lp253
(I01
g113
tp254
asg22
V[ +high ]
p255
sbsg22
V[ +high ] ---> e / [ +voice ] _ 
p256
sbasg41
(lp257
(imorph
Morph
p258
(dp259
g45
(lp260
sba(imorph
Morph
p261
(dp262
g45
(lp263
sba(imorph
Morph
p264
(dp265
g45
(lp266
sba(imorph
Morph
p267
(dp268
g45
(lp269
sba(imorph
Morph
p270
(dp271
g45
(lp272
sbasg59
(dp273
((imorph
Morph
p274
(dp275
g45
(lp276
Vu\u0308
p277
aVt
aVu\u0308
p278
asb(imorph
Morph
p279
(dp280
g45
(lp281
Vu\u0308
p282
aVt
aVu\u0308
p283
aVs
aVu\u0308
p284
asb(imorph
Morph
p285
(dp286
g45
(lp287
Vu\u0308
p288
aVt
aVu\u0308
p289
aVy
aVe
asb(imorph
Morph
p290
(dp291
g45
(lp292
Vu\u0308
p293
aVt
aVu\u0308
p294
aVd
aVe
aVn
asb(imorph
Morph
p295
(dp296
g45
(lp297
Vu\u0308
p298
aVt
aVu\u0308
p299
aVl
aVe
aVr
asbtp300
(imorph
Morph
p301
(dp302
g45
(lp303
Vu\u0308
p304
aVt
ag304
asbs(g168
g171
g174
g177
g180
tp305
(imorph
Morph
p306
(dp307
g45
(lp308
Vd
aVi:
p309
aVr
aVi
asbs(g61
g64
g67
g70
g73
tp310
(imorph
Morph
p311
(dp312
g45
(lp313
Vo
aVd
aVa
asbssg80
(lp314
(imorph
Morph
p315
(dp316
g45
(lp317
sba(imorph
Morph
p318
(dp319
g45
(lp320
Vs
aV\u0268
asba(imorph
Morph
p321
(dp322
g45
(lp323
Vy
aVa
asba(imorph
Morph
p324
(dp325
g45
(lp326
Vd
aVa
aVn
asba(imorph
Morph
p327
(dp328
g45
(lp329
Vl
aVa
aVr
asbasbF6531.2446229457855
tp330
a(g6
(g7
g8
NtRp331
(dp332
g11
(lp333
(irule
Rule
p334
(dp335
g15
(irule
Guard
p336
(dp337
g18
I01
sg19
(lp338
(irule
FeatureMatrix
p339
(dp340
g28
(lp341
sg22
V[  ]
p342
sba(irule
FeatureMatrix
p343
(dp344
g28
(lp345
(I00
S'bilabial'
p346
tp347
asg22
V[ -bilabial ]
p348
sbasg21
I00
sg22
V# [ -bilabial ] [  ]*
p349
sg23
I01
sg24
S'L'
sbsg25
(irule
OffsetSpecification
p350
(dp351
g119
I-2
sbsg31
(irule
Guard
p352
(dp353
g18
I00
sg19
(lp354
sg21
I00
sg22
V
sg23
I00
sg24
S'R'
sbsg35
(irule
FeatureMatrix
p355
(dp356
g28
(lp357
(I01
g113
tp358
asg22
V[ +high ]
p359
sbsg22
V[ +high ] ---> -2 / # [ -bilabial ] [  ]* _ 
p360
sba(irule
Rule
p361
(dp362
g15
(irule
Guard
p363
(dp364
g18
I00
sg19
(lp365
(irule
FeatureMatrix
p366
(dp367
g28
(lp368
(I00
S'fricative'
p369
tp370
asg22
V[ -fricative ]
p371
sba(irule
FeatureMatrix
p372
(dp373
g28
(lp374
(I01
S'back'
p375
tp376
asg22
V[ +back ]
p377
sbasg21
I00
sg22
V[ +back ] [ -fricative ]
p378
sg23
I00
sg24
S'L'
sbsg25
(irule
ConstantPhoneme
p379
(dp380
S'p'
Va
sbsg31
(irule
Guard
p381
(dp382
g18
I00
sg19
(lp383
sg21
I00
sg22
V
sg23
I00
sg24
S'R'
sbsg35
(irule
FeatureMatrix
p384
(dp385
g28
(lp386
sg22
V[  ]
p387
sbsg22
V[  ] ---> a / [ +back ] [ -fricative ] _ 
p388
sbasg41
(lp389
(imorph
Morph
p390
(dp391
g45
(lp392
sba(imorph
Morph
p393
(dp394
g45
(lp395
sba(imorph
Morph
p396
(dp397
g45
(lp398
sba(imorph
Morph
p399
(dp400
g45
(lp401
sba(imorph
Morph
p402
(dp403
g45
(lp404
sbasg59
(dp405
(g274
g279
g285
g290
g295
tp406
(imorph
Morph
p407
(dp408
g45
(lp409
g304
aVt
ag304
asbs((imorph
Morph
p410
(dp411
g45
(lp412
Vb
aVa
aVl
aVo
asb(imorph
Morph
p413
(dp414
g45
(lp415
Vb
aVa
aVl
aVo
aVs
aVu
asb(imorph
Morph
p416
(dp417
g45
(lp418
Vb
aVa
aVl
aVo
aVy
aVa
asb(imorph
Morph
p419
(dp420
g45
(lp421
Vb
aVa
aVl
aVo
aVd
aVa
aVn
asb(imorph
Morph
p422
(dp423
g45
(lp424
Vb
aVa
aVl
aVo
aVl
aVa
aVr
asbtp425
(imorph
Morph
p426
(dp427
g45
(lp428
Vb
aVa
aVl
aVo
asbs(g168
g171
g174
g177
g180
tp429
(imorph
Morph
p430
(dp431
g45
(lp432
Vd
aVe
aVr
aVi
asbs(g61
g64
g67
g70
g73
tp433
(imorph
Morph
p434
(dp435
g45
(lp436
Vo
aVd
aV\u0268
asbssg80
(lp437
(imorph
Morph
p438
(dp439
g45
(lp440
sba(imorph
Morph
p441
(dp442
g45
(lp443
Vs
aVu
asba(imorph
Morph
p444
(dp445
g45
(lp446
Vy
aVe
asba(imorph
Morph
p447
(dp448
g45
(lp449
Vd
aVe
aVn
asba(imorph
Morph
p450
(dp451
g45
(lp452
Vl
aVe
aVr
asbasbF11810.389312028885
tp453
a(g6
(g7
g8
NtRp454
(dp455
g11
(lp456
(irule
Rule
p457
(dp458
g15
(irule
Guard
p459
(dp460
g18
I01
sg19
(lp461
(irule
FeatureMatrix
p462
(dp463
g28
(lp464
(I00
S'lateral'
p465
tp466
asg22
V[ -lateral ]
p467
sba(irule
FeatureMatrix
p468
(dp469
g28
(lp470
sg22
V[  ]
p471
sbasg21
I00
sg22
V# [  ] [ -lateral ]*
p472
sg23
I01
sg24
S'L'
sbsg25
(irule
OffsetSpecification
p473
(dp474
g119
I-2
sbsg31
(irule
Guard
p475
(dp476
g18
I00
sg19
(lp477
sg21
I00
sg22
V
sg23
I00
sg24
S'R'
sbsg35
(irule
FeatureMatrix
p478
(dp479
g28
(lp480
(I01
g113
tp481
a(I00
g147
tp482
asg22
V[ +high -central ]
p483
sbsg22
V[ +high -central ] ---> -2 / # [  ] [ -lateral ]* _ 
p484
sba(irule
Rule
p485
(dp486
g15
(irule
Guard
p487
(dp488
g18
I00
sg19
(lp489
(irule
FeatureMatrix
p490
(dp491
g28
(lp492
(I00
g369
tp493
asg22
V[ -fricative ]
p494
sba(irule
FeatureMatrix
p495
(dp496
g28
(lp497
(I01
g375
tp498
asg22
V[ +back ]
p499
sbasg21
I00
sg22
V[ +back ] [ -fricative ]
p500
sg23
I00
sg24
S'L'
sbsg25
(irule
ConstantPhoneme
p501
(dp502
S'p'
Va
sbsg31
(irule
Guard
p503
(dp504
g18
I00
sg19
(lp505
sg21
I00
sg22
V
sg23
I00
sg24
S'R'
sbsg35
(irule
FeatureMatrix
p506
(dp507
g28
(lp508
sg22
V[  ]
p509
sbsg22
V[  ] ---> a / [ +back ] [ -fricative ] _ 
p510
sbasg41
(lp511
(imorph
Morph
p512
(dp513
g45
(lp514
sba(imorph
Morph
p515
(dp516
g45
(lp517
sba(imorph
Morph
p518
(dp519
g45
(lp520
sba(imorph
Morph
p521
(dp522
g45
(lp523
sba(imorph
Morph
p524
(dp525
g45
(lp526
sbasg59
(dp527
(g274
g279
g285
g290
g295
tp528
(imorph
Morph
p529
(dp530
g45
(lp531
g304
aVt
ag304
asbs(g410
g413
g416
g419
g422
tp532
(imorph
Morph
p533
(dp534
g45
(lp535
Vb
aVa
aVl
aVo
asbs(g168
g171
g174
g177
g180
tp536
(imorph
Morph
p537
(dp538
g45
(lp539
Vd
aVe
aVr
aVi
asbs(g61
g64
g67
g70
g73
tp540
(imorph
Morph
p541
(dp542
g45
(lp543
Vo
aVd
aV\u0268
asbs((imorph
Morph
p544
(dp545
g45
(lp546
Va
aVr
aV\u0268
asb(imorph
Morph
p547
(dp548
g45
(lp549
Va
aVr
aV\u0268
aVs
aV\u0268
asb(imorph
Morph
p550
(dp551
g45
(lp552
Va
aVr
aV\u0268
aVy
aVa
asb(imorph
Morph
p553
(dp554
g45
(lp555
Va
aVr
aV\u0268
aVd
aVa
aVn
asb(imorph
Morph
p556
(dp557
g45
(lp558
Va
aVr
aV\u0268
aVl
aVa
aVr
asbtp559
(imorph
Morph
p560
(dp561
g45
(lp562
Va
aVr
aV\u0268
asbssg80
(lp563
(imorph
Morph
p564
(dp565
g45
(lp566
sba(imorph
Morph
p567
(dp568
g45
(lp569
Vs
aVu
asba(imorph
Morph
p570
(dp571
g45
(lp572
Vy
aVe
asba(imorph
Morph
p573
(dp574
g45
(lp575
Vd
aVe
aVn
asba(imorph
Morph
p576
(dp577
g45
(lp578
Vl
aVe
aVr
asbasbF18182.433844089508
tp579
a(g6
(g7
g8
NtRp580
(dp581
g11
(lp582
(irule
Rule
p583
(dp584
g15
(irule
Guard
p585
(dp586
g18
I00
sg19
(lp587
(irule
FeatureMatrix
p588
(dp589
g28
(lp590
sg22
V[  ]
p591
sba(irule
FeatureMatrix
p592
(dp593
g28
(lp594
(I01
S'front'
p595
tp596
asg22
V[ +front ]
p597
sbasg21
I00
sg22
V[ +front ] [  ]
p598
sg23
I00
sg24
S'L'
sbsg25
(irule
OffsetSpecification
p599
(dp600
g119
I-2
sbsg31
(irule
Guard
p601
(dp602
g18
I00
sg19
(lp603
sg21
I00
sg22
V
sg23
I00
sg24
S'R'
sbsg35
(irule
FeatureMatrix
p604
(dp605
g28
(lp606
sg22
V[  ]
p607
sbsg22
V[  ] ---> -2 / [ +front ] [  ] _ 
p608
sba(irule
Rule
p609
(dp610
g15
(irule
Guard
p611
(dp612
g18
I00
sg19
(lp613
(irule
FeatureMatrix
p614
(dp615
g28
(lp616
(I01
g369
tp617
asg22
V[ +fricative ]
p618
sba(irule
FeatureMatrix
p619
(dp620
g28
(lp621
(I00
S'low'
p622
tp623
asg22
V[ -low ]
p624
sbasg21
I00
sg22
V[ -low ] [ +fricative ]
p625
sg23
I00
sg24
S'L'
sbsg25
(irule
OffsetSpecification
p626
(dp627
g119
I-2
sbsg31
(irule
Guard
p628
(dp629
g18
I00
sg19
(lp630
sg21
I00
sg22
V
sg23
I00
sg24
S'R'
sbsg35
(irule
FeatureMatrix
p631
(dp632
g28
(lp633
sg22
V[  ]
p634
sbsg22
V[  ] ---> -2 / [ -low ] [ +fricative ] _ 
p635
sba(irule
Rule
p636
(dp637
g15
(irule
Guard
p638
(dp639
g18
I00
sg19
(lp640
(irule
ConstantPhoneme
p641
(dp642
S'p'
Vs
sbasg21
I00
sg22
Vs
sg23
I00
sg24
S'L'
sbsg25
(irule
FeatureMatrix
p643
(dp644
g28
(lp645
(I01
g113
tp646
a(I00
S'middle'
p647
tp648
asg22
V[ +high -middle ]
p649
sbsg31
(irule
Guard
p650
(dp651
g18
I00
sg19
(lp652
sg21
I00
sg22
V
sg23
I00
sg24
S'R'
sbsg35
(irule
FeatureMatrix
p653
(dp654
g28
(lp655
sg22
V[  ]
p656
sbsg22
V[  ] ---> [ +high -middle ] / s _ 
p657
sbasg41
(lp658
(imorph
Morph
p659
(dp660
g45
(lp661
sba(imorph
Morph
p662
(dp663
g45
(lp664
sba(imorph
Morph
p665
(dp666
g45
(lp667
sba(imorph
Morph
p668
(dp669
g45
(lp670
sba(imorph
Morph
p671
(dp672
g45
(lp673
sbasg59
(dp674
(g274
g279
g285
g290
g295
tp675
(imorph
Morph
p676
(dp677
g45
(lp678
g304
aVt
aVe
asbs(g61
g64
g67
g70
g73
tp679
(imorph
Morph
p680
(dp681
g45
(lp682
Vo
aVd
aVa
asbs(g410
g413
g416
g419
g422
tp683
(imorph
Morph
p684
(dp685
g45
(lp686
Vb
aVa
aVl
aVo
asbs(g544
g547
g550
g553
g556
tp687
(imorph
Morph
p688
(dp689
g45
(lp690
Va
aVr
aV\u0268
asbs(g168
g171
g174
g177
g180
tp691
(imorph
Morph
p692
(dp693
g45
(lp694
Vd
aVe
aVr
aVe
asbs((imorph
Morph
p695
(dp696
g45
(lp697
Vl
aVa:
p698
asb(imorph
Morph
p699
(dp700
g45
(lp701
Vl
aVa:
p702
aVs
aV\u0268
asb(imorph
Morph
p703
(dp704
g45
(lp705
Vl
aVa:
p706
aVy
aVa
asb(imorph
Morph
p707
(dp708
g45
(lp709
Vl
aVa:
p710
aVd
aVa
aVn
asb(imorph
Morph
p711
(dp712
g45
(lp713
Vl
aVa:
p714
aVl
aVa
aVr
asbtp715
(imorph
Morph
p716
(dp717
g45
(lp718
Vl
aVa:
p719
asbssg80
(lp720
(imorph
Morph
p721
(dp722
g45
(lp723
sba(imorph
Morph
p724
(dp725
g45
(lp726
Vs
aV\u0268
asba(imorph
Morph
p727
(dp728
g45
(lp729
Vy
aVa
asba(imorph
Morph
p730
(dp731
g45
(lp732
Vd
aVa
aVn
asba(imorph
Morph
p733
(dp734
g45
(lp735
Vl
aVa
aVr
asbasbF86430.73753285408
tp736
asS'problem'
p737
S'Odden_4.5_Turkish'
p738
sS'finalFrontier'
p739
g6
(csolution
Frontier
p740
g8
NtRp741
(dp742
g41
g658
sg80
g720
sg59
g674
sS'frontiers'
p743
(lp744
(lp745
g583
aa(lp746
g609
aa(lp747
g636
aasbsS'parameters'
p748
g6
(cargparse
Namespace
p749
g8
NtRp750
(dp751
S'restore'
p752
NsS'features'
p753
S'simple'
p754
sS'universal'
p755
NsS'restrict'
p756
NsS'seed'
p757
S'0'
sS'serial'
p758
I00
sS'alignment'
p759
I00
sS'top'
p760
I1
sS'maximumDepth'
p761
I3
sS'window'
p762
NsS'minimizeBits'
p763
I5
sS'samples'
p764
I30
sS'save'
p765
NsS'resume'
p766
I00
sS'disableClean'
p767
I00
sS'stemBaseline'
p768
I30
sS'dummy'
p769
I00
sS'task'
p770
S'CEGIS'
p771
sS'geometry'
p772
NsS'verbosity'
p773
I0
sS'timeout'
p774
F24
sS'debug'
p775
NsS'cores'
p776
I40
sg737
S'Odden_4.5_Turkish'
p777
sS'mergeFrontiers'
p778
I00
sbsb.