(iresult
Result
p1
(dp2
S'startTime'
p3
F1559660768.6738279
sS'solutionSequence'
p4
(lp5
(ccopy_reg
_reconstructor
p6
(csolution
Solution
p7
c__builtin__
object
p8
NtRp9
(dp10
S'rules'
p11
(lp12
(irule
Rule
p13
(dp14
S'leftTriggers'
p15
(irule
Guard
p16
(dp17
S'endOfString'
p18
I00
sS'specifications'
p19
(lp20
sS'optionalEnding'
p21
I00
sS'representation'
p22
V
sS'starred'
p23
I00
sS'side'
p24
S'L'
sbsS'structuralChange'
p25
(irule
FeatureMatrix
p26
(dp27
S'featuresAndPolarities'
p28
(lp29
sg22
V[  ]
p30
sbsS'rightTriggers'
p31
(irule
Guard
p32
(dp33
g18
I00
sg19
(lp34
sg21
I00
sg22
V
sg23
I00
sg24
S'R'
sbsS'focus'
p35
(irule
FeatureMatrix
p36
(dp37
g28
(lp38
sg22
V[  ]
p39
sbsg22
V[  ] ---> [  ] /  _ 
p40
sbasS'prefixes'
p41
(lp42
(imorph
Morph
p43
(dp44
S'phonemes'
p45
(lp46
sba(imorph
Morph
p47
(dp48
g45
(lp49
sba(imorph
Morph
p50
(dp51
g45
(lp52
sbasS'underlyingForms'
p53
(dp54
((imorph
Morph
p55
(dp56
g45
(lp57
Va
aV\u0263
aVa
asb(imorph
Morph
p58
(dp59
g45
(lp60
Va
aV\u0263
aVa
aVl
aVa
aVr
asb(imorph
Morph
p61
(dp62
g45
(lp63
Va
aV\u0263
aVa
aVl
aV\u0268
aV\u0268
aVn
asbtp64
(imorph
Morph
p65
(dp66
g45
(lp67
Va
aV\u0263
aVa
asbs((imorph
Morph
p68
(dp69
g45
(lp70
Vp
aVa
aVa
aVr
aVt
aVa
asb(imorph
Morph
p71
(dp72
g45
(lp73
Vp
aVa
aVa
aVr
aVt
aVa
aVl
aVa
aVr
asb(imorph
Morph
p74
(dp75
g45
(lp76
Vp
aVa
aVa
aVr
aVt
aVa
aVl
aV\u0268
aV\u0268
aVn
asbtp77
(imorph
Morph
p78
(dp79
g45
(lp80
Vp
aVa
aVa
aVr
aVt
aVa
asbssS'suffixes'
p81
(lp82
(imorph
Morph
p83
(dp84
g45
(lp85
sba(imorph
Morph
p86
(dp87
g45
(lp88
Vl
aVa
aVr
asba(imorph
Morph
p89
(dp90
g45
(lp91
Vl
aV\u0268
aV\u0268
aVn
asbasbF46.189617156982422
tp92
a(g6
(g7
g8
NtRp93
(dp94
g11
(lp95
(irule
Rule
p96
(dp97
g15
(irule
Guard
p98
(dp99
g18
I00
sg19
(lp100
(irule
FeatureMatrix
p101
(dp102
g28
(lp103
sg22
V[  ]
p104
sba(irule
ConstantPhoneme
p105
(dp106
S'p'
Ve
sbasg21
I00
sg22
Ve [  ]
p107
sg23
I00
sg24
S'L'
sbsg25
(irule
OffsetSpecification
p108
(dp109
S'offset'
p110
I-2
sbsg31
(irule
Guard
p111
(dp112
g18
I00
sg19
(lp113
sg21
I00
sg22
V
sg23
I00
sg24
S'R'
sbsg35
(irule
FeatureMatrix
p114
(dp115
g28
(lp116
sg22
V[  ]
p117
sbsg22
V[  ] ---> -2 / e [  ] _ 
p118
sba(irule
Rule
p119
(dp120
g15
(irule
Guard
p121
(dp122
g18
I00
sg19
(lp123
sg21
I00
sg22
V
sg23
I00
sg24
S'L'
sbsg25
(irule
OffsetSpecification
p124
(dp125
g110
I1
sbsg31
(irule
Guard
p126
(dp127
g18
I00
sg19
(lp128
(irule
ConstantPhoneme
p129
(dp130
S'p'
Vi
sbasg21
I00
sg22
Vi
sg23
I00
sg24
S'R'
sbsg35
(irule
ConstantPhoneme
p131
(dp132
S'p'
Ve
sbsg22
Ve ---> 1 /  _ i
p133
sba(irule
Rule
p134
(dp135
g15
(irule
Guard
p136
(dp137
g18
I00
sg19
(lp138
(irule
ConstantPhoneme
p139
(dp140
S'p'
V\u0268
sbasg21
I00
sg22
V\u0268
sg23
I00
sg24
S'L'
sbsg25
(irule
OffsetSpecification
p141
(dp142
g110
I-1
sbsg31
(irule
Guard
p143
(dp144
g18
I00
sg19
(lp145
sg21
I00
sg22
V
sg23
I00
sg24
S'R'
sbsg35
(irule
FeatureMatrix
p146
(dp147
g28
(lp148
sg22
V[  ]
p149
sbsg22
V[  ] ---> -1 / \u0268 _ 
p150
sbasg41
(lp151
(imorph
Morph
p152
(dp153
g45
(lp154
sba(imorph
Morph
p155
(dp156
g45
(lp157
sba(imorph
Morph
p158
(dp159
g45
(lp160
sbasg53
(dp161
(g55
g58
g61
tp162
(imorph
Morph
p163
(dp164
g45
(lp165
Va
aV\u0263
aVa
asbs(g68
g71
g74
tp166
(imorph
Morph
p167
(dp168
g45
(lp169
Vp
aVa
aVa
aVr
aVt
aVa
asbs((imorph
Morph
p170
(dp171
g45
(lp172
Vk
aVi
aVn
aVi
aVg
aVe
asb(imorph
Morph
p173
(dp174
g45
(lp175
Vk
aVi
aVn
aVi
aVg
aVe
aVl
aVe
aVr
asb(imorph
Morph
p176
(dp177
g45
(lp178
Vk
aVi
aVn
aVi
aVg
aVe
aVl
aVi
aVi
aVn
asbtp179
(imorph
Morph
p180
(dp181
g45
(lp182
Vk
aVi
aVn
aVi
aVg
aVe
asbssg81
(lp183
(imorph
Morph
p184
(dp185
g45
(lp186
sba(imorph
Morph
p187
(dp188
g45
(lp189
Vl
aVa
aVr
asba(imorph
Morph
p190
(dp191
g45
(lp192
Vl
aV\u0268
aVi
aVn
asbasbF43376.235104084015
tp193
a(g6
(g7
g8
NtRp194
(dp195
g11
(lp196
(irule
Rule
p197
(dp198
g15
(irule
Guard
p199
(dp200
g18
I00
sg19
(lp201
(irule
FeatureMatrix
p202
(dp203
g28
(lp204
sg22
V[  ]
p205
sba(irule
ConstantPhoneme
p206
(dp207
S'p'
Ve
sbasg21
I00
sg22
Ve [  ]
p208
sg23
I00
sg24
S'L'
sbsg25
(irule
OffsetSpecification
p209
(dp210
g110
I-1
sbsg31
(irule
Guard
p211
(dp212
g18
I00
sg19
(lp213
(irule
FeatureMatrix
p214
(dp215
g28
(lp216
sg22
V[  ]
p217
sbasg21
I00
sg22
g217
sg23
I00
sg24
S'R'
sbsg35
(irule
FeatureMatrix
p218
(dp219
g28
(lp220
sg22
V[  ]
p221
sbsg22
V[  ] ---> -1 / e [  ] _ [  ]
p222
sba(irule
Rule
p223
(dp224
g15
(irule
Guard
p225
(dp226
g18
I00
sg19
(lp227
(irule
BoundarySpecification
p228
(dp229
basg21
I00
sg22
V+
sg23
I00
sg24
S'L'
sbsg25
(irule
ConstantPhoneme
p230
(dp231
S'p'
Vl
sbsg31
(irule
Guard
p232
(dp233
g18
I00
sg19
(lp234
sg21
I00
sg22
V
sg23
I00
sg24
S'R'
sbsg35
(irule
FeatureMatrix
p235
(dp236
g28
(lp237
sg22
V[  ]
p238
sbsg22
V[  ] ---> l / + _ 
p239
sba(irule
Rule
p240
(dp241
g15
(irule
Guard
p242
(dp243
g18
I00
sg19
(lp244
(irule
FeatureMatrix
p245
(dp246
g28
(lp247
sg22
V[  ]
p248
sbasg21
I00
sg22
g248
sg23
I00
sg24
S'L'
sbsg25
(irule
OffsetSpecification
p249
(dp250
g110
I-1
sbsg31
(irule
Guard
p251
(dp252
g18
I00
sg19
(lp253
sg21
I00
sg22
V
sg23
I00
sg24
S'R'
sbsg35
(irule
ConstantPhoneme
p254
(dp255
S'p'
Vu\u0308
p256
sbsg22
Vu\u0308 ---> -1 / [  ] _ 
p257
sbasg41
(lp258
(imorph
Morph
p259
(dp260
g45
(lp261
sba(imorph
Morph
p262
(dp263
g45
(lp264
sba(imorph
Morph
p265
(dp266
g45
(lp267
sbasg53
(dp268
((imorph
Morph
(dp269
g45
(lp270
Vi
aVy
aVe
asb(imorph
Morph
(dp271
g45
(lp272
Vi
aVy
aVe
aVl
aVe
aVr
asb(imorph
Morph
(dp273
g45
(lp274
Vi
aVy
aVe
aVl
aVi
aVi
aVn
asbtp275
(imorph
Morph
p276
(dp277
g45
(lp278
Vi
aVy
aVe
asbs(g68
g71
g74
tp279
(imorph
Morph
p280
(dp281
g45
(lp282
Vp
aVa
ag256
aVr
aVt
aVa
asbs(g55
g58
g61
tp283
(imorph
Morph
p284
(dp285
g45
(lp286
Va
aV\u0263
aVa
asbs((imorph
Morph
(dp287
g45
(lp288
Vb
aVi
aVe
asb(imorph
Morph
(dp289
g45
(lp290
Vb
aVi
aVe
aVl
aVe
aVr
asb(imorph
Morph
(dp291
g45
(lp292
Vb
aVi
aVe
aVl
aVi
aVi
aVn
asbtp293
(imorph
Morph
p294
(dp295
g45
(lp296
Vb
aVi
aVe
asbs((imorph
Morph
p297
(dp298
g45
(lp299
Vt
aV\u0268
aVa
asb(imorph
Morph
p300
(dp301
g45
(lp302
Vt
aV\u0268
aVa
aVl
aVa
aVr
asb(imorph
Morph
p303
(dp304
g45
(lp305
Vt
aV\u0268
aVa
aVl
aV\u0268
aV\u0268
aVn
asbtp306
(imorph
Morph
p307
(dp308
g45
(lp309
Vt
aV\u0268
aVa
asbs((imorph
Morph
(dp310
g45
(lp311
V\u0161
aVi
aVe
asb(imorph
Morph
(dp312
g45
(lp313
V\u0161
aVi
aVe
aVl
aVe
aVr
asb(imorph
Morph
(dp314
g45
(lp315
V\u0161
aVi
aVe
aVl
aVi
aVi
aVn
asbtp316
(imorph
Morph
p317
(dp318
g45
(lp319
V\u0161
aVi
aVe
asbs((imorph
Morph
(dp320
g45
(lp321
Vt
aV\u0268
aVa
aVl
asb(imorph
Morph
(dp322
g45
(lp323
Vt
aV\u0268
aVa
aVl
aVl
aVa
aVr
asb(imorph
Morph
(dp324
g45
(lp325
Vt
aV\u0268
aVa
aVl
aVl
aV\u0268
aV\u0268
aVn
asbtp326
(imorph
Morph
p327
(dp328
g45
(lp329
Vt
aV\u0268
aVa
aVl
asbs((imorph
Morph
(dp330
g45
(lp331
V\u0268
aVa
aVl
asb(imorph
Morph
(dp332
g45
(lp333
V\u0268
aVa
aVl
aVl
aVa
aVr
asb(imorph
Morph
(dp334
g45
(lp335
V\u0268
aVa
aVl
aVl
aV\u0268
aV\u0268
aVn
asbtp336
(imorph
Morph
p337
(dp338
g45
(lp339
V\u0268
aVa
aVl
asbs(g170
g173
g176
tp340
(imorph
Morph
p341
(dp342
g45
(lp343
Vk
aVi
aVn
aVi
aVg
aVe
asbssg81
(lp344
(imorph
Morph
p345
(dp346
g45
(lp347
sba(imorph
Morph
p348
(dp349
g45
(lp350
Ve
aVa
aVr
asba(imorph
Morph
p351
(dp352
g45
(lp353
Vi
aV\u0268
ag256
aVn
asbasbF72021.558880090714
tp354
asS'problem'
p355
S'Odden_4.10_Sakha_Yakut'
p356
sS'finalFrontier'
p357
g6
(csolution
Frontier
p358
g8
NtRp359
(dp360
g41
g258
sg81
g344
sg53
g268
sS'frontiers'
p361
(lp362
(lp363
g197
aa(lp364
g223
aa(lp365
g240
aasbsS'parameters'
p366
g6
(cargparse
Namespace
p367
g8
NtRp368
(dp369
S'restore'
p370
NsS'features'
p371
S'none'
p372
sS'universal'
p373
NsS'restrict'
p374
NsS'seed'
p375
S'0'
sS'serial'
p376
I00
sS'alignment'
p377
I00
sS'top'
p378
I1
sS'maximumDepth'
p379
I3
sS'window'
p380
NsS'minimizeBits'
p381
I5
sS'samples'
p382
I30
sS'save'
p383
NsS'resume'
p384
I00
sS'disableClean'
p385
I01
sS'stemBaseline'
p386
I30
sS'dummy'
p387
I00
sS'task'
p388
S'CEGIS'
p389
sS'geometry'
p390
NsS'verbosity'
p391
I0
sS'timeout'
p392
F24
sS'debug'
p393
NsS'cores'
p394
I64
sg355
S'Odden_4.10_Sakha_Yakut'
p395
sS'mergeFrontiers'
p396
I00
sbsb.