(iresult
Result
p1
(dp2
S'startTime'
p3
F1559660678.578079
sS'solutionSequence'
p4
(lp5
(ccopy_reg
_reconstructor
p6
(csolution
Solution
p7
c__builtin__
object
p8
NtRp9
(dp10
S'rules'
p11
(lp12
(irule
Rule
p13
(dp14
S'leftTriggers'
p15
(irule
Guard
p16
(dp17
S'endOfString'
p18
I00
sS'specifications'
p19
(lp20
sS'optionalEnding'
p21
I00
sS'representation'
p22
V
sS'starred'
p23
I00
sS'side'
p24
S'L'
sbsS'structuralChange'
p25
(irule
FeatureMatrix
p26
(dp27
S'featuresAndPolarities'
p28
(lp29
sg22
V[  ]
p30
sbsS'rightTriggers'
p31
(irule
Guard
p32
(dp33
g18
I00
sg19
(lp34
sg21
I00
sg22
V
sg23
I00
sg24
S'R'
sbsS'focus'
p35
(irule
FeatureMatrix
p36
(dp37
g28
(lp38
sg22
V[  ]
p39
sbsg22
V[  ] ---> [  ] /  _ 
p40
sbasS'prefixes'
p41
(lp42
(imorph
Morph
p43
(dp44
S'phonemes'
p45
(lp46
sba(imorph
Morph
p47
(dp48
g45
(lp49
sbasS'underlyingForms'
p50
(dp51
((imorph
Morph
p52
(dp53
g45
(lp54
Vs
aVu
aVr
aVa
aVa
aV\u014b
aVg
aVa
asb(imorph
Morph
p55
(dp56
g45
(lp57
Vs
aVu
aVr
aVa
aVa
aV\u014b
aVg
aVe
aVr
aVa
asbtp58
(imorph
Morph
p59
(dp60
g45
(lp61
Vs
aVu
aVr
aVa
aVa
aV\u014b
aVg
asbs((imorph
Morph
p62
(dp63
g45
(lp64
Vt
aVa
aVa
aV\u014b
aVg
aVa
aVt
aVa
asb(imorph
Morph
p65
(dp66
g45
(lp67
Vt
aVa
aVa
aV\u014b
aVg
aVa
aVt
aVe
aVr
aVa
asbtp68
(imorph
Morph
p69
(dp70
g45
(lp71
Vt
aVa
aVa
aV\u014b
aVg
aVa
aVt
asbssS'suffixes'
p72
(lp73
(imorph
Morph
p74
(dp75
g45
(lp76
Va
asba(imorph
Morph
p77
(dp78
g45
(lp79
Ve
aVr
aVa
asbasbF8.3621180057525635
tp80
a(g6
(g7
g8
NtRp81
(dp82
g11
(lp83
(irule
Rule
p84
(dp85
g15
(irule
Guard
p86
(dp87
g18
I00
sg19
(lp88
sg21
I00
sg22
V
sg23
I00
sg24
S'L'
sbsg25
(irule
OffsetSpecification
p89
(dp90
S'offset'
p91
I2
sbsg31
(irule
Guard
p92
(dp93
g18
I00
sg19
(lp94
(irule
ConstantPhoneme
p95
(dp96
S'p'
Vk
sba(irule
ConstantPhoneme
p97
(dp98
S'p'
Ve
sbasg21
I00
sg22
Vk e
p99
sg23
I00
sg24
S'R'
sbsg35
(irule
FeatureMatrix
p100
(dp101
g28
(lp102
sg22
V[  ]
p103
sbsg22
V[  ] ---> 2 /  _ k e
p104
sba(irule
Rule
p105
(dp106
g15
(irule
Guard
p107
(dp108
g18
I00
sg19
(lp109
sg21
I00
sg22
V
sg23
I00
sg24
S'L'
sbsg25
(irule
OffsetSpecification
p110
(dp111
g91
I1
sbsg31
(irule
Guard
p112
(dp113
g18
I00
sg19
(lp114
(irule
ConstantPhoneme
p115
(dp116
S'p'
Vi
sbasg21
I00
sg22
Vi
sg23
I00
sg24
S'R'
sbsg35
(irule
FeatureMatrix
p117
(dp118
g28
(lp119
sg22
V[  ]
p120
sbsg22
V[  ] ---> 1 /  _ i
p121
sbasg41
(lp122
(imorph
Morph
p123
(dp124
g45
(lp125
sba(imorph
Morph
p126
(dp127
g45
(lp128
sbasg50
(dp129
(g52
g55
tp130
(imorph
Morph
p131
(dp132
g45
(lp133
Vs
aVu
aVr
aVa
aVa
aV\u014b
aVg
asbs((imorph
Morph
p134
(dp135
g45
(lp136
Vs
aVi
aVi
aVk
aVa
asb(imorph
Morph
p137
(dp138
g45
(lp139
Vs
aVe
aVe
aVk
aVe
aVr
aVa
asbtp140
(imorph
Morph
p141
(dp142
g45
(lp143
Vs
aVe
aVi
aVk
asbs(g62
g65
tp144
(imorph
Morph
p145
(dp146
g45
(lp147
Vt
aVa
aVa
aV\u014b
aVg
aVa
aVt
asbssg72
(lp148
(imorph
Morph
p149
(dp150
g45
(lp151
Va
asba(imorph
Morph
p152
(dp153
g45
(lp154
Ve
aVr
aVa
asbasbF980.26850700378418
tp155
a(g6
(g7
g8
NtRp156
(dp157
g11
(lp158
(irule
Rule
p159
(dp160
g15
(irule
Guard
p161
(dp162
g18
I00
sg19
(lp163
sg21
I00
sg22
V
sg23
I00
sg24
S'L'
sbsg25
(irule
OffsetSpecification
p164
(dp165
g91
I2
sbsg31
(irule
Guard
p166
(dp167
g18
I00
sg19
(lp168
(irule
FeatureMatrix
p169
(dp170
g28
(lp171
sg22
V[  ]
p172
sba(irule
ConstantPhoneme
p173
(dp174
S'p'
Ve
sbasg21
I00
sg22
V[  ] e
p175
sg23
I00
sg24
S'R'
sbsg35
(irule
ConstantPhoneme
p176
(dp177
S'p'
Vi
sbsg22
Vi ---> 2 /  _ [  ] e
p178
sba(irule
Rule
p179
(dp180
g15
(irule
Guard
p181
(dp182
g18
I00
sg19
(lp183
sg21
I00
sg22
V
sg23
I00
sg24
S'L'
sbsg25
(irule
OffsetSpecification
p184
(dp185
g91
I1
sbsg31
(irule
Guard
p186
(dp187
g18
I00
sg19
(lp188
(irule
ConstantPhoneme
p189
(dp190
S'p'
Vi
sbasg21
I00
sg22
Vi
sg23
I00
sg24
S'R'
sbsg35
(irule
FeatureMatrix
p191
(dp192
g28
(lp193
sg22
V[  ]
p194
sbsg22
V[  ] ---> 1 /  _ i
p195
sbasg41
(lp196
(imorph
Morph
p197
(dp198
g45
(lp199
sba(imorph
Morph
p200
(dp201
g45
(lp202
sbasg50
(dp203
(g52
g55
tp204
(imorph
Morph
p205
(dp206
g45
(lp207
Vs
aVu
aVr
aVa
aVa
aV\u014b
aVg
asbs(g134
g137
tp208
(imorph
Morph
p209
(dp210
g45
(lp211
Vs
aVe
aVi
aVk
asbs(g62
g65
tp212
(imorph
Morph
p213
(dp214
g45
(lp215
Vt
aVa
aVa
aV\u014b
aVg
aVa
aVt
asbs((imorph
Morph
p216
(dp217
g45
(lp218
Vs
aVo
aVo
aVk
aVa
asb(imorph
Morph
p219
(dp220
g45
(lp221
Vs
aVo
aVo
aVk
aVe
aVr
aVa
asbtp222
(imorph
Morph
p223
(dp224
g45
(lp225
Vs
aVo
aVo
aVk
asbssg72
(lp226
(imorph
Morph
p227
(dp228
g45
(lp229
Va
asba(imorph
Morph
p230
(dp231
g45
(lp232
Ve
aVr
aVa
asbasbF2953.6856451034546
tp233
a(g6
(g7
g8
NtRp234
(dp235
g11
(lp236
(irule
Rule
p237
(dp238
g15
(irule
Guard
p239
(dp240
g18
I00
sg19
(lp241
sg21
I00
sg22
V
sg23
I00
sg24
S'L'
sbsg25
(irule
OffsetSpecification
p242
(dp243
g91
I2
sbsg31
(irule
Guard
p244
(dp245
g18
I00
sg19
(lp246
(irule
FeatureMatrix
p247
(dp248
g28
(lp249
sg22
V[  ]
p250
sba(irule
ConstantPhoneme
p251
(dp252
S'p'
Ve
sbasg21
I00
sg22
V[  ] e
p253
sg23
I00
sg24
S'R'
sbsg35
(irule
ConstantPhoneme
p254
(dp255
S'p'
Vi
sbsg22
Vi ---> 2 /  _ [  ] e
p256
sba(irule
Rule
p257
(dp258
g15
(irule
Guard
p259
(dp260
g18
I00
sg19
(lp261
sg21
I00
sg22
V
sg23
I00
sg24
S'L'
sbsg25
(irule
OffsetSpecification
p262
(dp263
g91
I1
sbsg31
(irule
Guard
p264
(dp265
g18
I00
sg19
(lp266
(irule
FeatureMatrix
p267
(dp268
g28
(lp269
sg22
V[  ]
p270
sbasg21
I00
sg22
g270
sg23
I00
sg24
S'R'
sbsg35
(irule
ConstantPhoneme
p271
(dp272
S'p'
Vh
sbsg22
Vh ---> 1 /  _ [  ]
p273
sbasg41
(lp274
(imorph
Morph
p275
(dp276
g45
(lp277
sba(imorph
Morph
p278
(dp279
g45
(lp280
sbasg50
(dp281
(g52
g55
tp282
(imorph
Morph
p283
(dp284
g45
(lp285
Vs
aVu
aVr
aVh
aVa
aV\u014b
aVg
asbs(g134
g137
tp286
(imorph
Morph
p287
(dp288
g45
(lp289
Vs
aVh
aVi
aVk
asbs(g62
g65
tp290
(imorph
Morph
p291
(dp292
g45
(lp293
Vt
aVh
aVa
aV\u014b
aVg
aVa
aVt
asbs((imorph
Morph
p294
(dp295
g45
(lp296
Vt
aVi
aVg
aVa
asb(imorph
Morph
p297
(dp298
g45
(lp299
Vt
aVe
aVg
aVe
aVr
aVa
asbtp300
(imorph
Morph
p301
(dp302
g45
(lp303
Vt
aVi
aVg
asbs(g216
g219
tp304
(imorph
Morph
p305
(dp306
g45
(lp307
Vs
aVo
aVo
aVk
asbssg72
(lp308
(imorph
Morph
p309
(dp310
g45
(lp311
Va
asba(imorph
Morph
p312
(dp313
g45
(lp314
Ve
aVr
aVa
asbasbF4959.5829310417175
tp315
a(g6
(g7
g8
NtRp316
(dp317
g11
(lp318
(irule
Rule
p319
(dp320
g15
(irule
Guard
p321
(dp322
g18
I00
sg19
(lp323
sg21
I00
sg22
V
sg23
I00
sg24
S'L'
sbsg25
(irule
OffsetSpecification
p324
(dp325
g91
I2
sbsg31
(irule
Guard
p326
(dp327
g18
I01
sg19
(lp328
(irule
FeatureMatrix
p329
(dp330
g28
(lp331
sg22
V[  ]
p332
sba(irule
FeatureMatrix
p333
(dp334
g28
(lp335
sg22
V[  ]
p336
sbasg21
I00
sg22
V[  ] [  ] #
p337
sg23
I00
sg24
S'R'
sbsg35
(irule
FeatureMatrix
p338
(dp339
g28
(lp340
sg22
V[  ]
p341
sbsg22
V[  ] ---> 2 /  _ [  ] [  ] #
p342
sba(irule
Rule
p343
(dp344
g15
(irule
Guard
p345
(dp346
g18
I00
sg19
(lp347
sg21
I00
sg22
V
sg23
I00
sg24
S'L'
sbsg25
(irule
ConstantPhoneme
p348
(dp349
S'p'
Va
sbsg31
(irule
Guard
p350
(dp351
g18
I01
sg19
(lp352
sg21
I00
sg22
V#
sg23
I00
sg24
S'R'
sbsg35
(irule
FeatureMatrix
p353
(dp354
g28
(lp355
sg22
V[  ]
p356
sbsg22
V[  ] ---> a /  _ #
p357
sba(irule
Rule
p358
(dp359
g15
(irule
Guard
p360
(dp361
g18
I00
sg19
(lp362
sg21
I00
sg22
V
sg23
I00
sg24
S'L'
sbsg25
(irule
OffsetSpecification
p363
(dp364
g91
I1
sbsg31
(irule
Guard
p365
(dp366
g18
I00
sg19
(lp367
(irule
FeatureMatrix
p368
(dp369
g28
(lp370
sg22
V[  ]
p371
sbasg21
I00
sg22
g371
sg23
I00
sg24
S'R'
sbsg35
(irule
ConstantPhoneme
p372
(dp373
S'p'
Vd
sbsg22
Vd ---> 1 /  _ [  ]
p374
sbasg41
(lp375
(imorph
Morph
p376
(dp377
g45
(lp378
sba(imorph
Morph
p379
(dp380
g45
(lp381
sbasg50
(dp382
((imorph
Morph
p383
(dp384
g45
(lp385
Vr
aVu
aVg
aVa
asb(imorph
Morph
p386
(dp387
g45
(lp388
Vr
aVo
aVg
aVe
aVr
aVa
asbtp389
(imorph
Morph
p390
(dp391
g45
(lp392
Vr
aVo
aVg
aVu
asbs(g216
g219
tp393
(imorph
Morph
p394
(dp395
g45
(lp396
Vs
aVo
aVo
aVk
aVo
asbs(g294
g297
tp397
(imorph
Morph
p398
(dp399
g45
(lp400
Vt
aVe
aVg
aVi
asbs(g62
g65
tp401
(imorph
Morph
p402
(dp403
g45
(lp404
Vt
aVa
aVa
aV\u014b
aVg
aVa
aVt
aVa
asbs(g52
g55
tp405
(imorph
Morph
p406
(dp407
g45
(lp408
Vs
aVu
aVr
aVa
aVa
aV\u014b
aVg
aV\u014b
asbs(g134
g137
tp409
(imorph
Morph
p410
(dp411
g45
(lp412
Vs
aVd
aVe
aVk
aVi
asbssg72
(lp413
(imorph
Morph
p414
(dp415
g45
(lp416
sba(imorph
Morph
p417
(dp418
g45
(lp419
Vr
aVe
asbasbF42622.305912017822
tp420
a(g6
(g7
g8
NtRp421
(dp422
g11
(lp423
(irule
Rule
p424
(dp425
g15
(irule
Guard
p426
(dp427
g18
I00
sg19
(lp428
sg21
I00
sg22
V
sg23
I00
sg24
S'L'
sbsg25
(irule
OffsetSpecification
p429
(dp430
g91
I2
sbsg31
(irule
Guard
p431
(dp432
g18
I00
sg19
(lp433
(irule
FeatureMatrix
p434
(dp435
g28
(lp436
sg22
V[  ]
p437
sba(irule
ConstantPhoneme
p438
(dp439
S'p'
Ve
sbasg21
I00
sg22
V[  ] e
p440
sg23
I00
sg24
S'R'
sbsg35
(irule
ConstantPhoneme
p441
(dp442
S'p'
Vi
sbsg22
Vi ---> 2 /  _ [  ] e
p443
sba(irule
Rule
p444
(dp445
g15
(irule
Guard
p446
(dp447
g18
I00
sg19
(lp448
sg21
I00
sg22
V
sg23
I00
sg24
S'L'
sbsg25
(irule
OffsetSpecification
p449
(dp450
g91
I1
sbsg31
(irule
Guard
p451
(dp452
g18
I00
sg19
(lp453
(irule
FeatureMatrix
p454
(dp455
g28
(lp456
sg22
V[  ]
p457
sbasg21
I00
sg22
g457
sg23
I00
sg24
S'R'
sbsg35
(irule
ConstantPhoneme
p458
(dp459
S'p'
Vb
sbsg22
Vb ---> 1 /  _ [  ]
p460
sba(irule
Rule
p461
(dp462
g15
(irule
Guard
p463
(dp464
g18
I00
sg19
(lp465
sg21
I00
sg22
V
sg23
I00
sg24
S'L'
sbsg25
(irule
ConstantPhoneme
p466
(dp467
S'p'
Vo
sbsg31
(irule
Guard
p468
(dp469
g18
I00
sg19
(lp470
(irule
FeatureMatrix
p471
(dp472
g28
(lp473
sg22
V[  ]
p474
sba(irule
ConstantPhoneme
p475
(dp476
S'p'
Ve
sbasg21
I00
sg22
V[  ] e
p477
sg23
I00
sg24
S'R'
sbsg35
(irule
ConstantPhoneme
p478
(dp479
S'p'
Vu
sbsg22
Vu ---> o /  _ [  ] e
p480
sbasg41
(lp481
(imorph
Morph
p482
(dp483
g45
(lp484
sba(imorph
Morph
p485
(dp486
g45
(lp487
sbasg50
(dp488
((imorph
Morph
(dp489
g45
(lp490
Vr
aVo
aVm
aVa
asb(imorph
Morph
(dp491
g45
(lp492
Vr
aVo
aVm
aVe
aVr
aVa
asbtp493
(imorph
Morph
p494
(dp495
g45
(lp496
Vr
aVo
aVm
asbs(g383
g386
tp497
(imorph
Morph
p498
(dp499
g45
(lp500
Vr
aVu
aVg
asbs(g216
g219
tp501
(imorph
Morph
p502
(dp503
g45
(lp504
Vs
aVo
aVo
aVk
asbs(g294
g297
tp505
(imorph
Morph
p506
(dp507
g45
(lp508
Vt
aVi
aVg
asbs((imorph
Morph
(dp509
g45
(lp510
Vr
aVe
aVm
aVa
asb(imorph
Morph
(dp511
g45
(lp512
Vr
aVe
aVm
aVe
aVr
aVa
asbtp513
(imorph
Morph
p514
(dp515
g45
(lp516
Vr
aVe
aVm
asbs(g62
g65
tp517
(imorph
Morph
p518
(dp519
g45
(lp520
Vt
aVa
aVa
aV\u014b
aVg
aVa
aVt
asbs((imorph
Morph
p521
(dp522
g45
(lp523
Vr
aVe
aVe
aVn
aVd
aVa
asb(imorph
Morph
p524
(dp525
g45
(lp526
Vr
aVe
aVe
aVn
aVd
aVe
aVr
aVa
asbtp527
(imorph
Morph
p528
(dp529
g45
(lp530
Vr
aVb
aVe
aVn
aVd
asbs((imorph
Morph
(dp531
g45
(lp532
Vh
aVo
aVo
aVr
aVa
asb(imorph
Morph
(dp533
g45
(lp534
Vh
aVo
aVo
aVr
aVe
aVr
aVa
asbtp535
(imorph
Morph
p536
(dp537
g45
(lp538
Vh
aVo
aVo
aVr
asbs(g52
g55
tp539
(imorph
Morph
p540
(dp541
g45
(lp542
Vs
aVu
aVr
aVb
aVa
aV\u014b
aVg
asbs((imorph
Morph
(dp543
g45
(lp544
Vt
aVa
aVc\u030c
p545
aVo
aVr
aVa
asb(imorph
Morph
(dp546
g45
(lp547
Vt
aVa
aVc\u030c
p548
aVo
aVr
aVe
aVr
aVa
asbtp549
(imorph
Morph
p550
(dp551
g45
(lp552
Vt
aVa
aVc\u030c
p553
aVo
aVr
asbs((imorph
Morph
(dp554
g45
(lp555
Vs
aVu
aVk
aVa
asb(imorph
Morph
(dp556
g45
(lp557
Vs
aVo
aVk
aVe
aVr
aVa
asbtp558
(imorph
Morph
p559
(dp560
g45
(lp561
Vs
aVu
aVk
asbs(g134
g137
tp562
(imorph
Morph
p563
(dp564
g45
(lp565
Vs
aVb
aVi
aVk
asbssg72
(lp566
(imorph
Morph
p567
(dp568
g45
(lp569
Va
asba(imorph
Morph
p570
(dp571
g45
(lp572
Ve
aVr
aVa
asbasbF74400.934878110886
tp573
asS'problem'
p574
S'Odden_2.2_Kikuria'
p575
sS'finalFrontier'
p576
g6
(csolution
Frontier
p577
g8
NtRp578
(dp579
g41
g481
sg72
g566
sg50
g488
sS'frontiers'
p580
(lp581
(lp582
g424
aa(lp583
g444
aa(lp584
g461
aasbsS'parameters'
p585
g6
(cargparse
Namespace
p586
g8
NtRp587
(dp588
S'restore'
p589
NsS'features'
p590
S'none'
p591
sS'universal'
p592
NsS'restrict'
p593
NsS'seed'
p594
S'0'
sS'serial'
p595
I00
sS'alignment'
p596
I00
sS'top'
p597
I1
sS'maximumDepth'
p598
I3
sS'window'
p599
NsS'minimizeBits'
p600
I5
sS'samples'
p601
I30
sS'save'
p602
NsS'resume'
p603
I00
sS'disableClean'
p604
I01
sS'stemBaseline'
p605
I30
sS'dummy'
p606
I00
sS'task'
p607
S'CEGIS'
p608
sS'geometry'
p609
NsS'verbosity'
p610
I0
sS'timeout'
p611
F24
sS'debug'
p612
NsS'cores'
p613
I64
sg574
S'Odden_2.2_Kikuria'
p614
sS'mergeFrontiers'
p615
I00
sbsb.