(iresult
Result
p1
(dp2
S'startTime'
p3
F1591191698.85251
sS'solutionSequence'
p4
(lp5
(ccopy_reg
_reconstructor
p6
(csolution
Solution
p7
c__builtin__
object
p8
NtRp9
(dp10
S'rules'
p11
(lp12
(irule
Rule
p13
(dp14
S'leftTriggers'
p15
(irule
Guard
p16
(dp17
S'endOfString'
p18
I00
sS'specifications'
p19
(lp20
sS'optionalEnding'
p21
I00
sS'representation'
p22
V
sS'starred'
p23
I00
sS'side'
p24
S'L'
sbsS'structuralChange'
p25
(irule
OffsetSpecification
p26
(dp27
S'offset'
p28
I2
sbsS'rightTriggers'
p29
(irule
Guard
p30
(dp31
g18
I00
sg19
(lp32
(irule
ConstantPhoneme
p33
(dp34
S'p'
V\u0268
sba(irule
FeatureMatrix
p35
(dp36
S'featuresAndPolarities'
p37
(lp38
sg22
V[  ]
p39
sbasg21
I00
sg22
V\u0268 [  ]
p40
sg23
I00
sg24
S'R'
sbsS'focus'
p41
(irule
FeatureMatrix
p42
(dp43
g37
(lp44
sg22
V[  ]
p45
sbsg22
V[  ] ---> 2 /  _ \u0268 [  ]
p46
sbasS'prefixes'
p47
(lp48
(imorph
Morph
p49
(dp50
S'phonemes'
p51
(lp52
sba(imorph
Morph
p53
(dp54
g51
(lp55
sbasS'underlyingForms'
p56
(dp57
((imorph
Morph
p58
(dp59
g51
(lp60
Vs
aVi
aVn
aV\u0259
asb(imorph
Morph
p61
(dp62
g51
(lp63
Vs
aVi
aVn
aVn
aV\u0268
aVn
aVt
aVa
asbtp64
(imorph
Morph
p65
(dp66
g51
(lp67
Vs
aVi
aVn
aV\u0259
asbs((imorph
Morph
p68
(dp69
g51
(lp70
Vk
aVa
aVm
aVa
asb(imorph
Morph
p71
(dp72
g51
(lp73
Vk
aVa
aVm
aVn
aV\u0268
aVn
aVt
aVa
asbtp74
(imorph
Morph
p75
(dp76
g51
(lp77
Vk
aVa
aVm
aVa
asbs((imorph
Morph
p78
(dp79
g51
(lp80
Va
aVn
aVa
asb(imorph
Morph
p81
(dp82
g51
(lp83
Va
aVn
aVn
aV\u0268
aVn
aVt
aVa
asbtp84
(imorph
Morph
p85
(dp86
g51
(lp87
Va
aVn
aVa
asbssS'suffixes'
p88
(lp89
(imorph
Morph
p90
(dp91
g51
(lp92
sba(imorph
Morph
p93
(dp94
g51
(lp95
V\u0268
aVn
aVt
aVa
asbasbF23.779873132705688
tp96
a(g6
(g7
g8
NtRp97
(dp98
g11
(lp99
(irule
Rule
p100
(dp101
g15
(irule
Guard
p102
(dp103
g18
I00
sg19
(lp104
(irule
FeatureMatrix
p105
(dp106
g37
(lp107
sg22
V[  ]
p108
sba(irule
ConstantPhoneme
p109
(dp110
S'p'
Va
sbasg21
I00
sg22
Va [  ]
p111
sg23
I00
sg24
S'L'
sbsg25
(irule
OffsetSpecification
p112
(dp113
g28
I-2
sbsg29
(irule
Guard
p114
(dp115
g18
I01
sg19
(lp116
sg21
I00
sg22
V#
sg23
I00
sg24
S'R'
sbsg41
(irule
FeatureMatrix
p117
(dp118
g37
(lp119
sg22
V[  ]
p120
sbsg22
V[  ] ---> -2 / a [  ] _ #
p121
sbasg47
(lp122
(imorph
Morph
p123
(dp124
g51
(lp125
sba(imorph
Morph
p126
(dp127
g51
(lp128
sbasg56
(dp129
(g58
g61
tp130
(imorph
Morph
p131
(dp132
g51
(lp133
Vs
aVi
aVn
asbs(g68
g71
tp134
(imorph
Morph
p135
(dp136
g51
(lp137
Vk
aVa
aVm
asbs((imorph
Morph
p138
(dp139
g51
(lp140
Vt\u031a
p141
aVa
aVt
aV\u0268
aVm
aV\u0259
asb(imorph
Morph
p142
(dp143
g51
(lp144
Vt\u031a
p145
aVa
aVt
aV\u0268
aVm
aVn
aV\u0268
aVn
aVt
aVa
asbtp146
(imorph
Morph
p147
(dp148
g51
(lp149
Vt\u031a
p150
aVa
aVt
aV\u0268
aVm
asbs(g78
g81
tp151
(imorph
Morph
p152
(dp153
g51
(lp154
Va
aVn
asbssg88
(lp155
(imorph
Morph
p156
(dp157
g51
(lp158
V\u0259
asba(imorph
Morph
p159
(dp160
g51
(lp161
Vn
aV\u0268
aVn
aVt
aVa
asbasbF58.124865055084229
tp162
a(g6
(g7
g8
NtRp163
(dp164
g11
(lp165
(irule
Rule
p166
(dp167
g15
(irule
Guard
p168
(dp169
g18
I00
sg19
(lp170
(irule
FeatureMatrix
p171
(dp172
g37
(lp173
sg22
V[  ]
p174
sba(irule
ConstantPhoneme
p175
(dp176
S'p'
Va
sbasg21
I00
sg22
Va [  ]
p177
sg23
I00
sg24
S'L'
sbsg25
(irule
OffsetSpecification
p178
(dp179
g28
I-2
sbsg29
(irule
Guard
p180
(dp181
g18
I01
sg19
(lp182
sg21
I00
sg22
V#
sg23
I00
sg24
S'R'
sbsg41
(irule
FeatureMatrix
p183
(dp184
g37
(lp185
sg22
V[  ]
p186
sbsg22
V[  ] ---> -2 / a [  ] _ #
p187
sba(irule
Rule
p188
(dp189
g15
(irule
Guard
p190
(dp191
g18
I00
sg19
(lp192
sg21
I00
sg22
V
sg23
I00
sg24
S'L'
sbsg25
(irule
ConstantPhoneme
p193
(dp194
S'p'
Vm
sbsg29
(irule
Guard
p195
(dp196
g18
I00
sg19
(lp197
(irule
ConstantPhoneme
p198
(dp199
S'p'
Vn
sbasg21
I00
sg22
Vn
sg23
I00
sg24
S'R'
sbsg41
(irule
ConstantPhoneme
p200
(dp201
S'p'
Vp
sbsg22
Vp ---> m /  _ n
p202
sbasg47
(lp203
(imorph
Morph
p204
(dp205
g51
(lp206
sba(imorph
Morph
p207
(dp208
g51
(lp209
sbasg56
(dp210
(g58
g61
tp211
(imorph
Morph
p212
(dp213
g51
(lp214
Vs
aVi
aVn
asbs((imorph
Morph
p215
(dp216
g51
(lp217
Vi
aVp
aV\u0259
asb(imorph
Morph
p218
(dp219
g51
(lp220
Vi
aVm
aVn
aV\u0268
aVn
aVt
aVa
asbtp221
(imorph
Morph
p222
(dp223
g51
(lp224
Vi
aVp
asbs(g68
g71
tp225
(imorph
Morph
p226
(dp227
g51
(lp228
Vk
aVa
aVm
asbs(g138
g142
tp229
(imorph
Morph
p230
(dp231
g51
(lp232
g150
aVa
aVt
aV\u0268
aVm
asbs(g78
g81
tp233
(imorph
Morph
p234
(dp235
g51
(lp236
Va
aVn
asbssg88
(lp237
(imorph
Morph
p238
(dp239
g51
(lp240
V\u0259
asba(imorph
Morph
p241
(dp242
g51
(lp243
Vn
aV\u0268
aVn
aVt
aVa
asbasbF603.96016502380371
tp244
a(g6
(g7
g8
NtRp245
(dp246
g11
(lp247
(irule
Rule
p248
(dp249
g15
(irule
Guard
p250
(dp251
g18
I00
sg19
(lp252
sg21
I00
sg22
V
sg23
I00
sg24
S'L'
sbsg25
(irule
ConstantPhoneme
p253
(dp254
S'p'
Vm
sbsg29
(irule
Guard
p255
(dp256
g18
I00
sg19
(lp257
(irule
FeatureMatrix
p258
(dp259
g37
(lp260
sg22
V[  ]
p261
sba(irule
FeatureMatrix
p262
(dp263
g37
(lp264
sg22
V[  ]
p265
sbasg21
I00
sg22
V[  ] [  ]
p266
sg23
I00
sg24
S'R'
sbsg41
(irule
ConstantPhoneme
p267
(dp268
S'p'
Vp
sbsg22
Vp ---> m /  _ [  ] [  ]
p269
sba(irule
Rule
p270
(dp271
g15
(irule
Guard
p272
(dp273
g18
I00
sg19
(lp274
sg21
I00
sg22
V
sg23
I00
sg24
S'L'
sbsg25
(irule
OffsetSpecification
p275
(dp276
g28
I1
sbsg29
(irule
Guard
p277
(dp278
g18
I00
sg19
(lp279
(irule
ConstantPhoneme
p280
(dp281
S'p'
Vn
sbasg21
I00
sg22
Vn
sg23
I00
sg24
S'R'
sbsg41
(irule
ConstantPhoneme
p282
(dp283
S'p'
Vt
sbsg22
Vt ---> 1 /  _ n
p284
sba(irule
Rule
p285
(dp286
g15
(irule
Guard
p287
(dp288
g18
I00
sg19
(lp289
(irule
FeatureMatrix
p290
(dp291
g37
(lp292
sg22
V[  ]
p293
sba(irule
ConstantPhoneme
p294
(dp295
S'p'
Va
sbasg21
I00
sg22
Va [  ]
p296
sg23
I00
sg24
S'L'
sbsg25
(irule
OffsetSpecification
p297
(dp298
g28
I-2
sbsg29
(irule
Guard
p299
(dp300
g18
I00
sg19
(lp301
sg21
I00
sg22
V
sg23
I00
sg24
S'R'
sbsg41
(irule
ConstantPhoneme
p302
(dp303
S'p'
V\u0259
sbsg22
V\u0259 ---> -2 / a [  ] _ 
p304
sbasg47
(lp305
(imorph
Morph
p306
(dp307
g51
(lp308
sba(imorph
Morph
p309
(dp310
g51
(lp311
sbasg56
(dp312
((imorph
Morph
p313
(dp314
g51
(lp315
Vt
aVa
aVt
aVa
asb(imorph
Morph
p316
(dp317
g51
(lp318
Vt
aVa
aVn
aVn
aV\u0268
aVn
aVt
aVa
asbtp319
(imorph
Morph
p320
(dp321
g51
(lp322
Vt
aVa
aVt
asbs(g215
g218
tp323
(imorph
Morph
p324
(dp325
g51
(lp326
Vi
aVp
asbs(g68
g71
tp327
(imorph
Morph
p328
(dp329
g51
(lp330
Vk
aVa
aVm
asbs(g78
g81
tp331
(imorph
Morph
p332
(dp333
g51
(lp334
Va
aVn
asbs((imorph
Morph
(dp335
g51
(lp336
Vn
aV\u0259
aVm
aV\u0259
asb(imorph
Morph
(dp337
g51
(lp338
Vn
aV\u0259
aVm
aVn
aV\u0268
aVn
aVt
aVa
asbtp339
(imorph
Morph
p340
(dp341
g51
(lp342
Vn
aV\u0259
aVm
asbs((imorph
Morph
(dp343
g51
(lp344
Vc\u030c
p345
aV\u0259
aVp
aV\u0259
asb(imorph
Morph
(dp346
g51
(lp347
Vc\u030c
p348
aV\u0259
aVm
aVn
aV\u0268
aVn
aVt
aVa
asbtp349
(imorph
Morph
p350
(dp351
g51
(lp352
Vc\u030c
p353
aV\u0259
aVp
asbs((imorph
Morph
(dp354
g51
(lp355
Vn
aVa
aVm
aVa
asb(imorph
Morph
(dp356
g51
(lp357
Vn
aVa
aVm
aVn
aV\u0268
aVn
aVt
aVa
asbtp358
(imorph
Morph
p359
(dp360
g51
(lp361
Vn
aVa
aVm
asbs(g138
g142
tp362
(imorph
Morph
p363
(dp364
g51
(lp365
g150
aVa
aVt
aV\u0268
aVm
asbs((imorph
Morph
(dp366
g51
(lp367
Vc\u030c^h
p368
aVa
aVm
aVa
asb(imorph
Morph
(dp369
g51
(lp370
Vc\u030c^h
p371
aVa
aVm
aVn
aV\u0268
aVn
aVt
aVa
asbtp372
(imorph
Morph
p373
(dp374
g51
(lp375
Vc\u030c^h
p376
aVa
aVm
asbs(g58
g61
tp377
(imorph
Morph
p378
(dp379
g51
(lp380
Vs
aVi
aVn
asbs((imorph
Morph
(dp381
g51
(lp382
Vk
aVu
aVp
aV\u0259
asb(imorph
Morph
(dp383
g51
(lp384
Vk
aVu
aVm
aVn
aV\u0268
aVn
aVt
aVa
asbtp385
(imorph
Morph
p386
(dp387
g51
(lp388
Vk
aVu
aVp
asbssg88
(lp389
(imorph
Morph
p390
(dp391
g51
(lp392
V\u0259
asba(imorph
Morph
p393
(dp394
g51
(lp395
Vn
aV\u0268
aVn
aVt
aVa
asbasbF18716.014158010483
tp396
asS'problem'
p397
S'Odden_81_Korean'
p398
sS'finalFrontier'
p399
g6
(csolution
Frontier
p400
g8
NtRp401
(dp402
g47
g305
sg88
g389
sg56
g312
sS'frontiers'
p403
(lp404
(lp405
g248
aa(lp406
g270
aa(lp407
g285
aasbsS'parameters'
p408
g6
(cargparse
Namespace
p409
g8
NtRp410
(dp411
S'restore'
p412
NsS'features'
p413
S'none'
p414
sS'universal'
p415
NsS'restrict'
p416
NsS'seed'
p417
NsS'serial'
p418
I00
sS'cv'
p419
I00
sS'alignment'
p420
I00
sS'top'
p421
I1
sS'maximumDepth'
p422
I3
sS'window'
p423
NsS'minimizeBits'
p424
I5
sS'samples'
p425
I30
sS'save'
p426
NsS'resume'
p427
I00
sS'disableClean'
p428
I01
sS'stemBaseline'
p429
I30
sS'dummy'
p430
I00
sS'task'
p431
S'CEGIS'
p432
sS'geometry'
p433
NsS'verbosity'
p434
I0
sS'noConstant'
p435
I00
sS'timeout'
p436
F24
sS'debug'
p437
NsS'cores'
p438
I40
sg397
S'Odden_81_Korean'
p439
sS'mergeFrontiers'
p440
I00
sbsb.