(iresult
Result
p1
(dp2
S'startTime'
p3
F1580504405.3143671
sS'solutionSequence'
p4
(lp5
(ccopy_reg
_reconstructor
p6
(csolution
Solution
p7
c__builtin__
object
p8
NtRp9
(dp10
S'rules'
p11
(lp12
(irule
Rule
p13
(dp14
S'leftTriggers'
p15
(irule
Guard
p16
(dp17
S'endOfString'
p18
I00
sS'specifications'
p19
(lp20
sS'optionalEnding'
p21
I00
sS'representation'
p22
V
sS'starred'
p23
I00
sS'side'
p24
S'L'
sbsS'structuralChange'
p25
(irule
FeatureMatrix
p26
(dp27
S'featuresAndPolarities'
p28
(lp29
sg22
V[  ]
p30
sbsS'rightTriggers'
p31
(irule
Guard
p32
(dp33
g18
I00
sg19
(lp34
sg21
I00
sg22
V
sg23
I00
sg24
S'R'
sbsS'focus'
p35
(irule
FeatureMatrix
p36
(dp37
g28
(lp38
sg22
V[  ]
p39
sbsg22
V[  ] ---> [  ] /  _ 
p40
sbasS'prefixes'
p41
(lp42
(imorph
Morph
p43
(dp44
S'phonemes'
p45
(lp46
sba(imorph
Morph
p47
(dp48
g45
(lp49
sbasS'underlyingForms'
p50
(dp51
((imorph
Morph
(dp52
g45
(lp53
Vr
aVo
aVm
aVa
asb(imorph
Morph
(dp54
g45
(lp55
Vr
aVo
aVm
aVe
aVr
aVa
asbtp56
(imorph
Morph
p57
(dp58
g45
(lp59
Vr
aVo
aVm
asbs((imorph
Morph
(dp60
g45
(lp61
Vs
aVo
aVo
aVk
aVa
asb(imorph
Morph
(dp62
g45
(lp63
Vs
aVo
aVo
aVk
aVe
aVr
aVa
asbtp64
(imorph
Morph
p65
(dp66
g45
(lp67
Vs
aVo
aVo
aVk
asbs((imorph
Morph
p68
(dp69
g45
(lp70
Vt
aVa
aVa
aV\u014b
aVg
aVa
aVt
aVa
asb(imorph
Morph
p71
(dp72
g45
(lp73
Vt
aVa
aVa
aV\u014b
aVg
aVa
aVt
aVe
aVr
aVa
asbtp74
(imorph
Morph
p75
(dp76
g45
(lp77
Vt
aVa
aVa
aV\u014b
aVg
aVa
aVt
asbs((imorph
Morph
(dp78
g45
(lp79
Vr
aVe
aVm
aVa
asb(imorph
Morph
(dp80
g45
(lp81
Vr
aVe
aVm
aVe
aVr
aVa
asbtp82
(imorph
Morph
p83
(dp84
g45
(lp85
Vr
aVe
aVm
asbs((imorph
Morph
(dp86
g45
(lp87
Vr
aVe
aVe
aVn
aVd
aVa
asb(imorph
Morph
(dp88
g45
(lp89
Vr
aVe
aVe
aVn
aVd
aVe
aVr
aVa
asbtp90
(imorph
Morph
p91
(dp92
g45
(lp93
Vr
aVe
aVe
aVn
aVd
asbs((imorph
Morph
p94
(dp95
g45
(lp96
Vb
aVa
aVa
aVm
aVb
aVa
asb(imorph
Morph
p97
(dp98
g45
(lp99
Vb
aVa
aVa
aVm
aVb
aVe
aVr
aVa
asbtp100
(imorph
Morph
p101
(dp102
g45
(lp103
Vb
aVa
aVa
aVm
aVb
asbs((imorph
Morph
(dp104
g45
(lp105
Vh
aVo
aVo
aVr
aVa
asb(imorph
Morph
(dp106
g45
(lp107
Vh
aVo
aVo
aVr
aVe
aVr
aVa
asbtp108
(imorph
Morph
p109
(dp110
g45
(lp111
Vh
aVo
aVo
aVr
asbs((imorph
Morph
p112
(dp113
g45
(lp114
Vs
aVu
aVr
aVa
aVa
aV\u014b
aVg
aVa
asb(imorph
Morph
p115
(dp116
g45
(lp117
Vs
aVu
aVr
aVa
aVa
aV\u014b
aVg
aVe
aVr
aVa
asbtp118
(imorph
Morph
p119
(dp120
g45
(lp121
Vs
aVu
aVr
aVa
aVa
aV\u014b
aVg
asbs((imorph
Morph
(dp122
g45
(lp123
Vt
aVa
aVc\u030c
p124
aVo
aVr
aVa
asb(imorph
Morph
(dp125
g45
(lp126
Vt
aVa
aVc\u030c
p127
aVo
aVr
aVe
aVr
aVa
asbtp128
(imorph
Morph
p129
(dp130
g45
(lp131
Vt
aVa
aVc\u030c
p132
aVo
aVr
asbssS'suffixes'
p133
(lp134
(imorph
Morph
p135
(dp136
g45
(lp137
Va
asba(imorph
Morph
p138
(dp139
g45
(lp140
Ve
aVr
aVa
asbasbF8.0500450134277344
tp141
a(g6
(g7
g8
NtRp142
(dp143
g11
(lp144
(irule
Rule
p145
(dp146
g15
(irule
Guard
p147
(dp148
g18
I00
sg19
(lp149
sg21
I00
sg22
V
sg23
I00
sg24
S'L'
sbsg25
(irule
FeatureMatrix
p150
(dp151
g28
(lp152
(I00
S'high'
tp153
asg22
V[ -high ]
p154
sbsg31
(irule
Guard
p155
(dp156
g18
I00
sg19
(lp157
(irule
FeatureMatrix
p158
(dp159
g28
(lp160
(I00
S'nasal'
tp161
asg22
V[ -nasal ]
p162
sba(irule
ConstantPhoneme
p163
(dp164
S'p'
Ve
sbasg21
I00
sg22
V[ -nasal ]* e
p165
sg23
I01
sg24
S'R'
sbsg35
(irule
FeatureMatrix
p166
(dp167
g28
(lp168
(I01
S'continuant'
tp169
asg22
V[ +continuant ]
p170
sbsg22
V[ +continuant ] ---> [ -high ] /  _ [ -nasal ]* e
p171
sbasg41
(lp172
(imorph
Morph
p173
(dp174
g45
(lp175
sba(imorph
Morph
p176
(dp177
g45
(lp178
sbasg50
(dp179
((imorph
Morph
(dp180
g45
(lp181
Vr
aVo
aVm
aVa
asb(imorph
Morph
(dp182
g45
(lp183
Vr
aVo
aVm
aVe
aVr
aVa
asbtp184
(imorph
Morph
p185
(dp186
g45
(lp187
Vr
aVo
aVm
asbs((imorph
Morph
(dp188
g45
(lp189
Vr
aVu
aVg
aVa
asb(imorph
Morph
(dp190
g45
(lp191
Vr
aVo
aVg
aVe
aVr
aVa
asbtp192
(imorph
Morph
p193
(dp194
g45
(lp195
Vr
aVu
aVg
asbs((imorph
Morph
(dp196
g45
(lp197
Vs
aVo
aVo
aVk
aVa
asb(imorph
Morph
(dp198
g45
(lp199
Vs
aVo
aVo
aVk
aVe
aVr
aVa
asbtp200
(imorph
Morph
p201
(dp202
g45
(lp203
Vs
aVo
aVo
aVk
asbs((imorph
Morph
(dp204
g45
(lp205
Vh
aVu
aVu
aVt
aVa
asb(imorph
Morph
(dp206
g45
(lp207
Vh
aVo
aVo
aVt
aVe
aVr
aVa
asbtp208
(imorph
Morph
p209
(dp210
g45
(lp211
Vh
aVu
aVu
aVt
asbs((imorph
Morph
(dp212
g45
(lp213
Vt
aVi
aVg
aVa
asb(imorph
Morph
(dp214
g45
(lp215
Vt
aVe
aVg
aVe
aVr
aVa
asbtp216
(imorph
Morph
p217
(dp218
g45
(lp219
Vt
aVi
aVg
asbs((imorph
Morph
(dp220
g45
(lp221
Vt
aVa
aVa
aV\u014b
aVg
aVa
aVt
aVa
asb(imorph
Morph
(dp222
g45
(lp223
Vt
aVa
aVa
aV\u014b
aVg
aVa
aVt
aVe
aVr
aVa
asbtp224
(imorph
Morph
p225
(dp226
g45
(lp227
Vt
aVa
aVa
aV\u014b
aVg
aVa
aVt
asbs((imorph
Morph
(dp228
g45
(lp229
Vr
aVe
aVm
aVa
asb(imorph
Morph
(dp230
g45
(lp231
Vr
aVe
aVm
aVe
aVr
aVa
asbtp232
(imorph
Morph
p233
(dp234
g45
(lp235
Vr
aVe
aVm
asbs((imorph
Morph
(dp236
g45
(lp237
Vr
aVe
aVe
aVn
aVd
aVa
asb(imorph
Morph
(dp238
g45
(lp239
Vr
aVe
aVe
aVn
aVd
aVe
aVr
aVa
asbtp240
(imorph
Morph
p241
(dp242
g45
(lp243
Vr
aVi
aVe
aVn
aVd
asbs((imorph
Morph
(dp244
g45
(lp245
Vb
aVa
aVa
aVm
aVb
aVa
asb(imorph
Morph
(dp246
g45
(lp247
Vb
aVa
aVa
aVm
aVb
aVe
aVr
aVa
asbtp248
(imorph
Morph
p249
(dp250
g45
(lp251
Vb
aVa
aVa
aVm
aVb
asbs((imorph
Morph
(dp252
g45
(lp253
Vh
aVo
aVo
aVr
aVa
asb(imorph
Morph
(dp254
g45
(lp255
Vh
aVo
aVo
aVr
aVe
aVr
aVa
asbtp256
(imorph
Morph
p257
(dp258
g45
(lp259
Vh
aVo
aVo
aVr
asbs((imorph
Morph
(dp260
g45
(lp261
Vs
aVu
aVr
aVa
aVa
aV\u014b
aVg
aVa
asb(imorph
Morph
(dp262
g45
(lp263
Vs
aVu
aVr
aVa
aVa
aV\u014b
aVg
aVe
aVr
aVa
asbtp264
(imorph
Morph
p265
(dp266
g45
(lp267
Vs
aVu
aVr
aVa
aVa
aV\u014b
aVg
asbs((imorph
Morph
(dp268
g45
(lp269
Vt
aVa
aVc\u030c
p270
aVo
aVr
aVa
asb(imorph
Morph
(dp271
g45
(lp272
Vt
aVa
aVc\u030c
p273
aVo
aVr
aVe
aVr
aVa
asbtp274
(imorph
Morph
p275
(dp276
g45
(lp277
Vt
aVa
aVc\u030c
p278
aVo
aVr
asbs((imorph
Morph
(dp279
g45
(lp280
Vs
aVu
aVk
aVa
asb(imorph
Morph
(dp281
g45
(lp282
Vs
aVo
aVk
aVe
aVr
aVa
asbtp283
(imorph
Morph
p284
(dp285
g45
(lp286
Vs
aVu
aVk
asbs((imorph
Morph
(dp287
g45
(lp288
Vs
aVi
aVi
aVk
aVa
asb(imorph
Morph
(dp289
g45
(lp290
Vs
aVe
aVe
aVk
aVe
aVr
aVa
asbtp291
(imorph
Morph
p292
(dp293
g45
(lp294
Vs
aVi
aVi
aVk
asbssg133
(lp295
(imorph
Morph
p296
(dp297
g45
(lp298
Va
asba(imorph
Morph
p299
(dp300
g45
(lp301
Ve
aVr
aVa
asbasbF1300.2722799777985
tp302
a(g6
(g7
g8
NtRp303
(dp304
g11
(lp305
(irule
Rule
p306
(dp307
g15
(irule
Guard
p308
(dp309
g18
I00
sg19
(lp310
sg21
I00
sg22
V
sg23
I00
sg24
S'L'
sbsg25
(irule
FeatureMatrix
p311
(dp312
g28
(lp313
(I00
S'high'
tp314
asg22
V[ -high ]
p315
sbsg31
(irule
Guard
p316
(dp317
g18
I00
sg19
(lp318
(irule
FeatureMatrix
p319
(dp320
g28
(lp321
(I00
S'liquid'
tp322
asg22
V[ -liquid ]
p323
sba(irule
ConstantPhoneme
p324
(dp325
S'p'
Ve
sbasg21
I00
sg22
V[ -liquid ]* e
p326
sg23
I01
sg24
S'R'
sbsg35
(irule
FeatureMatrix
p327
(dp328
g28
(lp329
(I01
S'tense'
tp330
asg22
V[ +tense ]
p331
sbsg22
V[ +tense ] ---> [ -high ] /  _ [ -liquid ]* e
p332
sbasg41
(lp333
(imorph
Morph
p334
(dp335
g45
(lp336
sba(imorph
Morph
p337
(dp338
g45
(lp339
sbasg50
(dp340
((imorph
Morph
(dp341
g45
(lp342
Vr
aVe
aVe
aVn
aVd
aVa
asb(imorph
Morph
(dp343
g45
(lp344
Vr
aVe
aVe
aVn
aVd
aVe
aVr
aVa
asbtp345
(imorph
Morph
p346
(dp347
g45
(lp348
Vr
aVi
aVe
aVn
aVd
asbs((imorph
Morph
(dp349
g45
(lp350
Vr
aVu
aVg
aVa
asb(imorph
Morph
(dp351
g45
(lp352
Vr
aVo
aVg
aVe
aVr
aVa
asbtp353
(imorph
Morph
p354
(dp355
g45
(lp356
Vr
aVu
aVg
asbs((imorph
Morph
(dp357
g45
(lp358
Vs
aVo
aVo
aVk
aVa
asb(imorph
Morph
(dp359
g45
(lp360
Vs
aVo
aVo
aVk
aVe
aVr
aVa
asbtp361
(imorph
Morph
p362
(dp363
g45
(lp364
Vs
aVo
aVo
aVk
asbs((imorph
Morph
(dp365
g45
(lp366
Vs
aVu
aVr
aVa
aVa
aV\u014b
aVg
aVa
asb(imorph
Morph
(dp367
g45
(lp368
Vs
aVu
aVr
aVa
aVa
aV\u014b
aVg
aVe
aVr
aVa
asbtp369
(imorph
Morph
p370
(dp371
g45
(lp372
Vs
aVu
aVr
aVa
aVa
aV\u014b
aVg
asbs((imorph
Morph
(dp373
g45
(lp374
Vh
aVu
aVu
aVt
aVa
asb(imorph
Morph
(dp375
g45
(lp376
Vh
aVo
aVo
aVt
aVe
aVr
aVa
asbtp377
(imorph
Morph
p378
(dp379
g45
(lp380
Vh
aVu
aVu
aVt
asbs((imorph
Morph
(dp381
g45
(lp382
Vt
aVi
aVg
aVa
asb(imorph
Morph
(dp383
g45
(lp384
Vt
aVe
aVg
aVe
aVr
aVa
asbtp385
(imorph
Morph
p386
(dp387
g45
(lp388
Vt
aVi
aVg
asbs((imorph
Morph
(dp389
g45
(lp390
Vt
aVa
aVa
aV\u014b
aVg
aVa
aVt
aVa
asb(imorph
Morph
(dp391
g45
(lp392
Vt
aVa
aVa
aV\u014b
aVg
aVa
aVt
aVe
aVr
aVa
asbtp393
(imorph
Morph
p394
(dp395
g45
(lp396
Vt
aVa
aVa
aV\u014b
aVg
aVa
aVt
asbs((imorph
Morph
(dp397
g45
(lp398
Vr
aVe
aVm
aVa
asb(imorph
Morph
(dp399
g45
(lp400
Vr
aVe
aVm
aVe
aVr
aVa
asbtp401
(imorph
Morph
p402
(dp403
g45
(lp404
Vr
aVe
aVm
asbs((imorph
Morph
(dp405
g45
(lp406
Vr
aVo
aVm
aVa
asb(imorph
Morph
(dp407
g45
(lp408
Vr
aVo
aVm
aVe
aVr
aVa
asbtp409
(imorph
Morph
p410
(dp411
g45
(lp412
Vr
aVo
aVm
asbs((imorph
Morph
(dp413
g45
(lp414
Vs
aVi
aVi
aVn
aVd
aVa
asb(imorph
Morph
(dp415
g45
(lp416
Vs
aVe
aVe
aVn
aVd
aVe
aVr
aVa
asbtp417
(imorph
Morph
p418
(dp419
g45
(lp420
Vs
aVi
aVi
aVn
aVd
asbs((imorph
Morph
(dp421
g45
(lp422
Vr
aVi
aVi
aV\u014b
aVg
aVa
asb(imorph
Morph
(dp423
g45
(lp424
Vr
aVe
aVe
aV\u014b
aVg
aVe
aVr
aVa
asbtp425
(imorph
Morph
p426
(dp427
g45
(lp428
Vr
aVi
aVi
aV\u014b
aVg
asbs((imorph
Morph
(dp429
g45
(lp430
Vb
aVa
aVa
aVm
aVb
aVa
asb(imorph
Morph
(dp431
g45
(lp432
Vb
aVa
aVa
aVm
aVb
aVe
aVr
aVa
asbtp433
(imorph
Morph
p434
(dp435
g45
(lp436
Vb
aVa
aVa
aVm
aVb
asbs((imorph
Morph
(dp437
g45
(lp438
Vt
aVa
aVc\u030c
p439
aVo
aVr
aVa
asb(imorph
Morph
(dp440
g45
(lp441
Vt
aVa
aVc\u030c
p442
aVo
aVr
aVe
aVr
aVa
asbtp443
(imorph
Morph
p444
(dp445
g45
(lp446
Vt
aVa
aVc\u030c
p447
aVo
aVr
asbs((imorph
Morph
(dp448
g45
(lp449
Vs
aVu
aVk
aVa
asb(imorph
Morph
(dp450
g45
(lp451
Vs
aVo
aVk
aVe
aVr
aVa
asbtp452
(imorph
Morph
p453
(dp454
g45
(lp455
Vs
aVu
aVk
asbs((imorph
Morph
(dp456
g45
(lp457
Vs
aVi
aVi
aVk
aVa
asb(imorph
Morph
(dp458
g45
(lp459
Vs
aVe
aVe
aVk
aVe
aVr
aVa
asbtp460
(imorph
Morph
p461
(dp462
g45
(lp463
Vs
aVi
aVi
aVk
asbs((imorph
Morph
(dp464
g45
(lp465
Vh
aVo
aVo
aVr
aVa
asb(imorph
Morph
(dp466
g45
(lp467
Vh
aVo
aVo
aVr
aVe
aVr
aVa
asbtp468
(imorph
Morph
p469
(dp470
g45
(lp471
Vh
aVo
aVo
aVr
asbssg133
(lp472
(imorph
Morph
p473
(dp474
g45
(lp475
Va
asba(imorph
Morph
p476
(dp477
g45
(lp478
Ve
aVr
aVa
asbasbF3582.16477394104
tp479
asS'problem'
p480
S'Odden_2.2_Kikuria'
p481
sS'finalFrontier'
p482
g6
(csolution
Frontier
p483
g8
NtRp484
(dp485
g41
g333
sg133
g472
sg50
g340
sS'frontiers'
p486
(lp487
(lp488
(irule
Rule
p489
(dp490
g15
(irule
Guard
p491
(dp492
g18
I00
sg19
(lp493
sg21
I00
sg22
V
sg23
I00
sg24
S'L'
sbsg25
(irule
FeatureMatrix
p494
(dp495
g28
(lp496
(I00
S'high'
tp497
asg22
V[ -high ]
p498
sbsg31
(irule
Guard
p499
(dp500
g18
I00
sg19
(lp501
(irule
FeatureMatrix
p502
(dp503
g28
(lp504
(I00
S'liquid'
tp505
asg22
V[ -liquid ]
p506
sba(irule
ConstantPhoneme
p507
(dp508
S'p'
Ve
sbasg21
I00
sg22
V[ -liquid ]* e
p509
sg23
I01
sg24
S'R'
sbsg35
(irule
FeatureMatrix
p510
(dp511
g28
(lp512
(I01
S'tense'
tp513
asg22
V[ +tense ]
p514
sbsg22
V[ +tense ] ---> [ -high ] /  _ [ -liquid ]* e
p515
sba(irule
Rule
p516
(dp517
g15
(irule
Guard
p518
(dp519
g18
I00
sg19
(lp520
sg21
I00
sg22
V
sg23
I00
sg24
S'L'
sbsg25
(irule
FeatureMatrix
p521
(dp522
g28
(lp523
(I00
S'high'
p524
tp525
asg22
V[ -high ]
p526
sbsg31
(irule
Guard
p527
(dp528
g18
I00
sg19
(lp529
(irule
FeatureMatrix
p530
(dp531
g28
(lp532
(I00
S'low'
p533
tp534
asg22
V[ -low ]
p535
sba(irule
ConstantPhoneme
p536
(dp537
S'p'
Ve
sbasg21
I00
sg22
V[ -low ]* e
p538
sg23
I01
sg24
S'R'
sbsg35
(irule
FeatureMatrix
p539
(dp540
g28
(lp541
(I01
S'vowel'
p542
tp543
asg22
V[ +vowel ]
p544
sbsg22
V[ +vowel ] ---> [ -high ] /  _ [ -low ]* e
p545
sba(irule
Rule
p546
(dp547
g15
(irule
Guard
p548
(dp549
g18
I00
sg19
(lp550
sg21
I00
sg22
V
sg23
I00
sg24
S'L'
sbsg25
(irule
FeatureMatrix
p551
(dp552
g28
(lp553
(I00
g524
tp554
asg22
V[ -high ]
p555
sbsg31
(irule
Guard
p556
(dp557
g18
I00
sg19
(lp558
(irule
FeatureMatrix
p559
(dp560
g28
(lp561
(I00
g533
tp562
asg22
V[ -low ]
p563
sba(irule
ConstantPhoneme
p564
(dp565
S'p'
Ve
sbasg21
I00
sg22
V[ -low ]* e
p566
sg23
I01
sg24
S'R'
sbsg35
(irule
FeatureMatrix
p567
(dp568
g28
(lp569
(I01
S'continuant'
p570
tp571
asg22
V[ +continuant ]
p572
sbsg22
V[ +continuant ] ---> [ -high ] /  _ [ -low ]* e
p573
sba(irule
Rule
p574
(dp575
g15
(irule
Guard
p576
(dp577
g18
I00
sg19
(lp578
sg21
I00
sg22
V
sg23
I00
sg24
S'L'
sbsg25
(irule
FeatureMatrix
p579
(dp580
g28
(lp581
(I00
g524
tp582
asg22
V[ -high ]
p583
sbsg31
(irule
Guard
p584
(dp585
g18
I00
sg19
(lp586
(irule
FeatureMatrix
p587
(dp588
g28
(lp589
(I00
S'liquid'
p590
tp591
asg22
V[ -liquid ]
p592
sba(irule
ConstantPhoneme
p593
(dp594
S'p'
Ve
sbasg21
I00
sg22
V[ -liquid ]* e
p595
sg23
I01
sg24
S'R'
sbsg35
(irule
FeatureMatrix
p596
(dp597
g28
(lp598
(I01
g542
tp599
asg22
V[ +vowel ]
p600
sbsg22
V[ +vowel ] ---> [ -high ] /  _ [ -liquid ]* e
p601
sba(irule
Rule
p602
(dp603
g15
(irule
Guard
p604
(dp605
g18
I00
sg19
(lp606
sg21
I00
sg22
V
sg23
I00
sg24
S'L'
sbsg25
(irule
FeatureMatrix
p607
(dp608
g28
(lp609
(I00
g524
tp610
asg22
V[ -high ]
p611
sbsg31
(irule
Guard
p612
(dp613
g18
I00
sg19
(lp614
(irule
FeatureMatrix
p615
(dp616
g28
(lp617
(I00
g533
tp618
asg22
V[ -low ]
p619
sba(irule
ConstantPhoneme
p620
(dp621
S'p'
Ve
sbasg21
I00
sg22
V[ -low ]* e
p622
sg23
I01
sg24
S'R'
sbsg35
(irule
FeatureMatrix
p623
(dp624
g28
(lp625
(I01
S'tense'
p626
tp627
asg22
V[ +tense ]
p628
sbsg22
V[ +tense ] ---> [ -high ] /  _ [ -low ]* e
p629
sba(irule
Rule
p630
(dp631
g15
(irule
Guard
p632
(dp633
g18
I00
sg19
(lp634
sg21
I00
sg22
V
sg23
I00
sg24
S'L'
sbsg25
(irule
FeatureMatrix
p635
(dp636
g28
(lp637
(I00
g524
tp638
asg22
V[ -high ]
p639
sbsg31
(irule
Guard
p640
(dp641
g18
I00
sg19
(lp642
(irule
FeatureMatrix
p643
(dp644
g28
(lp645
(I00
g590
tp646
asg22
V[ -liquid ]
p647
sba(irule
ConstantPhoneme
p648
(dp649
S'p'
Ve
sbasg21
I00
sg22
V[ -liquid ]* e
p650
sg23
I01
sg24
S'R'
sbsg35
(irule
FeatureMatrix
p651
(dp652
g28
(lp653
(I01
g570
tp654
asg22
V[ +continuant ]
p655
sbsg22
V[ +continuant ] ---> [ -high ] /  _ [ -liquid ]* e
p656
sba(irule
Rule
p657
(dp658
g15
(irule
Guard
p659
(dp660
g18
I00
sg19
(lp661
sg21
I00
sg22
V
sg23
I00
sg24
S'L'
sbsg25
(irule
FeatureMatrix
p662
(dp663
g28
(lp664
(I00
g524
tp665
asg22
V[ -high ]
p666
sbsg31
(irule
Guard
p667
(dp668
g18
I00
sg19
(lp669
(irule
FeatureMatrix
p670
(dp671
g28
(lp672
(I00
g533
tp673
asg22
V[ -low ]
p674
sba(irule
ConstantPhoneme
p675
(dp676
S'p'
Ve
sbasg21
I00
sg22
V[ -low ]* e
p677
sg23
I01
sg24
S'R'
sbsg35
(irule
FeatureMatrix
p678
(dp679
g28
(lp680
(I01
g570
tp681
a(I01
S'voice'
p682
tp683
asg22
V[ +continuant +voice ]
p684
sbsg22
V[ +continuant +voice ] ---> [ -high ] /  _ [ -low ]* e
p685
sba(irule
Rule
p686
(dp687
g15
(irule
Guard
p688
(dp689
g18
I00
sg19
(lp690
sg21
I00
sg22
V
sg23
I00
sg24
S'L'
sbsg25
(irule
FeatureMatrix
p691
(dp692
g28
(lp693
(I00
S'nasal'
p694
tp695
a(I00
g524
tp696
asg22
V[ -high -nasal ]
p697
sbsg31
(irule
Guard
p698
(dp699
g18
I00
sg19
(lp700
(irule
FeatureMatrix
p701
(dp702
g28
(lp703
(I00
g533
tp704
asg22
V[ -low ]
p705
sba(irule
ConstantPhoneme
p706
(dp707
S'p'
Ve
sbasg21
I00
sg22
V[ -low ]* e
p708
sg23
I01
sg24
S'R'
sbsg35
(irule
FeatureMatrix
p709
(dp710
g28
(lp711
(I01
g570
tp712
asg22
V[ +continuant ]
p713
sbsg22
V[ +continuant ] ---> [ -high -nasal ] /  _ [ -low ]* e
p714
sba(irule
Rule
p715
(dp716
g15
(irule
Guard
p717
(dp718
g18
I00
sg19
(lp719
sg21
I00
sg22
V
sg23
I00
sg24
S'L'
sbsg25
(irule
FeatureMatrix
p720
(dp721
g28
(lp722
(I01
g570
tp723
a(I00
g524
tp724
asg22
V[ +continuant -high ]
p725
sbsg31
(irule
Guard
p726
(dp727
g18
I00
sg19
(lp728
(irule
FeatureMatrix
p729
(dp730
g28
(lp731
(I00
g533
tp732
asg22
V[ -low ]
p733
sba(irule
ConstantPhoneme
p734
(dp735
S'p'
Ve
sbasg21
I00
sg22
V[ -low ]* e
p736
sg23
I01
sg24
S'R'
sbsg35
(irule
FeatureMatrix
p737
(dp738
g28
(lp739
(I01
g570
tp740
asg22
V[ +continuant ]
p741
sbsg22
V[ +continuant ] ---> [ +continuant -high ] /  _ [ -low ]* e
p742
sba(irule
Rule
p743
(dp744
g15
(irule
Guard
p745
(dp746
g18
I00
sg19
(lp747
sg21
I00
sg22
V
sg23
I00
sg24
S'L'
sbsg25
(irule
FeatureMatrix
p748
(dp749
g28
(lp750
(I00
g524
tp751
asg22
V[ -high ]
p752
sbsg31
(irule
Guard
p753
(dp754
g18
I00
sg19
(lp755
(irule
FeatureMatrix
p756
(dp757
g28
(lp758
(I00
g533
tp759
asg22
V[ -low ]
p760
sba(irule
ConstantPhoneme
p761
(dp762
S'p'
Ve
sbasg21
I00
sg22
V[ -low ]* e
p763
sg23
I01
sg24
S'R'
sbsg35
(irule
FeatureMatrix
p764
(dp765
g28
(lp766
(I01
g570
tp767
a(I00
g533
tp768
asg22
V[ +continuant -low ]
p769
sbsg22
V[ +continuant -low ] ---> [ -high ] /  _ [ -low ]* e
p770
sba(irule
Rule
p771
(dp772
g15
(irule
Guard
p773
(dp774
g18
I00
sg19
(lp775
sg21
I00
sg22
V
sg23
I00
sg24
S'L'
sbsg25
(irule
FeatureMatrix
p776
(dp777
g28
(lp778
(I00
g524
tp779
asg22
V[ -high ]
p780
sbsg31
(irule
Guard
p781
(dp782
g18
I00
sg19
(lp783
(irule
FeatureMatrix
p784
(dp785
g28
(lp786
(I00
g590
tp787
a(I00
g533
tp788
asg22
V[ -liquid -low ]
p789
sba(irule
ConstantPhoneme
p790
(dp791
S'p'
Ve
sbasg21
I00
sg22
V[ -liquid -low ]* e
p792
sg23
I01
sg24
S'R'
sbsg35
(irule
FeatureMatrix
p793
(dp794
g28
(lp795
(I01
g570
tp796
asg22
V[ +continuant ]
p797
sbsg22
V[ +continuant ] ---> [ -high ] /  _ [ -liquid -low ]* e
p798
sba(irule
Rule
p799
(dp800
g15
(irule
Guard
p801
(dp802
g18
I00
sg19
(lp803
sg21
I00
sg22
V
sg23
I00
sg24
S'L'
sbsg25
(irule
FeatureMatrix
p804
(dp805
g28
(lp806
(I00
g694
tp807
a(I00
g524
tp808
asg22
V[ -high -nasal ]
p809
sbsg31
(irule
Guard
p810
(dp811
g18
I00
sg19
(lp812
(irule
FeatureMatrix
p813
(dp814
g28
(lp815
(I00
g590
tp816
asg22
V[ -liquid ]
p817
sba(irule
ConstantPhoneme
p818
(dp819
S'p'
Ve
sbasg21
I00
sg22
V[ -liquid ]* e
p820
sg23
I01
sg24
S'R'
sbsg35
(irule
FeatureMatrix
p821
(dp822
g28
(lp823
(I01
g570
tp824
asg22
V[ +continuant ]
p825
sbsg22
V[ +continuant ] ---> [ -high -nasal ] /  _ [ -liquid ]* e
p826
sba(irule
Rule
p827
(dp828
g15
(irule
Guard
p829
(dp830
g18
I00
sg19
(lp831
(irule
FeatureMatrix
p832
(dp833
g28
(lp834
sg22
V[  ]
p835
sbasg21
I00
sg22
g835
sg23
I00
sg24
S'L'
sbsg25
(irule
FeatureMatrix
p836
(dp837
g28
(lp838
(I00
g524
tp839
asg22
V[ -high ]
p840
sbsg31
(irule
Guard
p841
(dp842
g18
I00
sg19
(lp843
(irule
FeatureMatrix
p844
(dp845
g28
(lp846
(I00
g533
tp847
asg22
V[ -low ]
p848
sba(irule
ConstantPhoneme
p849
(dp850
S'p'
Ve
sbasg21
I00
sg22
V[ -low ]* e
p851
sg23
I01
sg24
S'R'
sbsg35
(irule
FeatureMatrix
p852
(dp853
g28
(lp854
(I01
g570
tp855
asg22
V[ +continuant ]
p856
sbsg22
V[ +continuant ] ---> [ -high ] / [  ] _ [ -low ]* e
p857
sba(irule
Rule
p858
(dp859
g15
(irule
Guard
p860
(dp861
g18
I00
sg19
(lp862
sg21
I00
sg22
V
sg23
I00
sg24
S'L'
sbsg25
(irule
FeatureMatrix
p863
(dp864
g28
(lp865
(I00
g524
tp866
asg22
V[ -high ]
p867
sbsg31
(irule
Guard
p868
(dp869
g18
I00
sg19
(lp870
(irule
FeatureMatrix
p871
(dp872
g28
(lp873
(I00
g533
tp874
asg22
V[ -low ]
p875
sba(irule
ConstantPhoneme
p876
(dp877
S'p'
Ve
sbasg21
I00
sg22
V[ -low ]* e
p878
sg23
I01
sg24
S'R'
sbsg35
(irule
FeatureMatrix
p879
(dp880
g28
(lp881
(I00
g694
tp882
a(I01
S'sonorant'
p883
tp884
asg22
V[ +sonorant -nasal ]
p885
sbsg22
V[ +sonorant -nasal ] ---> [ -high ] /  _ [ -low ]* e
p886
sba(irule
Rule
p887
(dp888
g15
(irule
Guard
p889
(dp890
g18
I00
sg19
(lp891
(irule
FeatureMatrix
p892
(dp893
g28
(lp894
sg22
V[  ]
p895
sbasg21
I00
sg22
g895
sg23
I00
sg24
S'L'
sbsg25
(irule
FeatureMatrix
p896
(dp897
g28
(lp898
(I00
g524
tp899
asg22
V[ -high ]
p900
sbsg31
(irule
Guard
p901
(dp902
g18
I00
sg19
(lp903
(irule
FeatureMatrix
p904
(dp905
g28
(lp906
(I00
g533
tp907
asg22
V[ -low ]
p908
sba(irule
ConstantPhoneme
p909
(dp910
S'p'
Ve
sbasg21
I00
sg22
V[ -low ]* e
p911
sg23
I01
sg24
S'R'
sbsg35
(irule
FeatureMatrix
p912
(dp913
g28
(lp914
(I01
g542
tp915
asg22
V[ +vowel ]
p916
sbsg22
V[ +vowel ] ---> [ -high ] / [  ] _ [ -low ]* e
p917
sba(irule
Rule
p918
(dp919
g15
(irule
Guard
p920
(dp921
g18
I00
sg19
(lp922
sg21
I00
sg22
V
sg23
I00
sg24
S'L'
sbsg25
(irule
FeatureMatrix
p923
(dp924
g28
(lp925
(I01
g570
tp926
a(I00
g524
tp927
asg22
V[ +continuant -high ]
p928
sbsg31
(irule
Guard
p929
(dp930
g18
I00
sg19
(lp931
(irule
FeatureMatrix
p932
(dp933
g28
(lp934
(I00
g590
tp935
asg22
V[ -liquid ]
p936
sba(irule
ConstantPhoneme
p937
(dp938
S'p'
Ve
sbasg21
I00
sg22
V[ -liquid ]* e
p939
sg23
I01
sg24
S'R'
sbsg35
(irule
FeatureMatrix
p940
(dp941
g28
(lp942
(I01
g570
tp943
asg22
V[ +continuant ]
p944
sbsg22
V[ +continuant ] ---> [ +continuant -high ] /  _ [ -liquid ]* e
p945
sba(irule
Rule
p946
(dp947
g15
(irule
Guard
p948
(dp949
g18
I00
sg19
(lp950
sg21
I00
sg22
V
sg23
I00
sg24
S'L'
sbsg25
(irule
FeatureMatrix
p951
(dp952
g28
(lp953
(I00
g524
tp954
asg22
V[ -high ]
p955
sbsg31
(irule
Guard
p956
(dp957
g18
I00
sg19
(lp958
(irule
FeatureMatrix
p959
(dp960
g28
(lp961
(I00
g533
tp962
asg22
V[ -low ]
p963
sba(irule
ConstantPhoneme
p964
(dp965
S'p'
Ve
sbasg21
I00
sg22
V[ -low ]* e
p966
sg23
I01
sg24
S'R'
sbsg35
(irule
FeatureMatrix
p967
(dp968
g28
(lp969
(I01
g570
tp970
a(I01
g883
tp971
asg22
V[ +continuant +sonorant ]
p972
sbsg22
V[ +continuant +sonorant ] ---> [ -high ] /  _ [ -low ]* e
p973
sba(irule
Rule
p974
(dp975
g15
(irule
Guard
p976
(dp977
g18
I00
sg19
(lp978
sg21
I00
sg22
V
sg23
I00
sg24
S'L'
sbsg25
(irule
FeatureMatrix
p979
(dp980
g28
(lp981
(I00
g524
tp982
a(I01
g682
tp983
asg22
V[ +voice -high ]
p984
sbsg31
(irule
Guard
p985
(dp986
g18
I00
sg19
(lp987
(irule
FeatureMatrix
p988
(dp989
g28
(lp990
(I00
g533
tp991
asg22
V[ -low ]
p992
sba(irule
ConstantPhoneme
p993
(dp994
S'p'
Ve
sbasg21
I00
sg22
V[ -low ]* e
p995
sg23
I01
sg24
S'R'
sbsg35
(irule
FeatureMatrix
p996
(dp997
g28
(lp998
(I01
g542
tp999
asg22
V[ +vowel ]
p1000
sbsg22
V[ +vowel ] ---> [ +voice -high ] /  _ [ -low ]* e
p1001
sba(irule
Rule
p1002
(dp1003
g15
(irule
Guard
p1004
(dp1005
g18
I00
sg19
(lp1006
(irule
FeatureMatrix
p1007
(dp1008
g28
(lp1009
sg22
V[  ]
p1010
sbasg21
I00
sg22
g1010
sg23
I00
sg24
S'L'
sbsg25
(irule
FeatureMatrix
p1011
(dp1012
g28
(lp1013
(I00
g524
tp1014
asg22
V[ -high ]
p1015
sbsg31
(irule
Guard
p1016
(dp1017
g18
I00
sg19
(lp1018
(irule
FeatureMatrix
p1019
(dp1020
g28
(lp1021
(I00
g590
tp1022
asg22
V[ -liquid ]
p1023
sba(irule
ConstantPhoneme
p1024
(dp1025
S'p'
Ve
sbasg21
I00
sg22
V[ -liquid ]* e
p1026
sg23
I01
sg24
S'R'
sbsg35
(irule
FeatureMatrix
p1027
(dp1028
g28
(lp1029
(I01
g570
tp1030
asg22
V[ +continuant ]
p1031
sbsg22
V[ +continuant ] ---> [ -high ] / [  ] _ [ -liquid ]* e
p1032
sba(irule
Rule
p1033
(dp1034
g15
(irule
Guard
p1035
(dp1036
g18
I00
sg19
(lp1037
(irule
FeatureMatrix
p1038
(dp1039
g28
(lp1040
sg22
V[  ]
p1041
sbasg21
I00
sg22
g1041
sg23
I00
sg24
S'L'
sbsg25
(irule
FeatureMatrix
p1042
(dp1043
g28
(lp1044
(I00
g524
tp1045
asg22
V[ -high ]
p1046
sbsg31
(irule
Guard
p1047
(dp1048
g18
I00
sg19
(lp1049
(irule
FeatureMatrix
p1050
(dp1051
g28
(lp1052
(I00
g533
tp1053
asg22
V[ -low ]
p1054
sba(irule
ConstantPhoneme
p1055
(dp1056
S'p'
Ve
sbasg21
I00
sg22
V[ -low ]* e
p1057
sg23
I01
sg24
S'R'
sbsg35
(irule
FeatureMatrix
p1058
(dp1059
g28
(lp1060
(I01
g626
tp1061
asg22
V[ +tense ]
p1062
sbsg22
V[ +tense ] ---> [ -high ] / [  ] _ [ -low ]* e
p1063
sba(irule
Rule
p1064
(dp1065
g15
(irule
Guard
p1066
(dp1067
g18
I00
sg19
(lp1068
(irule
FeatureMatrix
p1069
(dp1070
g28
(lp1071
sg22
V[  ]
p1072
sbasg21
I00
sg22
g1072
sg23
I00
sg24
S'L'
sbsg25
(irule
FeatureMatrix
p1073
(dp1074
g28
(lp1075
(I00
g524
tp1076
asg22
V[ -high ]
p1077
sbsg31
(irule
Guard
p1078
(dp1079
g18
I00
sg19
(lp1080
(irule
FeatureMatrix
p1081
(dp1082
g28
(lp1083
(I00
g590
tp1084
asg22
V[ -liquid ]
p1085
sba(irule
ConstantPhoneme
p1086
(dp1087
S'p'
Ve
sbasg21
I00
sg22
V[ -liquid ]* e
p1088
sg23
I01
sg24
S'R'
sbsg35
(irule
FeatureMatrix
p1089
(dp1090
g28
(lp1091
(I01
g542
tp1092
asg22
V[ +vowel ]
p1093
sbsg22
V[ +vowel ] ---> [ -high ] / [  ] _ [ -liquid ]* e
p1094
sba(irule
Rule
p1095
(dp1096
g15
(irule
Guard
p1097
(dp1098
g18
I00
sg19
(lp1099
sg21
I00
sg22
V
sg23
I00
sg24
S'L'
sbsg25
(irule
FeatureMatrix
p1100
(dp1101
g28
(lp1102
(I00
g524
tp1103
asg22
V[ -high ]
p1104
sbsg31
(irule
Guard
p1105
(dp1106
g18
I00
sg19
(lp1107
(irule
FeatureMatrix
p1108
(dp1109
g28
(lp1110
(I00
g533
tp1111
a(I00
S'sibilant'
p1112
tp1113
asg22
V[ -low -sibilant ]
p1114
sba(irule
ConstantPhoneme
p1115
(dp1116
S'p'
Ve
sbasg21
I00
sg22
V[ -low -sibilant ]* e
p1117
sg23
I01
sg24
S'R'
sbsg35
(irule
FeatureMatrix
p1118
(dp1119
g28
(lp1120
(I01
g570
tp1121
asg22
V[ +continuant ]
p1122
sbsg22
V[ +continuant ] ---> [ -high ] /  _ [ -low -sibilant ]* e
p1123
sba(irule
Rule
p1124
(dp1125
g15
(irule
Guard
p1126
(dp1127
g18
I00
sg19
(lp1128
(irule
FeatureMatrix
p1129
(dp1130
g28
(lp1131
sg22
V[  ]
p1132
sbasg21
I00
sg22
g1132
sg23
I00
sg24
S'L'
sbsg25
(irule
FeatureMatrix
p1133
(dp1134
g28
(lp1135
(I00
g524
tp1136
asg22
V[ -high ]
p1137
sbsg31
(irule
Guard
p1138
(dp1139
g18
I00
sg19
(lp1140
(irule
FeatureMatrix
p1141
(dp1142
g28
(lp1143
(I00
g590
tp1144
asg22
V[ -liquid ]
p1145
sba(irule
ConstantPhoneme
p1146
(dp1147
S'p'
Ve
sbasg21
I00
sg22
V[ -liquid ]* e
p1148
sg23
I01
sg24
S'R'
sbsg35
(irule
FeatureMatrix
p1149
(dp1150
g28
(lp1151
(I01
g626
tp1152
asg22
V[ +tense ]
p1153
sbsg22
V[ +tense ] ---> [ -high ] / [  ] _ [ -liquid ]* e
p1154
sba(irule
Rule
p1155
(dp1156
g15
(irule
Guard
p1157
(dp1158
g18
I00
sg19
(lp1159
sg21
I00
sg22
V
sg23
I00
sg24
S'L'
sbsg25
(irule
FeatureMatrix
p1160
(dp1161
g28
(lp1162
(I00
g524
tp1163
asg22
V[ -high ]
p1164
sbsg31
(irule
Guard
p1165
(dp1166
g18
I00
sg19
(lp1167
(irule
FeatureMatrix
p1168
(dp1169
g28
(lp1170
(I00
g590
tp1171
asg22
V[ -liquid ]
p1172
sba(irule
ConstantPhoneme
p1173
(dp1174
S'p'
Ve
sbasg21
I00
sg22
V[ -liquid ]* e
p1175
sg23
I01
sg24
S'R'
sbsg35
(irule
FeatureMatrix
p1176
(dp1177
g28
(lp1178
(I01
g570
tp1179
a(I01
g682
tp1180
asg22
V[ +continuant +voice ]
p1181
sbsg22
V[ +continuant +voice ] ---> [ -high ] /  _ [ -liquid ]* e
p1182
sba(irule
Rule
p1183
(dp1184
g15
(irule
Guard
p1185
(dp1186
g18
I00
sg19
(lp1187
sg21
I00
sg22
V
sg23
I00
sg24
S'L'
sbsg25
(irule
FeatureMatrix
p1188
(dp1189
g28
(lp1190
(I00
g524
tp1191
a(I01
g682
tp1192
asg22
V[ +voice -high ]
p1193
sbsg31
(irule
Guard
p1194
(dp1195
g18
I00
sg19
(lp1196
(irule
FeatureMatrix
p1197
(dp1198
g28
(lp1199
(I00
g590
tp1200
asg22
V[ -liquid ]
p1201
sba(irule
ConstantPhoneme
p1202
(dp1203
S'p'
Ve
sbasg21
I00
sg22
V[ -liquid ]* e
p1204
sg23
I01
sg24
S'R'
sbsg35
(irule
FeatureMatrix
p1205
(dp1206
g28
(lp1207
(I01
g542
tp1208
asg22
V[ +vowel ]
p1209
sbsg22
V[ +vowel ] ---> [ +voice -high ] /  _ [ -liquid ]* e
p1210
sba(irule
Rule
p1211
(dp1212
g15
(irule
Guard
p1213
(dp1214
g18
I00
sg19
(lp1215
sg21
I00
sg22
V
sg23
I00
sg24
S'L'
sbsg25
(irule
FeatureMatrix
p1216
(dp1217
g28
(lp1218
(I00
g524
tp1219
asg22
V[ -high ]
p1220
sbsg31
(irule
Guard
p1221
(dp1222
g18
I00
sg19
(lp1223
(irule
FeatureMatrix
p1224
(dp1225
g28
(lp1226
(I00
g533
tp1227
a(I00
g1112
tp1228
asg22
V[ -low -sibilant ]
p1229
sba(irule
ConstantPhoneme
p1230
(dp1231
S'p'
Ve
sbasg21
I00
sg22
V[ -low -sibilant ]* e
p1232
sg23
I01
sg24
S'R'
sbsg35
(irule
FeatureMatrix
p1233
(dp1234
g28
(lp1235
(I01
g542
tp1236
asg22
V[ +vowel ]
p1237
sbsg22
V[ +vowel ] ---> [ -high ] /  _ [ -low -sibilant ]* e
p1238
sba(irule
Rule
p1239
(dp1240
g15
(irule
Guard
p1241
(dp1242
g18
I00
sg19
(lp1243
sg21
I00
sg22
V
sg23
I00
sg24
S'L'
sbsg25
(irule
FeatureMatrix
p1244
(dp1245
g28
(lp1246
(I00
g524
tp1247
asg22
V[ -high ]
p1248
sbsg31
(irule
Guard
p1249
(dp1250
g18
I00
sg19
(lp1251
(irule
FeatureMatrix
p1252
(dp1253
g28
(lp1254
(I00
g590
tp1255
asg22
V[ -liquid ]
p1256
sba(irule
ConstantPhoneme
p1257
(dp1258
S'p'
Ve
sbasg21
I00
sg22
V[ -liquid ]* e
p1259
sg23
I01
sg24
S'R'
sbsg35
(irule
FeatureMatrix
p1260
(dp1261
g28
(lp1262
(I01
g570
tp1263
a(I00
g533
tp1264
asg22
V[ +continuant -low ]
p1265
sbsg22
V[ +continuant -low ] ---> [ -high ] /  _ [ -liquid ]* e
p1266
sba(irule
Rule
p1267
(dp1268
g15
(irule
Guard
p1269
(dp1270
g18
I00
sg19
(lp1271
sg21
I00
sg22
V
sg23
I00
sg24
S'L'
sbsg25
(irule
FeatureMatrix
p1272
(dp1273
g28
(lp1274
(I00
g524
tp1275
asg22
V[ -high ]
p1276
sbsg31
(irule
Guard
p1277
(dp1278
g18
I00
sg19
(lp1279
(irule
FeatureMatrix
p1280
(dp1281
g28
(lp1282
(I00
g533
tp1283
asg22
V[ -low ]
p1284
sba(irule
ConstantPhoneme
p1285
(dp1286
S'p'
Ve
sbasg21
I00
sg22
V[ -low ]* e
p1287
sg23
I01
sg24
S'R'
sbsg35
(irule
FeatureMatrix
p1288
(dp1289
g28
(lp1290
(I01
g570
tp1291
a(I00
g1112
tp1292
asg22
V[ +continuant -sibilant ]
p1293
sbsg22
V[ +continuant -sibilant ] ---> [ -high ] /  _ [ -low ]* e
p1294
sba(irule
Rule
p1295
(dp1296
g15
(irule
Guard
p1297
(dp1298
g18
I00
sg19
(lp1299
sg21
I00
sg22
V
sg23
I00
sg24
S'L'
sbsg25
(irule
FeatureMatrix
p1300
(dp1301
g28
(lp1302
(I00
S'anterior'
p1303
tp1304
a(I00
g524
tp1305
asg22
V[ -anterior -high ]
p1306
sbsg31
(irule
Guard
p1307
(dp1308
g18
I00
sg19
(lp1309
(irule
FeatureMatrix
p1310
(dp1311
g28
(lp1312
(I00
g533
tp1313
asg22
V[ -low ]
p1314
sba(irule
ConstantPhoneme
p1315
(dp1316
S'p'
Ve
sbasg21
I00
sg22
V[ -low ]* e
p1317
sg23
I01
sg24
S'R'
sbsg35
(irule
FeatureMatrix
p1318
(dp1319
g28
(lp1320
(I01
g542
tp1321
asg22
V[ +vowel ]
p1322
sbsg22
V[ +vowel ] ---> [ -anterior -high ] /  _ [ -low ]* e
p1323
sba(irule
Rule
p1324
(dp1325
g15
(irule
Guard
p1326
(dp1327
g18
I00
sg19
(lp1328
sg21
I00
sg22
V
sg23
I00
sg24
S'L'
sbsg25
(irule
FeatureMatrix
p1329
(dp1330
g28
(lp1331
(I00
g524
tp1332
a(I00
g1112
tp1333
asg22
V[ -high -sibilant ]
p1334
sbsg31
(irule
Guard
p1335
(dp1336
g18
I00
sg19
(lp1337
(irule
FeatureMatrix
p1338
(dp1339
g28
(lp1340
(I00
g533
tp1341
asg22
V[ -low ]
p1342
sba(irule
ConstantPhoneme
p1343
(dp1344
S'p'
Ve
sbasg21
I00
sg22
V[ -low ]* e
p1345
sg23
I01
sg24
S'R'
sbsg35
(irule
FeatureMatrix
p1346
(dp1347
g28
(lp1348
(I01
g626
tp1349
asg22
V[ +tense ]
p1350
sbsg22
V[ +tense ] ---> [ -high -sibilant ] /  _ [ -low ]* e
p1351
sba(irule
Rule
p1352
(dp1353
g15
(irule
Guard
p1354
(dp1355
g18
I00
sg19
(lp1356
sg21
I00
sg22
V
sg23
I00
sg24
S'L'
sbsg25
(irule
FeatureMatrix
p1357
(dp1358
g28
(lp1359
(I00
g524
tp1360
a(I01
g626
tp1361
asg22
V[ +tense -high ]
p1362
sbsg31
(irule
Guard
p1363
(dp1364
g18
I00
sg19
(lp1365
(irule
FeatureMatrix
p1366
(dp1367
g28
(lp1368
(I00
g533
tp1369
asg22
V[ -low ]
p1370
sba(irule
ConstantPhoneme
p1371
(dp1372
S'p'
Ve
sbasg21
I00
sg22
V[ -low ]* e
p1373
sg23
I01
sg24
S'R'
sbsg35
(irule
FeatureMatrix
p1374
(dp1375
g28
(lp1376
(I01
g542
tp1377
asg22
V[ +vowel ]
p1378
sbsg22
V[ +vowel ] ---> [ +tense -high ] /  _ [ -low ]* e
p1379
sba(irule
Rule
p1380
(dp1381
g15
(irule
Guard
p1382
(dp1383
g18
I00
sg19
(lp1384
sg21
I00
sg22
V
sg23
I00
sg24
S'L'
sbsg25
(irule
FeatureMatrix
p1385
(dp1386
g28
(lp1387
(I00
g524
tp1388
a(I00
g1112
tp1389
asg22
V[ -high -sibilant ]
p1390
sbsg31
(irule
Guard
p1391
(dp1392
g18
I00
sg19
(lp1393
(irule
FeatureMatrix
p1394
(dp1395
g28
(lp1396
(I00
g590
tp1397
asg22
V[ -liquid ]
p1398
sba(irule
ConstantPhoneme
p1399
(dp1400
S'p'
Ve
sbasg21
I00
sg22
V[ -liquid ]* e
p1401
sg23
I01
sg24
S'R'
sbsg35
(irule
FeatureMatrix
p1402
(dp1403
g28
(lp1404
(I01
g626
tp1405
asg22
V[ +tense ]
p1406
sbsg22
V[ +tense ] ---> [ -high -sibilant ] /  _ [ -liquid ]* e
p1407
sba(irule
Rule
p1408
(dp1409
g15
(irule
Guard
p1410
(dp1411
g18
I00
sg19
(lp1412
sg21
I00
sg22
V
sg23
I00
sg24
S'L'
sbsg25
(irule
FeatureMatrix
p1413
(dp1414
g28
(lp1415
(I00
g524
tp1416
asg22
V[ -high ]
p1417
sbsg31
(irule
Guard
p1418
(dp1419
g18
I00
sg19
(lp1420
(irule
FeatureMatrix
p1421
(dp1422
g28
(lp1423
(I00
g533
tp1424
a(I00
g1112
tp1425
asg22
V[ -low -sibilant ]
p1426
sba(irule
ConstantPhoneme
p1427
(dp1428
S'p'
Ve
sbasg21
I00
sg22
V[ -low -sibilant ]* e
p1429
sg23
I01
sg24
S'R'
sbsg35
(irule
FeatureMatrix
p1430
(dp1431
g28
(lp1432
(I01
g626
tp1433
asg22
V[ +tense ]
p1434
sbsg22
V[ +tense ] ---> [ -high ] /  _ [ -low -sibilant ]* e
p1435
sba(irule
Rule
p1436
(dp1437
g15
(irule
Guard
p1438
(dp1439
g18
I00
sg19
(lp1440
sg21
I00
sg22
V
sg23
I00
sg24
S'L'
sbsg25
(irule
FeatureMatrix
p1441
(dp1442
g28
(lp1443
(I01
g883
tp1444
a(I00
g524
tp1445
asg22
V[ +sonorant -high ]
p1446
sbsg31
(irule
Guard
p1447
(dp1448
g18
I00
sg19
(lp1449
(irule
FeatureMatrix
p1450
(dp1451
g28
(lp1452
(I00
g533
tp1453
asg22
V[ -low ]
p1454
sba(irule
ConstantPhoneme
p1455
(dp1456
S'p'
Ve
sbasg21
I00
sg22
V[ -low ]* e
p1457
sg23
I01
sg24
S'R'
sbsg35
(irule
FeatureMatrix
p1458
(dp1459
g28
(lp1460
(I01
g542
tp1461
asg22
V[ +vowel ]
p1462
sbsg22
V[ +vowel ] ---> [ +sonorant -high ] /  _ [ -low ]* e
p1463
sba(irule
Rule
p1464
(dp1465
g15
(irule
Guard
p1466
(dp1467
g18
I00
sg19
(lp1468
sg21
I00
sg22
V
sg23
I00
sg24
S'L'
sbsg25
(irule
FeatureMatrix
p1469
(dp1470
g28
(lp1471
(I00
g524
tp1472
asg22
V[ -high ]
p1473
sbsg31
(irule
Guard
p1474
(dp1475
g18
I00
sg19
(lp1476
(irule
FeatureMatrix
p1477
(dp1478
g28
(lp1479
(I00
g533
tp1480
asg22
V[ -low ]
p1481
sba(irule
ConstantPhoneme
p1482
(dp1483
S'p'
Ve
sbasg21
I00
sg22
V[ -low ]* e
p1484
sg23
I01
sg24
S'R'
sbsg35
(irule
FeatureMatrix
p1485
(dp1486
g28
(lp1487
(I01
g883
tp1488
a(I01
g542
tp1489
asg22
V[ +sonorant +vowel ]
p1490
sbsg22
V[ +sonorant +vowel ] ---> [ -high ] /  _ [ -low ]* e
p1491
sba(irule
Rule
p1492
(dp1493
g15
(irule
Guard
p1494
(dp1495
g18
I00
sg19
(lp1496
sg21
I00
sg22
V
sg23
I00
sg24
S'L'
sbsg25
(irule
FeatureMatrix
p1497
(dp1498
g28
(lp1499
(I00
g524
tp1500
asg22
V[ -high ]
p1501
sbsg31
(irule
Guard
p1502
(dp1503
g18
I00
sg19
(lp1504
(irule
FeatureMatrix
p1505
(dp1506
g28
(lp1507
(I00
g590
tp1508
asg22
V[ -liquid ]
p1509
sba(irule
ConstantPhoneme
p1510
(dp1511
S'p'
Ve
sbasg21
I00
sg22
V[ -liquid ]* e
p1512
sg23
I01
sg24
S'R'
sbsg35
(irule
FeatureMatrix
p1513
(dp1514
g28
(lp1515
(I01
g570
tp1516
a(I01
g883
tp1517
asg22
V[ +continuant +sonorant ]
p1518
sbsg22
V[ +continuant +sonorant ] ---> [ -high ] /  _ [ -liquid ]* e
p1519
sba(irule
Rule
p1520
(dp1521
g15
(irule
Guard
p1522
(dp1523
g18
I00
sg19
(lp1524
sg21
I00
sg22
V
sg23
I00
sg24
S'L'
sbsg25
(irule
FeatureMatrix
p1525
(dp1526
g28
(lp1527
(I00
g524
tp1528
asg22
V[ -high ]
p1529
sbsg31
(irule
Guard
p1530
(dp1531
g18
I00
sg19
(lp1532
(irule
FeatureMatrix
p1533
(dp1534
g28
(lp1535
(I00
g590
tp1536
a(I00
g533
tp1537
asg22
V[ -liquid -low ]
p1538
sba(irule
ConstantPhoneme
p1539
(dp1540
S'p'
Ve
sbasg21
I00
sg22
V[ -liquid -low ]* e
p1541
sg23
I01
sg24
S'R'
sbsg35
(irule
FeatureMatrix
p1542
(dp1543
g28
(lp1544
(I01
g542
tp1545
asg22
V[ +vowel ]
p1546
sbsg22
V[ +vowel ] ---> [ -high ] /  _ [ -liquid -low ]* e
p1547
sba(irule
Rule
p1548
(dp1549
g15
(irule
Guard
p1550
(dp1551
g18
I00
sg19
(lp1552
sg21
I00
sg22
V
sg23
I00
sg24
S'L'
sbsg25
(irule
FeatureMatrix
p1553
(dp1554
g28
(lp1555
(I00
g524
tp1556
a(I00
g1112
tp1557
asg22
V[ -high -sibilant ]
p1558
sbsg31
(irule
Guard
p1559
(dp1560
g18
I00
sg19
(lp1561
(irule
FeatureMatrix
p1562
(dp1563
g28
(lp1564
(I00
g533
tp1565
asg22
V[ -low ]
p1566
sba(irule
ConstantPhoneme
p1567
(dp1568
S'p'
Ve
sbasg21
I00
sg22
V[ -low ]* e
p1569
sg23
I01
sg24
S'R'
sbsg35
(irule
FeatureMatrix
p1570
(dp1571
g28
(lp1572
(I01
g542
tp1573
asg22
V[ +vowel ]
p1574
sbsg22
V[ +vowel ] ---> [ -high -sibilant ] /  _ [ -low ]* e
p1575
sba(irule
Rule
p1576
(dp1577
g15
(irule
Guard
p1578
(dp1579
g18
I00
sg19
(lp1580
sg21
I00
sg22
V
sg23
I00
sg24
S'L'
sbsg25
(irule
FeatureMatrix
p1581
(dp1582
g28
(lp1583
(I00
g524
tp1584
asg22
V[ -high ]
p1585
sbsg31
(irule
Guard
p1586
(dp1587
g18
I00
sg19
(lp1588
(irule
FeatureMatrix
p1589
(dp1590
g28
(lp1591
(I00
g590
tp1592
a(I00
g1112
tp1593
asg22
V[ -liquid -sibilant ]
p1594
sba(irule
ConstantPhoneme
p1595
(dp1596
S'p'
Ve
sbasg21
I00
sg22
V[ -liquid -sibilant ]* e
p1597
sg23
I01
sg24
S'R'
sbsg35
(irule
FeatureMatrix
p1598
(dp1599
g28
(lp1600
(I01
g542
tp1601
asg22
V[ +vowel ]
p1602
sbsg22
V[ +vowel ] ---> [ -high ] /  _ [ -liquid -sibilant ]* e
p1603
sba(irule
Rule
p1604
(dp1605
g15
(irule
Guard
p1606
(dp1607
g18
I00
sg19
(lp1608
sg21
I00
sg22
V
sg23
I00
sg24
S'L'
sbsg25
(irule
FeatureMatrix
p1609
(dp1610
g28
(lp1611
(I00
g524
tp1612
asg22
V[ -high ]
p1613
sbsg31
(irule
Guard
p1614
(dp1615
g18
I00
sg19
(lp1616
(irule
FeatureMatrix
p1617
(dp1618
g28
(lp1619
(I00
g590
tp1620
a(I00
g533
tp1621
asg22
V[ -liquid -low ]
p1622
sba(irule
ConstantPhoneme
p1623
(dp1624
S'p'
Ve
sbasg21
I00
sg22
V[ -liquid -low ]* e
p1625
sg23
I01
sg24
S'R'
sbsg35
(irule
FeatureMatrix
p1626
(dp1627
g28
(lp1628
(I01
g626
tp1629
asg22
V[ +tense ]
p1630
sbsg22
V[ +tense ] ---> [ -high ] /  _ [ -liquid -low ]* e
p1631
sba(irule
Rule
p1632
(dp1633
g15
(irule
Guard
p1634
(dp1635
g18
I00
sg19
(lp1636
sg21
I00
sg22
V
sg23
I00
sg24
S'L'
sbsg25
(irule
FeatureMatrix
p1637
(dp1638
g28
(lp1639
(I00
g524
tp1640
asg22
V[ -high ]
p1641
sbsg31
(irule
Guard
p1642
(dp1643
g18
I00
sg19
(lp1644
(irule
FeatureMatrix
p1645
(dp1646
g28
(lp1647
(I00
g590
tp1648
a(I00
g1112
tp1649
asg22
V[ -liquid -sibilant ]
p1650
sba(irule
ConstantPhoneme
p1651
(dp1652
S'p'
Ve
sbasg21
I00
sg22
V[ -liquid -sibilant ]* e
p1653
sg23
I01
sg24
S'R'
sbsg35
(irule
FeatureMatrix
p1654
(dp1655
g28
(lp1656
(I01
g570
tp1657
asg22
V[ +continuant ]
p1658
sbsg22
V[ +continuant ] ---> [ -high ] /  _ [ -liquid -sibilant ]* e
p1659
sba(irule
Rule
p1660
(dp1661
g15
(irule
Guard
p1662
(dp1663
g18
I00
sg19
(lp1664
sg21
I00
sg22
V
sg23
I00
sg24
S'L'
sbsg25
(irule
FeatureMatrix
p1665
(dp1666
g28
(lp1667
(I00
g524
tp1668
asg22
V[ -high ]
p1669
sbsg31
(irule
Guard
p1670
(dp1671
g18
I00
sg19
(lp1672
(irule
FeatureMatrix
p1673
(dp1674
g28
(lp1675
(I00
g590
tp1676
a(I00
g1112
tp1677
asg22
V[ -liquid -sibilant ]
p1678
sba(irule
ConstantPhoneme
p1679
(dp1680
S'p'
Ve
sbasg21
I00
sg22
V[ -liquid -sibilant ]* e
p1681
sg23
I01
sg24
S'R'
sbsg35
(irule
FeatureMatrix
p1682
(dp1683
g28
(lp1684
(I01
g626
tp1685
asg22
V[ +tense ]
p1686
sbsg22
V[ +tense ] ---> [ -high ] /  _ [ -liquid -sibilant ]* e
p1687
sba(irule
Rule
p1688
(dp1689
g15
(irule
Guard
p1690
(dp1691
g18
I00
sg19
(lp1692
sg21
I00
sg22
V
sg23
I00
sg24
S'L'
sbsg25
(irule
FeatureMatrix
p1693
(dp1694
g28
(lp1695
(I00
g524
tp1696
a(I01
g626
tp1697
asg22
V[ +tense -high ]
p1698
sbsg31
(irule
Guard
p1699
(dp1700
g18
I00
sg19
(lp1701
(irule
FeatureMatrix
p1702
(dp1703
g28
(lp1704
(I00
g590
tp1705
asg22
V[ -liquid ]
p1706
sba(irule
ConstantPhoneme
p1707
(dp1708
S'p'
Ve
sbasg21
I00
sg22
V[ -liquid ]* e
p1709
sg23
I01
sg24
S'R'
sbsg35
(irule
FeatureMatrix
p1710
(dp1711
g28
(lp1712
(I01
g542
tp1713
asg22
V[ +vowel ]
p1714
sbsg22
V[ +vowel ] ---> [ +tense -high ] /  _ [ -liquid ]* e
p1715
sba(irule
Rule
p1716
(dp1717
g15
(irule
Guard
p1718
(dp1719
g18
I00
sg19
(lp1720
sg21
I00
sg22
V
sg23
I00
sg24
S'L'
sbsg25
(irule
FeatureMatrix
p1721
(dp1722
g28
(lp1723
(I00
g524
tp1724
asg22
V[ -high ]
p1725
sbsg31
(irule
Guard
p1726
(dp1727
g18
I00
sg19
(lp1728
(irule
FeatureMatrix
p1729
(dp1730
g28
(lp1731
(I00
g533
tp1732
asg22
V[ -low ]
p1733
sba(irule
ConstantPhoneme
p1734
(dp1735
S'p'
Ve
sbasg21
I00
sg22
V[ -low ]* e
p1736
sg23
I01
sg24
S'R'
sbsg35
(irule
FeatureMatrix
p1737
(dp1738
g28
(lp1739
(I01
g570
tp1740
a(I00
S'coronal'
p1741
tp1742
asg22
V[ +continuant -coronal ]
p1743
sbsg22
V[ +continuant -coronal ] ---> [ -high ] /  _ [ -low ]* e
p1744
sba(irule
Rule
p1745
(dp1746
g15
(irule
Guard
p1747
(dp1748
g18
I00
sg19
(lp1749
sg21
I00
sg22
V
sg23
I00
sg24
S'L'
sbsg25
(irule
FeatureMatrix
p1750
(dp1751
g28
(lp1752
(I00
g524
tp1753
a(I01
g542
tp1754
asg22
V[ +vowel -high ]
p1755
sbsg31
(irule
Guard
p1756
(dp1757
g18
I00
sg19
(lp1758
(irule
FeatureMatrix
p1759
(dp1760
g28
(lp1761
(I00
g533
tp1762
asg22
V[ -low ]
p1763
sba(irule
ConstantPhoneme
p1764
(dp1765
S'p'
Ve
sbasg21
I00
sg22
V[ -low ]* e
p1766
sg23
I01
sg24
S'R'
sbsg35
(irule
FeatureMatrix
p1767
(dp1768
g28
(lp1769
(I01
g542
tp1770
asg22
V[ +vowel ]
p1771
sbsg22
V[ +vowel ] ---> [ +vowel -high ] /  _ [ -low ]* e
p1772
sba(irule
Rule
p1773
(dp1774
g15
(irule
Guard
p1775
(dp1776
g18
I00
sg19
(lp1777
sg21
I00
sg22
V
sg23
I00
sg24
S'L'
sbsg25
(irule
FeatureMatrix
p1778
(dp1779
g28
(lp1780
(I00
g524
tp1781
a(I01
g542
tp1782
asg22
V[ +vowel -high ]
p1783
sbsg31
(irule
Guard
p1784
(dp1785
g18
I00
sg19
(lp1786
(irule
FeatureMatrix
p1787
(dp1788
g28
(lp1789
(I00
g590
tp1790
asg22
V[ -liquid ]
p1791
sba(irule
ConstantPhoneme
p1792
(dp1793
S'p'
Ve
sbasg21
I00
sg22
V[ -liquid ]* e
p1794
sg23
I01
sg24
S'R'
sbsg35
(irule
FeatureMatrix
p1795
(dp1796
g28
(lp1797
(I01
g542
tp1798
asg22
V[ +vowel ]
p1799
sbsg22
V[ +vowel ] ---> [ +vowel -high ] /  _ [ -liquid ]* e
p1800
sba(irule
Rule
p1801
(dp1802
g15
(irule
Guard
p1803
(dp1804
g18
I00
sg19
(lp1805
sg21
I00
sg22
V
sg23
I00
sg24
S'L'
sbsg25
(irule
FeatureMatrix
p1806
(dp1807
g28
(lp1808
(I01
g883
tp1809
a(I00
g524
tp1810
asg22
V[ +sonorant -high ]
p1811
sbsg31
(irule
Guard
p1812
(dp1813
g18
I00
sg19
(lp1814
(irule
FeatureMatrix
p1815
(dp1816
g28
(lp1817
(I00
g590
tp1818
asg22
V[ -liquid ]
p1819
sba(irule
ConstantPhoneme
p1820
(dp1821
S'p'
Ve
sbasg21
I00
sg22
V[ -liquid ]* e
p1822
sg23
I01
sg24
S'R'
sbsg35
(irule
FeatureMatrix
p1823
(dp1824
g28
(lp1825
(I01
g626
tp1826
asg22
V[ +tense ]
p1827
sbsg22
V[ +tense ] ---> [ +sonorant -high ] /  _ [ -liquid ]* e
p1828
sba(irule
Rule
p1829
(dp1830
g15
(irule
Guard
p1831
(dp1832
g18
I00
sg19
(lp1833
sg21
I00
sg22
V
sg23
I00
sg24
S'L'
sbsg25
(irule
FeatureMatrix
p1834
(dp1835
g28
(lp1836
(I01
g883
tp1837
a(I00
g524
tp1838
asg22
V[ +sonorant -high ]
p1839
sbsg31
(irule
Guard
p1840
(dp1841
g18
I00
sg19
(lp1842
(irule
FeatureMatrix
p1843
(dp1844
g28
(lp1845
(I00
g533
tp1846
asg22
V[ -low ]
p1847
sba(irule
ConstantPhoneme
p1848
(dp1849
S'p'
Ve
sbasg21
I00
sg22
V[ -low ]* e
p1850
sg23
I01
sg24
S'R'
sbsg35
(irule
FeatureMatrix
p1851
(dp1852
g28
(lp1853
(I01
g626
tp1854
asg22
V[ +tense ]
p1855
sbsg22
V[ +tense ] ---> [ +sonorant -high ] /  _ [ -low ]* e
p1856
sba(irule
Rule
p1857
(dp1858
g15
(irule
Guard
p1859
(dp1860
g18
I00
sg19
(lp1861
sg21
I00
sg22
V
sg23
I00
sg24
S'L'
sbsg25
(irule
FeatureMatrix
p1862
(dp1863
g28
(lp1864
(I01
g570
tp1865
a(I00
g524
tp1866
asg22
V[ +continuant -high ]
p1867
sbsg31
(irule
Guard
p1868
(dp1869
g18
I00
sg19
(lp1870
(irule
FeatureMatrix
p1871
(dp1872
g28
(lp1873
(I00
g533
tp1874
asg22
V[ -low ]
p1875
sba(irule
ConstantPhoneme
p1876
(dp1877
S'p'
Ve
sbasg21
I00
sg22
V[ -low ]* e
p1878
sg23
I01
sg24
S'R'
sbsg35
(irule
FeatureMatrix
p1879
(dp1880
g28
(lp1881
(I01
g542
tp1882
asg22
V[ +vowel ]
p1883
sbsg22
V[ +vowel ] ---> [ +continuant -high ] /  _ [ -low ]* e
p1884
sba(irule
Rule
p1885
(dp1886
g15
(irule
Guard
p1887
(dp1888
g18
I00
sg19
(lp1889
sg21
I00
sg22
V
sg23
I00
sg24
S'L'
sbsg25
(irule
FeatureMatrix
p1890
(dp1891
g28
(lp1892
(I00
g524
tp1893
asg22
V[ -high ]
p1894
sbsg31
(irule
Guard
p1895
(dp1896
g18
I00
sg19
(lp1897
(irule
FeatureMatrix
p1898
(dp1899
g28
(lp1900
(I00
g533
tp1901
asg22
V[ -low ]
p1902
sba(irule
ConstantPhoneme
p1903
(dp1904
S'p'
Ve
sbasg21
I00
sg22
V[ -low ]* e
p1905
sg23
I01
sg24
S'R'
sbsg35
(irule
FeatureMatrix
p1906
(dp1907
g28
(lp1908
(I00
g533
tp1909
a(I01
g542
tp1910
asg22
V[ +vowel -low ]
p1911
sbsg22
V[ +vowel -low ] ---> [ -high ] /  _ [ -low ]* e
p1912
sba(irule
Rule
p1913
(dp1914
g15
(irule
Guard
p1915
(dp1916
g18
I00
sg19
(lp1917
sg21
I00
sg22
V
sg23
I00
sg24
S'L'
sbsg25
(irule
FeatureMatrix
p1918
(dp1919
g28
(lp1920
(I00
g524
tp1921
a(I01
g682
tp1922
asg22
V[ +voice -high ]
p1923
sbsg31
(irule
Guard
p1924
(dp1925
g18
I00
sg19
(lp1926
(irule
FeatureMatrix
p1927
(dp1928
g28
(lp1929
(I00
g590
tp1930
asg22
V[ -liquid ]
p1931
sba(irule
ConstantPhoneme
p1932
(dp1933
S'p'
Ve
sbasg21
I00
sg22
V[ -liquid ]* e
p1934
sg23
I01
sg24
S'R'
sbsg35
(irule
FeatureMatrix
p1935
(dp1936
g28
(lp1937
(I01
g626
tp1938
asg22
V[ +tense ]
p1939
sbsg22
V[ +tense ] ---> [ +voice -high ] /  _ [ -liquid ]* e
p1940
sba(irule
Rule
p1941
(dp1942
g15
(irule
Guard
p1943
(dp1944
g18
I00
sg19
(lp1945
sg21
I00
sg22
V
sg23
I00
sg24
S'L'
sbsg25
(irule
FeatureMatrix
p1946
(dp1947
g28
(lp1948
(I00
g524
tp1949
asg22
V[ -high ]
p1950
sbsg31
(irule
Guard
p1951
(dp1952
g18
I00
sg19
(lp1953
(irule
FeatureMatrix
p1954
(dp1955
g28
(lp1956
(I00
g590
tp1957
asg22
V[ -liquid ]
p1958
sba(irule
ConstantPhoneme
p1959
(dp1960
S'p'
Ve
sbasg21
I00
sg22
V[ -liquid ]* e
p1961
sg23
I01
sg24
S'R'
sbsg35
(irule
FeatureMatrix
p1962
(dp1963
g28
(lp1964
(I00
g694
tp1965
a(I01
g883
tp1966
asg22
V[ +sonorant -nasal ]
p1967
sbsg22
V[ +sonorant -nasal ] ---> [ -high ] /  _ [ -liquid ]* e
p1968
sba(irule
Rule
p1969
(dp1970
g15
(irule
Guard
p1971
(dp1972
g18
I00
sg19
(lp1973
sg21
I00
sg22
V
sg23
I00
sg24
S'L'
sbsg25
(irule
FeatureMatrix
p1974
(dp1975
g28
(lp1976
(I00
g590
tp1977
a(I00
g524
tp1978
asg22
V[ -high -liquid ]
p1979
sbsg31
(irule
Guard
p1980
(dp1981
g18
I00
sg19
(lp1982
(irule
FeatureMatrix
p1983
(dp1984
g28
(lp1985
(I00
g533
tp1986
asg22
V[ -low ]
p1987
sba(irule
ConstantPhoneme
p1988
(dp1989
S'p'
Ve
sbasg21
I00
sg22
V[ -low ]* e
p1990
sg23
I01
sg24
S'R'
sbsg35
(irule
FeatureMatrix
p1991
(dp1992
g28
(lp1993
(I01
g542
tp1994
asg22
V[ +vowel ]
p1995
sbsg22
V[ +vowel ] ---> [ -high -liquid ] /  _ [ -low ]* e
p1996
sba(irule
Rule
p1997
(dp1998
g15
(irule
Guard
p1999
(dp2000
g18
I00
sg19
(lp2001
sg21
I00
sg22
V
sg23
I00
sg24
S'L'
sbsg25
(irule
FeatureMatrix
p2002
(dp2003
g28
(lp2004
(I00
g524
tp2005
asg22
V[ -high ]
p2006
sbsg31
(irule
Guard
p2007
(dp2008
g18
I00
sg19
(lp2009
(irule
FeatureMatrix
p2010
(dp2011
g28
(lp2012
(I00
g590
tp2013
asg22
V[ -liquid ]
p2014
sba(irule
ConstantPhoneme
p2015
(dp2016
S'p'
Ve
sbasg21
I00
sg22
V[ -liquid ]* e
p2017
sg23
I01
sg24
S'R'
sbsg35
(irule
FeatureMatrix
p2018
(dp2019
g28
(lp2020
(I01
g570
tp2021
a(I00
g694
tp2022
asg22
V[ +continuant -nasal ]
p2023
sbsg22
V[ +continuant -nasal ] ---> [ -high ] /  _ [ -liquid ]* e
p2024
sba(irule
Rule
p2025
(dp2026
g15
(irule
Guard
p2027
(dp2028
g18
I00
sg19
(lp2029
sg21
I00
sg22
V
sg23
I00
sg24
S'L'
sbsg25
(irule
FeatureMatrix
p2030
(dp2031
g28
(lp2032
(I00
g524
tp2033
a(I01
g682
tp2034
asg22
V[ +voice -high ]
p2035
sbsg31
(irule
Guard
p2036
(dp2037
g18
I00
sg19
(lp2038
(irule
FeatureMatrix
p2039
(dp2040
g28
(lp2041
(I00
g533
tp2042
asg22
V[ -low ]
p2043
sba(irule
ConstantPhoneme
p2044
(dp2045
S'p'
Ve
sbasg21
I00
sg22
V[ -low ]* e
p2046
sg23
I01
sg24
S'R'
sbsg35
(irule
FeatureMatrix
p2047
(dp2048
g28
(lp2049
(I01
g626
tp2050
asg22
V[ +tense ]
p2051
sbsg22
V[ +tense ] ---> [ +voice -high ] /  _ [ -low ]* e
p2052
sba(irule
Rule
p2053
(dp2054
g15
(irule
Guard
p2055
(dp2056
g18
I00
sg19
(lp2057
sg21
I00
sg22
V
sg23
I00
sg24
S'L'
sbsg25
(irule
FeatureMatrix
p2058
(dp2059
g28
(lp2060
(I00
g524
tp2061
asg22
V[ -high ]
p2062
sbsg31
(irule
Guard
p2063
(dp2064
g18
I00
sg19
(lp2065
(irule
FeatureMatrix
p2066
(dp2067
g28
(lp2068
(I00
g533
tp2069
asg22
V[ -low ]
p2070
sba(irule
ConstantPhoneme
p2071
(dp2072
S'p'
Ve
sbasg21
I00
sg22
V[ -low ]* e
p2073
sg23
I01
sg24
S'R'
sbsg35
(irule
FeatureMatrix
p2074
(dp2075
g28
(lp2076
(I00
g694
tp2077
a(I01
g542
tp2078
asg22
V[ +vowel -nasal ]
p2079
sbsg22
V[ +vowel -nasal ] ---> [ -high ] /  _ [ -low ]* e
p2080
sba(irule
Rule
p2081
(dp2082
g15
(irule
Guard
p2083
(dp2084
g18
I00
sg19
(lp2085
sg21
I00
sg22
V
sg23
I00
sg24
S'L'
sbsg25
(irule
FeatureMatrix
p2086
(dp2087
g28
(lp2088
(I00
g1303
tp2089
a(I00
g524
tp2090
asg22
V[ -anterior -high ]
p2091
sbsg31
(irule
Guard
p2092
(dp2093
g18
I00
sg19
(lp2094
(irule
FeatureMatrix
p2095
(dp2096
g28
(lp2097
(I00
g590
tp2098
asg22
V[ -liquid ]
p2099
sba(irule
ConstantPhoneme
p2100
(dp2101
S'p'
Ve
sbasg21
I00
sg22
V[ -liquid ]* e
p2102
sg23
I01
sg24
S'R'
sbsg35
(irule
FeatureMatrix
p2103
(dp2104
g28
(lp2105
(I01
g542
tp2106
asg22
V[ +vowel ]
p2107
sbsg22
V[ +vowel ] ---> [ -anterior -high ] /  _ [ -liquid ]* e
p2108
sba(irule
Rule
p2109
(dp2110
g15
(irule
Guard
p2111
(dp2112
g18
I00
sg19
(lp2113
sg21
I00
sg22
V
sg23
I00
sg24
S'L'
sbsg25
(irule
FeatureMatrix
p2114
(dp2115
g28
(lp2116
(I00
g524
tp2117
asg22
V[ -high ]
p2118
sbsg31
(irule
Guard
p2119
(dp2120
g18
I00
sg19
(lp2121
(irule
FeatureMatrix
p2122
(dp2123
g28
(lp2124
(I00
g533
tp2125
asg22
V[ -low ]
p2126
sba(irule
ConstantPhoneme
p2127
(dp2128
S'p'
Ve
sbasg21
I00
sg22
V[ -low ]* e
p2129
sg23
I01
sg24
S'R'
sbsg35
(irule
FeatureMatrix
p2130
(dp2131
g28
(lp2132
(I01
g570
tp2133
a(I00
g694
tp2134
asg22
V[ +continuant -nasal ]
p2135
sbsg22
V[ +continuant -nasal ] ---> [ -high ] /  _ [ -low ]* e
p2136
sba(irule
Rule
p2137
(dp2138
g15
(irule
Guard
p2139
(dp2140
g18
I00
sg19
(lp2141
sg21
I00
sg22
V
sg23
I00
sg24
S'L'
sbsg25
(irule
FeatureMatrix
p2142
(dp2143
g28
(lp2144
(I00
g524
tp2145
asg22
V[ -high ]
p2146
sbsg31
(irule
Guard
p2147
(dp2148
g18
I00
sg19
(lp2149
(irule
FeatureMatrix
p2150
(dp2151
g28
(lp2152
(I00
g590
tp2153
asg22
V[ -liquid ]
p2154
sba(irule
ConstantPhoneme
p2155
(dp2156
S'p'
Ve
sbasg21
I00
sg22
V[ -liquid ]* e
p2157
sg23
I01
sg24
S'R'
sbsg35
(irule
FeatureMatrix
p2158
(dp2159
g28
(lp2160
(I01
g570
tp2161
a(I00
g1112
tp2162
asg22
V[ +continuant -sibilant ]
p2163
sbsg22
V[ +continuant -sibilant ] ---> [ -high ] /  _ [ -liquid ]* e
p2164
sba(irule
Rule
p2165
(dp2166
g15
(irule
Guard
p2167
(dp2168
g18
I00
sg19
(lp2169
sg21
I00
sg22
V
sg23
I00
sg24
S'L'
sbsg25
(irule
FeatureMatrix
p2170
(dp2171
g28
(lp2172
(I01
g570
tp2173
a(I00
g524
tp2174
asg22
V[ +continuant -high ]
p2175
sbsg31
(irule
Guard
p2176
(dp2177
g18
I00
sg19
(lp2178
(irule
FeatureMatrix
p2179
(dp2180
g28
(lp2181
(I00
g533
tp2182
asg22
V[ -low ]
p2183
sba(irule
ConstantPhoneme
p2184
(dp2185
S'p'
Ve
sbasg21
I00
sg22
V[ -low ]* e
p2186
sg23
I01
sg24
S'R'
sbsg35
(irule
FeatureMatrix
p2187
(dp2188
g28
(lp2189
(I01
g626
tp2190
asg22
V[ +tense ]
p2191
sbsg22
V[ +tense ] ---> [ +continuant -high ] /  _ [ -low ]* e
p2192
sba(irule
Rule
p2193
(dp2194
g15
(irule
Guard
p2195
(dp2196
g18
I00
sg19
(lp2197
sg21
I00
sg22
V
sg23
I00
sg24
S'L'
sbsg25
(irule
FeatureMatrix
p2198
(dp2199
g28
(lp2200
(I00
g524
tp2201
asg22
V[ -high ]
p2202
sbsg31
(irule
Guard
p2203
(dp2204
g18
I00
sg19
(lp2205
(irule
FeatureMatrix
p2206
(dp2207
g28
(lp2208
(I00
g590
tp2209
asg22
V[ -liquid ]
p2210
sba(irule
ConstantPhoneme
p2211
(dp2212
S'p'
Ve
sbasg21
I00
sg22
V[ -liquid ]* e
p2213
sg23
I01
sg24
S'R'
sbsg35
(irule
FeatureMatrix
p2214
(dp2215
g28
(lp2216
(I01
g883
tp2217
a(I01
g542
tp2218
asg22
V[ +sonorant +vowel ]
p2219
sbsg22
V[ +sonorant +vowel ] ---> [ -high ] /  _ [ -liquid ]* e
p2220
sba(irule
Rule
p2221
(dp2222
g15
(irule
Guard
p2223
(dp2224
g18
I00
sg19
(lp2225
sg21
I00
sg22
V
sg23
I00
sg24
S'L'
sbsg25
(irule
FeatureMatrix
p2226
(dp2227
g28
(lp2228
(I00
g524
tp2229
asg22
V[ -high ]
p2230
sbsg31
(irule
Guard
p2231
(dp2232
g18
I00
sg19
(lp2233
(irule
FeatureMatrix
p2234
(dp2235
g28
(lp2236
(I00
g533
tp2237
asg22
V[ -low ]
p2238
sba(irule
ConstantPhoneme
p2239
(dp2240
S'p'
Ve
sbasg21
I00
sg22
V[ -low ]* e
p2241
sg23
I01
sg24
S'R'
sbsg35
(irule
FeatureMatrix
p2242
(dp2243
g28
(lp2244
(I00
g694
tp2245
a(I01
g626
tp2246
asg22
V[ +tense -nasal ]
p2247
sbsg22
V[ +tense -nasal ] ---> [ -high ] /  _ [ -low ]* e
p2248
sba(irule
Rule
p2249
(dp2250
g15
(irule
Guard
p2251
(dp2252
g18
I00
sg19
(lp2253
sg21
I00
sg22
V
sg23
I00
sg24
S'L'
sbsg25
(irule
FeatureMatrix
p2254
(dp2255
g28
(lp2256
(I00
g524
tp2257
asg22
V[ -high ]
p2258
sbsg31
(irule
Guard
p2259
(dp2260
g18
I00
sg19
(lp2261
(irule
FeatureMatrix
p2262
(dp2263
g28
(lp2264
(I00
g590
tp2265
asg22
V[ -liquid ]
p2266
sba(irule
ConstantPhoneme
p2267
(dp2268
S'p'
Ve
sbasg21
I00
sg22
V[ -liquid ]* e
p2269
sg23
I01
sg24
S'R'
sbsg35
(irule
FeatureMatrix
p2270
(dp2271
g28
(lp2272
(I00
g533
tp2273
a(I01
g542
tp2274
asg22
V[ +vowel -low ]
p2275
sbsg22
V[ +vowel -low ] ---> [ -high ] /  _ [ -liquid ]* e
p2276
sba(irule
Rule
p2277
(dp2278
g15
(irule
Guard
p2279
(dp2280
g18
I00
sg19
(lp2281
sg21
I00
sg22
V
sg23
I00
sg24
S'L'
sbsg25
(irule
FeatureMatrix
p2282
(dp2283
g28
(lp2284
(I01
g883
tp2285
a(I00
g524
tp2286
asg22
V[ +sonorant -high ]
p2287
sbsg31
(irule
Guard
p2288
(dp2289
g18
I00
sg19
(lp2290
(irule
FeatureMatrix
p2291
(dp2292
g28
(lp2293
(I00
g590
tp2294
asg22
V[ -liquid ]
p2295
sba(irule
ConstantPhoneme
p2296
(dp2297
S'p'
Ve
sbasg21
I00
sg22
V[ -liquid ]* e
p2298
sg23
I01
sg24
S'R'
sbsg35
(irule
FeatureMatrix
p2299
(dp2300
g28
(lp2301
(I01
g542
tp2302
asg22
V[ +vowel ]
p2303
sbsg22
V[ +vowel ] ---> [ +sonorant -high ] /  _ [ -liquid ]* e
p2304
sba(irule
Rule
p2305
(dp2306
g15
(irule
Guard
p2307
(dp2308
g18
I00
sg19
(lp2309
sg21
I00
sg22
V
sg23
I00
sg24
S'L'
sbsg25
(irule
FeatureMatrix
p2310
(dp2311
g28
(lp2312
(I00
g694
tp2313
a(I00
g524
tp2314
asg22
V[ -high -nasal ]
p2315
sbsg31
(irule
Guard
p2316
(dp2317
g18
I00
sg19
(lp2318
(irule
FeatureMatrix
p2319
(dp2320
g28
(lp2321
(I00
g533
tp2322
asg22
V[ -low ]
p2323
sba(irule
ConstantPhoneme
p2324
(dp2325
S'p'
Ve
sbasg21
I00
sg22
V[ -low ]* e
p2326
sg23
I01
sg24
S'R'
sbsg35
(irule
FeatureMatrix
p2327
(dp2328
g28
(lp2329
(I01
g626
tp2330
asg22
V[ +tense ]
p2331
sbsg22
V[ +tense ] ---> [ -high -nasal ] /  _ [ -low ]* e
p2332
sba(irule
Rule
p2333
(dp2334
g15
(irule
Guard
p2335
(dp2336
g18
I00
sg19
(lp2337
sg21
I00
sg22
V
sg23
I00
sg24
S'L'
sbsg25
(irule
FeatureMatrix
p2338
(dp2339
g28
(lp2340
(I00
g524
tp2341
a(I00
g1112
tp2342
asg22
V[ -high -sibilant ]
p2343
sbsg31
(irule
Guard
p2344
(dp2345
g18
I00
sg19
(lp2346
(irule
FeatureMatrix
p2347
(dp2348
g28
(lp2349
(I00
g590
tp2350
asg22
V[ -liquid ]
p2351
sba(irule
ConstantPhoneme
p2352
(dp2353
S'p'
Ve
sbasg21
I00
sg22
V[ -liquid ]* e
p2354
sg23
I01
sg24
S'R'
sbsg35
(irule
FeatureMatrix
p2355
(dp2356
g28
(lp2357
(I01
g542
tp2358
asg22
V[ +vowel ]
p2359
sbsg22
V[ +vowel ] ---> [ -high -sibilant ] /  _ [ -liquid ]* e
p2360
sba(irule
Rule
p2361
(dp2362
g15
(irule
Guard
p2363
(dp2364
g18
I00
sg19
(lp2365
sg21
I00
sg22
V
sg23
I00
sg24
S'L'
sbsg25
(irule
FeatureMatrix
p2366
(dp2367
g28
(lp2368
(I00
g524
tp2369
asg22
V[ -high ]
p2370
sbsg31
(irule
Guard
p2371
(dp2372
g18
I00
sg19
(lp2373
(irule
FeatureMatrix
p2374
(dp2375
g28
(lp2376
(I00
g533
tp2377
asg22
V[ -low ]
p2378
sba(irule
ConstantPhoneme
p2379
(dp2380
S'p'
Ve
sbasg21
I00
sg22
V[ -low ]* e
p2381
sg23
I01
sg24
S'R'
sbsg35
(irule
FeatureMatrix
p2382
(dp2383
g28
(lp2384
(I01
g570
tp2385
a(I01
g524
tp2386
asg22
V[ +continuant +high ]
p2387
sbsg22
V[ +continuant +high ] ---> [ -high ] /  _ [ -low ]* e
p2388
sba(irule
Rule
p2389
(dp2390
g15
(irule
Guard
p2391
(dp2392
g18
I00
sg19
(lp2393
sg21
I00
sg22
V
sg23
I00
sg24
S'L'
sbsg25
(irule
FeatureMatrix
p2394
(dp2395
g28
(lp2396
(I00
g524
tp2397
asg22
V[ -high ]
p2398
sbsg31
(irule
Guard
p2399
(dp2400
g18
I00
sg19
(lp2401
(irule
FeatureMatrix
p2402
(dp2403
g28
(lp2404
(I00
g590
tp2405
asg22
V[ -liquid ]
p2406
sba(irule
ConstantPhoneme
p2407
(dp2408
S'p'
Ve
sbasg21
I00
sg22
V[ -liquid ]* e
p2409
sg23
I01
sg24
S'R'
sbsg35
(irule
FeatureMatrix
p2410
(dp2411
g28
(lp2412
(I01
g570
tp2413
a(I00
g1741
tp2414
asg22
V[ +continuant -coronal ]
p2415
sbsg22
V[ +continuant -coronal ] ---> [ -high ] /  _ [ -liquid ]* e
p2416
sba(irule
Rule
p2417
(dp2418
g15
(irule
Guard
p2419
(dp2420
g18
I00
sg19
(lp2421
sg21
I00
sg22
V
sg23
I00
sg24
S'L'
sbsg25
(irule
FeatureMatrix
p2422
(dp2423
g28
(lp2424
(I00
g524
tp2425
a(I01
g626
tp2426
asg22
V[ +tense -high ]
p2427
sbsg31
(irule
Guard
p2428
(dp2429
g18
I00
sg19
(lp2430
(irule
FeatureMatrix
p2431
(dp2432
g28
(lp2433
(I00
g590
tp2434
asg22
V[ -liquid ]
p2435
sba(irule
ConstantPhoneme
p2436
(dp2437
S'p'
Ve
sbasg21
I00
sg22
V[ -liquid ]* e
p2438
sg23
I01
sg24
S'R'
sbsg35
(irule
FeatureMatrix
p2439
(dp2440
g28
(lp2441
(I01
g626
tp2442
asg22
V[ +tense ]
p2443
sbsg22
V[ +tense ] ---> [ +tense -high ] /  _ [ -liquid ]* e
p2444
sba(irule
Rule
p2445
(dp2446
g15
(irule
Guard
p2447
(dp2448
g18
I00
sg19
(lp2449
sg21
I00
sg22
V
sg23
I00
sg24
S'L'
sbsg25
(irule
FeatureMatrix
p2450
(dp2451
g28
(lp2452
(I00
g524
tp2453
a(I01
g626
tp2454
asg22
V[ +tense -high ]
p2455
sbsg31
(irule
Guard
p2456
(dp2457
g18
I00
sg19
(lp2458
(irule
FeatureMatrix
p2459
(dp2460
g28
(lp2461
(I00
g533
tp2462
asg22
V[ -low ]
p2463
sba(irule
ConstantPhoneme
p2464
(dp2465
S'p'
Ve
sbasg21
I00
sg22
V[ -low ]* e
p2466
sg23
I01
sg24
S'R'
sbsg35
(irule
FeatureMatrix
p2467
(dp2468
g28
(lp2469
(I01
g626
tp2470
asg22
V[ +tense ]
p2471
sbsg22
V[ +tense ] ---> [ +tense -high ] /  _ [ -low ]* e
p2472
sba(irule
Rule
p2473
(dp2474
g15
(irule
Guard
p2475
(dp2476
g18
I00
sg19
(lp2477
sg21
I00
sg22
V
sg23
I00
sg24
S'L'
sbsg25
(irule
FeatureMatrix
p2478
(dp2479
g28
(lp2480
(I00
g524
tp2481
asg22
V[ -high ]
p2482
sbsg31
(irule
Guard
p2483
(dp2484
g18
I00
sg19
(lp2485
(irule
FeatureMatrix
p2486
(dp2487
g28
(lp2488
(I00
g533
tp2489
asg22
V[ -low ]
p2490
sba(irule
ConstantPhoneme
p2491
(dp2492
S'p'
Ve
sbasg21
I00
sg22
V[ -low ]* e
p2493
sg23
I01
sg24
S'R'
sbsg35
(irule
FeatureMatrix
p2494
(dp2495
g28
(lp2496
(I01
g542
tp2497
a(I01
g682
tp2498
asg22
V[ +voice +vowel ]
p2499
sbsg22
V[ +voice +vowel ] ---> [ -high ] /  _ [ -low ]* e
p2500
sba(irule
Rule
p2501
(dp2502
g15
(irule
Guard
p2503
(dp2504
g18
I00
sg19
(lp2505
sg21
I00
sg22
V
sg23
I00
sg24
S'L'
sbsg25
(irule
FeatureMatrix
p2506
(dp2507
g28
(lp2508
(I00
g590
tp2509
a(I00
g524
tp2510
asg22
V[ -high -liquid ]
p2511
sbsg31
(irule
Guard
p2512
(dp2513
g18
I00
sg19
(lp2514
(irule
FeatureMatrix
p2515
(dp2516
g28
(lp2517
(I00
g590
tp2518
asg22
V[ -liquid ]
p2519
sba(irule
ConstantPhoneme
p2520
(dp2521
S'p'
Ve
sbasg21
I00
sg22
V[ -liquid ]* e
p2522
sg23
I01
sg24
S'R'
sbsg35
(irule
FeatureMatrix
p2523
(dp2524
g28
(lp2525
(I01
g542
tp2526
asg22
V[ +vowel ]
p2527
sbsg22
V[ +vowel ] ---> [ -high -liquid ] /  _ [ -liquid ]* e
p2528
sba(irule
Rule
p2529
(dp2530
g15
(irule
Guard
p2531
(dp2532
g18
I00
sg19
(lp2533
sg21
I00
sg22
V
sg23
I00
sg24
S'L'
sbsg25
(irule
FeatureMatrix
p2534
(dp2535
g28
(lp2536
(I00
g524
tp2537
asg22
V[ -high ]
p2538
sbsg31
(irule
Guard
p2539
(dp2540
g18
I00
sg19
(lp2541
(irule
FeatureMatrix
p2542
(dp2543
g28
(lp2544
(I00
g590
tp2545
asg22
V[ -liquid ]
p2546
sba(irule
ConstantPhoneme
p2547
(dp2548
S'p'
Ve
sbasg21
I00
sg22
V[ -liquid ]* e
p2549
sg23
I01
sg24
S'R'
sbsg35
(irule
FeatureMatrix
p2550
(dp2551
g28
(lp2552
(I01
g542
tp2553
a(I01
g682
tp2554
asg22
V[ +voice +vowel ]
p2555
sbsg22
V[ +voice +vowel ] ---> [ -high ] /  _ [ -liquid ]* e
p2556
sba(irule
Rule
p2557
(dp2558
g15
(irule
Guard
p2559
(dp2560
g18
I00
sg19
(lp2561
sg21
I00
sg22
V
sg23
I00
sg24
S'L'
sbsg25
(irule
FeatureMatrix
p2562
(dp2563
g28
(lp2564
(I01
g570
tp2565
a(I00
g524
tp2566
asg22
V[ +continuant -high ]
p2567
sbsg31
(irule
Guard
p2568
(dp2569
g18
I00
sg19
(lp2570
(irule
FeatureMatrix
p2571
(dp2572
g28
(lp2573
(I00
g590
tp2574
asg22
V[ -liquid ]
p2575
sba(irule
ConstantPhoneme
p2576
(dp2577
S'p'
Ve
sbasg21
I00
sg22
V[ -liquid ]* e
p2578
sg23
I01
sg24
S'R'
sbsg35
(irule
FeatureMatrix
p2579
(dp2580
g28
(lp2581
(I01
g542
tp2582
asg22
V[ +vowel ]
p2583
sbsg22
V[ +vowel ] ---> [ +continuant -high ] /  _ [ -liquid ]* e
p2584
sba(irule
Rule
p2585
(dp2586
g15
(irule
Guard
p2587
(dp2588
g18
I00
sg19
(lp2589
sg21
I00
sg22
V
sg23
I00
sg24
S'L'
sbsg25
(irule
FeatureMatrix
p2590
(dp2591
g28
(lp2592
(I00
g524
tp2593
asg22
V[ -high ]
p2594
sbsg31
(irule
Guard
p2595
(dp2596
g18
I00
sg19
(lp2597
(irule
FeatureMatrix
p2598
(dp2599
g28
(lp2600
(I00
g533
tp2601
asg22
V[ -low ]
p2602
sba(irule
ConstantPhoneme
p2603
(dp2604
S'p'
Ve
sbasg21
I00
sg22
V[ -low ]* e
p2605
sg23
I01
sg24
S'R'
sbsg35
(irule
FeatureMatrix
p2606
(dp2607
g28
(lp2608
(I00
g590
tp2609
a(I01
g570
tp2610
asg22
V[ +continuant -liquid ]
p2611
sbsg22
V[ +continuant -liquid ] ---> [ -high ] /  _ [ -low ]* e
p2612
sba(irule
Rule
p2613
(dp2614
g15
(irule
Guard
p2615
(dp2616
g18
I00
sg19
(lp2617
sg21
I00
sg22
V
sg23
I00
sg24
S'L'
sbsg25
(irule
FeatureMatrix
p2618
(dp2619
g28
(lp2620
(I01
g570
tp2621
a(I00
g524
tp2622
asg22
V[ +continuant -high ]
p2623
sbsg31
(irule
Guard
p2624
(dp2625
g18
I00
sg19
(lp2626
(irule
FeatureMatrix
p2627
(dp2628
g28
(lp2629
(I00
g590
tp2630
asg22
V[ -liquid ]
p2631
sba(irule
ConstantPhoneme
p2632
(dp2633
S'p'
Ve
sbasg21
I00
sg22
V[ -liquid ]* e
p2634
sg23
I01
sg24
S'R'
sbsg35
(irule
FeatureMatrix
p2635
(dp2636
g28
(lp2637
(I01
g626
tp2638
asg22
V[ +tense ]
p2639
sbsg22
V[ +tense ] ---> [ +continuant -high ] /  _ [ -liquid ]* e
p2640
sba(irule
Rule
p2641
(dp2642
g15
(irule
Guard
p2643
(dp2644
g18
I00
sg19
(lp2645
sg21
I00
sg22
V
sg23
I00
sg24
S'L'
sbsg25
(irule
FeatureMatrix
p2646
(dp2647
g28
(lp2648
(I00
g590
tp2649
a(I00
g524
tp2650
asg22
V[ -high -liquid ]
p2651
sbsg31
(irule
Guard
p2652
(dp2653
g18
I00
sg19
(lp2654
(irule
FeatureMatrix
p2655
(dp2656
g28
(lp2657
(I00
g533
tp2658
asg22
V[ -low ]
p2659
sba(irule
ConstantPhoneme
p2660
(dp2661
S'p'
Ve
sbasg21
I00
sg22
V[ -low ]* e
p2662
sg23
I01
sg24
S'R'
sbsg35
(irule
FeatureMatrix
p2663
(dp2664
g28
(lp2665
(I01
g626
tp2666
asg22
V[ +tense ]
p2667
sbsg22
V[ +tense ] ---> [ -high -liquid ] /  _ [ -low ]* e
p2668
sba(irule
Rule
p2669
(dp2670
g15
(irule
Guard
p2671
(dp2672
g18
I00
sg19
(lp2673
sg21
I00
sg22
V
sg23
I00
sg24
S'L'
sbsg25
(irule
FeatureMatrix
p2674
(dp2675
g28
(lp2676
(I00
g524
tp2677
asg22
V[ -high ]
p2678
sbsg31
(irule
Guard
p2679
(dp2680
g18
I00
sg19
(lp2681
(irule
FeatureMatrix
p2682
(dp2683
g28
(lp2684
(I00
g590
tp2685
asg22
V[ -liquid ]
p2686
sba(irule
ConstantPhoneme
p2687
(dp2688
S'p'
Ve
sbasg21
I00
sg22
V[ -liquid ]* e
p2689
sg23
I01
sg24
S'R'
sbsg35
(irule
FeatureMatrix
p2690
(dp2691
g28
(lp2692
(I00
g694
tp2693
a(I01
g542
tp2694
asg22
V[ +vowel -nasal ]
p2695
sbsg22
V[ +vowel -nasal ] ---> [ -high ] /  _ [ -liquid ]* e
p2696
sba(irule
Rule
p2697
(dp2698
g15
(irule
Guard
p2699
(dp2700
g18
I00
sg19
(lp2701
sg21
I00
sg22
V
sg23
I00
sg24
S'L'
sbsg25
(irule
FeatureMatrix
p2702
(dp2703
g28
(lp2704
(I00
g694
tp2705
a(I00
g524
tp2706
asg22
V[ -high -nasal ]
p2707
sbsg31
(irule
Guard
p2708
(dp2709
g18
I00
sg19
(lp2710
(irule
FeatureMatrix
p2711
(dp2712
g28
(lp2713
(I00
g590
tp2714
asg22
V[ -liquid ]
p2715
sba(irule
ConstantPhoneme
p2716
(dp2717
S'p'
Ve
sbasg21
I00
sg22
V[ -liquid ]* e
p2718
sg23
I01
sg24
S'R'
sbsg35
(irule
FeatureMatrix
p2719
(dp2720
g28
(lp2721
(I01
g626
tp2722
asg22
V[ +tense ]
p2723
sbsg22
V[ +tense ] ---> [ -high -nasal ] /  _ [ -liquid ]* e
p2724
sba(irule
Rule
p2725
(dp2726
g15
(irule
Guard
p2727
(dp2728
g18
I00
sg19
(lp2729
sg21
I00
sg22
V
sg23
I00
sg24
S'L'
sbsg25
(irule
FeatureMatrix
p2730
(dp2731
g28
(lp2732
(I00
g524
tp2733
asg22
V[ -high ]
p2734
sbsg31
(irule
Guard
p2735
(dp2736
g18
I00
sg19
(lp2737
(irule
FeatureMatrix
p2738
(dp2739
g28
(lp2740
(I00
g533
tp2741
asg22
V[ -low ]
p2742
sba(irule
ConstantPhoneme
p2743
(dp2744
S'p'
Ve
sbasg21
I00
sg22
V[ -low ]* e
p2745
sg23
I01
sg24
S'R'
sbsg35
(irule
FeatureMatrix
p2746
(dp2747
g28
(lp2748
(I01
g883
tp2749
a(I01
g626
tp2750
asg22
V[ +sonorant +tense ]
p2751
sbsg22
V[ +sonorant +tense ] ---> [ -high ] /  _ [ -low ]* e
p2752
sba(irule
Rule
p2753
(dp2754
g15
(irule
Guard
p2755
(dp2756
g18
I00
sg19
(lp2757
sg21
I00
sg22
V
sg23
I00
sg24
S'L'
sbsg25
(irule
FeatureMatrix
p2758
(dp2759
g28
(lp2760
(I00
g524
tp2761
a(I00
g1741
tp2762
asg22
V[ -coronal -high ]
p2763
sbsg31
(irule
Guard
p2764
(dp2765
g18
I00
sg19
(lp2766
(irule
FeatureMatrix
p2767
(dp2768
g28
(lp2769
(I00
g590
tp2770
asg22
V[ -liquid ]
p2771
sba(irule
ConstantPhoneme
p2772
(dp2773
S'p'
Ve
sbasg21
I00
sg22
V[ -liquid ]* e
p2774
sg23
I01
sg24
S'R'
sbsg35
(irule
FeatureMatrix
p2775
(dp2776
g28
(lp2777
(I01
g542
tp2778
asg22
V[ +vowel ]
p2779
sbsg22
V[ +vowel ] ---> [ -coronal -high ] /  _ [ -liquid ]* e
p2780
sba(irule
Rule
p2781
(dp2782
g15
(irule
Guard
p2783
(dp2784
g18
I00
sg19
(lp2785
sg21
I00
sg22
V
sg23
I00
sg24
S'L'
sbsg25
(irule
FeatureMatrix
p2786
(dp2787
g28
(lp2788
(I00
g524
tp2789
a(I00
g1741
tp2790
asg22
V[ -coronal -high ]
p2791
sbsg31
(irule
Guard
p2792
(dp2793
g18
I00
sg19
(lp2794
(irule
FeatureMatrix
p2795
(dp2796
g28
(lp2797
(I00
g533
tp2798
asg22
V[ -low ]
p2799
sba(irule
ConstantPhoneme
p2800
(dp2801
S'p'
Ve
sbasg21
I00
sg22
V[ -low ]* e
p2802
sg23
I01
sg24
S'R'
sbsg35
(irule
FeatureMatrix
p2803
(dp2804
g28
(lp2805
(I01
g542
tp2806
asg22
V[ +vowel ]
p2807
sbsg22
V[ +vowel ] ---> [ -coronal -high ] /  _ [ -low ]* e
p2808
sba(irule
Rule
p2809
(dp2810
g15
(irule
Guard
p2811
(dp2812
g18
I00
sg19
(lp2813
sg21
I00
sg22
V
sg23
I00
sg24
S'L'
sbsg25
(irule
FeatureMatrix
p2814
(dp2815
g28
(lp2816
(I00
g694
tp2817
a(I00
g524
tp2818
asg22
V[ -high -nasal ]
p2819
sbsg31
(irule
Guard
p2820
(dp2821
g18
I00
sg19
(lp2822
(irule
FeatureMatrix
p2823
(dp2824
g28
(lp2825
(I00
g533
tp2826
asg22
V[ -low ]
p2827
sba(irule
ConstantPhoneme
p2828
(dp2829
S'p'
Ve
sbasg21
I00
sg22
V[ -low ]* e
p2830
sg23
I01
sg24
S'R'
sbsg35
(irule
FeatureMatrix
p2831
(dp2832
g28
(lp2833
(I01
g542
tp2834
asg22
V[ +vowel ]
p2835
sbsg22
V[ +vowel ] ---> [ -high -nasal ] /  _ [ -low ]* e
p2836
sba(irule
Rule
p2837
(dp2838
g15
(irule
Guard
p2839
(dp2840
g18
I00
sg19
(lp2841
sg21
I00
sg22
V
sg23
I00
sg24
S'L'
sbsg25
(irule
FeatureMatrix
p2842
(dp2843
g28
(lp2844
(I00
g524
tp2845
a(I00
g1741
tp2846
asg22
V[ -coronal -high ]
p2847
sbsg31
(irule
Guard
p2848
(dp2849
g18
I00
sg19
(lp2850
(irule
FeatureMatrix
p2851
(dp2852
g28
(lp2853
(I00
g533
tp2854
asg22
V[ -low ]
p2855
sba(irule
ConstantPhoneme
p2856
(dp2857
S'p'
Ve
sbasg21
I00
sg22
V[ -low ]* e
p2858
sg23
I01
sg24
S'R'
sbsg35
(irule
FeatureMatrix
p2859
(dp2860
g28
(lp2861
(I01
g626
tp2862
asg22
V[ +tense ]
p2863
sbsg22
V[ +tense ] ---> [ -coronal -high ] /  _ [ -low ]* e
p2864
sba(irule
Rule
p2865
(dp2866
g15
(irule
Guard
p2867
(dp2868
g18
I00
sg19
(lp2869
sg21
I00
sg22
V
sg23
I00
sg24
S'L'
sbsg25
(irule
FeatureMatrix
p2870
(dp2871
g28
(lp2872
(I00
g694
tp2873
a(I00
g524
tp2874
asg22
V[ -high -nasal ]
p2875
sbsg31
(irule
Guard
p2876
(dp2877
g18
I00
sg19
(lp2878
(irule
FeatureMatrix
p2879
(dp2880
g28
(lp2881
(I00
g590
tp2882
asg22
V[ -liquid ]
p2883
sba(irule
ConstantPhoneme
p2884
(dp2885
S'p'
Ve
sbasg21
I00
sg22
V[ -liquid ]* e
p2886
sg23
I01
sg24
S'R'
sbsg35
(irule
FeatureMatrix
p2887
(dp2888
g28
(lp2889
(I01
g542
tp2890
asg22
V[ +vowel ]
p2891
sbsg22
V[ +vowel ] ---> [ -high -nasal ] /  _ [ -liquid ]* e
p2892
sba(irule
Rule
p2893
(dp2894
g15
(irule
Guard
p2895
(dp2896
g18
I00
sg19
(lp2897
sg21
I00
sg22
V
sg23
I00
sg24
S'L'
sbsg25
(irule
FeatureMatrix
p2898
(dp2899
g28
(lp2900
(I00
g524
tp2901
a(I01
g542
tp2902
asg22
V[ +vowel -high ]
p2903
sbsg31
(irule
Guard
p2904
(dp2905
g18
I00
sg19
(lp2906
(irule
FeatureMatrix
p2907
(dp2908
g28
(lp2909
(I00
g533
tp2910
asg22
V[ -low ]
p2911
sba(irule
ConstantPhoneme
p2912
(dp2913
S'p'
Ve
sbasg21
I00
sg22
V[ -low ]* e
p2914
sg23
I01
sg24
S'R'
sbsg35
(irule
FeatureMatrix
p2915
(dp2916
g28
(lp2917
(I01
g626
tp2918
asg22
V[ +tense ]
p2919
sbsg22
V[ +tense ] ---> [ +vowel -high ] /  _ [ -low ]* e
p2920
sba(irule
Rule
p2921
(dp2922
g15
(irule
Guard
p2923
(dp2924
g18
I00
sg19
(lp2925
sg21
I00
sg22
V
sg23
I00
sg24
S'L'
sbsg25
(irule
FeatureMatrix
p2926
(dp2927
g28
(lp2928
(I00
g524
tp2929
a(I00
g1741
tp2930
asg22
V[ -coronal -high ]
p2931
sbsg31
(irule
Guard
p2932
(dp2933
g18
I00
sg19
(lp2934
(irule
FeatureMatrix
p2935
(dp2936
g28
(lp2937
(I00
g590
tp2938
asg22
V[ -liquid ]
p2939
sba(irule
ConstantPhoneme
p2940
(dp2941
S'p'
Ve
sbasg21
I00
sg22
V[ -liquid ]* e
p2942
sg23
I01
sg24
S'R'
sbsg35
(irule
FeatureMatrix
p2943
(dp2944
g28
(lp2945
(I01
g626
tp2946
asg22
V[ +tense ]
p2947
sbsg22
V[ +tense ] ---> [ -coronal -high ] /  _ [ -liquid ]* e
p2948
sba(irule
Rule
p2949
(dp2950
g15
(irule
Guard
p2951
(dp2952
g18
I00
sg19
(lp2953
sg21
I00
sg22
V
sg23
I00
sg24
S'L'
sbsg25
(irule
FeatureMatrix
p2954
(dp2955
g28
(lp2956
(I00
g1303
tp2957
a(I00
g524
tp2958
asg22
V[ -anterior -high ]
p2959
sbsg31
(irule
Guard
p2960
(dp2961
g18
I00
sg19
(lp2962
(irule
FeatureMatrix
p2963
(dp2964
g28
(lp2965
(I00
g533
tp2966
asg22
V[ -low ]
p2967
sba(irule
ConstantPhoneme
p2968
(dp2969
S'p'
Ve
sbasg21
I00
sg22
V[ -low ]* e
p2970
sg23
I01
sg24
S'R'
sbsg35
(irule
FeatureMatrix
p2971
(dp2972
g28
(lp2973
(I01
g626
tp2974
asg22
V[ +tense ]
p2975
sbsg22
V[ +tense ] ---> [ -anterior -high ] /  _ [ -low ]* e
p2976
sba(irule
Rule
p2977
(dp2978
g15
(irule
Guard
p2979
(dp2980
g18
I00
sg19
(lp2981
sg21
I00
sg22
V
sg23
I00
sg24
S'L'
sbsg25
(irule
FeatureMatrix
p2982
(dp2983
g28
(lp2984
(I00
g590
tp2985
a(I00
g524
tp2986
asg22
V[ -high -liquid ]
p2987
sbsg31
(irule
Guard
p2988
(dp2989
g18
I00
sg19
(lp2990
(irule
FeatureMatrix
p2991
(dp2992
g28
(lp2993
(I00
g590
tp2994
asg22
V[ -liquid ]
p2995
sba(irule
ConstantPhoneme
p2996
(dp2997
S'p'
Ve
sbasg21
I00
sg22
V[ -liquid ]* e
p2998
sg23
I01
sg24
S'R'
sbsg35
(irule
FeatureMatrix
p2999
(dp3000
g28
(lp3001
(I01
g626
tp3002
asg22
V[ +tense ]
p3003
sbsg22
V[ +tense ] ---> [ -high -liquid ] /  _ [ -liquid ]* e
p3004
sba(irule
Rule
p3005
(dp3006
g15
(irule
Guard
p3007
(dp3008
g18
I00
sg19
(lp3009
sg21
I00
sg22
V
sg23
I00
sg24
S'L'
sbsg25
(irule
FeatureMatrix
p3010
(dp3011
g28
(lp3012
(I00
g524
tp3013
asg22
V[ -high ]
p3014
sbsg31
(irule
Guard
p3015
(dp3016
g18
I00
sg19
(lp3017
(irule
FeatureMatrix
p3018
(dp3019
g28
(lp3020
(I00
g533
tp3021
asg22
V[ -low ]
p3022
sba(irule
ConstantPhoneme
p3023
(dp3024
S'p'
Ve
sbasg21
I00
sg22
V[ -low ]* e
p3025
sg23
I01
sg24
S'R'
sbsg35
(irule
FeatureMatrix
p3026
(dp3027
g28
(lp3028
(I01
g542
tp3029
a(I00
g1112
tp3030
asg22
V[ +vowel -sibilant ]
p3031
sbsg22
V[ +vowel -sibilant ] ---> [ -high ] /  _ [ -low ]* e
p3032
sba(irule
Rule
p3033
(dp3034
g15
(irule
Guard
p3035
(dp3036
g18
I00
sg19
(lp3037
sg21
I00
sg22
V
sg23
I00
sg24
S'L'
sbsg25
(irule
FeatureMatrix
p3038
(dp3039
g28
(lp3040
(I00
g524
tp3041
a(I01
g542
tp3042
asg22
V[ +vowel -high ]
p3043
sbsg31
(irule
Guard
p3044
(dp3045
g18
I00
sg19
(lp3046
(irule
FeatureMatrix
p3047
(dp3048
g28
(lp3049
(I00
g590
tp3050
asg22
V[ -liquid ]
p3051
sba(irule
ConstantPhoneme
p3052
(dp3053
S'p'
Ve
sbasg21
I00
sg22
V[ -liquid ]* e
p3054
sg23
I01
sg24
S'R'
sbsg35
(irule
FeatureMatrix
p3055
(dp3056
g28
(lp3057
(I01
g626
tp3058
asg22
V[ +tense ]
p3059
sbsg22
V[ +tense ] ---> [ +vowel -high ] /  _ [ -liquid ]* e
p3060
sba(irule
Rule
p3061
(dp3062
g15
(irule
Guard
p3063
(dp3064
g18
I00
sg19
(lp3065
sg21
I00
sg22
V
sg23
I00
sg24
S'L'
sbsg25
(irule
FeatureMatrix
p3066
(dp3067
g28
(lp3068
(I00
g524
tp3069
asg22
V[ -high ]
p3070
sbsg31
(irule
Guard
p3071
(dp3072
g18
I00
sg19
(lp3073
(irule
FeatureMatrix
p3074
(dp3075
g28
(lp3076
(I00
g590
tp3077
asg22
V[ -liquid ]
p3078
sba(irule
ConstantPhoneme
p3079
(dp3080
S'p'
Ve
sbasg21
I00
sg22
V[ -liquid ]* e
p3081
sg23
I01
sg24
S'R'
sbsg35
(irule
FeatureMatrix
p3082
(dp3083
g28
(lp3084
(I00
g590
tp3085
a(I01
g570
tp3086
asg22
V[ +continuant -liquid ]
p3087
sbsg22
V[ +continuant -liquid ] ---> [ -high ] /  _ [ -liquid ]* e
p3088
sba(irule
Rule
p3089
(dp3090
g15
(irule
Guard
p3091
(dp3092
g18
I00
sg19
(lp3093
sg21
I00
sg22
V
sg23
I00
sg24
S'L'
sbsg25
(irule
FeatureMatrix
p3094
(dp3095
g28
(lp3096
(I00
g524
tp3097
asg22
V[ -high ]
p3098
sbsg31
(irule
Guard
p3099
(dp3100
g18
I00
sg19
(lp3101
(irule
FeatureMatrix
p3102
(dp3103
g28
(lp3104
(I00
g533
tp3105
asg22
V[ -low ]
p3106
sba(irule
ConstantPhoneme
p3107
(dp3108
S'p'
Ve
sbasg21
I00
sg22
V[ -low ]* e
p3109
sg23
I01
sg24
S'R'
sbsg35
(irule
FeatureMatrix
p3110
(dp3111
g28
(lp3112
(I01
g570
tp3113
a(I01
g542
tp3114
asg22
V[ +continuant +vowel ]
p3115
sbsg22
V[ +continuant +vowel ] ---> [ -high ] /  _ [ -low ]* e
p3116
sba(irule
Rule
p3117
(dp3118
g15
(irule
Guard
p3119
(dp3120
g18
I00
sg19
(lp3121
sg21
I00
sg22
V
sg23
I00
sg24
S'L'
sbsg25
(irule
FeatureMatrix
p3122
(dp3123
g28
(lp3124
(I00
g524
tp3125
asg22
V[ -high ]
p3126
sbsg31
(irule
Guard
p3127
(dp3128
g18
I00
sg19
(lp3129
(irule
FeatureMatrix
p3130
(dp3131
g28
(lp3132
(I00
g590
tp3133
asg22
V[ -liquid ]
p3134
sba(irule
ConstantPhoneme
p3135
(dp3136
S'p'
Ve
sbasg21
I00
sg22
V[ -liquid ]* e
p3137
sg23
I01
sg24
S'R'
sbsg35
(irule
FeatureMatrix
p3138
(dp3139
g28
(lp3140
(I00
g694
tp3141
a(I01
g626
tp3142
asg22
V[ +tense -nasal ]
p3143
sbsg22
V[ +tense -nasal ] ---> [ -high ] /  _ [ -liquid ]* e
p3144
sba(irule
Rule
p3145
(dp3146
g15
(irule
Guard
p3147
(dp3148
g18
I00
sg19
(lp3149
sg21
I00
sg22
V
sg23
I00
sg24
S'L'
sbsg25
(irule
FeatureMatrix
p3150
(dp3151
g28
(lp3152
(I00
g524
tp3153
asg22
V[ -high ]
p3154
sbsg31
(irule
Guard
p3155
(dp3156
g18
I00
sg19
(lp3157
(irule
FeatureMatrix
p3158
(dp3159
g28
(lp3160
(I00
g590
tp3161
asg22
V[ -liquid ]
p3162
sba(irule
ConstantPhoneme
p3163
(dp3164
S'p'
Ve
sbasg21
I00
sg22
V[ -liquid ]* e
p3165
sg23
I01
sg24
S'R'
sbsg35
(irule
FeatureMatrix
p3166
(dp3167
g28
(lp3168
(I01
g570
tp3169
a(I01
g524
tp3170
asg22
V[ +continuant +high ]
p3171
sbsg22
V[ +continuant +high ] ---> [ -high ] /  _ [ -liquid ]* e
p3172
sba(irule
Rule
p3173
(dp3174
g15
(irule
Guard
p3175
(dp3176
g18
I00
sg19
(lp3177
sg21
I00
sg22
V
sg23
I00
sg24
S'L'
sbsg25
(irule
FeatureMatrix
p3178
(dp3179
g28
(lp3180
(I00
g524
tp3181
asg22
V[ -high ]
p3182
sbsg31
(irule
Guard
p3183
(dp3184
g18
I00
sg19
(lp3185
(irule
FeatureMatrix
p3186
(dp3187
g28
(lp3188
(I00
g533
tp3189
asg22
V[ -low ]
p3190
sba(irule
ConstantPhoneme
p3191
(dp3192
S'p'
Ve
sbasg21
I00
sg22
V[ -low ]* e
p3193
sg23
I01
sg24
S'R'
sbsg35
(irule
FeatureMatrix
p3194
(dp3195
g28
(lp3196
(I01
g570
tp3197
a(I01
g626
tp3198
asg22
V[ +continuant +tense ]
p3199
sbsg22
V[ +continuant +tense ] ---> [ -high ] /  _ [ -low ]* e
p3200
sba(irule
Rule
p3201
(dp3202
g15
(irule
Guard
p3203
(dp3204
g18
I00
sg19
(lp3205
sg21
I00
sg22
V
sg23
I00
sg24
S'L'
sbsg25
(irule
FeatureMatrix
p3206
(dp3207
g28
(lp3208
(I00
g524
tp3209
asg22
V[ -high ]
p3210
sbsg31
(irule
Guard
p3211
(dp3212
g18
I00
sg19
(lp3213
(irule
FeatureMatrix
p3214
(dp3215
g28
(lp3216
(I00
g590
tp3217
asg22
V[ -liquid ]
p3218
sba(irule
ConstantPhoneme
p3219
(dp3220
S'p'
Ve
sbasg21
I00
sg22
V[ -liquid ]* e
p3221
sg23
I01
sg24
S'R'
sbsg35
(irule
FeatureMatrix
p3222
(dp3223
g28
(lp3224
(I01
g883
tp3225
a(I01
g626
tp3226
asg22
V[ +sonorant +tense ]
p3227
sbsg22
V[ +sonorant +tense ] ---> [ -high ] /  _ [ -liquid ]* e
p3228
sba(irule
Rule
p3229
(dp3230
g15
(irule
Guard
p3231
(dp3232
g18
I00
sg19
(lp3233
sg21
I00
sg22
V
sg23
I00
sg24
S'L'
sbsg25
(irule
FeatureMatrix
p3234
(dp3235
g28
(lp3236
(I00
g524
tp3237
asg22
V[ -high ]
p3238
sbsg31
(irule
Guard
p3239
(dp3240
g18
I00
sg19
(lp3241
(irule
FeatureMatrix
p3242
(dp3243
g28
(lp3244
(I00
g590
tp3245
asg22
V[ -liquid ]
p3246
sba(irule
ConstantPhoneme
p3247
(dp3248
S'p'
Ve
sbasg21
I00
sg22
V[ -liquid ]* e
p3249
sg23
I01
sg24
S'R'
sbsg35
(irule
FeatureMatrix
p3250
(dp3251
g28
(lp3252
(I01
g570
tp3253
a(I01
g542
tp3254
asg22
V[ +continuant +vowel ]
p3255
sbsg22
V[ +continuant +vowel ] ---> [ -high ] /  _ [ -liquid ]* e
p3256
sba(irule
Rule
p3257
(dp3258
g15
(irule
Guard
p3259
(dp3260
g18
I00
sg19
(lp3261
sg21
I00
sg22
V
sg23
I00
sg24
S'L'
sbsg25
(irule
FeatureMatrix
p3262
(dp3263
g28
(lp3264
(I00
g524
tp3265
asg22
V[ -high ]
p3266
sbsg31
(irule
Guard
p3267
(dp3268
g18
I00
sg19
(lp3269
(irule
FeatureMatrix
p3270
(dp3271
g28
(lp3272
(I00
g533
tp3273
asg22
V[ -low ]
p3274
sba(irule
ConstantPhoneme
p3275
(dp3276
S'p'
Ve
sbasg21
I00
sg22
V[ -low ]* e
p3277
sg23
I01
sg24
S'R'
sbsg35
(irule
FeatureMatrix
p3278
(dp3279
g28
(lp3280
(I00
g1741
tp3281
a(I01
g542
tp3282
asg22
V[ +vowel -coronal ]
p3283
sbsg22
V[ +vowel -coronal ] ---> [ -high ] /  _ [ -low ]* e
p3284
sba(irule
Rule
p3285
(dp3286
g15
(irule
Guard
p3287
(dp3288
g18
I00
sg19
(lp3289
sg21
I00
sg22
V
sg23
I00
sg24
S'L'
sbsg25
(irule
FeatureMatrix
p3290
(dp3291
g28
(lp3292
(I00
g1303
tp3293
a(I00
g524
tp3294
asg22
V[ -anterior -high ]
p3295
sbsg31
(irule
Guard
p3296
(dp3297
g18
I00
sg19
(lp3298
(irule
FeatureMatrix
p3299
(dp3300
g28
(lp3301
(I00
g590
tp3302
asg22
V[ -liquid ]
p3303
sba(irule
ConstantPhoneme
p3304
(dp3305
S'p'
Ve
sbasg21
I00
sg22
V[ -liquid ]* e
p3306
sg23
I01
sg24
S'R'
sbsg35
(irule
FeatureMatrix
p3307
(dp3308
g28
(lp3309
(I01
g626
tp3310
asg22
V[ +tense ]
p3311
sbsg22
V[ +tense ] ---> [ -anterior -high ] /  _ [ -liquid ]* e
p3312
sbaasbsS'parameters'
p3313
g6
(cargparse
Namespace
p3314
g8
NtRp3315
(dp3316
S'restore'
p3317
NsS'features'
p3318
S'sophisticated'
p3319
sS'universal'
p3320
NsS'restrict'
p3321
NsS'seed'
p3322
NsS'serial'
p3323
I00
sS'cv'
p3324
I00
sS'alignment'
p3325
I00
sS'top'
p3326
I100
sS'maximumDepth'
p3327
I3
sS'window'
p3328
NsS'minimizeBits'
p3329
I5
sS'samples'
p3330
I30
sS'save'
p3331
NsS'resume'
p3332
I00
sS'disableClean'
p3333
I00
sS'stemBaseline'
p3334
I30
sS'dummy'
p3335
I00
sS'task'
p3336
S'incremental'
p3337
sS'geometry'
p3338
I01
sS'verbosity'
p3339
I0
sS'noConstant'
p3340
I00
sS'timeout'
p3341
F24
sS'debug'
p3342
NsS'cores'
p3343
I12
sg480
S'Odden_2.2_Kikuria'
p3344
sS'mergeFrontiers'
p3345
I00
sbsb.