(iresult
Result
p1
(dp2
S'startTime'
p3
F1593457783.016115
sS'solutionSequence'
p4
(lp5
(ccopy_reg
_reconstructor
p6
(csolution
Solution
p7
c__builtin__
object
p8
NtRp9
(dp10
S'rules'
p11
(lp12
(irule
Rule
p13
(dp14
S'leftTriggers'
p15
(irule
Guard
p16
(dp17
S'endOfString'
p18
I00
sS'specifications'
p19
(lp20
(irule
FeatureMatrix
p21
(dp22
S'featuresAndPolarities'
p23
(lp24
sS'representation'
p25
V[  ]
p26
sbasS'optionalEnding'
p27
I00
sg25
g26
sS'starred'
p28
I00
sS'side'
p29
S'L'
sbsS'structuralChange'
p30
(irule
ConstantPhoneme
p31
(dp32
S'p'
Vy
sbsS'rightTriggers'
p33
(irule
Guard
p34
(dp35
g18
I00
sg19
(lp36
sg27
I00
sg25
V
sg28
I00
sg29
S'R'
sbsS'focus'
p37
(irule
ConstantPhoneme
p38
(dp39
S'p'
Vk
sbsg25
Vk ---> y / [  ] _ 
p40
sbasS'prefixes'
p41
(lp42
(imorph
Morph
p43
(dp44
S'phonemes'
p45
(lp46
sba(imorph
Morph
p47
(dp48
g45
(lp49
Vn
aVo
asbasS'underlyingForms'
p50
(dp51
((imorph
Morph
p52
(dp53
g45
(lp54
Vt
aVo
aVn
aVi
aVr
aVo
asb(imorph
Morph
p55
(dp56
g45
(lp57
Vn
aVo
aVt
aVo
aVn
aVi
aVr
aVo
aVt
aVi
asbtp58
(imorph
Morph
p59
(dp60
g45
(lp61
Vt
aVo
aVn
aVi
aVr
aVo
asbs((imorph
Morph
p62
(dp63
g45
(lp64
Vy
aVa
aVa
aVr
aVa
aVt
aVo
asb(imorph
Morph
p65
(dp66
g45
(lp67
Vn
aVo
aVy
aVa
aVa
aVr
aVa
aVt
aVo
aVt
aVi
asbtp68
(imorph
Morph
p69
(dp70
g45
(lp71
Vy
aVa
aVa
aVr
aVa
aVt
aVo
asbs((imorph
Morph
(dp72
g45
(lp73
Vk
aVo
aVs
aVi
aVr
aVi
asb(imorph
Morph
(dp74
g45
(lp75
Vn
aVo
aVy
aVo
aVs
aVi
aVr
aVi
aVt
aVi
asbtp76
(imorph
Morph
p77
(dp78
g45
(lp79
Vk
aVo
aVs
aVi
aVr
aVi
asbs((imorph
Morph
p80
(dp81
g45
(lp82
Vk
aVa
aVn
aVa
aVr
aVi
asb(imorph
Morph
p83
(dp84
g45
(lp85
Vn
aVo
aVy
aVa
aVn
aVa
aVr
aVi
aVt
aVi
asbtp86
(imorph
Morph
p87
(dp88
g45
(lp89
Vk
aVa
aVn
aVa
aVr
aVi
asbssS'suffixes'
p90
(lp91
(imorph
Morph
p92
(dp93
g45
(lp94
sba(imorph
Morph
p95
(dp96
g45
(lp97
Vt
aVi
asbasbF39.109986066818237
tp98
a(g6
(g7
g8
NtRp99
(dp100
g11
(lp101
(irule
Rule
p102
(dp103
g15
(irule
Guard
p104
(dp105
g18
I00
sg19
(lp106
(irule
FeatureMatrix
p107
(dp108
g23
(lp109
sg25
V[  ]
p110
sbasg27
I00
sg25
g110
sg28
I00
sg29
S'L'
sbsg30
(irule
ConstantPhoneme
p111
(dp112
S'p'
Vy
sbsg33
(irule
Guard
p113
(dp114
g18
I00
sg19
(lp115
sg27
I00
sg25
V
sg28
I00
sg29
S'R'
sbsg37
(irule
ConstantPhoneme
p116
(dp117
S'p'
Vk
sbsg25
Vk ---> y / [  ] _ 
p118
sba(irule
Rule
p119
(dp120
g15
(irule
Guard
p121
(dp122
g18
I00
sg19
(lp123
(irule
FeatureMatrix
p124
(dp125
g23
(lp126
sg25
V[  ]
p127
sbasg27
I00
sg25
g127
sg28
I00
sg29
S'L'
sbsg30
(irule
ConstantPhoneme
p128
(dp129
S'p'
Vw
sbsg33
(irule
Guard
p130
(dp131
g18
I00
sg19
(lp132
sg27
I00
sg25
V
sg28
I00
sg29
S'R'
sbsg37
(irule
ConstantPhoneme
p133
(dp134
S'p'
Vp
sbsg25
Vp ---> w / [  ] _ 
p135
sbasg41
(lp136
(imorph
Morph
p137
(dp138
g45
(lp139
sba(imorph
Morph
p140
(dp141
g45
(lp142
Vn
aVo
asbasg50
(dp143
((imorph
Morph
(dp144
g45
(lp145
Vk
aVa
aVn
aVa
aVr
aVi
asb(imorph
Morph
(dp146
g45
(lp147
Vn
aVo
aVy
aVa
aVn
aVa
aVr
aVi
aVt
aVi
asbtp148
(imorph
Morph
p149
(dp150
g45
(lp151
Vk
aVa
aVn
aVa
aVr
aVi
asbs((imorph
Morph
(dp152
g45
(lp153
Vt
aVo
aVn
aVi
aVr
aVo
asb(imorph
Morph
(dp154
g45
(lp155
Vn
aVo
aVt
aVo
aVn
aVi
aVr
aVo
aVt
aVi
asbtp156
(imorph
Morph
p157
(dp158
g45
(lp159
Vt
aVo
aVn
aVi
aVr
aVo
asbs((imorph
Morph
(dp160
g45
(lp161
Vp
aVo
aVr
aVi
aVt
aVa
asb(imorph
Morph
(dp162
g45
(lp163
Vn
aVo
aVw
aVo
aVr
aVi
aVt
aVa
aVt
aVi
asbtp164
(imorph
Morph
p165
(dp166
g45
(lp167
Vp
aVo
aVr
aVi
aVt
aVa
asbs((imorph
Morph
(dp168
g45
(lp169
Vy
aVa
aVa
aVr
aVa
aVt
aVo
asb(imorph
Morph
(dp170
g45
(lp171
Vn
aVo
aVy
aVa
aVa
aVr
aVa
aVt
aVo
aVt
aVi
asbtp172
(imorph
Morph
p173
(dp174
g45
(lp175
Vy
aVa
aVa
aVr
aVa
aVt
aVo
asbs((imorph
Morph
(dp176
g45
(lp177
Vp
aVi
aVs
aVi
aVr
aVo
asb(imorph
Morph
(dp178
g45
(lp179
Vn
aVo
aVw
aVi
aVs
aVi
aVr
aVo
aVt
aVi
asbtp180
(imorph
Morph
p181
(dp182
g45
(lp183
Vp
aVi
aVs
aVi
aVr
aVo
asbs((imorph
Morph
(dp184
g45
(lp185
Vk
aVo
aVs
aVi
aVr
aVi
asb(imorph
Morph
(dp186
g45
(lp187
Vn
aVo
aVy
aVo
aVs
aVi
aVr
aVi
aVt
aVi
asbtp188
(imorph
Morph
p189
(dp190
g45
(lp191
Vk
aVo
aVs
aVi
aVr
aVi
asbssg90
(lp192
(imorph
Morph
p193
(dp194
g45
(lp195
sba(imorph
Morph
p196
(dp197
g45
(lp198
Vt
aVi
asbasbF1126.3757719993591
tp199
asS'problem'
p200
S'Odden_1.1_Axininca_Campa'
p201
sS'finalFrontier'
p202
g6
(csolution
Frontier
p203
g8
NtRp204
(dp205
g41
g136
sg90
g192
sg50
g143
sS'frontiers'
p206
(lp207
(lp208
(irule
Rule
p209
(dp210
g15
(irule
Guard
p211
(dp212
g18
I00
sg19
(lp213
(irule
FeatureMatrix
p214
(dp215
g23
(lp216
sg25
V[  ]
p217
sbasg27
I00
sg25
g217
sg28
I00
sg29
S'L'
sbsg30
(irule
ConstantPhoneme
p218
(dp219
S'p'
Vy
sbsg33
(irule
Guard
p220
(dp221
g18
I00
sg19
(lp222
sg27
I00
sg25
V
sg28
I00
sg29
S'R'
sbsg37
(irule
ConstantPhoneme
p223
(dp224
S'p'
Vk
sbsg25
Vk ---> y / [  ] _ 
p225
sba(irule
Rule
p226
(dp227
g15
(irule
Guard
p228
(dp229
g18
I00
sg19
(lp230
(irule
FeatureMatrix
p231
(dp232
g23
(lp233
sg25
V[  ]
p234
sbasg27
I00
sg25
g234
sg28
I00
sg29
S'L'
sbsg30
(irule
ConstantPhoneme
p235
(dp236
S'p'
Vy
sbsg33
(irule
Guard
p237
(dp238
g18
I00
sg19
(lp239
sg27
I00
sg25
V
sg28
I00
sg29
S'R'
sbsg37
(irule
FeatureMatrix
p240
(dp241
g23
(lp242
(I01
S'high'
p243
tp244
a(I00
S'voice'
p245
tp246
asg25
V[ +high -voice ]
p247
sbsg25
V[ +high -voice ] ---> y / [  ] _ 
p248
sba(irule
Rule
p249
(dp250
g15
(irule
Guard
p251
(dp252
g18
I00
sg19
(lp253
(irule
FeatureMatrix
p254
(dp255
g23
(lp256
sg25
V[  ]
p257
sbasg27
I00
sg25
g257
sg28
I00
sg29
S'L'
sbsg30
(irule
ConstantPhoneme
p258
(dp259
S'p'
Vy
sbsg33
(irule
Guard
p260
(dp261
g18
I00
sg19
(lp262
(irule
FeatureMatrix
p263
(dp264
g23
(lp265
sg25
V[  ]
p266
sbasg27
I00
sg25
g266
sg28
I00
sg29
S'R'
sbsg37
(irule
ConstantPhoneme
p267
(dp268
S'p'
Vk
sbsg25
Vk ---> y / [  ] _ [  ]
p269
sba(irule
Rule
p270
(dp271
g15
(irule
Guard
p272
(dp273
g18
I00
sg19
(lp274
(irule
FeatureMatrix
p275
(dp276
g23
(lp277
sg25
V[  ]
p278
sbasg27
I00
sg25
g278
sg28
I00
sg29
S'L'
sbsg30
(irule
ConstantPhoneme
p279
(dp280
S'p'
Vy
sbsg33
(irule
Guard
p281
(dp282
g18
I00
sg19
(lp283
sg27
I00
sg25
V
sg28
I00
sg29
S'R'
sbsg37
(irule
FeatureMatrix
p284
(dp285
g23
(lp286
(I01
S'back'
p287
tp288
a(I00
S'sonorant'
p289
tp290
asg25
V[ +back -sonorant ]
p291
sbsg25
V[ +back -sonorant ] ---> y / [  ] _ 
p292
sba(irule
Rule
p293
(dp294
g15
(irule
Guard
p295
(dp296
g18
I00
sg19
(lp297
(irule
FeatureMatrix
p298
(dp299
g23
(lp300
(I00
S'sibilant'
p301
tp302
asg25
V[ -sibilant ]
p303
sbasg27
I00
sg25
g303
sg28
I00
sg29
S'L'
sbsg30
(irule
ConstantPhoneme
p304
(dp305
S'p'
Vy
sbsg33
(irule
Guard
p306
(dp307
g18
I00
sg19
(lp308
sg27
I00
sg25
V
sg28
I00
sg29
S'R'
sbsg37
(irule
ConstantPhoneme
p309
(dp310
S'p'
Vk
sbsg25
Vk ---> y / [ -sibilant ] _ 
p311
sba(irule
Rule
p312
(dp313
g15
(irule
Guard
p314
(dp315
g18
I00
sg19
(lp316
(irule
FeatureMatrix
p317
(dp318
g23
(lp319
sg25
V[  ]
p320
sbasg27
I00
sg25
g320
sg28
I00
sg29
S'L'
sbsg30
(irule
ConstantPhoneme
p321
(dp322
S'p'
Vy
sbsg33
(irule
Guard
p323
(dp324
g18
I00
sg19
(lp325
sg27
I00
sg25
V
sg28
I00
sg29
S'R'
sbsg37
(irule
FeatureMatrix
p326
(dp327
g23
(lp328
(I00
S'continuant'
p329
tp330
a(I01
g243
tp331
asg25
V[ +high -continuant ]
p332
sbsg25
V[ +high -continuant ] ---> y / [  ] _ 
p333
sba(irule
Rule
p334
(dp335
g15
(irule
Guard
p336
(dp337
g18
I00
sg19
(lp338
(irule
FeatureMatrix
p339
(dp340
g23
(lp341
(I01
S'rounded'
p342
tp343
asg25
V[ +rounded ]
p344
sbasg27
I00
sg25
g344
sg28
I00
sg29
S'L'
sbsg30
(irule
ConstantPhoneme
p345
(dp346
S'p'
Vy
sbsg33
(irule
Guard
p347
(dp348
g18
I00
sg19
(lp349
sg27
I00
sg25
V
sg28
I00
sg29
S'R'
sbsg37
(irule
FeatureMatrix
p350
(dp351
g23
(lp352
(I01
g287
tp353
asg25
V[ +back ]
p354
sbsg25
V[ +back ] ---> y / [ +rounded ] _ 
p355
sba(irule
Rule
p356
(dp357
g15
(irule
Guard
p358
(dp359
g18
I00
sg19
(lp360
(irule
ConstantPhoneme
p361
(dp362
S'p'
Vo
sbasg27
I00
sg25
Vo
sg28
I00
sg29
S'L'
sbsg30
(irule
ConstantPhoneme
p363
(dp364
S'p'
Vy
sbsg33
(irule
Guard
p365
(dp366
g18
I00
sg19
(lp367
sg27
I00
sg25
V
sg28
I00
sg29
S'R'
sbsg37
(irule
FeatureMatrix
p368
(dp369
g23
(lp370
(I01
g287
tp371
asg25
V[ +back ]
p372
sbsg25
V[ +back ] ---> y / o _ 
p373
sba(irule
Rule
p374
(dp375
g15
(irule
Guard
p376
(dp377
g18
I00
sg19
(lp378
(irule
FeatureMatrix
p379
(dp380
g23
(lp381
sg25
V[  ]
p382
sbasg27
I00
sg25
g382
sg28
I00
sg29
S'L'
sbsg30
(irule
ConstantPhoneme
p383
(dp384
S'p'
Vy
sbsg33
(irule
Guard
p385
(dp386
g18
I00
sg19
(lp387
sg27
I00
sg25
V
sg28
I00
sg29
S'R'
sbsg37
(irule
FeatureMatrix
p388
(dp389
g23
(lp390
(I00
S'anterior'
p391
tp392
a(I00
g329
tp393
asg25
V[ -anterior -continuant ]
p394
sbsg25
V[ -anterior -continuant ] ---> y / [  ] _ 
p395
sba(irule
Rule
p396
(dp397
g15
(irule
Guard
p398
(dp399
g18
I00
sg19
(lp400
(irule
FeatureMatrix
p401
(dp402
g23
(lp403
(I01
S'vowel'
p404
tp405
asg25
V[ +vowel ]
p406
sbasg27
I00
sg25
g406
sg28
I00
sg29
S'L'
sbsg30
(irule
ConstantPhoneme
p407
(dp408
S'p'
Vy
sbsg33
(irule
Guard
p409
(dp410
g18
I00
sg19
(lp411
sg27
I00
sg25
V
sg28
I00
sg29
S'R'
sbsg37
(irule
FeatureMatrix
p412
(dp413
g23
(lp414
(I01
g243
tp415
asg25
V[ +high ]
p416
sbsg25
V[ +high ] ---> y / [ +vowel ] _ 
p417
sba(irule
Rule
p418
(dp419
g15
(irule
Guard
p420
(dp421
g18
I00
sg19
(lp422
(irule
FeatureMatrix
p423
(dp424
g23
(lp425
(I01
g245
tp426
asg25
V[ +voice ]
p427
sbasg27
I00
sg25
g427
sg28
I00
sg29
S'L'
sbsg30
(irule
ConstantPhoneme
p428
(dp429
S'p'
Vy
sbsg33
(irule
Guard
p430
(dp431
g18
I00
sg19
(lp432
sg27
I00
sg25
V
sg28
I00
sg29
S'R'
sbsg37
(irule
ConstantPhoneme
p433
(dp434
S'p'
Vk
sbsg25
Vk ---> y / [ +voice ] _ 
p435
sba(irule
Rule
p436
(dp437
g15
(irule
Guard
p438
(dp439
g18
I00
sg19
(lp440
(irule
FeatureMatrix
p441
(dp442
g23
(lp443
sg25
V[  ]
p444
sbasg27
I00
sg25
g444
sg28
I00
sg29
S'L'
sbsg30
(irule
ConstantPhoneme
p445
(dp446
S'p'
Vy
sbsg33
(irule
Guard
p447
(dp448
g18
I00
sg19
(lp449
sg27
I00
sg25
V
sg28
I00
sg29
S'R'
sbsg37
(irule
FeatureMatrix
p450
(dp451
g23
(lp452
(I01
g287
tp453
a(I00
g245
tp454
asg25
V[ +back -voice ]
p455
sbsg25
V[ +back -voice ] ---> y / [  ] _ 
p456
sba(irule
Rule
p457
(dp458
g15
(irule
Guard
p459
(dp460
g18
I00
sg19
(lp461
(irule
FeatureMatrix
p462
(dp463
g23
(lp464
(I00
S'nasal'
p465
tp466
asg25
V[ -nasal ]
p467
sbasg27
I00
sg25
g467
sg28
I00
sg29
S'L'
sbsg30
(irule
ConstantPhoneme
p468
(dp469
S'p'
Vy
sbsg33
(irule
Guard
p470
(dp471
g18
I00
sg19
(lp472
sg27
I00
sg25
V
sg28
I00
sg29
S'R'
sbsg37
(irule
ConstantPhoneme
p473
(dp474
S'p'
Vk
sbsg25
Vk ---> y / [ -nasal ] _ 
p475
sba(irule
Rule
p476
(dp477
g15
(irule
Guard
p478
(dp479
g18
I00
sg19
(lp480
(irule
FeatureMatrix
p481
(dp482
g23
(lp483
(I01
g404
tp484
asg25
V[ +vowel ]
p485
sbasg27
I00
sg25
g485
sg28
I00
sg29
S'L'
sbsg30
(irule
ConstantPhoneme
p486
(dp487
S'p'
Vy
sbsg33
(irule
Guard
p488
(dp489
g18
I00
sg19
(lp490
sg27
I00
sg25
V
sg28
I00
sg29
S'R'
sbsg37
(irule
ConstantPhoneme
p491
(dp492
S'p'
Vk
sbsg25
Vk ---> y / [ +vowel ] _ 
p493
sba(irule
Rule
p494
(dp495
g15
(irule
Guard
p496
(dp497
g18
I00
sg19
(lp498
(irule
FeatureMatrix
p499
(dp500
g23
(lp501
sg25
V[  ]
p502
sba(irule
FeatureMatrix
p503
(dp504
g23
(lp505
sg25
V[  ]
p506
sbasg27
I00
sg25
V[  ] [  ]
p507
sg28
I00
sg29
S'L'
sbsg30
(irule
ConstantPhoneme
p508
(dp509
S'p'
Vy
sbsg33
(irule
Guard
p510
(dp511
g18
I00
sg19
(lp512
sg27
I00
sg25
V
sg28
I00
sg29
S'R'
sbsg37
(irule
ConstantPhoneme
p513
(dp514
S'p'
Vk
sbsg25
Vk ---> y / [  ] [  ] _ 
p515
sba(irule
Rule
p516
(dp517
g15
(irule
Guard
p518
(dp519
g18
I00
sg19
(lp520
(irule
ConstantPhoneme
p521
(dp522
S'p'
Vo
sbasg27
I00
sg25
Vo
sg28
I00
sg29
S'L'
sbsg30
(irule
ConstantPhoneme
p523
(dp524
S'p'
Vy
sbsg33
(irule
Guard
p525
(dp526
g18
I00
sg19
(lp527
sg27
I00
sg25
V
sg28
I00
sg29
S'R'
sbsg37
(irule
FeatureMatrix
p528
(dp529
g23
(lp530
(I01
g243
tp531
asg25
V[ +high ]
p532
sbsg25
V[ +high ] ---> y / o _ 
p533
sba(irule
Rule
p534
(dp535
g15
(irule
Guard
p536
(dp537
g18
I00
sg19
(lp538
(irule
FeatureMatrix
p539
(dp540
g23
(lp541
sg25
V[  ]
p542
sbasg27
I00
sg25
g542
sg28
I00
sg29
S'L'
sbsg30
(irule
ConstantPhoneme
p543
(dp544
S'p'
Vy
sbsg33
(irule
Guard
p545
(dp546
g18
I00
sg19
(lp547
sg27
I00
sg25
V
sg28
I00
sg29
S'R'
sbsg37
(irule
FeatureMatrix
p548
(dp549
g23
(lp550
(I01
g287
tp551
a(I00
S'tense'
p552
tp553
asg25
V[ +back -tense ]
p554
sbsg25
V[ +back -tense ] ---> y / [  ] _ 
p555
sba(irule
Rule
p556
(dp557
g15
(irule
Guard
p558
(dp559
g18
I00
sg19
(lp560
(irule
FeatureMatrix
p561
(dp562
g23
(lp563
(I01
g552
tp564
asg25
V[ +tense ]
p565
sbasg27
I00
sg25
g565
sg28
I00
sg29
S'L'
sbsg30
(irule
ConstantPhoneme
p566
(dp567
S'p'
Vy
sbsg33
(irule
Guard
p568
(dp569
g18
I00
sg19
(lp570
sg27
I00
sg25
V
sg28
I00
sg29
S'R'
sbsg37
(irule
FeatureMatrix
p571
(dp572
g23
(lp573
(I01
g243
tp574
asg25
V[ +high ]
p575
sbsg25
V[ +high ] ---> y / [ +tense ] _ 
p576
sba(irule
Rule
p577
(dp578
g15
(irule
Guard
p579
(dp580
g18
I00
sg19
(lp581
(irule
FeatureMatrix
p582
(dp583
g23
(lp584
(I00
S'low'
p585
tp586
asg25
V[ -low ]
p587
sbasg27
I00
sg25
g587
sg28
I00
sg29
S'L'
sbsg30
(irule
ConstantPhoneme
p588
(dp589
S'p'
Vy
sbsg33
(irule
Guard
p590
(dp591
g18
I00
sg19
(lp592
sg27
I00
sg25
V
sg28
I00
sg29
S'R'
sbsg37
(irule
ConstantPhoneme
p593
(dp594
S'p'
Vk
sbsg25
Vk ---> y / [ -low ] _ 
p595
sba(irule
Rule
p596
(dp597
g15
(irule
Guard
p598
(dp599
g18
I00
sg19
(lp600
(irule
FeatureMatrix
p601
(dp602
g23
(lp603
(I01
g342
tp604
asg25
V[ +rounded ]
p605
sbasg27
I00
sg25
g605
sg28
I00
sg29
S'L'
sbsg30
(irule
ConstantPhoneme
p606
(dp607
S'p'
Vy
sbsg33
(irule
Guard
p608
(dp609
g18
I00
sg19
(lp610
sg27
I00
sg25
V
sg28
I00
sg29
S'R'
sbsg37
(irule
FeatureMatrix
p611
(dp612
g23
(lp613
(I01
g243
tp614
asg25
V[ +high ]
p615
sbsg25
V[ +high ] ---> y / [ +rounded ] _ 
p616
sba(irule
Rule
p617
(dp618
g15
(irule
Guard
p619
(dp620
g18
I00
sg19
(lp621
(irule
FeatureMatrix
p622
(dp623
g23
(lp624
(I01
g287
tp625
asg25
V[ +back ]
p626
sbasg27
I00
sg25
g626
sg28
I00
sg29
S'L'
sbsg30
(irule
ConstantPhoneme
p627
(dp628
S'p'
Vy
sbsg33
(irule
Guard
p629
(dp630
g18
I00
sg19
(lp631
sg27
I00
sg25
V
sg28
I00
sg29
S'R'
sbsg37
(irule
FeatureMatrix
p632
(dp633
g23
(lp634
(I01
g243
tp635
asg25
V[ +high ]
p636
sbsg25
V[ +high ] ---> y / [ +back ] _ 
p637
sba(irule
Rule
p638
(dp639
g15
(irule
Guard
p640
(dp641
g18
I00
sg19
(lp642
(irule
FeatureMatrix
p643
(dp644
g23
(lp645
sg25
V[  ]
p646
sbasg27
I00
sg25
g646
sg28
I00
sg29
S'L'
sbsg30
(irule
ConstantPhoneme
p647
(dp648
S'p'
Vy
sbsg33
(irule
Guard
p649
(dp650
g18
I00
sg19
(lp651
sg27
I00
sg25
V
sg28
I00
sg29
S'R'
sbsg37
(irule
FeatureMatrix
p652
(dp653
g23
(lp654
(I01
g287
tp655
a(I00
g404
tp656
asg25
V[ +back -vowel ]
p657
sbsg25
V[ +back -vowel ] ---> y / [  ] _ 
p658
sba(irule
Rule
p659
(dp660
g15
(irule
Guard
p661
(dp662
g18
I00
sg19
(lp663
(irule
FeatureMatrix
p664
(dp665
g23
(lp666
sg25
V[  ]
p667
sbasg27
I00
sg25
g667
sg28
I00
sg29
S'L'
sbsg30
(irule
ConstantPhoneme
p668
(dp669
S'p'
Vy
sbsg33
(irule
Guard
p670
(dp671
g18
I00
sg19
(lp672
sg27
I00
sg25
V
sg28
I00
sg29
S'R'
sbsg37
(irule
FeatureMatrix
p673
(dp674
g23
(lp675
(I00
g329
tp676
a(I01
g287
tp677
asg25
V[ +back -continuant ]
p678
sbsg25
V[ +back -continuant ] ---> y / [  ] _ 
p679
sba(irule
Rule
p680
(dp681
g15
(irule
Guard
p682
(dp683
g18
I00
sg19
(lp684
(irule
FeatureMatrix
p685
(dp686
g23
(lp687
(I01
g552
tp688
asg25
V[ +tense ]
p689
sbasg27
I00
sg25
g689
sg28
I00
sg29
S'L'
sbsg30
(irule
ConstantPhoneme
p690
(dp691
S'p'
Vy
sbsg33
(irule
Guard
p692
(dp693
g18
I00
sg19
(lp694
sg27
I00
sg25
V
sg28
I00
sg29
S'R'
sbsg37
(irule
ConstantPhoneme
p695
(dp696
S'p'
Vk
sbsg25
Vk ---> y / [ +tense ] _ 
p697
sba(irule
Rule
p698
(dp699
g15
(irule
Guard
p700
(dp701
g18
I00
sg19
(lp702
(irule
FeatureMatrix
p703
(dp704
g23
(lp705
(I00
S'palletized'
p706
tp707
asg25
V[ -palletized ]
p708
sbasg27
I00
sg25
g708
sg28
I00
sg29
S'L'
sbsg30
(irule
ConstantPhoneme
p709
(dp710
S'p'
Vy
sbsg33
(irule
Guard
p711
(dp712
g18
I00
sg19
(lp713
sg27
I00
sg25
V
sg28
I00
sg29
S'R'
sbsg37
(irule
ConstantPhoneme
p714
(dp715
S'p'
Vk
sbsg25
Vk ---> y / [ -palletized ] _ 
p716
sba(irule
Rule
p717
(dp718
g15
(irule
Guard
p719
(dp720
g18
I00
sg19
(lp721
(irule
FeatureMatrix
p722
(dp723
g23
(lp724
(I00
S'coronal'
p725
tp726
asg25
V[ -coronal ]
p727
sbasg27
I00
sg25
g727
sg28
I00
sg29
S'L'
sbsg30
(irule
ConstantPhoneme
p728
(dp729
S'p'
Vy
sbsg33
(irule
Guard
p730
(dp731
g18
I00
sg19
(lp732
sg27
I00
sg25
V
sg28
I00
sg29
S'R'
sbsg37
(irule
ConstantPhoneme
p733
(dp734
S'p'
Vk
sbsg25
Vk ---> y / [ -coronal ] _ 
p735
sba(irule
Rule
p736
(dp737
g15
(irule
Guard
p738
(dp739
g18
I00
sg19
(lp740
(irule
FeatureMatrix
p741
(dp742
g23
(lp743
(I00
g243
tp744
asg25
V[ -high ]
p745
sbasg27
I00
sg25
g745
sg28
I00
sg29
S'L'
sbsg30
(irule
ConstantPhoneme
p746
(dp747
S'p'
Vy
sbsg33
(irule
Guard
p748
(dp749
g18
I00
sg19
(lp750
sg27
I00
sg25
V
sg28
I00
sg29
S'R'
sbsg37
(irule
ConstantPhoneme
p751
(dp752
S'p'
Vk
sbsg25
Vk ---> y / [ -high ] _ 
p753
sba(irule
Rule
p754
(dp755
g15
(irule
Guard
p756
(dp757
g18
I00
sg19
(lp758
(irule
FeatureMatrix
p759
(dp760
g23
(lp761
(I00
S'liquid'
p762
tp763
asg25
V[ -liquid ]
p764
sbasg27
I00
sg25
g764
sg28
I00
sg29
S'L'
sbsg30
(irule
ConstantPhoneme
p765
(dp766
S'p'
Vy
sbsg33
(irule
Guard
p767
(dp768
g18
I00
sg19
(lp769
sg27
I00
sg25
V
sg28
I00
sg29
S'R'
sbsg37
(irule
ConstantPhoneme
p770
(dp771
S'p'
Vk
sbsg25
Vk ---> y / [ -liquid ] _ 
p772
sba(irule
Rule
p773
(dp774
g15
(irule
Guard
p775
(dp776
g18
I00
sg19
(lp777
(irule
FeatureMatrix
p778
(dp779
g23
(lp780
(I01
g342
tp781
asg25
V[ +rounded ]
p782
sbasg27
I00
sg25
g782
sg28
I00
sg29
S'L'
sbsg30
(irule
ConstantPhoneme
p783
(dp784
S'p'
Vy
sbsg33
(irule
Guard
p785
(dp786
g18
I00
sg19
(lp787
sg27
I00
sg25
V
sg28
I00
sg29
S'R'
sbsg37
(irule
ConstantPhoneme
p788
(dp789
S'p'
Vk
sbsg25
Vk ---> y / [ +rounded ] _ 
p790
sba(irule
Rule
p791
(dp792
g15
(irule
Guard
p793
(dp794
g18
I00
sg19
(lp795
(irule
FeatureMatrix
p796
(dp797
g23
(lp798
sg25
V[  ]
p799
sbasg27
I00
sg25
g799
sg28
I00
sg29
S'L'
sbsg30
(irule
ConstantPhoneme
p800
(dp801
S'p'
Vy
sbsg33
(irule
Guard
p802
(dp803
g18
I00
sg19
(lp804
sg27
I00
sg25
V
sg28
I00
sg29
S'R'
sbsg37
(irule
FeatureMatrix
p805
(dp806
g23
(lp807
(I00
g391
tp808
a(I00
g289
tp809
asg25
V[ -anterior -sonorant ]
p810
sbsg25
V[ -anterior -sonorant ] ---> y / [  ] _ 
p811
sba(irule
Rule
p812
(dp813
g15
(irule
Guard
p814
(dp815
g18
I00
sg19
(lp816
(irule
ConstantPhoneme
p817
(dp818
S'p'
Vo
sbasg27
I00
sg25
Vo
sg28
I00
sg29
S'L'
sbsg30
(irule
ConstantPhoneme
p819
(dp820
S'p'
Vy
sbsg33
(irule
Guard
p821
(dp822
g18
I00
sg19
(lp823
sg27
I00
sg25
V
sg28
I00
sg29
S'R'
sbsg37
(irule
ConstantPhoneme
p824
(dp825
S'p'
Vk
sbsg25
Vk ---> y / o _ 
p826
sba(irule
Rule
p827
(dp828
g15
(irule
Guard
p829
(dp830
g18
I00
sg19
(lp831
(irule
FeatureMatrix
p832
(dp833
g23
(lp834
sg25
V[  ]
p835
sbasg27
I00
sg25
g835
sg28
I00
sg29
S'L'
sbsg30
(irule
ConstantPhoneme
p836
(dp837
S'p'
Vy
sbsg33
(irule
Guard
p838
(dp839
g18
I00
sg19
(lp840
sg27
I00
sg25
V
sg28
I00
sg29
S'R'
sbsg37
(irule
FeatureMatrix
p841
(dp842
g23
(lp843
(I01
g287
tp844
a(I01
g243
tp845
asg25
V[ +back +high ]
p846
sbsg25
V[ +back +high ] ---> y / [  ] _ 
p847
sba(irule
Rule
p848
(dp849
g15
(irule
Guard
p850
(dp851
g18
I00
sg19
(lp852
(irule
FeatureMatrix
p853
(dp854
g23
(lp855
(I01
g329
tp856
asg25
V[ +continuant ]
p857
sbasg27
I00
sg25
g857
sg28
I00
sg29
S'L'
sbsg30
(irule
ConstantPhoneme
p858
(dp859
S'p'
Vy
sbsg33
(irule
Guard
p860
(dp861
g18
I00
sg19
(lp862
sg27
I00
sg25
V
sg28
I00
sg29
S'R'
sbsg37
(irule
ConstantPhoneme
p863
(dp864
S'p'
Vk
sbsg25
Vk ---> y / [ +continuant ] _ 
p865
sba(irule
Rule
p866
(dp867
g15
(irule
Guard
p868
(dp869
g18
I00
sg19
(lp870
(irule
FeatureMatrix
p871
(dp872
g23
(lp873
sg25
V[  ]
p874
sbasg27
I00
sg25
g874
sg28
I00
sg29
S'L'
sbsg30
(irule
ConstantPhoneme
p875
(dp876
S'p'
Vy
sbsg33
(irule
Guard
p877
(dp878
g18
I00
sg19
(lp879
sg27
I00
sg25
V
sg28
I00
sg29
S'R'
sbsg37
(irule
FeatureMatrix
p880
(dp881
g23
(lp882
(I01
g243
tp883
a(I00
g552
tp884
asg25
V[ +high -tense ]
p885
sbsg25
V[ +high -tense ] ---> y / [  ] _ 
p886
sba(irule
Rule
p887
(dp888
g15
(irule
Guard
p889
(dp890
g18
I00
sg19
(lp891
(irule
FeatureMatrix
p892
(dp893
g23
(lp894
sg25
V[  ]
p895
sbasg27
I00
sg25
g895
sg28
I00
sg29
S'L'
sbsg30
(irule
ConstantPhoneme
p896
(dp897
S'p'
Vy
sbsg33
(irule
Guard
p898
(dp899
g18
I00
sg19
(lp900
sg27
I00
sg25
V
sg28
I00
sg29
S'R'
sbsg37
(irule
FeatureMatrix
p901
(dp902
g23
(lp903
(I00
g391
tp904
a(I00
g245
tp905
asg25
V[ -anterior -voice ]
p906
sbsg25
V[ -anterior -voice ] ---> y / [  ] _ 
p907
sba(irule
Rule
p908
(dp909
g15
(irule
Guard
p910
(dp911
g18
I00
sg19
(lp912
(irule
FeatureMatrix
p913
(dp914
g23
(lp915
(I00
S'glide'
p916
tp917
asg25
V[ -glide ]
p918
sbasg27
I00
sg25
g918
sg28
I00
sg29
S'L'
sbsg30
(irule
ConstantPhoneme
p919
(dp920
S'p'
Vy
sbsg33
(irule
Guard
p921
(dp922
g18
I00
sg19
(lp923
sg27
I00
sg25
V
sg28
I00
sg29
S'R'
sbsg37
(irule
ConstantPhoneme
p924
(dp925
S'p'
Vk
sbsg25
Vk ---> y / [ -glide ] _ 
p926
sba(irule
Rule
p927
(dp928
g15
(irule
Guard
p929
(dp930
g18
I00
sg19
(lp931
(irule
FeatureMatrix
p932
(dp933
g23
(lp934
(I01
g287
tp935
asg25
V[ +back ]
p936
sbasg27
I00
sg25
g936
sg28
I00
sg29
S'L'
sbsg30
(irule
ConstantPhoneme
p937
(dp938
S'p'
Vy
sbsg33
(irule
Guard
p939
(dp940
g18
I00
sg19
(lp941
sg27
I00
sg25
V
sg28
I00
sg29
S'R'
sbsg37
(irule
ConstantPhoneme
p942
(dp943
S'p'
Vk
sbsg25
Vk ---> y / [ +back ] _ 
p944
sba(irule
Rule
p945
(dp946
g15
(irule
Guard
p947
(dp948
g18
I00
sg19
(lp949
(irule
FeatureMatrix
p950
(dp951
g23
(lp952
(I01
g289
tp953
asg25
V[ +sonorant ]
p954
sbasg27
I00
sg25
g954
sg28
I00
sg29
S'L'
sbsg30
(irule
ConstantPhoneme
p955
(dp956
S'p'
Vy
sbsg33
(irule
Guard
p957
(dp958
g18
I00
sg19
(lp959
sg27
I00
sg25
V
sg28
I00
sg29
S'R'
sbsg37
(irule
ConstantPhoneme
p960
(dp961
S'p'
Vk
sbsg25
Vk ---> y / [ +sonorant ] _ 
p962
sba(irule
Rule
p963
(dp964
g15
(irule
Guard
p965
(dp966
g18
I00
sg19
(lp967
(irule
FeatureMatrix
p968
(dp969
g23
(lp970
(I00
g391
tp971
asg25
V[ -anterior ]
p972
sbasg27
I00
sg25
g972
sg28
I00
sg29
S'L'
sbsg30
(irule
ConstantPhoneme
p973
(dp974
S'p'
Vy
sbsg33
(irule
Guard
p975
(dp976
g18
I00
sg19
(lp977
sg27
I00
sg25
V
sg28
I00
sg29
S'R'
sbsg37
(irule
ConstantPhoneme
p978
(dp979
S'p'
Vk
sbsg25
Vk ---> y / [ -anterior ] _ 
p980
sba(irule
Rule
p981
(dp982
g15
(irule
Guard
p983
(dp984
g18
I00
sg19
(lp985
(irule
FeatureMatrix
p986
(dp987
g23
(lp988
sg25
V[  ]
p989
sbasg27
I00
sg25
g989
sg28
I00
sg29
S'L'
sbsg30
(irule
ConstantPhoneme
p990
(dp991
S'p'
Vy
sbsg33
(irule
Guard
p992
(dp993
g18
I00
sg19
(lp994
sg27
I00
sg25
V
sg28
I00
sg29
S'R'
sbsg37
(irule
FeatureMatrix
p995
(dp996
g23
(lp997
(I01
g243
tp998
a(I00
g404
tp999
asg25
V[ +high -vowel ]
p1000
sbsg25
V[ +high -vowel ] ---> y / [  ] _ 
p1001
sba(irule
Rule
p1002
(dp1003
g15
(irule
Guard
p1004
(dp1005
g18
I00
sg19
(lp1006
(irule
FeatureMatrix
p1007
(dp1008
g23
(lp1009
sg25
V[  ]
p1010
sbasg27
I00
sg25
g1010
sg28
I00
sg29
S'L'
sbsg30
(irule
ConstantPhoneme
p1011
(dp1012
S'p'
Vy
sbsg33
(irule
Guard
p1013
(dp1014
g18
I00
sg19
(lp1015
sg27
I00
sg25
V
sg28
I00
sg29
S'R'
sbsg37
(irule
FeatureMatrix
p1016
(dp1017
g23
(lp1018
(I00
g289
tp1019
a(I01
g243
tp1020
asg25
V[ +high -sonorant ]
p1021
sbsg25
V[ +high -sonorant ] ---> y / [  ] _ 
p1022
sba(irule
Rule
p1023
(dp1024
g15
(irule
Guard
p1025
(dp1026
g18
I00
sg19
(lp1027
(irule
FeatureMatrix
p1028
(dp1029
g23
(lp1030
sg25
V[  ]
p1031
sbasg27
I00
sg25
g1031
sg28
I00
sg29
S'L'
sbsg30
(irule
ConstantPhoneme
p1032
(dp1033
S'p'
Vy
sbsg33
(irule
Guard
p1034
(dp1035
g18
I00
sg19
(lp1036
(irule
FeatureMatrix
p1037
(dp1038
g23
(lp1039
sg25
V[  ]
p1040
sba(irule
FeatureMatrix
p1041
(dp1042
g23
(lp1043
sg25
V[  ]
p1044
sbasg27
I00
sg25
V[  ] [  ]
p1045
sg28
I00
sg29
S'R'
sbsg37
(irule
ConstantPhoneme
p1046
(dp1047
S'p'
Vk
sbsg25
Vk ---> y / [  ] _ [  ] [  ]
p1048
sba(irule
Rule
p1049
(dp1050
g15
(irule
Guard
p1051
(dp1052
g18
I00
sg19
(lp1053
(irule
FeatureMatrix
p1054
(dp1055
g23
(lp1056
sg25
V[  ]
p1057
sbasg27
I00
sg25
g1057
sg28
I00
sg29
S'L'
sbsg30
(irule
ConstantPhoneme
p1058
(dp1059
S'p'
Vy
sbsg33
(irule
Guard
p1060
(dp1061
g18
I00
sg19
(lp1062
sg27
I00
sg25
V
sg28
I00
sg29
S'R'
sbsg37
(irule
FeatureMatrix
p1063
(dp1064
g23
(lp1065
(I01
g287
tp1066
a(I00
g706
tp1067
a(I00
g552
tp1068
asg25
V[ +back -palletized -tense ]
p1069
sbsg25
V[ +back -palletized -tense ] ---> y / [  ] _ 
p1070
sba(irule
Rule
p1071
(dp1072
g15
(irule
Guard
p1073
(dp1074
g18
I00
sg19
(lp1075
(irule
FeatureMatrix
p1076
(dp1077
g23
(lp1078
sg25
V[  ]
p1079
sbasg27
I00
sg25
g1079
sg28
I00
sg29
S'L'
sbsg30
(irule
ConstantPhoneme
p1080
(dp1081
S'p'
Vy
sbsg33
(irule
Guard
p1082
(dp1083
g18
I00
sg19
(lp1084
(irule
FeatureMatrix
p1085
(dp1086
g23
(lp1087
(I01
g287
tp1088
asg25
V[ +back ]
p1089
sbasg27
I00
sg25
g1089
sg28
I00
sg29
S'R'
sbsg37
(irule
ConstantPhoneme
p1090
(dp1091
S'p'
Vk
sbsg25
Vk ---> y / [  ] _ [ +back ]
p1092
sba(irule
Rule
p1093
(dp1094
g15
(irule
Guard
p1095
(dp1096
g18
I00
sg19
(lp1097
(irule
FeatureMatrix
p1098
(dp1099
g23
(lp1100
sg25
V[  ]
p1101
sbasg27
I00
sg25
g1101
sg28
I00
sg29
S'L'
sbsg30
(irule
ConstantPhoneme
p1102
(dp1103
S'p'
Vy
sbsg33
(irule
Guard
p1104
(dp1105
g18
I00
sg19
(lp1106
(irule
FeatureMatrix
p1107
(dp1108
g23
(lp1109
sg25
V[  ]
p1110
sbasg27
I00
sg25
g1110
sg28
I00
sg29
S'R'
sbsg37
(irule
FeatureMatrix
p1111
(dp1112
g23
(lp1113
(I01
g243
tp1114
a(I00
g404
tp1115
asg25
V[ +high -vowel ]
p1116
sbsg25
V[ +high -vowel ] ---> y / [  ] _ [  ]
p1117
sba(irule
Rule
p1118
(dp1119
g15
(irule
Guard
p1120
(dp1121
g18
I00
sg19
(lp1122
(irule
FeatureMatrix
p1123
(dp1124
g23
(lp1125
sg25
V[  ]
p1126
sbasg27
I00
sg25
g1126
sg28
I00
sg29
S'L'
sbsg30
(irule
ConstantPhoneme
p1127
(dp1128
S'p'
Vy
sbsg33
(irule
Guard
p1129
(dp1130
g18
I00
sg19
(lp1131
(irule
FeatureMatrix
p1132
(dp1133
g23
(lp1134
sg25
V[  ]
p1135
sbasg27
I00
sg25
g1135
sg28
I00
sg29
S'R'
sbsg37
(irule
FeatureMatrix
p1136
(dp1137
g23
(lp1138
(I01
g287
tp1139
a(I00
g404
tp1140
asg25
V[ +back -vowel ]
p1141
sbsg25
V[ +back -vowel ] ---> y / [  ] _ [  ]
p1142
sba(irule
Rule
p1143
(dp1144
g15
(irule
Guard
p1145
(dp1146
g18
I00
sg19
(lp1147
(irule
FeatureMatrix
p1148
(dp1149
g23
(lp1150
sg25
V[  ]
p1151
sbasg27
I00
sg25
g1151
sg28
I00
sg29
S'L'
sbsg30
(irule
ConstantPhoneme
p1152
(dp1153
S'p'
Vy
sbsg33
(irule
Guard
p1154
(dp1155
g18
I00
sg19
(lp1156
(irule
FeatureMatrix
p1157
(dp1158
g23
(lp1159
sg25
V[  ]
p1160
sbasg27
I00
sg25
g1160
sg28
I00
sg29
S'R'
sbsg37
(irule
FeatureMatrix
p1161
(dp1162
g23
(lp1163
(I01
g287
tp1164
a(I00
g552
tp1165
asg25
V[ +back -tense ]
p1166
sbsg25
V[ +back -tense ] ---> y / [  ] _ [  ]
p1167
sba(irule
Rule
p1168
(dp1169
g15
(irule
Guard
p1170
(dp1171
g18
I00
sg19
(lp1172
(irule
FeatureMatrix
p1173
(dp1174
g23
(lp1175
sg25
V[  ]
p1176
sbasg27
I00
sg25
g1176
sg28
I00
sg29
S'L'
sbsg30
(irule
ConstantPhoneme
p1177
(dp1178
S'p'
Vy
sbsg33
(irule
Guard
p1179
(dp1180
g18
I00
sg19
(lp1181
(irule
FeatureMatrix
p1182
(dp1183
g23
(lp1184
sg25
V[  ]
p1185
sbasg27
I00
sg25
g1185
sg28
I00
sg29
S'R'
sbsg37
(irule
FeatureMatrix
p1186
(dp1187
g23
(lp1188
(I01
g243
tp1189
a(I00
g552
tp1190
asg25
V[ +high -tense ]
p1191
sbsg25
V[ +high -tense ] ---> y / [  ] _ [  ]
p1192
sba(irule
Rule
p1193
(dp1194
g15
(irule
Guard
p1195
(dp1196
g18
I00
sg19
(lp1197
(irule
FeatureMatrix
p1198
(dp1199
g23
(lp1200
sg25
V[  ]
p1201
sbasg27
I00
sg25
g1201
sg28
I00
sg29
S'L'
sbsg30
(irule
ConstantPhoneme
p1202
(dp1203
S'p'
Vy
sbsg33
(irule
Guard
p1204
(dp1205
g18
I00
sg19
(lp1206
(irule
FeatureMatrix
p1207
(dp1208
g23
(lp1209
sg25
V[  ]
p1210
sbasg27
I00
sg25
g1210
sg28
I00
sg29
S'R'
sbsg37
(irule
FeatureMatrix
p1211
(dp1212
g23
(lp1213
(I01
g243
tp1214
a(I00
g245
tp1215
asg25
V[ +high -voice ]
p1216
sbsg25
V[ +high -voice ] ---> y / [  ] _ [  ]
p1217
sba(irule
Rule
p1218
(dp1219
g15
(irule
Guard
p1220
(dp1221
g18
I00
sg19
(lp1222
(irule
FeatureMatrix
p1223
(dp1224
g23
(lp1225
sg25
V[  ]
p1226
sbasg27
I00
sg25
g1226
sg28
I00
sg29
S'L'
sbsg30
(irule
ConstantPhoneme
p1227
(dp1228
S'p'
Vy
sbsg33
(irule
Guard
p1229
(dp1230
g18
I00
sg19
(lp1231
(irule
FeatureMatrix
p1232
(dp1233
g23
(lp1234
(I01
g404
tp1235
asg25
V[ +vowel ]
p1236
sbasg27
I00
sg25
g1236
sg28
I00
sg29
S'R'
sbsg37
(irule
FeatureMatrix
p1237
(dp1238
g23
(lp1239
(I01
g243
tp1240
asg25
V[ +high ]
p1241
sbsg25
V[ +high ] ---> y / [  ] _ [ +vowel ]
p1242
sba(irule
Rule
p1243
(dp1244
g15
(irule
Guard
p1245
(dp1246
g18
I00
sg19
(lp1247
(irule
FeatureMatrix
p1248
(dp1249
g23
(lp1250
sg25
V[  ]
p1251
sbasg27
I00
sg25
g1251
sg28
I00
sg29
S'L'
sbsg30
(irule
ConstantPhoneme
p1252
(dp1253
S'p'
Vy
sbsg33
(irule
Guard
p1254
(dp1255
g18
I00
sg19
(lp1256
(irule
FeatureMatrix
p1257
(dp1258
g23
(lp1259
sg25
V[  ]
p1260
sbasg27
I00
sg25
g1260
sg28
I00
sg29
S'R'
sbsg37
(irule
FeatureMatrix
p1261
(dp1262
g23
(lp1263
(I00
g391
tp1264
a(I00
g245
tp1265
asg25
V[ -anterior -voice ]
p1266
sbsg25
V[ -anterior -voice ] ---> y / [  ] _ [  ]
p1267
sba(irule
Rule
p1268
(dp1269
g15
(irule
Guard
p1270
(dp1271
g18
I00
sg19
(lp1272
(irule
FeatureMatrix
p1273
(dp1274
g23
(lp1275
sg25
V[  ]
p1276
sbasg27
I00
sg25
g1276
sg28
I00
sg29
S'L'
sbsg30
(irule
ConstantPhoneme
p1277
(dp1278
S'p'
Vy
sbsg33
(irule
Guard
p1279
(dp1280
g18
I00
sg19
(lp1281
(irule
FeatureMatrix
p1282
(dp1283
g23
(lp1284
sg25
V[  ]
p1285
sbasg27
I00
sg25
g1285
sg28
I00
sg29
S'R'
sbsg37
(irule
FeatureMatrix
p1286
(dp1287
g23
(lp1288
(I00
g289
tp1289
a(I01
g243
tp1290
asg25
V[ +high -sonorant ]
p1291
sbsg25
V[ +high -sonorant ] ---> y / [  ] _ [  ]
p1292
sba(irule
Rule
p1293
(dp1294
g15
(irule
Guard
p1295
(dp1296
g18
I00
sg19
(lp1297
(irule
FeatureMatrix
p1298
(dp1299
g23
(lp1300
sg25
V[  ]
p1301
sbasg27
I00
sg25
g1301
sg28
I00
sg29
S'L'
sbsg30
(irule
ConstantPhoneme
p1302
(dp1303
S'p'
Vy
sbsg33
(irule
Guard
p1304
(dp1305
g18
I00
sg19
(lp1306
(irule
FeatureMatrix
p1307
(dp1308
g23
(lp1309
(I01
g245
tp1310
asg25
V[ +voice ]
p1311
sbasg27
I00
sg25
g1311
sg28
I00
sg29
S'R'
sbsg37
(irule
ConstantPhoneme
p1312
(dp1313
S'p'
Vk
sbsg25
Vk ---> y / [  ] _ [ +voice ]
p1314
sba(irule
Rule
p1315
(dp1316
g15
(irule
Guard
p1317
(dp1318
g18
I00
sg19
(lp1319
(irule
FeatureMatrix
p1320
(dp1321
g23
(lp1322
sg25
V[  ]
p1323
sbasg27
I00
sg25
g1323
sg28
I00
sg29
S'L'
sbsg30
(irule
ConstantPhoneme
p1324
(dp1325
S'p'
Vy
sbsg33
(irule
Guard
p1326
(dp1327
g18
I00
sg19
(lp1328
(irule
FeatureMatrix
p1329
(dp1330
g23
(lp1331
(I00
g301
tp1332
asg25
V[ -sibilant ]
p1333
sbasg27
I00
sg25
g1333
sg28
I00
sg29
S'R'
sbsg37
(irule
ConstantPhoneme
p1334
(dp1335
S'p'
Vk
sbsg25
Vk ---> y / [  ] _ [ -sibilant ]
p1336
sba(irule
Rule
p1337
(dp1338
g15
(irule
Guard
p1339
(dp1340
g18
I00
sg19
(lp1341
(irule
FeatureMatrix
p1342
(dp1343
g23
(lp1344
sg25
V[  ]
p1345
sbasg27
I00
sg25
g1345
sg28
I00
sg29
S'L'
sbsg30
(irule
ConstantPhoneme
p1346
(dp1347
S'p'
Vy
sbsg33
(irule
Guard
p1348
(dp1349
g18
I00
sg19
(lp1350
(irule
FeatureMatrix
p1351
(dp1352
g23
(lp1353
(I01
g404
tp1354
asg25
V[ +vowel ]
p1355
sbasg27
I00
sg25
g1355
sg28
I00
sg29
S'R'
sbsg37
(irule
ConstantPhoneme
p1356
(dp1357
S'p'
Vk
sbsg25
Vk ---> y / [  ] _ [ +vowel ]
p1358
sba(irule
Rule
p1359
(dp1360
g15
(irule
Guard
p1361
(dp1362
g18
I00
sg19
(lp1363
(irule
FeatureMatrix
p1364
(dp1365
g23
(lp1366
sg25
V[  ]
p1367
sbasg27
I00
sg25
g1367
sg28
I00
sg29
S'L'
sbsg30
(irule
ConstantPhoneme
p1368
(dp1369
S'p'
Vy
sbsg33
(irule
Guard
p1370
(dp1371
g18
I00
sg19
(lp1372
(irule
FeatureMatrix
p1373
(dp1374
g23
(lp1375
sg25
V[  ]
p1376
sbasg27
I00
sg25
g1376
sg28
I00
sg29
S'R'
sbsg37
(irule
FeatureMatrix
p1377
(dp1378
g23
(lp1379
(I00
g329
tp1380
a(I01
g243
tp1381
asg25
V[ +high -continuant ]
p1382
sbsg25
V[ +high -continuant ] ---> y / [  ] _ [  ]
p1383
sba(irule
Rule
p1384
(dp1385
g15
(irule
Guard
p1386
(dp1387
g18
I00
sg19
(lp1388
(irule
FeatureMatrix
p1389
(dp1390
g23
(lp1391
sg25
V[  ]
p1392
sbasg27
I00
sg25
g1392
sg28
I00
sg29
S'L'
sbsg30
(irule
ConstantPhoneme
p1393
(dp1394
S'p'
Vy
sbsg33
(irule
Guard
p1395
(dp1396
g18
I00
sg19
(lp1397
(irule
FeatureMatrix
p1398
(dp1399
g23
(lp1400
sg25
V[  ]
p1401
sbasg27
I00
sg25
g1401
sg28
I00
sg29
S'R'
sbsg37
(irule
FeatureMatrix
p1402
(dp1403
g23
(lp1404
(I01
g287
tp1405
a(I00
g245
tp1406
asg25
V[ +back -voice ]
p1407
sbsg25
V[ +back -voice ] ---> y / [  ] _ [  ]
p1408
sba(irule
Rule
p1409
(dp1410
g15
(irule
Guard
p1411
(dp1412
g18
I00
sg19
(lp1413
(irule
FeatureMatrix
p1414
(dp1415
g23
(lp1416
(I00
g706
tp1417
a(I00
g725
tp1418
asg25
V[ -coronal -palletized ]
p1419
sbasg27
I00
sg25
g1419
sg28
I00
sg29
S'L'
sbsg30
(irule
ConstantPhoneme
p1420
(dp1421
S'p'
Vy
sbsg33
(irule
Guard
p1422
(dp1423
g18
I00
sg19
(lp1424
sg27
I00
sg25
V
sg28
I00
sg29
S'R'
sbsg37
(irule
ConstantPhoneme
p1425
(dp1426
S'p'
Vk
sbsg25
Vk ---> y / [ -coronal -palletized ] _ 
p1427
sba(irule
Rule
p1428
(dp1429
g15
(irule
Guard
p1430
(dp1431
g18
I00
sg19
(lp1432
(irule
FeatureMatrix
p1433
(dp1434
g23
(lp1435
sg25
V[  ]
p1436
sbasg27
I00
sg25
g1436
sg28
I00
sg29
S'L'
sbsg30
(irule
ConstantPhoneme
p1437
(dp1438
S'p'
Vy
sbsg33
(irule
Guard
p1439
(dp1440
g18
I00
sg19
(lp1441
(irule
FeatureMatrix
p1442
(dp1443
g23
(lp1444
sg25
V[  ]
p1445
sbasg27
I00
sg25
g1445
sg28
I00
sg29
S'R'
sbsg37
(irule
FeatureMatrix
p1446
(dp1447
g23
(lp1448
(I01
g287
tp1449
a(I00
g289
tp1450
asg25
V[ +back -sonorant ]
p1451
sbsg25
V[ +back -sonorant ] ---> y / [  ] _ [  ]
p1452
sba(irule
Rule
p1453
(dp1454
g15
(irule
Guard
p1455
(dp1456
g18
I00
sg19
(lp1457
(irule
FeatureMatrix
p1458
(dp1459
g23
(lp1460
sg25
V[  ]
p1461
sbasg27
I00
sg25
g1461
sg28
I00
sg29
S'L'
sbsg30
(irule
ConstantPhoneme
p1462
(dp1463
S'p'
Vy
sbsg33
(irule
Guard
p1464
(dp1465
g18
I00
sg19
(lp1466
(irule
FeatureMatrix
p1467
(dp1468
g23
(lp1469
sg25
V[  ]
p1470
sbasg27
I00
sg25
g1470
sg28
I00
sg29
S'R'
sbsg37
(irule
FeatureMatrix
p1471
(dp1472
g23
(lp1473
(I00
g391
tp1474
a(I00
g329
tp1475
asg25
V[ -anterior -continuant ]
p1476
sbsg25
V[ -anterior -continuant ] ---> y / [  ] _ [  ]
p1477
sba(irule
Rule
p1478
(dp1479
g15
(irule
Guard
p1480
(dp1481
g18
I00
sg19
(lp1482
(irule
FeatureMatrix
p1483
(dp1484
g23
(lp1485
sg25
V[  ]
p1486
sbasg27
I00
sg25
g1486
sg28
I00
sg29
S'L'
sbsg30
(irule
ConstantPhoneme
p1487
(dp1488
S'p'
Vy
sbsg33
(irule
Guard
p1489
(dp1490
g18
I00
sg19
(lp1491
(irule
FeatureMatrix
p1492
(dp1493
g23
(lp1494
sg25
V[  ]
p1495
sbasg27
I00
sg25
g1495
sg28
I00
sg29
S'R'
sbsg37
(irule
FeatureMatrix
p1496
(dp1497
g23
(lp1498
(I00
g329
tp1499
a(I01
g287
tp1500
asg25
V[ +back -continuant ]
p1501
sbsg25
V[ +back -continuant ] ---> y / [  ] _ [  ]
p1502
sba(irule
Rule
p1503
(dp1504
g15
(irule
Guard
p1505
(dp1506
g18
I00
sg19
(lp1507
(irule
FeatureMatrix
p1508
(dp1509
g23
(lp1510
sg25
V[  ]
p1511
sbasg27
I00
sg25
g1511
sg28
I00
sg29
S'L'
sbsg30
(irule
ConstantPhoneme
p1512
(dp1513
S'p'
Vy
sbsg33
(irule
Guard
p1514
(dp1515
g18
I00
sg19
(lp1516
sg27
I00
sg25
V
sg28
I00
sg29
S'R'
sbsg37
(irule
FeatureMatrix
p1517
(dp1518
g23
(lp1519
(I00
g329
tp1520
a(I01
g287
tp1521
a(I00
g301
tp1522
asg25
V[ +back -continuant -sibilant ]
p1523
sbsg25
V[ +back -continuant -sibilant ] ---> y / [  ] _ 
p1524
sba(irule
Rule
p1525
(dp1526
g15
(irule
Guard
p1527
(dp1528
g18
I00
sg19
(lp1529
(irule
FeatureMatrix
p1530
(dp1531
g23
(lp1532
(I00
g585
tp1533
asg25
V[ -low ]
p1534
sbasg27
I00
sg25
g1534
sg28
I00
sg29
S'L'
sbsg30
(irule
ConstantPhoneme
p1535
(dp1536
S'p'
Vy
sbsg33
(irule
Guard
p1537
(dp1538
g18
I00
sg19
(lp1539
(irule
FeatureMatrix
p1540
(dp1541
g23
(lp1542
sg25
V[  ]
p1543
sbasg27
I00
sg25
g1543
sg28
I00
sg29
S'R'
sbsg37
(irule
ConstantPhoneme
p1544
(dp1545
S'p'
Vk
sbsg25
Vk ---> y / [ -low ] _ [  ]
p1546
sba(irule
Rule
p1547
(dp1548
g15
(irule
Guard
p1549
(dp1550
g18
I00
sg19
(lp1551
(irule
FeatureMatrix
p1552
(dp1553
g23
(lp1554
sg25
V[  ]
p1555
sbasg27
I00
sg25
g1555
sg28
I00
sg29
S'L'
sbsg30
(irule
ConstantPhoneme
p1556
(dp1557
S'p'
Vy
sbsg33
(irule
Guard
p1558
(dp1559
g18
I00
sg19
(lp1560
(irule
FeatureMatrix
p1561
(dp1562
g23
(lp1563
sg25
V[  ]
p1564
sbasg27
I00
sg25
g1564
sg28
I00
sg29
S'R'
sbsg37
(irule
FeatureMatrix
p1565
(dp1566
g23
(lp1567
(I00
g391
tp1568
a(I00
g289
tp1569
asg25
V[ -anterior -sonorant ]
p1570
sbsg25
V[ -anterior -sonorant ] ---> y / [  ] _ [  ]
p1571
sba(irule
Rule
p1572
(dp1573
g15
(irule
Guard
p1574
(dp1575
g18
I00
sg19
(lp1576
(irule
FeatureMatrix
p1577
(dp1578
g23
(lp1579
sg25
V[  ]
p1580
sbasg27
I00
sg25
g1580
sg28
I00
sg29
S'L'
sbsg30
(irule
ConstantPhoneme
p1581
(dp1582
S'p'
Vy
sbsg33
(irule
Guard
p1583
(dp1584
g18
I00
sg19
(lp1585
(irule
FeatureMatrix
p1586
(dp1587
g23
(lp1588
sg25
V[  ]
p1589
sbasg27
I00
sg25
g1589
sg28
I00
sg29
S'R'
sbsg37
(irule
FeatureMatrix
p1590
(dp1591
g23
(lp1592
(I01
g287
tp1593
a(I01
g243
tp1594
asg25
V[ +back +high ]
p1595
sbsg25
V[ +back +high ] ---> y / [  ] _ [  ]
p1596
sba(irule
Rule
p1597
(dp1598
g15
(irule
Guard
p1599
(dp1600
g18
I00
sg19
(lp1601
(irule
FeatureMatrix
p1602
(dp1603
g23
(lp1604
sg25
V[  ]
p1605
sbasg27
I00
sg25
g1605
sg28
I00
sg29
S'L'
sbsg30
(irule
ConstantPhoneme
p1606
(dp1607
S'p'
Vy
sbsg33
(irule
Guard
p1608
(dp1609
g18
I00
sg19
(lp1610
(irule
FeatureMatrix
p1611
(dp1612
g23
(lp1613
(I00
g725
tp1614
asg25
V[ -coronal ]
p1615
sbasg27
I00
sg25
g1615
sg28
I00
sg29
S'R'
sbsg37
(irule
ConstantPhoneme
p1616
(dp1617
S'p'
Vk
sbsg25
Vk ---> y / [  ] _ [ -coronal ]
p1618
sba(irule
Rule
p1619
(dp1620
g15
(irule
Guard
p1621
(dp1622
g18
I00
sg19
(lp1623
(irule
FeatureMatrix
p1624
(dp1625
g23
(lp1626
sg25
V[  ]
p1627
sbasg27
I00
sg25
g1627
sg28
I00
sg29
S'L'
sbsg30
(irule
ConstantPhoneme
p1628
(dp1629
S'p'
Vy
sbsg33
(irule
Guard
p1630
(dp1631
g18
I00
sg19
(lp1632
sg27
I00
sg25
V
sg28
I00
sg29
S'R'
sbsg37
(irule
FeatureMatrix
p1633
(dp1634
g23
(lp1635
(I01
g287
tp1636
a(I00
g706
tp1637
a(I00
g404
tp1638
asg25
V[ +back -palletized -vowel ]
p1639
sbsg25
V[ +back -palletized -vowel ] ---> y / [  ] _ 
p1640
sba(irule
Rule
p1641
(dp1642
g15
(irule
Guard
p1643
(dp1644
g18
I00
sg19
(lp1645
(irule
FeatureMatrix
p1646
(dp1647
g23
(lp1648
sg25
V[  ]
p1649
sba(irule
FeatureMatrix
p1650
(dp1651
g23
(lp1652
sg25
V[  ]
p1653
sbasg27
I00
sg25
V[  ] [  ]
p1654
sg28
I00
sg29
S'L'
sbsg30
(irule
ConstantPhoneme
p1655
(dp1656
S'p'
Vy
sbsg33
(irule
Guard
p1657
(dp1658
g18
I00
sg19
(lp1659
(irule
FeatureMatrix
p1660
(dp1661
g23
(lp1662
sg25
V[  ]
p1663
sbasg27
I00
sg25
g1663
sg28
I00
sg29
S'R'
sbsg37
(irule
ConstantPhoneme
p1664
(dp1665
S'p'
Vk
sbsg25
Vk ---> y / [  ] [  ] _ [  ]
p1666
sba(irule
Rule
p1667
(dp1668
g15
(irule
Guard
p1669
(dp1670
g18
I00
sg19
(lp1671
(irule
FeatureMatrix
p1672
(dp1673
g23
(lp1674
sg25
V[  ]
p1675
sbasg27
I00
sg25
g1675
sg28
I00
sg29
S'L'
sbsg30
(irule
ConstantPhoneme
p1676
(dp1677
S'p'
Vy
sbsg33
(irule
Guard
p1678
(dp1679
g18
I00
sg19
(lp1680
(irule
FeatureMatrix
p1681
(dp1682
g23
(lp1683
(I00
g243
tp1684
asg25
V[ -high ]
p1685
sbasg27
I00
sg25
g1685
sg28
I00
sg29
S'R'
sbsg37
(irule
ConstantPhoneme
p1686
(dp1687
S'p'
Vk
sbsg25
Vk ---> y / [  ] _ [ -high ]
p1688
sba(irule
Rule
p1689
(dp1690
g15
(irule
Guard
p1691
(dp1692
g18
I00
sg19
(lp1693
(irule
FeatureMatrix
p1694
(dp1695
g23
(lp1696
(I01
g245
tp1697
asg25
V[ +voice ]
p1698
sbasg27
I00
sg25
g1698
sg28
I00
sg29
S'L'
sbsg30
(irule
ConstantPhoneme
p1699
(dp1700
S'p'
Vy
sbsg33
(irule
Guard
p1701
(dp1702
g18
I00
sg19
(lp1703
(irule
FeatureMatrix
p1704
(dp1705
g23
(lp1706
sg25
V[  ]
p1707
sbasg27
I00
sg25
g1707
sg28
I00
sg29
S'R'
sbsg37
(irule
ConstantPhoneme
p1708
(dp1709
S'p'
Vk
sbsg25
Vk ---> y / [ +voice ] _ [  ]
p1710
sba(irule
Rule
p1711
(dp1712
g15
(irule
Guard
p1713
(dp1714
g18
I00
sg19
(lp1715
(irule
ConstantPhoneme
p1716
(dp1717
S'p'
Vo
sbasg27
I00
sg25
Vo
sg28
I00
sg29
S'L'
sbsg30
(irule
ConstantPhoneme
p1718
(dp1719
S'p'
Vy
sbsg33
(irule
Guard
p1720
(dp1721
g18
I00
sg19
(lp1722
(irule
FeatureMatrix
p1723
(dp1724
g23
(lp1725
sg25
V[  ]
p1726
sbasg27
I00
sg25
g1726
sg28
I00
sg29
S'R'
sbsg37
(irule
ConstantPhoneme
p1727
(dp1728
S'p'
Vk
sbsg25
Vk ---> y / o _ [  ]
p1729
sba(irule
Rule
p1730
(dp1731
g15
(irule
Guard
p1732
(dp1733
g18
I00
sg19
(lp1734
(irule
FeatureMatrix
p1735
(dp1736
g23
(lp1737
sg25
V[  ]
p1738
sbasg27
I00
sg25
g1738
sg28
I00
sg29
S'L'
sbsg30
(irule
ConstantPhoneme
p1739
(dp1740
S'p'
Vy
sbsg33
(irule
Guard
p1741
(dp1742
g18
I00
sg19
(lp1743
sg27
I00
sg25
V
sg28
I00
sg29
S'R'
sbsg37
(irule
FeatureMatrix
p1744
(dp1745
g23
(lp1746
(I01
g287
tp1747
a(I00
g552
tp1748
a(I00
g301
tp1749
asg25
V[ +back -sibilant -tense ]
p1750
sbsg25
V[ +back -sibilant -tense ] ---> y / [  ] _ 
p1751
sba(irule
Rule
p1752
(dp1753
g15
(irule
Guard
p1754
(dp1755
g18
I00
sg19
(lp1756
(irule
FeatureMatrix
p1757
(dp1758
g23
(lp1759
sg25
V[  ]
p1760
sbasg27
I00
sg25
g1760
sg28
I00
sg29
S'L'
sbsg30
(irule
ConstantPhoneme
p1761
(dp1762
S'p'
Vy
sbsg33
(irule
Guard
p1763
(dp1764
g18
I00
sg19
(lp1765
sg27
I00
sg25
V
sg28
I00
sg29
S'R'
sbsg37
(irule
FeatureMatrix
p1766
(dp1767
g23
(lp1768
(I01
g243
tp1769
a(I00
g725
tp1770
a(I00
g404
tp1771
asg25
V[ +high -coronal -vowel ]
p1772
sbsg25
V[ +high -coronal -vowel ] ---> y / [  ] _ 
p1773
sba(irule
Rule
p1774
(dp1775
g15
(irule
Guard
p1776
(dp1777
g18
I00
sg19
(lp1778
(irule
FeatureMatrix
p1779
(dp1780
g23
(lp1781
sg25
V[  ]
p1782
sbasg27
I00
sg25
g1782
sg28
I00
sg29
S'L'
sbsg30
(irule
ConstantPhoneme
p1783
(dp1784
S'p'
Vy
sbsg33
(irule
Guard
p1785
(dp1786
g18
I00
sg19
(lp1787
(irule
FeatureMatrix
p1788
(dp1789
g23
(lp1790
(I00
g706
tp1791
asg25
V[ -palletized ]
p1792
sbasg27
I00
sg25
g1792
sg28
I00
sg29
S'R'
sbsg37
(irule
ConstantPhoneme
p1793
(dp1794
S'p'
Vk
sbsg25
Vk ---> y / [  ] _ [ -palletized ]
p1795
sba(irule
Rule
p1796
(dp1797
g15
(irule
Guard
p1798
(dp1799
g18
I00
sg19
(lp1800
(irule
FeatureMatrix
p1801
(dp1802
g23
(lp1803
(I01
g404
tp1804
asg25
V[ +vowel ]
p1805
sbasg27
I00
sg25
g1805
sg28
I00
sg29
S'L'
sbsg30
(irule
ConstantPhoneme
p1806
(dp1807
S'p'
Vy
sbsg33
(irule
Guard
p1808
(dp1809
g18
I00
sg19
(lp1810
(irule
FeatureMatrix
p1811
(dp1812
g23
(lp1813
sg25
V[  ]
p1814
sbasg27
I00
sg25
g1814
sg28
I00
sg29
S'R'
sbsg37
(irule
ConstantPhoneme
p1815
(dp1816
S'p'
Vk
sbsg25
Vk ---> y / [ +vowel ] _ [  ]
p1817
sba(irule
Rule
p1818
(dp1819
g15
(irule
Guard
p1820
(dp1821
g18
I00
sg19
(lp1822
(irule
FeatureMatrix
p1823
(dp1824
g23
(lp1825
sg25
V[  ]
p1826
sbasg27
I00
sg25
g1826
sg28
I00
sg29
S'L'
sbsg30
(irule
ConstantPhoneme
p1827
(dp1828
S'p'
Vy
sbsg33
(irule
Guard
p1829
(dp1830
g18
I00
sg19
(lp1831
(irule
FeatureMatrix
p1832
(dp1833
g23
(lp1834
(I01
g552
tp1835
asg25
V[ +tense ]
p1836
sbasg27
I00
sg25
g1836
sg28
I00
sg29
S'R'
sbsg37
(irule
ConstantPhoneme
p1837
(dp1838
S'p'
Vk
sbsg25
Vk ---> y / [  ] _ [ +tense ]
p1839
sba(irule
Rule
p1840
(dp1841
g15
(irule
Guard
p1842
(dp1843
g18
I00
sg19
(lp1844
(irule
FeatureMatrix
p1845
(dp1846
g23
(lp1847
sg25
V[  ]
p1848
sbasg27
I00
sg25
g1848
sg28
I00
sg29
S'L'
sbsg30
(irule
ConstantPhoneme
p1849
(dp1850
S'p'
Vy
sbsg33
(irule
Guard
p1851
(dp1852
g18
I00
sg19
(lp1853
(irule
FeatureMatrix
p1854
(dp1855
g23
(lp1856
(I00
g465
tp1857
asg25
V[ -nasal ]
p1858
sbasg27
I00
sg25
g1858
sg28
I00
sg29
S'R'
sbsg37
(irule
ConstantPhoneme
p1859
(dp1860
S'p'
Vk
sbsg25
Vk ---> y / [  ] _ [ -nasal ]
p1861
sba(irule
Rule
p1862
(dp1863
g15
(irule
Guard
p1864
(dp1865
g18
I00
sg19
(lp1866
(irule
FeatureMatrix
p1867
(dp1868
g23
(lp1869
(I00
g301
tp1870
asg25
V[ -sibilant ]
p1871
sbasg27
I00
sg25
g1871
sg28
I00
sg29
S'L'
sbsg30
(irule
ConstantPhoneme
p1872
(dp1873
S'p'
Vy
sbsg33
(irule
Guard
p1874
(dp1875
g18
I00
sg19
(lp1876
(irule
FeatureMatrix
p1877
(dp1878
g23
(lp1879
sg25
V[  ]
p1880
sbasg27
I00
sg25
g1880
sg28
I00
sg29
S'R'
sbsg37
(irule
ConstantPhoneme
p1881
(dp1882
S'p'
Vk
sbsg25
Vk ---> y / [ -sibilant ] _ [  ]
p1883
sba(irule
Rule
p1884
(dp1885
g15
(irule
Guard
p1886
(dp1887
g18
I00
sg19
(lp1888
(irule
FeatureMatrix
p1889
(dp1890
g23
(lp1891
(I00
g585
tp1892
a(I00
g301
tp1893
asg25
V[ -low -sibilant ]
p1894
sbasg27
I00
sg25
g1894
sg28
I00
sg29
S'L'
sbsg30
(irule
ConstantPhoneme
p1895
(dp1896
S'p'
Vy
sbsg33
(irule
Guard
p1897
(dp1898
g18
I00
sg19
(lp1899
sg27
I00
sg25
V
sg28
I00
sg29
S'R'
sbsg37
(irule
ConstantPhoneme
p1900
(dp1901
S'p'
Vk
sbsg25
Vk ---> y / [ -low -sibilant ] _ 
p1902
sba(irule
Rule
p1903
(dp1904
g15
(irule
Guard
p1905
(dp1906
g18
I00
sg19
(lp1907
(irule
FeatureMatrix
p1908
(dp1909
g23
(lp1910
(I00
g762
tp1911
asg25
V[ -liquid ]
p1912
sbasg27
I00
sg25
g1912
sg28
I00
sg29
S'L'
sbsg30
(irule
ConstantPhoneme
p1913
(dp1914
S'p'
Vy
sbsg33
(irule
Guard
p1915
(dp1916
g18
I00
sg19
(lp1917
(irule
FeatureMatrix
p1918
(dp1919
g23
(lp1920
sg25
V[  ]
p1921
sbasg27
I00
sg25
g1921
sg28
I00
sg29
S'R'
sbsg37
(irule
ConstantPhoneme
p1922
(dp1923
S'p'
Vk
sbsg25
Vk ---> y / [ -liquid ] _ [  ]
p1924
sba(irule
Rule
p1925
(dp1926
g15
(irule
Guard
p1927
(dp1928
g18
I00
sg19
(lp1929
(irule
FeatureMatrix
p1930
(dp1931
g23
(lp1932
sg25
V[  ]
p1933
sbasg27
I00
sg25
g1933
sg28
I00
sg29
S'L'
sbsg30
(irule
ConstantPhoneme
p1934
(dp1935
S'p'
Vy
sbsg33
(irule
Guard
p1936
(dp1937
g18
I00
sg19
(lp1938
(irule
FeatureMatrix
p1939
(dp1940
g23
(lp1941
(I01
g289
tp1942
asg25
V[ +sonorant ]
p1943
sbasg27
I00
sg25
g1943
sg28
I00
sg29
S'R'
sbsg37
(irule
ConstantPhoneme
p1944
(dp1945
S'p'
Vk
sbsg25
Vk ---> y / [  ] _ [ +sonorant ]
p1946
sba(irule
Rule
p1947
(dp1948
g15
(irule
Guard
p1949
(dp1950
g18
I00
sg19
(lp1951
(irule
FeatureMatrix
p1952
(dp1953
g23
(lp1954
(I01
g552
tp1955
asg25
V[ +tense ]
p1956
sbasg27
I00
sg25
g1956
sg28
I00
sg29
S'L'
sbsg30
(irule
ConstantPhoneme
p1957
(dp1958
S'p'
Vy
sbsg33
(irule
Guard
p1959
(dp1960
g18
I00
sg19
(lp1961
(irule
FeatureMatrix
p1962
(dp1963
g23
(lp1964
sg25
V[  ]
p1965
sbasg27
I00
sg25
g1965
sg28
I00
sg29
S'R'
sbsg37
(irule
ConstantPhoneme
p1966
(dp1967
S'p'
Vk
sbsg25
Vk ---> y / [ +tense ] _ [  ]
p1968
sba(irule
Rule
p1969
(dp1970
g15
(irule
Guard
p1971
(dp1972
g18
I00
sg19
(lp1973
(irule
FeatureMatrix
p1974
(dp1975
g23
(lp1976
(I00
g725
tp1977
asg25
V[ -coronal ]
p1978
sbasg27
I00
sg25
g1978
sg28
I00
sg29
S'L'
sbsg30
(irule
ConstantPhoneme
p1979
(dp1980
S'p'
Vy
sbsg33
(irule
Guard
p1981
(dp1982
g18
I00
sg19
(lp1983
(irule
FeatureMatrix
p1984
(dp1985
g23
(lp1986
sg25
V[  ]
p1987
sbasg27
I00
sg25
g1987
sg28
I00
sg29
S'R'
sbsg37
(irule
ConstantPhoneme
p1988
(dp1989
S'p'
Vk
sbsg25
Vk ---> y / [ -coronal ] _ [  ]
p1990
sba(irule
Rule
p1991
(dp1992
g15
(irule
Guard
p1993
(dp1994
g18
I00
sg19
(lp1995
(irule
FeatureMatrix
p1996
(dp1997
g23
(lp1998
sg25
V[  ]
p1999
sbasg27
I00
sg25
g1999
sg28
I00
sg29
S'L'
sbsg30
(irule
ConstantPhoneme
p2000
(dp2001
S'p'
Vy
sbsg33
(irule
Guard
p2002
(dp2003
g18
I00
sg19
(lp2004
(irule
FeatureMatrix
p2005
(dp2006
g23
(lp2007
(I01
g552
tp2008
asg25
V[ +tense ]
p2009
sbasg27
I00
sg25
g2009
sg28
I00
sg29
S'R'
sbsg37
(irule
FeatureMatrix
p2010
(dp2011
g23
(lp2012
(I01
g243
tp2013
asg25
V[ +high ]
p2014
sbsg25
V[ +high ] ---> y / [  ] _ [ +tense ]
p2015
sba(irule
Rule
p2016
(dp2017
g15
(irule
Guard
p2018
(dp2019
g18
I00
sg19
(lp2020
(irule
FeatureMatrix
p2021
(dp2022
g23
(lp2023
sg25
V[  ]
p2024
sbasg27
I00
sg25
g2024
sg28
I00
sg29
S'L'
sbsg30
(irule
ConstantPhoneme
p2025
(dp2026
S'p'
Vy
sbsg33
(irule
Guard
p2027
(dp2028
g18
I00
sg19
(lp2029
sg27
I00
sg25
V
sg28
I00
sg29
S'R'
sbsg37
(irule
FeatureMatrix
p2030
(dp2031
g23
(lp2032
(I01
g287
tp2033
a(I00
g289
tp2034
a(I00
g706
tp2035
asg25
V[ +back -palletized -sonorant ]
p2036
sbsg25
V[ +back -palletized -sonorant ] ---> y / [  ] _ 
p2037
sba(irule
Rule
p2038
(dp2039
g15
(irule
Guard
p2040
(dp2041
g18
I00
sg19
(lp2042
(irule
FeatureMatrix
p2043
(dp2044
g23
(lp2045
sg25
V[  ]
p2046
sbasg27
I00
sg25
g2046
sg28
I00
sg29
S'L'
sbsg30
(irule
ConstantPhoneme
p2047
(dp2048
S'p'
Vy
sbsg33
(irule
Guard
p2049
(dp2050
g18
I00
sg19
(lp2051
(irule
FeatureMatrix
p2052
(dp2053
g23
(lp2054
(I00
g762
tp2055
asg25
V[ -liquid ]
p2056
sbasg27
I00
sg25
g2056
sg28
I00
sg29
S'R'
sbsg37
(irule
ConstantPhoneme
p2057
(dp2058
S'p'
Vk
sbsg25
Vk ---> y / [  ] _ [ -liquid ]
p2059
sba(irule
Rule
p2060
(dp2061
g15
(irule
Guard
p2062
(dp2063
g18
I00
sg19
(lp2064
(irule
FeatureMatrix
p2065
(dp2066
g23
(lp2067
sg25
V[  ]
p2068
sbasg27
I00
sg25
g2068
sg28
I00
sg29
S'L'
sbsg30
(irule
ConstantPhoneme
p2069
(dp2070
S'p'
Vy
sbsg33
(irule
Guard
p2071
(dp2072
g18
I00
sg19
(lp2073
(irule
FeatureMatrix
p2074
(dp2075
g23
(lp2076
(I00
g916
tp2077
asg25
V[ -glide ]
p2078
sbasg27
I00
sg25
g2078
sg28
I00
sg29
S'R'
sbsg37
(irule
ConstantPhoneme
p2079
(dp2080
S'p'
Vk
sbsg25
Vk ---> y / [  ] _ [ -glide ]
p2081
sba(irule
Rule
p2082
(dp2083
g15
(irule
Guard
p2084
(dp2085
g18
I00
sg19
(lp2086
(irule
FeatureMatrix
p2087
(dp2088
g23
(lp2089
sg25
V[  ]
p2090
sbasg27
I00
sg25
g2090
sg28
I00
sg29
S'L'
sbsg30
(irule
ConstantPhoneme
p2091
(dp2092
S'p'
Vy
sbsg33
(irule
Guard
p2093
(dp2094
g18
I00
sg19
(lp2095
sg27
I00
sg25
V
sg28
I00
sg29
S'R'
sbsg37
(irule
FeatureMatrix
p2096
(dp2097
g23
(lp2098
(I01
g243
tp2099
a(I00
g706
tp2100
a(I00
g552
tp2101
asg25
V[ +high -palletized -tense ]
p2102
sbsg25
V[ +high -palletized -tense ] ---> y / [  ] _ 
p2103
sba(irule
Rule
p2104
(dp2105
g15
(irule
Guard
p2106
(dp2107
g18
I00
sg19
(lp2108
(irule
ConstantPhoneme
p2109
(dp2110
S'p'
Vo
sbasg27
I00
sg25
Vo
sg28
I00
sg29
S'L'
sbsg30
(irule
ConstantPhoneme
p2111
(dp2112
S'p'
Vy
sbsg33
(irule
Guard
p2113
(dp2114
g18
I00
sg19
(lp2115
(irule
FeatureMatrix
p2116
(dp2117
g23
(lp2118
sg25
V[  ]
p2119
sbasg27
I00
sg25
g2119
sg28
I00
sg29
S'R'
sbsg37
(irule
FeatureMatrix
p2120
(dp2121
g23
(lp2122
(I01
g243
tp2123
asg25
V[ +high ]
p2124
sbsg25
V[ +high ] ---> y / o _ [  ]
p2125
sba(irule
Rule
p2126
(dp2127
g15
(irule
Guard
p2128
(dp2129
g18
I00
sg19
(lp2130
(irule
FeatureMatrix
p2131
(dp2132
g23
(lp2133
(I01
g342
tp2134
asg25
V[ +rounded ]
p2135
sbasg27
I00
sg25
g2135
sg28
I00
sg29
S'L'
sbsg30
(irule
ConstantPhoneme
p2136
(dp2137
S'p'
Vy
sbsg33
(irule
Guard
p2138
(dp2139
g18
I00
sg19
(lp2140
(irule
FeatureMatrix
p2141
(dp2142
g23
(lp2143
sg25
V[  ]
p2144
sbasg27
I00
sg25
g2144
sg28
I00
sg29
S'R'
sbsg37
(irule
ConstantPhoneme
p2145
(dp2146
S'p'
Vk
sbsg25
Vk ---> y / [ +rounded ] _ [  ]
p2147
sba(irule
Rule
p2148
(dp2149
g15
(irule
Guard
p2150
(dp2151
g18
I00
sg19
(lp2152
(irule
FeatureMatrix
p2153
(dp2154
g23
(lp2155
(I00
g706
tp2156
asg25
V[ -palletized ]
p2157
sbasg27
I00
sg25
g2157
sg28
I00
sg29
S'L'
sbsg30
(irule
ConstantPhoneme
p2158
(dp2159
S'p'
Vy
sbsg33
(irule
Guard
p2160
(dp2161
g18
I00
sg19
(lp2162
(irule
FeatureMatrix
p2163
(dp2164
g23
(lp2165
sg25
V[  ]
p2166
sbasg27
I00
sg25
g2166
sg28
I00
sg29
S'R'
sbsg37
(irule
ConstantPhoneme
p2167
(dp2168
S'p'
Vk
sbsg25
Vk ---> y / [ -palletized ] _ [  ]
p2169
sba(irule
Rule
p2170
(dp2171
g15
(irule
Guard
p2172
(dp2173
g18
I00
sg19
(lp2174
(irule
FeatureMatrix
p2175
(dp2176
g23
(lp2177
sg25
V[  ]
p2178
sbasg27
I00
sg25
g2178
sg28
I00
sg29
S'L'
sbsg30
(irule
ConstantPhoneme
p2179
(dp2180
S'p'
Vy
sbsg33
(irule
Guard
p2181
(dp2182
g18
I00
sg19
(lp2183
(irule
FeatureMatrix
p2184
(dp2185
g23
(lp2186
(I00
g391
tp2187
asg25
V[ -anterior ]
p2188
sbasg27
I00
sg25
g2188
sg28
I00
sg29
S'R'
sbsg37
(irule
ConstantPhoneme
p2189
(dp2190
S'p'
Vk
sbsg25
Vk ---> y / [  ] _ [ -anterior ]
p2191
sba(irule
Rule
p2192
(dp2193
g15
(irule
Guard
p2194
(dp2195
g18
I00
sg19
(lp2196
(irule
FeatureMatrix
p2197
(dp2198
g23
(lp2199
(I00
g301
tp2200
a(I01
g245
tp2201
asg25
V[ +voice -sibilant ]
p2202
sbasg27
I00
sg25
g2202
sg28
I00
sg29
S'L'
sbsg30
(irule
ConstantPhoneme
p2203
(dp2204
S'p'
Vy
sbsg33
(irule
Guard
p2205
(dp2206
g18
I00
sg19
(lp2207
sg27
I00
sg25
V
sg28
I00
sg29
S'R'
sbsg37
(irule
ConstantPhoneme
p2208
(dp2209
S'p'
Vk
sbsg25
Vk ---> y / [ +voice -sibilant ] _ 
p2210
sba(irule
Rule
p2211
(dp2212
g15
(irule
Guard
p2213
(dp2214
g18
I00
sg19
(lp2215
(irule
FeatureMatrix
p2216
(dp2217
g23
(lp2218
(I00
g243
tp2219
asg25
V[ -high ]
p2220
sbasg27
I00
sg25
g2220
sg28
I00
sg29
S'L'
sbsg30
(irule
ConstantPhoneme
p2221
(dp2222
S'p'
Vy
sbsg33
(irule
Guard
p2223
(dp2224
g18
I00
sg19
(lp2225
(irule
FeatureMatrix
p2226
(dp2227
g23
(lp2228
sg25
V[  ]
p2229
sbasg27
I00
sg25
g2229
sg28
I00
sg29
S'R'
sbsg37
(irule
ConstantPhoneme
p2230
(dp2231
S'p'
Vk
sbsg25
Vk ---> y / [ -high ] _ [  ]
p2232
sba(irule
Rule
p2233
(dp2234
g15
(irule
Guard
p2235
(dp2236
g18
I00
sg19
(lp2237
(irule
FeatureMatrix
p2238
(dp2239
g23
(lp2240
(I00
g916
tp2241
asg25
V[ -glide ]
p2242
sbasg27
I00
sg25
g2242
sg28
I00
sg29
S'L'
sbsg30
(irule
ConstantPhoneme
p2243
(dp2244
S'p'
Vy
sbsg33
(irule
Guard
p2245
(dp2246
g18
I00
sg19
(lp2247
(irule
FeatureMatrix
p2248
(dp2249
g23
(lp2250
sg25
V[  ]
p2251
sbasg27
I00
sg25
g2251
sg28
I00
sg29
S'R'
sbsg37
(irule
ConstantPhoneme
p2252
(dp2253
S'p'
Vk
sbsg25
Vk ---> y / [ -glide ] _ [  ]
p2254
sba(irule
Rule
p2255
(dp2256
g15
(irule
Guard
p2257
(dp2258
g18
I00
sg19
(lp2259
(irule
FeatureMatrix
p2260
(dp2261
g23
(lp2262
(I01
g287
tp2263
asg25
V[ +back ]
p2264
sbasg27
I00
sg25
g2264
sg28
I00
sg29
S'L'
sbsg30
(irule
ConstantPhoneme
p2265
(dp2266
S'p'
Vy
sbsg33
(irule
Guard
p2267
(dp2268
g18
I00
sg19
(lp2269
(irule
FeatureMatrix
p2270
(dp2271
g23
(lp2272
sg25
V[  ]
p2273
sbasg27
I00
sg25
g2273
sg28
I00
sg29
S'R'
sbsg37
(irule
ConstantPhoneme
p2274
(dp2275
S'p'
Vk
sbsg25
Vk ---> y / [ +back ] _ [  ]
p2276
sba(irule
Rule
p2277
(dp2278
g15
(irule
Guard
p2279
(dp2280
g18
I00
sg19
(lp2281
(irule
FeatureMatrix
p2282
(dp2283
g23
(lp2284
sg25
V[  ]
p2285
sba(irule
FeatureMatrix
p2286
(dp2287
g23
(lp2288
sg25
V[  ]
p2289
sbasg27
I00
sg25
V[  ] [  ]*
p2290
sg28
I01
sg29
S'L'
sbsg30
(irule
ConstantPhoneme
p2291
(dp2292
S'p'
Vy
sbsg33
(irule
Guard
p2293
(dp2294
g18
I00
sg19
(lp2295
sg27
I00
sg25
V
sg28
I00
sg29
S'R'
sbsg37
(irule
ConstantPhoneme
p2296
(dp2297
S'p'
Vk
sbsg25
Vk ---> y / [  ] [  ]* _ 
p2298
sba(irule
Rule
p2299
(dp2300
g15
(irule
Guard
p2301
(dp2302
g18
I00
sg19
(lp2303
(irule
FeatureMatrix
p2304
(dp2305
g23
(lp2306
(I00
g585
tp2307
asg25
V[ -low ]
p2308
sbasg27
I00
sg25
g2308
sg28
I00
sg29
S'L'
sbsg30
(irule
ConstantPhoneme
p2309
(dp2310
S'p'
Vy
sbsg33
(irule
Guard
p2311
(dp2312
g18
I00
sg19
(lp2313
sg27
I00
sg25
V
sg28
I00
sg29
S'R'
sbsg37
(irule
FeatureMatrix
p2314
(dp2315
g23
(lp2316
(I00
g329
tp2317
a(I01
g243
tp2318
asg25
V[ +high -continuant ]
p2319
sbsg25
V[ +high -continuant ] ---> y / [ -low ] _ 
p2320
sba(irule
Rule
p2321
(dp2322
g15
(irule
Guard
p2323
(dp2324
g18
I00
sg19
(lp2325
(irule
FeatureMatrix
p2326
(dp2327
g23
(lp2328
(I01
g245
tp2329
asg25
V[ +voice ]
p2330
sbasg27
I00
sg25
g2330
sg28
I00
sg29
S'L'
sbsg30
(irule
ConstantPhoneme
p2331
(dp2332
S'p'
Vy
sbsg33
(irule
Guard
p2333
(dp2334
g18
I00
sg19
(lp2335
sg27
I00
sg25
V
sg28
I00
sg29
S'R'
sbsg37
(irule
FeatureMatrix
p2336
(dp2337
g23
(lp2338
(I01
g287
tp2339
a(I00
g245
tp2340
asg25
V[ +back -voice ]
p2341
sbsg25
V[ +back -voice ] ---> y / [ +voice ] _ 
p2342
sba(irule
Rule
p2343
(dp2344
g15
(irule
Guard
p2345
(dp2346
g18
I00
sg19
(lp2347
(irule
FeatureMatrix
p2348
(dp2349
g23
(lp2350
sg25
V[  ]
p2351
sbasg27
I00
sg25
g2351
sg28
I00
sg29
S'L'
sbsg30
(irule
ConstantPhoneme
p2352
(dp2353
S'p'
Vy
sbsg33
(irule
Guard
p2354
(dp2355
g18
I00
sg19
(lp2356
(irule
FeatureMatrix
p2357
(dp2358
g23
(lp2359
(I01
g329
tp2360
asg25
V[ +continuant ]
p2361
sbasg27
I00
sg25
g2361
sg28
I00
sg29
S'R'
sbsg37
(irule
ConstantPhoneme
p2362
(dp2363
S'p'
Vk
sbsg25
Vk ---> y / [  ] _ [ +continuant ]
p2364
sbaa(lp2365
(irule
Rule
p2366
(dp2367
g15
(irule
Guard
p2368
(dp2369
g18
I00
sg19
(lp2370
(irule
FeatureMatrix
p2371
(dp2372
g23
(lp2373
sg25
V[  ]
p2374
sbasg27
I00
sg25
g2374
sg28
I00
sg29
S'L'
sbsg30
(irule
ConstantPhoneme
p2375
(dp2376
S'p'
Vw
sbsg33
(irule
Guard
p2377
(dp2378
g18
I00
sg19
(lp2379
sg27
I00
sg25
V
sg28
I00
sg29
S'R'
sbsg37
(irule
ConstantPhoneme
p2380
(dp2381
S'p'
Vp
sbsg25
Vp ---> w / [  ] _ 
p2382
sba(irule
Rule
p2383
(dp2384
g15
(irule
Guard
p2385
(dp2386
g18
I00
sg19
(lp2387
(irule
FeatureMatrix
p2388
(dp2389
g23
(lp2390
sg25
V[  ]
p2391
sbasg27
I00
sg25
g2391
sg28
I00
sg29
S'L'
sbsg30
(irule
ConstantPhoneme
p2392
(dp2393
S'p'
Vw
sbsg33
(irule
Guard
p2394
(dp2395
g18
I00
sg19
(lp2396
(irule
FeatureMatrix
p2397
(dp2398
g23
(lp2399
sg25
V[  ]
p2400
sbasg27
I00
sg25
g2400
sg28
I00
sg29
S'R'
sbsg37
(irule
ConstantPhoneme
p2401
(dp2402
S'p'
Vp
sbsg25
Vp ---> w / [  ] _ [  ]
p2403
sba(irule
Rule
p2404
(dp2405
g15
(irule
Guard
p2406
(dp2407
g18
I00
sg19
(lp2408
(irule
FeatureMatrix
p2409
(dp2410
g23
(lp2411
sg25
V[  ]
p2412
sba(irule
FeatureMatrix
p2413
(dp2414
g23
(lp2415
sg25
V[  ]
p2416
sbasg27
I00
sg25
V[  ] [  ]
p2417
sg28
I00
sg29
S'L'
sbsg30
(irule
ConstantPhoneme
p2418
(dp2419
S'p'
Vw
sbsg33
(irule
Guard
p2420
(dp2421
g18
I00
sg19
(lp2422
sg27
I00
sg25
V
sg28
I00
sg29
S'R'
sbsg37
(irule
ConstantPhoneme
p2423
(dp2424
S'p'
Vp
sbsg25
Vp ---> w / [  ] [  ] _ 
p2425
sba(irule
Rule
p2426
(dp2427
g15
(irule
Guard
p2428
(dp2429
g18
I00
sg19
(lp2430
(irule
FeatureMatrix
p2431
(dp2432
g23
(lp2433
(I00
S'anterior'
p2434
tp2435
asg25
V[ -anterior ]
p2436
sbasg27
I00
sg25
g2436
sg28
I00
sg29
S'L'
sbsg30
(irule
ConstantPhoneme
p2437
(dp2438
S'p'
Vw
sbsg33
(irule
Guard
p2439
(dp2440
g18
I00
sg19
(lp2441
sg27
I00
sg25
V
sg28
I00
sg29
S'R'
sbsg37
(irule
ConstantPhoneme
p2442
(dp2443
S'p'
Vp
sbsg25
Vp ---> w / [ -anterior ] _ 
p2444
sba(irule
Rule
p2445
(dp2446
g15
(irule
Guard
p2447
(dp2448
g18
I00
sg19
(lp2449
(irule
FeatureMatrix
p2450
(dp2451
g23
(lp2452
sg25
V[  ]
p2453
sbasg27
I00
sg25
g2453
sg28
I00
sg29
S'L'
sbsg30
(irule
ConstantPhoneme
p2454
(dp2455
S'p'
Vw
sbsg33
(irule
Guard
p2456
(dp2457
g18
I00
sg19
(lp2458
sg27
I00
sg25
V
sg28
I00
sg29
S'R'
sbsg37
(irule
FeatureMatrix
p2459
(dp2460
g23
(lp2461
(I01
g2434
tp2462
a(I00
S'coronal'
p2463
tp2464
asg25
V[ +anterior -coronal ]
p2465
sbsg25
V[ +anterior -coronal ] ---> w / [  ] _ 
p2466
sba(irule
Rule
p2467
(dp2468
g15
(irule
Guard
p2469
(dp2470
g18
I00
sg19
(lp2471
(irule
FeatureMatrix
p2472
(dp2473
g23
(lp2474
sg25
V[  ]
p2475
sbasg27
I00
sg25
g2475
sg28
I00
sg29
S'L'
sbsg30
(irule
ConstantPhoneme
p2476
(dp2477
S'p'
Vw
sbsg33
(irule
Guard
p2478
(dp2479
g18
I00
sg19
(lp2480
sg27
I00
sg25
V
sg28
I00
sg29
S'R'
sbsg37
(irule
FeatureMatrix
p2481
(dp2482
g23
(lp2483
(I00
S'continuant'
p2484
tp2485
a(I00
g2463
tp2486
asg25
V[ -continuant -coronal ]
p2487
sbsg25
V[ -continuant -coronal ] ---> w / [  ] _ 
p2488
sba(irule
Rule
p2489
(dp2490
g15
(irule
Guard
p2491
(dp2492
g18
I00
sg19
(lp2493
(irule
FeatureMatrix
p2494
(dp2495
g23
(lp2496
sg25
V[  ]
p2497
sbasg27
I00
sg25
g2497
sg28
I00
sg29
S'L'
sbsg30
(irule
ConstantPhoneme
p2498
(dp2499
S'p'
Vw
sbsg33
(irule
Guard
p2500
(dp2501
g18
I00
sg19
(lp2502
sg27
I00
sg25
V
sg28
I00
sg29
S'R'
sbsg37
(irule
FeatureMatrix
p2503
(dp2504
g23
(lp2505
(I00
S'sonorant'
p2506
tp2507
a(I00
g2463
tp2508
asg25
V[ -coronal -sonorant ]
p2509
sbsg25
V[ -coronal -sonorant ] ---> w / [  ] _ 
p2510
sba(irule
Rule
p2511
(dp2512
g15
(irule
Guard
p2513
(dp2514
g18
I00
sg19
(lp2515
(irule
FeatureMatrix
p2516
(dp2517
g23
(lp2518
(I01
S'voice'
p2519
tp2520
asg25
V[ +voice ]
p2521
sbasg27
I00
sg25
g2521
sg28
I00
sg29
S'L'
sbsg30
(irule
ConstantPhoneme
p2522
(dp2523
S'p'
Vw
sbsg33
(irule
Guard
p2524
(dp2525
g18
I00
sg19
(lp2526
sg27
I00
sg25
V
sg28
I00
sg29
S'R'
sbsg37
(irule
ConstantPhoneme
p2527
(dp2528
S'p'
Vp
sbsg25
Vp ---> w / [ +voice ] _ 
p2529
sba(irule
Rule
p2530
(dp2531
g15
(irule
Guard
p2532
(dp2533
g18
I00
sg19
(lp2534
(irule
FeatureMatrix
p2535
(dp2536
g23
(lp2537
(I00
S'sibilant'
p2538
tp2539
asg25
V[ -sibilant ]
p2540
sbasg27
I00
sg25
g2540
sg28
I00
sg29
S'L'
sbsg30
(irule
ConstantPhoneme
p2541
(dp2542
S'p'
Vw
sbsg33
(irule
Guard
p2543
(dp2544
g18
I00
sg19
(lp2545
sg27
I00
sg25
V
sg28
I00
sg29
S'R'
sbsg37
(irule
ConstantPhoneme
p2546
(dp2547
S'p'
Vp
sbsg25
Vp ---> w / [ -sibilant ] _ 
p2548
sba(irule
Rule
p2549
(dp2550
g15
(irule
Guard
p2551
(dp2552
g18
I00
sg19
(lp2553
(irule
ConstantPhoneme
p2554
(dp2555
S'p'
Vo
sbasg27
I00
sg25
Vo
sg28
I00
sg29
S'L'
sbsg30
(irule
ConstantPhoneme
p2556
(dp2557
S'p'
Vw
sbsg33
(irule
Guard
p2558
(dp2559
g18
I00
sg19
(lp2560
sg27
I00
sg25
V
sg28
I00
sg29
S'R'
sbsg37
(irule
ConstantPhoneme
p2561
(dp2562
S'p'
Vp
sbsg25
Vp ---> w / o _ 
p2563
sba(irule
Rule
p2564
(dp2565
g15
(irule
Guard
p2566
(dp2567
g18
I00
sg19
(lp2568
(irule
FeatureMatrix
p2569
(dp2570
g23
(lp2571
(I00
S'low'
p2572
tp2573
asg25
V[ -low ]
p2574
sbasg27
I00
sg25
g2574
sg28
I00
sg29
S'L'
sbsg30
(irule
ConstantPhoneme
p2575
(dp2576
S'p'
Vw
sbsg33
(irule
Guard
p2577
(dp2578
g18
I00
sg19
(lp2579
sg27
I00
sg25
V
sg28
I00
sg29
S'R'
sbsg37
(irule
ConstantPhoneme
p2580
(dp2581
S'p'
Vp
sbsg25
Vp ---> w / [ -low ] _ 
p2582
sba(irule
Rule
p2583
(dp2584
g15
(irule
Guard
p2585
(dp2586
g18
I00
sg19
(lp2587
(irule
FeatureMatrix
p2588
(dp2589
g23
(lp2590
(I00
g2463
tp2591
asg25
V[ -coronal ]
p2592
sbasg27
I00
sg25
g2592
sg28
I00
sg29
S'L'
sbsg30
(irule
ConstantPhoneme
p2593
(dp2594
S'p'
Vw
sbsg33
(irule
Guard
p2595
(dp2596
g18
I00
sg19
(lp2597
sg27
I00
sg25
V
sg28
I00
sg29
S'R'
sbsg37
(irule
ConstantPhoneme
p2598
(dp2599
S'p'
Vp
sbsg25
Vp ---> w / [ -coronal ] _ 
p2600
sba(irule
Rule
p2601
(dp2602
g15
(irule
Guard
p2603
(dp2604
g18
I00
sg19
(lp2605
(irule
FeatureMatrix
p2606
(dp2607
g23
(lp2608
(I01
S'vowel'
p2609
tp2610
asg25
V[ +vowel ]
p2611
sbasg27
I00
sg25
g2611
sg28
I00
sg29
S'L'
sbsg30
(irule
ConstantPhoneme
p2612
(dp2613
S'p'
Vw
sbsg33
(irule
Guard
p2614
(dp2615
g18
I00
sg19
(lp2616
sg27
I00
sg25
V
sg28
I00
sg29
S'R'
sbsg37
(irule
ConstantPhoneme
p2617
(dp2618
S'p'
Vp
sbsg25
Vp ---> w / [ +vowel ] _ 
p2619
sba(irule
Rule
p2620
(dp2621
g15
(irule
Guard
p2622
(dp2623
g18
I00
sg19
(lp2624
(irule
FeatureMatrix
p2625
(dp2626
g23
(lp2627
(I00
S'palletized'
p2628
tp2629
asg25
V[ -palletized ]
p2630
sbasg27
I00
sg25
g2630
sg28
I00
sg29
S'L'
sbsg30
(irule
ConstantPhoneme
p2631
(dp2632
S'p'
Vw
sbsg33
(irule
Guard
p2633
(dp2634
g18
I00
sg19
(lp2635
sg27
I00
sg25
V
sg28
I00
sg29
S'R'
sbsg37
(irule
ConstantPhoneme
p2636
(dp2637
S'p'
Vp
sbsg25
Vp ---> w / [ -palletized ] _ 
p2638
sba(irule
Rule
p2639
(dp2640
g15
(irule
Guard
p2641
(dp2642
g18
I00
sg19
(lp2643
(irule
FeatureMatrix
p2644
(dp2645
g23
(lp2646
sg25
V[  ]
p2647
sbasg27
I00
sg25
g2647
sg28
I00
sg29
S'L'
sbsg30
(irule
ConstantPhoneme
p2648
(dp2649
S'p'
Vw
sbsg33
(irule
Guard
p2650
(dp2651
g18
I00
sg19
(lp2652
sg27
I00
sg25
V
sg28
I00
sg29
S'R'
sbsg37
(irule
FeatureMatrix
p2653
(dp2654
g23
(lp2655
(I00
g2463
tp2656
a(I00
g2519
tp2657
asg25
V[ -coronal -voice ]
p2658
sbsg25
V[ -coronal -voice ] ---> w / [  ] _ 
p2659
sba(irule
Rule
p2660
(dp2661
g15
(irule
Guard
p2662
(dp2663
g18
I00
sg19
(lp2664
(irule
FeatureMatrix
p2665
(dp2666
g23
(lp2667
(I01
g2484
tp2668
asg25
V[ +continuant ]
p2669
sbasg27
I00
sg25
g2669
sg28
I00
sg29
S'L'
sbsg30
(irule
ConstantPhoneme
p2670
(dp2671
S'p'
Vw
sbsg33
(irule
Guard
p2672
(dp2673
g18
I00
sg19
(lp2674
sg27
I00
sg25
V
sg28
I00
sg29
S'R'
sbsg37
(irule
ConstantPhoneme
p2675
(dp2676
S'p'
Vp
sbsg25
Vp ---> w / [ +continuant ] _ 
p2677
sba(irule
Rule
p2678
(dp2679
g15
(irule
Guard
p2680
(dp2681
g18
I00
sg19
(lp2682
(irule
FeatureMatrix
p2683
(dp2684
g23
(lp2685
(I00
S'high'
p2686
tp2687
asg25
V[ -high ]
p2688
sbasg27
I00
sg25
g2688
sg28
I00
sg29
S'L'
sbsg30
(irule
ConstantPhoneme
p2689
(dp2690
S'p'
Vw
sbsg33
(irule
Guard
p2691
(dp2692
g18
I00
sg19
(lp2693
sg27
I00
sg25
V
sg28
I00
sg29
S'R'
sbsg37
(irule
ConstantPhoneme
p2694
(dp2695
S'p'
Vp
sbsg25
Vp ---> w / [ -high ] _ 
p2696
sba(irule
Rule
p2697
(dp2698
g15
(irule
Guard
p2699
(dp2700
g18
I00
sg19
(lp2701
(irule
FeatureMatrix
p2702
(dp2703
g23
(lp2704
(I01
S'tense'
p2705
tp2706
asg25
V[ +tense ]
p2707
sbasg27
I00
sg25
g2707
sg28
I00
sg29
S'L'
sbsg30
(irule
ConstantPhoneme
p2708
(dp2709
S'p'
Vw
sbsg33
(irule
Guard
p2710
(dp2711
g18
I00
sg19
(lp2712
sg27
I00
sg25
V
sg28
I00
sg29
S'R'
sbsg37
(irule
ConstantPhoneme
p2713
(dp2714
S'p'
Vp
sbsg25
Vp ---> w / [ +tense ] _ 
p2715
sba(irule
Rule
p2716
(dp2717
g15
(irule
Guard
p2718
(dp2719
g18
I00
sg19
(lp2720
(irule
FeatureMatrix
p2721
(dp2722
g23
(lp2723
(I00
S'nasal'
p2724
tp2725
asg25
V[ -nasal ]
p2726
sbasg27
I00
sg25
g2726
sg28
I00
sg29
S'L'
sbsg30
(irule
ConstantPhoneme
p2727
(dp2728
S'p'
Vw
sbsg33
(irule
Guard
p2729
(dp2730
g18
I00
sg19
(lp2731
sg27
I00
sg25
V
sg28
I00
sg29
S'R'
sbsg37
(irule
ConstantPhoneme
p2732
(dp2733
S'p'
Vp
sbsg25
Vp ---> w / [ -nasal ] _ 
p2734
sba(irule
Rule
p2735
(dp2736
g15
(irule
Guard
p2737
(dp2738
g18
I00
sg19
(lp2739
(irule
FeatureMatrix
p2740
(dp2741
g23
(lp2742
(I00
S'liquid'
p2743
tp2744
asg25
V[ -liquid ]
p2745
sbasg27
I00
sg25
g2745
sg28
I00
sg29
S'L'
sbsg30
(irule
ConstantPhoneme
p2746
(dp2747
S'p'
Vw
sbsg33
(irule
Guard
p2748
(dp2749
g18
I00
sg19
(lp2750
sg27
I00
sg25
V
sg28
I00
sg29
S'R'
sbsg37
(irule
ConstantPhoneme
p2751
(dp2752
S'p'
Vp
sbsg25
Vp ---> w / [ -liquid ] _ 
p2753
sba(irule
Rule
p2754
(dp2755
g15
(irule
Guard
p2756
(dp2757
g18
I00
sg19
(lp2758
(irule
FeatureMatrix
p2759
(dp2760
g23
(lp2761
(I00
S'glide'
p2762
tp2763
asg25
V[ -glide ]
p2764
sbasg27
I00
sg25
g2764
sg28
I00
sg29
S'L'
sbsg30
(irule
ConstantPhoneme
p2765
(dp2766
S'p'
Vw
sbsg33
(irule
Guard
p2767
(dp2768
g18
I00
sg19
(lp2769
sg27
I00
sg25
V
sg28
I00
sg29
S'R'
sbsg37
(irule
ConstantPhoneme
p2770
(dp2771
S'p'
Vp
sbsg25
Vp ---> w / [ -glide ] _ 
p2772
sba(irule
Rule
p2773
(dp2774
g15
(irule
Guard
p2775
(dp2776
g18
I00
sg19
(lp2777
(irule
FeatureMatrix
p2778
(dp2779
g23
(lp2780
(I01
g2506
tp2781
asg25
V[ +sonorant ]
p2782
sbasg27
I00
sg25
g2782
sg28
I00
sg29
S'L'
sbsg30
(irule
ConstantPhoneme
p2783
(dp2784
S'p'
Vw
sbsg33
(irule
Guard
p2785
(dp2786
g18
I00
sg19
(lp2787
sg27
I00
sg25
V
sg28
I00
sg29
S'R'
sbsg37
(irule
ConstantPhoneme
p2788
(dp2789
S'p'
Vp
sbsg25
Vp ---> w / [ +sonorant ] _ 
p2790
sba(irule
Rule
p2791
(dp2792
g15
(irule
Guard
p2793
(dp2794
g18
I00
sg19
(lp2795
(irule
FeatureMatrix
p2796
(dp2797
g23
(lp2798
(I01
S'rounded'
p2799
tp2800
asg25
V[ +rounded ]
p2801
sbasg27
I00
sg25
g2801
sg28
I00
sg29
S'L'
sbsg30
(irule
ConstantPhoneme
p2802
(dp2803
S'p'
Vw
sbsg33
(irule
Guard
p2804
(dp2805
g18
I00
sg19
(lp2806
sg27
I00
sg25
V
sg28
I00
sg29
S'R'
sbsg37
(irule
ConstantPhoneme
p2807
(dp2808
S'p'
Vp
sbsg25
Vp ---> w / [ +rounded ] _ 
p2809
sba(irule
Rule
p2810
(dp2811
g15
(irule
Guard
p2812
(dp2813
g18
I00
sg19
(lp2814
(irule
FeatureMatrix
p2815
(dp2816
g23
(lp2817
(I01
S'back'
p2818
tp2819
asg25
V[ +back ]
p2820
sbasg27
I00
sg25
g2820
sg28
I00
sg29
S'L'
sbsg30
(irule
ConstantPhoneme
p2821
(dp2822
S'p'
Vw
sbsg33
(irule
Guard
p2823
(dp2824
g18
I00
sg19
(lp2825
sg27
I00
sg25
V
sg28
I00
sg29
S'R'
sbsg37
(irule
ConstantPhoneme
p2826
(dp2827
S'p'
Vp
sbsg25
Vp ---> w / [ +back ] _ 
p2828
sba(irule
Rule
p2829
(dp2830
g15
(irule
Guard
p2831
(dp2832
g18
I00
sg19
(lp2833
(irule
FeatureMatrix
p2834
(dp2835
g23
(lp2836
sg25
V[  ]
p2837
sba(irule
FeatureMatrix
p2838
(dp2839
g23
(lp2840
sg25
V[  ]
p2841
sbasg27
I00
sg25
V[  ] [  ]
p2842
sg28
I00
sg29
S'L'
sbsg30
(irule
ConstantPhoneme
p2843
(dp2844
S'p'
Vw
sbsg33
(irule
Guard
p2845
(dp2846
g18
I00
sg19
(lp2847
(irule
FeatureMatrix
p2848
(dp2849
g23
(lp2850
sg25
V[  ]
p2851
sbasg27
I00
sg25
g2851
sg28
I00
sg29
S'R'
sbsg37
(irule
ConstantPhoneme
p2852
(dp2853
S'p'
Vp
sbsg25
Vp ---> w / [  ] [  ] _ [  ]
p2854
sba(irule
Rule
p2855
(dp2856
g15
(irule
Guard
p2857
(dp2858
g18
I00
sg19
(lp2859
(irule
FeatureMatrix
p2860
(dp2861
g23
(lp2862
(I00
g2434
tp2863
asg25
V[ -anterior ]
p2864
sbasg27
I00
sg25
g2864
sg28
I00
sg29
S'L'
sbsg30
(irule
ConstantPhoneme
p2865
(dp2866
S'p'
Vw
sbsg33
(irule
Guard
p2867
(dp2868
g18
I00
sg19
(lp2869
(irule
FeatureMatrix
p2870
(dp2871
g23
(lp2872
sg25
V[  ]
p2873
sbasg27
I00
sg25
g2873
sg28
I00
sg29
S'R'
sbsg37
(irule
ConstantPhoneme
p2874
(dp2875
S'p'
Vp
sbsg25
Vp ---> w / [ -anterior ] _ [  ]
p2876
sba(irule
Rule
p2877
(dp2878
g15
(irule
Guard
p2879
(dp2880
g18
I00
sg19
(lp2881
(irule
FeatureMatrix
p2882
(dp2883
g23
(lp2884
sg25
V[  ]
p2885
sbasg27
I00
sg25
g2885
sg28
I00
sg29
S'L'
sbsg30
(irule
ConstantPhoneme
p2886
(dp2887
S'p'
Vw
sbsg33
(irule
Guard
p2888
(dp2889
g18
I00
sg19
(lp2890
(irule
FeatureMatrix
p2891
(dp2892
g23
(lp2893
sg25
V[  ]
p2894
sbasg27
I00
sg25
g2894
sg28
I00
sg29
S'R'
sbsg37
(irule
FeatureMatrix
p2895
(dp2896
g23
(lp2897
(I01
g2434
tp2898
a(I00
g2463
tp2899
asg25
V[ +anterior -coronal ]
p2900
sbsg25
V[ +anterior -coronal ] ---> w / [  ] _ [  ]
p2901
sba(irule
Rule
p2902
(dp2903
g15
(irule
Guard
p2904
(dp2905
g18
I00
sg19
(lp2906
(irule
FeatureMatrix
p2907
(dp2908
g23
(lp2909
sg25
V[  ]
p2910
sbasg27
I00
sg25
g2910
sg28
I00
sg29
S'L'
sbsg30
(irule
ConstantPhoneme
p2911
(dp2912
S'p'
Vw
sbsg33
(irule
Guard
p2913
(dp2914
g18
I00
sg19
(lp2915
(irule
FeatureMatrix
p2916
(dp2917
g23
(lp2918
sg25
V[  ]
p2919
sbasg27
I00
sg25
g2919
sg28
I00
sg29
S'R'
sbsg37
(irule
FeatureMatrix
p2920
(dp2921
g23
(lp2922
(I00
g2484
tp2923
a(I00
g2463
tp2924
asg25
V[ -continuant -coronal ]
p2925
sbsg25
V[ -continuant -coronal ] ---> w / [  ] _ [  ]
p2926
sba(irule
Rule
p2927
(dp2928
g15
(irule
Guard
p2929
(dp2930
g18
I00
sg19
(lp2931
(irule
FeatureMatrix
p2932
(dp2933
g23
(lp2934
sg25
V[  ]
p2935
sbasg27
I00
sg25
g2935
sg28
I00
sg29
S'L'
sbsg30
(irule
ConstantPhoneme
p2936
(dp2937
S'p'
Vw
sbsg33
(irule
Guard
p2938
(dp2939
g18
I00
sg19
(lp2940
(irule
FeatureMatrix
p2941
(dp2942
g23
(lp2943
sg25
V[  ]
p2944
sbasg27
I00
sg25
g2944
sg28
I00
sg29
S'R'
sbsg37
(irule
FeatureMatrix
p2945
(dp2946
g23
(lp2947
(I00
g2506
tp2948
a(I00
g2463
tp2949
asg25
V[ -coronal -sonorant ]
p2950
sbsg25
V[ -coronal -sonorant ] ---> w / [  ] _ [  ]
p2951
sba(irule
Rule
p2952
(dp2953
g15
(irule
Guard
p2954
(dp2955
g18
I00
sg19
(lp2956
(irule
FeatureMatrix
p2957
(dp2958
g23
(lp2959
sg25
V[  ]
p2960
sbasg27
I00
sg25
g2960
sg28
I00
sg29
S'L'
sbsg30
(irule
ConstantPhoneme
p2961
(dp2962
S'p'
Vw
sbsg33
(irule
Guard
p2963
(dp2964
g18
I00
sg19
(lp2965
(irule
FeatureMatrix
p2966
(dp2967
g23
(lp2968
sg25
V[  ]
p2969
sbasg27
I00
sg25
g2969
sg28
I00
sg29
S'R'
sbsg37
(irule
FeatureMatrix
p2970
(dp2971
g23
(lp2972
(I00
g2463
tp2973
a(I00
g2519
tp2974
asg25
V[ -coronal -voice ]
p2975
sbsg25
V[ -coronal -voice ] ---> w / [  ] _ [  ]
p2976
sba(irule
Rule
p2977
(dp2978
g15
(irule
Guard
p2979
(dp2980
g18
I00
sg19
(lp2981
(irule
FeatureMatrix
p2982
(dp2983
g23
(lp2984
sg25
V[  ]
p2985
sba(irule
FeatureMatrix
p2986
(dp2987
g23
(lp2988
sg25
V[  ]
p2989
sbasg27
I00
sg25
V[  ] [  ]
p2990
sg28
I00
sg29
S'L'
sbsg30
(irule
ConstantPhoneme
p2991
(dp2992
S'p'
Vw
sbsg33
(irule
Guard
p2993
(dp2994
g18
I00
sg19
(lp2995
sg27
I00
sg25
V
sg28
I00
sg29
S'R'
sbsg37
(irule
FeatureMatrix
p2996
(dp2997
g23
(lp2998
(I01
g2434
tp2999
a(I00
g2463
tp3000
asg25
V[ +anterior -coronal ]
p3001
sbsg25
V[ +anterior -coronal ] ---> w / [  ] [  ] _ 
p3002
sba(irule
Rule
p3003
(dp3004
g15
(irule
Guard
p3005
(dp3006
g18
I00
sg19
(lp3007
(irule
FeatureMatrix
p3008
(dp3009
g23
(lp3010
sg25
V[  ]
p3011
sba(irule
FeatureMatrix
p3012
(dp3013
g23
(lp3014
(I01
g2724
tp3015
asg25
V[ +nasal ]
p3016
sbasg27
I00
sg25
V[ +nasal ] [  ]
p3017
sg28
I00
sg29
S'L'
sbsg30
(irule
ConstantPhoneme
p3018
(dp3019
S'p'
Vw
sbsg33
(irule
Guard
p3020
(dp3021
g18
I00
sg19
(lp3022
sg27
I00
sg25
V
sg28
I00
sg29
S'R'
sbsg37
(irule
ConstantPhoneme
p3023
(dp3024
S'p'
Vp
sbsg25
Vp ---> w / [ +nasal ] [  ] _ 
p3025
sba(irule
Rule
p3026
(dp3027
g15
(irule
Guard
p3028
(dp3029
g18
I00
sg19
(lp3030
(irule
FeatureMatrix
p3031
(dp3032
g23
(lp3033
(I01
g2799
tp3034
asg25
V[ +rounded ]
p3035
sbasg27
I00
sg25
g3035
sg28
I00
sg29
S'L'
sbsg30
(irule
ConstantPhoneme
p3036
(dp3037
S'p'
Vw
sbsg33
(irule
Guard
p3038
(dp3039
g18
I00
sg19
(lp3040
(irule
FeatureMatrix
p3041
(dp3042
g23
(lp3043
sg25
V[  ]
p3044
sbasg27
I00
sg25
g3044
sg28
I00
sg29
S'R'
sbsg37
(irule
ConstantPhoneme
p3045
(dp3046
S'p'
Vp
sbsg25
Vp ---> w / [ +rounded ] _ [  ]
p3047
sba(irule
Rule
p3048
(dp3049
g15
(irule
Guard
p3050
(dp3051
g18
I00
sg19
(lp3052
(irule
FeatureMatrix
p3053
(dp3054
g23
(lp3055
(I01
g2705
tp3056
asg25
V[ +tense ]
p3057
sbasg27
I00
sg25
g3057
sg28
I00
sg29
S'L'
sbsg30
(irule
ConstantPhoneme
p3058
(dp3059
S'p'
Vw
sbsg33
(irule
Guard
p3060
(dp3061
g18
I00
sg19
(lp3062
(irule
FeatureMatrix
p3063
(dp3064
g23
(lp3065
sg25
V[  ]
p3066
sbasg27
I00
sg25
g3066
sg28
I00
sg29
S'R'
sbsg37
(irule
ConstantPhoneme
p3067
(dp3068
S'p'
Vp
sbsg25
Vp ---> w / [ +tense ] _ [  ]
p3069
sba(irule
Rule
p3070
(dp3071
g15
(irule
Guard
p3072
(dp3073
g18
I00
sg19
(lp3074
(irule
FeatureMatrix
p3075
(dp3076
g23
(lp3077
sg25
V[  ]
p3078
sbasg27
I00
sg25
g3078
sg28
I00
sg29
S'L'
sbsg30
(irule
ConstantPhoneme
p3079
(dp3080
S'p'
Vw
sbsg33
(irule
Guard
p3081
(dp3082
g18
I00
sg19
(lp3083
(irule
FeatureMatrix
p3084
(dp3085
g23
(lp3086
(I00
g2434
tp3087
asg25
V[ -anterior ]
p3088
sbasg27
I00
sg25
g3088
sg28
I00
sg29
S'R'
sbsg37
(irule
ConstantPhoneme
p3089
(dp3090
S'p'
Vp
sbsg25
Vp ---> w / [  ] _ [ -anterior ]
p3091
sba(irule
Rule
p3092
(dp3093
g15
(irule
Guard
p3094
(dp3095
g18
I00
sg19
(lp3096
(irule
FeatureMatrix
p3097
(dp3098
g23
(lp3099
sg25
V[  ]
p3100
sbasg27
I00
sg25
g3100
sg28
I00
sg29
S'L'
sbsg30
(irule
ConstantPhoneme
p3101
(dp3102
S'p'
Vw
sbsg33
(irule
Guard
p3103
(dp3104
g18
I00
sg19
(lp3105
sg27
I00
sg25
V
sg28
I00
sg29
S'R'
sbsg37
(irule
FeatureMatrix
p3106
(dp3107
g23
(lp3108
(I01
g2434
tp3109
a(I00
g2686
tp3110
a(I00
g2463
tp3111
asg25
V[ +anterior -coronal -high ]
p3112
sbsg25
V[ +anterior -coronal -high ] ---> w / [  ] _ 
p3113
sba(irule
Rule
p3114
(dp3115
g15
(irule
Guard
p3116
(dp3117
g18
I00
sg19
(lp3118
(irule
FeatureMatrix
p3119
(dp3120
g23
(lp3121
(I00
g2762
tp3122
asg25
V[ -glide ]
p3123
sbasg27
I00
sg25
g3123
sg28
I00
sg29
S'L'
sbsg30
(irule
ConstantPhoneme
p3124
(dp3125
S'p'
Vw
sbsg33
(irule
Guard
p3126
(dp3127
g18
I00
sg19
(lp3128
(irule
FeatureMatrix
p3129
(dp3130
g23
(lp3131
sg25
V[  ]
p3132
sbasg27
I00
sg25
g3132
sg28
I00
sg29
S'R'
sbsg37
(irule
ConstantPhoneme
p3133
(dp3134
S'p'
Vp
sbsg25
Vp ---> w / [ -glide ] _ [  ]
p3135
sba(irule
Rule
p3136
(dp3137
g15
(irule
Guard
p3138
(dp3139
g18
I00
sg19
(lp3140
(irule
FeatureMatrix
p3141
(dp3142
g23
(lp3143
sg25
V[  ]
p3144
sbasg27
I00
sg25
g3144
sg28
I00
sg29
S'L'
sbsg30
(irule
ConstantPhoneme
p3145
(dp3146
S'p'
Vw
sbsg33
(irule
Guard
p3147
(dp3148
g18
I00
sg19
(lp3149
(irule
FeatureMatrix
p3150
(dp3151
g23
(lp3152
(I01
g2519
tp3153
asg25
V[ +voice ]
p3154
sbasg27
I00
sg25
g3154
sg28
I00
sg29
S'R'
sbsg37
(irule
ConstantPhoneme
p3155
(dp3156
S'p'
Vp
sbsg25
Vp ---> w / [  ] _ [ +voice ]
p3157
sba(irule
Rule
p3158
(dp3159
g15
(irule
Guard
p3160
(dp3161
g18
I00
sg19
(lp3162
(irule
FeatureMatrix
p3163
(dp3164
g23
(lp3165
sg25
V[  ]
p3166
sbasg27
I00
sg25
g3166
sg28
I00
sg29
S'L'
sbsg30
(irule
ConstantPhoneme
p3167
(dp3168
S'p'
Vw
sbsg33
(irule
Guard
p3169
(dp3170
g18
I00
sg19
(lp3171
(irule
FeatureMatrix
p3172
(dp3173
g23
(lp3174
(I00
g2463
tp3175
asg25
V[ -coronal ]
p3176
sbasg27
I00
sg25
g3176
sg28
I00
sg29
S'R'
sbsg37
(irule
ConstantPhoneme
p3177
(dp3178
S'p'
Vp
sbsg25
Vp ---> w / [  ] _ [ -coronal ]
p3179
sba(irule
Rule
p3180
(dp3181
g15
(irule
Guard
p3182
(dp3183
g18
I00
sg19
(lp3184
(irule
FeatureMatrix
p3185
(dp3186
g23
(lp3187
sg25
V[  ]
p3188
sba(irule
FeatureMatrix
p3189
(dp3190
g23
(lp3191
sg25
V[  ]
p3192
sbasg27
I00
sg25
V[  ] [  ]*
p3193
sg28
I01
sg29
S'L'
sbsg30
(irule
ConstantPhoneme
p3194
(dp3195
S'p'
Vw
sbsg33
(irule
Guard
p3196
(dp3197
g18
I00
sg19
(lp3198
sg27
I00
sg25
V
sg28
I00
sg29
S'R'
sbsg37
(irule
ConstantPhoneme
p3199
(dp3200
S'p'
Vp
sbsg25
Vp ---> w / [  ] [  ]* _ 
p3201
sba(irule
Rule
p3202
(dp3203
g15
(irule
Guard
p3204
(dp3205
g18
I00
sg19
(lp3206
(irule
FeatureMatrix
p3207
(dp3208
g23
(lp3209
(I01
g2519
tp3210
asg25
V[ +voice ]
p3211
sbasg27
I00
sg25
g3211
sg28
I00
sg29
S'L'
sbsg30
(irule
ConstantPhoneme
p3212
(dp3213
S'p'
Vw
sbsg33
(irule
Guard
p3214
(dp3215
g18
I00
sg19
(lp3216
(irule
FeatureMatrix
p3217
(dp3218
g23
(lp3219
sg25
V[  ]
p3220
sbasg27
I00
sg25
g3220
sg28
I00
sg29
S'R'
sbsg37
(irule
ConstantPhoneme
p3221
(dp3222
S'p'
Vp
sbsg25
Vp ---> w / [ +voice ] _ [  ]
p3223
sba(irule
Rule
p3224
(dp3225
g15
(irule
Guard
p3226
(dp3227
g18
I00
sg19
(lp3228
(irule
FeatureMatrix
p3229
(dp3230
g23
(lp3231
sg25
V[  ]
p3232
sbasg27
I00
sg25
g3232
sg28
I00
sg29
S'L'
sbsg30
(irule
ConstantPhoneme
p3233
(dp3234
S'p'
Vw
sbsg33
(irule
Guard
p3235
(dp3236
g18
I00
sg19
(lp3237
sg27
I00
sg25
V
sg28
I00
sg29
S'R'
sbsg37
(irule
FeatureMatrix
p3238
(dp3239
g23
(lp3240
(I00
g2463
tp3241
a(I00
g2538
tp3242
a(I00
g2519
tp3243
asg25
V[ -coronal -sibilant -voice ]
p3244
sbsg25
V[ -coronal -sibilant -voice ] ---> w / [  ] _ 
p3245
sba(irule
Rule
p3246
(dp3247
g15
(irule
Guard
p3248
(dp3249
g18
I00
sg19
(lp3250
(irule
FeatureMatrix
p3251
(dp3252
g23
(lp3253
sg25
V[  ]
p3254
sbasg27
I00
sg25
g3254
sg28
I00
sg29
S'L'
sbsg30
(irule
ConstantPhoneme
p3255
(dp3256
S'p'
Vw
sbsg33
(irule
Guard
p3257
(dp3258
g18
I00
sg19
(lp3259
(irule
FeatureMatrix
p3260
(dp3261
g23
(lp3262
(I00
g2743
tp3263
asg25
V[ -liquid ]
p3264
sbasg27
I00
sg25
g3264
sg28
I00
sg29
S'R'
sbsg37
(irule
ConstantPhoneme
p3265
(dp3266
S'p'
Vp
sbsg25
Vp ---> w / [  ] _ [ -liquid ]
p3267
sba(irule
Rule
p3268
(dp3269
g15
(irule
Guard
p3270
(dp3271
g18
I00
sg19
(lp3272
(irule
FeatureMatrix
p3273
(dp3274
g23
(lp3275
sg25
V[  ]
p3276
sba(irule
ConstantPhoneme
p3277
(dp3278
S'p'
Vn
sbasg27
I00
sg25
Vn [  ]
p3279
sg28
I00
sg29
S'L'
sbsg30
(irule
ConstantPhoneme
p3280
(dp3281
S'p'
Vw
sbsg33
(irule
Guard
p3282
(dp3283
g18
I00
sg19
(lp3284
sg27
I00
sg25
V
sg28
I00
sg29
S'R'
sbsg37
(irule
ConstantPhoneme
p3285
(dp3286
S'p'
Vp
sbsg25
Vp ---> w / n [  ] _ 
p3287
sba(irule
Rule
p3288
(dp3289
g15
(irule
Guard
p3290
(dp3291
g18
I00
sg19
(lp3292
(irule
FeatureMatrix
p3293
(dp3294
g23
(lp3295
(I00
g2538
tp3296
asg25
V[ -sibilant ]
p3297
sbasg27
I00
sg25
g3297
sg28
I00
sg29
S'L'
sbsg30
(irule
ConstantPhoneme
p3298
(dp3299
S'p'
Vw
sbsg33
(irule
Guard
p3300
(dp3301
g18
I00
sg19
(lp3302
sg27
I00
sg25
V
sg28
I00
sg29
S'R'
sbsg37
(irule
FeatureMatrix
p3303
(dp3304
g23
(lp3305
(I01
g2434
tp3306
a(I00
g2463
tp3307
asg25
V[ +anterior -coronal ]
p3308
sbsg25
V[ +anterior -coronal ] ---> w / [ -sibilant ] _ 
p3309
sba(irule
Rule
p3310
(dp3311
g15
(irule
Guard
p3312
(dp3313
g18
I00
sg19
(lp3314
(irule
FeatureMatrix
p3315
(dp3316
g23
(lp3317
sg25
V[  ]
p3318
sbasg27
I00
sg25
g3318
sg28
I00
sg29
S'L'
sbsg30
(irule
ConstantPhoneme
p3319
(dp3320
S'p'
Vw
sbsg33
(irule
Guard
p3321
(dp3322
g18
I00
sg19
(lp3323
(irule
FeatureMatrix
p3324
(dp3325
g23
(lp3326
sg25
V[  ]
p3327
sba(irule
FeatureMatrix
p3328
(dp3329
g23
(lp3330
sg25
V[  ]
p3331
sbasg27
I00
sg25
V[  ] [  ]
p3332
sg28
I00
sg29
S'R'
sbsg37
(irule
ConstantPhoneme
p3333
(dp3334
S'p'
Vp
sbsg25
Vp ---> w / [  ] _ [  ] [  ]
p3335
sba(irule
Rule
p3336
(dp3337
g15
(irule
Guard
p3338
(dp3339
g18
I00
sg19
(lp3340
(irule
FeatureMatrix
p3341
(dp3342
g23
(lp3343
sg25
V[  ]
p3344
sbasg27
I00
sg25
g3344
sg28
I00
sg29
S'L'
sbsg30
(irule
ConstantPhoneme
p3345
(dp3346
S'p'
Vw
sbsg33
(irule
Guard
p3347
(dp3348
g18
I00
sg19
(lp3349
(irule
FeatureMatrix
p3350
(dp3351
g23
(lp3352
(I01
g2609
tp3353
asg25
V[ +vowel ]
p3354
sbasg27
I00
sg25
g3354
sg28
I00
sg29
S'R'
sbsg37
(irule
ConstantPhoneme
p3355
(dp3356
S'p'
Vp
sbsg25
Vp ---> w / [  ] _ [ +vowel ]
p3357
sba(irule
Rule
p3358
(dp3359
g15
(irule
Guard
p3360
(dp3361
g18
I00
sg19
(lp3362
(irule
FeatureMatrix
p3363
(dp3364
g23
(lp3365
(I00
g2538
tp3366
asg25
V[ -sibilant ]
p3367
sbasg27
I00
sg25
g3367
sg28
I00
sg29
S'L'
sbsg30
(irule
ConstantPhoneme
p3368
(dp3369
S'p'
Vw
sbsg33
(irule
Guard
p3370
(dp3371
g18
I00
sg19
(lp3372
(irule
FeatureMatrix
p3373
(dp3374
g23
(lp3375
sg25
V[  ]
p3376
sbasg27
I00
sg25
g3376
sg28
I00
sg29
S'R'
sbsg37
(irule
ConstantPhoneme
p3377
(dp3378
S'p'
Vp
sbsg25
Vp ---> w / [ -sibilant ] _ [  ]
p3379
sba(irule
Rule
p3380
(dp3381
g15
(irule
Guard
p3382
(dp3383
g18
I00
sg19
(lp3384
(irule
FeatureMatrix
p3385
(dp3386
g23
(lp3387
sg25
V[  ]
p3388
sbasg27
I00
sg25
g3388
sg28
I00
sg29
S'L'
sbsg30
(irule
ConstantPhoneme
p3389
(dp3390
S'p'
Vw
sbsg33
(irule
Guard
p3391
(dp3392
g18
I00
sg19
(lp3393
(irule
FeatureMatrix
p3394
(dp3395
g23
(lp3396
(I01
g2705
tp3397
asg25
V[ +tense ]
p3398
sbasg27
I00
sg25
g3398
sg28
I00
sg29
S'R'
sbsg37
(irule
ConstantPhoneme
p3399
(dp3400
S'p'
Vp
sbsg25
Vp ---> w / [  ] _ [ +tense ]
p3401
sba(irule
Rule
p3402
(dp3403
g15
(irule
Guard
p3404
(dp3405
g18
I00
sg19
(lp3406
(irule
FeatureMatrix
p3407
(dp3408
g23
(lp3409
sg25
V[  ]
p3410
sbasg27
I00
sg25
g3410
sg28
I00
sg29
S'L'
sbsg30
(irule
ConstantPhoneme
p3411
(dp3412
S'p'
Vw
sbsg33
(irule
Guard
p3413
(dp3414
g18
I00
sg19
(lp3415
(irule
FeatureMatrix
p3416
(dp3417
g23
(lp3418
(I01
g2484
tp3419
asg25
V[ +continuant ]
p3420
sbasg27
I00
sg25
g3420
sg28
I00
sg29
S'R'
sbsg37
(irule
ConstantPhoneme
p3421
(dp3422
S'p'
Vp
sbsg25
Vp ---> w / [  ] _ [ +continuant ]
p3423
sba(irule
Rule
p3424
(dp3425
g15
(irule
Guard
p3426
(dp3427
g18
I00
sg19
(lp3428
(irule
FeatureMatrix
p3429
(dp3430
g23
(lp3431
(I00
g2434
tp3432
asg25
V[ -anterior ]
p3433
sba(irule
FeatureMatrix
p3434
(dp3435
g23
(lp3436
sg25
V[  ]
p3437
sbasg27
I00
sg25
V[  ] [ -anterior ]
p3438
sg28
I00
sg29
S'L'
sbsg30
(irule
ConstantPhoneme
p3439
(dp3440
S'p'
Vw
sbsg33
(irule
Guard
p3441
(dp3442
g18
I00
sg19
(lp3443
sg27
I00
sg25
V
sg28
I00
sg29
S'R'
sbsg37
(irule
ConstantPhoneme
p3444
(dp3445
S'p'
Vp
sbsg25
Vp ---> w / [  ] [ -anterior ] _ 
p3446
sba(irule
Rule
p3447
(dp3448
g15
(irule
Guard
p3449
(dp3450
g18
I00
sg19
(lp3451
(irule
FeatureMatrix
p3452
(dp3453
g23
(lp3454
sg25
V[  ]
p3455
sba(irule
FeatureMatrix
p3456
(dp3457
g23
(lp3458
sg25
V[  ]
p3459
sbasg27
I00
sg25
V[  ] [  ]
p3460
sg28
I00
sg29
S'L'
sbsg30
(irule
ConstantPhoneme
p3461
(dp3462
S'p'
Vw
sbsg33
(irule
Guard
p3463
(dp3464
g18
I00
sg19
(lp3465
sg27
I00
sg25
V
sg28
I00
sg29
S'R'
sbsg37
(irule
FeatureMatrix
p3466
(dp3467
g23
(lp3468
(I00
g2506
tp3469
a(I00
g2463
tp3470
asg25
V[ -coronal -sonorant ]
p3471
sbsg25
V[ -coronal -sonorant ] ---> w / [  ] [  ] _ 
p3472
sba(irule
Rule
p3473
(dp3474
g15
(irule
Guard
p3475
(dp3476
g18
I00
sg19
(lp3477
(irule
FeatureMatrix
p3478
(dp3479
g23
(lp3480
sg25
V[  ]
p3481
sbasg27
I00
sg25
g3481
sg28
I00
sg29
S'L'
sbsg30
(irule
ConstantPhoneme
p3482
(dp3483
S'p'
Vw
sbsg33
(irule
Guard
p3484
(dp3485
g18
I00
sg19
(lp3486
sg27
I00
sg25
V
sg28
I00
sg29
S'R'
sbsg37
(irule
FeatureMatrix
p3487
(dp3488
g23
(lp3489
(I01
g2434
tp3490
a(I00
g2743
tp3491
a(I00
g2463
tp3492
asg25
V[ +anterior -coronal -liquid ]
p3493
sbsg25
V[ +anterior -coronal -liquid ] ---> w / [  ] _ 
p3494
sba(irule
Rule
p3495
(dp3496
g15
(irule
Guard
p3497
(dp3498
g18
I00
sg19
(lp3499
(irule
FeatureMatrix
p3500
(dp3501
g23
(lp3502
(I01
g2609
tp3503
asg25
V[ +vowel ]
p3504
sbasg27
I00
sg25
g3504
sg28
I00
sg29
S'L'
sbsg30
(irule
ConstantPhoneme
p3505
(dp3506
S'p'
Vw
sbsg33
(irule
Guard
p3507
(dp3508
g18
I00
sg19
(lp3509
sg27
I00
sg25
V
sg28
I00
sg29
S'R'
sbsg37
(irule
FeatureMatrix
p3510
(dp3511
g23
(lp3512
(I01
g2434
tp3513
a(I00
g2463
tp3514
asg25
V[ +anterior -coronal ]
p3515
sbsg25
V[ +anterior -coronal ] ---> w / [ +vowel ] _ 
p3516
sba(irule
Rule
p3517
(dp3518
g15
(irule
Guard
p3519
(dp3520
g18
I00
sg19
(lp3521
(irule
FeatureMatrix
p3522
(dp3523
g23
(lp3524
(I01
g2519
tp3525
asg25
V[ +voice ]
p3526
sbasg27
I00
sg25
g3526
sg28
I00
sg29
S'L'
sbsg30
(irule
ConstantPhoneme
p3527
(dp3528
S'p'
Vw
sbsg33
(irule
Guard
p3529
(dp3530
g18
I00
sg19
(lp3531
sg27
I00
sg25
V
sg28
I00
sg29
S'R'
sbsg37
(irule
FeatureMatrix
p3532
(dp3533
g23
(lp3534
(I01
g2434
tp3535
a(I00
g2463
tp3536
asg25
V[ +anterior -coronal ]
p3537
sbsg25
V[ +anterior -coronal ] ---> w / [ +voice ] _ 
p3538
sba(irule
Rule
p3539
(dp3540
g15
(irule
Guard
p3541
(dp3542
g18
I00
sg19
(lp3543
(irule
FeatureMatrix
p3544
(dp3545
g23
(lp3546
sg25
V[  ]
p3547
sbasg27
I00
sg25
g3547
sg28
I00
sg29
S'L'
sbsg30
(irule
ConstantPhoneme
p3548
(dp3549
S'p'
Vw
sbsg33
(irule
Guard
p3550
(dp3551
g18
I00
sg19
(lp3552
sg27
I00
sg25
V
sg28
I00
sg29
S'R'
sbsg37
(irule
FeatureMatrix
p3553
(dp3554
g23
(lp3555
(I01
g2434
tp3556
a(I00
g2463
tp3557
a(I00
g2538
tp3558
asg25
V[ +anterior -coronal -sibilant ]
p3559
sbsg25
V[ +anterior -coronal -sibilant ] ---> w / [  ] _ 
p3560
sba(irule
Rule
p3561
(dp3562
g15
(irule
Guard
p3563
(dp3564
g18
I00
sg19
(lp3565
(irule
FeatureMatrix
p3566
(dp3567
g23
(lp3568
(I00
g2743
tp3569
asg25
V[ -liquid ]
p3570
sbasg27
I00
sg25
g3570
sg28
I00
sg29
S'L'
sbsg30
(irule
ConstantPhoneme
p3571
(dp3572
S'p'
Vw
sbsg33
(irule
Guard
p3573
(dp3574
g18
I00
sg19
(lp3575
(irule
FeatureMatrix
p3576
(dp3577
g23
(lp3578
sg25
V[  ]
p3579
sbasg27
I00
sg25
g3579
sg28
I00
sg29
S'R'
sbsg37
(irule
ConstantPhoneme
p3580
(dp3581
S'p'
Vp
sbsg25
Vp ---> w / [ -liquid ] _ [  ]
p3582
sba(irule
Rule
p3583
(dp3584
g15
(irule
Guard
p3585
(dp3586
g18
I00
sg19
(lp3587
(irule
FeatureMatrix
p3588
(dp3589
g23
(lp3590
(I01
g2506
tp3591
asg25
V[ +sonorant ]
p3592
sbasg27
I00
sg25
g3592
sg28
I00
sg29
S'L'
sbsg30
(irule
ConstantPhoneme
p3593
(dp3594
S'p'
Vw
sbsg33
(irule
Guard
p3595
(dp3596
g18
I00
sg19
(lp3597
sg27
I00
sg25
V
sg28
I00
sg29
S'R'
sbsg37
(irule
FeatureMatrix
p3598
(dp3599
g23
(lp3600
(I00
g2463
tp3601
a(I00
g2519
tp3602
asg25
V[ -coronal -voice ]
p3603
sbsg25
V[ -coronal -voice ] ---> w / [ +sonorant ] _ 
p3604
sba(irule
Rule
p3605
(dp3606
g15
(irule
Guard
p3607
(dp3608
g18
I00
sg19
(lp3609
(irule
FeatureMatrix
p3610
(dp3611
g23
(lp3612
sg25
V[  ]
p3613
sbasg27
I00
sg25
g3613
sg28
I00
sg29
S'L'
sbsg30
(irule
ConstantPhoneme
p3614
(dp3615
S'p'
Vw
sbsg33
(irule
Guard
p3616
(dp3617
g18
I00
sg19
(lp3618
(irule
FeatureMatrix
p3619
(dp3620
g23
(lp3621
(I00
g2762
tp3622
asg25
V[ -glide ]
p3623
sbasg27
I00
sg25
g3623
sg28
I00
sg29
S'R'
sbsg37
(irule
ConstantPhoneme
p3624
(dp3625
S'p'
Vp
sbsg25
Vp ---> w / [  ] _ [ -glide ]
p3626
sba(irule
Rule
p3627
(dp3628
g15
(irule
Guard
p3629
(dp3630
g18
I00
sg19
(lp3631
(irule
FeatureMatrix
p3632
(dp3633
g23
(lp3634
(I01
g2484
tp3635
asg25
V[ +continuant ]
p3636
sbasg27
I00
sg25
g3636
sg28
I00
sg29
S'L'
sbsg30
(irule
ConstantPhoneme
p3637
(dp3638
S'p'
Vw
sbsg33
(irule
Guard
p3639
(dp3640
g18
I00
sg19
(lp3641
(irule
FeatureMatrix
p3642
(dp3643
g23
(lp3644
sg25
V[  ]
p3645
sbasg27
I00
sg25
g3645
sg28
I00
sg29
S'R'
sbsg37
(irule
ConstantPhoneme
p3646
(dp3647
S'p'
Vp
sbsg25
Vp ---> w / [ +continuant ] _ [  ]
p3648
sba(irule
Rule
p3649
(dp3650
g15
(irule
Guard
p3651
(dp3652
g18
I00
sg19
(lp3653
(irule
FeatureMatrix
p3654
(dp3655
g23
(lp3656
(I01
g2799
tp3657
asg25
V[ +rounded ]
p3658
sba(irule
FeatureMatrix
p3659
(dp3660
g23
(lp3661
sg25
V[  ]
p3662
sbasg27
I00
sg25
V[  ] [ +rounded ]
p3663
sg28
I00
sg29
S'L'
sbsg30
(irule
ConstantPhoneme
p3664
(dp3665
S'p'
Vw
sbsg33
(irule
Guard
p3666
(dp3667
g18
I00
sg19
(lp3668
sg27
I00
sg25
V
sg28
I00
sg29
S'R'
sbsg37
(irule
ConstantPhoneme
p3669
(dp3670
S'p'
Vp
sbsg25
Vp ---> w / [  ] [ +rounded ] _ 
p3671
sba(irule
Rule
p3672
(dp3673
g15
(irule
Guard
p3674
(dp3675
g18
I00
sg19
(lp3676
(irule
FeatureMatrix
p3677
(dp3678
g23
(lp3679
sg25
V[  ]
p3680
sbasg27
I00
sg25
g3680
sg28
I00
sg29
S'L'
sbsg30
(irule
ConstantPhoneme
p3681
(dp3682
S'p'
Vw
sbsg33
(irule
Guard
p3683
(dp3684
g18
I00
sg19
(lp3685
(irule
FeatureMatrix
p3686
(dp3687
g23
(lp3688
(I00
g2538
tp3689
asg25
V[ -sibilant ]
p3690
sbasg27
I00
sg25
g3690
sg28
I00
sg29
S'R'
sbsg37
(irule
ConstantPhoneme
p3691
(dp3692
S'p'
Vp
sbsg25
Vp ---> w / [  ] _ [ -sibilant ]
p3693
sba(irule
Rule
p3694
(dp3695
g15
(irule
Guard
p3696
(dp3697
g18
I00
sg19
(lp3698
(irule
FeatureMatrix
p3699
(dp3700
g23
(lp3701
(I00
g2724
tp3702
asg25
V[ -nasal ]
p3703
sbasg27
I00
sg25
g3703
sg28
I00
sg29
S'L'
sbsg30
(irule
ConstantPhoneme
p3704
(dp3705
S'p'
Vw
sbsg33
(irule
Guard
p3706
(dp3707
g18
I00
sg19
(lp3708
(irule
FeatureMatrix
p3709
(dp3710
g23
(lp3711
sg25
V[  ]
p3712
sbasg27
I00
sg25
g3712
sg28
I00
sg29
S'R'
sbsg37
(irule
ConstantPhoneme
p3713
(dp3714
S'p'
Vp
sbsg25
Vp ---> w / [ -nasal ] _ [  ]
p3715
sba(irule
Rule
p3716
(dp3717
g15
(irule
Guard
p3718
(dp3719
g18
I00
sg19
(lp3720
(irule
FeatureMatrix
p3721
(dp3722
g23
(lp3723
(I00
g2572
tp3724
asg25
V[ -low ]
p3725
sbasg27
I00
sg25
g3725
sg28
I00
sg29
S'L'
sbsg30
(irule
ConstantPhoneme
p3726
(dp3727
S'p'
Vw
sbsg33
(irule
Guard
p3728
(dp3729
g18
I00
sg19
(lp3730
sg27
I00
sg25
V
sg28
I00
sg29
S'R'
sbsg37
(irule
FeatureMatrix
p3731
(dp3732
g23
(lp3733
(I01
g2434
tp3734
a(I00
g2463
tp3735
asg25
V[ +anterior -coronal ]
p3736
sbsg25
V[ +anterior -coronal ] ---> w / [ -low ] _ 
p3737
sba(irule
Rule
p3738
(dp3739
g15
(irule
Guard
p3740
(dp3741
g18
I00
sg19
(lp3742
(irule
FeatureMatrix
p3743
(dp3744
g23
(lp3745
sg25
V[  ]
p3746
sbasg27
I00
sg25
g3746
sg28
I00
sg29
S'L'
sbsg30
(irule
ConstantPhoneme
p3747
(dp3748
S'p'
Vw
sbsg33
(irule
Guard
p3749
(dp3750
g18
I00
sg19
(lp3751
(irule
FeatureMatrix
p3752
(dp3753
g23
(lp3754
(I00
g2724
tp3755
asg25
V[ -nasal ]
p3756
sbasg27
I00
sg25
g3756
sg28
I00
sg29
S'R'
sbsg37
(irule
ConstantPhoneme
p3757
(dp3758
S'p'
Vp
sbsg25
Vp ---> w / [  ] _ [ -nasal ]
p3759
sba(irule
Rule
p3760
(dp3761
g15
(irule
Guard
p3762
(dp3763
g18
I00
sg19
(lp3764
(irule
FeatureMatrix
p3765
(dp3766
g23
(lp3767
sg25
V[  ]
p3768
sbasg27
I00
sg25
g3768
sg28
I00
sg29
S'L'
sbsg30
(irule
ConstantPhoneme
p3769
(dp3770
S'p'
Vw
sbsg33
(irule
Guard
p3771
(dp3772
g18
I00
sg19
(lp3773
(irule
FeatureMatrix
p3774
(dp3775
g23
(lp3776
(I00
g2572
tp3777
asg25
V[ -low ]
p3778
sbasg27
I00
sg25
g3778
sg28
I00
sg29
S'R'
sbsg37
(irule
ConstantPhoneme
p3779
(dp3780
S'p'
Vp
sbsg25
Vp ---> w / [  ] _ [ -low ]
p3781
sba(irule
Rule
p3782
(dp3783
g15
(irule
Guard
p3784
(dp3785
g18
I00
sg19
(lp3786
(irule
FeatureMatrix
p3787
(dp3788
g23
(lp3789
(I00
g2463
tp3790
a(I00
g2572
tp3791
asg25
V[ -coronal -low ]
p3792
sbasg27
I00
sg25
g3792
sg28
I00
sg29
S'L'
sbsg30
(irule
ConstantPhoneme
p3793
(dp3794
S'p'
Vw
sbsg33
(irule
Guard
p3795
(dp3796
g18
I00
sg19
(lp3797
sg27
I00
sg25
V
sg28
I00
sg29
S'R'
sbsg37
(irule
ConstantPhoneme
p3798
(dp3799
S'p'
Vp
sbsg25
Vp ---> w / [ -coronal -low ] _ 
p3800
sba(irule
Rule
p3801
(dp3802
g15
(irule
Guard
p3803
(dp3804
g18
I00
sg19
(lp3805
(irule
FeatureMatrix
p3806
(dp3807
g23
(lp3808
(I01
g2818
tp3809
asg25
V[ +back ]
p3810
sbasg27
I00
sg25
g3810
sg28
I00
sg29
S'L'
sbsg30
(irule
ConstantPhoneme
p3811
(dp3812
S'p'
Vw
sbsg33
(irule
Guard
p3813
(dp3814
g18
I00
sg19
(lp3815
(irule
FeatureMatrix
p3816
(dp3817
g23
(lp3818
sg25
V[  ]
p3819
sbasg27
I00
sg25
g3819
sg28
I00
sg29
S'R'
sbsg37
(irule
ConstantPhoneme
p3820
(dp3821
S'p'
Vp
sbsg25
Vp ---> w / [ +back ] _ [  ]
p3822
sba(irule
Rule
p3823
(dp3824
g15
(irule
Guard
p3825
(dp3826
g18
I00
sg19
(lp3827
(irule
FeatureMatrix
p3828
(dp3829
g23
(lp3830
sg25
V[  ]
p3831
sbasg27
I00
sg25
g3831
sg28
I00
sg29
S'L'
sbsg30
(irule
ConstantPhoneme
p3832
(dp3833
S'p'
Vw
sbsg33
(irule
Guard
p3834
(dp3835
g18
I00
sg19
(lp3836
(irule
FeatureMatrix
p3837
(dp3838
g23
(lp3839
(I00
g2628
tp3840
asg25
V[ -palletized ]
p3841
sbasg27
I00
sg25
g3841
sg28
I00
sg29
S'R'
sbsg37
(irule
ConstantPhoneme
p3842
(dp3843
S'p'
Vp
sbsg25
Vp ---> w / [  ] _ [ -palletized ]
p3844
sba(irule
Rule
p3845
(dp3846
g15
(irule
Guard
p3847
(dp3848
g18
I00
sg19
(lp3849
(irule
FeatureMatrix
p3850
(dp3851
g23
(lp3852
sg25
V[  ]
p3853
sbasg27
I00
sg25
g3853
sg28
I00
sg29
S'L'
sbsg30
(irule
ConstantPhoneme
p3854
(dp3855
S'p'
Vw
sbsg33
(irule
Guard
p3856
(dp3857
g18
I00
sg19
(lp3858
sg27
I00
sg25
V
sg28
I00
sg29
S'R'
sbsg37
(irule
FeatureMatrix
p3859
(dp3860
g23
(lp3861
(I00
g2799
tp3862
a(I00
g2506
tp3863
a(I00
g2463
tp3864
asg25
V[ -coronal -rounded -sonorant ]
p3865
sbsg25
V[ -coronal -rounded -sonorant ] ---> w / [  ] _ 
p3866
sba(irule
Rule
p3867
(dp3868
g15
(irule
Guard
p3869
(dp3870
g18
I00
sg19
(lp3871
(irule
FeatureMatrix
p3872
(dp3873
g23
(lp3874
(I00
g2572
tp3875
asg25
V[ -low ]
p3876
sbasg27
I00
sg25
g3876
sg28
I00
sg29
S'L'
sbsg30
(irule
ConstantPhoneme
p3877
(dp3878
S'p'
Vw
sbsg33
(irule
Guard
p3879
(dp3880
g18
I00
sg19
(lp3881
(irule
FeatureMatrix
p3882
(dp3883
g23
(lp3884
sg25
V[  ]
p3885
sbasg27
I00
sg25
g3885
sg28
I00
sg29
S'R'
sbsg37
(irule
ConstantPhoneme
p3886
(dp3887
S'p'
Vp
sbsg25
Vp ---> w / [ -low ] _ [  ]
p3888
sba(irule
Rule
p3889
(dp3890
g15
(irule
Guard
p3891
(dp3892
g18
I00
sg19
(lp3893
(irule
FeatureMatrix
p3894
(dp3895
g23
(lp3896
sg25
V[  ]
p3897
sbasg27
I00
sg25
g3897
sg28
I00
sg29
S'L'
sbsg30
(irule
ConstantPhoneme
p3898
(dp3899
S'p'
Vw
sbsg33
(irule
Guard
p3900
(dp3901
g18
I00
sg19
(lp3902
(irule
FeatureMatrix
p3903
(dp3904
g23
(lp3905
(I01
g2506
tp3906
asg25
V[ +sonorant ]
p3907
sbasg27
I00
sg25
g3907
sg28
I00
sg29
S'R'
sbsg37
(irule
ConstantPhoneme
p3908
(dp3909
S'p'
Vp
sbsg25
Vp ---> w / [  ] _ [ +sonorant ]
p3910
sba(irule
Rule
p3911
(dp3912
g15
(irule
Guard
p3913
(dp3914
g18
I00
sg19
(lp3915
(irule
FeatureMatrix
p3916
(dp3917
g23
(lp3918
(I01
g2506
tp3919
asg25
V[ +sonorant ]
p3920
sbasg27
I00
sg25
g3920
sg28
I00
sg29
S'L'
sbsg30
(irule
ConstantPhoneme
p3921
(dp3922
S'p'
Vw
sbsg33
(irule
Guard
p3923
(dp3924
g18
I00
sg19
(lp3925
(irule
FeatureMatrix
p3926
(dp3927
g23
(lp3928
sg25
V[  ]
p3929
sbasg27
I00
sg25
g3929
sg28
I00
sg29
S'R'
sbsg37
(irule
ConstantPhoneme
p3930
(dp3931
S'p'
Vp
sbsg25
Vp ---> w / [ +sonorant ] _ [  ]
p3932
sba(irule
Rule
p3933
(dp3934
g15
(irule
Guard
p3935
(dp3936
g18
I00
sg19
(lp3937
(irule
FeatureMatrix
p3938
(dp3939
g23
(lp3940
sg25
V[  ]
p3941
sba(irule
FeatureMatrix
p3942
(dp3943
g23
(lp3944
sg25
V[  ]
p3945
sbasg27
I00
sg25
V[  ] [  ]
p3946
sg28
I00
sg29
S'L'
sbsg30
(irule
ConstantPhoneme
p3947
(dp3948
S'p'
Vw
sbsg33
(irule
Guard
p3949
(dp3950
g18
I00
sg19
(lp3951
sg27
I00
sg25
V
sg28
I00
sg29
S'R'
sbsg37
(irule
FeatureMatrix
p3952
(dp3953
g23
(lp3954
(I00
g2484
tp3955
a(I00
g2463
tp3956
asg25
V[ -continuant -coronal ]
p3957
sbsg25
V[ -continuant -coronal ] ---> w / [  ] [  ] _ 
p3958
sba(irule
Rule
p3959
(dp3960
g15
(irule
Guard
p3961
(dp3962
g18
I00
sg19
(lp3963
(irule
FeatureMatrix
p3964
(dp3965
g23
(lp3966
(I01
g2609
tp3967
asg25
V[ +vowel ]
p3968
sbasg27
I00
sg25
g3968
sg28
I00
sg29
S'L'
sbsg30
(irule
ConstantPhoneme
p3969
(dp3970
S'p'
Vw
sbsg33
(irule
Guard
p3971
(dp3972
g18
I00
sg19
(lp3973
(irule
FeatureMatrix
p3974
(dp3975
g23
(lp3976
sg25
V[  ]
p3977
sbasg27
I00
sg25
g3977
sg28
I00
sg29
S'R'
sbsg37
(irule
ConstantPhoneme
p3978
(dp3979
S'p'
Vp
sbsg25
Vp ---> w / [ +vowel ] _ [  ]
p3980
sba(irule
Rule
p3981
(dp3982
g15
(irule
Guard
p3983
(dp3984
g18
I00
sg19
(lp3985
(irule
FeatureMatrix
p3986
(dp3987
g23
(lp3988
sg25
V[  ]
p3989
sba(irule
FeatureMatrix
p3990
(dp3991
g23
(lp3992
(I00
g2609
tp3993
asg25
V[ -vowel ]
p3994
sbasg27
I00
sg25
V[ -vowel ] [  ]
p3995
sg28
I00
sg29
S'L'
sbsg30
(irule
ConstantPhoneme
p3996
(dp3997
S'p'
Vw
sbsg33
(irule
Guard
p3998
(dp3999
g18
I00
sg19
(lp4000
sg27
I00
sg25
V
sg28
I00
sg29
S'R'
sbsg37
(irule
ConstantPhoneme
p4001
(dp4002
S'p'
Vp
sbsg25
Vp ---> w / [ -vowel ] [  ] _ 
p4003
sba(irule
Rule
p4004
(dp4005
g15
(irule
Guard
p4006
(dp4007
g18
I00
sg19
(lp4008
(irule
FeatureMatrix
p4009
(dp4010
g23
(lp4011
sg25
V[  ]
p4012
sbasg27
I00
sg25
g4012
sg28
I00
sg29
S'L'
sbsg30
(irule
ConstantPhoneme
p4013
(dp4014
S'p'
Vw
sbsg33
(irule
Guard
p4015
(dp4016
g18
I00
sg19
(lp4017
sg27
I00
sg25
V
sg28
I00
sg29
S'R'
sbsg37
(irule
FeatureMatrix
p4018
(dp4019
g23
(lp4020
(I01
g2434
tp4021
a(I00
g2799
tp4022
a(I00
g2463
tp4023
asg25
V[ +anterior -coronal -rounded ]
p4024
sbsg25
V[ +anterior -coronal -rounded ] ---> w / [  ] _ 
p4025
sba(irule
Rule
p4026
(dp4027
g15
(irule
Guard
p4028
(dp4029
g18
I00
sg19
(lp4030
(irule
FeatureMatrix
p4031
(dp4032
g23
(lp4033
(I00
g2463
tp4034
asg25
V[ -coronal ]
p4035
sbasg27
I00
sg25
g4035
sg28
I00
sg29
S'L'
sbsg30
(irule
ConstantPhoneme
p4036
(dp4037
S'p'
Vw
sbsg33
(irule
Guard
p4038
(dp4039
g18
I00
sg19
(lp4040
sg27
I00
sg25
V
sg28
I00
sg29
S'R'
sbsg37
(irule
FeatureMatrix
p4041
(dp4042
g23
(lp4043
(I01
g2434
tp4044
a(I00
g2463
tp4045
asg25
V[ +anterior -coronal ]
p4046
sbsg25
V[ +anterior -coronal ] ---> w / [ -coronal ] _ 
p4047
sba(irule
Rule
p4048
(dp4049
g15
(irule
Guard
p4050
(dp4051
g18
I00
sg19
(lp4052
(irule
FeatureMatrix
p4053
(dp4054
g23
(lp4055
sg25
V[  ]
p4056
sba(irule
FeatureMatrix
p4057
(dp4058
g23
(lp4059
sg25
V[  ]
p4060
sbasg27
I00
sg25
V[  ] [  ]
p4061
sg28
I00
sg29
S'L'
sbsg30
(irule
ConstantPhoneme
p4062
(dp4063
S'p'
Vw
sbsg33
(irule
Guard
p4064
(dp4065
g18
I00
sg19
(lp4066
sg27
I00
sg25
V
sg28
I00
sg29
S'R'
sbsg37
(irule
FeatureMatrix
p4067
(dp4068
g23
(lp4069
(I00
g2463
tp4070
a(I00
g2519
tp4071
asg25
V[ -coronal -voice ]
p4072
sbsg25
V[ -coronal -voice ] ---> w / [  ] [  ] _ 
p4073
sba(irule
Rule
p4074
(dp4075
g15
(irule
Guard
p4076
(dp4077
g18
I00
sg19
(lp4078
(irule
FeatureMatrix
p4079
(dp4080
g23
(lp4081
sg25
V[  ]
p4082
sbasg27
I00
sg25
g4082
sg28
I00
sg29
S'L'
sbsg30
(irule
ConstantPhoneme
p4083
(dp4084
S'p'
Vw
sbsg33
(irule
Guard
p4085
(dp4086
g18
I00
sg19
(lp4087
sg27
I00
sg25
V
sg28
I00
sg29
S'R'
sbsg37
(irule
FeatureMatrix
p4088
(dp4089
g23
(lp4090
(I01
g2434
tp4091
a(I00
g2463
tp4092
a(I00
g2705
tp4093
asg25
V[ +anterior -coronal -tense ]
p4094
sbsg25
V[ +anterior -coronal -tense ] ---> w / [  ] _ 
p4095
sba(irule
Rule
p4096
(dp4097
g15
(irule
Guard
p4098
(dp4099
g18
I00
sg19
(lp4100
(irule
FeatureMatrix
p4101
(dp4102
g23
(lp4103
sg25
V[  ]
p4104
sbasg27
I00
sg25
g4104
sg28
I00
sg29
S'L'
sbsg30
(irule
ConstantPhoneme
p4105
(dp4106
S'p'
Vw
sbsg33
(irule
Guard
p4107
(dp4108
g18
I00
sg19
(lp4109
sg27
I00
sg25
V
sg28
I00
sg29
S'R'
sbsg37
(irule
FeatureMatrix
p4110
(dp4111
g23
(lp4112
(I00
g2686
tp4113
a(I00
g2463
tp4114
a(I00
g2519
tp4115
asg25
V[ -coronal -high -voice ]
p4116
sbsg25
V[ -coronal -high -voice ] ---> w / [  ] _ 
p4117
sba(irule
Rule
p4118
(dp4119
g15
(irule
Guard
p4120
(dp4121
g18
I00
sg19
(lp4122
(irule
ConstantPhoneme
p4123
(dp4124
S'p'
Vo
sbasg27
I00
sg25
Vo
sg28
I00
sg29
S'L'
sbsg30
(irule
ConstantPhoneme
p4125
(dp4126
S'p'
Vw
sbsg33
(irule
Guard
p4127
(dp4128
g18
I00
sg19
(lp4129
(irule
FeatureMatrix
p4130
(dp4131
g23
(lp4132
sg25
V[  ]
p4133
sbasg27
I00
sg25
g4133
sg28
I00
sg29
S'R'
sbsg37
(irule
ConstantPhoneme
p4134
(dp4135
S'p'
Vp
sbsg25
Vp ---> w / o _ [  ]
p4136
sba(irule
Rule
p4137
(dp4138
g15
(irule
Guard
p4139
(dp4140
g18
I00
sg19
(lp4141
(irule
FeatureMatrix
p4142
(dp4143
g23
(lp4144
(I00
g2463
tp4145
asg25
V[ -coronal ]
p4146
sbasg27
I00
sg25
g4146
sg28
I00
sg29
S'L'
sbsg30
(irule
ConstantPhoneme
p4147
(dp4148
S'p'
Vw
sbsg33
(irule
Guard
p4149
(dp4150
g18
I00
sg19
(lp4151
(irule
FeatureMatrix
p4152
(dp4153
g23
(lp4154
sg25
V[  ]
p4155
sbasg27
I00
sg25
g4155
sg28
I00
sg29
S'R'
sbsg37
(irule
ConstantPhoneme
p4156
(dp4157
S'p'
Vp
sbsg25
Vp ---> w / [ -coronal ] _ [  ]
p4158
sba(irule
Rule
p4159
(dp4160
g15
(irule
Guard
p4161
(dp4162
g18
I00
sg19
(lp4163
(irule
FeatureMatrix
p4164
(dp4165
g23
(lp4166
(I00
g2686
tp4167
asg25
V[ -high ]
p4168
sbasg27
I00
sg25
g4168
sg28
I00
sg29
S'L'
sbsg30
(irule
ConstantPhoneme
p4169
(dp4170
S'p'
Vw
sbsg33
(irule
Guard
p4171
(dp4172
g18
I00
sg19
(lp4173
(irule
FeatureMatrix
p4174
(dp4175
g23
(lp4176
sg25
V[  ]
p4177
sbasg27
I00
sg25
g4177
sg28
I00
sg29
S'R'
sbsg37
(irule
ConstantPhoneme
p4178
(dp4179
S'p'
Vp
sbsg25
Vp ---> w / [ -high ] _ [  ]
p4180
sba(irule
Rule
p4181
(dp4182
g15
(irule
Guard
p4183
(dp4184
g18
I00
sg19
(lp4185
(irule
FeatureMatrix
p4186
(dp4187
g23
(lp4188
sg25
V[  ]
p4189
sbasg27
I00
sg25
g4189
sg28
I00
sg29
S'L'
sbsg30
(irule
ConstantPhoneme
p4190
(dp4191
S'p'
Vw
sbsg33
(irule
Guard
p4192
(dp4193
g18
I00
sg19
(lp4194
sg27
I00
sg25
V
sg28
I00
sg29
S'R'
sbsg37
(irule
FeatureMatrix
p4195
(dp4196
g23
(lp4197
(I00
g2799
tp4198
a(I00
g2463
tp4199
a(I00
g2519
tp4200
asg25
V[ -coronal -rounded -voice ]
p4201
sbsg25
V[ -coronal -rounded -voice ] ---> w / [  ] _ 
p4202
sba(irule
Rule
p4203
(dp4204
g15
(irule
Guard
p4205
(dp4206
g18
I00
sg19
(lp4207
(irule
FeatureMatrix
p4208
(dp4209
g23
(lp4210
(I00
g2628
tp4211
asg25
V[ -palletized ]
p4212
sbasg27
I00
sg25
g4212
sg28
I00
sg29
S'L'
sbsg30
(irule
ConstantPhoneme
p4213
(dp4214
S'p'
Vw
sbsg33
(irule
Guard
p4215
(dp4216
g18
I00
sg19
(lp4217
(irule
FeatureMatrix
p4218
(dp4219
g23
(lp4220
sg25
V[  ]
p4221
sbasg27
I00
sg25
g4221
sg28
I00
sg29
S'R'
sbsg37
(irule
ConstantPhoneme
p4222
(dp4223
S'p'
Vp
sbsg25
Vp ---> w / [ -palletized ] _ [  ]
p4224
sba(irule
Rule
p4225
(dp4226
g15
(irule
Guard
p4227
(dp4228
g18
I00
sg19
(lp4229
(irule
FeatureMatrix
p4230
(dp4231
g23
(lp4232
sg25
V[  ]
p4233
sba(irule
FeatureMatrix
p4234
(dp4235
g23
(lp4236
(I00
g2538
tp4237
asg25
V[ -sibilant ]
p4238
sbasg27
I00
sg25
V[ -sibilant ] [  ]
p4239
sg28
I00
sg29
S'L'
sbsg30
(irule
ConstantPhoneme
p4240
(dp4241
S'p'
Vw
sbsg33
(irule
Guard
p4242
(dp4243
g18
I00
sg19
(lp4244
sg27
I00
sg25
V
sg28
I00
sg29
S'R'
sbsg37
(irule
ConstantPhoneme
p4245
(dp4246
S'p'
Vp
sbsg25
Vp ---> w / [ -sibilant ] [  ] _ 
p4247
sba(irule
Rule
p4248
(dp4249
g15
(irule
Guard
p4250
(dp4251
g18
I00
sg19
(lp4252
(irule
FeatureMatrix
p4253
(dp4254
g23
(lp4255
(I00
g2434
tp4256
asg25
V[ -anterior ]
p4257
sbasg27
I00
sg25
g4257
sg28
I00
sg29
S'L'
sbsg30
(irule
ConstantPhoneme
p4258
(dp4259
S'p'
Vw
sbsg33
(irule
Guard
p4260
(dp4261
g18
I00
sg19
(lp4262
sg27
I00
sg25
V
sg28
I00
sg29
S'R'
sbsg37
(irule
FeatureMatrix
p4263
(dp4264
g23
(lp4265
(I01
g2434
tp4266
a(I00
g2463
tp4267
asg25
V[ +anterior -coronal ]
p4268
sbsg25
V[ +anterior -coronal ] ---> w / [ -anterior ] _ 
p4269
sba(irule
Rule
p4270
(dp4271
g15
(irule
Guard
p4272
(dp4273
g18
I01
sg19
(lp4274
(irule
FeatureMatrix
p4275
(dp4276
g23
(lp4277
sg25
V[  ]
p4278
sba(irule
FeatureMatrix
p4279
(dp4280
g23
(lp4281
sg25
V[  ]
p4282
sbasg27
I00
sg25
V# [  ] [  ]
p4283
sg28
I00
sg29
S'L'
sbsg30
(irule
ConstantPhoneme
p4284
(dp4285
S'p'
Vw
sbsg33
(irule
Guard
p4286
(dp4287
g18
I00
sg19
(lp4288
sg27
I00
sg25
V
sg28
I00
sg29
S'R'
sbsg37
(irule
ConstantPhoneme
p4289
(dp4290
S'p'
Vp
sbsg25
Vp ---> w / # [  ] [  ] _ 
p4291
sba(irule
Rule
p4292
(dp4293
g15
(irule
Guard
p4294
(dp4295
g18
I00
sg19
(lp4296
(irule
FeatureMatrix
p4297
(dp4298
g23
(lp4299
sg25
V[  ]
p4300
sba(irule
FeatureMatrix
p4301
(dp4302
g23
(lp4303
(I01
g2519
tp4304
asg25
V[ +voice ]
p4305
sbasg27
I00
sg25
V[ +voice ] [  ]
p4306
sg28
I00
sg29
S'L'
sbsg30
(irule
ConstantPhoneme
p4307
(dp4308
S'p'
Vw
sbsg33
(irule
Guard
p4309
(dp4310
g18
I00
sg19
(lp4311
sg27
I00
sg25
V
sg28
I00
sg29
S'R'
sbsg37
(irule
ConstantPhoneme
p4312
(dp4313
S'p'
Vp
sbsg25
Vp ---> w / [ +voice ] [  ] _ 
p4314
sba(irule
Rule
p4315
(dp4316
g15
(irule
Guard
p4317
(dp4318
g18
I00
sg19
(lp4319
(irule
FeatureMatrix
p4320
(dp4321
g23
(lp4322
sg25
V[  ]
p4323
sbasg27
I00
sg25
g4323
sg28
I00
sg29
S'L'
sbsg30
(irule
ConstantPhoneme
p4324
(dp4325
S'p'
Vw
sbsg33
(irule
Guard
p4326
(dp4327
g18
I00
sg19
(lp4328
sg27
I00
sg25
V
sg28
I00
sg29
S'R'
sbsg37
(irule
FeatureMatrix
p4329
(dp4330
g23
(lp4331
(I00
g2463
tp4332
a(I00
g2705
tp4333
a(I00
g2519
tp4334
asg25
V[ -coronal -tense -voice ]
p4335
sbsg25
V[ -coronal -tense -voice ] ---> w / [  ] _ 
p4336
sba(irule
Rule
p4337
(dp4338
g15
(irule
Guard
p4339
(dp4340
g18
I00
sg19
(lp4341
(irule
FeatureMatrix
p4342
(dp4343
g23
(lp4344
(I00
g2628
tp4345
asg25
V[ -palletized ]
p4346
sbasg27
I00
sg25
g4346
sg28
I00
sg29
S'L'
sbsg30
(irule
ConstantPhoneme
p4347
(dp4348
S'p'
Vw
sbsg33
(irule
Guard
p4349
(dp4350
g18
I00
sg19
(lp4351
sg27
I00
sg25
V
sg28
I00
sg29
S'R'
sbsg37
(irule
FeatureMatrix
p4352
(dp4353
g23
(lp4354
(I00
g2506
tp4355
a(I00
g2463
tp4356
asg25
V[ -coronal -sonorant ]
p4357
sbsg25
V[ -coronal -sonorant ] ---> w / [ -palletized ] _ 
p4358
sba(irule
Rule
p4359
(dp4360
g15
(irule
Guard
p4361
(dp4362
g18
I00
sg19
(lp4363
(irule
FeatureMatrix
p4364
(dp4365
g23
(lp4366
(I01
g2799
tp4367
asg25
V[ +rounded ]
p4368
sbasg27
I00
sg25
g4368
sg28
I00
sg29
S'L'
sbsg30
(irule
ConstantPhoneme
p4369
(dp4370
S'p'
Vw
sbsg33
(irule
Guard
p4371
(dp4372
g18
I00
sg19
(lp4373
sg27
I00
sg25
V
sg28
I00
sg29
S'R'
sbsg37
(irule
FeatureMatrix
p4374
(dp4375
g23
(lp4376
(I00
g2463
tp4377
a(I00
g2519
tp4378
asg25
V[ -coronal -voice ]
p4379
sbsg25
V[ -coronal -voice ] ---> w / [ +rounded ] _ 
p4380
sba(irule
Rule
p4381
(dp4382
g15
(irule
Guard
p4383
(dp4384
g18
I00
sg19
(lp4385
(irule
FeatureMatrix
p4386
(dp4387
g23
(lp4388
sg25
V[  ]
p4389
sba(irule
FeatureMatrix
p4390
(dp4391
g23
(lp4392
(I00
g2572
tp4393
asg25
V[ -low ]
p4394
sbasg27
I00
sg25
V[ -low ] [  ]
p4395
sg28
I00
sg29
S'L'
sbsg30
(irule
ConstantPhoneme
p4396
(dp4397
S'p'
Vw
sbsg33
(irule
Guard
p4398
(dp4399
g18
I00
sg19
(lp4400
sg27
I00
sg25
V
sg28
I00
sg29
S'R'
sbsg37
(irule
ConstantPhoneme
p4401
(dp4402
S'p'
Vp
sbsg25
Vp ---> w / [ -low ] [  ] _ 
p4403
sba(irule
Rule
p4404
(dp4405
g15
(irule
Guard
p4406
(dp4407
g18
I00
sg19
(lp4408
(irule
FeatureMatrix
p4409
(dp4410
g23
(lp4411
(I00
g2434
tp4412
a(I00
g2572
tp4413
asg25
V[ -anterior -low ]
p4414
sbasg27
I00
sg25
g4414
sg28
I00
sg29
S'L'
sbsg30
(irule
ConstantPhoneme
p4415
(dp4416
S'p'
Vw
sbsg33
(irule
Guard
p4417
(dp4418
g18
I00
sg19
(lp4419
sg27
I00
sg25
V
sg28
I00
sg29
S'R'
sbsg37
(irule
ConstantPhoneme
p4420
(dp4421
S'p'
Vp
sbsg25
Vp ---> w / [ -anterior -low ] _ 
p4422
sba(irule
Rule
p4423
(dp4424
g15
(irule
Guard
p4425
(dp4426
g18
I00
sg19
(lp4427
(irule
FeatureMatrix
p4428
(dp4429
g23
(lp4430
(I00
g2686
tp4431
a(I00
g2628
tp4432
asg25
V[ -high -palletized ]
p4433
sbasg27
I00
sg25
g4433
sg28
I00
sg29
S'L'
sbsg30
(irule
ConstantPhoneme
p4434
(dp4435
S'p'
Vw
sbsg33
(irule
Guard
p4436
(dp4437
g18
I00
sg19
(lp4438
sg27
I00
sg25
V
sg28
I00
sg29
S'R'
sbsg37
(irule
ConstantPhoneme
p4439
(dp4440
S'p'
Vp
sbsg25
Vp ---> w / [ -high -palletized ] _ 
p4441
sba(irule
Rule
p4442
(dp4443
g15
(irule
Guard
p4444
(dp4445
g18
I00
sg19
(lp4446
(irule
FeatureMatrix
p4447
(dp4448
g23
(lp4449
(I00
g2628
tp4450
asg25
V[ -palletized ]
p4451
sbasg27
I00
sg25
g4451
sg28
I00
sg29
S'L'
sbsg30
(irule
ConstantPhoneme
p4452
(dp4453
S'p'
Vw
sbsg33
(irule
Guard
p4454
(dp4455
g18
I00
sg19
(lp4456
sg27
I00
sg25
V
sg28
I00
sg29
S'R'
sbsg37
(irule
FeatureMatrix
p4457
(dp4458
g23
(lp4459
(I00
g2463
tp4460
a(I00
g2519
tp4461
asg25
V[ -coronal -voice ]
p4462
sbsg25
V[ -coronal -voice ] ---> w / [ -palletized ] _ 
p4463
sba(irule
Rule
p4464
(dp4465
g15
(irule
Guard
p4466
(dp4467
g18
I00
sg19
(lp4468
(irule
FeatureMatrix
p4469
(dp4470
g23
(lp4471
(I00
g2762
tp4472
asg25
V[ -glide ]
p4473
sba(irule
FeatureMatrix
p4474
(dp4475
g23
(lp4476
sg25
V[  ]
p4477
sbasg27
I00
sg25
V[  ] [ -glide ]
p4478
sg28
I00
sg29
S'L'
sbsg30
(irule
ConstantPhoneme
p4479
(dp4480
S'p'
Vw
sbsg33
(irule
Guard
p4481
(dp4482
g18
I00
sg19
(lp4483
sg27
I00
sg25
V
sg28
I00
sg29
S'R'
sbsg37
(irule
ConstantPhoneme
p4484
(dp4485
S'p'
Vp
sbsg25
Vp ---> w / [  ] [ -glide ] _ 
p4486
sba(irule
Rule
p4487
(dp4488
g15
(irule
Guard
p4489
(dp4490
g18
I00
sg19
(lp4491
(irule
FeatureMatrix
p4492
(dp4493
g23
(lp4494
sg25
V[  ]
p4495
sba(irule
FeatureMatrix
p4496
(dp4497
g23
(lp4498
(I00
g2484
tp4499
asg25
V[ -continuant ]
p4500
sbasg27
I00
sg25
V[ -continuant ] [  ]
p4501
sg28
I00
sg29
S'L'
sbsg30
(irule
ConstantPhoneme
p4502
(dp4503
S'p'
Vw
sbsg33
(irule
Guard
p4504
(dp4505
g18
I00
sg19
(lp4506
sg27
I00
sg25
V
sg28
I00
sg29
S'R'
sbsg37
(irule
ConstantPhoneme
p4507
(dp4508
S'p'
Vp
sbsg25
Vp ---> w / [ -continuant ] [  ] _ 
p4509
sba(irule
Rule
p4510
(dp4511
g15
(irule
Guard
p4512
(dp4513
g18
I00
sg19
(lp4514
(irule
FeatureMatrix
p4515
(dp4516
g23
(lp4517
(I00
g2743
tp4518
asg25
V[ -liquid ]
p4519
sba(irule
FeatureMatrix
p4520
(dp4521
g23
(lp4522
sg25
V[  ]
p4523
sbasg27
I00
sg25
V[  ] [ -liquid ]
p4524
sg28
I00
sg29
S'L'
sbsg30
(irule
ConstantPhoneme
p4525
(dp4526
S'p'
Vw
sbsg33
(irule
Guard
p4527
(dp4528
g18
I00
sg19
(lp4529
sg27
I00
sg25
V
sg28
I00
sg29
S'R'
sbsg37
(irule
ConstantPhoneme
p4530
(dp4531
S'p'
Vp
sbsg25
Vp ---> w / [  ] [ -liquid ] _ 
p4532
sbaasbsS'parameters'
p4533
g6
(cargparse
Namespace
p4534
g8
NtRp4535
(dp4536
S'restore'
p4537
NsS'features'
p4538
S'sophisticated'
p4539
sS'universal'
p4540
NsS'restrict'
p4541
NsS'seed'
p4542
NsS'serial'
p4543
I00
sS'cv'
p4544
I00
sS'alignment'
p4545
I00
sS'top'
p4546
I100
sS'maximumDepth'
p4547
I3
sS'window'
p4548
NsS'minimizeBits'
p4549
I5
sS'samples'
p4550
I30
sS'save'
p4551
NsS'resume'
p4552
I00
sS'disableClean'
p4553
I00
sS'stemBaseline'
p4554
I30
sS'dummy'
p4555
I00
sS'task'
p4556
S'incremental'
p4557
sS'geometry'
p4558
I01
sS'verbosity'
p4559
I0
sS'noConstant'
p4560
I00
sS'timeout'
p4561
F24
sS'debug'
p4562
NsS'cores'
p4563
I40
sg200
S'Odden_1.1_Axininca_Campa'
p4564
sS'mergeFrontiers'
p4565
I00
sbsb.