(iresult
Result
p1
(dp2
S'startTime'
p3
F1549634429.5055361
sS'problem'
p4
S'Odden_76_77_Kerewe'
p5
sS'solutionSequence'
p6
(lp7
(ccopy_reg
_reconstructor
p8
(csolution
Solution
p9
c__builtin__
object
p10
NtRp11
(dp12
S'rules'
p13
(lp14
(irule
Rule
p15
(dp16
S'leftTriggers'
p17
(irule
Guard
p18
(dp19
S'endOfString'
p20
I00
sS'specifications'
p21
(lp22
sS'optionalEnding'
p23
I00
sS'representation'
p24
V
sS'starred'
p25
I00
sS'side'
p26
S'L'
sbsS'structuralChange'
p27
(irule
FeatureMatrix
p28
(dp29
S'featuresAndPolarities'
p30
(lp31
sg24
V[  ]
p32
sbsS'rightTriggers'
p33
(irule
Guard
p34
(dp35
g20
I00
sg21
(lp36
sg23
I00
sg24
V
sg25
I00
sg26
S'R'
sbsS'focus'
p37
(irule
FeatureMatrix
p38
(dp39
g30
(lp40
sg24
V[  ]
p41
sbsg24
V[  ] ---> [  ] /  _ 
p42
sbasS'prefixes'
p43
(lp44
(imorph
Morph
p45
(dp46
S'phonemes'
p47
(lp48
Vk
aVu
asba(imorph
Morph
p49
(dp50
g47
(lp51
Vm
asba(imorph
Morph
p52
(dp53
g47
(lp54
Va
asba(imorph
Morph
p55
(dp56
g47
(lp57
sbasS'underlyingForms'
p58
(dp59
((imorph
Morph
(dp60
g47
(lp61
Vk
aVu
aVp
aVa
aVa
aV\u014b
aVg
aVa
asb(imorph
Morph
(dp62
g47
(lp63
Vm
aVp
aVa
aVa
aV\u014b
aVg
aVa
asb(imorph
Morph
(dp64
g47
(lp65
Va
aVp
aVa
aVa
aV\u014b
aVg
aVa
asb(imorph
Morph
(dp66
g47
(lp67
Vp
aVa
aVa
aV\u014b
aVg
aVa
asbtp68
(imorph
Morph
p69
(dp70
g47
(lp71
Vp
aVa
aVa
aV\u014b
aVg
aVa
asbs((imorph
Morph
(dp72
g47
(lp73
Vk
aVu
aVp
aVa
aVa
aVm
aVb
aVa
asb(imorph
Morph
(dp74
g47
(lp75
Vm
aVp
aVa
aVa
aVm
aVb
aVa
asb(imorph
Morph
(dp76
g47
(lp77
Va
aVp
aVa
aVa
aVm
aVb
aVa
asb(imorph
Morph
(dp78
g47
(lp79
Vp
aVa
aVa
aVm
aVb
aVa
asbtp80
(imorph
Morph
p81
(dp82
g47
(lp83
Vp
aVa
aVa
aVm
aVb
aVa
asbssS'suffixes'
p84
(lp85
(imorph
Morph
p86
(dp87
g47
(lp88
sba(imorph
Morph
p89
(dp90
g47
(lp91
sba(imorph
Morph
p92
(dp93
g47
(lp94
sba(imorph
Morph
p95
(dp96
g47
(lp97
sbasbF19.631682872772217
tp98
a(g8
(g9
g10
NtRp99
(dp100
g13
(lp101
(irule
Rule
p102
(dp103
g17
(irule
Guard
p104
(dp105
g20
I00
sg21
(lp106
(irule
FeatureMatrix
p107
(dp108
g30
(lp109
(I00
S'vowel'
tp110
asg24
V[ -vowel ]
p111
sbasg23
I00
sg24
g111
sg25
I00
sg26
S'L'
sbsg27
(irule
ConstantPhoneme
p112
(dp113
S'p'
Vp
sbsg33
(irule
Guard
p114
(dp115
g20
I00
sg21
(lp116
sg23
I00
sg24
V
sg25
I00
sg26
S'R'
sbsg37
(irule
ConstantPhoneme
p117
(dp118
S'p'
Vh
sbsg24
Vh ---> p / [ -vowel ] _ 
p119
sbasg43
(lp120
(imorph
Morph
p121
(dp122
g47
(lp123
Vk
aVu
asba(imorph
Morph
p124
(dp125
g47
(lp126
Vm
asba(imorph
Morph
p127
(dp128
g47
(lp129
Va
asba(imorph
Morph
p130
(dp131
g47
(lp132
sbasg58
(dp133
((imorph
Morph
(dp134
g47
(lp135
Vk
aVu
aVp
aVi
aVm
aVa
asb(imorph
Morph
(dp136
g47
(lp137
Vm
aVp
aVi
aVm
aVa
asb(imorph
Morph
(dp138
g47
(lp139
Va
aVp
aVi
aVm
aVa
asb(imorph
Morph
(dp140
g47
(lp141
Vp
aVi
aVm
aVa
asbtp142
(imorph
Morph
p143
(dp144
g47
(lp145
Vp
aVi
aVm
asbs((imorph
Morph
(dp146
g47
(lp147
Vk
aVu
aVp
aVa
aVa
aVm
aVb
aVa
asb(imorph
Morph
(dp148
g47
(lp149
Vm
aVp
aVa
aVa
aVm
aVb
aVa
asb(imorph
Morph
(dp150
g47
(lp151
Va
aVp
aVa
aVa
aVm
aVb
aVa
asb(imorph
Morph
(dp152
g47
(lp153
Vp
aVa
aVa
aVm
aVb
aVa
asbtp154
(imorph
Morph
p155
(dp156
g47
(lp157
Vp
aVa
aVa
aVm
aVb
asbs((imorph
Morph
(dp158
g47
(lp159
Vk
aVu
aVp
aVa
aVa
aV\u014b
aVg
aVa
asb(imorph
Morph
(dp160
g47
(lp161
Vm
aVp
aVa
aVa
aV\u014b
aVg
aVa
asb(imorph
Morph
(dp162
g47
(lp163
Va
aVp
aVa
aVa
aV\u014b
aVg
aVa
asb(imorph
Morph
(dp164
g47
(lp165
Vp
aVa
aVa
aV\u014b
aVg
aVa
asbtp166
(imorph
Morph
p167
(dp168
g47
(lp169
Vp
aVa
aVa
aV\u014b
aVg
asbs((imorph
Morph
(dp170
g47
(lp171
Vk
aVu
aVp
aVi
aVi
aVn
aVd
aVa
asb(imorph
Morph
(dp172
g47
(lp173
Vm
aVp
aVi
aVi
aVn
aVd
aVa
asb(imorph
Morph
(dp174
g47
(lp175
Va
aVp
aVi
aVi
aVn
aVd
aVa
asb(imorph
Morph
(dp176
g47
(lp177
Vp
aVi
aVi
aVn
aVd
aVa
asbtp178
(imorph
Morph
p179
(dp180
g47
(lp181
Vp
aVi
aVi
aVn
aVd
asbs((imorph
Morph
(dp182
g47
(lp183
Vk
aVu
aVp
aVe
aVk
aVe
aVc\u030c
p184
aVa
asb(imorph
Morph
(dp185
g47
(lp186
Vm
aVp
aVe
aVk
aVe
aVc\u030c
p187
aVa
asb(imorph
Morph
(dp188
g47
(lp189
Va
aVp
aVe
aVk
aVe
aVc\u030c
p190
aVa
asb(imorph
Morph
(dp191
g47
(lp192
Vp
aVe
aVk
aVe
aVc\u030c
p193
aVa
asbtp194
(imorph
Morph
p195
(dp196
g47
(lp197
Vp
aVe
aVk
aVe
aVc\u030c
p198
asbs((imorph
Morph
(dp199
g47
(lp200
Vk
aVu
aVp
aVu
aVu
aVp
aVa
asb(imorph
Morph
(dp201
g47
(lp202
Vm
aVp
aVu
aVu
aVp
aVa
asb(imorph
Morph
(dp203
g47
(lp204
Va
aVp
aVu
aVu
aVp
aVa
asb(imorph
Morph
(dp205
g47
(lp206
Vp
aVu
aVu
aVp
aVa
asbtp207
(imorph
Morph
p208
(dp209
g47
(lp210
Vp
aVu
aVu
aVp
asbs((imorph
Morph
(dp211
g47
(lp212
Vk
aVu
aVh
aVi
aVi
aVg
aVa
asb(imorph
Morph
(dp213
g47
(lp214
Vm
aVp
aVi
aVi
aVg
aVa
asb(imorph
Morph
(dp215
g47
(lp216
Va
aVh
aVi
aVi
aVg
aVa
asb(imorph
Morph
(dp217
g47
(lp218
Vh
aVi
aVi
aVg
aVa
asbtp219
(imorph
Morph
p220
(dp221
g47
(lp222
Vh
aVi
aVi
aVg
asbs((imorph
Morph
(dp223
g47
(lp224
Vk
aVu
aVh
aVe
aVe
aVk
aVa
asb(imorph
Morph
(dp225
g47
(lp226
Vm
aVp
aVe
aVe
aVk
aVa
asb(imorph
Morph
(dp227
g47
(lp228
Va
aVh
aVe
aVe
aVk
aVa
asb(imorph
Morph
(dp229
g47
(lp230
Vh
aVe
aVe
aVk
aVa
asbtp231
(imorph
Morph
p232
(dp233
g47
(lp234
Vh
aVe
aVe
aVk
asbssg84
(lp235
(imorph
Morph
p236
(dp237
g47
(lp238
Va
asba(imorph
Morph
p239
(dp240
g47
(lp241
Va
asba(imorph
Morph
p242
(dp243
g47
(lp244
Va
asba(imorph
Morph
p245
(dp246
g47
(lp247
Va
asbasbF2475.1363668441772
tp248
asS'finalFrontier'
p249
g8
(csolution
Frontier
p250
g10
NtRp251
(dp252
g43
g120
sg84
g235
sg58
(dp253
((imorph
Morph
(dp254
g47
(lp255
Vk
aVu
aVp
aVi
aVm
aVa
asb(imorph
Morph
(dp256
g47
(lp257
Vm
aVp
aVi
aVm
aVa
asb(imorph
Morph
(dp258
g47
(lp259
Va
aVp
aVi
aVm
aVa
asb(imorph
Morph
(dp260
g47
(lp261
Vp
aVi
aVm
aVa
asbtp262
(imorph
Morph
p263
(dp264
g47
(lp265
Vp
aVi
aVm
asbs((imorph
Morph
(dp266
g47
(lp267
Vk
aVu
aVh
aVi
aVi
aVm
aVa
asb(imorph
Morph
(dp268
g47
(lp269
Vm
aVp
aVi
aVi
aVm
aVa
asb(imorph
Morph
(dp270
g47
(lp271
Va
aVh
aVi
aVi
aVm
aVa
asb(imorph
Morph
(dp272
g47
(lp273
Vh
aVi
aVi
aVm
aVa
asbtp274
(imorph
Morph
p275
(dp276
g47
(lp277
Vh
aVi
aVi
aVm
asbs((imorph
Morph
(dp278
g47
(lp279
Vk
aVu
aVp
aVa
aVa
aVm
aVb
aVa
asb(imorph
Morph
(dp280
g47
(lp281
Vm
aVp
aVa
aVa
aVm
aVb
aVa
asb(imorph
Morph
(dp282
g47
(lp283
Va
aVp
aVa
aVa
aVm
aVb
aVa
asb(imorph
Morph
(dp284
g47
(lp285
Vp
aVa
aVa
aVm
aVb
aVa
asbtp286
(imorph
Morph
p287
(dp288
g47
(lp289
Vp
aVa
aVa
aVm
aVb
asbs((imorph
Morph
(dp290
g47
(lp291
Vk
aVu
aVh
aVu
aVu
aVh
aVa
asb(imorph
Morph
(dp292
g47
(lp293
Vm
aVp
aVu
aVu
aVh
aVa
asb(imorph
Morph
(dp294
g47
(lp295
Va
aVh
aVu
aVu
aVh
aVa
asb(imorph
Morph
(dp296
g47
(lp297
Vh
aVu
aVu
aVh
aVa
asbtp298
(imorph
Morph
p299
(dp300
g47
(lp301
Vh
aVu
aVu
aVh
asbs((imorph
Morph
(dp302
g47
(lp303
Vk
aVu
aVh
aVe
aVe
aVb
aVa
asb(imorph
Morph
(dp304
g47
(lp305
Vm
aVp
aVe
aVe
aVb
aVa
asb(imorph
Morph
(dp306
g47
(lp307
Va
aVh
aVe
aVe
aVb
aVa
asb(imorph
Morph
(dp308
g47
(lp309
Vh
aVe
aVe
aVb
aVa
asbtp310
(imorph
Morph
p311
(dp312
g47
(lp313
Vh
aVe
aVe
aVb
asbs((imorph
Morph
(dp314
g47
(lp315
Vk
aVu
aVh
aVa
aVa
aV\u014b
aVg
aVa
asb(imorph
Morph
(dp316
g47
(lp317
Vm
aVp
aVa
aVa
aV\u014b
aVg
aVa
asb(imorph
Morph
(dp318
g47
(lp319
Va
aVh
aVa
aVa
aV\u014b
aVg
aVa
asb(imorph
Morph
(dp320
g47
(lp321
Vh
aVa
aVa
aV\u014b
aVg
aVa
asbtp322
(imorph
Morph
p323
(dp324
g47
(lp325
Vh
aVa
aVa
aV\u014b
aVg
asbs((imorph
Morph
(dp326
g47
(lp327
Vk
aVu
aVp
aVi
aVi
aVn
aVd
aVa
asb(imorph
Morph
(dp328
g47
(lp329
Vm
aVp
aVi
aVi
aVn
aVd
aVa
asb(imorph
Morph
(dp330
g47
(lp331
Va
aVp
aVi
aVi
aVn
aVd
aVa
asb(imorph
Morph
(dp332
g47
(lp333
Vp
aVi
aVi
aVn
aVd
aVa
asbtp334
(imorph
Morph
p335
(dp336
g47
(lp337
Vp
aVi
aVi
aVn
aVd
asbs((imorph
Morph
(dp338
g47
(lp339
Vk
aVu
aVp
aVe
aVk
aVe
aVc\u030c
p340
aVa
asb(imorph
Morph
(dp341
g47
(lp342
Vm
aVp
aVe
aVk
aVe
aVc\u030c
p343
aVa
asb(imorph
Morph
(dp344
g47
(lp345
Va
aVp
aVe
aVk
aVe
aVc\u030c
p346
aVa
asb(imorph
Morph
(dp347
g47
(lp348
Vp
aVe
aVk
aVe
aVc\u030c
p349
aVa
asbtp350
(imorph
Morph
p351
(dp352
g47
(lp353
Vp
aVe
aVk
aVe
aVc\u030c
p354
asbs((imorph
Morph
(dp355
g47
(lp356
Vk
aVu
aVp
aVa
aVa
aV\u014b
aVg
aVa
asb(imorph
Morph
(dp357
g47
(lp358
Vm
aVp
aVa
aVa
aV\u014b
aVg
aVa
asb(imorph
Morph
(dp359
g47
(lp360
Va
aVp
aVa
aVa
aV\u014b
aVg
aVa
asb(imorph
Morph
(dp361
g47
(lp362
Vp
aVa
aVa
aV\u014b
aVg
aVa
asbtp363
(imorph
Morph
p364
(dp365
g47
(lp366
Vp
aVa
aVa
aV\u014b
aVg
asbs((imorph
Morph
(dp367
g47
(lp368
Vk
aVu
aVh
aVi
aVi
aVg
aVa
asb(imorph
Morph
(dp369
g47
(lp370
Vm
aVp
aVi
aVi
aVg
aVa
asb(imorph
Morph
(dp371
g47
(lp372
Va
aVh
aVi
aVi
aVg
aVa
asb(imorph
Morph
(dp373
g47
(lp374
Vh
aVi
aVi
aVg
aVa
asbtp375
(imorph
Morph
p376
(dp377
g47
(lp378
Vh
aVi
aVi
aVg
asbs((imorph
Morph
(dp379
g47
(lp380
Vk
aVu
aVh
aVe
aVe
aVk
aVa
asb(imorph
Morph
(dp381
g47
(lp382
Vm
aVp
aVe
aVe
aVk
aVa
asb(imorph
Morph
(dp383
g47
(lp384
Va
aVh
aVe
aVe
aVk
aVa
asb(imorph
Morph
(dp385
g47
(lp386
Vh
aVe
aVe
aVk
aVa
asbtp387
(imorph
Morph
p388
(dp389
g47
(lp390
Vh
aVe
aVe
aVk
asbs((imorph
Morph
(dp391
g47
(lp392
Vk
aVu
aVp
aVu
aVu
aVp
aVa
asb(imorph
Morph
(dp393
g47
(lp394
Vm
aVp
aVu
aVu
aVp
aVa
asb(imorph
Morph
(dp395
g47
(lp396
Va
aVp
aVu
aVu
aVp
aVa
asb(imorph
Morph
(dp397
g47
(lp398
Vp
aVu
aVu
aVp
aVa
asbtp399
(imorph
Morph
p400
(dp401
g47
(lp402
Vp
aVu
aVu
aVp
asbssS'frontiers'
p403
(lp404
(lp405
(irule
Rule
p406
(dp407
g17
(irule
Guard
p408
(dp409
g20
I00
sg21
(lp410
(irule
FeatureMatrix
p411
(dp412
g30
(lp413
(I00
S'vowel'
tp414
asg24
V[ -vowel ]
p415
sbasg23
I00
sg24
g415
sg25
I00
sg26
S'L'
sbsg27
(irule
ConstantPhoneme
p416
(dp417
S'p'
Vp
sbsg33
(irule
Guard
p418
(dp419
g20
I00
sg21
(lp420
sg23
I00
sg24
V
sg25
I00
sg26
S'R'
sbsg37
(irule
ConstantPhoneme
p421
(dp422
S'p'
Vh
sbsg24
Vh ---> p / [ -vowel ] _ 
p423
sba(irule
Rule
p424
(dp425
g17
(irule
Guard
p426
(dp427
g20
I00
sg21
(lp428
(irule
ConstantPhoneme
p429
(dp430
S'p'
Vm
sbasg23
I00
sg24
Vm
sg25
I00
sg26
S'L'
sbsg27
(irule
ConstantPhoneme
p431
(dp432
S'p'
Vp
sbsg33
(irule
Guard
p433
(dp434
g20
I00
sg21
(lp435
sg23
I00
sg24
V
sg25
I00
sg26
S'R'
sbsg37
(irule
FeatureMatrix
p436
(dp437
g30
(lp438
(I00
S'voice'
p439
tp440
asg24
V[ -voice ]
p441
sbsg24
V[ -voice ] ---> p / m _ 
p442
sba(irule
Rule
p443
(dp444
g17
(irule
Guard
p445
(dp446
g20
I01
sg21
(lp447
(irule
ConstantPhoneme
p448
(dp449
S'p'
Vm
sbasg23
I00
sg24
V# m
p450
sg25
I00
sg26
S'L'
sbsg27
(irule
ConstantPhoneme
p451
(dp452
S'p'
Vp
sbsg33
(irule
Guard
p453
(dp454
g20
I00
sg21
(lp455
sg23
I00
sg24
V
sg25
I00
sg26
S'R'
sbsg37
(irule
FeatureMatrix
p456
(dp457
g30
(lp458
sg24
V[  ]
p459
sbsg24
V[  ] ---> p / # m _ 
p460
sba(irule
Rule
p461
(dp462
g17
(irule
Guard
p463
(dp464
g20
I01
sg21
(lp465
(irule
FeatureMatrix
p466
(dp467
g30
(lp468
(I01
S'nasal'
p469
tp470
asg24
V[ +nasal ]
p471
sbasg23
I00
sg24
V# [ +nasal ]
p472
sg25
I00
sg26
S'L'
sbsg27
(irule
ConstantPhoneme
p473
(dp474
S'p'
Vp
sbsg33
(irule
Guard
p475
(dp476
g20
I00
sg21
(lp477
sg23
I00
sg24
V
sg25
I00
sg26
S'R'
sbsg37
(irule
FeatureMatrix
p478
(dp479
g30
(lp480
sg24
V[  ]
p481
sbsg24
V[  ] ---> p / # [ +nasal ] _ 
p482
sba(irule
Rule
p483
(dp484
g17
(irule
Guard
p485
(dp486
g20
I00
sg21
(lp487
(irule
FeatureMatrix
p488
(dp489
g30
(lp490
(I01
g469
tp491
asg24
V[ +nasal ]
p492
sbasg23
I00
sg24
g492
sg25
I00
sg26
S'L'
sbsg27
(irule
ConstantPhoneme
p493
(dp494
S'p'
Vp
sbsg33
(irule
Guard
p495
(dp496
g20
I00
sg21
(lp497
sg23
I00
sg24
V
sg25
I00
sg26
S'R'
sbsg37
(irule
FeatureMatrix
p498
(dp499
g30
(lp500
(I00
g439
tp501
asg24
V[ -voice ]
p502
sbsg24
V[ -voice ] ---> p / [ +nasal ] _ 
p503
sba(irule
Rule
p504
(dp505
g17
(irule
Guard
p506
(dp507
g20
I00
sg21
(lp508
(irule
FeatureMatrix
p509
(dp510
g30
(lp511
(I01
g469
tp512
asg24
V[ +nasal ]
p513
sbasg23
I00
sg24
g513
sg25
I00
sg26
S'L'
sbsg27
(irule
ConstantPhoneme
p514
(dp515
S'p'
Vp
sbsg33
(irule
Guard
p516
(dp517
g20
I00
sg21
(lp518
sg23
I00
sg24
V
sg25
I00
sg26
S'R'
sbsg37
(irule
ConstantPhoneme
p519
(dp520
S'p'
Vh
sbsg24
Vh ---> p / [ +nasal ] _ 
p521
sba(irule
Rule
p522
(dp523
g17
(irule
Guard
p524
(dp525
g20
I00
sg21
(lp526
(irule
FeatureMatrix
p527
(dp528
g30
(lp529
(I00
S'continuant'
p530
tp531
asg24
V[ -continuant ]
p532
sbasg23
I00
sg24
g532
sg25
I00
sg26
S'L'
sbsg27
(irule
ConstantPhoneme
p533
(dp534
S'p'
Vp
sbsg33
(irule
Guard
p535
(dp536
g20
I00
sg21
(lp537
sg23
I00
sg24
V
sg25
I00
sg26
S'R'
sbsg37
(irule
FeatureMatrix
p538
(dp539
g30
(lp540
(I00
g439
tp541
asg24
V[ -voice ]
p542
sbsg24
V[ -voice ] ---> p / [ -continuant ] _ 
p543
sba(irule
Rule
p544
(dp545
g17
(irule
Guard
p546
(dp547
g20
I00
sg21
(lp548
(irule
FeatureMatrix
p549
(dp550
g30
(lp551
(I00
S'vowel'
p552
tp553
asg24
V[ -vowel ]
p554
sbasg23
I00
sg24
g554
sg25
I00
sg26
S'L'
sbsg27
(irule
ConstantPhoneme
p555
(dp556
S'p'
Vp
sbsg33
(irule
Guard
p557
(dp558
g20
I00
sg21
(lp559
sg23
I00
sg24
V
sg25
I00
sg26
S'R'
sbsg37
(irule
FeatureMatrix
p560
(dp561
g30
(lp562
(I00
g439
tp563
asg24
V[ -voice ]
p564
sbsg24
V[ -voice ] ---> p / [ -vowel ] _ 
p565
sba(irule
Rule
p566
(dp567
g17
(irule
Guard
p568
(dp569
g20
I00
sg21
(lp570
(irule
FeatureMatrix
p571
(dp572
g30
(lp573
(I00
S'tense'
p574
tp575
asg24
V[ -tense ]
p576
sbasg23
I00
sg24
g576
sg25
I00
sg26
S'L'
sbsg27
(irule
ConstantPhoneme
p577
(dp578
S'p'
Vp
sbsg33
(irule
Guard
p579
(dp580
g20
I00
sg21
(lp581
sg23
I00
sg24
V
sg25
I00
sg26
S'R'
sbsg37
(irule
FeatureMatrix
p582
(dp583
g30
(lp584
(I00
g439
tp585
asg24
V[ -voice ]
p586
sbsg24
V[ -voice ] ---> p / [ -tense ] _ 
p587
sba(irule
Rule
p588
(dp589
g17
(irule
Guard
p590
(dp591
g20
I00
sg21
(lp592
(irule
FeatureMatrix
p593
(dp594
g30
(lp595
(I00
g574
tp596
asg24
V[ -tense ]
p597
sbasg23
I00
sg24
g597
sg25
I00
sg26
S'L'
sbsg27
(irule
ConstantPhoneme
p598
(dp599
S'p'
Vp
sbsg33
(irule
Guard
p600
(dp601
g20
I00
sg21
(lp602
sg23
I00
sg24
V
sg25
I00
sg26
S'R'
sbsg37
(irule
ConstantPhoneme
p603
(dp604
S'p'
Vh
sbsg24
Vh ---> p / [ -tense ] _ 
p605
sba(irule
Rule
p606
(dp607
g17
(irule
Guard
p608
(dp609
g20
I00
sg21
(lp610
(irule
FeatureMatrix
p611
(dp612
g30
(lp613
(I01
S'anterior'
p614
tp615
asg24
V[ +anterior ]
p616
sbasg23
I00
sg24
g616
sg25
I00
sg26
S'L'
sbsg27
(irule
ConstantPhoneme
p617
(dp618
S'p'
Vp
sbsg33
(irule
Guard
p619
(dp620
g20
I00
sg21
(lp621
sg23
I00
sg24
V
sg25
I00
sg26
S'R'
sbsg37
(irule
FeatureMatrix
p622
(dp623
g30
(lp624
(I00
g439
tp625
asg24
V[ -voice ]
p626
sbsg24
V[ -voice ] ---> p / [ +anterior ] _ 
p627
sba(irule
Rule
p628
(dp629
g17
(irule
Guard
p630
(dp631
g20
I00
sg21
(lp632
(irule
FeatureMatrix
p633
(dp634
g30
(lp635
(I01
g614
tp636
asg24
V[ +anterior ]
p637
sbasg23
I00
sg24
g637
sg25
I00
sg26
S'L'
sbsg27
(irule
ConstantPhoneme
p638
(dp639
S'p'
Vp
sbsg33
(irule
Guard
p640
(dp641
g20
I00
sg21
(lp642
sg23
I00
sg24
V
sg25
I00
sg26
S'R'
sbsg37
(irule
ConstantPhoneme
p643
(dp644
S'p'
Vh
sbsg24
Vh ---> p / [ +anterior ] _ 
p645
sba(irule
Rule
p646
(dp647
g17
(irule
Guard
p648
(dp649
g20
I00
sg21
(lp650
(irule
FeatureMatrix
p651
(dp652
g30
(lp653
(I00
S'back'
p654
tp655
asg24
V[ -back ]
p656
sbasg23
I00
sg24
g656
sg25
I00
sg26
S'L'
sbsg27
(irule
ConstantPhoneme
p657
(dp658
S'p'
Vp
sbsg33
(irule
Guard
p659
(dp660
g20
I00
sg21
(lp661
sg23
I00
sg24
V
sg25
I00
sg26
S'R'
sbsg37
(irule
ConstantPhoneme
p662
(dp663
S'p'
Vh
sbsg24
Vh ---> p / [ -back ] _ 
p664
sba(irule
Rule
p665
(dp666
g17
(irule
Guard
p667
(dp668
g20
I00
sg21
(lp669
(irule
FeatureMatrix
p670
(dp671
g30
(lp672
(I00
g530
tp673
asg24
V[ -continuant ]
p674
sbasg23
I00
sg24
g674
sg25
I00
sg26
S'L'
sbsg27
(irule
ConstantPhoneme
p675
(dp676
S'p'
Vp
sbsg33
(irule
Guard
p677
(dp678
g20
I00
sg21
(lp679
sg23
I00
sg24
V
sg25
I00
sg26
S'R'
sbsg37
(irule
ConstantPhoneme
p680
(dp681
S'p'
Vh
sbsg24
Vh ---> p / [ -continuant ] _ 
p682
sba(irule
Rule
p683
(dp684
g17
(irule
Guard
p685
(dp686
g20
I00
sg21
(lp687
(irule
ConstantPhoneme
p688
(dp689
S'p'
Vm
sbasg23
I00
sg24
Vm
sg25
I00
sg26
S'L'
sbsg27
(irule
ConstantPhoneme
p690
(dp691
S'p'
Vp
sbsg33
(irule
Guard
p692
(dp693
g20
I00
sg21
(lp694
sg23
I00
sg24
V
sg25
I00
sg26
S'R'
sbsg37
(irule
ConstantPhoneme
p695
(dp696
S'p'
Vh
sbsg24
Vh ---> p / m _ 
p697
sba(irule
Rule
p698
(dp699
g17
(irule
Guard
p700
(dp701
g20
I00
sg21
(lp702
(irule
FeatureMatrix
p703
(dp704
g30
(lp705
(I01
g469
tp706
asg24
V[ +nasal ]
p707
sbasg23
I00
sg24
g707
sg25
I00
sg26
S'L'
sbsg27
(irule
ConstantPhoneme
p708
(dp709
S'p'
Vp
sbsg33
(irule
Guard
p710
(dp711
g20
I00
sg21
(lp712
(irule
FeatureMatrix
p713
(dp714
g30
(lp715
sg24
V[  ]
p716
sbasg23
I00
sg24
g716
sg25
I00
sg26
S'R'
sbsg37
(irule
FeatureMatrix
p717
(dp718
g30
(lp719
(I01
S'sonorant'
p720
tp721
asg24
V[ +sonorant ]
p722
sbsg24
V[ +sonorant ] ---> p / [ +nasal ] _ [  ]
p723
sba(irule
Rule
p724
(dp725
g17
(irule
Guard
p726
(dp727
g20
I00
sg21
(lp728
(irule
FeatureMatrix
p729
(dp730
g30
(lp731
(I00
g574
tp732
asg24
V[ -tense ]
p733
sbasg23
I00
sg24
g733
sg25
I00
sg26
S'L'
sbsg27
(irule
ConstantPhoneme
p734
(dp735
S'p'
Vp
sbsg33
(irule
Guard
p736
(dp737
g20
I00
sg21
(lp738
sg23
I00
sg24
V
sg25
I00
sg26
S'R'
sbsg37
(irule
FeatureMatrix
p739
(dp740
g30
(lp741
(I01
g720
tp742
a(I00
g439
tp743
asg24
V[ +sonorant -voice ]
p744
sbsg24
V[ +sonorant -voice ] ---> p / [ -tense ] _ 
p745
sba(irule
Rule
p746
(dp747
g17
(irule
Guard
p748
(dp749
g20
I00
sg21
(lp750
(irule
FeatureMatrix
p751
(dp752
g30
(lp753
(I01
g469
tp754
asg24
V[ +nasal ]
p755
sbasg23
I00
sg24
g755
sg25
I00
sg26
S'L'
sbsg27
(irule
ConstantPhoneme
p756
(dp757
S'p'
Vp
sbsg33
(irule
Guard
p758
(dp759
g20
I00
sg21
(lp760
(irule
FeatureMatrix
p761
(dp762
g30
(lp763
sg24
V[  ]
p764
sba(irule
FeatureMatrix
p765
(dp766
g30
(lp767
sg24
V[  ]
p768
sbasg23
I00
sg24
V[  ] [  ]
p769
sg25
I00
sg26
S'R'
sbsg37
(irule
FeatureMatrix
p770
(dp771
g30
(lp772
sg24
V[  ]
p773
sbsg24
V[  ] ---> p / [ +nasal ] _ [  ] [  ]
p774
sba(irule
Rule
p775
(dp776
g17
(irule
Guard
p777
(dp778
g20
I00
sg21
(lp779
(irule
FeatureMatrix
p780
(dp781
g30
(lp782
(I01
g469
tp783
asg24
V[ +nasal ]
p784
sbasg23
I00
sg24
g784
sg25
I00
sg26
S'L'
sbsg27
(irule
ConstantPhoneme
p785
(dp786
S'p'
Vp
sbsg33
(irule
Guard
p787
(dp788
g20
I00
sg21
(lp789
(irule
FeatureMatrix
p790
(dp791
g30
(lp792
sg24
V[  ]
p793
sbasg23
I00
sg24
g793
sg25
I00
sg26
S'R'
sbsg37
(irule
FeatureMatrix
p794
(dp795
g30
(lp796
(I01
g530
tp797
asg24
V[ +continuant ]
p798
sbsg24
V[ +continuant ] ---> p / [ +nasal ] _ [  ]
p799
sba(irule
Rule
p800
(dp801
g17
(irule
Guard
p802
(dp803
g20
I01
sg21
(lp804
(irule
FeatureMatrix
p805
(dp806
g30
(lp807
(I00
g654
tp808
a(I01
g439
tp809
asg24
V[ +voice -back ]
p810
sbasg23
I00
sg24
V# [ +voice -back ]
p811
sg25
I00
sg26
S'L'
sbsg27
(irule
ConstantPhoneme
p812
(dp813
S'p'
Vp
sbsg33
(irule
Guard
p814
(dp815
g20
I00
sg21
(lp816
sg23
I00
sg24
V
sg25
I00
sg26
S'R'
sbsg37
(irule
FeatureMatrix
p817
(dp818
g30
(lp819
sg24
V[  ]
p820
sbsg24
V[  ] ---> p / # [ +voice -back ] _ 
p821
sba(irule
Rule
p822
(dp823
g17
(irule
Guard
p824
(dp825
g20
I01
sg21
(lp826
(irule
FeatureMatrix
p827
(dp828
g30
(lp829
(I00
S'low'
p830
tp831
asg24
V[ -low ]
p832
sbasg23
I00
sg24
V# [ -low ]
p833
sg25
I00
sg26
S'L'
sbsg27
(irule
ConstantPhoneme
p834
(dp835
S'p'
Vp
sbsg33
(irule
Guard
p836
(dp837
g20
I00
sg21
(lp838
sg23
I00
sg24
V
sg25
I00
sg26
S'R'
sbsg37
(irule
FeatureMatrix
p839
(dp840
g30
(lp841
(I00
g574
tp842
asg24
V[ -tense ]
p843
sbsg24
V[ -tense ] ---> p / # [ -low ] _ 
p844
sba(irule
Rule
p845
(dp846
g17
(irule
Guard
p847
(dp848
g20
I00
sg21
(lp849
(irule
FeatureMatrix
p850
(dp851
g30
(lp852
(I01
g469
tp853
asg24
V[ +nasal ]
p854
sbasg23
I00
sg24
g854
sg25
I00
sg26
S'L'
sbsg27
(irule
ConstantPhoneme
p855
(dp856
S'p'
Vp
sbsg33
(irule
Guard
p857
(dp858
g20
I00
sg21
(lp859
sg23
I00
sg24
V
sg25
I00
sg26
S'R'
sbsg37
(irule
FeatureMatrix
p860
(dp861
g30
(lp862
(I00
g614
tp863
a(I00
g654
tp864
asg24
V[ -anterior -back ]
p865
sbsg24
V[ -anterior -back ] ---> p / [ +nasal ] _ 
p866
sba(irule
Rule
p867
(dp868
g17
(irule
Guard
p869
(dp870
g20
I01
sg21
(lp871
(irule
FeatureMatrix
p872
(dp873
g30
(lp874
(I00
g830
tp875
a(I01
g439
tp876
asg24
V[ +voice -low ]
p877
sbasg23
I00
sg24
V# [ +voice -low ]
p878
sg25
I00
sg26
S'L'
sbsg27
(irule
ConstantPhoneme
p879
(dp880
S'p'
Vp
sbsg33
(irule
Guard
p881
(dp882
g20
I00
sg21
(lp883
sg23
I00
sg24
V
sg25
I00
sg26
S'R'
sbsg37
(irule
FeatureMatrix
p884
(dp885
g30
(lp886
sg24
V[  ]
p887
sbsg24
V[  ] ---> p / # [ +voice -low ] _ 
p888
sba(irule
Rule
p889
(dp890
g17
(irule
Guard
p891
(dp892
g20
I00
sg21
(lp893
(irule
FeatureMatrix
p894
(dp895
g30
(lp896
(I01
g614
tp897
asg24
V[ +anterior ]
p898
sbasg23
I00
sg24
g898
sg25
I00
sg26
S'L'
sbsg27
(irule
ConstantPhoneme
p899
(dp900
S'p'
Vp
sbsg33
(irule
Guard
p901
(dp902
g20
I00
sg21
(lp903
sg23
I00
sg24
V
sg25
I00
sg26
S'R'
sbsg37
(irule
FeatureMatrix
p904
(dp905
g30
(lp906
(I00
g614
tp907
a(I00
g552
tp908
asg24
V[ -anterior -vowel ]
p909
sbsg24
V[ -anterior -vowel ] ---> p / [ +anterior ] _ 
p910
sba(irule
Rule
p911
(dp912
g17
(irule
Guard
p913
(dp914
g20
I01
sg21
(lp915
(irule
FeatureMatrix
p916
(dp917
g30
(lp918
(I01
g469
tp919
asg24
V[ +nasal ]
p920
sbasg23
I00
sg24
V# [ +nasal ]
p921
sg25
I00
sg26
S'L'
sbsg27
(irule
ConstantPhoneme
p922
(dp923
S'p'
Vp
sbsg33
(irule
Guard
p924
(dp925
g20
I00
sg21
(lp926
(irule
FeatureMatrix
p927
(dp928
g30
(lp929
sg24
V[  ]
p930
sbasg23
I00
sg24
g930
sg25
I00
sg26
S'R'
sbsg37
(irule
FeatureMatrix
p931
(dp932
g30
(lp933
sg24
V[  ]
p934
sbsg24
V[  ] ---> p / # [ +nasal ] _ [  ]
p935
sba(irule
Rule
p936
(dp937
g17
(irule
Guard
p938
(dp939
g20
I01
sg21
(lp940
(irule
ConstantPhoneme
p941
(dp942
S'p'
Vm
sbasg23
I00
sg24
V# m
p943
sg25
I00
sg26
S'L'
sbsg27
(irule
ConstantPhoneme
p944
(dp945
S'p'
Vp
sbsg33
(irule
Guard
p946
(dp947
g20
I00
sg21
(lp948
(irule
FeatureMatrix
p949
(dp950
g30
(lp951
sg24
V[  ]
p952
sbasg23
I00
sg24
g952
sg25
I00
sg26
S'R'
sbsg37
(irule
FeatureMatrix
p953
(dp954
g30
(lp955
sg24
V[  ]
p956
sbsg24
V[  ] ---> p / # m _ [  ]
p957
sba(irule
Rule
p958
(dp959
g17
(irule
Guard
p960
(dp961
g20
I01
sg21
(lp962
(irule
FeatureMatrix
p963
(dp964
g30
(lp965
(I01
g469
tp966
a(I00
S'sibilant'
p967
tp968
asg24
V[ +nasal -sibilant ]
p969
sbasg23
I00
sg24
V# [ +nasal -sibilant ]
p970
sg25
I00
sg26
S'L'
sbsg27
(irule
ConstantPhoneme
p971
(dp972
S'p'
Vp
sbsg33
(irule
Guard
p973
(dp974
g20
I00
sg21
(lp975
sg23
I00
sg24
V
sg25
I00
sg26
S'R'
sbsg37
(irule
FeatureMatrix
p976
(dp977
g30
(lp978
sg24
V[  ]
p979
sbsg24
V[  ] ---> p / # [ +nasal -sibilant ] _ 
p980
sba(irule
Rule
p981
(dp982
g17
(irule
Guard
p983
(dp984
g20
I00
sg21
(lp985
(irule
FeatureMatrix
p986
(dp987
g30
(lp988
(I00
g574
tp989
asg24
V[ -tense ]
p990
sbasg23
I00
sg24
g990
sg25
I00
sg26
S'L'
sbsg27
(irule
ConstantPhoneme
p991
(dp992
S'p'
Vp
sbsg33
(irule
Guard
p993
(dp994
g20
I00
sg21
(lp995
(irule
FeatureMatrix
p996
(dp997
g30
(lp998
sg24
V[  ]
p999
sbasg23
I00
sg24
g999
sg25
I00
sg26
S'R'
sbsg37
(irule
ConstantPhoneme
p1000
(dp1001
S'p'
Vh
sbsg24
Vh ---> p / [ -tense ] _ [  ]
p1002
sba(irule
Rule
p1003
(dp1004
g17
(irule
Guard
p1005
(dp1006
g20
I00
sg21
(lp1007
(irule
FeatureMatrix
p1008
(dp1009
g30
(lp1010
(I00
g530
tp1011
asg24
V[ -continuant ]
p1012
sbasg23
I00
sg24
g1012
sg25
I00
sg26
S'L'
sbsg27
(irule
ConstantPhoneme
p1013
(dp1014
S'p'
Vp
sbsg33
(irule
Guard
p1015
(dp1016
g20
I00
sg21
(lp1017
(irule
FeatureMatrix
p1018
(dp1019
g30
(lp1020
sg24
V[  ]
p1021
sbasg23
I00
sg24
g1021
sg25
I00
sg26
S'R'
sbsg37
(irule
FeatureMatrix
p1022
(dp1023
g30
(lp1024
(I00
g439
tp1025
asg24
V[ -voice ]
p1026
sbsg24
V[ -voice ] ---> p / [ -continuant ] _ [  ]
p1027
sba(irule
Rule
p1028
(dp1029
g17
(irule
Guard
p1030
(dp1031
g20
I00
sg21
(lp1032
(irule
FeatureMatrix
p1033
(dp1034
g30
(lp1035
(I01
g469
tp1036
a(I00
g574
tp1037
asg24
V[ +nasal -tense ]
p1038
sbasg23
I00
sg24
g1038
sg25
I00
sg26
S'L'
sbsg27
(irule
ConstantPhoneme
p1039
(dp1040
S'p'
Vp
sbsg33
(irule
Guard
p1041
(dp1042
g20
I00
sg21
(lp1043
sg23
I00
sg24
V
sg25
I00
sg26
S'R'
sbsg37
(irule
FeatureMatrix
p1044
(dp1045
g30
(lp1046
(I00
g439
tp1047
asg24
V[ -voice ]
p1048
sbsg24
V[ -voice ] ---> p / [ +nasal -tense ] _ 
p1049
sba(irule
Rule
p1050
(dp1051
g17
(irule
Guard
p1052
(dp1053
g20
I01
sg21
(lp1054
(irule
FeatureMatrix
p1055
(dp1056
g30
(lp1057
(I01
g469
tp1058
asg24
V[ +nasal ]
p1059
sbasg23
I00
sg24
V# [ +nasal ]
p1060
sg25
I00
sg26
S'L'
sbsg27
(irule
ConstantPhoneme
p1061
(dp1062
S'p'
Vp
sbsg33
(irule
Guard
p1063
(dp1064
g20
I00
sg21
(lp1065
sg23
I00
sg24
V
sg25
I00
sg26
S'R'
sbsg37
(irule
FeatureMatrix
p1066
(dp1067
g30
(lp1068
(I01
g720
tp1069
asg24
V[ +sonorant ]
p1070
sbsg24
V[ +sonorant ] ---> p / # [ +nasal ] _ 
p1071
sba(irule
Rule
p1072
(dp1073
g17
(irule
Guard
p1074
(dp1075
g20
I01
sg21
(lp1076
(irule
FeatureMatrix
p1077
(dp1078
g30
(lp1079
(I01
g469
tp1080
a(I01
g720
tp1081
asg24
V[ +nasal +sonorant ]
p1082
sbasg23
I00
sg24
V# [ +nasal +sonorant ]
p1083
sg25
I00
sg26
S'L'
sbsg27
(irule
ConstantPhoneme
p1084
(dp1085
S'p'
Vp
sbsg33
(irule
Guard
p1086
(dp1087
g20
I00
sg21
(lp1088
sg23
I00
sg24
V
sg25
I00
sg26
S'R'
sbsg37
(irule
FeatureMatrix
p1089
(dp1090
g30
(lp1091
sg24
V[  ]
p1092
sbsg24
V[  ] ---> p / # [ +nasal +sonorant ] _ 
p1093
sba(irule
Rule
p1094
(dp1095
g17
(irule
Guard
p1096
(dp1097
g20
I00
sg21
(lp1098
(irule
FeatureMatrix
p1099
(dp1100
g30
(lp1101
(I01
g469
tp1102
asg24
V[ +nasal ]
p1103
sbasg23
I00
sg24
g1103
sg25
I00
sg26
S'L'
sbsg27
(irule
ConstantPhoneme
p1104
(dp1105
S'p'
Vp
sbsg33
(irule
Guard
p1106
(dp1107
g20
I00
sg21
(lp1108
sg23
I00
sg24
V
sg25
I00
sg26
S'R'
sbsg37
(irule
FeatureMatrix
p1109
(dp1110
g30
(lp1111
(I00
g967
tp1112
a(I00
g439
tp1113
asg24
V[ -sibilant -voice ]
p1114
sbsg24
V[ -sibilant -voice ] ---> p / [ +nasal ] _ 
p1115
sba(irule
Rule
p1116
(dp1117
g17
(irule
Guard
p1118
(dp1119
g20
I00
sg21
(lp1120
(irule
ConstantPhoneme
p1121
(dp1122
S'p'
Vm
sbasg23
I00
sg24
Vm
sg25
I00
sg26
S'L'
sbsg27
(irule
ConstantPhoneme
p1123
(dp1124
S'p'
Vp
sbsg33
(irule
Guard
p1125
(dp1126
g20
I00
sg21
(lp1127
(irule
FeatureMatrix
p1128
(dp1129
g30
(lp1130
sg24
V[  ]
p1131
sba(irule
FeatureMatrix
p1132
(dp1133
g30
(lp1134
sg24
V[  ]
p1135
sbasg23
I00
sg24
V[  ] [  ]
p1136
sg25
I00
sg26
S'R'
sbsg37
(irule
FeatureMatrix
p1137
(dp1138
g30
(lp1139
sg24
V[  ]
p1140
sbsg24
V[  ] ---> p / m _ [  ] [  ]
p1141
sba(irule
Rule
p1142
(dp1143
g17
(irule
Guard
p1144
(dp1145
g20
I01
sg21
(lp1146
(irule
FeatureMatrix
p1147
(dp1148
g30
(lp1149
(I01
g469
tp1150
asg24
V[ +nasal ]
p1151
sbasg23
I00
sg24
V# [ +nasal ]
p1152
sg25
I00
sg26
S'L'
sbsg27
(irule
ConstantPhoneme
p1153
(dp1154
S'p'
Vp
sbsg33
(irule
Guard
p1155
(dp1156
g20
I00
sg21
(lp1157
sg23
I00
sg24
V
sg25
I00
sg26
S'R'
sbsg37
(irule
FeatureMatrix
p1158
(dp1159
g30
(lp1160
(I00
g439
tp1161
asg24
V[ -voice ]
p1162
sbsg24
V[ -voice ] ---> p / # [ +nasal ] _ 
p1163
sba(irule
Rule
p1164
(dp1165
g17
(irule
Guard
p1166
(dp1167
g20
I01
sg21
(lp1168
(irule
FeatureMatrix
p1169
(dp1170
g30
(lp1171
(I00
g574
tp1172
a(I01
g439
tp1173
asg24
V[ +voice -tense ]
p1174
sbasg23
I00
sg24
V# [ +voice -tense ]
p1175
sg25
I00
sg26
S'L'
sbsg27
(irule
ConstantPhoneme
p1176
(dp1177
S'p'
Vp
sbsg33
(irule
Guard
p1178
(dp1179
g20
I00
sg21
(lp1180
sg23
I00
sg24
V
sg25
I00
sg26
S'R'
sbsg37
(irule
FeatureMatrix
p1181
(dp1182
g30
(lp1183
sg24
V[  ]
p1184
sbsg24
V[  ] ---> p / # [ +voice -tense ] _ 
p1185
sba(irule
Rule
p1186
(dp1187
g17
(irule
Guard
p1188
(dp1189
g20
I00
sg21
(lp1190
(irule
FeatureMatrix
p1191
(dp1192
g30
(lp1193
(I00
g574
tp1194
asg24
V[ -tense ]
p1195
sbasg23
I00
sg24
g1195
sg25
I00
sg26
S'L'
sbsg27
(irule
ConstantPhoneme
p1196
(dp1197
S'p'
Vp
sbsg33
(irule
Guard
p1198
(dp1199
g20
I00
sg21
(lp1200
sg23
I00
sg24
V
sg25
I00
sg26
S'R'
sbsg37
(irule
FeatureMatrix
p1201
(dp1202
g30
(lp1203
(I01
g830
tp1204
a(I00
g439
tp1205
asg24
V[ +low -voice ]
p1206
sbsg24
V[ +low -voice ] ---> p / [ -tense ] _ 
p1207
sba(irule
Rule
p1208
(dp1209
g17
(irule
Guard
p1210
(dp1211
g20
I00
sg21
(lp1212
(irule
FeatureMatrix
p1213
(dp1214
g30
(lp1215
(I01
g469
tp1216
asg24
V[ +nasal ]
p1217
sbasg23
I00
sg24
g1217
sg25
I00
sg26
S'L'
sbsg27
(irule
ConstantPhoneme
p1218
(dp1219
S'p'
Vp
sbsg33
(irule
Guard
p1220
(dp1221
g20
I00
sg21
(lp1222
sg23
I00
sg24
V
sg25
I00
sg26
S'R'
sbsg37
(irule
FeatureMatrix
p1223
(dp1224
g30
(lp1225
(I01
g530
tp1226
a(I00
g552
tp1227
asg24
V[ +continuant -vowel ]
p1228
sbsg24
V[ +continuant -vowel ] ---> p / [ +nasal ] _ 
p1229
sba(irule
Rule
p1230
(dp1231
g17
(irule
Guard
p1232
(dp1233
g20
I01
sg21
(lp1234
(irule
FeatureMatrix
p1235
(dp1236
g30
(lp1237
(I01
g469
tp1238
asg24
V[ +nasal ]
p1239
sbasg23
I00
sg24
V# [ +nasal ]
p1240
sg25
I00
sg26
S'L'
sbsg27
(irule
ConstantPhoneme
p1241
(dp1242
S'p'
Vp
sbsg33
(irule
Guard
p1243
(dp1244
g20
I00
sg21
(lp1245
sg23
I00
sg24
V
sg25
I00
sg26
S'R'
sbsg37
(irule
FeatureMatrix
p1246
(dp1247
g30
(lp1248
(I00
g967
tp1249
asg24
V[ -sibilant ]
p1250
sbsg24
V[ -sibilant ] ---> p / # [ +nasal ] _ 
p1251
sba(irule
Rule
p1252
(dp1253
g17
(irule
Guard
p1254
(dp1255
g20
I00
sg21
(lp1256
(irule
FeatureMatrix
p1257
(dp1258
g30
(lp1259
(I01
g469
tp1260
asg24
V[ +nasal ]
p1261
sbasg23
I00
sg24
g1261
sg25
I00
sg26
S'L'
sbsg27
(irule
ConstantPhoneme
p1262
(dp1263
S'p'
Vp
sbsg33
(irule
Guard
p1264
(dp1265
g20
I00
sg21
(lp1266
sg23
I00
sg24
V
sg25
I00
sg26
S'R'
sbsg37
(irule
FeatureMatrix
p1267
(dp1268
g30
(lp1269
(I01
g530
tp1270
a(I00
g654
tp1271
asg24
V[ +continuant -back ]
p1272
sbsg24
V[ +continuant -back ] ---> p / [ +nasal ] _ 
p1273
sba(irule
Rule
p1274
(dp1275
g17
(irule
Guard
p1276
(dp1277
g20
I00
sg21
(lp1278
(irule
FeatureMatrix
p1279
(dp1280
g30
(lp1281
(I01
g469
tp1282
asg24
V[ +nasal ]
p1283
sbasg23
I00
sg24
g1283
sg25
I00
sg26
S'L'
sbsg27
(irule
ConstantPhoneme
p1284
(dp1285
S'p'
Vp
sbsg33
(irule
Guard
p1286
(dp1287
g20
I00
sg21
(lp1288
(irule
FeatureMatrix
p1289
(dp1290
g30
(lp1291
sg24
V[  ]
p1292
sbasg23
I00
sg24
g1292
sg25
I00
sg26
S'R'
sbsg37
(irule
FeatureMatrix
p1293
(dp1294
g30
(lp1295
(I00
g439
tp1296
asg24
V[ -voice ]
p1297
sbsg24
V[ -voice ] ---> p / [ +nasal ] _ [  ]
p1298
sba(irule
Rule
p1299
(dp1300
g17
(irule
Guard
p1301
(dp1302
g20
I00
sg21
(lp1303
(irule
FeatureMatrix
p1304
(dp1305
g30
(lp1306
(I01
g469
tp1307
asg24
V[ +nasal ]
p1308
sbasg23
I00
sg24
g1308
sg25
I00
sg26
S'L'
sbsg27
(irule
ConstantPhoneme
p1309
(dp1310
S'p'
Vp
sbsg33
(irule
Guard
p1311
(dp1312
g20
I00
sg21
(lp1313
(irule
FeatureMatrix
p1314
(dp1315
g30
(lp1316
sg24
V[  ]
p1317
sbasg23
I00
sg24
g1317
sg25
I00
sg26
S'R'
sbsg37
(irule
FeatureMatrix
p1318
(dp1319
g30
(lp1320
(I01
g830
tp1321
asg24
V[ +low ]
p1322
sbsg24
V[ +low ] ---> p / [ +nasal ] _ [  ]
p1323
sba(irule
Rule
p1324
(dp1325
g17
(irule
Guard
p1326
(dp1327
g20
I01
sg21
(lp1328
(irule
FeatureMatrix
p1329
(dp1330
g30
(lp1331
(I01
g469
tp1332
a(I00
g552
tp1333
asg24
V[ +nasal -vowel ]
p1334
sbasg23
I00
sg24
V# [ +nasal -vowel ]
p1335
sg25
I00
sg26
S'L'
sbsg27
(irule
ConstantPhoneme
p1336
(dp1337
S'p'
Vp
sbsg33
(irule
Guard
p1338
(dp1339
g20
I00
sg21
(lp1340
sg23
I00
sg24
V
sg25
I00
sg26
S'R'
sbsg37
(irule
FeatureMatrix
p1341
(dp1342
g30
(lp1343
sg24
V[  ]
p1344
sbsg24
V[  ] ---> p / # [ +nasal -vowel ] _ 
p1345
sba(irule
Rule
p1346
(dp1347
g17
(irule
Guard
p1348
(dp1349
g20
I00
sg21
(lp1350
(irule
FeatureMatrix
p1351
(dp1352
g30
(lp1353
(I01
g469
tp1354
asg24
V[ +nasal ]
p1355
sbasg23
I00
sg24
g1355
sg25
I00
sg26
S'L'
sbsg27
(irule
ConstantPhoneme
p1356
(dp1357
S'p'
Vp
sbsg33
(irule
Guard
p1358
(dp1359
g20
I00
sg21
(lp1360
(irule
FeatureMatrix
p1361
(dp1362
g30
(lp1363
sg24
V[  ]
p1364
sbasg23
I00
sg24
g1364
sg25
I00
sg26
S'R'
sbsg37
(irule
ConstantPhoneme
p1365
(dp1366
S'p'
Vh
sbsg24
Vh ---> p / [ +nasal ] _ [  ]
p1367
sba(irule
Rule
p1368
(dp1369
g17
(irule
Guard
p1370
(dp1371
g20
I01
sg21
(lp1372
(irule
FeatureMatrix
p1373
(dp1374
g30
(lp1375
(I01
g469
tp1376
a(I00
S'coronal'
p1377
tp1378
asg24
V[ +nasal -coronal ]
p1379
sbasg23
I00
sg24
V# [ +nasal -coronal ]
p1380
sg25
I00
sg26
S'L'
sbsg27
(irule
ConstantPhoneme
p1381
(dp1382
S'p'
Vp
sbsg33
(irule
Guard
p1383
(dp1384
g20
I00
sg21
(lp1385
sg23
I00
sg24
V
sg25
I00
sg26
S'R'
sbsg37
(irule
FeatureMatrix
p1386
(dp1387
g30
(lp1388
sg24
V[  ]
p1389
sbsg24
V[  ] ---> p / # [ +nasal -coronal ] _ 
p1390
sba(irule
Rule
p1391
(dp1392
g17
(irule
Guard
p1393
(dp1394
g20
I01
sg21
(lp1395
(irule
FeatureMatrix
p1396
(dp1397
g30
(lp1398
(I00
g654
tp1399
asg24
V[ -back ]
p1400
sbasg23
I00
sg24
V# [ -back ]
p1401
sg25
I00
sg26
S'L'
sbsg27
(irule
ConstantPhoneme
p1402
(dp1403
S'p'
Vp
sbsg33
(irule
Guard
p1404
(dp1405
g20
I00
sg21
(lp1406
sg23
I00
sg24
V
sg25
I00
sg26
S'R'
sbsg37
(irule
ConstantPhoneme
p1407
(dp1408
S'p'
Vh
sbsg24
Vh ---> p / # [ -back ] _ 
p1409
sba(irule
Rule
p1410
(dp1411
g17
(irule
Guard
p1412
(dp1413
g20
I00
sg21
(lp1414
(irule
FeatureMatrix
p1415
(dp1416
g30
(lp1417
(I01
g614
tp1418
asg24
V[ +anterior ]
p1419
sbasg23
I00
sg24
g1419
sg25
I00
sg26
S'L'
sbsg27
(irule
ConstantPhoneme
p1420
(dp1421
S'p'
Vp
sbsg33
(irule
Guard
p1422
(dp1423
g20
I00
sg21
(lp1424
(irule
FeatureMatrix
p1425
(dp1426
g30
(lp1427
sg24
V[  ]
p1428
sbasg23
I00
sg24
g1428
sg25
I00
sg26
S'R'
sbsg37
(irule
FeatureMatrix
p1429
(dp1430
g30
(lp1431
(I00
g439
tp1432
asg24
V[ -voice ]
p1433
sbsg24
V[ -voice ] ---> p / [ +anterior ] _ [  ]
p1434
sba(irule
Rule
p1435
(dp1436
g17
(irule
Guard
p1437
(dp1438
g20
I00
sg21
(lp1439
(irule
ConstantPhoneme
p1440
(dp1441
S'p'
Vm
sbasg23
I00
sg24
Vm
sg25
I00
sg26
S'L'
sbsg27
(irule
ConstantPhoneme
p1442
(dp1443
S'p'
Vp
sbsg33
(irule
Guard
p1444
(dp1445
g20
I00
sg21
(lp1446
sg23
I00
sg24
V
sg25
I00
sg26
S'R'
sbsg37
(irule
FeatureMatrix
p1447
(dp1448
g30
(lp1449
(I01
g830
tp1450
a(I00
g552
tp1451
asg24
V[ +low -vowel ]
p1452
sbsg24
V[ +low -vowel ] ---> p / m _ 
p1453
sba(irule
Rule
p1454
(dp1455
g17
(irule
Guard
p1456
(dp1457
g20
I00
sg21
(lp1458
(irule
FeatureMatrix
p1459
(dp1460
g30
(lp1461
(I01
g469
tp1462
asg24
V[ +nasal ]
p1463
sbasg23
I00
sg24
g1463
sg25
I00
sg26
S'L'
sbsg27
(irule
ConstantPhoneme
p1464
(dp1465
S'p'
Vp
sbsg33
(irule
Guard
p1466
(dp1467
g20
I00
sg21
(lp1468
sg23
I00
sg24
V
sg25
I00
sg26
S'R'
sbsg37
(irule
FeatureMatrix
p1469
(dp1470
g30
(lp1471
(I00
g552
tp1472
a(I00
g439
tp1473
asg24
V[ -voice -vowel ]
p1474
sbsg24
V[ -voice -vowel ] ---> p / [ +nasal ] _ 
p1475
sba(irule
Rule
p1476
(dp1477
g17
(irule
Guard
p1478
(dp1479
g20
I00
sg21
(lp1480
(irule
FeatureMatrix
p1481
(dp1482
g30
(lp1483
(I00
g574
tp1484
a(I00
g552
tp1485
asg24
V[ -tense -vowel ]
p1486
sbasg23
I00
sg24
g1486
sg25
I00
sg26
S'L'
sbsg27
(irule
ConstantPhoneme
p1487
(dp1488
S'p'
Vp
sbsg33
(irule
Guard
p1489
(dp1490
g20
I00
sg21
(lp1491
sg23
I00
sg24
V
sg25
I00
sg26
S'R'
sbsg37
(irule
ConstantPhoneme
p1492
(dp1493
S'p'
Vh
sbsg24
Vh ---> p / [ -tense -vowel ] _ 
p1494
sba(irule
Rule
p1495
(dp1496
g17
(irule
Guard
p1497
(dp1498
g20
I01
sg21
(lp1499
(irule
FeatureMatrix
p1500
(dp1501
g30
(lp1502
(I00
g574
tp1503
asg24
V[ -tense ]
p1504
sbasg23
I00
sg24
V# [ -tense ]
p1505
sg25
I00
sg26
S'L'
sbsg27
(irule
ConstantPhoneme
p1506
(dp1507
S'p'
Vp
sbsg33
(irule
Guard
p1508
(dp1509
g20
I00
sg21
(lp1510
sg23
I00
sg24
V
sg25
I00
sg26
S'R'
sbsg37
(irule
FeatureMatrix
p1511
(dp1512
g30
(lp1513
(I00
g439
tp1514
asg24
V[ -voice ]
p1515
sbsg24
V[ -voice ] ---> p / # [ -tense ] _ 
p1516
sba(irule
Rule
p1517
(dp1518
g17
(irule
Guard
p1519
(dp1520
g20
I00
sg21
(lp1521
(irule
FeatureMatrix
p1522
(dp1523
g30
(lp1524
(I01
g469
tp1525
asg24
V[ +nasal ]
p1526
sbasg23
I00
sg24
g1526
sg25
I00
sg26
S'L'
sbsg27
(irule
ConstantPhoneme
p1527
(dp1528
S'p'
Vp
sbsg33
(irule
Guard
p1529
(dp1530
g20
I00
sg21
(lp1531
sg23
I00
sg24
V
sg25
I00
sg26
S'R'
sbsg37
(irule
FeatureMatrix
p1532
(dp1533
g30
(lp1534
(I01
g720
tp1535
a(I00
g574
tp1536
asg24
V[ +sonorant -tense ]
p1537
sbsg24
V[ +sonorant -tense ] ---> p / [ +nasal ] _ 
p1538
sba(irule
Rule
p1539
(dp1540
g17
(irule
Guard
p1541
(dp1542
g20
I01
sg21
(lp1543
(irule
FeatureMatrix
p1544
(dp1545
g30
(lp1546
(I00
g530
tp1547
a(I01
g439
tp1548
asg24
V[ +voice -continuant ]
p1549
sbasg23
I00
sg24
V# [ +voice -continuant ]
p1550
sg25
I00
sg26
S'L'
sbsg27
(irule
ConstantPhoneme
p1551
(dp1552
S'p'
Vp
sbsg33
(irule
Guard
p1553
(dp1554
g20
I00
sg21
(lp1555
sg23
I00
sg24
V
sg25
I00
sg26
S'R'
sbsg37
(irule
FeatureMatrix
p1556
(dp1557
g30
(lp1558
sg24
V[  ]
p1559
sbsg24
V[  ] ---> p / # [ +voice -continuant ] _ 
p1560
sba(irule
Rule
p1561
(dp1562
g17
(irule
Guard
p1563
(dp1564
g20
I00
sg21
(lp1565
(irule
FeatureMatrix
p1566
(dp1567
g30
(lp1568
(I00
g574
tp1569
asg24
V[ -tense ]
p1570
sbasg23
I00
sg24
g1570
sg25
I00
sg26
S'L'
sbsg27
(irule
ConstantPhoneme
p1571
(dp1572
S'p'
Vp
sbsg33
(irule
Guard
p1573
(dp1574
g20
I00
sg21
(lp1575
(irule
FeatureMatrix
p1576
(dp1577
g30
(lp1578
sg24
V[  ]
p1579
sbasg23
I00
sg24
g1579
sg25
I00
sg26
S'R'
sbsg37
(irule
FeatureMatrix
p1580
(dp1581
g30
(lp1582
(I00
g439
tp1583
asg24
V[ -voice ]
p1584
sbsg24
V[ -voice ] ---> p / [ -tense ] _ [  ]
p1585
sba(irule
Rule
p1586
(dp1587
g17
(irule
Guard
p1588
(dp1589
g20
I01
sg21
(lp1590
(irule
FeatureMatrix
p1591
(dp1592
g30
(lp1593
(I01
g469
tp1594
a(I01
g439
tp1595
asg24
V[ +nasal +voice ]
p1596
sbasg23
I00
sg24
V# [ +nasal +voice ]
p1597
sg25
I00
sg26
S'L'
sbsg27
(irule
ConstantPhoneme
p1598
(dp1599
S'p'
Vp
sbsg33
(irule
Guard
p1600
(dp1601
g20
I00
sg21
(lp1602
sg23
I00
sg24
V
sg25
I00
sg26
S'R'
sbsg37
(irule
FeatureMatrix
p1603
(dp1604
g30
(lp1605
sg24
V[  ]
p1606
sbsg24
V[  ] ---> p / # [ +nasal +voice ] _ 
p1607
sba(irule
Rule
p1608
(dp1609
g17
(irule
Guard
p1610
(dp1611
g20
I01
sg21
(lp1612
(irule
FeatureMatrix
p1613
(dp1614
g30
(lp1615
(I00
g530
tp1616
a(I01
g720
tp1617
asg24
V[ +sonorant -continuant ]
p1618
sbasg23
I00
sg24
V# [ +sonorant -continuant ]
p1619
sg25
I00
sg26
S'L'
sbsg27
(irule
ConstantPhoneme
p1620
(dp1621
S'p'
Vp
sbsg33
(irule
Guard
p1622
(dp1623
g20
I00
sg21
(lp1624
sg23
I00
sg24
V
sg25
I00
sg26
S'R'
sbsg37
(irule
FeatureMatrix
p1625
(dp1626
g30
(lp1627
sg24
V[  ]
p1628
sbsg24
V[  ] ---> p / # [ +sonorant -continuant ] _ 
p1629
sba(irule
Rule
p1630
(dp1631
g17
(irule
Guard
p1632
(dp1633
g20
I01
sg21
(lp1634
(irule
FeatureMatrix
p1635
(dp1636
g30
(lp1637
(I01
g614
tp1638
a(I01
g439
tp1639
asg24
V[ +anterior +voice ]
p1640
sbasg23
I00
sg24
V# [ +anterior +voice ]
p1641
sg25
I00
sg26
S'L'
sbsg27
(irule
ConstantPhoneme
p1642
(dp1643
S'p'
Vp
sbsg33
(irule
Guard
p1644
(dp1645
g20
I00
sg21
(lp1646
sg23
I00
sg24
V
sg25
I00
sg26
S'R'
sbsg37
(irule
FeatureMatrix
p1647
(dp1648
g30
(lp1649
sg24
V[  ]
p1650
sbsg24
V[  ] ---> p / # [ +anterior +voice ] _ 
p1651
sba(irule
Rule
p1652
(dp1653
g17
(irule
Guard
p1654
(dp1655
g20
I01
sg21
(lp1656
(irule
FeatureMatrix
p1657
(dp1658
g30
(lp1659
(I01
g469
tp1660
a(I00
g830
tp1661
asg24
V[ +nasal -low ]
p1662
sbasg23
I00
sg24
V# [ +nasal -low ]
p1663
sg25
I00
sg26
S'L'
sbsg27
(irule
ConstantPhoneme
p1664
(dp1665
S'p'
Vp
sbsg33
(irule
Guard
p1666
(dp1667
g20
I00
sg21
(lp1668
sg23
I00
sg24
V
sg25
I00
sg26
S'R'
sbsg37
(irule
FeatureMatrix
p1669
(dp1670
g30
(lp1671
sg24
V[  ]
p1672
sbsg24
V[  ] ---> p / # [ +nasal -low ] _ 
p1673
sba(irule
Rule
p1674
(dp1675
g17
(irule
Guard
p1676
(dp1677
g20
I01
sg21
(lp1678
(irule
FeatureMatrix
p1679
(dp1680
g30
(lp1681
(I01
g469
tp1682
a(I00
g654
tp1683
asg24
V[ +nasal -back ]
p1684
sbasg23
I00
sg24
V# [ +nasal -back ]
p1685
sg25
I00
sg26
S'L'
sbsg27
(irule
ConstantPhoneme
p1686
(dp1687
S'p'
Vp
sbsg33
(irule
Guard
p1688
(dp1689
g20
I00
sg21
(lp1690
sg23
I00
sg24
V
sg25
I00
sg26
S'R'
sbsg37
(irule
FeatureMatrix
p1691
(dp1692
g30
(lp1693
sg24
V[  ]
p1694
sbsg24
V[  ] ---> p / # [ +nasal -back ] _ 
p1695
sba(irule
Rule
p1696
(dp1697
g17
(irule
Guard
p1698
(dp1699
g20
I00
sg21
(lp1700
(irule
FeatureMatrix
p1701
(dp1702
g30
(lp1703
(I00
g574
tp1704
a(I01
g439
tp1705
asg24
V[ +voice -tense ]
p1706
sbasg23
I00
sg24
g1706
sg25
I00
sg26
S'L'
sbsg27
(irule
ConstantPhoneme
p1707
(dp1708
S'p'
Vp
sbsg33
(irule
Guard
p1709
(dp1710
g20
I00
sg21
(lp1711
sg23
I00
sg24
V
sg25
I00
sg26
S'R'
sbsg37
(irule
FeatureMatrix
p1712
(dp1713
g30
(lp1714
(I00
g439
tp1715
asg24
V[ -voice ]
p1716
sbsg24
V[ -voice ] ---> p / [ +voice -tense ] _ 
p1717
sba(irule
Rule
p1718
(dp1719
g17
(irule
Guard
p1720
(dp1721
g20
I01
sg21
(lp1722
(irule
FeatureMatrix
p1723
(dp1724
g30
(lp1725
(I00
g574
tp1726
asg24
V[ -tense ]
p1727
sbasg23
I00
sg24
V# [ -tense ]
p1728
sg25
I00
sg26
S'L'
sbsg27
(irule
ConstantPhoneme
p1729
(dp1730
S'p'
Vp
sbsg33
(irule
Guard
p1731
(dp1732
g20
I00
sg21
(lp1733
sg23
I00
sg24
V
sg25
I00
sg26
S'R'
sbsg37
(irule
FeatureMatrix
p1734
(dp1735
g30
(lp1736
(I00
g574
tp1737
asg24
V[ -tense ]
p1738
sbsg24
V[ -tense ] ---> p / # [ -tense ] _ 
p1739
sba(irule
Rule
p1740
(dp1741
g17
(irule
Guard
p1742
(dp1743
g20
I00
sg21
(lp1744
(irule
FeatureMatrix
p1745
(dp1746
g30
(lp1747
(I00
g530
tp1748
asg24
V[ -continuant ]
p1749
sbasg23
I00
sg24
g1749
sg25
I00
sg26
S'L'
sbsg27
(irule
ConstantPhoneme
p1750
(dp1751
S'p'
Vp
sbsg33
(irule
Guard
p1752
(dp1753
g20
I00
sg21
(lp1754
(irule
FeatureMatrix
p1755
(dp1756
g30
(lp1757
sg24
V[  ]
p1758
sbasg23
I00
sg24
g1758
sg25
I00
sg26
S'R'
sbsg37
(irule
ConstantPhoneme
p1759
(dp1760
S'p'
Vh
sbsg24
Vh ---> p / [ -continuant ] _ [  ]
p1761
sba(irule
Rule
p1762
(dp1763
g17
(irule
Guard
p1764
(dp1765
g20
I00
sg21
(lp1766
(irule
FeatureMatrix
p1767
(dp1768
g30
(lp1769
(I00
g552
tp1770
asg24
V[ -vowel ]
p1771
sbasg23
I00
sg24
g1771
sg25
I00
sg26
S'L'
sbsg27
(irule
ConstantPhoneme
p1772
(dp1773
S'p'
Vp
sbsg33
(irule
Guard
p1774
(dp1775
g20
I00
sg21
(lp1776
(irule
FeatureMatrix
p1777
(dp1778
g30
(lp1779
sg24
V[  ]
p1780
sbasg23
I00
sg24
g1780
sg25
I00
sg26
S'R'
sbsg37
(irule
ConstantPhoneme
p1781
(dp1782
S'p'
Vh
sbsg24
Vh ---> p / [ -vowel ] _ [  ]
p1783
sba(irule
Rule
p1784
(dp1785
g17
(irule
Guard
p1786
(dp1787
g20
I00
sg21
(lp1788
(irule
FeatureMatrix
p1789
(dp1790
g30
(lp1791
(I01
g469
tp1792
asg24
V[ +nasal ]
p1793
sbasg23
I00
sg24
g1793
sg25
I00
sg26
S'L'
sbsg27
(irule
ConstantPhoneme
p1794
(dp1795
S'p'
Vp
sbsg33
(irule
Guard
p1796
(dp1797
g20
I00
sg21
(lp1798
sg23
I00
sg24
V
sg25
I00
sg26
S'R'
sbsg37
(irule
FeatureMatrix
p1799
(dp1800
g30
(lp1801
(I01
g720
tp1802
a(I00
g552
tp1803
asg24
V[ +sonorant -vowel ]
p1804
sbsg24
V[ +sonorant -vowel ] ---> p / [ +nasal ] _ 
p1805
sba(irule
Rule
p1806
(dp1807
g17
(irule
Guard
p1808
(dp1809
g20
I00
sg21
(lp1810
(irule
FeatureMatrix
p1811
(dp1812
g30
(lp1813
(I01
g614
tp1814
asg24
V[ +anterior ]
p1815
sbasg23
I00
sg24
g1815
sg25
I00
sg26
S'L'
sbsg27
(irule
ConstantPhoneme
p1816
(dp1817
S'p'
Vp
sbsg33
(irule
Guard
p1818
(dp1819
g20
I00
sg21
(lp1820
(irule
FeatureMatrix
p1821
(dp1822
g30
(lp1823
sg24
V[  ]
p1824
sbasg23
I00
sg24
g1824
sg25
I00
sg26
S'R'
sbsg37
(irule
ConstantPhoneme
p1825
(dp1826
S'p'
Vh
sbsg24
Vh ---> p / [ +anterior ] _ [  ]
p1827
sba(irule
Rule
p1828
(dp1829
g17
(irule
Guard
p1830
(dp1831
g20
I01
sg21
(lp1832
(irule
FeatureMatrix
p1833
(dp1834
g30
(lp1835
(I01
g469
tp1836
a(I00
g574
tp1837
asg24
V[ +nasal -tense ]
p1838
sbasg23
I00
sg24
V# [ +nasal -tense ]
p1839
sg25
I00
sg26
S'L'
sbsg27
(irule
ConstantPhoneme
p1840
(dp1841
S'p'
Vp
sbsg33
(irule
Guard
p1842
(dp1843
g20
I00
sg21
(lp1844
sg23
I00
sg24
V
sg25
I00
sg26
S'R'
sbsg37
(irule
FeatureMatrix
p1845
(dp1846
g30
(lp1847
sg24
V[  ]
p1848
sbsg24
V[  ] ---> p / # [ +nasal -tense ] _ 
p1849
sba(irule
Rule
p1850
(dp1851
g17
(irule
Guard
p1852
(dp1853
g20
I00
sg21
(lp1854
(irule
FeatureMatrix
p1855
(dp1856
g30
(lp1857
(I01
g469
tp1858
asg24
V[ +nasal ]
p1859
sbasg23
I00
sg24
g1859
sg25
I00
sg26
S'L'
sbsg27
(irule
ConstantPhoneme
p1860
(dp1861
S'p'
Vp
sbsg33
(irule
Guard
p1862
(dp1863
g20
I00
sg21
(lp1864
sg23
I00
sg24
V
sg25
I00
sg26
S'R'
sbsg37
(irule
FeatureMatrix
p1865
(dp1866
g30
(lp1867
(I00
g1377
tp1868
a(I00
g439
tp1869
asg24
V[ -coronal -voice ]
p1870
sbsg24
V[ -coronal -voice ] ---> p / [ +nasal ] _ 
p1871
sba(irule
Rule
p1872
(dp1873
g17
(irule
Guard
p1874
(dp1875
g20
I00
sg21
(lp1876
(irule
FeatureMatrix
p1877
(dp1878
g30
(lp1879
(I00
S'rounded'
p1880
tp1881
a(I00
g574
tp1882
asg24
V[ -rounded -tense ]
p1883
sbasg23
I00
sg24
g1883
sg25
I00
sg26
S'L'
sbsg27
(irule
ConstantPhoneme
p1884
(dp1885
S'p'
Vp
sbsg33
(irule
Guard
p1886
(dp1887
g20
I00
sg21
(lp1888
sg23
I00
sg24
V
sg25
I00
sg26
S'R'
sbsg37
(irule
FeatureMatrix
p1889
(dp1890
g30
(lp1891
(I00
g439
tp1892
asg24
V[ -voice ]
p1893
sbsg24
V[ -voice ] ---> p / [ -rounded -tense ] _ 
p1894
sba(irule
Rule
p1895
(dp1896
g17
(irule
Guard
p1897
(dp1898
g20
I01
sg21
(lp1899
(irule
FeatureMatrix
p1900
(dp1901
g30
(lp1902
(I01
g614
tp1903
a(I01
g720
tp1904
asg24
V[ +anterior +sonorant ]
p1905
sbasg23
I00
sg24
V# [ +anterior +sonorant ]
p1906
sg25
I00
sg26
S'L'
sbsg27
(irule
ConstantPhoneme
p1907
(dp1908
S'p'
Vp
sbsg33
(irule
Guard
p1909
(dp1910
g20
I00
sg21
(lp1911
sg23
I00
sg24
V
sg25
I00
sg26
S'R'
sbsg37
(irule
FeatureMatrix
p1912
(dp1913
g30
(lp1914
sg24
V[  ]
p1915
sbsg24
V[  ] ---> p / # [ +anterior +sonorant ] _ 
p1916
sba(irule
Rule
p1917
(dp1918
g17
(irule
Guard
p1919
(dp1920
g20
I00
sg21
(lp1921
(irule
FeatureMatrix
p1922
(dp1923
g30
(lp1924
(I00
g530
tp1925
asg24
V[ -continuant ]
p1926
sbasg23
I00
sg24
g1926
sg25
I00
sg26
S'L'
sbsg27
(irule
ConstantPhoneme
p1927
(dp1928
S'p'
Vp
sbsg33
(irule
Guard
p1929
(dp1930
g20
I00
sg21
(lp1931
sg23
I00
sg24
V
sg25
I00
sg26
S'R'
sbsg37
(irule
FeatureMatrix
p1932
(dp1933
g30
(lp1934
(I00
g967
tp1935
a(I00
g439
tp1936
asg24
V[ -sibilant -voice ]
p1937
sbsg24
V[ -sibilant -voice ] ---> p / [ -continuant ] _ 
p1938
sba(irule
Rule
p1939
(dp1940
g17
(irule
Guard
p1941
(dp1942
g20
I01
sg21
(lp1943
(irule
FeatureMatrix
p1944
(dp1945
g30
(lp1946
(I00
g574
tp1947
asg24
V[ -tense ]
p1948
sbasg23
I00
sg24
V# [ -tense ]
p1949
sg25
I00
sg26
S'L'
sbsg27
(irule
ConstantPhoneme
p1950
(dp1951
S'p'
Vp
sbsg33
(irule
Guard
p1952
(dp1953
g20
I00
sg21
(lp1954
sg23
I00
sg24
V
sg25
I00
sg26
S'R'
sbsg37
(irule
FeatureMatrix
p1955
(dp1956
g30
(lp1957
(I00
g552
tp1958
asg24
V[ -vowel ]
p1959
sbsg24
V[ -vowel ] ---> p / # [ -tense ] _ 
p1960
sba(irule
Rule
p1961
(dp1962
g17
(irule
Guard
p1963
(dp1964
g20
I01
sg21
(lp1965
(irule
FeatureMatrix
p1966
(dp1967
g30
(lp1968
(I00
g552
tp1969
a(I01
g439
tp1970
asg24
V[ +voice -vowel ]
p1971
sbasg23
I00
sg24
V# [ +voice -vowel ]
p1972
sg25
I00
sg26
S'L'
sbsg27
(irule
ConstantPhoneme
p1973
(dp1974
S'p'
Vp
sbsg33
(irule
Guard
p1975
(dp1976
g20
I00
sg21
(lp1977
sg23
I00
sg24
V
sg25
I00
sg26
S'R'
sbsg37
(irule
FeatureMatrix
p1978
(dp1979
g30
(lp1980
sg24
V[  ]
p1981
sbsg24
V[  ] ---> p / # [ +voice -vowel ] _ 
p1982
sba(irule
Rule
p1983
(dp1984
g17
(irule
Guard
p1985
(dp1986
g20
I01
sg21
(lp1987
(irule
FeatureMatrix
p1988
(dp1989
g30
(lp1990
(I01
g469
tp1991
asg24
V[ +nasal ]
p1992
sbasg23
I00
sg24
V# [ +nasal ]
p1993
sg25
I00
sg26
S'L'
sbsg27
(irule
ConstantPhoneme
p1994
(dp1995
S'p'
Vp
sbsg33
(irule
Guard
p1996
(dp1997
g20
I00
sg21
(lp1998
sg23
I00
sg24
V
sg25
I00
sg26
S'R'
sbsg37
(irule
FeatureMatrix
p1999
(dp2000
g30
(lp2001
(I00
g552
tp2002
asg24
V[ -vowel ]
p2003
sbsg24
V[ -vowel ] ---> p / # [ +nasal ] _ 
p2004
sba(irule
Rule
p2005
(dp2006
g17
(irule
Guard
p2007
(dp2008
g20
I01
sg21
(lp2009
(irule
FeatureMatrix
p2010
(dp2011
g30
(lp2012
(I01
g720
tp2013
a(I00
g830
tp2014
asg24
V[ +sonorant -low ]
p2015
sbasg23
I00
sg24
V# [ +sonorant -low ]
p2016
sg25
I00
sg26
S'L'
sbsg27
(irule
ConstantPhoneme
p2017
(dp2018
S'p'
Vp
sbsg33
(irule
Guard
p2019
(dp2020
g20
I00
sg21
(lp2021
sg23
I00
sg24
V
sg25
I00
sg26
S'R'
sbsg37
(irule
FeatureMatrix
p2022
(dp2023
g30
(lp2024
sg24
V[  ]
p2025
sbsg24
V[  ] ---> p / # [ +sonorant -low ] _ 
p2026
sba(irule
Rule
p2027
(dp2028
g17
(irule
Guard
p2029
(dp2030
g20
I00
sg21
(lp2031
(irule
FeatureMatrix
p2032
(dp2033
g30
(lp2034
(I00
g574
tp2035
a(I00
g967
tp2036
asg24
V[ -sibilant -tense ]
p2037
sbasg23
I00
sg24
g2037
sg25
I00
sg26
S'L'
sbsg27
(irule
ConstantPhoneme
p2038
(dp2039
S'p'
Vp
sbsg33
(irule
Guard
p2040
(dp2041
g20
I00
sg21
(lp2042
sg23
I00
sg24
V
sg25
I00
sg26
S'R'
sbsg37
(irule
ConstantPhoneme
p2043
(dp2044
S'p'
Vh
sbsg24
Vh ---> p / [ -sibilant -tense ] _ 
p2045
sba(irule
Rule
p2046
(dp2047
g17
(irule
Guard
p2048
(dp2049
g20
I00
sg21
(lp2050
(irule
FeatureMatrix
p2051
(dp2052
g30
(lp2053
(I01
g614
tp2054
asg24
V[ +anterior ]
p2055
sbasg23
I00
sg24
g2055
sg25
I00
sg26
S'L'
sbsg27
(irule
ConstantPhoneme
p2056
(dp2057
S'p'
Vp
sbsg33
(irule
Guard
p2058
(dp2059
g20
I00
sg21
(lp2060
sg23
I00
sg24
V
sg25
I00
sg26
S'R'
sbsg37
(irule
FeatureMatrix
p2061
(dp2062
g30
(lp2063
(I00
g967
tp2064
a(I00
g439
tp2065
asg24
V[ -sibilant -voice ]
p2066
sbsg24
V[ -sibilant -voice ] ---> p / [ +anterior ] _ 
p2067
sba(irule
Rule
p2068
(dp2069
g17
(irule
Guard
p2070
(dp2071
g20
I01
sg21
(lp2072
(irule
FeatureMatrix
p2073
(dp2074
g30
(lp2075
(I01
g469
tp2076
asg24
V[ +nasal ]
p2077
sbasg23
I00
sg24
V# [ +nasal ]
p2078
sg25
I00
sg26
S'L'
sbsg27
(irule
ConstantPhoneme
p2079
(dp2080
S'p'
Vp
sbsg33
(irule
Guard
p2081
(dp2082
g20
I00
sg21
(lp2083
sg23
I00
sg24
V
sg25
I00
sg26
S'R'
sbsg37
(irule
FeatureMatrix
p2084
(dp2085
g30
(lp2086
(I00
g654
tp2087
asg24
V[ -back ]
p2088
sbsg24
V[ -back ] ---> p / # [ +nasal ] _ 
p2089
sba(irule
Rule
p2090
(dp2091
g17
(irule
Guard
p2092
(dp2093
g20
I01
sg21
(lp2094
(irule
FeatureMatrix
p2095
(dp2096
g30
(lp2097
(I00
g552
tp2098
asg24
V[ -vowel ]
p2099
sbasg23
I00
sg24
V# [ -vowel ]
p2100
sg25
I00
sg26
S'L'
sbsg27
(irule
ConstantPhoneme
p2101
(dp2102
S'p'
Vp
sbsg33
(irule
Guard
p2103
(dp2104
g20
I00
sg21
(lp2105
sg23
I00
sg24
V
sg25
I00
sg26
S'R'
sbsg37
(irule
FeatureMatrix
p2106
(dp2107
g30
(lp2108
(I00
g552
tp2109
asg24
V[ -vowel ]
p2110
sbsg24
V[ -vowel ] ---> p / # [ -vowel ] _ 
p2111
sba(irule
Rule
p2112
(dp2113
g17
(irule
Guard
p2114
(dp2115
g20
I01
sg21
(lp2116
(irule
FeatureMatrix
p2117
(dp2118
g30
(lp2119
(I00
g830
tp2120
asg24
V[ -low ]
p2121
sbasg23
I00
sg24
V# [ -low ]
p2122
sg25
I00
sg26
S'L'
sbsg27
(irule
ConstantPhoneme
p2123
(dp2124
S'p'
Vp
sbsg33
(irule
Guard
p2125
(dp2126
g20
I00
sg21
(lp2127
sg23
I00
sg24
V
sg25
I00
sg26
S'R'
sbsg37
(irule
FeatureMatrix
p2128
(dp2129
g30
(lp2130
(I00
g552
tp2131
asg24
V[ -vowel ]
p2132
sbsg24
V[ -vowel ] ---> p / # [ -low ] _ 
p2133
sba(irule
Rule
p2134
(dp2135
g17
(irule
Guard
p2136
(dp2137
g20
I01
sg21
(lp2138
(irule
FeatureMatrix
p2139
(dp2140
g30
(lp2141
(I01
g469
tp2142
a(I00
S'high'
p2143
tp2144
asg24
V[ +nasal -high ]
p2145
sbasg23
I00
sg24
V# [ +nasal -high ]
p2146
sg25
I00
sg26
S'L'
sbsg27
(irule
ConstantPhoneme
p2147
(dp2148
S'p'
Vp
sbsg33
(irule
Guard
p2149
(dp2150
g20
I00
sg21
(lp2151
sg23
I00
sg24
V
sg25
I00
sg26
S'R'
sbsg37
(irule
FeatureMatrix
p2152
(dp2153
g30
(lp2154
sg24
V[  ]
p2155
sbsg24
V[  ] ---> p / # [ +nasal -high ] _ 
p2156
sba(irule
Rule
p2157
(dp2158
g17
(irule
Guard
p2159
(dp2160
g20
I01
sg21
(lp2161
(irule
FeatureMatrix
p2162
(dp2163
g30
(lp2164
(I00
g574
tp2165
asg24
V[ -tense ]
p2166
sbasg23
I00
sg24
V# [ -tense ]
p2167
sg25
I00
sg26
S'L'
sbsg27
(irule
ConstantPhoneme
p2168
(dp2169
S'p'
Vp
sbsg33
(irule
Guard
p2170
(dp2171
g20
I00
sg21
(lp2172
sg23
I00
sg24
V
sg25
I00
sg26
S'R'
sbsg37
(irule
ConstantPhoneme
p2173
(dp2174
S'p'
Vh
sbsg24
Vh ---> p / # [ -tense ] _ 
p2175
sba(irule
Rule
p2176
(dp2177
g17
(irule
Guard
p2178
(dp2179
g20
I00
sg21
(lp2180
(irule
FeatureMatrix
p2181
(dp2182
g30
(lp2183
(I00
g574
tp2184
asg24
V[ -tense ]
p2185
sbasg23
I00
sg24
g2185
sg25
I00
sg26
S'L'
sbsg27
(irule
ConstantPhoneme
p2186
(dp2187
S'p'
Vp
sbsg33
(irule
Guard
p2188
(dp2189
g20
I00
sg21
(lp2190
sg23
I00
sg24
V
sg25
I00
sg26
S'R'
sbsg37
(irule
FeatureMatrix
p2191
(dp2192
g30
(lp2193
(I00
g967
tp2194
a(I00
g439
tp2195
asg24
V[ -sibilant -voice ]
p2196
sbsg24
V[ -sibilant -voice ] ---> p / [ -tense ] _ 
p2197
sba(irule
Rule
p2198
(dp2199
g17
(irule
Guard
p2200
(dp2201
g20
I00
sg21
(lp2202
(irule
FeatureMatrix
p2203
(dp2204
g30
(lp2205
(I00
g574
tp2206
asg24
V[ -tense ]
p2207
sbasg23
I00
sg24
g2207
sg25
I00
sg26
S'L'
sbsg27
(irule
ConstantPhoneme
p2208
(dp2209
S'p'
Vp
sbsg33
(irule
Guard
p2210
(dp2211
g20
I00
sg21
(lp2212
sg23
I00
sg24
V
sg25
I00
sg26
S'R'
sbsg37
(irule
FeatureMatrix
p2213
(dp2214
g30
(lp2215
(I00
g654
tp2216
a(I01
g830
tp2217
asg24
V[ +low -back ]
p2218
sbsg24
V[ +low -back ] ---> p / [ -tense ] _ 
p2219
sba(irule
Rule
p2220
(dp2221
g17
(irule
Guard
p2222
(dp2223
g20
I00
sg21
(lp2224
(irule
ConstantPhoneme
p2225
(dp2226
S'p'
Vm
sbasg23
I00
sg24
Vm
sg25
I00
sg26
S'L'
sbsg27
(irule
ConstantPhoneme
p2227
(dp2228
S'p'
Vp
sbsg33
(irule
Guard
p2229
(dp2230
g20
I00
sg21
(lp2231
(irule
FeatureMatrix
p2232
(dp2233
g30
(lp2234
sg24
V[  ]
p2235
sbasg23
I00
sg24
g2235
sg25
I00
sg26
S'R'
sbsg37
(irule
FeatureMatrix
p2236
(dp2237
g30
(lp2238
(I01
g830
tp2239
asg24
V[ +low ]
p2240
sbsg24
V[ +low ] ---> p / m _ [  ]
p2241
sba(irule
Rule
p2242
(dp2243
g17
(irule
Guard
p2244
(dp2245
g20
I00
sg21
(lp2246
(irule
FeatureMatrix
p2247
(dp2248
g30
(lp2249
(I00
g574
tp2250
a(I00
g552
tp2251
asg24
V[ -tense -vowel ]
p2252
sbasg23
I00
sg24
g2252
sg25
I00
sg26
S'L'
sbsg27
(irule
ConstantPhoneme
p2253
(dp2254
S'p'
Vp
sbsg33
(irule
Guard
p2255
(dp2256
g20
I00
sg21
(lp2257
sg23
I00
sg24
V
sg25
I00
sg26
S'R'
sbsg37
(irule
FeatureMatrix
p2258
(dp2259
g30
(lp2260
(I00
g439
tp2261
asg24
V[ -voice ]
p2262
sbsg24
V[ -voice ] ---> p / [ -tense -vowel ] _ 
p2263
sba(irule
Rule
p2264
(dp2265
g17
(irule
Guard
p2266
(dp2267
g20
I00
sg21
(lp2268
(irule
FeatureMatrix
p2269
(dp2270
g30
(lp2271
(I01
g614
tp2272
asg24
V[ +anterior ]
p2273
sbasg23
I00
sg24
g2273
sg25
I00
sg26
S'L'
sbsg27
(irule
ConstantPhoneme
p2274
(dp2275
S'p'
Vp
sbsg33
(irule
Guard
p2276
(dp2277
g20
I00
sg21
(lp2278
sg23
I00
sg24
V
sg25
I00
sg26
S'R'
sbsg37
(irule
FeatureMatrix
p2279
(dp2280
g30
(lp2281
(I01
g720
tp2282
a(I00
g574
tp2283
asg24
V[ +sonorant -tense ]
p2284
sbsg24
V[ +sonorant -tense ] ---> p / [ +anterior ] _ 
p2285
sba(irule
Rule
p2286
(dp2287
g17
(irule
Guard
p2288
(dp2289
g20
I01
sg21
(lp2290
(irule
FeatureMatrix
p2291
(dp2292
g30
(lp2293
(I00
g1880
tp2294
a(I01
g469
tp2295
asg24
V[ +nasal -rounded ]
p2296
sbasg23
I00
sg24
V# [ +nasal -rounded ]
p2297
sg25
I00
sg26
S'L'
sbsg27
(irule
ConstantPhoneme
p2298
(dp2299
S'p'
Vp
sbsg33
(irule
Guard
p2300
(dp2301
g20
I00
sg21
(lp2302
sg23
I00
sg24
V
sg25
I00
sg26
S'R'
sbsg37
(irule
FeatureMatrix
p2303
(dp2304
g30
(lp2305
sg24
V[  ]
p2306
sbsg24
V[  ] ---> p / # [ +nasal -rounded ] _ 
p2307
sba(irule
Rule
p2308
(dp2309
g17
(irule
Guard
p2310
(dp2311
g20
I00
sg21
(lp2312
(irule
FeatureMatrix
p2313
(dp2314
g30
(lp2315
(I00
g654
tp2316
asg24
V[ -back ]
p2317
sbasg23
I00
sg24
g2317
sg25
I00
sg26
S'L'
sbsg27
(irule
ConstantPhoneme
p2318
(dp2319
S'p'
Vp
sbsg33
(irule
Guard
p2320
(dp2321
g20
I00
sg21
(lp2322
(irule
FeatureMatrix
p2323
(dp2324
g30
(lp2325
sg24
V[  ]
p2326
sbasg23
I00
sg24
g2326
sg25
I00
sg26
S'R'
sbsg37
(irule
ConstantPhoneme
p2327
(dp2328
S'p'
Vh
sbsg24
Vh ---> p / [ -back ] _ [  ]
p2329
sba(irule
Rule
p2330
(dp2331
g17
(irule
Guard
p2332
(dp2333
g20
I01
sg21
(lp2334
(irule
FeatureMatrix
p2335
(dp2336
g30
(lp2337
(I00
g530
tp2338
a(I01
g469
tp2339
asg24
V[ +nasal -continuant ]
p2340
sbasg23
I00
sg24
V# [ +nasal -continuant ]
p2341
sg25
I00
sg26
S'L'
sbsg27
(irule
ConstantPhoneme
p2342
(dp2343
S'p'
Vp
sbsg33
(irule
Guard
p2344
(dp2345
g20
I00
sg21
(lp2346
sg23
I00
sg24
V
sg25
I00
sg26
S'R'
sbsg37
(irule
FeatureMatrix
p2347
(dp2348
g30
(lp2349
sg24
V[  ]
p2350
sbsg24
V[  ] ---> p / # [ +nasal -continuant ] _ 
p2351
sba(irule
Rule
p2352
(dp2353
g17
(irule
Guard
p2354
(dp2355
g20
I01
sg21
(lp2356
(irule
FeatureMatrix
p2357
(dp2358
g30
(lp2359
(I01
g614
tp2360
a(I01
g469
tp2361
asg24
V[ +anterior +nasal ]
p2362
sbasg23
I00
sg24
V# [ +anterior +nasal ]
p2363
sg25
I00
sg26
S'L'
sbsg27
(irule
ConstantPhoneme
p2364
(dp2365
S'p'
Vp
sbsg33
(irule
Guard
p2366
(dp2367
g20
I00
sg21
(lp2368
sg23
I00
sg24
V
sg25
I00
sg26
S'R'
sbsg37
(irule
FeatureMatrix
p2369
(dp2370
g30
(lp2371
sg24
V[  ]
p2372
sbsg24
V[  ] ---> p / # [ +anterior +nasal ] _ 
p2373
sba(irule
Rule
p2374
(dp2375
g17
(irule
Guard
p2376
(dp2377
g20
I01
sg21
(lp2378
(irule
FeatureMatrix
p2379
(dp2380
g30
(lp2381
(I01
g469
tp2382
asg24
V[ +nasal ]
p2383
sbasg23
I00
sg24
V# [ +nasal ]
p2384
sg25
I00
sg26
S'L'
sbsg27
(irule
ConstantPhoneme
p2385
(dp2386
S'p'
Vp
sbsg33
(irule
Guard
p2387
(dp2388
g20
I00
sg21
(lp2389
sg23
I00
sg24
V
sg25
I00
sg26
S'R'
sbsg37
(irule
FeatureMatrix
p2390
(dp2391
g30
(lp2392
(I01
g530
tp2393
asg24
V[ +continuant ]
p2394
sbsg24
V[ +continuant ] ---> p / # [ +nasal ] _ 
p2395
sba(irule
Rule
p2396
(dp2397
g17
(irule
Guard
p2398
(dp2399
g20
I00
sg21
(lp2400
(irule
FeatureMatrix
p2401
(dp2402
g30
(lp2403
(I00
g1377
tp2404
a(I00
g574
tp2405
asg24
V[ -coronal -tense ]
p2406
sbasg23
I00
sg24
g2406
sg25
I00
sg26
S'L'
sbsg27
(irule
ConstantPhoneme
p2407
(dp2408
S'p'
Vp
sbsg33
(irule
Guard
p2409
(dp2410
g20
I00
sg21
(lp2411
sg23
I00
sg24
V
sg25
I00
sg26
S'R'
sbsg37
(irule
ConstantPhoneme
p2412
(dp2413
S'p'
Vh
sbsg24
Vh ---> p / [ -coronal -tense ] _ 
p2414
sba(irule
Rule
p2415
(dp2416
g17
(irule
Guard
p2417
(dp2418
g20
I00
sg21
(lp2419
(irule
FeatureMatrix
p2420
(dp2421
g30
(lp2422
(I00
g530
tp2423
asg24
V[ -continuant ]
p2424
sbasg23
I00
sg24
g2424
sg25
I00
sg26
S'L'
sbsg27
(irule
ConstantPhoneme
p2425
(dp2426
S'p'
Vp
sbsg33
(irule
Guard
p2427
(dp2428
g20
I00
sg21
(lp2429
sg23
I00
sg24
V
sg25
I00
sg26
S'R'
sbsg37
(irule
FeatureMatrix
p2430
(dp2431
g30
(lp2432
(I01
g830
tp2433
a(I00
g552
tp2434
asg24
V[ +low -vowel ]
p2435
sbsg24
V[ +low -vowel ] ---> p / [ -continuant ] _ 
p2436
sba(irule
Rule
p2437
(dp2438
g17
(irule
Guard
p2439
(dp2440
g20
I00
sg21
(lp2441
(irule
ConstantPhoneme
p2442
(dp2443
S'p'
Vm
sbasg23
I00
sg24
Vm
sg25
I00
sg26
S'L'
sbsg27
(irule
ConstantPhoneme
p2444
(dp2445
S'p'
Vp
sbsg33
(irule
Guard
p2446
(dp2447
g20
I00
sg21
(lp2448
sg23
I00
sg24
V
sg25
I00
sg26
S'R'
sbsg37
(irule
FeatureMatrix
p2449
(dp2450
g30
(lp2451
(I01
g720
tp2452
a(I00
g552
tp2453
asg24
V[ +sonorant -vowel ]
p2454
sbsg24
V[ +sonorant -vowel ] ---> p / m _ 
p2455
sba(irule
Rule
p2456
(dp2457
g17
(irule
Guard
p2458
(dp2459
g20
I00
sg21
(lp2460
(irule
FeatureMatrix
p2461
(dp2462
g30
(lp2463
(I00
g574
tp2464
asg24
V[ -tense ]
p2465
sbasg23
I00
sg24
g2465
sg25
I00
sg26
S'L'
sbsg27
(irule
ConstantPhoneme
p2466
(dp2467
S'p'
Vp
sbsg33
(irule
Guard
p2468
(dp2469
g20
I00
sg21
(lp2470
sg23
I00
sg24
V
sg25
I00
sg26
S'R'
sbsg37
(irule
FeatureMatrix
p2471
(dp2472
g30
(lp2473
(I00
g552
tp2474
a(I00
g439
tp2475
asg24
V[ -voice -vowel ]
p2476
sbsg24
V[ -voice -vowel ] ---> p / [ -tense ] _ 
p2477
sba(irule
Rule
p2478
(dp2479
g17
(irule
Guard
p2480
(dp2481
g20
I00
sg21
(lp2482
(irule
FeatureMatrix
p2483
(dp2484
g30
(lp2485
(I00
g574
tp2486
a(I01
g439
tp2487
asg24
V[ +voice -tense ]
p2488
sbasg23
I00
sg24
g2488
sg25
I00
sg26
S'L'
sbsg27
(irule
ConstantPhoneme
p2489
(dp2490
S'p'
Vp
sbsg33
(irule
Guard
p2491
(dp2492
g20
I00
sg21
(lp2493
sg23
I00
sg24
V
sg25
I00
sg26
S'R'
sbsg37
(irule
ConstantPhoneme
p2494
(dp2495
S'p'
Vh
sbsg24
Vh ---> p / [ +voice -tense ] _ 
p2496
sba(irule
Rule
p2497
(dp2498
g17
(irule
Guard
p2499
(dp2500
g20
I00
sg21
(lp2501
(irule
FeatureMatrix
p2502
(dp2503
g30
(lp2504
(I01
g469
tp2505
asg24
V[ +nasal ]
p2506
sbasg23
I00
sg24
g2506
sg25
I00
sg26
S'L'
sbsg27
(irule
ConstantPhoneme
p2507
(dp2508
S'p'
Vp
sbsg33
(irule
Guard
p2509
(dp2510
g20
I00
sg21
(lp2511
sg23
I00
sg24
V
sg25
I00
sg26
S'R'
sbsg37
(irule
FeatureMatrix
p2512
(dp2513
g30
(lp2514
(I00
g2143
tp2515
a(I00
g439
tp2516
asg24
V[ -high -voice ]
p2517
sbsg24
V[ -high -voice ] ---> p / [ +nasal ] _ 
p2518
sba(irule
Rule
p2519
(dp2520
g17
(irule
Guard
p2521
(dp2522
g20
I00
sg21
(lp2523
(irule
FeatureMatrix
p2524
(dp2525
g30
(lp2526
(I00
g552
tp2527
asg24
V[ -vowel ]
p2528
sbasg23
I00
sg24
g2528
sg25
I00
sg26
S'L'
sbsg27
(irule
ConstantPhoneme
p2529
(dp2530
S'p'
Vp
sbsg33
(irule
Guard
p2531
(dp2532
g20
I00
sg21
(lp2533
(irule
FeatureMatrix
p2534
(dp2535
g30
(lp2536
sg24
V[  ]
p2537
sbasg23
I00
sg24
g2537
sg25
I00
sg26
S'R'
sbsg37
(irule
FeatureMatrix
p2538
(dp2539
g30
(lp2540
(I00
g439
tp2541
asg24
V[ -voice ]
p2542
sbsg24
V[ -voice ] ---> p / [ -vowel ] _ [  ]
p2543
sba(irule
Rule
p2544
(dp2545
g17
(irule
Guard
p2546
(dp2547
g20
I00
sg21
(lp2548
(irule
FeatureMatrix
p2549
(dp2550
g30
(lp2551
(I00
g574
tp2552
asg24
V[ -tense ]
p2553
sbasg23
I00
sg24
g2553
sg25
I00
sg26
S'L'
sbsg27
(irule
ConstantPhoneme
p2554
(dp2555
S'p'
Vp
sbsg33
(irule
Guard
p2556
(dp2557
g20
I00
sg21
(lp2558
sg23
I00
sg24
V
sg25
I00
sg26
S'R'
sbsg37
(irule
FeatureMatrix
p2559
(dp2560
g30
(lp2561
(I00
g574
tp2562
a(I01
g830
tp2563
asg24
V[ +low -tense ]
p2564
sbsg24
V[ +low -tense ] ---> p / [ -tense ] _ 
p2565
sba(irule
Rule
p2566
(dp2567
g17
(irule
Guard
p2568
(dp2569
g20
I00
sg21
(lp2570
(irule
ConstantPhoneme
p2571
(dp2572
S'p'
Vm
sbasg23
I00
sg24
Vm
sg25
I00
sg26
S'L'
sbsg27
(irule
ConstantPhoneme
p2573
(dp2574
S'p'
Vp
sbsg33
(irule
Guard
p2575
(dp2576
g20
I00
sg21
(lp2577
(irule
FeatureMatrix
p2578
(dp2579
g30
(lp2580
sg24
V[  ]
p2581
sbasg23
I00
sg24
g2581
sg25
I00
sg26
S'R'
sbsg37
(irule
FeatureMatrix
p2582
(dp2583
g30
(lp2584
(I00
g439
tp2585
asg24
V[ -voice ]
p2586
sbsg24
V[ -voice ] ---> p / m _ [  ]
p2587
sbaasbsS'parameters'
p2588
g8
(cargparse
Namespace
p2589
g10
NtRp2590
(dp2591
S'dummy'
p2592
I00
sS'task'
p2593
S'incremental'
p2594
sS'features'
p2595
S'sophisticated'
p2596
sS'resume'
p2597
I00
sS'geometry'
p2598
I01
sS'top'
p2599
I1
sS'disableClean'
p2600
I00
sS'universal'
p2601
NsS'restrict'
p2602
NsS'window'
p2603
NsS'seed'
p2604
S'0'
sS'restore'
p2605
NsS'serial'
p2606
I00
sS'timeout'
p2607
F24
sS'debug'
p2608
NsS'cores'
p2609
I40
sg4
S'Odden_76_77_Kerewe'
p2610
sS'save'
p2611
NsS'verbosity'
p2612
I0
sS'alignment'
p2613
I00
sS'samples'
p2614
I30
sbsb.