(iresult
Result
p1
(dp2
S'startTime'
p3
F1565820353.4079311
sS'solutionSequence'
p4
(lp5
(ccopy_reg
_reconstructor
p6
(csolution
Solution
p7
c__builtin__
object
p8
NtRp9
(dp10
S'rules'
p11
(lp12
(irule
Rule
p13
(dp14
S'leftTriggers'
p15
(irule
Guard
p16
(dp17
S'endOfString'
p18
I00
sS'specifications'
p19
(lp20
sS'optionalEnding'
p21
I00
sS'representation'
p22
V
sS'starred'
p23
I00
sS'side'
p24
S'L'
sbsS'structuralChange'
p25
(irule
FeatureMatrix
p26
(dp27
S'featuresAndPolarities'
p28
(lp29
sg22
V[  ]
p30
sbsS'rightTriggers'
p31
(irule
Guard
p32
(dp33
g18
I00
sg19
(lp34
sg21
I00
sg22
V
sg23
I00
sg24
S'R'
sbsS'focus'
p35
(irule
FeatureMatrix
p36
(dp37
g28
(lp38
sg22
V[  ]
p39
sbsg22
V[  ] ---> [  ] /  _ 
p40
sbasS'prefixes'
p41
(lp42
(imorph
Morph
p43
(dp44
S'phonemes'
p45
(lp46
Vp
aVa
aVm
aVm
asba(imorph
Morph
p47
(dp48
g45
(lp49
Vp
asba(imorph
Morph
p50
(dp51
g45
(lp52
Vp
aVa
aVm
aVn
asba(imorph
Morph
p53
(dp54
g45
(lp55
Vp
asba(imorph
Morph
p56
(dp57
g45
(lp58
Vp
asba(imorph
Morph
p59
(dp60
g45
(lp61
Vp
asba(imorph
Morph
p62
(dp63
g45
(lp64
Vp
aVa
aVp
aVp
aVo
aVt
asba(imorph
Morph
p65
(dp66
g45
(lp67
Vp
asba(imorph
Morph
p68
(dp69
g45
(lp70
Vp
asba(imorph
Morph
p71
(dp72
g45
(lp73
Vp
asba(imorph
Morph
p74
(dp75
g45
(lp76
Vp
asba(imorph
Morph
p77
(dp78
g45
(lp79
Vp
asba(imorph
Morph
p80
(dp81
g45
(lp82
Vp
asbasS'underlyingForms'
p83
(dp84
((imorph
Morph
p85
(dp86
g45
(lp87
Vp
aVa
aVm
aVm
aVa
aVn
asb(imorph
Morph
p88
(dp89
g45
(lp90
Vp
aVa
aVm
aVm
aVa
aV\u014b
aVk^h
p91
aV\u0268
aVm
asb(imorph
Morph
p92
(dp93
g45
(lp94
Vp
aVa
aVm
aVn
aVa
aVr
aV\u0268
aVm
asb(imorph
Morph
p95
(dp96
g45
(lp97
Vp
aVa
aVp
asb(imorph
Morph
p98
(dp99
g45
(lp100
Vp
aVa
aVp
aVt
aVe
aVr
aVo
asb(imorph
Morph
p101
(dp102
g45
(lp103
Vp
aVa
aVp
aVk
aVw
aVa
asb(imorph
Morph
p104
(dp105
g45
(lp106
Vp
aVa
aVp
aVp
aVo
aVt
aVa
asb(imorph
Morph
p107
(dp108
g45
(lp109
Vp
aVa
aVp
aVk
aVa
aVc\u030c
p110
aVi
asb(imorph
Morph
p111
(dp112
g45
(lp113
Vp
aVa
aVp
aVi
asb(imorph
Morph
p114
(dp115
g45
(lp116
Vp
aVa
aVp
aV\u0268
aVn
asb(imorph
Morph
p117
(dp118
g45
(lp119
Vp
aVa
aVp
aVe
asb(imorph
Morph
p120
(dp121
g45
(lp122
Vp
aVa
aVp
aVi
aVt
aVa
asb(imorph
Morph
p123
(dp124
g45
(lp125
Vp
aVa
aVp
aV\u0268
aVr
aVo
asbtp126
(imorph
Morph
p127
(dp128
g45
(lp129
Va
asbssS'suffixes'
p130
(lp131
(imorph
Morph
p132
(dp133
g45
(lp134
Vn
asba(imorph
Morph
p135
(dp136
g45
(lp137
Vm
aVm
aVa
aV\u014b
aVk^h
p138
aV\u0268
aVm
asba(imorph
Morph
p139
(dp140
g45
(lp141
Vr
aV\u0268
aVm
asba(imorph
Morph
p142
(dp143
g45
(lp144
Vp
asba(imorph
Morph
p145
(dp146
g45
(lp147
Vp
aVt
aVe
aVr
aVo
asba(imorph
Morph
p148
(dp149
g45
(lp150
Vp
aVk
aVw
aVa
asba(imorph
Morph
p151
(dp152
g45
(lp153
sba(imorph
Morph
p154
(dp155
g45
(lp156
Vp
aVk
aVa
aVc\u030c
p157
aVi
asba(imorph
Morph
p158
(dp159
g45
(lp160
Vp
aVi
asba(imorph
Morph
p161
(dp162
g45
(lp163
Vp
aV\u0268
aVn
asba(imorph
Morph
p164
(dp165
g45
(lp166
Vp
aVe
asba(imorph
Morph
p167
(dp168
g45
(lp169
Vp
aVi
aVt
aVa
asba(imorph
Morph
p170
(dp171
g45
(lp172
Vp
aV\u0268
aVr
aVo
asbasbF116.51035380363464
tp173
a(g6
(g7
g8
NtRp174
(dp175
g11
(lp176
(irule
Rule
p177
(dp178
g15
(irule
Guard
p179
(dp180
g18
I00
sg19
(lp181
(irule
FeatureMatrix
p182
(dp183
g28
(lp184
(I01
S'central'
p185
tp186
asg22
V[ +central ]
p187
sbasg21
I00
sg22
g187
sg23
I00
sg24
S'L'
sbsg25
(irule
FeatureMatrix
p188
(dp189
g28
(lp190
(I00
S'aspirated'
p191
tp192
asg22
V[ -aspirated ]
p193
sbsg31
(irule
Guard
p194
(dp195
g18
I00
sg19
(lp196
(irule
FeatureMatrix
p197
(dp198
g28
(lp199
sg22
V[  ]
p200
sba(irule
FeatureMatrix
p201
(dp202
g28
(lp203
(I00
S'bilabial'
p204
tp205
asg22
V[ -bilabial ]
p206
sbasg21
I00
sg22
V[  ]* [ -bilabial ]
p207
sg23
I01
sg24
S'R'
sbsg35
(irule
FeatureMatrix
p208
(dp209
g28
(lp210
sg22
V[  ]
p211
sbsg22
V[  ] ---> [ -aspirated ] / [ +central ] _ [  ]* [ -bilabial ]
p212
sbasg41
(lp213
(imorph
Morph
p214
(dp215
g45
(lp216
sba(imorph
Morph
p217
(dp218
g45
(lp219
sba(imorph
Morph
p220
(dp221
g45
(lp222
sba(imorph
Morph
p223
(dp224
g45
(lp225
sba(imorph
Morph
p226
(dp227
g45
(lp228
sba(imorph
Morph
p229
(dp230
g45
(lp231
sba(imorph
Morph
p232
(dp233
g45
(lp234
sba(imorph
Morph
p235
(dp236
g45
(lp237
sba(imorph
Morph
p238
(dp239
g45
(lp240
sba(imorph
Morph
p241
(dp242
g45
(lp243
sba(imorph
Morph
p244
(dp245
g45
(lp246
sba(imorph
Morph
p247
(dp248
g45
(lp249
sba(imorph
Morph
p250
(dp251
g45
(lp252
sbasg83
(dp253
(g85
g88
g92
g95
g98
g101
g104
g107
g111
g114
g117
g120
g123
tp254
(imorph
Morph
p255
(dp256
g45
(lp257
Vp
aVa
asbs((imorph
Morph
p258
(dp259
g45
(lp260
Vs
aVu
aVm
aVm
aVa
aVn
asb(imorph
Morph
p261
(dp262
g45
(lp263
Vs
aVu
aVm
aVm
aVa
aV\u014b
aVk^h
p264
aV\u0268
aVm
asb(imorph
Morph
p265
(dp266
g45
(lp267
Vs
aVu
aVm
aVn
aVa
aVr
aV\u0268
aVm
asb(imorph
Morph
p268
(dp269
g45
(lp270
Vs
aVu
aVp
asb(imorph
Morph
p271
(dp272
g45
(lp273
Vs
aVu
aVp
aVt
aVe
aVr
aVo
asb(imorph
Morph
p274
(dp275
g45
(lp276
Vs
aVu
aVp
aVk
aVw
aVa
asb(imorph
Morph
p277
(dp278
g45
(lp279
Vs
aVu
aVp
aVp
aVo
aVt
aVa
asb(imorph
Morph
p280
(dp281
g45
(lp282
Vs
aVu
aVp
aVk
aVa
aVc\u030c
p283
aVi
asb(imorph
Morph
p284
(dp285
g45
(lp286
Vs
aVu
aVp^h
p287
aVi
asb(imorph
Morph
p288
(dp289
g45
(lp290
Vs
aVu
aVp^h
p291
aV\u0268
aVn
asb(imorph
Morph
p292
(dp293
g45
(lp294
Vs
aVu
aVp^h
p295
aVe
asb(imorph
Morph
p296
(dp297
g45
(lp298
Vs
aVu
aVp^h
p299
aVi
aVt
aVa
asb(imorph
Morph
p300
(dp301
g45
(lp302
Vs
aVu
aVp^h
p303
aV\u0268
aVr
aVo
asbtp304
(imorph
Morph
p305
(dp306
g45
(lp307
Vs
aVu
asbssg130
(lp308
(imorph
Morph
p309
(dp310
g45
(lp311
Vm
aVm
aVa
aVn
asba(imorph
Morph
p312
(dp313
g45
(lp314
Vm
aVm
aVa
aV\u014b
ag138
aV\u0268
aVm
asba(imorph
Morph
p315
(dp316
g45
(lp317
Vm
aVn
aVa
aVr
aV\u0268
aVm
asba(imorph
Morph
p318
(dp319
g45
(lp320
Vp
asba(imorph
Morph
p321
(dp322
g45
(lp323
Vp
aVt
aVe
aVr
aVo
asba(imorph
Morph
p324
(dp325
g45
(lp326
Vp
aVk
aVw
aVa
asba(imorph
Morph
p327
(dp328
g45
(lp329
Vp
aVp
aVo
aVt
aVa
asba(imorph
Morph
p330
(dp331
g45
(lp332
Vp
aVk
aVa
aVc\u030c^h
p333
aVi
asba(imorph
Morph
p334
(dp335
g45
(lp336
Vp^h
p337
aVi
asba(imorph
Morph
p338
(dp339
g45
(lp340
g337
aV\u0268
aVn
asba(imorph
Morph
p341
(dp342
g45
(lp343
g337
aVe
asba(imorph
Morph
p344
(dp345
g45
(lp346
g337
aVi
aVt
aVa
asba(imorph
Morph
p347
(dp348
g45
(lp349
g337
aV\u0268
aVr
aVo
asbasbF767.44382286071777
tp350
a(g6
(g7
g8
NtRp351
(dp352
g11
(lp353
(irule
Rule
p354
(dp355
g15
(irule
Guard
p356
(dp357
g18
I00
sg19
(lp358
sg21
I00
sg22
V
sg23
I00
sg24
S'L'
sbsg25
(irule
ConstantPhoneme
p359
(dp360
S'p'
Vm
sbsg31
(irule
Guard
p361
(dp362
g18
I00
sg19
(lp363
(irule
FeatureMatrix
p364
(dp365
g28
(lp366
(I01
S'nasal'
p367
tp368
asg22
V[ +nasal ]
p369
sbasg21
I00
sg22
g369
sg23
I00
sg24
S'R'
sbsg35
(irule
FeatureMatrix
p370
(dp371
g28
(lp372
(I00
S'tense'
p373
tp374
asg22
V[ -tense ]
p375
sbsg22
V[ -tense ] ---> m /  _ [ +nasal ]
p376
sba(irule
Rule
p377
(dp378
g15
(irule
Guard
p379
(dp380
g18
I00
sg19
(lp381
(irule
ConstantPhoneme
p382
(dp383
S'p'
Vu
sbasg21
I00
sg22
Vu
sg23
I00
sg24
S'L'
sbsg25
(irule
ConstantPhoneme
p384
(dp385
S'p'
g337
sbsg31
(irule
Guard
p386
(dp387
g18
I00
sg19
(lp388
(irule
FeatureMatrix
p389
(dp390
g28
(lp391
(I01
g373
tp392
asg22
V[ +tense ]
p393
sbasg21
I00
sg22
g393
sg23
I00
sg24
S'R'
sbsg35
(irule
FeatureMatrix
p394
(dp395
g28
(lp396
sg22
V[  ]
p397
sbsg22
V[  ] ---> p^h / u _ [ +tense ]
p398
sbasg41
(lp399
(imorph
Morph
p400
(dp401
g45
(lp402
sba(imorph
Morph
p403
(dp404
g45
(lp405
sba(imorph
Morph
p406
(dp407
g45
(lp408
sba(imorph
Morph
p409
(dp410
g45
(lp411
sba(imorph
Morph
p412
(dp413
g45
(lp414
sba(imorph
Morph
p415
(dp416
g45
(lp417
sba(imorph
Morph
p418
(dp419
g45
(lp420
sba(imorph
Morph
p421
(dp422
g45
(lp423
sba(imorph
Morph
p424
(dp425
g45
(lp426
sba(imorph
Morph
p427
(dp428
g45
(lp429
sba(imorph
Morph
p430
(dp431
g45
(lp432
sba(imorph
Morph
p433
(dp434
g45
(lp435
sba(imorph
Morph
p436
(dp437
g45
(lp438
sbasg83
(dp439
((imorph
Morph
p440
(dp441
g45
(lp442
Vp
aVa
aVm
aVm
aVa
aVn
asb(imorph
Morph
p443
(dp444
g45
(lp445
Vp
aVa
aVm
aVm
aVa
aV\u014b
aVk^h
p446
aV\u0268
aVm
asb(imorph
Morph
p447
(dp448
g45
(lp449
Vp
aVa
aVm
aVn
aVa
aVr
aV\u0268
aVm
asb(imorph
Morph
p450
(dp451
g45
(lp452
Vp
aVa
aVm
asb(imorph
Morph
p453
(dp454
g45
(lp455
Vp
aVa
aVm
aVt
aVe
aVr
aVo
asb(imorph
Morph
p456
(dp457
g45
(lp458
Vp
aVa
aVm
aVk
aVw
aVa
asb(imorph
Morph
p459
(dp460
g45
(lp461
Vp
aVa
aVm
aVp
aVo
aVt
aVa
asb(imorph
Morph
p462
(dp463
g45
(lp464
Vp
aVa
aVm
aVk
aVa
aVc\u030c
p465
aVi
asb(imorph
Morph
p466
(dp467
g45
(lp468
Vp
aVa
aVm
aVi
asb(imorph
Morph
p469
(dp470
g45
(lp471
Vp
aVa
aVm
aV\u0268
aVn
asb(imorph
Morph
p472
(dp473
g45
(lp474
Vp
aVa
aVm
aVe
asb(imorph
Morph
p475
(dp476
g45
(lp477
Vp
aVa
aVm
aVi
aVt
aVa
asb(imorph
Morph
p478
(dp479
g45
(lp480
Vp
aVa
aVm
aV\u0268
aVr
aVo
asbtp481
(imorph
Morph
p482
(dp483
g45
(lp484
Vp
aVa
aVm
asbs(g85
g88
g92
g95
g98
g101
g104
g107
g111
g114
g117
g120
g123
tp485
(imorph
Morph
p486
(dp487
g45
(lp488
Vp
aVa
aVp
asbs(g258
g261
g265
g268
g271
g274
g277
g280
g284
g288
g292
g296
g300
tp489
(imorph
Morph
p490
(dp491
g45
(lp492
Vs
aVu
aVp
asbssg130
(lp493
(imorph
Morph
p494
(dp495
g45
(lp496
Vm
aVa
aVn
asba(imorph
Morph
p497
(dp498
g45
(lp499
Vm
aVa
aV\u014b
ag138
aV\u0268
aVm
asba(imorph
Morph
p500
(dp501
g45
(lp502
Vn
aVa
aVr
aV\u0268
aVm
asba(imorph
Morph
p503
(dp504
g45
(lp505
sba(imorph
Morph
p506
(dp507
g45
(lp508
Vt
aVe
aVr
aVo
asba(imorph
Morph
p509
(dp510
g45
(lp511
Vk
aVw
aVa
asba(imorph
Morph
p512
(dp513
g45
(lp514
Vp
aVo
aVt
aVa
asba(imorph
Morph
p515
(dp516
g45
(lp517
Vk
aVa
ag157
aVi
asba(imorph
Morph
p518
(dp519
g45
(lp520
Vi
asba(imorph
Morph
p521
(dp522
g45
(lp523
V\u0268
aVn
asba(imorph
Morph
p524
(dp525
g45
(lp526
Ve
asba(imorph
Morph
p527
(dp528
g45
(lp529
Vi
aVt
aVa
asba(imorph
Morph
p530
(dp531
g45
(lp532
V\u0268
aVr
aVo
asbasbF16625.557838916779
tp533
asS'problem'
p534
S'Odden_3.7_Korean'
p535
sS'finalFrontier'
p536
g6
(csolution
Frontier
p537
g8
NtRp538
(dp539
g41
g399
sg130
g493
sg83
g439
sS'frontiers'
p540
(lp541
(lp542
g354
aa(lp543
g377
aasbsS'parameters'
p544
g6
(cargparse
Namespace
p545
g8
NtRp546
(dp547
S'restore'
p548
NsS'features'
p549
S'simple'
p550
sS'universal'
p551
NsS'restrict'
p552
NsS'seed'
p553
S'0'
sS'serial'
p554
I00
sS'alignment'
p555
I00
sS'top'
p556
I1
sS'maximumDepth'
p557
I3
sS'window'
p558
NsS'minimizeBits'
p559
I5
sS'samples'
p560
I30
sS'save'
p561
NsS'resume'
p562
I00
sS'disableClean'
p563
I00
sS'stemBaseline'
p564
I30
sS'dummy'
p565
I00
sS'task'
p566
S'CEGIS'
p567
sS'geometry'
p568
NsS'verbosity'
p569
I0
sS'timeout'
p570
F24
sS'debug'
p571
NsS'cores'
p572
I40
sg534
S'Odden_3.7_Korean'
p573
sS'mergeFrontiers'
p574
I00
sbsb.