(iresult
Result
p1
(dp2
S'startTime'
p3
F1554923920.9017539
sS'solutionSequence'
p4
(lp5
(ccopy_reg
_reconstructor
p6
(csolution
Solution
p7
c__builtin__
object
p8
NtRp9
(dp10
S'rules'
p11
(lp12
(irule
Rule
p13
(dp14
S'leftTriggers'
p15
(irule
Guard
p16
(dp17
S'endOfString'
p18
I00
sS'specifications'
p19
(lp20
sS'optionalEnding'
p21
I00
sS'representation'
p22
V
sS'starred'
p23
I00
sS'side'
p24
S'L'
sbsS'structuralChange'
p25
(irule
FeatureMatrix
p26
(dp27
S'featuresAndPolarities'
p28
(lp29
sg22
V[  ]
p30
sbsS'rightTriggers'
p31
(irule
Guard
p32
(dp33
g18
I00
sg19
(lp34
sg21
I00
sg22
V
sg23
I00
sg24
S'R'
sbsS'focus'
p35
(irule
FeatureMatrix
p36
(dp37
g28
(lp38
sg22
V[  ]
p39
sbsg22
V[  ] ---> [  ] /  _ 
p40
sbasS'prefixes'
p41
(lp42
(imorph
Morph
p43
(dp44
S'phonemes'
p45
(lp46
sba(imorph
Morph
p47
(dp48
g45
(lp49
sbasS'underlyingForms'
p50
(dp51
((imorph
Morph
p52
(dp53
g45
(lp54
Vk
aVu
aVp
aV\u0259
asb(imorph
Morph
p55
(dp56
g45
(lp57
Vk
aVu
aVp
aVk
aVo
asbtp58
(imorph
Morph
p59
(dp60
g45
(lp61
Vk
aVu
aVp
asbs((imorph
Morph
p62
(dp63
g45
(lp64
Vi
aVp
aV\u0259
asb(imorph
Morph
p65
(dp66
g45
(lp67
Vi
aVp
aVk
aVo
asbtp68
(imorph
Morph
p69
(dp70
g45
(lp71
Vi
aVp
asbssS'suffixes'
p72
(lp73
(imorph
Morph
p74
(dp75
g45
(lp76
V\u0259
asba(imorph
Morph
p77
(dp78
g45
(lp79
Vk
aVo
asbasbF10.18743109703064
tp80
a(g6
(g7
g8
NtRp81
(dp82
g11
(lp83
(irule
Rule
p84
(dp85
g15
(irule
Guard
p86
(dp87
g18
I00
sg19
(lp88
(irule
FeatureMatrix
p89
(dp90
g28
(lp91
(I00
S'back'
p92
tp93
asg22
V[ -back ]
p94
sba(irule
FeatureMatrix
p95
(dp96
g28
(lp97
(I01
S'continuant'
p98
tp99
a(I00
S'low'
p100
tp101
asg22
V[ +continuant -low ]
p102
sbasg21
I00
sg22
V[ +continuant -low ] [ -back ]*
p103
sg23
I01
sg24
S'L'
sbsg25
(irule
FeatureMatrix
p104
(dp105
g28
(lp106
(I00
S'aspirated'
p107
tp108
a(I00
S'tense'
p109
tp110
a(I00
g100
tp111
asg22
V[ -aspirated -low -tense ]
p112
sbsg31
(irule
Guard
p113
(dp114
g18
I00
sg19
(lp115
sg21
I00
sg22
V
sg23
I00
sg24
S'R'
sbsg35
(irule
FeatureMatrix
p116
(dp117
g28
(lp118
sg22
V[  ]
p119
sbsg22
V[  ] ---> [ -aspirated -low -tense ] / [ +continuant -low ] [ -back ]* _ 
p120
sbasg41
(lp121
(imorph
Morph
p122
(dp123
g45
(lp124
sba(imorph
Morph
p125
(dp126
g45
(lp127
sbasg50
(dp128
(g52
g55
tp129
(imorph
Morph
p130
(dp131
g45
(lp132
Vk
aVu
asbs((imorph
Morph
p133
(dp134
g45
(lp135
Vk
aVa
aVp^h
p136
aVa
asb(imorph
Morph
p137
(dp138
g45
(lp139
Vk
aVa
aVp
aVk
aVo
asbtp140
(imorph
Morph
p141
(dp142
g45
(lp143
Vk
aVa
asbs(g62
g65
tp144
(imorph
Morph
p145
(dp146
g45
(lp147
Vi
asbssg72
(lp148
(imorph
Morph
p149
(dp150
g45
(lp151
Vp^h
p152
aVa
asba(imorph
Morph
p153
(dp154
g45
(lp155
Vp
aVk
aVo
asbasbF37.09476113319397
tp156
a(g6
(g7
g8
NtRp157
(dp158
g11
(lp159
(irule
Rule
p160
(dp161
g15
(irule
Guard
p162
(dp163
g18
I00
sg19
(lp164
(irule
FeatureMatrix
p165
(dp166
g28
(lp167
sg22
V[  ]
p168
sba(irule
ConstantPhoneme
p169
(dp170
S'p'
Va
sbasg21
I00
sg22
Va [  ]
p171
sg23
I00
sg24
S'L'
sbsg25
(irule
OffsetSpecification
p172
(dp173
S'offset'
p174
I-2
sbsg31
(irule
Guard
p175
(dp176
g18
I00
sg19
(lp177
sg21
I00
sg22
V
sg23
I00
sg24
S'R'
sbsg35
(irule
FeatureMatrix
p178
(dp179
g28
(lp180
(I00
S'high'
p181
tp182
asg22
V[ -high ]
p183
sbsg22
V[ -high ] ---> -2 / a [  ] _ 
p184
sba(irule
Rule
p185
(dp186
g15
(irule
Guard
p187
(dp188
g18
I00
sg19
(lp189
sg21
I00
sg22
V
sg23
I00
sg24
S'L'
sbsg25
(irule
FeatureMatrix
p190
(dp191
g28
(lp192
(I00
g107
tp193
asg22
V[ -aspirated ]
p194
sbsg31
(irule
Guard
p195
(dp196
g18
I00
sg19
(lp197
(irule
ConstantPhoneme
p198
(dp199
S'p'
Vk
sbasg21
I00
sg22
Vk
sg23
I00
sg24
S'R'
sbsg35
(irule
FeatureMatrix
p200
(dp201
g28
(lp202
sg22
V[  ]
p203
sbsg22
V[  ] ---> [ -aspirated ] /  _ k
p204
sbasg41
(lp205
(imorph
Morph
p206
(dp207
g45
(lp208
sba(imorph
Morph
p209
(dp210
g45
(lp211
sbasg50
(dp212
((imorph
Morph
(dp213
g45
(lp214
Vi
aVk
aV\u0259
asb(imorph
Morph
(dp215
g45
(lp216
Vi
aVk
aVk
aVo
asbtp217
(imorph
Morph
p218
(dp219
g45
(lp220
Vi
aVk
asbs(g52
g55
tp221
(imorph
Morph
p222
(dp223
g45
(lp224
Vk
aVu
aVp
asbs((imorph
Morph
(dp225
g45
(lp226
Vt
aVa
aVk
aVa
asb(imorph
Morph
(dp227
g45
(lp228
Vt
aVa
aVk
aVk
aVo
asbtp229
(imorph
Morph
p230
(dp231
g45
(lp232
Vt
aVa
aVk
asbs((imorph
Morph
(dp233
g45
(lp234
Vp
aVu
aVt^h
p235
aV\u0259
asb(imorph
Morph
(dp236
g45
(lp237
Vp
aVu
aVt
aVk
aVo
asbtp238
(imorph
Morph
p239
(dp240
g45
(lp241
Vp
aVu
aVt^h
p242
asbs((imorph
Morph
(dp243
g45
(lp244
Vs
aV\u0259
aVk
aV\u0259
asb(imorph
Morph
(dp245
g45
(lp246
Vs
aV\u0259
aVk
aVk
aVo
asbtp247
(imorph
Morph
p248
(dp249
g45
(lp250
Vs
aV\u0259
aVk
asbs((imorph
Morph
(dp251
g45
(lp252
Vt
aVa
aVt
aVa
asb(imorph
Morph
(dp253
g45
(lp254
Vt
aVa
aVt
aVk
aVo
asbtp255
(imorph
Morph
p256
(dp257
g45
(lp258
Vt
aVa
aVt
asbs(g133
g137
tp259
(imorph
Morph
p260
(dp261
g45
(lp262
Vk
aVa
ag152
asbs((imorph
Morph
(dp263
g45
(lp264
Vk
aVa
aVk
aVa
asb(imorph
Morph
(dp265
g45
(lp266
Vk
aVa
aVk
aVk
aVo
asbtp267
(imorph
Morph
p268
(dp269
g45
(lp270
Vk
aVa
aVk
asbs((imorph
Morph
(dp271
g45
(lp272
Vc\u030c
p273
aVu
aVk
aV\u0259
asb(imorph
Morph
(dp274
g45
(lp275
Vc\u030c
p276
aVu
aVk
aVk
aVo
asbtp277
(imorph
Morph
p278
(dp279
g45
(lp280
Vc\u030c
p281
aVu
aVk
asbs((imorph
Morph
(dp282
g45
(lp283
Vm
aV\u0259
aVk
aV\u0259
asb(imorph
Morph
(dp284
g45
(lp285
Vm
aV\u0259
aVk
aVk
aVo
asbtp286
(imorph
Morph
p287
(dp288
g45
(lp289
Vm
aV\u0259
aVk
asbs((imorph
Morph
p290
(dp291
g45
(lp292
Vc
aVi
aVp^h
p293
aV\u0259
asb(imorph
Morph
p294
(dp295
g45
(lp296
Vc
aVi
aVp
aVk
aVo
asbtp297
(imorph
Morph
p298
(dp299
g45
(lp300
Vc
aVi
ag152
asbs(g62
g65
tp301
(imorph
Morph
p302
(dp303
g45
(lp304
Vi
aVp
asbssg72
(lp305
(imorph
Morph
p306
(dp307
g45
(lp308
V\u0259
asba(imorph
Morph
p309
(dp310
g45
(lp311
Vk
aVo
asbasbF564.97504305839539
tp312
asS'problem'
p313
S'Odden_1.3_Korean'
p314
sS'finalFrontier'
p315
g6
(csolution
Frontier
p316
g8
NtRp317
(dp318
g41
g205
sg72
g305
sg50
g212
sS'frontiers'
p319
(lp320
(lp321
(irule
Rule
p322
(dp323
g15
(irule
Guard
p324
(dp325
g18
I00
sg19
(lp326
(irule
FeatureMatrix
p327
(dp328
g28
(lp329
sg22
V[  ]
p330
sba(irule
ConstantPhoneme
p331
(dp332
S'p'
Va
sbasg21
I00
sg22
Va [  ]
p333
sg23
I00
sg24
S'L'
sbsg25
(irule
OffsetSpecification
p334
(dp335
g174
I-2
sbsg31
(irule
Guard
p336
(dp337
g18
I00
sg19
(lp338
sg21
I00
sg22
V
sg23
I00
sg24
S'R'
sbsg35
(irule
FeatureMatrix
p339
(dp340
g28
(lp341
(I00
S'high'
tp342
asg22
V[ -high ]
p343
sbsg22
V[ -high ] ---> -2 / a [  ] _ 
p344
sba(irule
Rule
p345
(dp346
g15
(irule
Guard
p347
(dp348
g18
I00
sg19
(lp349
(irule
FeatureMatrix
p350
(dp351
g28
(lp352
sg22
Nsba(irule
FeatureMatrix
p353
(dp354
g28
(lp355
(I00
S'high'
p356
tp357
asg22
Nsbasg21
I00
sg22
Nsg23
I00
sg24
S'L'
sbsg25
(irule
OffsetSpecification
p358
(dp359
g174
I-2
sbsg31
(irule
Guard
p360
(dp361
g18
I00
sg19
(lp362
sg21
I00
sg22
Nsg23
I00
sg24
S'R'
sbsg35
(irule
ConstantPhoneme
p363
(dp364
S'p'
V\u0259
sbsg22
Nsba(irule
Rule
p365
(dp366
g15
(irule
Guard
p367
(dp368
g18
I00
sg19
(lp369
(irule
FeatureMatrix
p370
(dp371
g28
(lp372
sg22
Nsba(irule
FeatureMatrix
p373
(dp374
g28
(lp375
(I01
S'low'
p376
tp377
asg22
Nsbasg21
I00
sg22
Nsg23
I00
sg24
S'L'
sbsg25
(irule
OffsetSpecification
p378
(dp379
g174
I-2
sbsg31
(irule
Guard
p380
(dp381
g18
I00
sg19
(lp382
sg21
I00
sg22
Nsg23
I00
sg24
S'R'
sbsg35
(irule
ConstantPhoneme
p383
(dp384
S'p'
V\u0259
sbsg22
Nsba(irule
Rule
p385
(dp386
g15
(irule
Guard
p387
(dp388
g18
I00
sg19
(lp389
(irule
FeatureMatrix
p390
(dp391
g28
(lp392
sg22
Nsba(irule
FeatureMatrix
p393
(dp394
g28
(lp395
(I01
g376
tp396
asg22
Nsbasg21
I00
sg22
Nsg23
I00
sg24
S'L'
sbsg25
(irule
OffsetSpecification
p397
(dp398
g174
I-2
sbsg31
(irule
Guard
p399
(dp400
g18
I01
sg19
(lp401
sg21
I00
sg22
Nsg23
I00
sg24
S'R'
sbsg35
(irule
FeatureMatrix
p402
(dp403
g28
(lp404
sg22
Nsbsg22
Nsba(irule
Rule
p405
(dp406
g15
(irule
Guard
p407
(dp408
g18
I00
sg19
(lp409
(irule
FeatureMatrix
p410
(dp411
g28
(lp412
sg22
Nsba(irule
ConstantPhoneme
p413
(dp414
S'p'
Va
sbasg21
I00
sg22
Nsg23
I00
sg24
S'L'
sbsg25
(irule
OffsetSpecification
p415
(dp416
g174
I-2
sbsg31
(irule
Guard
p417
(dp418
g18
I01
sg19
(lp419
sg21
I00
sg22
Nsg23
I00
sg24
S'R'
sbsg35
(irule
FeatureMatrix
p420
(dp421
g28
(lp422
sg22
Nsbsg22
Nsba(irule
Rule
p423
(dp424
g15
(irule
Guard
p425
(dp426
g18
I00
sg19
(lp427
(irule
FeatureMatrix
p428
(dp429
g28
(lp430
sg22
Nsba(irule
FeatureMatrix
p431
(dp432
g28
(lp433
(I01
g376
tp434
asg22
Nsbasg21
I00
sg22
Nsg23
I00
sg24
S'L'
sbsg25
(irule
OffsetSpecification
p435
(dp436
g174
I-2
sbsg31
(irule
Guard
p437
(dp438
g18
I00
sg19
(lp439
sg21
I00
sg22
Nsg23
I00
sg24
S'R'
sbsg35
(irule
FeatureMatrix
p440
(dp441
g28
(lp442
(I01
S'voice'
p443
tp444
asg22
Nsbsg22
Nsba(irule
Rule
p445
(dp446
g15
(irule
Guard
p447
(dp448
g18
I00
sg19
(lp449
(irule
FeatureMatrix
p450
(dp451
g28
(lp452
sg22
Nsba(irule
FeatureMatrix
p453
(dp454
g28
(lp455
(I01
g376
tp456
asg22
Nsbasg21
I00
sg22
Nsg23
I00
sg24
S'L'
sbsg25
(irule
OffsetSpecification
p457
(dp458
g174
I-2
sbsg31
(irule
Guard
p459
(dp460
g18
I00
sg19
(lp461
sg21
I00
sg22
Nsg23
I00
sg24
S'R'
sbsg35
(irule
FeatureMatrix
p462
(dp463
g28
(lp464
(I00
g356
tp465
asg22
Nsbsg22
Nsba(irule
Rule
p466
(dp467
g15
(irule
Guard
p468
(dp469
g18
I00
sg19
(lp470
(irule
FeatureMatrix
p471
(dp472
g28
(lp473
sg22
Nsba(irule
FeatureMatrix
p474
(dp475
g28
(lp476
(I01
g376
tp477
asg22
Nsbasg21
I00
sg22
Nsg23
I00
sg24
S'L'
sbsg25
(irule
OffsetSpecification
p478
(dp479
g174
I-2
sbsg31
(irule
Guard
p480
(dp481
g18
I00
sg19
(lp482
sg21
I00
sg22
Nsg23
I00
sg24
S'R'
sbsg35
(irule
FeatureMatrix
p483
(dp484
g28
(lp485
(I01
S'vowel'
p486
tp487
asg22
Nsbsg22
Nsba(irule
Rule
p488
(dp489
g15
(irule
Guard
p490
(dp491
g18
I00
sg19
(lp492
(irule
FeatureMatrix
p493
(dp494
g28
(lp495
sg22
Nsba(irule
FeatureMatrix
p496
(dp497
g28
(lp498
(I01
g376
tp499
asg22
Nsbasg21
I00
sg22
Nsg23
I00
sg24
S'L'
sbsg25
(irule
OffsetSpecification
p500
(dp501
g174
I-2
sbsg31
(irule
Guard
p502
(dp503
g18
I00
sg19
(lp504
sg21
I00
sg22
Nsg23
I00
sg24
S'R'
sbsg35
(irule
FeatureMatrix
p505
(dp506
g28
(lp507
(I01
S'continuant'
p508
tp509
asg22
Nsbsg22
Nsba(irule
Rule
p510
(dp511
g15
(irule
Guard
p512
(dp513
g18
I00
sg19
(lp514
(irule
FeatureMatrix
p515
(dp516
g28
(lp517
sg22
Nsba(irule
ConstantPhoneme
p518
(dp519
S'p'
Va
sbasg21
I00
sg22
Nsg23
I00
sg24
S'L'
sbsg25
(irule
OffsetSpecification
p520
(dp521
g174
I-2
sbsg31
(irule
Guard
p522
(dp523
g18
I00
sg19
(lp524
sg21
I00
sg22
Nsg23
I00
sg24
S'R'
sbsg35
(irule
ConstantPhoneme
p525
(dp526
S'p'
V\u0259
sbsg22
Nsba(irule
Rule
p527
(dp528
g15
(irule
Guard
p529
(dp530
g18
I00
sg19
(lp531
(irule
FeatureMatrix
p532
(dp533
g28
(lp534
sg22
Nsba(irule
ConstantPhoneme
p535
(dp536
S'p'
Va
sbasg21
I00
sg22
Nsg23
I00
sg24
S'L'
sbsg25
(irule
OffsetSpecification
p537
(dp538
g174
I-2
sbsg31
(irule
Guard
p539
(dp540
g18
I00
sg19
(lp541
sg21
I00
sg22
Nsg23
I00
sg24
S'R'
sbsg35
(irule
FeatureMatrix
p542
(dp543
g28
(lp544
(I01
S'sonorant'
p545
tp546
asg22
Nsbsg22
Nsba(irule
Rule
p547
(dp548
g15
(irule
Guard
p549
(dp550
g18
I00
sg19
(lp551
(irule
FeatureMatrix
p552
(dp553
g28
(lp554
sg22
Nsba(irule
FeatureMatrix
p555
(dp556
g28
(lp557
(I01
g376
tp558
asg22
Nsbasg21
I00
sg22
Nsg23
I00
sg24
S'L'
sbsg25
(irule
OffsetSpecification
p559
(dp560
g174
I-2
sbsg31
(irule
Guard
p561
(dp562
g18
I00
sg19
(lp563
sg21
I00
sg22
Nsg23
I00
sg24
S'R'
sbsg35
(irule
FeatureMatrix
p564
(dp565
g28
(lp566
(I01
g545
tp567
asg22
Nsbsg22
Nsba(irule
Rule
p568
(dp569
g15
(irule
Guard
p570
(dp571
g18
I00
sg19
(lp572
(irule
FeatureMatrix
p573
(dp574
g28
(lp575
sg22
Nsba(irule
ConstantPhoneme
p576
(dp577
S'p'
Va
sbasg21
I00
sg22
Nsg23
I00
sg24
S'L'
sbsg25
(irule
OffsetSpecification
p578
(dp579
g174
I-2
sbsg31
(irule
Guard
p580
(dp581
g18
I00
sg19
(lp582
sg21
I00
sg22
Nsg23
I00
sg24
S'R'
sbsg35
(irule
FeatureMatrix
p583
(dp584
g28
(lp585
(I01
g486
tp586
asg22
Nsbsg22
Nsba(irule
Rule
p587
(dp588
g15
(irule
Guard
p589
(dp590
g18
I00
sg19
(lp591
(irule
FeatureMatrix
p592
(dp593
g28
(lp594
sg22
Nsba(irule
ConstantPhoneme
p595
(dp596
S'p'
Va
sbasg21
I00
sg22
Nsg23
I00
sg24
S'L'
sbsg25
(irule
OffsetSpecification
p597
(dp598
g174
I-2
sbsg31
(irule
Guard
p599
(dp600
g18
I00
sg19
(lp601
sg21
I00
sg22
Nsg23
I00
sg24
S'R'
sbsg35
(irule
FeatureMatrix
p602
(dp603
g28
(lp604
(I01
g508
tp605
asg22
Nsbsg22
Nsba(irule
Rule
p606
(dp607
g15
(irule
Guard
p608
(dp609
g18
I00
sg19
(lp610
(irule
FeatureMatrix
p611
(dp612
g28
(lp613
sg22
Nsba(irule
ConstantPhoneme
p614
(dp615
S'p'
Va
sbasg21
I00
sg22
Nsg23
I00
sg24
S'L'
sbsg25
(irule
OffsetSpecification
p616
(dp617
g174
I-2
sbsg31
(irule
Guard
p618
(dp619
g18
I00
sg19
(lp620
sg21
I00
sg22
Nsg23
I00
sg24
S'R'
sbsg35
(irule
FeatureMatrix
p621
(dp622
g28
(lp623
(I01
g443
tp624
asg22
Nsbsg22
Nsba(irule
Rule
p625
(dp626
g15
(irule
Guard
p627
(dp628
g18
I00
sg19
(lp629
(irule
FeatureMatrix
p630
(dp631
g28
(lp632
sg22
Nsba(irule
FeatureMatrix
p633
(dp634
g28
(lp635
(I01
g376
tp636
asg22
Nsbasg21
I00
sg22
Nsg23
I00
sg24
S'L'
sbsg25
(irule
ConstantPhoneme
p637
(dp638
S'p'
Va
sbsg31
(irule
Guard
p639
(dp640
g18
I01
sg19
(lp641
sg21
I00
sg22
Nsg23
I00
sg24
S'R'
sbsg35
(irule
FeatureMatrix
p642
(dp643
g28
(lp644
sg22
Nsbsg22
Nsba(irule
Rule
p645
(dp646
g15
(irule
Guard
p647
(dp648
g18
I00
sg19
(lp649
(irule
FeatureMatrix
p650
(dp651
g28
(lp652
sg22
Nsba(irule
FeatureMatrix
p653
(dp654
g28
(lp655
(I00
g356
tp656
a(I01
g443
tp657
asg22
Nsbasg21
I00
sg22
Nsg23
I00
sg24
S'L'
sbsg25
(irule
OffsetSpecification
p658
(dp659
g174
I-2
sbsg31
(irule
Guard
p660
(dp661
g18
I01
sg19
(lp662
sg21
I00
sg22
Nsg23
I00
sg24
S'R'
sbsg35
(irule
FeatureMatrix
p663
(dp664
g28
(lp665
sg22
Nsbsg22
Nsba(irule
Rule
p666
(dp667
g15
(irule
Guard
p668
(dp669
g18
I00
sg19
(lp670
(irule
FeatureMatrix
p671
(dp672
g28
(lp673
(I00
S'rounded'
p674
tp675
asg22
Nsba(irule
FeatureMatrix
p676
(dp677
g28
(lp678
(I01
g376
tp679
asg22
Nsbasg21
I00
sg22
Nsg23
I00
sg24
S'L'
sbsg25
(irule
OffsetSpecification
p680
(dp681
g174
I-2
sbsg31
(irule
Guard
p682
(dp683
g18
I00
sg19
(lp684
sg21
I00
sg22
Nsg23
I00
sg24
S'R'
sbsg35
(irule
ConstantPhoneme
p685
(dp686
S'p'
V\u0259
sbsg22
Nsba(irule
Rule
p687
(dp688
g15
(irule
Guard
p689
(dp690
g18
I00
sg19
(lp691
(irule
FeatureMatrix
p692
(dp693
g28
(lp694
sg22
Nsba(irule
FeatureMatrix
p695
(dp696
g28
(lp697
(I01
g376
tp698
a(I00
S'sibilant'
p699
tp700
asg22
Nsbasg21
I00
sg22
Nsg23
I00
sg24
S'L'
sbsg25
(irule
OffsetSpecification
p701
(dp702
g174
I-2
sbsg31
(irule
Guard
p703
(dp704
g18
I00
sg19
(lp705
sg21
I00
sg22
Nsg23
I00
sg24
S'R'
sbsg35
(irule
ConstantPhoneme
p706
(dp707
S'p'
V\u0259
sbsg22
Nsba(irule
Rule
p708
(dp709
g15
(irule
Guard
p710
(dp711
g18
I00
sg19
(lp712
(irule
FeatureMatrix
p713
(dp714
g28
(lp715
sg22
Nsba(irule
FeatureMatrix
p716
(dp717
g28
(lp718
(I01
g376
tp719
asg22
Nsbasg21
I00
sg22
Nsg23
I00
sg24
S'L'
sbsg25
(irule
ConstantPhoneme
p720
(dp721
S'p'
Va
sbsg31
(irule
Guard
p722
(dp723
g18
I00
sg19
(lp724
sg21
I00
sg22
Nsg23
I00
sg24
S'R'
sbsg35
(irule
ConstantPhoneme
p725
(dp726
S'p'
V\u0259
sbsg22
Nsba(irule
Rule
p727
(dp728
g15
(irule
Guard
p729
(dp730
g18
I00
sg19
(lp731
(irule
FeatureMatrix
p732
(dp733
g28
(lp734
sg22
Nsba(irule
ConstantPhoneme
p735
(dp736
S'p'
Va
sbasg21
I00
sg22
Nsg23
I00
sg24
S'L'
sbsg25
(irule
ConstantPhoneme
p737
(dp738
S'p'
Va
sbsg31
(irule
Guard
p739
(dp740
g18
I00
sg19
(lp741
sg21
I00
sg22
Nsg23
I00
sg24
S'R'
sbsg35
(irule
ConstantPhoneme
p742
(dp743
S'p'
V\u0259
sbsg22
Nsba(irule
Rule
p744
(dp745
g15
(irule
Guard
p746
(dp747
g18
I00
sg19
(lp748
(irule
FeatureMatrix
p749
(dp750
g28
(lp751
sg22
Nsba(irule
FeatureMatrix
p752
(dp753
g28
(lp754
(I01
S'back'
p755
tp756
a(I01
g376
tp757
asg22
Nsbasg21
I00
sg22
Nsg23
I00
sg24
S'L'
sbsg25
(irule
OffsetSpecification
p758
(dp759
g174
I-2
sbsg31
(irule
Guard
p760
(dp761
g18
I00
sg19
(lp762
sg21
I00
sg22
Nsg23
I00
sg24
S'R'
sbsg35
(irule
FeatureMatrix
p763
(dp764
g28
(lp765
(I01
g508
tp766
asg22
Nsbsg22
Nsba(irule
Rule
p767
(dp768
g15
(irule
Guard
p769
(dp770
g18
I00
sg19
(lp771
(irule
FeatureMatrix
p772
(dp773
g28
(lp774
sg22
Nsba(irule
FeatureMatrix
p775
(dp776
g28
(lp777
(I01
g376
tp778
asg22
Nsbasg21
I00
sg22
Nsg23
I00
sg24
S'L'
sbsg25
(irule
ConstantPhoneme
p779
(dp780
S'p'
Va
sbsg31
(irule
Guard
p781
(dp782
g18
I00
sg19
(lp783
sg21
I00
sg22
Nsg23
I00
sg24
S'R'
sbsg35
(irule
FeatureMatrix
p784
(dp785
g28
(lp786
(I01
g508
tp787
asg22
Nsbsg22
Nsba(irule
Rule
p788
(dp789
g15
(irule
Guard
p790
(dp791
g18
I00
sg19
(lp792
(irule
FeatureMatrix
p793
(dp794
g28
(lp795
sg22
Nsba(irule
FeatureMatrix
p796
(dp797
g28
(lp798
(I01
g376
tp799
asg22
Nsbasg21
I00
sg22
Nsg23
I00
sg24
S'L'
sbsg25
(irule
OffsetSpecification
p800
(dp801
g174
I-2
sbsg31
(irule
Guard
p802
(dp803
g18
I00
sg19
(lp804
sg21
I00
sg22
Nsg23
I00
sg24
S'R'
sbsg35
(irule
FeatureMatrix
p805
(dp806
g28
(lp807
(I00
g699
tp808
a(I01
g443
tp809
asg22
Nsbsg22
Nsba(irule
Rule
p810
(dp811
g15
(irule
Guard
p812
(dp813
g18
I00
sg19
(lp814
(irule
FeatureMatrix
p815
(dp816
g28
(lp817
sg22
Nsba(irule
FeatureMatrix
p818
(dp819
g28
(lp820
(I00
g674
tp821
a(I01
g755
tp822
asg22
Nsbasg21
I00
sg22
Nsg23
I00
sg24
S'L'
sbsg25
(irule
OffsetSpecification
p823
(dp824
g174
I-2
sbsg31
(irule
Guard
p825
(dp826
g18
I00
sg19
(lp827
sg21
I00
sg22
Nsg23
I00
sg24
S'R'
sbsg35
(irule
ConstantPhoneme
p828
(dp829
S'p'
V\u0259
sbsg22
Nsba(irule
Rule
p830
(dp831
g15
(irule
Guard
p832
(dp833
g18
I00
sg19
(lp834
(irule
FeatureMatrix
p835
(dp836
g28
(lp837
(I00
g674
tp838
asg22
Nsba(irule
FeatureMatrix
p839
(dp840
g28
(lp841
(I01
g376
tp842
asg22
Nsbasg21
I00
sg22
Nsg23
I00
sg24
S'L'
sbsg25
(irule
OffsetSpecification
p843
(dp844
g174
I-2
sbsg31
(irule
Guard
p845
(dp846
g18
I01
sg19
(lp847
sg21
I00
sg22
Nsg23
I00
sg24
S'R'
sbsg35
(irule
FeatureMatrix
p848
(dp849
g28
(lp850
sg22
Nsbsg22
Nsba(irule
Rule
p851
(dp852
g15
(irule
Guard
p853
(dp854
g18
I00
sg19
(lp855
(irule
FeatureMatrix
p856
(dp857
g28
(lp858
sg22
Nsba(irule
ConstantPhoneme
p859
(dp860
S'p'
Va
sbasg21
I00
sg22
Nsg23
I00
sg24
S'L'
sbsg25
(irule
ConstantPhoneme
p861
(dp862
S'p'
Va
sbsg31
(irule
Guard
p863
(dp864
g18
I01
sg19
(lp865
sg21
I00
sg22
Nsg23
I00
sg24
S'R'
sbsg35
(irule
FeatureMatrix
p866
(dp867
g28
(lp868
sg22
Nsbsg22
Nsba(irule
Rule
p869
(dp870
g15
(irule
Guard
p871
(dp872
g18
I00
sg19
(lp873
(irule
FeatureMatrix
p874
(dp875
g28
(lp876
(I00
g699
tp877
asg22
Nsba(irule
FeatureMatrix
p878
(dp879
g28
(lp880
(I01
g376
tp881
asg22
Nsbasg21
I00
sg22
Nsg23
I00
sg24
S'L'
sbsg25
(irule
OffsetSpecification
p882
(dp883
g174
I-2
sbsg31
(irule
Guard
p884
(dp885
g18
I00
sg19
(lp886
sg21
I00
sg22
Nsg23
I00
sg24
S'R'
sbsg35
(irule
ConstantPhoneme
p887
(dp888
S'p'
V\u0259
sbsg22
Nsba(irule
Rule
p889
(dp890
g15
(irule
Guard
p891
(dp892
g18
I00
sg19
(lp893
(irule
FeatureMatrix
p894
(dp895
g28
(lp896
(I00
S'palatal'
p897
tp898
asg22
Nsba(irule
FeatureMatrix
p899
(dp900
g28
(lp901
(I01
g376
tp902
asg22
Nsbasg21
I00
sg22
Nsg23
I00
sg24
S'L'
sbsg25
(irule
OffsetSpecification
p903
(dp904
g174
I-2
sbsg31
(irule
Guard
p905
(dp906
g18
I01
sg19
(lp907
sg21
I00
sg22
Nsg23
I00
sg24
S'R'
sbsg35
(irule
FeatureMatrix
p908
(dp909
g28
(lp910
sg22
Nsbsg22
Nsba(irule
Rule
p911
(dp912
g15
(irule
Guard
p913
(dp914
g18
I00
sg19
(lp915
(irule
FeatureMatrix
p916
(dp917
g28
(lp918
sg22
Nsba(irule
FeatureMatrix
p919
(dp920
g28
(lp921
(I01
g376
tp922
asg22
Nsbasg21
I00
sg22
Nsg23
I00
sg24
S'L'
sbsg25
(irule
ConstantPhoneme
p923
(dp924
S'p'
Va
sbsg31
(irule
Guard
p925
(dp926
g18
I00
sg19
(lp927
sg21
I00
sg22
Nsg23
I00
sg24
S'R'
sbsg35
(irule
FeatureMatrix
p928
(dp929
g28
(lp930
(I01
g443
tp931
asg22
Nsbsg22
Nsba(irule
Rule
p932
(dp933
g15
(irule
Guard
p934
(dp935
g18
I00
sg19
(lp936
(irule
FeatureMatrix
p937
(dp938
g28
(lp939
(I00
g699
tp940
asg22
Nsba(irule
ConstantPhoneme
p941
(dp942
S'p'
Va
sbasg21
I00
sg22
Nsg23
I00
sg24
S'L'
sbsg25
(irule
OffsetSpecification
p943
(dp944
g174
I-2
sbsg31
(irule
Guard
p945
(dp946
g18
I01
sg19
(lp947
sg21
I00
sg22
Nsg23
I00
sg24
S'R'
sbsg35
(irule
FeatureMatrix
p948
(dp949
g28
(lp950
sg22
Nsbsg22
Nsba(irule
Rule
p951
(dp952
g15
(irule
Guard
p953
(dp954
g18
I00
sg19
(lp955
(irule
FeatureMatrix
p956
(dp957
g28
(lp958
sg22
Nsba(irule
FeatureMatrix
p959
(dp960
g28
(lp961
(I00
g897
tp962
a(I00
g356
tp963
asg22
Nsbasg21
I00
sg22
Nsg23
I00
sg24
S'L'
sbsg25
(irule
OffsetSpecification
p964
(dp965
g174
I-2
sbsg31
(irule
Guard
p966
(dp967
g18
I00
sg19
(lp968
sg21
I00
sg22
Nsg23
I00
sg24
S'R'
sbsg35
(irule
ConstantPhoneme
p969
(dp970
S'p'
V\u0259
sbsg22
Nsba(irule
Rule
p971
(dp972
g15
(irule
Guard
p973
(dp974
g18
I00
sg19
(lp975
(irule
FeatureMatrix
p976
(dp977
g28
(lp978
sg22
Nsba(irule
FeatureMatrix
p979
(dp980
g28
(lp981
(I01
g376
tp982
asg22
Nsbasg21
I00
sg22
Nsg23
I00
sg24
S'L'
sbsg25
(irule
OffsetSpecification
p983
(dp984
g174
I-2
sbsg31
(irule
Guard
p985
(dp986
g18
I00
sg19
(lp987
sg21
I00
sg22
Nsg23
I00
sg24
S'R'
sbsg35
(irule
FeatureMatrix
p988
(dp989
g28
(lp990
(I00
g356
tp991
a(I00
S'coronal'
p992
tp993
asg22
Nsbsg22
Nsba(irule
Rule
p994
(dp995
g15
(irule
Guard
p996
(dp997
g18
I00
sg19
(lp998
(irule
FeatureMatrix
p999
(dp1000
g28
(lp1001
(I00
g897
tp1002
asg22
Nsba(irule
FeatureMatrix
p1003
(dp1004
g28
(lp1005
(I01
g376
tp1006
asg22
Nsbasg21
I00
sg22
Nsg23
I00
sg24
S'L'
sbsg25
(irule
OffsetSpecification
p1007
(dp1008
g174
I-2
sbsg31
(irule
Guard
p1009
(dp1010
g18
I00
sg19
(lp1011
sg21
I00
sg22
Nsg23
I00
sg24
S'R'
sbsg35
(irule
FeatureMatrix
p1012
(dp1013
g28
(lp1014
(I01
g508
tp1015
asg22
Nsbsg22
Nsba(irule
Rule
p1016
(dp1017
g15
(irule
Guard
p1018
(dp1019
g18
I00
sg19
(lp1020
(irule
FeatureMatrix
p1021
(dp1022
g28
(lp1023
sg22
Nsba(irule
ConstantPhoneme
p1024
(dp1025
S'p'
Va
sbasg21
I00
sg22
Nsg23
I00
sg24
S'L'
sbsg25
(irule
ConstantPhoneme
p1026
(dp1027
S'p'
Va
sbsg31
(irule
Guard
p1028
(dp1029
g18
I00
sg19
(lp1030
sg21
I00
sg22
Nsg23
I00
sg24
S'R'
sbsg35
(irule
FeatureMatrix
p1031
(dp1032
g28
(lp1033
(I01
g443
tp1034
asg22
Nsbsg22
Nsba(irule
Rule
p1035
(dp1036
g15
(irule
Guard
p1037
(dp1038
g18
I00
sg19
(lp1039
(irule
FeatureMatrix
p1040
(dp1041
g28
(lp1042
sg22
Nsba(irule
FeatureMatrix
p1043
(dp1044
g28
(lp1045
(I01
g376
tp1046
asg22
Nsbasg21
I00
sg22
Nsg23
I00
sg24
S'L'
sbsg25
(irule
OffsetSpecification
p1047
(dp1048
g174
I-2
sbsg31
(irule
Guard
p1049
(dp1050
g18
I00
sg19
(lp1051
sg21
I00
sg22
Nsg23
I00
sg24
S'R'
sbsg35
(irule
FeatureMatrix
p1052
(dp1053
g28
(lp1054
(I01
g508
tp1055
a(I00
g992
tp1056
asg22
Nsbsg22
Nsba(irule
Rule
p1057
(dp1058
g15
(irule
Guard
p1059
(dp1060
g18
I00
sg19
(lp1061
(irule
FeatureMatrix
p1062
(dp1063
g28
(lp1064
sg22
Nsba(irule
FeatureMatrix
p1065
(dp1066
g28
(lp1067
(I01
g376
tp1068
a(I01
g443
tp1069
asg22
Nsbasg21
I00
sg22
Nsg23
I00
sg24
S'L'
sbsg25
(irule
OffsetSpecification
p1070
(dp1071
g174
I-2
sbsg31
(irule
Guard
p1072
(dp1073
g18
I00
sg19
(lp1074
sg21
I00
sg22
Nsg23
I00
sg24
S'R'
sbsg35
(irule
ConstantPhoneme
p1075
(dp1076
S'p'
V\u0259
sbsg22
Nsba(irule
Rule
p1077
(dp1078
g15
(irule
Guard
p1079
(dp1080
g18
I00
sg19
(lp1081
(irule
FeatureMatrix
p1082
(dp1083
g28
(lp1084
sg22
Nsba(irule
FeatureMatrix
p1085
(dp1086
g28
(lp1087
(I00
S'aspirated'
p1088
tp1089
a(I00
g356
tp1090
asg22
Nsbasg21
I00
sg22
Nsg23
I00
sg24
S'L'
sbsg25
(irule
OffsetSpecification
p1091
(dp1092
g174
I-2
sbsg31
(irule
Guard
p1093
(dp1094
g18
I00
sg19
(lp1095
sg21
I00
sg22
Nsg23
I00
sg24
S'R'
sbsg35
(irule
ConstantPhoneme
p1096
(dp1097
S'p'
V\u0259
sbsg22
Nsba(irule
Rule
p1098
(dp1099
g15
(irule
Guard
p1100
(dp1101
g18
I00
sg19
(lp1102
(irule
FeatureMatrix
p1103
(dp1104
g28
(lp1105
(I00
g486
tp1106
asg22
Nsba(irule
ConstantPhoneme
p1107
(dp1108
S'p'
Va
sbasg21
I00
sg22
Nsg23
I00
sg24
S'L'
sbsg25
(irule
OffsetSpecification
p1109
(dp1110
g174
I-2
sbsg31
(irule
Guard
p1111
(dp1112
g18
I01
sg19
(lp1113
sg21
I00
sg22
Nsg23
I00
sg24
S'R'
sbsg35
(irule
FeatureMatrix
p1114
(dp1115
g28
(lp1116
sg22
Nsbsg22
Nsba(irule
Rule
p1117
(dp1118
g15
(irule
Guard
p1119
(dp1120
g18
I00
sg19
(lp1121
(irule
FeatureMatrix
p1122
(dp1123
g28
(lp1124
(I00
g443
tp1125
asg22
Nsba(irule
ConstantPhoneme
p1126
(dp1127
S'p'
Va
sbasg21
I00
sg22
Nsg23
I00
sg24
S'L'
sbsg25
(irule
OffsetSpecification
p1128
(dp1129
g174
I-2
sbsg31
(irule
Guard
p1130
(dp1131
g18
I00
sg19
(lp1132
sg21
I00
sg22
Nsg23
I00
sg24
S'R'
sbsg35
(irule
ConstantPhoneme
p1133
(dp1134
S'p'
V\u0259
sbsg22
Nsba(irule
Rule
p1135
(dp1136
g15
(irule
Guard
p1137
(dp1138
g18
I00
sg19
(lp1139
(irule
FeatureMatrix
p1140
(dp1141
g28
(lp1142
sg22
Nsba(irule
FeatureMatrix
p1143
(dp1144
g28
(lp1145
(I01
g755
tp1146
a(I00
g356
tp1147
asg22
Nsbasg21
I00
sg22
Nsg23
I00
sg24
S'L'
sbsg25
(irule
OffsetSpecification
p1148
(dp1149
g174
I-2
sbsg31
(irule
Guard
p1150
(dp1151
g18
I01
sg19
(lp1152
sg21
I00
sg22
Nsg23
I00
sg24
S'R'
sbsg35
(irule
FeatureMatrix
p1153
(dp1154
g28
(lp1155
sg22
Nsbsg22
Nsba(irule
Rule
p1156
(dp1157
g15
(irule
Guard
p1158
(dp1159
g18
I00
sg19
(lp1160
(irule
FeatureMatrix
p1161
(dp1162
g28
(lp1163
sg22
Nsba(irule
FeatureMatrix
p1164
(dp1165
g28
(lp1166
(I01
g376
tp1167
asg22
Nsbasg21
I00
sg22
Nsg23
I00
sg24
S'L'
sbsg25
(irule
ConstantPhoneme
p1168
(dp1169
S'p'
Va
sbsg31
(irule
Guard
p1170
(dp1171
g18
I00
sg19
(lp1172
sg21
I00
sg22
Nsg23
I00
sg24
S'R'
sbsg35
(irule
FeatureMatrix
p1173
(dp1174
g28
(lp1175
(I01
g486
tp1176
asg22
Nsbsg22
Nsba(irule
Rule
p1177
(dp1178
g15
(irule
Guard
p1179
(dp1180
g18
I00
sg19
(lp1181
(irule
FeatureMatrix
p1182
(dp1183
g28
(lp1184
(I00
g508
tp1185
asg22
Nsba(irule
FeatureMatrix
p1186
(dp1187
g28
(lp1188
(I01
g376
tp1189
asg22
Nsbasg21
I00
sg22
Nsg23
I00
sg24
S'L'
sbsg25
(irule
OffsetSpecification
p1190
(dp1191
g174
I-2
sbsg31
(irule
Guard
p1192
(dp1193
g18
I01
sg19
(lp1194
sg21
I00
sg22
Nsg23
I00
sg24
S'R'
sbsg35
(irule
FeatureMatrix
p1195
(dp1196
g28
(lp1197
sg22
Nsbsg22
Nsba(irule
Rule
p1198
(dp1199
g15
(irule
Guard
p1200
(dp1201
g18
I00
sg19
(lp1202
(irule
FeatureMatrix
p1203
(dp1204
g28
(lp1205
sg22
Nsba(irule
FeatureMatrix
p1206
(dp1207
g28
(lp1208
(I00
g356
tp1209
a(I00
g992
tp1210
asg22
Nsbasg21
I00
sg22
Nsg23
I00
sg24
S'L'
sbsg25
(irule
OffsetSpecification
p1211
(dp1212
g174
I-2
sbsg31
(irule
Guard
p1213
(dp1214
g18
I00
sg19
(lp1215
sg21
I00
sg22
Nsg23
I00
sg24
S'R'
sbsg35
(irule
ConstantPhoneme
p1216
(dp1217
S'p'
V\u0259
sbsg22
Nsba(irule
Rule
p1218
(dp1219
g15
(irule
Guard
p1220
(dp1221
g18
I00
sg19
(lp1222
(irule
FeatureMatrix
p1223
(dp1224
g28
(lp1225
sg22
Nsba(irule
FeatureMatrix
p1226
(dp1227
g28
(lp1228
(I01
g376
tp1229
asg22
Nsbasg21
I00
sg22
Nsg23
I00
sg24
S'L'
sbsg25
(irule
OffsetSpecification
p1230
(dp1231
g174
I-2
sbsg31
(irule
Guard
p1232
(dp1233
g18
I01
sg19
(lp1234
sg21
I00
sg22
Nsg23
I00
sg24
S'R'
sbsg35
(irule
FeatureMatrix
p1235
(dp1236
g28
(lp1237
(I00
g699
tp1238
asg22
Nsbsg22
Nsba(irule
Rule
p1239
(dp1240
g15
(irule
Guard
p1241
(dp1242
g18
I00
sg19
(lp1243
(irule
FeatureMatrix
p1244
(dp1245
g28
(lp1246
sg22
Nsba(irule
FeatureMatrix
p1247
(dp1248
g28
(lp1249
(I01
g376
tp1250
asg22
Nsbasg21
I00
sg22
Nsg23
I00
sg24
S'L'
sbsg25
(irule
ConstantPhoneme
p1251
(dp1252
S'p'
Va
sbsg31
(irule
Guard
p1253
(dp1254
g18
I00
sg19
(lp1255
sg21
I00
sg22
Nsg23
I00
sg24
S'R'
sbsg35
(irule
FeatureMatrix
p1256
(dp1257
g28
(lp1258
(I00
g356
tp1259
asg22
Nsbsg22
Nsba(irule
Rule
p1260
(dp1261
g15
(irule
Guard
p1262
(dp1263
g18
I00
sg19
(lp1264
(irule
FeatureMatrix
p1265
(dp1266
g28
(lp1267
sg22
Nsba(irule
FeatureMatrix
p1268
(dp1269
g28
(lp1270
(I00
S'anterior'
p1271
tp1272
a(I00
g356
tp1273
asg22
Nsbasg21
I00
sg22
Nsg23
I00
sg24
S'L'
sbsg25
(irule
OffsetSpecification
p1274
(dp1275
g174
I-2
sbsg31
(irule
Guard
p1276
(dp1277
g18
I01
sg19
(lp1278
sg21
I00
sg22
Nsg23
I00
sg24
S'R'
sbsg35
(irule
FeatureMatrix
p1279
(dp1280
g28
(lp1281
sg22
Nsbsg22
Nsba(irule
Rule
p1282
(dp1283
g15
(irule
Guard
p1284
(dp1285
g18
I00
sg19
(lp1286
(irule
FeatureMatrix
p1287
(dp1288
g28
(lp1289
sg22
Nsba(irule
FeatureMatrix
p1290
(dp1291
g28
(lp1292
(I01
g376
tp1293
asg22
Nsbasg21
I00
sg22
Nsg23
I00
sg24
S'L'
sbsg25
(irule
ConstantPhoneme
p1294
(dp1295
S'p'
Va
sbsg31
(irule
Guard
p1296
(dp1297
g18
I00
sg19
(lp1298
sg21
I00
sg22
Nsg23
I00
sg24
S'R'
sbsg35
(irule
FeatureMatrix
p1299
(dp1300
g28
(lp1301
(I01
g545
tp1302
asg22
Nsbsg22
Nsba(irule
Rule
p1303
(dp1304
g15
(irule
Guard
p1305
(dp1306
g18
I00
sg19
(lp1307
(irule
FeatureMatrix
p1308
(dp1309
g28
(lp1310
sg22
Nsba(irule
FeatureMatrix
p1311
(dp1312
g28
(lp1313
(I01
g508
tp1314
a(I00
g356
tp1315
asg22
Nsbasg21
I00
sg22
Nsg23
I00
sg24
S'L'
sbsg25
(irule
OffsetSpecification
p1316
(dp1317
g174
I-2
sbsg31
(irule
Guard
p1318
(dp1319
g18
I00
sg19
(lp1320
sg21
I00
sg22
Nsg23
I00
sg24
S'R'
sbsg35
(irule
ConstantPhoneme
p1321
(dp1322
S'p'
V\u0259
sbsg22
Nsba(irule
Rule
p1323
(dp1324
g15
(irule
Guard
p1325
(dp1326
g18
I00
sg19
(lp1327
(irule
FeatureMatrix
p1328
(dp1329
g28
(lp1330
sg22
Nsba(irule
FeatureMatrix
p1331
(dp1332
g28
(lp1333
(I01
g376
tp1334
asg22
Nsbasg21
I00
sg22
Nsg23
I00
sg24
S'L'
sbsg25
(irule
OffsetSpecification
p1335
(dp1336
g174
I-2
sbsg31
(irule
Guard
p1337
(dp1338
g18
I00
sg19
(lp1339
sg21
I00
sg22
Nsg23
I00
sg24
S'R'
sbsg35
(irule
FeatureMatrix
p1340
(dp1341
g28
(lp1342
(I00
g356
tp1343
a(I00
g376
tp1344
asg22
Nsbsg22
Nsba(irule
Rule
p1345
(dp1346
g15
(irule
Guard
p1347
(dp1348
g18
I00
sg19
(lp1349
(irule
FeatureMatrix
p1350
(dp1351
g28
(lp1352
(I00
g486
tp1353
asg22
Nsba(irule
FeatureMatrix
p1354
(dp1355
g28
(lp1356
(I01
g376
tp1357
asg22
Nsbasg21
I00
sg22
Nsg23
I00
sg24
S'L'
sbsg25
(irule
OffsetSpecification
p1358
(dp1359
g174
I-2
sbsg31
(irule
Guard
p1360
(dp1361
g18
I00
sg19
(lp1362
sg21
I00
sg22
Nsg23
I00
sg24
S'R'
sbsg35
(irule
ConstantPhoneme
p1363
(dp1364
S'p'
V\u0259
sbsg22
Nsba(irule
Rule
p1365
(dp1366
g15
(irule
Guard
p1367
(dp1368
g18
I00
sg19
(lp1369
(irule
FeatureMatrix
p1370
(dp1371
g28
(lp1372
(I00
g674
tp1373
asg22
Nsba(irule
FeatureMatrix
p1374
(dp1375
g28
(lp1376
(I00
g356
tp1377
asg22
Nsbasg21
I00
sg22
Nsg23
I00
sg24
S'L'
sbsg25
(irule
OffsetSpecification
p1378
(dp1379
g174
I-2
sbsg31
(irule
Guard
p1380
(dp1381
g18
I00
sg19
(lp1382
sg21
I00
sg22
Nsg23
I00
sg24
S'R'
sbsg35
(irule
ConstantPhoneme
p1383
(dp1384
S'p'
V\u0259
sbsg22
Nsba(irule
Rule
p1385
(dp1386
g15
(irule
Guard
p1387
(dp1388
g18
I00
sg19
(lp1389
(irule
FeatureMatrix
p1390
(dp1391
g28
(lp1392
(I00
g699
tp1393
asg22
Nsba(irule
ConstantPhoneme
p1394
(dp1395
S'p'
Va
sbasg21
I00
sg22
Nsg23
I00
sg24
S'L'
sbsg25
(irule
OffsetSpecification
p1396
(dp1397
g174
I-2
sbsg31
(irule
Guard
p1398
(dp1399
g18
I00
sg19
(lp1400
sg21
I00
sg22
Nsg23
I00
sg24
S'R'
sbsg35
(irule
ConstantPhoneme
p1401
(dp1402
S'p'
V\u0259
sbsg22
Nsba(irule
Rule
p1403
(dp1404
g15
(irule
Guard
p1405
(dp1406
g18
I00
sg19
(lp1407
(irule
FeatureMatrix
p1408
(dp1409
g28
(lp1410
sg22
Nsba(irule
FeatureMatrix
p1411
(dp1412
g28
(lp1413
(I00
g897
tp1414
a(I01
g376
tp1415
asg22
Nsbasg21
I00
sg22
Nsg23
I00
sg24
S'L'
sbsg25
(irule
OffsetSpecification
p1416
(dp1417
g174
I-2
sbsg31
(irule
Guard
p1418
(dp1419
g18
I00
sg19
(lp1420
sg21
I00
sg22
Nsg23
I00
sg24
S'R'
sbsg35
(irule
ConstantPhoneme
p1421
(dp1422
S'p'
V\u0259
sbsg22
Nsba(irule
Rule
p1423
(dp1424
g15
(irule
Guard
p1425
(dp1426
g18
I00
sg19
(lp1427
(irule
FeatureMatrix
p1428
(dp1429
g28
(lp1430
(I00
g443
tp1431
asg22
Nsba(irule
FeatureMatrix
p1432
(dp1433
g28
(lp1434
(I01
g376
tp1435
asg22
Nsbasg21
I00
sg22
Nsg23
I00
sg24
S'L'
sbsg25
(irule
OffsetSpecification
p1436
(dp1437
g174
I-2
sbsg31
(irule
Guard
p1438
(dp1439
g18
I00
sg19
(lp1440
sg21
I00
sg22
Nsg23
I00
sg24
S'R'
sbsg35
(irule
ConstantPhoneme
p1441
(dp1442
S'p'
V\u0259
sbsg22
Nsba(irule
Rule
p1443
(dp1444
g15
(irule
Guard
p1445
(dp1446
g18
I00
sg19
(lp1447
(irule
FeatureMatrix
p1448
(dp1449
g28
(lp1450
sg22
Nsba(irule
ConstantPhoneme
p1451
(dp1452
S'p'
Va
sbasg21
I00
sg22
Nsg23
I00
sg24
S'L'
sbsg25
(irule
ConstantPhoneme
p1453
(dp1454
S'p'
Va
sbsg31
(irule
Guard
p1455
(dp1456
g18
I00
sg19
(lp1457
sg21
I00
sg22
Nsg23
I00
sg24
S'R'
sbsg35
(irule
FeatureMatrix
p1458
(dp1459
g28
(lp1460
(I01
g508
tp1461
asg22
Nsbsg22
Nsba(irule
Rule
p1462
(dp1463
g15
(irule
Guard
p1464
(dp1465
g18
I00
sg19
(lp1466
(irule
FeatureMatrix
p1467
(dp1468
g28
(lp1469
sg22
Nsba(irule
FeatureMatrix
p1470
(dp1471
g28
(lp1472
(I01
g376
tp1473
asg22
Nsbasg21
I00
sg22
Nsg23
I00
sg24
S'L'
sbsg25
(irule
OffsetSpecification
p1474
(dp1475
g174
I-2
sbsg31
(irule
Guard
p1476
(dp1477
g18
I00
sg19
(lp1478
sg21
I00
sg22
Nsg23
I00
sg24
S'R'
sbsg35
(irule
FeatureMatrix
p1479
(dp1480
g28
(lp1481
(I00
g992
tp1482
a(I01
g443
tp1483
asg22
Nsbsg22
Nsba(irule
Rule
p1484
(dp1485
g15
(irule
Guard
p1486
(dp1487
g18
I00
sg19
(lp1488
(irule
FeatureMatrix
p1489
(dp1490
g28
(lp1491
sg22
Nsba(irule
FeatureMatrix
p1492
(dp1493
g28
(lp1494
(I00
g897
tp1495
a(I01
g376
tp1496
asg22
Nsbasg21
I00
sg22
Nsg23
I00
sg24
S'L'
sbsg25
(irule
OffsetSpecification
p1497
(dp1498
g174
I-2
sbsg31
(irule
Guard
p1499
(dp1500
g18
I00
sg19
(lp1501
sg21
I00
sg22
Nsg23
I00
sg24
S'R'
sbsg35
(irule
FeatureMatrix
p1502
(dp1503
g28
(lp1504
(I01
g443
tp1505
asg22
Nsbsg22
Nsba(irule
Rule
p1506
(dp1507
g15
(irule
Guard
p1508
(dp1509
g18
I00
sg19
(lp1510
(irule
FeatureMatrix
p1511
(dp1512
g28
(lp1513
sg22
Nsba(irule
FeatureMatrix
p1514
(dp1515
g28
(lp1516
(I01
S'tense'
p1517
tp1518
a(I01
g376
tp1519
asg22
Nsbasg21
I00
sg22
Nsg23
I00
sg24
S'L'
sbsg25
(irule
OffsetSpecification
p1520
(dp1521
g174
I-2
sbsg31
(irule
Guard
p1522
(dp1523
g18
I01
sg19
(lp1524
sg21
I00
sg22
Nsg23
I00
sg24
S'R'
sbsg35
(irule
FeatureMatrix
p1525
(dp1526
g28
(lp1527
sg22
Nsbsg22
Nsba(irule
Rule
p1528
(dp1529
g15
(irule
Guard
p1530
(dp1531
g18
I00
sg19
(lp1532
(irule
FeatureMatrix
p1533
(dp1534
g28
(lp1535
sg22
Nsba(irule
FeatureMatrix
p1536
(dp1537
g28
(lp1538
(I01
g755
tp1539
a(I01
g376
tp1540
asg22
Nsbasg21
I00
sg22
Nsg23
I00
sg24
S'L'
sbsg25
(irule
OffsetSpecification
p1541
(dp1542
g174
I-2
sbsg31
(irule
Guard
p1543
(dp1544
g18
I00
sg19
(lp1545
sg21
I00
sg22
Nsg23
I00
sg24
S'R'
sbsg35
(irule
FeatureMatrix
p1546
(dp1547
g28
(lp1548
(I01
g443
tp1549
asg22
Nsbsg22
Nsba(irule
Rule
p1550
(dp1551
g15
(irule
Guard
p1552
(dp1553
g18
I00
sg19
(lp1554
(irule
FeatureMatrix
p1555
(dp1556
g28
(lp1557
sg22
Nsba(irule
ConstantPhoneme
p1558
(dp1559
S'p'
Va
sbasg21
I00
sg22
Nsg23
I00
sg24
S'L'
sbsg25
(irule
OffsetSpecification
p1560
(dp1561
g174
I-2
sbsg31
(irule
Guard
p1562
(dp1563
g18
I01
sg19
(lp1564
sg21
I00
sg22
Nsg23
I00
sg24
S'R'
sbsg35
(irule
FeatureMatrix
p1565
(dp1566
g28
(lp1567
(I00
g699
tp1568
asg22
Nsbsg22
Nsba(irule
Rule
p1569
(dp1570
g15
(irule
Guard
p1571
(dp1572
g18
I00
sg19
(lp1573
(irule
FeatureMatrix
p1574
(dp1575
g28
(lp1576
sg22
Nsba(irule
ConstantPhoneme
p1577
(dp1578
S'p'
Va
sbasg21
I00
sg22
Nsg23
I00
sg24
S'L'
sbsg25
(irule
ConstantPhoneme
p1579
(dp1580
S'p'
Va
sbsg31
(irule
Guard
p1581
(dp1582
g18
I00
sg19
(lp1583
sg21
I00
sg22
Nsg23
I00
sg24
S'R'
sbsg35
(irule
FeatureMatrix
p1584
(dp1585
g28
(lp1586
(I00
g356
tp1587
asg22
Nsbsg22
Nsba(irule
Rule
p1588
(dp1589
g15
(irule
Guard
p1590
(dp1591
g18
I00
sg19
(lp1592
(irule
FeatureMatrix
p1593
(dp1594
g28
(lp1595
(I00
g376
tp1596
asg22
Nsba(irule
FeatureMatrix
p1597
(dp1598
g28
(lp1599
(I01
g376
tp1600
asg22
Nsbasg21
I00
sg22
Nsg23
I00
sg24
S'L'
sbsg25
(irule
OffsetSpecification
p1601
(dp1602
g174
I-2
sbsg31
(irule
Guard
p1603
(dp1604
g18
I00
sg19
(lp1605
sg21
I00
sg22
Nsg23
I00
sg24
S'R'
sbsg35
(irule
ConstantPhoneme
p1606
(dp1607
S'p'
V\u0259
sbsg22
Nsba(irule
Rule
p1608
(dp1609
g15
(irule
Guard
p1610
(dp1611
g18
I00
sg19
(lp1612
(irule
FeatureMatrix
p1613
(dp1614
g28
(lp1615
sg22
Nsba(irule
ConstantPhoneme
p1616
(dp1617
S'p'
Va
sbasg21
I00
sg22
Nsg23
I00
sg24
S'L'
sbsg25
(irule
ConstantPhoneme
p1618
(dp1619
S'p'
Va
sbsg31
(irule
Guard
p1620
(dp1621
g18
I00
sg19
(lp1622
sg21
I00
sg22
Nsg23
I00
sg24
S'R'
sbsg35
(irule
FeatureMatrix
p1623
(dp1624
g28
(lp1625
(I01
g545
tp1626
asg22
Nsbsg22
Nsba(irule
Rule
p1627
(dp1628
g15
(irule
Guard
p1629
(dp1630
g18
I00
sg19
(lp1631
(irule
FeatureMatrix
p1632
(dp1633
g28
(lp1634
sg22
Nsba(irule
FeatureMatrix
p1635
(dp1636
g28
(lp1637
(I00
S'nasal'
p1638
tp1639
a(I00
g356
tp1640
asg22
Nsbasg21
I00
sg22
Nsg23
I00
sg24
S'L'
sbsg25
(irule
OffsetSpecification
p1641
(dp1642
g174
I-2
sbsg31
(irule
Guard
p1643
(dp1644
g18
I00
sg19
(lp1645
sg21
I00
sg22
Nsg23
I00
sg24
S'R'
sbsg35
(irule
ConstantPhoneme
p1646
(dp1647
S'p'
V\u0259
sbsg22
Nsba(irule
Rule
p1648
(dp1649
g15
(irule
Guard
p1650
(dp1651
g18
I00
sg19
(lp1652
(irule
FeatureMatrix
p1653
(dp1654
g28
(lp1655
sg22
Nsba(irule
FeatureMatrix
p1656
(dp1657
g28
(lp1658
(I01
g376
tp1659
asg22
Nsbasg21
I00
sg22
Nsg23
I00
sg24
S'L'
sbsg25
(irule
OffsetSpecification
p1660
(dp1661
g174
I-2
sbsg31
(irule
Guard
p1662
(dp1663
g18
I00
sg19
(lp1664
sg21
I00
sg22
Nsg23
I00
sg24
S'R'
sbsg35
(irule
FeatureMatrix
p1665
(dp1666
g28
(lp1667
(I01
g486
tp1668
a(I00
g699
tp1669
asg22
Nsbsg22
Nsba(irule
Rule
p1670
(dp1671
g15
(irule
Guard
p1672
(dp1673
g18
I00
sg19
(lp1674
(irule
FeatureMatrix
p1675
(dp1676
g28
(lp1677
sg22
Nsba(irule
FeatureMatrix
p1678
(dp1679
g28
(lp1680
(I01
g376
tp1681
asg22
Nsbasg21
I00
sg22
Nsg23
I00
sg24
S'L'
sbsg25
(irule
OffsetSpecification
p1682
(dp1683
g174
I-2
sbsg31
(irule
Guard
p1684
(dp1685
g18
I00
sg19
(lp1686
sg21
I00
sg22
Nsg23
I00
sg24
S'R'
sbsg35
(irule
FeatureMatrix
p1687
(dp1688
g28
(lp1689
(I00
g356
tp1690
a(I00
g1517
tp1691
asg22
Nsbsg22
Nsba(irule
Rule
p1692
(dp1693
g15
(irule
Guard
p1694
(dp1695
g18
I00
sg19
(lp1696
(irule
FeatureMatrix
p1697
(dp1698
g28
(lp1699
sg22
Nsba(irule
FeatureMatrix
p1700
(dp1701
g28
(lp1702
(I01
g508
tp1703
a(I00
g356
tp1704
asg22
Nsbasg21
I00
sg22
Nsg23
I00
sg24
S'L'
sbsg25
(irule
OffsetSpecification
p1705
(dp1706
g174
I-2
sbsg31
(irule
Guard
p1707
(dp1708
g18
I01
sg19
(lp1709
sg21
I00
sg22
Nsg23
I00
sg24
S'R'
sbsg35
(irule
FeatureMatrix
p1710
(dp1711
g28
(lp1712
sg22
Nsbsg22
Nsba(irule
Rule
p1713
(dp1714
g15
(irule
Guard
p1715
(dp1716
g18
I00
sg19
(lp1717
(irule
FeatureMatrix
p1718
(dp1719
g28
(lp1720
sg22
Nsba(irule
FeatureMatrix
p1721
(dp1722
g28
(lp1723
(I00
g356
tp1724
a(I01
g486
tp1725
asg22
Nsbasg21
I00
sg22
Nsg23
I00
sg24
S'L'
sbsg25
(irule
OffsetSpecification
p1726
(dp1727
g174
I-2
sbsg31
(irule
Guard
p1728
(dp1729
g18
I01
sg19
(lp1730
sg21
I00
sg22
Nsg23
I00
sg24
S'R'
sbsg35
(irule
FeatureMatrix
p1731
(dp1732
g28
(lp1733
sg22
Nsbsg22
Nsba(irule
Rule
p1734
(dp1735
g15
(irule
Guard
p1736
(dp1737
g18
I00
sg19
(lp1738
(irule
FeatureMatrix
p1739
(dp1740
g28
(lp1741
sg22
Nsba(irule
FeatureMatrix
p1742
(dp1743
g28
(lp1744
(I01
g755
tp1745
a(I00
g356
tp1746
asg22
Nsbasg21
I00
sg22
Nsg23
I00
sg24
S'L'
sbsg25
(irule
OffsetSpecification
p1747
(dp1748
g174
I-2
sbsg31
(irule
Guard
p1749
(dp1750
g18
I00
sg19
(lp1751
sg21
I00
sg22
Nsg23
I00
sg24
S'R'
sbsg35
(irule
FeatureMatrix
p1752
(dp1753
g28
(lp1754
(I01
g508
tp1755
asg22
Nsbsg22
Nsba(irule
Rule
p1756
(dp1757
g15
(irule
Guard
p1758
(dp1759
g18
I00
sg19
(lp1760
(irule
FeatureMatrix
p1761
(dp1762
g28
(lp1763
sg22
Nsba(irule
ConstantPhoneme
p1764
(dp1765
S'p'
Va
sbasg21
I00
sg22
Nsg23
I00
sg24
S'L'
sbsg25
(irule
OffsetSpecification
p1766
(dp1767
g174
I-2
sbsg31
(irule
Guard
p1768
(dp1769
g18
I01
sg19
(lp1770
sg21
I00
sg22
Nsg23
I00
sg24
S'R'
sbsg35
(irule
FeatureMatrix
p1771
(dp1772
g28
(lp1773
(I00
g674
tp1774
asg22
Nsbsg22
Nsba(irule
Rule
p1775
(dp1776
g15
(irule
Guard
p1777
(dp1778
g18
I00
sg19
(lp1779
(irule
FeatureMatrix
p1780
(dp1781
g28
(lp1782
sg22
Nsba(irule
FeatureMatrix
p1783
(dp1784
g28
(lp1785
(I00
g356
tp1786
a(I00
g699
tp1787
asg22
Nsbasg21
I00
sg22
Nsg23
I00
sg24
S'L'
sbsg25
(irule
OffsetSpecification
p1788
(dp1789
g174
I-2
sbsg31
(irule
Guard
p1790
(dp1791
g18
I00
sg19
(lp1792
sg21
I00
sg22
Nsg23
I00
sg24
S'R'
sbsg35
(irule
ConstantPhoneme
p1793
(dp1794
S'p'
V\u0259
sbsg22
Nsba(irule
Rule
p1795
(dp1796
g15
(irule
Guard
p1797
(dp1798
g18
I00
sg19
(lp1799
(irule
FeatureMatrix
p1800
(dp1801
g28
(lp1802
sg22
Nsba(irule
FeatureMatrix
p1803
(dp1804
g28
(lp1805
(I01
g376
tp1806
asg22
Nsbasg21
I00
sg22
Nsg23
I00
sg24
S'L'
sbsg25
(irule
OffsetSpecification
p1807
(dp1808
g174
I-2
sbsg31
(irule
Guard
p1809
(dp1810
g18
I00
sg19
(lp1811
sg21
I00
sg22
Nsg23
I00
sg24
S'R'
sbsg35
(irule
FeatureMatrix
p1812
(dp1813
g28
(lp1814
(I01
g486
tp1815
a(I01
g443
tp1816
asg22
Nsbsg22
Nsba(irule
Rule
p1817
(dp1818
g15
(irule
Guard
p1819
(dp1820
g18
I00
sg19
(lp1821
(irule
FeatureMatrix
p1822
(dp1823
g28
(lp1824
sg22
Nsba(irule
FeatureMatrix
p1825
(dp1826
g28
(lp1827
(I01
g376
tp1828
asg22
Nsbasg21
I00
sg22
Nsg23
I00
sg24
S'L'
sbsg25
(irule
OffsetSpecification
p1829
(dp1830
g174
I-2
sbsg31
(irule
Guard
p1831
(dp1832
g18
I00
sg19
(lp1833
sg21
I00
sg22
Nsg23
I00
sg24
S'R'
sbsg35
(irule
FeatureMatrix
p1834
(dp1835
g28
(lp1836
(I00
g376
tp1837
a(I01
g486
tp1838
asg22
Nsbsg22
Nsba(irule
Rule
p1839
(dp1840
g15
(irule
Guard
p1841
(dp1842
g18
I00
sg19
(lp1843
(irule
FeatureMatrix
p1844
(dp1845
g28
(lp1846
sg22
Nsba(irule
FeatureMatrix
p1847
(dp1848
g28
(lp1849
(I00
g356
tp1850
asg22
Nsbasg21
I00
sg22
Nsg23
I00
sg24
S'L'
sbsg25
(irule
OffsetSpecification
p1851
(dp1852
g174
I-2
sbsg31
(irule
Guard
p1853
(dp1854
g18
I00
sg19
(lp1855
sg21
I00
sg22
Nsg23
I00
sg24
S'R'
sbsg35
(irule
FeatureMatrix
p1856
(dp1857
g28
(lp1858
(I00
g376
tp1859
a(I01
g486
tp1860
asg22
Nsbsg22
Nsba(irule
Rule
p1861
(dp1862
g15
(irule
Guard
p1863
(dp1864
g18
I00
sg19
(lp1865
(irule
FeatureMatrix
p1866
(dp1867
g28
(lp1868
sg22
Nsba(irule
ConstantPhoneme
p1869
(dp1870
S'p'
Va
sbasg21
I00
sg22
Nsg23
I00
sg24
S'L'
sbsg25
(irule
ConstantPhoneme
p1871
(dp1872
S'p'
Va
sbsg31
(irule
Guard
p1873
(dp1874
g18
I00
sg19
(lp1875
sg21
I00
sg22
Nsg23
I00
sg24
S'R'
sbsg35
(irule
FeatureMatrix
p1876
(dp1877
g28
(lp1878
(I01
g486
tp1879
asg22
Nsbsg22
Nsba(irule
Rule
p1880
(dp1881
g15
(irule
Guard
p1882
(dp1883
g18
I00
sg19
(lp1884
(irule
FeatureMatrix
p1885
(dp1886
g28
(lp1887
sg22
Nsba(irule
FeatureMatrix
p1888
(dp1889
g28
(lp1890
(I01
g376
tp1891
asg22
Nsbasg21
I00
sg22
Nsg23
I00
sg24
S'L'
sbsg25
(irule
OffsetSpecification
p1892
(dp1893
g174
I-2
sbsg31
(irule
Guard
p1894
(dp1895
g18
I00
sg19
(lp1896
sg21
I00
sg22
Nsg23
I00
sg24
S'R'
sbsg35
(irule
FeatureMatrix
p1897
(dp1898
g28
(lp1899
(I00
g376
tp1900
a(I01
g443
tp1901
asg22
Nsbsg22
Nsba(irule
Rule
p1902
(dp1903
g15
(irule
Guard
p1904
(dp1905
g18
I00
sg19
(lp1906
(irule
FeatureMatrix
p1907
(dp1908
g28
(lp1909
(I00
g508
tp1910
asg22
Nsba(irule
FeatureMatrix
p1911
(dp1912
g28
(lp1913
(I00
g356
tp1914
asg22
Nsbasg21
I00
sg22
Nsg23
I00
sg24
S'L'
sbsg25
(irule
OffsetSpecification
p1915
(dp1916
g174
I-2
sbsg31
(irule
Guard
p1917
(dp1918
g18
I00
sg19
(lp1919
sg21
I00
sg22
Nsg23
I00
sg24
S'R'
sbsg35
(irule
ConstantPhoneme
p1920
(dp1921
S'p'
V\u0259
sbsg22
Nsba(irule
Rule
p1922
(dp1923
g15
(irule
Guard
p1924
(dp1925
g18
I00
sg19
(lp1926
(irule
FeatureMatrix
p1927
(dp1928
g28
(lp1929
(I00
g376
tp1930
asg22
Nsba(irule
ConstantPhoneme
p1931
(dp1932
S'p'
Va
sbasg21
I00
sg22
Nsg23
I00
sg24
S'L'
sbsg25
(irule
OffsetSpecification
p1933
(dp1934
g174
I-2
sbsg31
(irule
Guard
p1935
(dp1936
g18
I00
sg19
(lp1937
sg21
I00
sg22
Nsg23
I00
sg24
S'R'
sbsg35
(irule
ConstantPhoneme
p1938
(dp1939
S'p'
V\u0259
sbsg22
Nsba(irule
Rule
p1940
(dp1941
g15
(irule
Guard
p1942
(dp1943
g18
I00
sg19
(lp1944
(irule
FeatureMatrix
p1945
(dp1946
g28
(lp1947
sg22
Nsba(irule
FeatureMatrix
p1948
(dp1949
g28
(lp1950
(I00
g674
tp1951
a(I00
g356
tp1952
asg22
Nsbasg21
I00
sg22
Nsg23
I00
sg24
S'L'
sbsg25
(irule
OffsetSpecification
p1953
(dp1954
g174
I-2
sbsg31
(irule
Guard
p1955
(dp1956
g18
I00
sg19
(lp1957
sg21
I00
sg22
Nsg23
I00
sg24
S'R'
sbsg35
(irule
ConstantPhoneme
p1958
(dp1959
S'p'
V\u0259
sbsg22
Nsba(irule
Rule
p1960
(dp1961
g15
(irule
Guard
p1962
(dp1963
g18
I00
sg19
(lp1964
(irule
FeatureMatrix
p1965
(dp1966
g28
(lp1967
(I00
g897
tp1968
asg22
Nsba(irule
ConstantPhoneme
p1969
(dp1970
S'p'
Va
sbasg21
I00
sg22
Nsg23
I00
sg24
S'L'
sbsg25
(irule
OffsetSpecification
p1971
(dp1972
g174
I-2
sbsg31
(irule
Guard
p1973
(dp1974
g18
I00
sg19
(lp1975
sg21
I00
sg22
Nsg23
I00
sg24
S'R'
sbsg35
(irule
ConstantPhoneme
p1976
(dp1977
S'p'
V\u0259
sbsg22
Nsba(irule
Rule
p1978
(dp1979
g15
(irule
Guard
p1980
(dp1981
g18
I00
sg19
(lp1982
(irule
FeatureMatrix
p1983
(dp1984
g28
(lp1985
sg22
Nsba(irule
FeatureMatrix
p1986
(dp1987
g28
(lp1988
(I01
g376
tp1989
asg22
Nsbasg21
I00
sg22
Nsg23
I00
sg24
S'L'
sbsg25
(irule
OffsetSpecification
p1990
(dp1991
g174
I-2
sbsg31
(irule
Guard
p1992
(dp1993
g18
I00
sg19
(lp1994
sg21
I00
sg22
Nsg23
I00
sg24
S'R'
sbsg35
(irule
FeatureMatrix
p1995
(dp1996
g28
(lp1997
(I00
g1271
tp1998
a(I01
g508
tp1999
asg22
Nsbsg22
Nsba(irule
Rule
p2000
(dp2001
g15
(irule
Guard
p2002
(dp2003
g18
I00
sg19
(lp2004
(irule
FeatureMatrix
p2005
(dp2006
g28
(lp2007
sg22
Nsba(irule
FeatureMatrix
p2008
(dp2009
g28
(lp2010
(I01
g376
tp2011
asg22
Nsbasg21
I00
sg22
Nsg23
I00
sg24
S'L'
sbsg25
(irule
OffsetSpecification
p2012
(dp2013
g174
I-2
sbsg31
(irule
Guard
p2014
(dp2015
g18
I00
sg19
(lp2016
sg21
I00
sg22
Nsg23
I00
sg24
S'R'
sbsg35
(irule
FeatureMatrix
p2017
(dp2018
g28
(lp2019
(I01
g508
tp2020
a(I00
g1638
tp2021
asg22
Nsbsg22
Nsba(irule
Rule
p2022
(dp2023
g15
(irule
Guard
p2024
(dp2025
g18
I00
sg19
(lp2026
(irule
FeatureMatrix
p2027
(dp2028
g28
(lp2029
sg22
Nsba(irule
FeatureMatrix
p2030
(dp2031
g28
(lp2032
(I00
g1088
tp2033
a(I01
g376
tp2034
asg22
Nsbasg21
I00
sg22
Nsg23
I00
sg24
S'L'
sbsg25
(irule
OffsetSpecification
p2035
(dp2036
g174
I-2
sbsg31
(irule
Guard
p2037
(dp2038
g18
I00
sg19
(lp2039
sg21
I00
sg22
Nsg23
I00
sg24
S'R'
sbsg35
(irule
ConstantPhoneme
p2040
(dp2041
S'p'
V\u0259
sbsg22
Nsba(irule
Rule
p2042
(dp2043
g15
(irule
Guard
p2044
(dp2045
g18
I00
sg19
(lp2046
(irule
FeatureMatrix
p2047
(dp2048
g28
(lp2049
sg22
Nsba(irule
FeatureMatrix
p2050
(dp2051
g28
(lp2052
(I01
g545
tp2053
a(I00
g356
tp2054
asg22
Nsbasg21
I00
sg22
Nsg23
I00
sg24
S'L'
sbsg25
(irule
OffsetSpecification
p2055
(dp2056
g174
I-2
sbsg31
(irule
Guard
p2057
(dp2058
g18
I01
sg19
(lp2059
sg21
I00
sg22
Nsg23
I00
sg24
S'R'
sbsg35
(irule
FeatureMatrix
p2060
(dp2061
g28
(lp2062
sg22
Nsbsg22
Nsba(irule
Rule
p2063
(dp2064
g15
(irule
Guard
p2065
(dp2066
g18
I00
sg19
(lp2067
(irule
FeatureMatrix
p2068
(dp2069
g28
(lp2070
sg22
Nsba(irule
FeatureMatrix
p2071
(dp2072
g28
(lp2073
(I01
g376
tp2074
asg22
Nsbasg21
I00
sg22
Nsg23
I00
sg24
S'L'
sbsg25
(irule
OffsetSpecification
p2075
(dp2076
g174
I-2
sbsg31
(irule
Guard
p2077
(dp2078
g18
I00
sg19
(lp2079
sg21
I00
sg22
Nsg23
I00
sg24
S'R'
sbsg35
(irule
FeatureMatrix
p2080
(dp2081
g28
(lp2082
(I01
g508
tp2083
a(I00
g699
tp2084
asg22
Nsbsg22
Nsba(irule
Rule
p2085
(dp2086
g15
(irule
Guard
p2087
(dp2088
g18
I00
sg19
(lp2089
(irule
FeatureMatrix
p2090
(dp2091
g28
(lp2092
(I00
g1638
tp2093
asg22
Nsba(irule
FeatureMatrix
p2094
(dp2095
g28
(lp2096
(I00
g356
tp2097
asg22
Nsbasg21
I00
sg22
Nsg23
I00
sg24
S'L'
sbsg25
(irule
OffsetSpecification
p2098
(dp2099
g174
I-2
sbsg31
(irule
Guard
p2100
(dp2101
g18
I00
sg19
(lp2102
sg21
I00
sg22
Nsg23
I00
sg24
S'R'
sbsg35
(irule
ConstantPhoneme
p2103
(dp2104
S'p'
V\u0259
sbsg22
Nsba(irule
Rule
p2105
(dp2106
g15
(irule
Guard
p2107
(dp2108
g18
I00
sg19
(lp2109
(irule
FeatureMatrix
p2110
(dp2111
g28
(lp2112
(I00
g443
tp2113
asg22
Nsba(irule
ConstantPhoneme
p2114
(dp2115
S'p'
Va
sbasg21
I00
sg22
Nsg23
I00
sg24
S'L'
sbsg25
(irule
OffsetSpecification
p2116
(dp2117
g174
I-2
sbsg31
(irule
Guard
p2118
(dp2119
g18
I01
sg19
(lp2120
sg21
I00
sg22
Nsg23
I00
sg24
S'R'
sbsg35
(irule
FeatureMatrix
p2121
(dp2122
g28
(lp2123
sg22
Nsbsg22
Nsba(irule
Rule
p2124
(dp2125
g15
(irule
Guard
p2126
(dp2127
g18
I00
sg19
(lp2128
(irule
FeatureMatrix
p2129
(dp2130
g28
(lp2131
sg22
Nsba(irule
FeatureMatrix
p2132
(dp2133
g28
(lp2134
(I01
g376
tp2135
asg22
Nsbasg21
I00
sg22
Nsg23
I00
sg24
S'L'
sbsg25
(irule
OffsetSpecification
p2136
(dp2137
g174
I-2
sbsg31
(irule
Guard
p2138
(dp2139
g18
I00
sg19
(lp2140
sg21
I00
sg22
Nsg23
I00
sg24
S'R'
sbsg35
(irule
FeatureMatrix
p2141
(dp2142
g28
(lp2143
(I01
g755
tp2144
a(I00
g356
tp2145
asg22
Nsbsg22
Nsba(irule
Rule
p2146
(dp2147
g15
(irule
Guard
p2148
(dp2149
g18
I00
sg19
(lp2150
(irule
FeatureMatrix
p2151
(dp2152
g28
(lp2153
sg22
Nsba(irule
FeatureMatrix
p2154
(dp2155
g28
(lp2156
(I01
g755
tp2157
a(I00
g356
tp2158
asg22
Nsbasg21
I00
sg22
Nsg23
I00
sg24
S'L'
sbsg25
(irule
OffsetSpecification
p2159
(dp2160
g174
I-2
sbsg31
(irule
Guard
p2161
(dp2162
g18
I00
sg19
(lp2163
sg21
I00
sg22
Nsg23
I00
sg24
S'R'
sbsg35
(irule
ConstantPhoneme
p2164
(dp2165
S'p'
V\u0259
sbsg22
Nsba(irule
Rule
p2166
(dp2167
g15
(irule
Guard
p2168
(dp2169
g18
I00
sg19
(lp2170
(irule
FeatureMatrix
p2171
(dp2172
g28
(lp2173
sg22
Nsba(irule
FeatureMatrix
p2174
(dp2175
g28
(lp2176
(I01
g376
tp2177
a(I01
g443
tp2178
asg22
Nsbasg21
I00
sg22
Nsg23
I00
sg24
S'L'
sbsg25
(irule
OffsetSpecification
p2179
(dp2180
g174
I-2
sbsg31
(irule
Guard
p2181
(dp2182
g18
I01
sg19
(lp2183
sg21
I00
sg22
Nsg23
I00
sg24
S'R'
sbsg35
(irule
FeatureMatrix
p2184
(dp2185
g28
(lp2186
sg22
Nsbsg22
Nsba(irule
Rule
p2187
(dp2188
g15
(irule
Guard
p2189
(dp2190
g18
I00
sg19
(lp2191
(irule
FeatureMatrix
p2192
(dp2193
g28
(lp2194
sg22
Nsba(irule
FeatureMatrix
p2195
(dp2196
g28
(lp2197
(I01
g376
tp2198
asg22
Nsbasg21
I00
sg22
Nsg23
I00
sg24
S'L'
sbsg25
(irule
OffsetSpecification
p2199
(dp2200
g174
I-2
sbsg31
(irule
Guard
p2201
(dp2202
g18
I00
sg19
(lp2203
sg21
I00
sg22
Nsg23
I00
sg24
S'R'
sbsg35
(irule
FeatureMatrix
p2204
(dp2205
g28
(lp2206
(I00
g356
tp2207
a(I00
g699
tp2208
asg22
Nsbsg22
Nsba(irule
Rule
p2209
(dp2210
g15
(irule
Guard
p2211
(dp2212
g18
I00
sg19
(lp2213
(irule
FeatureMatrix
p2214
(dp2215
g28
(lp2216
sg22
Nsba(irule
FeatureMatrix
p2217
(dp2218
g28
(lp2219
(I00
g356
tp2220
asg22
Nsbasg21
I00
sg22
Nsg23
I00
sg24
S'L'
sbsg25
(irule
OffsetSpecification
p2221
(dp2222
g174
I-2
sbsg31
(irule
Guard
p2223
(dp2224
g18
I00
sg19
(lp2225
sg21
I00
sg22
Nsg23
I00
sg24
S'R'
sbsg35
(irule
FeatureMatrix
p2226
(dp2227
g28
(lp2228
(I00
g674
tp2229
a(I01
g486
tp2230
asg22
Nsbsg22
Nsba(irule
Rule
p2231
(dp2232
g15
(irule
Guard
p2233
(dp2234
g18
I00
sg19
(lp2235
(irule
FeatureMatrix
p2236
(dp2237
g28
(lp2238
sg22
Nsba(irule
FeatureMatrix
p2239
(dp2240
g28
(lp2241
(I00
g356
tp2242
a(I01
g376
tp2243
asg22
Nsbasg21
I00
sg22
Nsg23
I00
sg24
S'L'
sbsg25
(irule
OffsetSpecification
p2244
(dp2245
g174
I-2
sbsg31
(irule
Guard
p2246
(dp2247
g18
I01
sg19
(lp2248
sg21
I00
sg22
Nsg23
I00
sg24
S'R'
sbsg35
(irule
FeatureMatrix
p2249
(dp2250
g28
(lp2251
sg22
Nsbsg22
Nsba(irule
Rule
p2252
(dp2253
g15
(irule
Guard
p2254
(dp2255
g18
I00
sg19
(lp2256
(irule
FeatureMatrix
p2257
(dp2258
g28
(lp2259
sg22
Nsba(irule
FeatureMatrix
p2260
(dp2261
g28
(lp2262
(I01
g376
tp2263
asg22
Nsbasg21
I00
sg22
Nsg23
I00
sg24
S'L'
sbsg25
(irule
OffsetSpecification
p2264
(dp2265
g174
I-2
sbsg31
(irule
Guard
p2266
(dp2267
g18
I00
sg19
(lp2268
sg21
I00
sg22
Nsg23
I00
sg24
S'R'
sbsg35
(irule
FeatureMatrix
p2269
(dp2270
g28
(lp2271
(I00
g1517
tp2272
a(I01
g443
tp2273
asg22
Nsbsg22
Nsba(irule
Rule
p2274
(dp2275
g15
(irule
Guard
p2276
(dp2277
g18
I00
sg19
(lp2278
(irule
FeatureMatrix
p2279
(dp2280
g28
(lp2281
(I00
g1517
tp2282
asg22
Nsba(irule
FeatureMatrix
p2283
(dp2284
g28
(lp2285
(I01
g376
tp2286
asg22
Nsbasg21
I00
sg22
Nsg23
I00
sg24
S'L'
sbsg25
(irule
OffsetSpecification
p2287
(dp2288
g174
I-2
sbsg31
(irule
Guard
p2289
(dp2290
g18
I00
sg19
(lp2291
sg21
I00
sg22
Nsg23
I00
sg24
S'R'
sbsg35
(irule
ConstantPhoneme
p2292
(dp2293
S'p'
V\u0259
sbsg22
Nsba(irule
Rule
p2294
(dp2295
g15
(irule
Guard
p2296
(dp2297
g18
I00
sg19
(lp2298
(irule
FeatureMatrix
p2299
(dp2300
g28
(lp2301
sg22
Nsba(irule
FeatureMatrix
p2302
(dp2303
g28
(lp2304
(I01
g376
tp2305
asg22
Nsbasg21
I00
sg22
Nsg23
I00
sg24
S'L'
sbsg25
(irule
OffsetSpecification
p2306
(dp2307
g174
I-2
sbsg31
(irule
Guard
p2308
(dp2309
g18
I00
sg19
(lp2310
sg21
I00
sg22
Nsg23
I00
sg24
S'R'
sbsg35
(irule
FeatureMatrix
p2311
(dp2312
g28
(lp2313
(I00
g1088
tp2314
a(I01
g443
tp2315
asg22
Nsbsg22
Nsba(irule
Rule
p2316
(dp2317
g15
(irule
Guard
p2318
(dp2319
g18
I00
sg19
(lp2320
(irule
FeatureMatrix
p2321
(dp2322
g28
(lp2323
sg22
Nsba(irule
FeatureMatrix
p2324
(dp2325
g28
(lp2326
(I01
g376
tp2327
asg22
Nsbasg21
I00
sg22
Nsg23
I00
sg24
S'L'
sbsg25
(irule
OffsetSpecification
p2328
(dp2329
g174
I-2
sbsg31
(irule
Guard
p2330
(dp2331
g18
I00
sg19
(lp2332
sg21
I00
sg22
Nsg23
I00
sg24
S'R'
sbsg35
(irule
FeatureMatrix
p2333
(dp2334
g28
(lp2335
(I00
g1088
tp2336
a(I00
g356
tp2337
asg22
Nsbsg22
Nsba(irule
Rule
p2338
(dp2339
g15
(irule
Guard
p2340
(dp2341
g18
I00
sg19
(lp2342
(irule
FeatureMatrix
p2343
(dp2344
g28
(lp2345
sg22
Nsba(irule
FeatureMatrix
p2346
(dp2347
g28
(lp2348
(I01
g376
tp2349
asg22
Nsbasg21
I00
sg22
Nsg23
I00
sg24
S'L'
sbsg25
(irule
OffsetSpecification
p2350
(dp2351
g174
I-2
sbsg31
(irule
Guard
p2352
(dp2353
g18
I01
sg19
(lp2354
sg21
I00
sg22
Nsg23
I00
sg24
S'R'
sbsg35
(irule
ConstantPhoneme
p2355
(dp2356
S'p'
V\u0259
sbsg22
Nsba(irule
Rule
p2357
(dp2358
g15
(irule
Guard
p2359
(dp2360
g18
I00
sg19
(lp2361
(irule
FeatureMatrix
p2362
(dp2363
g28
(lp2364
sg22
Nsba(irule
FeatureMatrix
p2365
(dp2366
g28
(lp2367
(I00
g1088
tp2368
a(I01
g376
tp2369
asg22
Nsbasg21
I00
sg22
Nsg23
I00
sg24
S'L'
sbsg25
(irule
OffsetSpecification
p2370
(dp2371
g174
I-2
sbsg31
(irule
Guard
p2372
(dp2373
g18
I01
sg19
(lp2374
sg21
I00
sg22
Nsg23
I00
sg24
S'R'
sbsg35
(irule
FeatureMatrix
p2375
(dp2376
g28
(lp2377
sg22
Nsbsg22
Nsbaa(lp2378
(irule
Rule
p2379
(dp2380
g15
(irule
Guard
p2381
(dp2382
g18
I00
sg19
(lp2383
sg21
I00
sg22
V
sg23
I00
sg24
S'L'
sbsg25
(irule
FeatureMatrix
p2384
(dp2385
g28
(lp2386
(I00
S'aspirated'
tp2387
asg22
V[ -aspirated ]
p2388
sbsg31
(irule
Guard
p2389
(dp2390
g18
I00
sg19
(lp2391
(irule
ConstantPhoneme
p2392
(dp2393
S'p'
Vk
sbasg21
I00
sg22
Vk
sg23
I00
sg24
S'R'
sbsg35
(irule
FeatureMatrix
p2394
(dp2395
g28
(lp2396
sg22
V[  ]
p2397
sbsg22
V[  ] ---> [ -aspirated ] /  _ k
p2398
sba(irule
Rule
p2399
(dp2400
g15
(irule
Guard
p2401
(dp2402
g18
I00
sg19
(lp2403
sg21
I00
sg22
Nsg23
I00
sg24
S'L'
sbsg25
(irule
FeatureMatrix
p2404
(dp2405
g28
(lp2406
(I00
S'aspirated'
p2407
tp2408
asg22
Nsbsg31
(irule
Guard
p2409
(dp2410
g18
I00
sg19
(lp2411
(irule
FeatureMatrix
p2412
(dp2413
g28
(lp2414
(I00
S'continuant'
p2415
tp2416
asg22
Nsbasg21
I00
sg22
Nsg23
I00
sg24
S'R'
sbsg35
(irule
FeatureMatrix
p2417
(dp2418
g28
(lp2419
sg22
Nsbsg22
Nsba(irule
Rule
p2420
(dp2421
g15
(irule
Guard
p2422
(dp2423
g18
I00
sg19
(lp2424
sg21
I00
sg22
Nsg23
I00
sg24
S'L'
sbsg25
(irule
FeatureMatrix
p2425
(dp2426
g28
(lp2427
(I00
g2407
tp2428
asg22
Nsbsg31
(irule
Guard
p2429
(dp2430
g18
I00
sg19
(lp2431
(irule
FeatureMatrix
p2432
(dp2433
g28
(lp2434
(I01
S'high'
p2435
tp2436
asg22
Nsbasg21
I00
sg22
Nsg23
I00
sg24
S'R'
sbsg35
(irule
FeatureMatrix
p2437
(dp2438
g28
(lp2439
sg22
Nsbsg22
Nsba(irule
Rule
p2440
(dp2441
g15
(irule
Guard
p2442
(dp2443
g18
I00
sg19
(lp2444
sg21
I00
sg22
Nsg23
I00
sg24
S'L'
sbsg25
(irule
FeatureMatrix
p2445
(dp2446
g28
(lp2447
(I00
g2407
tp2448
asg22
Nsbsg31
(irule
Guard
p2449
(dp2450
g18
I00
sg19
(lp2451
(irule
FeatureMatrix
p2452
(dp2453
g28
(lp2454
(I00
S'sonorant'
p2455
tp2456
asg22
Nsbasg21
I00
sg22
Nsg23
I00
sg24
S'R'
sbsg35
(irule
FeatureMatrix
p2457
(dp2458
g28
(lp2459
sg22
Nsbsg22
Nsba(irule
Rule
p2460
(dp2461
g15
(irule
Guard
p2462
(dp2463
g18
I00
sg19
(lp2464
sg21
I00
sg22
Nsg23
I00
sg24
S'L'
sbsg25
(irule
FeatureMatrix
p2465
(dp2466
g28
(lp2467
(I00
g2407
tp2468
asg22
Nsbsg31
(irule
Guard
p2469
(dp2470
g18
I00
sg19
(lp2471
(irule
FeatureMatrix
p2472
(dp2473
g28
(lp2474
(I00
S'vowel'
p2475
tp2476
asg22
Nsbasg21
I00
sg22
Nsg23
I00
sg24
S'R'
sbsg35
(irule
FeatureMatrix
p2477
(dp2478
g28
(lp2479
sg22
Nsbsg22
Nsba(irule
Rule
p2480
(dp2481
g15
(irule
Guard
p2482
(dp2483
g18
I00
sg19
(lp2484
sg21
I00
sg22
Nsg23
I00
sg24
S'L'
sbsg25
(irule
FeatureMatrix
p2485
(dp2486
g28
(lp2487
(I00
g2407
tp2488
asg22
Nsbsg31
(irule
Guard
p2489
(dp2490
g18
I00
sg19
(lp2491
(irule
FeatureMatrix
p2492
(dp2493
g28
(lp2494
(I00
S'voice'
p2495
tp2496
asg22
Nsbasg21
I00
sg22
Nsg23
I00
sg24
S'R'
sbsg35
(irule
FeatureMatrix
p2497
(dp2498
g28
(lp2499
sg22
Nsbsg22
Nsba(irule
Rule
p2500
(dp2501
g15
(irule
Guard
p2502
(dp2503
g18
I00
sg19
(lp2504
sg21
I00
sg22
Nsg23
I00
sg24
S'L'
sbsg25
(irule
FeatureMatrix
p2505
(dp2506
g28
(lp2507
(I00
g2407
tp2508
asg22
Nsbsg31
(irule
Guard
p2509
(dp2510
g18
I00
sg19
(lp2511
(irule
FeatureMatrix
p2512
(dp2513
g28
(lp2514
sg22
Nsba(irule
FeatureMatrix
p2515
(dp2516
g28
(lp2517
sg22
Nsbasg21
I00
sg22
Nsg23
I00
sg24
S'R'
sbsg35
(irule
FeatureMatrix
p2518
(dp2519
g28
(lp2520
sg22
Nsbsg22
Nsba(irule
Rule
p2521
(dp2522
g15
(irule
Guard
p2523
(dp2524
g18
I00
sg19
(lp2525
(irule
FeatureMatrix
p2526
(dp2527
g28
(lp2528
sg22
Nsbasg21
I00
sg22
Nsg23
I00
sg24
S'L'
sbsg25
(irule
FeatureMatrix
p2529
(dp2530
g28
(lp2531
(I00
g2407
tp2532
asg22
Nsbsg31
(irule
Guard
p2533
(dp2534
g18
I00
sg19
(lp2535
(irule
FeatureMatrix
p2536
(dp2537
g28
(lp2538
sg22
Nsba(irule
FeatureMatrix
p2539
(dp2540
g28
(lp2541
sg22
Nsbasg21
I00
sg22
Nsg23
I00
sg24
S'R'
sbsg35
(irule
FeatureMatrix
p2542
(dp2543
g28
(lp2544
sg22
Nsbsg22
Nsba(irule
Rule
p2545
(dp2546
g15
(irule
Guard
p2547
(dp2548
g18
I00
sg19
(lp2549
(irule
FeatureMatrix
p2550
(dp2551
g28
(lp2552
sg22
Nsbasg21
I00
sg22
Nsg23
I00
sg24
S'L'
sbsg25
(irule
FeatureMatrix
p2553
(dp2554
g28
(lp2555
(I00
g2407
tp2556
asg22
Nsbsg31
(irule
Guard
p2557
(dp2558
g18
I00
sg19
(lp2559
(irule
FeatureMatrix
p2560
(dp2561
g28
(lp2562
(I00
g2455
tp2563
asg22
Nsbasg21
I00
sg22
Nsg23
I00
sg24
S'R'
sbsg35
(irule
FeatureMatrix
p2564
(dp2565
g28
(lp2566
sg22
Nsbsg22
Nsba(irule
Rule
p2567
(dp2568
g15
(irule
Guard
p2569
(dp2570
g18
I00
sg19
(lp2571
(irule
FeatureMatrix
p2572
(dp2573
g28
(lp2574
sg22
Nsbasg21
I00
sg22
Nsg23
I00
sg24
S'L'
sbsg25
(irule
FeatureMatrix
p2575
(dp2576
g28
(lp2577
(I00
g2407
tp2578
asg22
Nsbsg31
(irule
Guard
p2579
(dp2580
g18
I00
sg19
(lp2581
(irule
FeatureMatrix
p2582
(dp2583
g28
(lp2584
(I00
g2495
tp2585
asg22
Nsbasg21
I00
sg22
Nsg23
I00
sg24
S'R'
sbsg35
(irule
FeatureMatrix
p2586
(dp2587
g28
(lp2588
sg22
Nsbsg22
Nsba(irule
Rule
p2589
(dp2590
g15
(irule
Guard
p2591
(dp2592
g18
I00
sg19
(lp2593
(irule
FeatureMatrix
p2594
(dp2595
g28
(lp2596
sg22
Nsbasg21
I00
sg22
Nsg23
I00
sg24
S'L'
sbsg25
(irule
FeatureMatrix
p2597
(dp2598
g28
(lp2599
(I00
g2407
tp2600
asg22
Nsbsg31
(irule
Guard
p2601
(dp2602
g18
I00
sg19
(lp2603
(irule
FeatureMatrix
p2604
(dp2605
g28
(lp2606
(I01
g2435
tp2607
asg22
Nsbasg21
I00
sg22
Nsg23
I00
sg24
S'R'
sbsg35
(irule
FeatureMatrix
p2608
(dp2609
g28
(lp2610
sg22
Nsbsg22
Nsba(irule
Rule
p2611
(dp2612
g15
(irule
Guard
p2613
(dp2614
g18
I00
sg19
(lp2615
sg21
I00
sg22
Nsg23
I00
sg24
S'L'
sbsg25
(irule
FeatureMatrix
p2616
(dp2617
g28
(lp2618
(I00
g2407
tp2619
a(I00
S'sibilant'
p2620
tp2621
asg22
Nsbsg31
(irule
Guard
p2622
(dp2623
g18
I00
sg19
(lp2624
(irule
ConstantPhoneme
p2625
(dp2626
S'p'
Vk
sbasg21
I00
sg22
Nsg23
I00
sg24
S'R'
sbsg35
(irule
FeatureMatrix
p2627
(dp2628
g28
(lp2629
sg22
Nsbsg22
Nsba(irule
Rule
p2630
(dp2631
g15
(irule
Guard
p2632
(dp2633
g18
I00
sg19
(lp2634
(irule
FeatureMatrix
p2635
(dp2636
g28
(lp2637
sg22
Nsbasg21
I00
sg22
Nsg23
I00
sg24
S'L'
sbsg25
(irule
FeatureMatrix
p2638
(dp2639
g28
(lp2640
(I00
g2407
tp2641
asg22
Nsbsg31
(irule
Guard
p2642
(dp2643
g18
I00
sg19
(lp2644
(irule
FeatureMatrix
p2645
(dp2646
g28
(lp2647
(I00
g2415
tp2648
asg22
Nsbasg21
I00
sg22
Nsg23
I00
sg24
S'R'
sbsg35
(irule
FeatureMatrix
p2649
(dp2650
g28
(lp2651
sg22
Nsbsg22
Nsba(irule
Rule
p2652
(dp2653
g15
(irule
Guard
p2654
(dp2655
g18
I00
sg19
(lp2656
sg21
I00
sg22
Nsg23
I00
sg24
S'L'
sbsg25
(irule
FeatureMatrix
p2657
(dp2658
g28
(lp2659
(I00
g2407
tp2660
asg22
Nsbsg31
(irule
Guard
p2661
(dp2662
g18
I00
sg19
(lp2663
(irule
FeatureMatrix
p2664
(dp2665
g28
(lp2666
sg22
Nsba(irule
FeatureMatrix
p2667
(dp2668
g28
(lp2669
(I00
g2407
tp2670
asg22
Nsbasg21
I00
sg22
Nsg23
I00
sg24
S'R'
sbsg35
(irule
FeatureMatrix
p2671
(dp2672
g28
(lp2673
sg22
Nsbsg22
Nsba(irule
Rule
p2674
(dp2675
g15
(irule
Guard
p2676
(dp2677
g18
I00
sg19
(lp2678
sg21
I00
sg22
Nsg23
I00
sg24
S'L'
sbsg25
(irule
FeatureMatrix
p2679
(dp2680
g28
(lp2681
(I00
S'palatal'
p2682
tp2683
a(I00
g2407
tp2684
asg22
Nsbsg31
(irule
Guard
p2685
(dp2686
g18
I00
sg19
(lp2687
(irule
ConstantPhoneme
p2688
(dp2689
S'p'
Vk
sbasg21
I00
sg22
Nsg23
I00
sg24
S'R'
sbsg35
(irule
FeatureMatrix
p2690
(dp2691
g28
(lp2692
sg22
Nsbsg22
Nsba(irule
Rule
p2693
(dp2694
g15
(irule
Guard
p2695
(dp2696
g18
I00
sg19
(lp2697
(irule
FeatureMatrix
p2698
(dp2699
g28
(lp2700
sg22
Nsbasg21
I00
sg22
Nsg23
I00
sg24
S'L'
sbsg25
(irule
FeatureMatrix
p2701
(dp2702
g28
(lp2703
(I00
g2407
tp2704
asg22
Nsbsg31
(irule
Guard
p2705
(dp2706
g18
I00
sg19
(lp2707
(irule
FeatureMatrix
p2708
(dp2709
g28
(lp2710
(I00
g2475
tp2711
asg22
Nsbasg21
I00
sg22
Nsg23
I00
sg24
S'R'
sbsg35
(irule
FeatureMatrix
p2712
(dp2713
g28
(lp2714
sg22
Nsbsg22
Nsba(irule
Rule
p2715
(dp2716
g15
(irule
Guard
p2717
(dp2718
g18
I00
sg19
(lp2719
(irule
FeatureMatrix
p2720
(dp2721
g28
(lp2722
sg22
Nsbasg21
I00
sg22
Nsg23
I00
sg24
S'L'
sbsg25
(irule
FeatureMatrix
p2723
(dp2724
g28
(lp2725
(I00
g2407
tp2726
asg22
Nsbsg31
(irule
Guard
p2727
(dp2728
g18
I00
sg19
(lp2729
(irule
ConstantPhoneme
p2730
(dp2731
S'p'
Vk
sbasg21
I00
sg22
Nsg23
I00
sg24
S'R'
sbsg35
(irule
FeatureMatrix
p2732
(dp2733
g28
(lp2734
sg22
Nsbsg22
Nsba(irule
Rule
p2735
(dp2736
g15
(irule
Guard
p2737
(dp2738
g18
I00
sg19
(lp2739
sg21
I00
sg22
Nsg23
I00
sg24
S'L'
sbsg25
(irule
FeatureMatrix
p2740
(dp2741
g28
(lp2742
(I00
g2407
tp2743
asg22
Nsbsg31
(irule
Guard
p2744
(dp2745
g18
I01
sg19
(lp2746
(irule
FeatureMatrix
p2747
(dp2748
g28
(lp2749
sg22
Nsba(irule
FeatureMatrix
p2750
(dp2751
g28
(lp2752
sg22
Nsbasg21
I00
sg22
Nsg23
I00
sg24
S'R'
sbsg35
(irule
FeatureMatrix
p2753
(dp2754
g28
(lp2755
sg22
Nsbsg22
Nsba(irule
Rule
p2756
(dp2757
g15
(irule
Guard
p2758
(dp2759
g18
I00
sg19
(lp2760
sg21
I00
sg22
Nsg23
I00
sg24
S'L'
sbsg25
(irule
FeatureMatrix
p2761
(dp2762
g28
(lp2763
(I00
g2407
tp2764
asg22
Nsbsg31
(irule
Guard
p2765
(dp2766
g18
I00
sg19
(lp2767
(irule
FeatureMatrix
p2768
(dp2769
g28
(lp2770
sg22
Nsba(irule
FeatureMatrix
p2771
(dp2772
g28
(lp2773
sg22
Nsbasg21
I00
sg22
Nsg23
I00
sg24
S'R'
sbsg35
(irule
FeatureMatrix
p2774
(dp2775
g28
(lp2776
(I00
g2620
tp2777
asg22
Nsbsg22
Nsba(irule
Rule
p2778
(dp2779
g15
(irule
Guard
p2780
(dp2781
g18
I00
sg19
(lp2782
sg21
I00
sg22
Nsg23
I00
sg24
S'L'
sbsg25
(irule
FeatureMatrix
p2783
(dp2784
g28
(lp2785
(I00
g2407
tp2786
asg22
Nsbsg31
(irule
Guard
p2787
(dp2788
g18
I00
sg19
(lp2789
(irule
FeatureMatrix
p2790
(dp2791
g28
(lp2792
(I00
g2415
tp2793
asg22
Nsbasg21
I00
sg22
Nsg23
I00
sg24
S'R'
sbsg35
(irule
FeatureMatrix
p2794
(dp2795
g28
(lp2796
(I00
S'low'
p2797
tp2798
asg22
Nsbsg22
Nsba(irule
Rule
p2799
(dp2800
g15
(irule
Guard
p2801
(dp2802
g18
I00
sg19
(lp2803
sg21
I00
sg22
Nsg23
I00
sg24
S'L'
sbsg25
(irule
FeatureMatrix
p2804
(dp2805
g28
(lp2806
(I00
S'nasal'
p2807
tp2808
a(I00
g2407
tp2809
asg22
Nsbsg31
(irule
Guard
p2810
(dp2811
g18
I00
sg19
(lp2812
(irule
ConstantPhoneme
p2813
(dp2814
S'p'
Vk
sbasg21
I00
sg22
Nsg23
I00
sg24
S'R'
sbsg35
(irule
FeatureMatrix
p2815
(dp2816
g28
(lp2817
sg22
Nsbsg22
Nsba(irule
Rule
p2818
(dp2819
g15
(irule
Guard
p2820
(dp2821
g18
I00
sg19
(lp2822
sg21
I00
sg22
Nsg23
I00
sg24
S'L'
sbsg25
(irule
FeatureMatrix
p2823
(dp2824
g28
(lp2825
(I00
g2407
tp2826
asg22
Nsbsg31
(irule
Guard
p2827
(dp2828
g18
I00
sg19
(lp2829
(irule
FeatureMatrix
p2830
(dp2831
g28
(lp2832
sg22
Nsba(irule
FeatureMatrix
p2833
(dp2834
g28
(lp2835
(I00
g2620
tp2836
asg22
Nsbasg21
I00
sg22
Nsg23
I00
sg24
S'R'
sbsg35
(irule
FeatureMatrix
p2837
(dp2838
g28
(lp2839
sg22
Nsbsg22
Nsba(irule
Rule
p2840
(dp2841
g15
(irule
Guard
p2842
(dp2843
g18
I00
sg19
(lp2844
sg21
I00
sg22
Nsg23
I00
sg24
S'L'
sbsg25
(irule
FeatureMatrix
p2845
(dp2846
g28
(lp2847
(I00
g2407
tp2848
asg22
Nsbsg31
(irule
Guard
p2849
(dp2850
g18
I00
sg19
(lp2851
(irule
FeatureMatrix
p2852
(dp2853
g28
(lp2854
(I01
g2435
tp2855
asg22
Nsbasg21
I00
sg22
Nsg23
I00
sg24
S'R'
sbsg35
(irule
FeatureMatrix
p2856
(dp2857
g28
(lp2858
(I00
S'tense'
p2859
tp2860
asg22
Nsbsg22
Nsba(irule
Rule
p2861
(dp2862
g15
(irule
Guard
p2863
(dp2864
g18
I00
sg19
(lp2865
sg21
I00
sg22
Nsg23
I00
sg24
S'L'
sbsg25
(irule
FeatureMatrix
p2866
(dp2867
g28
(lp2868
(I00
g2407
tp2869
asg22
Nsbsg31
(irule
Guard
p2870
(dp2871
g18
I00
sg19
(lp2872
(irule
FeatureMatrix
p2873
(dp2874
g28
(lp2875
(I00
g2415
tp2876
a(I00
g2495
tp2877
asg22
Nsbasg21
I00
sg22
Nsg23
I00
sg24
S'R'
sbsg35
(irule
FeatureMatrix
p2878
(dp2879
g28
(lp2880
sg22
Nsbsg22
Nsba(irule
Rule
p2881
(dp2882
g15
(irule
Guard
p2883
(dp2884
g18
I00
sg19
(lp2885
sg21
I00
sg22
Nsg23
I00
sg24
S'L'
sbsg25
(irule
FeatureMatrix
p2886
(dp2887
g28
(lp2888
(I00
g2407
tp2889
a(I00
g2620
tp2890
asg22
Nsbsg31
(irule
Guard
p2891
(dp2892
g18
I00
sg19
(lp2893
(irule
FeatureMatrix
p2894
(dp2895
g28
(lp2896
(I00
g2415
tp2897
asg22
Nsbasg21
I00
sg22
Nsg23
I00
sg24
S'R'
sbsg35
(irule
FeatureMatrix
p2898
(dp2899
g28
(lp2900
sg22
Nsbsg22
Nsba(irule
Rule
p2901
(dp2902
g15
(irule
Guard
p2903
(dp2904
g18
I00
sg19
(lp2905
sg21
I00
sg22
Nsg23
I00
sg24
S'L'
sbsg25
(irule
FeatureMatrix
p2906
(dp2907
g28
(lp2908
(I00
g2807
tp2909
a(I00
g2407
tp2910
asg22
Nsbsg31
(irule
Guard
p2911
(dp2912
g18
I00
sg19
(lp2913
(irule
FeatureMatrix
p2914
(dp2915
g28
(lp2916
(I00
g2475
tp2917
asg22
Nsbasg21
I00
sg22
Nsg23
I00
sg24
S'R'
sbsg35
(irule
FeatureMatrix
p2918
(dp2919
g28
(lp2920
sg22
Nsbsg22
Nsba(irule
Rule
p2921
(dp2922
g15
(irule
Guard
p2923
(dp2924
g18
I00
sg19
(lp2925
sg21
I00
sg22
Nsg23
I00
sg24
S'L'
sbsg25
(irule
FeatureMatrix
p2926
(dp2927
g28
(lp2928
(I00
g2807
tp2929
a(I00
g2407
tp2930
asg22
Nsbsg31
(irule
Guard
p2931
(dp2932
g18
I00
sg19
(lp2933
(irule
FeatureMatrix
p2934
(dp2935
g28
(lp2936
(I00
g2415
tp2937
asg22
Nsbasg21
I00
sg22
Nsg23
I00
sg24
S'R'
sbsg35
(irule
FeatureMatrix
p2938
(dp2939
g28
(lp2940
sg22
Nsbsg22
Nsba(irule
Rule
p2941
(dp2942
g15
(irule
Guard
p2943
(dp2944
g18
I00
sg19
(lp2945
sg21
I00
sg22
Nsg23
I00
sg24
S'L'
sbsg25
(irule
FeatureMatrix
p2946
(dp2947
g28
(lp2948
(I00
g2407
tp2949
asg22
Nsbsg31
(irule
Guard
p2950
(dp2951
g18
I00
sg19
(lp2952
(irule
FeatureMatrix
p2953
(dp2954
g28
(lp2955
(I00
g2415
tp2956
asg22
Nsbasg21
I00
sg22
Nsg23
I00
sg24
S'R'
sbsg35
(irule
FeatureMatrix
p2957
(dp2958
g28
(lp2959
(I01
S'anterior'
p2960
tp2961
asg22
Nsbsg22
Nsba(irule
Rule
p2962
(dp2963
g15
(irule
Guard
p2964
(dp2965
g18
I00
sg19
(lp2966
sg21
I00
sg22
Nsg23
I00
sg24
S'L'
sbsg25
(irule
FeatureMatrix
p2967
(dp2968
g28
(lp2969
(I00
g2407
tp2970
asg22
Nsbsg31
(irule
Guard
p2971
(dp2972
g18
I00
sg19
(lp2973
(irule
FeatureMatrix
p2974
(dp2975
g28
(lp2976
sg22
Nsba(irule
FeatureMatrix
p2977
(dp2978
g28
(lp2979
(I01
g2495
tp2980
asg22
Nsbasg21
I00
sg22
Nsg23
I00
sg24
S'R'
sbsg35
(irule
FeatureMatrix
p2981
(dp2982
g28
(lp2983
sg22
Nsbsg22
Nsba(irule
Rule
p2984
(dp2985
g15
(irule
Guard
p2986
(dp2987
g18
I00
sg19
(lp2988
sg21
I00
sg22
Nsg23
I00
sg24
S'L'
sbsg25
(irule
FeatureMatrix
p2989
(dp2990
g28
(lp2991
(I00
g2407
tp2992
asg22
Nsbsg31
(irule
Guard
p2993
(dp2994
g18
I00
sg19
(lp2995
(irule
FeatureMatrix
p2996
(dp2997
g28
(lp2998
(I00
g2415
tp2999
asg22
Nsbasg21
I00
sg22
Nsg23
I00
sg24
S'R'
sbsg35
(irule
FeatureMatrix
p3000
(dp3001
g28
(lp3002
(I00
g2495
tp3003
asg22
Nsbsg22
Nsba(irule
Rule
p3004
(dp3005
g15
(irule
Guard
p3006
(dp3007
g18
I00
sg19
(lp3008
sg21
I00
sg22
Nsg23
I00
sg24
S'L'
sbsg25
(irule
FeatureMatrix
p3009
(dp3010
g28
(lp3011
(I00
g2407
tp3012
asg22
Nsbsg31
(irule
Guard
p3013
(dp3014
g18
I00
sg19
(lp3015
(irule
FeatureMatrix
p3016
(dp3017
g28
(lp3018
(I01
g2435
tp3019
a(I00
g2475
tp3020
asg22
Nsbasg21
I00
sg22
Nsg23
I00
sg24
S'R'
sbsg35
(irule
FeatureMatrix
p3021
(dp3022
g28
(lp3023
sg22
Nsbsg22
Nsba(irule
Rule
p3024
(dp3025
g15
(irule
Guard
p3026
(dp3027
g18
I00
sg19
(lp3028
sg21
I00
sg22
Nsg23
I00
sg24
S'L'
sbsg25
(irule
FeatureMatrix
p3029
(dp3030
g28
(lp3031
(I00
g2682
tp3032
a(I00
g2407
tp3033
asg22
Nsbsg31
(irule
Guard
p3034
(dp3035
g18
I00
sg19
(lp3036
(irule
FeatureMatrix
p3037
(dp3038
g28
(lp3039
(I00
g2415
tp3040
asg22
Nsbasg21
I00
sg22
Nsg23
I00
sg24
S'R'
sbsg35
(irule
FeatureMatrix
p3041
(dp3042
g28
(lp3043
sg22
Nsbsg22
Nsba(irule
Rule
p3044
(dp3045
g15
(irule
Guard
p3046
(dp3047
g18
I00
sg19
(lp3048
sg21
I00
sg22
Nsg23
I00
sg24
S'L'
sbsg25
(irule
FeatureMatrix
p3049
(dp3050
g28
(lp3051
(I00
g2407
tp3052
asg22
Nsbsg31
(irule
Guard
p3053
(dp3054
g18
I00
sg19
(lp3055
(irule
FeatureMatrix
p3056
(dp3057
g28
(lp3058
sg22
Nsba(irule
FeatureMatrix
p3059
(dp3060
g28
(lp3061
(I00
g2435
tp3062
asg22
Nsbasg21
I00
sg22
Nsg23
I00
sg24
S'R'
sbsg35
(irule
FeatureMatrix
p3063
(dp3064
g28
(lp3065
sg22
Nsbsg22
Nsba(irule
Rule
p3066
(dp3067
g15
(irule
Guard
p3068
(dp3069
g18
I00
sg19
(lp3070
sg21
I00
sg22
Nsg23
I00
sg24
S'L'
sbsg25
(irule
FeatureMatrix
p3071
(dp3072
g28
(lp3073
(I00
g2682
tp3074
a(I00
g2407
tp3075
asg22
Nsbsg31
(irule
Guard
p3076
(dp3077
g18
I00
sg19
(lp3078
(irule
FeatureMatrix
p3079
(dp3080
g28
(lp3081
(I00
g2495
tp3082
asg22
Nsbasg21
I00
sg22
Nsg23
I00
sg24
S'R'
sbsg35
(irule
FeatureMatrix
p3083
(dp3084
g28
(lp3085
sg22
Nsbsg22
Nsba(irule
Rule
p3086
(dp3087
g15
(irule
Guard
p3088
(dp3089
g18
I00
sg19
(lp3090
sg21
I00
sg22
Nsg23
I00
sg24
S'L'
sbsg25
(irule
FeatureMatrix
p3091
(dp3092
g28
(lp3093
(I00
g2407
tp3094
asg22
Nsbsg31
(irule
Guard
p3095
(dp3096
g18
I00
sg19
(lp3097
(irule
FeatureMatrix
p3098
(dp3099
g28
(lp3100
(I01
g2435
tp3101
asg22
Nsbasg21
I00
sg22
Nsg23
I00
sg24
S'R'
sbsg35
(irule
FeatureMatrix
p3102
(dp3103
g28
(lp3104
(I00
g2620
tp3105
asg22
Nsbsg22
Nsba(irule
Rule
p3106
(dp3107
g15
(irule
Guard
p3108
(dp3109
g18
I00
sg19
(lp3110
sg21
I00
sg22
Nsg23
I00
sg24
S'L'
sbsg25
(irule
FeatureMatrix
p3111
(dp3112
g28
(lp3113
(I00
g2407
tp3114
a(I00
g2620
tp3115
asg22
Nsbsg31
(irule
Guard
p3116
(dp3117
g18
I00
sg19
(lp3118
(irule
FeatureMatrix
p3119
(dp3120
g28
(lp3121
(I00
g2455
tp3122
asg22
Nsbasg21
I00
sg22
Nsg23
I00
sg24
S'R'
sbsg35
(irule
FeatureMatrix
p3123
(dp3124
g28
(lp3125
sg22
Nsbsg22
Nsba(irule
Rule
p3126
(dp3127
g15
(irule
Guard
p3128
(dp3129
g18
I00
sg19
(lp3130
sg21
I00
sg22
Nsg23
I00
sg24
S'L'
sbsg25
(irule
FeatureMatrix
p3131
(dp3132
g28
(lp3133
(I00
g2407
tp3134
asg22
Nsbsg31
(irule
Guard
p3135
(dp3136
g18
I00
sg19
(lp3137
(irule
ConstantPhoneme
p3138
(dp3139
S'p'
Vk
sbasg21
I00
sg22
Nsg23
I00
sg24
S'R'
sbsg35
(irule
FeatureMatrix
p3140
(dp3141
g28
(lp3142
(I00
S'back'
p3143
tp3144
asg22
Nsbsg22
Nsba(irule
Rule
p3145
(dp3146
g15
(irule
Guard
p3147
(dp3148
g18
I00
sg19
(lp3149
sg21
I00
sg22
Nsg23
I00
sg24
S'L'
sbsg25
(irule
FeatureMatrix
p3150
(dp3151
g28
(lp3152
(I00
g2407
tp3153
asg22
Nsbsg31
(irule
Guard
p3154
(dp3155
g18
I00
sg19
(lp3156
(irule
FeatureMatrix
p3157
(dp3158
g28
(lp3159
(I01
g2435
tp3160
asg22
Nsbasg21
I00
sg22
Nsg23
I00
sg24
S'R'
sbsg35
(irule
FeatureMatrix
p3161
(dp3162
g28
(lp3163
(I00
g2495
tp3164
asg22
Nsbsg22
Nsba(irule
Rule
p3165
(dp3166
g15
(irule
Guard
p3167
(dp3168
g18
I00
sg19
(lp3169
sg21
I00
sg22
Nsg23
I00
sg24
S'L'
sbsg25
(irule
FeatureMatrix
p3170
(dp3171
g28
(lp3172
(I00
g2407
tp3173
asg22
Nsbsg31
(irule
Guard
p3174
(dp3175
g18
I00
sg19
(lp3176
(irule
FeatureMatrix
p3177
(dp3178
g28
(lp3179
(I00
g2415
tp3180
asg22
Nsbasg21
I00
sg22
Nsg23
I00
sg24
S'R'
sbsg35
(irule
FeatureMatrix
p3181
(dp3182
g28
(lp3183
(I01
g2407
tp3184
asg22
Nsbsg22
Nsba(irule
Rule
p3185
(dp3186
g15
(irule
Guard
p3187
(dp3188
g18
I00
sg19
(lp3189
sg21
I00
sg22
Nsg23
I00
sg24
S'L'
sbsg25
(irule
FeatureMatrix
p3190
(dp3191
g28
(lp3192
(I00
g2407
tp3193
asg22
Nsbsg31
(irule
Guard
p3194
(dp3195
g18
I00
sg19
(lp3196
(irule
FeatureMatrix
p3197
(dp3198
g28
(lp3199
(I01
g3143
tp3200
a(I00
g2495
tp3201
asg22
Nsbasg21
I00
sg22
Nsg23
I00
sg24
S'R'
sbsg35
(irule
FeatureMatrix
p3202
(dp3203
g28
(lp3204
sg22
Nsbsg22
Nsba(irule
Rule
p3205
(dp3206
g15
(irule
Guard
p3207
(dp3208
g18
I00
sg19
(lp3209
sg21
I00
sg22
Nsg23
I00
sg24
S'L'
sbsg25
(irule
FeatureMatrix
p3210
(dp3211
g28
(lp3212
(I00
g2407
tp3213
asg22
Nsbsg31
(irule
Guard
p3214
(dp3215
g18
I00
sg19
(lp3216
(irule
FeatureMatrix
p3217
(dp3218
g28
(lp3219
(I00
g2960
tp3220
a(I00
g2415
tp3221
asg22
Nsbasg21
I00
sg22
Nsg23
I00
sg24
S'R'
sbsg35
(irule
FeatureMatrix
p3222
(dp3223
g28
(lp3224
sg22
Nsbsg22
Nsba(irule
Rule
p3225
(dp3226
g15
(irule
Guard
p3227
(dp3228
g18
I00
sg19
(lp3229
sg21
I00
sg22
Nsg23
I00
sg24
S'L'
sbsg25
(irule
FeatureMatrix
p3230
(dp3231
g28
(lp3232
(I00
g2407
tp3233
asg22
Nsbsg31
(irule
Guard
p3234
(dp3235
g18
I00
sg19
(lp3236
(irule
FeatureMatrix
p3237
(dp3238
g28
(lp3239
(I00
g2415
tp3240
asg22
Nsbasg21
I00
sg22
Nsg23
I00
sg24
S'R'
sbsg35
(irule
FeatureMatrix
p3241
(dp3242
g28
(lp3243
(I00
S'rounded'
p3244
tp3245
asg22
Nsbsg22
Nsba(irule
Rule
p3246
(dp3247
g15
(irule
Guard
p3248
(dp3249
g18
I00
sg19
(lp3250
sg21
I00
sg22
Nsg23
I00
sg24
S'L'
sbsg25
(irule
FeatureMatrix
p3251
(dp3252
g28
(lp3253
(I00
g2682
tp3254
a(I00
g2407
tp3255
asg22
Nsbsg31
(irule
Guard
p3256
(dp3257
g18
I00
sg19
(lp3258
(irule
FeatureMatrix
p3259
(dp3260
g28
(lp3261
(I00
g2475
tp3262
asg22
Nsbasg21
I00
sg22
Nsg23
I00
sg24
S'R'
sbsg35
(irule
FeatureMatrix
p3263
(dp3264
g28
(lp3265
sg22
Nsbsg22
Nsba(irule
Rule
p3266
(dp3267
g15
(irule
Guard
p3268
(dp3269
g18
I00
sg19
(lp3270
sg21
I00
sg22
Nsg23
I00
sg24
S'L'
sbsg25
(irule
FeatureMatrix
p3271
(dp3272
g28
(lp3273
(I00
g2407
tp3274
asg22
Nsbsg31
(irule
Guard
p3275
(dp3276
g18
I00
sg19
(lp3277
(irule
FeatureMatrix
p3278
(dp3279
g28
(lp3280
(I00
g2415
tp3281
asg22
Nsbasg21
I00
sg22
Nsg23
I00
sg24
S'R'
sbsg35
(irule
FeatureMatrix
p3282
(dp3283
g28
(lp3284
(I00
g2475
tp3285
asg22
Nsbsg22
Nsba(irule
Rule
p3286
(dp3287
g15
(irule
Guard
p3288
(dp3289
g18
I00
sg19
(lp3290
sg21
I00
sg22
Nsg23
I00
sg24
S'L'
sbsg25
(irule
FeatureMatrix
p3291
(dp3292
g28
(lp3293
(I00
g2407
tp3294
asg22
Nsbsg31
(irule
Guard
p3295
(dp3296
g18
I00
sg19
(lp3297
(irule
FeatureMatrix
p3298
(dp3299
g28
(lp3300
(I00
g2415
tp3301
a(I00
g2807
tp3302
asg22
Nsbasg21
I00
sg22
Nsg23
I00
sg24
S'R'
sbsg35
(irule
FeatureMatrix
p3303
(dp3304
g28
(lp3305
sg22
Nsbsg22
Nsba(irule
Rule
p3306
(dp3307
g15
(irule
Guard
p3308
(dp3309
g18
I00
sg19
(lp3310
sg21
I00
sg22
Nsg23
I00
sg24
S'L'
sbsg25
(irule
FeatureMatrix
p3311
(dp3312
g28
(lp3313
(I00
g2807
tp3314
a(I00
g2407
tp3315
asg22
Nsbsg31
(irule
Guard
p3316
(dp3317
g18
I00
sg19
(lp3318
(irule
FeatureMatrix
p3319
(dp3320
g28
(lp3321
(I00
g2455
tp3322
asg22
Nsbasg21
I00
sg22
Nsg23
I00
sg24
S'R'
sbsg35
(irule
FeatureMatrix
p3323
(dp3324
g28
(lp3325
sg22
Nsbsg22
Nsba(irule
Rule
p3326
(dp3327
g15
(irule
Guard
p3328
(dp3329
g18
I00
sg19
(lp3330
sg21
I00
sg22
Nsg23
I00
sg24
S'L'
sbsg25
(irule
FeatureMatrix
p3331
(dp3332
g28
(lp3333
(I00
g2407
tp3334
asg22
Nsbsg31
(irule
Guard
p3335
(dp3336
g18
I00
sg19
(lp3337
(irule
FeatureMatrix
p3338
(dp3339
g28
(lp3340
(I00
g2415
tp3341
asg22
Nsbasg21
I00
sg22
Nsg23
I00
sg24
S'R'
sbsg35
(irule
FeatureMatrix
p3342
(dp3343
g28
(lp3344
(I00
g2435
tp3345
asg22
Nsbsg22
Nsba(irule
Rule
p3346
(dp3347
g15
(irule
Guard
p3348
(dp3349
g18
I00
sg19
(lp3350
sg21
I00
sg22
Nsg23
I00
sg24
S'L'
sbsg25
(irule
FeatureMatrix
p3351
(dp3352
g28
(lp3353
(I00
g2407
tp3354
a(I00
g2620
tp3355
asg22
Nsbsg31
(irule
Guard
p3356
(dp3357
g18
I00
sg19
(lp3358
(irule
FeatureMatrix
p3359
(dp3360
g28
(lp3361
(I00
g2475
tp3362
asg22
Nsbasg21
I00
sg22
Nsg23
I00
sg24
S'R'
sbsg35
(irule
FeatureMatrix
p3363
(dp3364
g28
(lp3365
sg22
Nsbsg22
Nsba(irule
Rule
p3366
(dp3367
g15
(irule
Guard
p3368
(dp3369
g18
I00
sg19
(lp3370
sg21
I00
sg22
Nsg23
I00
sg24
S'L'
sbsg25
(irule
FeatureMatrix
p3371
(dp3372
g28
(lp3373
(I00
g2407
tp3374
a(I00
g2620
tp3375
asg22
Nsbsg31
(irule
Guard
p3376
(dp3377
g18
I00
sg19
(lp3378
(irule
FeatureMatrix
p3379
(dp3380
g28
(lp3381
(I00
g2495
tp3382
asg22
Nsbasg21
I00
sg22
Nsg23
I00
sg24
S'R'
sbsg35
(irule
FeatureMatrix
p3383
(dp3384
g28
(lp3385
sg22
Nsbsg22
Nsba(irule
Rule
p3386
(dp3387
g15
(irule
Guard
p3388
(dp3389
g18
I00
sg19
(lp3390
sg21
I00
sg22
Nsg23
I00
sg24
S'L'
sbsg25
(irule
FeatureMatrix
p3391
(dp3392
g28
(lp3393
(I00
g2407
tp3394
asg22
Nsbsg31
(irule
Guard
p3395
(dp3396
g18
I00
sg19
(lp3397
(irule
FeatureMatrix
p3398
(dp3399
g28
(lp3400
(I01
g2435
tp3401
asg22
Nsbasg21
I00
sg22
Nsg23
I00
sg24
S'R'
sbsg35
(irule
FeatureMatrix
p3402
(dp3403
g28
(lp3404
(I00
g2455
tp3405
asg22
Nsbsg22
Nsba(irule
Rule
p3406
(dp3407
g15
(irule
Guard
p3408
(dp3409
g18
I00
sg19
(lp3410
sg21
I00
sg22
Nsg23
I00
sg24
S'L'
sbsg25
(irule
FeatureMatrix
p3411
(dp3412
g28
(lp3413
(I00
g2407
tp3414
asg22
Nsbsg31
(irule
Guard
p3415
(dp3416
g18
I00
sg19
(lp3417
(irule
FeatureMatrix
p3418
(dp3419
g28
(lp3420
sg22
Nsba(irule
FeatureMatrix
p3421
(dp3422
g28
(lp3423
sg22
Nsbasg21
I00
sg22
Nsg23
I00
sg24
S'R'
sbsg35
(irule
FeatureMatrix
p3424
(dp3425
g28
(lp3426
(I00
g2797
tp3427
asg22
Nsbsg22
Nsba(irule
Rule
p3428
(dp3429
g15
(irule
Guard
p3430
(dp3431
g18
I00
sg19
(lp3432
sg21
I00
sg22
Nsg23
I00
sg24
S'L'
sbsg25
(irule
FeatureMatrix
p3433
(dp3434
g28
(lp3435
(I00
g2407
tp3436
asg22
Nsbsg31
(irule
Guard
p3437
(dp3438
g18
I00
sg19
(lp3439
(irule
ConstantPhoneme
p3440
(dp3441
S'p'
Vk
sba(irule
FeatureMatrix
p3442
(dp3443
g28
(lp3444
sg22
Nsbasg21
I00
sg22
Nsg23
I00
sg24
S'R'
sbsg35
(irule
FeatureMatrix
p3445
(dp3446
g28
(lp3447
sg22
Nsbsg22
Nsba(irule
Rule
p3448
(dp3449
g15
(irule
Guard
p3450
(dp3451
g18
I00
sg19
(lp3452
sg21
I00
sg22
Nsg23
I00
sg24
S'L'
sbsg25
(irule
FeatureMatrix
p3453
(dp3454
g28
(lp3455
(I00
g2407
tp3456
asg22
Nsbsg31
(irule
Guard
p3457
(dp3458
g18
I00
sg19
(lp3459
(irule
FeatureMatrix
p3460
(dp3461
g28
(lp3462
sg22
Nsba(irule
FeatureMatrix
p3463
(dp3464
g28
(lp3465
sg22
Nsbasg21
I00
sg22
Nsg23
I00
sg24
S'R'
sbsg35
(irule
FeatureMatrix
p3466
(dp3467
g28
(lp3468
(I00
g2475
tp3469
asg22
Nsbsg22
Nsba(irule
Rule
p3470
(dp3471
g15
(irule
Guard
p3472
(dp3473
g18
I00
sg19
(lp3474
sg21
I00
sg22
Nsg23
I00
sg24
S'L'
sbsg25
(irule
FeatureMatrix
p3475
(dp3476
g28
(lp3477
(I00
g2807
tp3478
a(I00
g2407
tp3479
asg22
Nsbsg31
(irule
Guard
p3480
(dp3481
g18
I00
sg19
(lp3482
(irule
FeatureMatrix
p3483
(dp3484
g28
(lp3485
(I00
g2495
tp3486
asg22
Nsbasg21
I00
sg22
Nsg23
I00
sg24
S'R'
sbsg35
(irule
FeatureMatrix
p3487
(dp3488
g28
(lp3489
sg22
Nsbsg22
Nsba(irule
Rule
p3490
(dp3491
g15
(irule
Guard
p3492
(dp3493
g18
I00
sg19
(lp3494
sg21
I00
sg22
Nsg23
I00
sg24
S'L'
sbsg25
(irule
FeatureMatrix
p3495
(dp3496
g28
(lp3497
(I00
g2407
tp3498
asg22
Nsbsg31
(irule
Guard
p3499
(dp3500
g18
I00
sg19
(lp3501
(irule
FeatureMatrix
p3502
(dp3503
g28
(lp3504
(I00
g2415
tp3505
a(I01
g3143
tp3506
asg22
Nsbasg21
I00
sg22
Nsg23
I00
sg24
S'R'
sbsg35
(irule
FeatureMatrix
p3507
(dp3508
g28
(lp3509
sg22
Nsbsg22
Nsba(irule
Rule
p3510
(dp3511
g15
(irule
Guard
p3512
(dp3513
g18
I00
sg19
(lp3514
sg21
I00
sg22
Nsg23
I00
sg24
S'L'
sbsg25
(irule
FeatureMatrix
p3515
(dp3516
g28
(lp3517
(I00
g2407
tp3518
asg22
Nsbsg31
(irule
Guard
p3519
(dp3520
g18
I00
sg19
(lp3521
(irule
FeatureMatrix
p3522
(dp3523
g28
(lp3524
sg22
Nsba(irule
FeatureMatrix
p3525
(dp3526
g28
(lp3527
(I00
S'coronal'
p3528
tp3529
asg22
Nsbasg21
I00
sg22
Nsg23
I00
sg24
S'R'
sbsg35
(irule
FeatureMatrix
p3530
(dp3531
g28
(lp3532
sg22
Nsbsg22
Nsba(irule
Rule
p3533
(dp3534
g15
(irule
Guard
p3535
(dp3536
g18
I00
sg19
(lp3537
sg21
I00
sg22
Nsg23
I00
sg24
S'L'
sbsg25
(irule
FeatureMatrix
p3538
(dp3539
g28
(lp3540
(I00
g2407
tp3541
asg22
Nsbsg31
(irule
Guard
p3542
(dp3543
g18
I00
sg19
(lp3544
(irule
FeatureMatrix
p3545
(dp3546
g28
(lp3547
(I00
g2495
tp3548
asg22
Nsbasg21
I00
sg22
Nsg23
I00
sg24
S'R'
sbsg35
(irule
FeatureMatrix
p3549
(dp3550
g28
(lp3551
(I00
g2859
tp3552
asg22
Nsbsg22
Nsba(irule
Rule
p3553
(dp3554
g15
(irule
Guard
p3555
(dp3556
g18
I00
sg19
(lp3557
sg21
I00
sg22
Nsg23
I00
sg24
S'L'
sbsg25
(irule
FeatureMatrix
p3558
(dp3559
g28
(lp3560
(I00
g2682
tp3561
a(I00
g2407
tp3562
asg22
Nsbsg31
(irule
Guard
p3563
(dp3564
g18
I00
sg19
(lp3565
(irule
FeatureMatrix
p3566
(dp3567
g28
(lp3568
(I00
g2455
tp3569
asg22
Nsbasg21
I00
sg22
Nsg23
I00
sg24
S'R'
sbsg35
(irule
FeatureMatrix
p3570
(dp3571
g28
(lp3572
sg22
Nsbsg22
Nsba(irule
Rule
p3573
(dp3574
g15
(irule
Guard
p3575
(dp3576
g18
I00
sg19
(lp3577
sg21
I00
sg22
Nsg23
I00
sg24
S'L'
sbsg25
(irule
FeatureMatrix
p3578
(dp3579
g28
(lp3580
(I00
g2407
tp3581
asg22
Nsbsg31
(irule
Guard
p3582
(dp3583
g18
I00
sg19
(lp3584
(irule
FeatureMatrix
p3585
(dp3586
g28
(lp3587
(I00
g2415
tp3588
asg22
Nsbasg21
I00
sg22
Nsg23
I00
sg24
S'R'
sbsg35
(irule
FeatureMatrix
p3589
(dp3590
g28
(lp3591
(I00
g2415
tp3592
asg22
Nsbsg22
Nsba(irule
Rule
p3593
(dp3594
g15
(irule
Guard
p3595
(dp3596
g18
I00
sg19
(lp3597
sg21
I00
sg22
Nsg23
I00
sg24
S'L'
sbsg25
(irule
FeatureMatrix
p3598
(dp3599
g28
(lp3600
(I00
g2807
tp3601
a(I00
g2407
tp3602
asg22
Nsbsg31
(irule
Guard
p3603
(dp3604
g18
I00
sg19
(lp3605
(irule
FeatureMatrix
p3606
(dp3607
g28
(lp3608
(I01
g2435
tp3609
asg22
Nsbasg21
I00
sg22
Nsg23
I00
sg24
S'R'
sbsg35
(irule
FeatureMatrix
p3610
(dp3611
g28
(lp3612
sg22
Nsbsg22
Nsba(irule
Rule
p3613
(dp3614
g15
(irule
Guard
p3615
(dp3616
g18
I00
sg19
(lp3617
sg21
I00
sg22
Nsg23
I00
sg24
S'L'
sbsg25
(irule
FeatureMatrix
p3618
(dp3619
g28
(lp3620
(I00
g2407
tp3621
asg22
Nsbsg31
(irule
Guard
p3622
(dp3623
g18
I00
sg19
(lp3624
(irule
FeatureMatrix
p3625
(dp3626
g28
(lp3627
(I00
g2415
tp3628
a(I00
g2859
tp3629
asg22
Nsbasg21
I00
sg22
Nsg23
I00
sg24
S'R'
sbsg35
(irule
FeatureMatrix
p3630
(dp3631
g28
(lp3632
sg22
Nsbsg22
Nsba(irule
Rule
p3633
(dp3634
g15
(irule
Guard
p3635
(dp3636
g18
I00
sg19
(lp3637
sg21
I00
sg22
Nsg23
I00
sg24
S'L'
sbsg25
(irule
FeatureMatrix
p3638
(dp3639
g28
(lp3640
(I00
g2407
tp3641
asg22
Nsbsg31
(irule
Guard
p3642
(dp3643
g18
I00
sg19
(lp3644
(irule
FeatureMatrix
p3645
(dp3646
g28
(lp3647
(I01
g2435
tp3648
a(I00
g3528
tp3649
asg22
Nsbasg21
I00
sg22
Nsg23
I00
sg24
S'R'
sbsg35
(irule
FeatureMatrix
p3650
(dp3651
g28
(lp3652
sg22
Nsbsg22
Nsba(irule
Rule
p3653
(dp3654
g15
(irule
Guard
p3655
(dp3656
g18
I00
sg19
(lp3657
sg21
I00
sg22
Nsg23
I00
sg24
S'L'
sbsg25
(irule
FeatureMatrix
p3658
(dp3659
g28
(lp3660
(I00
g2407
tp3661
asg22
Nsbsg31
(irule
Guard
p3662
(dp3663
g18
I00
sg19
(lp3664
(irule
FeatureMatrix
p3665
(dp3666
g28
(lp3667
(I00
g2415
tp3668
asg22
Nsbasg21
I00
sg22
Nsg23
I00
sg24
S'R'
sbsg35
(irule
FeatureMatrix
p3669
(dp3670
g28
(lp3671
(I00
g2807
tp3672
asg22
Nsbsg22
Nsba(irule
Rule
p3673
(dp3674
g15
(irule
Guard
p3675
(dp3676
g18
I00
sg19
(lp3677
sg21
I00
sg22
Nsg23
I00
sg24
S'L'
sbsg25
(irule
FeatureMatrix
p3678
(dp3679
g28
(lp3680
(I00
g2407
tp3681
asg22
Nsbsg31
(irule
Guard
p3682
(dp3683
g18
I00
sg19
(lp3684
(irule
FeatureMatrix
p3685
(dp3686
g28
(lp3687
(I00
g2495
tp3688
asg22
Nsbasg21
I00
sg22
Nsg23
I00
sg24
S'R'
sbsg35
(irule
FeatureMatrix
p3689
(dp3690
g28
(lp3691
(I00
g2682
tp3692
asg22
Nsbsg22
Nsba(irule
Rule
p3693
(dp3694
g15
(irule
Guard
p3695
(dp3696
g18
I00
sg19
(lp3697
sg21
I00
sg22
Nsg23
I00
sg24
S'L'
sbsg25
(irule
FeatureMatrix
p3698
(dp3699
g28
(lp3700
(I00
g2407
tp3701
asg22
Nsbsg31
(irule
Guard
p3702
(dp3703
g18
I00
sg19
(lp3704
(irule
FeatureMatrix
p3705
(dp3706
g28
(lp3707
(I00
g2415
tp3708
a(I00
g2620
tp3709
asg22
Nsbasg21
I00
sg22
Nsg23
I00
sg24
S'R'
sbsg35
(irule
FeatureMatrix
p3710
(dp3711
g28
(lp3712
sg22
Nsbsg22
Nsba(irule
Rule
p3713
(dp3714
g15
(irule
Guard
p3715
(dp3716
g18
I00
sg19
(lp3717
sg21
I00
sg22
Nsg23
I00
sg24
S'L'
sbsg25
(irule
FeatureMatrix
p3718
(dp3719
g28
(lp3720
(I00
g2407
tp3721
asg22
Nsbsg31
(irule
Guard
p3722
(dp3723
g18
I00
sg19
(lp3724
(irule
FeatureMatrix
p3725
(dp3726
g28
(lp3727
sg22
Nsba(irule
FeatureMatrix
p3728
(dp3729
g28
(lp3730
(I01
g3143
tp3731
asg22
Nsbasg21
I00
sg22
Nsg23
I00
sg24
S'R'
sbsg35
(irule
FeatureMatrix
p3732
(dp3733
g28
(lp3734
sg22
Nsbsg22
Nsba(irule
Rule
p3735
(dp3736
g15
(irule
Guard
p3737
(dp3738
g18
I00
sg19
(lp3739
sg21
I00
sg22
Nsg23
I00
sg24
S'L'
sbsg25
(irule
FeatureMatrix
p3740
(dp3741
g28
(lp3742
(I00
g2407
tp3743
asg22
Nsbsg31
(irule
Guard
p3744
(dp3745
g18
I00
sg19
(lp3746
(irule
FeatureMatrix
p3747
(dp3748
g28
(lp3749
(I00
g2455
tp3750
asg22
Nsbasg21
I00
sg22
Nsg23
I00
sg24
S'R'
sbsg35
(irule
FeatureMatrix
p3751
(dp3752
g28
(lp3753
(I00
g2495
tp3754
asg22
Nsbsg22
Nsba(irule
Rule
p3755
(dp3756
g15
(irule
Guard
p3757
(dp3758
g18
I00
sg19
(lp3759
sg21
I00
sg22
Nsg23
I00
sg24
S'L'
sbsg25
(irule
FeatureMatrix
p3760
(dp3761
g28
(lp3762
(I00
g2407
tp3763
asg22
Nsbsg31
(irule
Guard
p3764
(dp3765
g18
I00
sg19
(lp3766
(irule
FeatureMatrix
p3767
(dp3768
g28
(lp3769
(I00
g2415
tp3770
asg22
Nsba(irule
FeatureMatrix
p3771
(dp3772
g28
(lp3773
sg22
Nsbasg21
I00
sg22
Nsg23
I00
sg24
S'R'
sbsg35
(irule
FeatureMatrix
p3774
(dp3775
g28
(lp3776
sg22
Nsbsg22
Nsba(irule
Rule
p3777
(dp3778
g15
(irule
Guard
p3779
(dp3780
g18
I00
sg19
(lp3781
sg21
I00
sg22
Nsg23
I00
sg24
S'L'
sbsg25
(irule
FeatureMatrix
p3782
(dp3783
g28
(lp3784
(I00
g2407
tp3785
asg22
Nsbsg31
(irule
Guard
p3786
(dp3787
g18
I00
sg19
(lp3788
(irule
FeatureMatrix
p3789
(dp3790
g28
(lp3791
(I01
g2435
tp3792
asg22
Nsbasg21
I00
sg22
Nsg23
I00
sg24
S'R'
sbsg35
(irule
FeatureMatrix
p3793
(dp3794
g28
(lp3795
(I00
g2682
tp3796
asg22
Nsbsg22
Nsba(irule
Rule
p3797
(dp3798
g15
(irule
Guard
p3799
(dp3800
g18
I00
sg19
(lp3801
sg21
I00
sg22
Nsg23
I00
sg24
S'L'
sbsg25
(irule
FeatureMatrix
p3802
(dp3803
g28
(lp3804
(I00
g2407
tp3805
asg22
Nsbsg31
(irule
Guard
p3806
(dp3807
g18
I00
sg19
(lp3808
(irule
FeatureMatrix
p3809
(dp3810
g28
(lp3811
(I00
g2415
tp3812
asg22
Nsbasg21
I00
sg22
Nsg23
I00
sg24
S'R'
sbsg35
(irule
FeatureMatrix
p3813
(dp3814
g28
(lp3815
(I00
g2620
tp3816
asg22
Nsbsg22
Nsba(irule
Rule
p3817
(dp3818
g15
(irule
Guard
p3819
(dp3820
g18
I00
sg19
(lp3821
sg21
I00
sg22
Nsg23
I00
sg24
S'L'
sbsg25
(irule
FeatureMatrix
p3822
(dp3823
g28
(lp3824
(I00
g2407
tp3825
asg22
Nsbsg31
(irule
Guard
p3826
(dp3827
g18
I00
sg19
(lp3828
(irule
FeatureMatrix
p3829
(dp3830
g28
(lp3831
(I00
g2620
tp3832
a(I00
g2495
tp3833
asg22
Nsbasg21
I00
sg22
Nsg23
I00
sg24
S'R'
sbsg35
(irule
FeatureMatrix
p3834
(dp3835
g28
(lp3836
sg22
Nsbsg22
Nsba(irule
Rule
p3837
(dp3838
g15
(irule
Guard
p3839
(dp3840
g18
I00
sg19
(lp3841
sg21
I00
sg22
Nsg23
I00
sg24
S'L'
sbsg25
(irule
FeatureMatrix
p3842
(dp3843
g28
(lp3844
(I00
g2407
tp3845
asg22
Nsbsg31
(irule
Guard
p3846
(dp3847
g18
I00
sg19
(lp3848
(irule
FeatureMatrix
p3849
(dp3850
g28
(lp3851
sg22
Nsba(irule
FeatureMatrix
p3852
(dp3853
g28
(lp3854
(I01
g2475
tp3855
asg22
Nsbasg21
I00
sg22
Nsg23
I00
sg24
S'R'
sbsg35
(irule
FeatureMatrix
p3856
(dp3857
g28
(lp3858
sg22
Nsbsg22
Nsba(irule
Rule
p3859
(dp3860
g15
(irule
Guard
p3861
(dp3862
g18
I00
sg19
(lp3863
sg21
I00
sg22
Nsg23
I00
sg24
S'L'
sbsg25
(irule
FeatureMatrix
p3864
(dp3865
g28
(lp3866
(I00
g2407
tp3867
asg22
Nsbsg31
(irule
Guard
p3868
(dp3869
g18
I00
sg19
(lp3870
(irule
FeatureMatrix
p3871
(dp3872
g28
(lp3873
(I00
g2495
tp3874
asg22
Nsbasg21
I00
sg22
Nsg23
I00
sg24
S'R'
sbsg35
(irule
FeatureMatrix
p3875
(dp3876
g28
(lp3877
(I00
g2620
tp3878
asg22
Nsbsg22
Nsba(irule
Rule
p3879
(dp3880
g15
(irule
Guard
p3881
(dp3882
g18
I00
sg19
(lp3883
sg21
I00
sg22
Nsg23
I00
sg24
S'L'
sbsg25
(irule
FeatureMatrix
p3884
(dp3885
g28
(lp3886
(I00
g2407
tp3887
asg22
Nsbsg31
(irule
Guard
p3888
(dp3889
g18
I00
sg19
(lp3890
(irule
FeatureMatrix
p3891
(dp3892
g28
(lp3893
sg22
Nsba(irule
FeatureMatrix
p3894
(dp3895
g28
(lp3896
sg22
Nsbasg21
I00
sg22
Nsg23
I00
sg24
S'R'
sbsg35
(irule
FeatureMatrix
p3897
(dp3898
g28
(lp3899
(I00
g2495
tp3900
asg22
Nsbsg22
Nsba(irule
Rule
p3901
(dp3902
g15
(irule
Guard
p3903
(dp3904
g18
I00
sg19
(lp3905
sg21
I00
sg22
Nsg23
I00
sg24
S'L'
sbsg25
(irule
FeatureMatrix
p3906
(dp3907
g28
(lp3908
(I00
g2407
tp3909
asg22
Nsbsg31
(irule
Guard
p3910
(dp3911
g18
I00
sg19
(lp3912
(irule
FeatureMatrix
p3913
(dp3914
g28
(lp3915
(I00
g2415
tp3916
asg22
Nsbasg21
I00
sg22
Nsg23
I00
sg24
S'R'
sbsg35
(irule
FeatureMatrix
p3917
(dp3918
g28
(lp3919
(I00
g2859
tp3920
asg22
Nsbsg22
Nsba(irule
Rule
p3921
(dp3922
g15
(irule
Guard
p3923
(dp3924
g18
I00
sg19
(lp3925
sg21
I00
sg22
Nsg23
I00
sg24
S'L'
sbsg25
(irule
FeatureMatrix
p3926
(dp3927
g28
(lp3928
(I00
g2407
tp3929
asg22
Nsbsg31
(irule
Guard
p3930
(dp3931
g18
I00
sg19
(lp3932
(irule
FeatureMatrix
p3933
(dp3934
g28
(lp3935
(I01
g2435
tp3936
a(I00
g2797
tp3937
asg22
Nsbasg21
I00
sg22
Nsg23
I00
sg24
S'R'
sbsg35
(irule
FeatureMatrix
p3938
(dp3939
g28
(lp3940
sg22
Nsbsg22
Nsba(irule
Rule
p3941
(dp3942
g15
(irule
Guard
p3943
(dp3944
g18
I00
sg19
(lp3945
sg21
I00
sg22
Nsg23
I00
sg24
S'L'
sbsg25
(irule
FeatureMatrix
p3946
(dp3947
g28
(lp3948
(I00
g2407
tp3949
asg22
Nsbsg31
(irule
Guard
p3950
(dp3951
g18
I00
sg19
(lp3952
(irule
FeatureMatrix
p3953
(dp3954
g28
(lp3955
(I00
g2415
tp3956
a(I00
g2682
tp3957
asg22
Nsbasg21
I00
sg22
Nsg23
I00
sg24
S'R'
sbsg35
(irule
FeatureMatrix
p3958
(dp3959
g28
(lp3960
sg22
Nsbsg22
Nsba(irule
Rule
p3961
(dp3962
g15
(irule
Guard
p3963
(dp3964
g18
I00
sg19
(lp3965
sg21
I00
sg22
Nsg23
I00
sg24
S'L'
sbsg25
(irule
FeatureMatrix
p3966
(dp3967
g28
(lp3968
(I00
g2407
tp3969
asg22
Nsbsg31
(irule
Guard
p3970
(dp3971
g18
I00
sg19
(lp3972
(irule
FeatureMatrix
p3973
(dp3974
g28
(lp3975
(I00
g2415
tp3976
a(I00
g2797
tp3977
asg22
Nsbasg21
I00
sg22
Nsg23
I00
sg24
S'R'
sbsg35
(irule
FeatureMatrix
p3978
(dp3979
g28
(lp3980
sg22
Nsbsg22
Nsba(irule
Rule
p3981
(dp3982
g15
(irule
Guard
p3983
(dp3984
g18
I00
sg19
(lp3985
sg21
I00
sg22
Nsg23
I00
sg24
S'L'
sbsg25
(irule
FeatureMatrix
p3986
(dp3987
g28
(lp3988
(I00
g2407
tp3989
asg22
Nsbsg31
(irule
Guard
p3990
(dp3991
g18
I00
sg19
(lp3992
(irule
FeatureMatrix
p3993
(dp3994
g28
(lp3995
(I00
g2455
tp3996
a(I00
g2620
tp3997
asg22
Nsbasg21
I00
sg22
Nsg23
I00
sg24
S'R'
sbsg35
(irule
FeatureMatrix
p3998
(dp3999
g28
(lp4000
sg22
Nsbsg22
Nsba(irule
Rule
p4001
(dp4002
g15
(irule
Guard
p4003
(dp4004
g18
I00
sg19
(lp4005
sg21
I00
sg22
Nsg23
I00
sg24
S'L'
sbsg25
(irule
FeatureMatrix
p4006
(dp4007
g28
(lp4008
(I00
g2407
tp4009
asg22
Nsbsg31
(irule
Guard
p4010
(dp4011
g18
I00
sg19
(lp4012
(irule
FeatureMatrix
p4013
(dp4014
g28
(lp4015
(I00
g2415
tp4016
asg22
Nsbasg21
I00
sg22
Nsg23
I00
sg24
S'R'
sbsg35
(irule
FeatureMatrix
p4017
(dp4018
g28
(lp4019
(I00
g2682
tp4020
asg22
Nsbsg22
Nsba(irule
Rule
p4021
(dp4022
g15
(irule
Guard
p4023
(dp4024
g18
I00
sg19
(lp4025
sg21
I00
sg22
Nsg23
I00
sg24
S'L'
sbsg25
(irule
FeatureMatrix
p4026
(dp4027
g28
(lp4028
(I00
g2407
tp4029
asg22
Nsbsg31
(irule
Guard
p4030
(dp4031
g18
I00
sg19
(lp4032
(irule
FeatureMatrix
p4033
(dp4034
g28
(lp4035
(I00
g2455
tp4036
asg22
Nsbasg21
I00
sg22
Nsg23
I00
sg24
S'R'
sbsg35
(irule
FeatureMatrix
p4037
(dp4038
g28
(lp4039
(I00
g2797
tp4040
asg22
Nsbsg22
Nsba(irule
Rule
p4041
(dp4042
g15
(irule
Guard
p4043
(dp4044
g18
I00
sg19
(lp4045
sg21
I00
sg22
Nsg23
I00
sg24
S'L'
sbsg25
(irule
FeatureMatrix
p4046
(dp4047
g28
(lp4048
(I00
g2407
tp4049
asg22
Nsbsg31
(irule
Guard
p4050
(dp4051
g18
I00
sg19
(lp4052
(irule
FeatureMatrix
p4053
(dp4054
g28
(lp4055
(I00
g2797
tp4056
a(I00
g2495
tp4057
asg22
Nsbasg21
I00
sg22
Nsg23
I00
sg24
S'R'
sbsg35
(irule
FeatureMatrix
p4058
(dp4059
g28
(lp4060
sg22
Nsbsg22
Nsba(irule
Rule
p4061
(dp4062
g15
(irule
Guard
p4063
(dp4064
g18
I00
sg19
(lp4065
sg21
I00
sg22
Nsg23
I00
sg24
S'L'
sbsg25
(irule
FeatureMatrix
p4066
(dp4067
g28
(lp4068
(I00
g2407
tp4069
asg22
Nsbsg31
(irule
Guard
p4070
(dp4071
g18
I00
sg19
(lp4072
(irule
FeatureMatrix
p4073
(dp4074
g28
(lp4075
(I00
g2620
tp4076
asg22
Nsba(irule
FeatureMatrix
p4077
(dp4078
g28
(lp4079
sg22
Nsbasg21
I00
sg22
Nsg23
I00
sg24
S'R'
sbsg35
(irule
FeatureMatrix
p4080
(dp4081
g28
(lp4082
sg22
Nsbsg22
Nsba(irule
Rule
p4083
(dp4084
g15
(irule
Guard
p4085
(dp4086
g18
I00
sg19
(lp4087
sg21
I00
sg22
Nsg23
I00
sg24
S'L'
sbsg25
(irule
FeatureMatrix
p4088
(dp4089
g28
(lp4090
(I00
g2407
tp4091
asg22
Nsbsg31
(irule
Guard
p4092
(dp4093
g18
I00
sg19
(lp4094
(irule
FeatureMatrix
p4095
(dp4096
g28
(lp4097
(I00
g2455
tp4098
asg22
Nsbasg21
I00
sg22
Nsg23
I00
sg24
S'R'
sbsg35
(irule
FeatureMatrix
p4099
(dp4100
g28
(lp4101
(I00
g2682
tp4102
asg22
Nsbsg22
Nsba(irule
Rule
p4103
(dp4104
g15
(irule
Guard
p4105
(dp4106
g18
I00
sg19
(lp4107
sg21
I00
sg22
Nsg23
I00
sg24
S'L'
sbsg25
(irule
FeatureMatrix
p4108
(dp4109
g28
(lp4110
(I00
g2407
tp4111
asg22
Nsbsg31
(irule
Guard
p4112
(dp4113
g18
I00
sg19
(lp4114
(irule
FeatureMatrix
p4115
(dp4116
g28
(lp4117
(I00
g2475
tp4118
asg22
Nsbasg21
I00
sg22
Nsg23
I00
sg24
S'R'
sbsg35
(irule
FeatureMatrix
p4119
(dp4120
g28
(lp4121
(I00
g2682
tp4122
asg22
Nsbsg22
Nsba(irule
Rule
p4123
(dp4124
g15
(irule
Guard
p4125
(dp4126
g18
I00
sg19
(lp4127
sg21
I00
sg22
Nsg23
I00
sg24
S'L'
sbsg25
(irule
FeatureMatrix
p4128
(dp4129
g28
(lp4130
(I00
g2407
tp4131
asg22
Nsbsg31
(irule
Guard
p4132
(dp4133
g18
I00
sg19
(lp4134
(irule
FeatureMatrix
p4135
(dp4136
g28
(lp4137
(I00
g2495
tp4138
asg22
Nsbasg21
I00
sg22
Nsg23
I00
sg24
S'R'
sbsg35
(irule
FeatureMatrix
p4139
(dp4140
g28
(lp4141
(I00
g3143
tp4142
asg22
Nsbsg22
Nsba(irule
Rule
p4143
(dp4144
g15
(irule
Guard
p4145
(dp4146
g18
I00
sg19
(lp4147
sg21
I00
sg22
Nsg23
I00
sg24
S'L'
sbsg25
(irule
FeatureMatrix
p4148
(dp4149
g28
(lp4150
(I00
g2407
tp4151
asg22
Nsbsg31
(irule
Guard
p4152
(dp4153
g18
I00
sg19
(lp4154
(irule
FeatureMatrix
p4155
(dp4156
g28
(lp4157
(I00
g2415
tp4158
asg22
Nsbasg21
I00
sg22
Nsg23
I00
sg24
S'R'
sbsg35
(irule
FeatureMatrix
p4159
(dp4160
g28
(lp4161
(I00
g3143
tp4162
asg22
Nsbsg22
Nsba(irule
Rule
p4163
(dp4164
g15
(irule
Guard
p4165
(dp4166
g18
I00
sg19
(lp4167
sg21
I00
sg22
Nsg23
I00
sg24
S'L'
sbsg25
(irule
FeatureMatrix
p4168
(dp4169
g28
(lp4170
(I00
g2407
tp4171
asg22
Nsbsg31
(irule
Guard
p4172
(dp4173
g18
I00
sg19
(lp4174
(irule
FeatureMatrix
p4175
(dp4176
g28
(lp4177
(I00
g2415
tp4178
a(I00
g3528
tp4179
asg22
Nsbasg21
I00
sg22
Nsg23
I00
sg24
S'R'
sbsg35
(irule
FeatureMatrix
p4180
(dp4181
g28
(lp4182
sg22
Nsbsg22
Nsba(irule
Rule
p4183
(dp4184
g15
(irule
Guard
p4185
(dp4186
g18
I00
sg19
(lp4187
sg21
I00
sg22
Nsg23
I00
sg24
S'L'
sbsg25
(irule
FeatureMatrix
p4188
(dp4189
g28
(lp4190
(I00
g2407
tp4191
asg22
Nsbsg31
(irule
Guard
p4192
(dp4193
g18
I00
sg19
(lp4194
(irule
FeatureMatrix
p4195
(dp4196
g28
(lp4197
(I00
g2495
tp4198
asg22
Nsba(irule
FeatureMatrix
p4199
(dp4200
g28
(lp4201
sg22
Nsbasg21
I00
sg22
Nsg23
I00
sg24
S'R'
sbsg35
(irule
FeatureMatrix
p4202
(dp4203
g28
(lp4204
sg22
Nsbsg22
Nsba(irule
Rule
p4205
(dp4206
g15
(irule
Guard
p4207
(dp4208
g18
I00
sg19
(lp4209
sg21
I00
sg22
Nsg23
I00
sg24
S'L'
sbsg25
(irule
FeatureMatrix
p4210
(dp4211
g28
(lp4212
(I00
g2407
tp4213
asg22
Nsbsg31
(irule
Guard
p4214
(dp4215
g18
I00
sg19
(lp4216
(irule
FeatureMatrix
p4217
(dp4218
g28
(lp4219
(I01
g2435
tp4220
asg22
Nsbasg21
I00
sg22
Nsg23
I00
sg24
S'R'
sbsg35
(irule
FeatureMatrix
p4221
(dp4222
g28
(lp4223
(I00
g3244
tp4224
asg22
Nsbsg22
Nsba(irule
Rule
p4225
(dp4226
g15
(irule
Guard
p4227
(dp4228
g18
I00
sg19
(lp4229
sg21
I00
sg22
Nsg23
I00
sg24
S'L'
sbsg25
(irule
FeatureMatrix
p4230
(dp4231
g28
(lp4232
(I00
g2407
tp4233
asg22
Nsbsg31
(irule
Guard
p4234
(dp4235
g18
I00
sg19
(lp4236
(irule
FeatureMatrix
p4237
(dp4238
g28
(lp4239
(I00
g2475
tp4240
asg22
Nsba(irule
FeatureMatrix
p4241
(dp4242
g28
(lp4243
sg22
Nsbasg21
I00
sg22
Nsg23
I00
sg24
S'R'
sbsg35
(irule
FeatureMatrix
p4244
(dp4245
g28
(lp4246
sg22
Nsbsg22
Nsba(irule
Rule
p4247
(dp4248
g15
(irule
Guard
p4249
(dp4250
g18
I00
sg19
(lp4251
sg21
I00
sg22
Nsg23
I00
sg24
S'L'
sbsg25
(irule
FeatureMatrix
p4252
(dp4253
g28
(lp4254
(I00
g2407
tp4255
asg22
Nsbsg31
(irule
Guard
p4256
(dp4257
g18
I00
sg19
(lp4258
(irule
FeatureMatrix
p4259
(dp4260
g28
(lp4261
(I00
g2407
tp4262
a(I01
g2435
tp4263
asg22
Nsbasg21
I00
sg22
Nsg23
I00
sg24
S'R'
sbsg35
(irule
FeatureMatrix
p4264
(dp4265
g28
(lp4266
sg22
Nsbsg22
Nsba(irule
Rule
p4267
(dp4268
g15
(irule
Guard
p4269
(dp4270
g18
I00
sg19
(lp4271
sg21
I00
sg22
Nsg23
I00
sg24
S'L'
sbsg25
(irule
FeatureMatrix
p4272
(dp4273
g28
(lp4274
(I00
g2407
tp4275
asg22
Nsbsg31
(irule
Guard
p4276
(dp4277
g18
I00
sg19
(lp4278
(irule
FeatureMatrix
p4279
(dp4280
g28
(lp4281
sg22
Nsba(irule
ConstantPhoneme
p4282
(dp4283
S'p'
Vo
sbasg21
I00
sg22
Nsg23
I00
sg24
S'R'
sbsg35
(irule
FeatureMatrix
p4284
(dp4285
g28
(lp4286
sg22
Nsbsg22
Nsba(irule
Rule
p4287
(dp4288
g15
(irule
Guard
p4289
(dp4290
g18
I00
sg19
(lp4291
sg21
I00
sg22
Nsg23
I00
sg24
S'L'
sbsg25
(irule
FeatureMatrix
p4292
(dp4293
g28
(lp4294
(I00
g2407
tp4295
asg22
Nsbsg31
(irule
Guard
p4296
(dp4297
g18
I00
sg19
(lp4298
(irule
FeatureMatrix
p4299
(dp4300
g28
(lp4301
(I00
g2415
tp4302
asg22
Nsbasg21
I00
sg22
Nsg23
I00
sg24
S'R'
sbsg35
(irule
FeatureMatrix
p4303
(dp4304
g28
(lp4305
(I00
g2455
tp4306
asg22
Nsbsg22
Nsba(irule
Rule
p4307
(dp4308
g15
(irule
Guard
p4309
(dp4310
g18
I00
sg19
(lp4311
sg21
I00
sg22
Nsg23
I00
sg24
S'L'
sbsg25
(irule
FeatureMatrix
p4312
(dp4313
g28
(lp4314
(I00
g2407
tp4315
asg22
Nsbsg31
(irule
Guard
p4316
(dp4317
g18
I00
sg19
(lp4318
(irule
FeatureMatrix
p4319
(dp4320
g28
(lp4321
sg22
Nsba(irule
FeatureMatrix
p4322
(dp4323
g28
(lp4324
sg22
Nsbasg21
I00
sg22
Nsg23
I00
sg24
S'R'
sbsg35
(irule
FeatureMatrix
p4325
(dp4326
g28
(lp4327
(I01
g2960
tp4328
asg22
Nsbsg22
Nsba(irule
Rule
p4329
(dp4330
g15
(irule
Guard
p4331
(dp4332
g18
I00
sg19
(lp4333
sg21
I00
sg22
Nsg23
I00
sg24
S'L'
sbsg25
(irule
FeatureMatrix
p4334
(dp4335
g28
(lp4336
(I00
g2407
tp4337
asg22
Nsbsg31
(irule
Guard
p4338
(dp4339
g18
I00
sg19
(lp4340
(irule
FeatureMatrix
p4341
(dp4342
g28
(lp4343
(I00
g2475
tp4344
asg22
Nsbasg21
I00
sg22
Nsg23
I00
sg24
S'R'
sbsg35
(irule
FeatureMatrix
p4345
(dp4346
g28
(lp4347
(I00
g2797
tp4348
asg22
Nsbsg22
Nsba(irule
Rule
p4349
(dp4350
g15
(irule
Guard
p4351
(dp4352
g18
I00
sg19
(lp4353
sg21
I00
sg22
Nsg23
I00
sg24
S'L'
sbsg25
(irule
FeatureMatrix
p4354
(dp4355
g28
(lp4356
(I00
g2407
tp4357
asg22
Nsbsg31
(irule
Guard
p4358
(dp4359
g18
I00
sg19
(lp4360
(irule
FeatureMatrix
p4361
(dp4362
g28
(lp4363
(I00
g2797
tp4364
asg22
Nsba(irule
FeatureMatrix
p4365
(dp4366
g28
(lp4367
sg22
Nsbasg21
I00
sg22
Nsg23
I00
sg24
S'R'
sbsg35
(irule
FeatureMatrix
p4368
(dp4369
g28
(lp4370
sg22
Nsbsg22
Nsba(irule
Rule
p4371
(dp4372
g15
(irule
Guard
p4373
(dp4374
g18
I00
sg19
(lp4375
sg21
I00
sg22
Nsg23
I00
sg24
S'L'
sbsg25
(irule
FeatureMatrix
p4376
(dp4377
g28
(lp4378
(I00
g2407
tp4379
asg22
Nsbsg31
(irule
Guard
p4380
(dp4381
g18
I00
sg19
(lp4382
(irule
FeatureMatrix
p4383
(dp4384
g28
(lp4385
(I00
g2455
tp4386
asg22
Nsbasg21
I00
sg22
Nsg23
I00
sg24
S'R'
sbsg35
(irule
FeatureMatrix
p4387
(dp4388
g28
(lp4389
(I00
g2415
tp4390
asg22
Nsbsg22
Nsba(irule
Rule
p4391
(dp4392
g15
(irule
Guard
p4393
(dp4394
g18
I00
sg19
(lp4395
sg21
I00
sg22
Nsg23
I00
sg24
S'L'
sbsg25
(irule
FeatureMatrix
p4396
(dp4397
g28
(lp4398
(I00
g2407
tp4399
asg22
Nsbsg31
(irule
Guard
p4400
(dp4401
g18
I00
sg19
(lp4402
(irule
FeatureMatrix
p4403
(dp4404
g28
(lp4405
(I00
g3244
tp4406
a(I00
g2415
tp4407
asg22
Nsbasg21
I00
sg22
Nsg23
I00
sg24
S'R'
sbsg35
(irule
FeatureMatrix
p4408
(dp4409
g28
(lp4410
sg22
Nsbsg22
Nsba(irule
Rule
p4411
(dp4412
g15
(irule
Guard
p4413
(dp4414
g18
I00
sg19
(lp4415
sg21
I00
sg22
Nsg23
I00
sg24
S'L'
sbsg25
(irule
FeatureMatrix
p4416
(dp4417
g28
(lp4418
(I00
g2407
tp4419
asg22
Nsbsg31
(irule
Guard
p4420
(dp4421
g18
I00
sg19
(lp4422
(irule
FeatureMatrix
p4423
(dp4424
g28
(lp4425
(I00
g2455
tp4426
asg22
Nsbasg21
I00
sg22
Nsg23
I00
sg24
S'R'
sbsg35
(irule
FeatureMatrix
p4427
(dp4428
g28
(lp4429
(I00
g2859
tp4430
asg22
Nsbsg22
NsbaasbsS'parameters'
p4431
g6
(cargparse
Namespace
p4432
g8
NtRp4433
(dp4434
S'dummy'
p4435
I00
sS'task'
p4436
S'CEGIS'
p4437
sS'features'
p4438
S'sophisticated'
p4439
sS'resume'
p4440
I00
sS'geometry'
p4441
I01
sS'top'
p4442
I100
sS'disableClean'
p4443
I00
sS'universal'
p4444
NsS'restrict'
p4445
NsS'window'
p4446
NsS'seed'
p4447
S'0'
sS'restore'
p4448
NsS'verbosity'
p4449
I0
sS'timeout'
p4450
F24
sS'debug'
p4451
NsS'cores'
p4452
I40
sg313
S'Odden_1.3_Korean'
p4453
sS'save'
p4454
NsS'serial'
p4455
I00
sS'alignment'
p4456
I00
sS'samples'
p4457
I30
sbsb.