(iresult
Result
p1
(dp2
S'startTime'
p3
F1559748040.759474
sS'solutionSequence'
p4
(lp5
(ccopy_reg
_reconstructor
p6
(csolution
Solution
p7
c__builtin__
object
p8
NtRp9
(dp10
S'rules'
p11
(lp12
(irule
Rule
p13
(dp14
S'leftTriggers'
p15
(irule
Guard
p16
(dp17
S'endOfString'
p18
I01
sS'specifications'
p19
(lp20
sS'optionalEnding'
p21
I00
sS'representation'
p22
NsS'starred'
p23
I00
sS'side'
p24
S'L'
sbsS'structuralChange'
p25
(irule
EmptySpecification
p26
(dp27
bsS'rightTriggers'
p28
(irule
Guard
p29
(dp30
g18
I00
sg19
(lp31
sg21
I00
sg22
Nsg23
I00
sg24
S'R'
sbsS'focus'
p32
(irule
FeatureMatrix
p33
(dp34
S'featuresAndPolarities'
p35
(lp36
(I00
S'nasal'
p37
tp38
asg22
V[ -nasal ]
p39
sbsg22
NsbasS'prefixes'
p40
(lp41
sS'underlyingForms'
p42
(dp43
(I10
tp44
(imorph
Morph
p45
(dp46
S'phonemes'
p47
(lp48
Vb
aVj\u030c
p49
aVu
asbs(I5
tp50
(imorph
Morph
p51
(dp52
g47
(lp53
V\u014b
aVa
asbs(I9
tp54
(imorph
Morph
p55
(dp56
g47
(lp57
Vr
aVg
aVu
asbs(I1
tp58
(imorph
Morph
p59
(dp60
g47
(lp61
Vg
ag49
aVi
aVg
asbs(I4
tp62
(imorph
Morph
p63
(dp64
g47
(lp65
Vb
aV\u0161
aVi
asbssS'suffixes'
p66
(lp67
sbF26.401630878448486
tp68
asS'problem'
p69
S'Odden_2.4_Tibetan'
p70
sS'finalFrontier'
p71
g6
(csolution
Frontier
p72
g8
NtRp73
(dp74
g40
g41
sg66
g67
sg42
g43
sS'frontiers'
p75
(lp76
(lp77
g13
a(irule
Rule
p78
(dp79
g15
(irule
Guard
p80
(dp81
g18
I01
sg19
(lp82
sg21
I00
sg22
Nsg23
I00
sg24
S'L'
sbsg25
(irule
EmptySpecification
p83
(dp84
bsg28
(irule
Guard
p85
(dp86
g18
I00
sg19
(lp87
(irule
FeatureMatrix
p88
(dp89
g35
(lp90
sg22
V[  ]
p91
sbasg21
I00
sg22
Nsg23
I00
sg24
S'R'
sbsg32
(irule
FeatureMatrix
p92
(dp93
g35
(lp94
(I00
g37
tp95
asg22
V[ -nasal ]
p96
sbsg22
Nsba(irule
Rule
p97
(dp98
g15
(irule
Guard
p99
(dp100
g18
I01
sg19
(lp101
sg21
I00
sg22
Nsg23
I00
sg24
S'L'
sbsg25
(irule
EmptySpecification
p102
(dp103
bsg28
(irule
Guard
p104
(dp105
g18
I00
sg19
(lp106
sg21
I00
sg22
Nsg23
I00
sg24
S'R'
sbsg32
(irule
FeatureMatrix
p107
(dp108
g35
(lp109
(I00
S'rounded'
p110
tp111
a(I00
g37
tp112
asg22
V[ -nasal -rounded ]
p113
sbsg22
Nsba(irule
Rule
p114
(dp115
g15
(irule
Guard
p116
(dp117
g18
I01
sg19
(lp118
sg21
I00
sg22
Nsg23
I00
sg24
S'L'
sbsg25
(irule
EmptySpecification
p119
(dp120
bsg28
(irule
Guard
p121
(dp122
g18
I00
sg19
(lp123
(irule
FeatureMatrix
p124
(dp125
g35
(lp126
(I00
S'tense'
p127
tp128
asg22
V[ -tense ]
p129
sbasg21
I00
sg22
Nsg23
I00
sg24
S'R'
sbsg32
(irule
FeatureMatrix
p130
(dp131
g35
(lp132
sg22
V[  ]
p133
sbsg22
Nsba(irule
Rule
p134
(dp135
g15
(irule
Guard
p136
(dp137
g18
I01
sg19
(lp138
sg21
I00
sg22
Nsg23
I00
sg24
S'L'
sbsg25
(irule
EmptySpecification
p139
(dp140
bsg28
(irule
Guard
p141
(dp142
g18
I00
sg19
(lp143
sg21
I00
sg22
Nsg23
I00
sg24
S'R'
sbsg32
(irule
FeatureMatrix
p144
(dp145
g35
(lp146
(I00
g37
tp147
a(I00
S'low'
p148
tp149
asg22
V[ -low -nasal ]
p150
sbsg22
Nsba(irule
Rule
p151
(dp152
g15
(irule
Guard
p153
(dp154
g18
I01
sg19
(lp155
sg21
I00
sg22
Nsg23
I00
sg24
S'L'
sbsg25
(irule
EmptySpecification
p156
(dp157
bsg28
(irule
Guard
p158
(dp159
g18
I00
sg19
(lp160
sg21
I00
sg22
Nsg23
I00
sg24
S'R'
sbsg32
(irule
FeatureMatrix
p161
(dp162
g35
(lp163
(I00
g37
tp164
a(I00
g127
tp165
asg22
V[ -nasal -tense ]
p166
sbsg22
Nsba(irule
Rule
p167
(dp168
g15
(irule
Guard
p169
(dp170
g18
I01
sg19
(lp171
sg21
I00
sg22
Nsg23
I00
sg24
S'L'
sbsg25
(irule
EmptySpecification
p172
(dp173
bsg28
(irule
Guard
p174
(dp175
g18
I00
sg19
(lp176
(irule
FeatureMatrix
p177
(dp178
g35
(lp179
(I00
S'sonorant'
p180
tp181
asg22
V[ -sonorant ]
p182
sbasg21
I00
sg22
Nsg23
I00
sg24
S'R'
sbsg32
(irule
FeatureMatrix
p183
(dp184
g35
(lp185
sg22
V[  ]
p186
sbsg22
Nsba(irule
Rule
p187
(dp188
g15
(irule
Guard
p189
(dp190
g18
I01
sg19
(lp191
sg21
I00
sg22
Nsg23
I00
sg24
S'L'
sbsg25
(irule
EmptySpecification
p192
(dp193
bsg28
(irule
Guard
p194
(dp195
g18
I00
sg19
(lp196
sg21
I00
sg22
Nsg23
I00
sg24
S'R'
sbsg32
(irule
FeatureMatrix
p197
(dp198
g35
(lp199
(I00
g37
tp200
a(I01
S'voice'
p201
tp202
asg22
V[ +voice -nasal ]
p203
sbsg22
Nsba(irule
Rule
p204
(dp205
g15
(irule
Guard
p206
(dp207
g18
I01
sg19
(lp208
sg21
I00
sg22
Nsg23
I00
sg24
S'L'
sbsg25
(irule
EmptySpecification
p209
(dp210
bsg28
(irule
Guard
p211
(dp212
g18
I00
sg19
(lp213
(irule
FeatureMatrix
p214
(dp215
g35
(lp216
(I00
g148
tp217
asg22
V[ -low ]
p218
sbasg21
I00
sg22
Nsg23
I00
sg24
S'R'
sbsg32
(irule
FeatureMatrix
p219
(dp220
g35
(lp221
sg22
V[  ]
p222
sbsg22
Nsba(irule
Rule
p223
(dp224
g15
(irule
Guard
p225
(dp226
g18
I01
sg19
(lp227
sg21
I00
sg22
Nsg23
I00
sg24
S'L'
sbsg25
(irule
EmptySpecification
p228
(dp229
bsg28
(irule
Guard
p230
(dp231
g18
I00
sg19
(lp232
(irule
FeatureMatrix
p233
(dp234
g35
(lp235
(I00
S'vowel'
p236
tp237
asg22
V[ -vowel ]
p238
sbasg21
I00
sg22
Nsg23
I00
sg24
S'R'
sbsg32
(irule
FeatureMatrix
p239
(dp240
g35
(lp241
sg22
V[  ]
p242
sbsg22
NsbaasbsS'parameters'
p243
g6
(cargparse
Namespace
p244
g8
NtRp245
(dp246
S'restore'
p247
S'experimentOutputs/Odden_2.4_Tibetan_incremental_disableClean=False_features=sophisticated_geometry=True.p'
p248
sS'features'
p249
S'sophisticated'
p250
sS'universal'
p251
S'experimentOutputs/ug0.p'
p252
sS'restrict'
p253
NsS'seed'
p254
S'0'
sS'serial'
p255
I00
sS'alignment'
p256
I00
sS'top'
p257
I10
sS'maximumDepth'
p258
I3
sS'window'
p259
NsS'minimizeBits'
p260
I5
sS'samples'
p261
I30
sS'save'
p262
S'experimentOutputs/Odden_2.4_Tibetan_incremental_disableClean=False_features=sophisticated_geometry=True_expanded.p'
p263
sS'resume'
p264
I00
sS'disableClean'
p265
I00
sS'stemBaseline'
p266
I30
sS'dummy'
p267
I00
sS'task'
p268
S'exact'
p269
sS'geometry'
p270
I01
sS'verbosity'
p271
I0
sS'timeout'
p272
NsS'debug'
p273
NsS'cores'
p274
I40
sg69
S'Odden_2.4_Tibetan'
p275
sS'mergeFrontiers'
p276
I01
sbsb.