(iresult
Result
p1
(dp2
S'startTime'
p3
F1549652870.2182479
sS'problem'
p4
S'Odden_3.1_Kerewe'
p5
sS'solutionSequence'
p6
(lp7
(ccopy_reg
_reconstructor
p8
(csolution
Solution
p9
c__builtin__
object
p10
NtRp11
(dp12
S'rules'
p13
(lp14
sS'prefixes'
p15
(lp16
(imorph
Morph
p17
(dp18
S'phonemes'
p19
(lp20
Vk
aVu
aVb
aVa
asba(imorph
Morph
p21
(dp22
g19
(lp23
Vk
aVu
aVb
aVa
asba(imorph
Morph
p24
(dp25
g19
(lp26
Vk
aVu
aVb
aVa
aVl
aVi
asba(imorph
Morph
p27
(dp28
g19
(lp29
Vk
aVu
aVb
aVa
aVl
aVi
asba(imorph
Morph
p30
(dp31
g19
(lp32
Vk
aVu
aVt
aVu\u0301
p33
aVb
aVa\u0301
p34
asba(imorph
Morph
p35
(dp36
g19
(lp37
Vk
aVu
aVk
aVi\u0301
p38
aVb
ag34
asba(imorph
Morph
p39
(dp40
g19
(lp41
Vk
aVu
aVt
ag33
aVb
ag34
aVl
aVi
asba(imorph
Morph
p42
(dp43
g19
(lp44
Vk
aVu
aVk
ag38
aVt
ag33
aVb
aVa
aVl
aVi
asbasS'underlyingForms'
p45
(dp46
((imorph
Morph
(dp47
g19
(lp48
Vk
aVu
aVb
aVa
aVl
aVa
asb(imorph
Morph
(dp49
g19
(lp50
Vk
aVu
aVb
aVa
aVl
aVa
aVn
aVa
asb(imorph
Morph
(dp51
g19
(lp52
Vk
aVu
aVb
aVa
aVl
aVi
aVl
aVa
asb(imorph
Morph
(dp53
g19
(lp54
Vk
aVu
aVb
aVa
aVl
aVi
aVl
aVa
aVn
aVa
asb(imorph
Morph
(dp55
g19
(lp56
Vk
aVu
aVt
aVu\u0301
p57
aVb
aVa\u0301
p58
aVl
aVa
asb(imorph
Morph
(dp59
g19
(lp60
Vk
aVu
aVk
aVi\u0301
p61
aVb
aVa\u0301
p62
aVl
aVa
asb(imorph
Morph
(dp63
g19
(lp64
Vk
aVu
aVt
aVu\u0301
p65
aVb
aVa\u0301
p66
aVl
aVi
aVl
aVa
asb(imorph
Morph
(dp67
g19
(lp68
Vk
aVu
aVk
aVi\u0301
p69
aVt
aVu\u0301
p70
aVb
aVa
aVl
aVi
aVl
aVa
asbtp71
(imorph
Morph
p72
(dp73
g19
(lp74
Vl
aVa
asbssS'suffixes'
p75
(lp76
(imorph
Morph
p77
(dp78
g19
(lp79
sba(imorph
Morph
p80
(dp81
g19
(lp82
Vn
aVa
asba(imorph
Morph
p83
(dp84
g19
(lp85
sba(imorph
Morph
p86
(dp87
g19
(lp88
Vn
aVa
asba(imorph
Morph
p89
(dp90
g19
(lp91
sba(imorph
Morph
p92
(dp93
g19
(lp94
sba(imorph
Morph
p95
(dp96
g19
(lp97
sba(imorph
Morph
p98
(dp99
g19
(lp100
sbasbF131.51499915122986
tp101
a(g8
(g9
g10
NtRp102
(dp103
g13
(lp104
(irule
Rule
p105
(dp106
S'leftTriggers'
p107
(irule
Guard
p108
(dp109
S'endOfString'
p110
I00
sS'specifications'
p111
(lp112
(irule
FeatureMatrix
p113
(dp114
S'featuresAndPolarities'
p115
(lp116
sS'representation'
p117
V[  ]
p118
sba(irule
FeatureMatrix
p119
(dp120
g115
(lp121
(I01
S'highTone'
p122
tp123
asg117
V[ +highTone ]
p124
sbasS'optionalEnding'
p125
I00
sg117
V[ +highTone ] [  ]
p126
sS'starred'
p127
I00
sS'side'
p128
S'L'
sbsS'structuralChange'
p129
(irule
FeatureMatrix
p130
(dp131
g115
(lp132
(I01
g122
tp133
asg117
V[ +highTone ]
p134
sbsS'rightTriggers'
p135
(irule
Guard
p136
(dp137
g110
I00
sg111
(lp138
sg125
I00
sg117
V
sg127
I00
sg128
S'R'
sbsS'focus'
p139
(irule
FeatureMatrix
p140
(dp141
g115
(lp142
sg117
V[  ]
p143
sbsg117
V[  ] ---> [ +highTone ] / [ +highTone ] [  ] _ 
p144
sbasg15
(lp145
(imorph
Morph
p146
(dp147
g19
(lp148
Vk
aVu
asba(imorph
Morph
p149
(dp150
g19
(lp151
Vk
aVu
asba(imorph
Morph
p152
(dp153
g19
(lp154
Vk
aVu
asba(imorph
Morph
p155
(dp156
g19
(lp157
Vk
aVu
asba(imorph
Morph
p158
(dp159
g19
(lp160
Vk
aVu
aVt
aVu\u0301
p161
asba(imorph
Morph
p162
(dp163
g19
(lp164
Vk
aVu
aVk
aVi\u0301
p165
asba(imorph
Morph
p166
(dp167
g19
(lp168
Vk
aVu
aVt
ag161
asba(imorph
Morph
p169
(dp170
g19
(lp171
Vk
aVu
aVk
ag165
aVt
aVu
asbasg45
(dp172
((imorph
Morph
(dp173
g19
(lp174
Vk
aVu
aVb
aVa
aVl
aVa
asb(imorph
Morph
(dp175
g19
(lp176
Vk
aVu
aVb
aVa
aVl
aVa
aVn
aVa
asb(imorph
Morph
(dp177
g19
(lp178
Vk
aVu
aVb
aVa
aVl
aVi
aVl
aVa
asb(imorph
Morph
(dp179
g19
(lp180
Vk
aVu
aVb
aVa
aVl
aVi
aVl
aVa
aVn
aVa
asb(imorph
Morph
(dp181
g19
(lp182
Vk
aVu
aVt
aVu\u0301
p183
aVb
aVa\u0301
p184
aVl
aVa
asb(imorph
Morph
(dp185
g19
(lp186
Vk
aVu
aVk
aVi\u0301
p187
aVb
aVa\u0301
p188
aVl
aVa
asb(imorph
Morph
(dp189
g19
(lp190
Vk
aVu
aVt
aVu\u0301
p191
aVb
aVa\u0301
p192
aVl
aVi
aVl
aVa
asb(imorph
Morph
(dp193
g19
(lp194
Vk
aVu
aVk
aVi\u0301
p195
aVt
aVu\u0301
p196
aVb
aVa
aVl
aVi
aVl
aVa
asbtp197
(imorph
Morph
p198
(dp199
g19
(lp200
Vb
aVa
aVl
asbs((imorph
Morph
(dp201
g19
(lp202
Vk
aVu
aVg
aVa
aVy
aVa
asb(imorph
Morph
(dp203
g19
(lp204
Vk
aVu
aVg
aVa
aVy
aVa
aVn
aVa
asb(imorph
Morph
(dp205
g19
(lp206
Vk
aVu
aVg
aVa
aVy
aVi
aVl
aVa
asb(imorph
Morph
(dp207
g19
(lp208
Vk
aVu
aVg
aVa
aVy
aVi
aVl
aVa
aVn
aVa
asb(imorph
Morph
(dp209
g19
(lp210
Vk
aVu
aVt
aVu\u0301
p211
aVg
aVa\u0301
p212
aVy
aVa
asb(imorph
Morph
(dp213
g19
(lp214
Vk
aVu
aVk
aVi\u0301
p215
aVg
aVa\u0301
p216
aVy
aVa
asb(imorph
Morph
(dp217
g19
(lp218
Vk
aVu
aVt
aVu\u0301
p219
aVg
aVa\u0301
p220
aVy
aVi
aVl
aVa
asb(imorph
Morph
(dp221
g19
(lp222
Vk
aVu
aVk
aVi\u0301
p223
aVt
aVu\u0301
p224
aVg
aVa
aVy
aVi
aVl
aVa
asbtp225
(imorph
Morph
p226
(dp227
g19
(lp228
Vg
aVa
aVy
asbssg75
(lp229
(imorph
Morph
p230
(dp231
g19
(lp232
Va
asba(imorph
Morph
p233
(dp234
g19
(lp235
Va
aVn
aVa
asba(imorph
Morph
p236
(dp237
g19
(lp238
Vi
aVl
aVa
asba(imorph
Morph
p239
(dp240
g19
(lp241
Vi
aVl
aVa
aVn
aVa
asba(imorph
Morph
p242
(dp243
g19
(lp244
Va
asba(imorph
Morph
p245
(dp246
g19
(lp247
Va
asba(imorph
Morph
p248
(dp249
g19
(lp250
Vi
aVl
aVa
asba(imorph
Morph
p251
(dp252
g19
(lp253
Vi
aVl
aVa
asbasbF960.04729700088501
tp254
a(g8
(g9
g10
NtRp255
(dp256
g13
(lp257
(irule
Rule
p258
(dp259
g107
(irule
Guard
p260
(dp261
g110
I00
sg111
(lp262
(irule
FeatureMatrix
p263
(dp264
g115
(lp265
sg117
V[  ]
p266
sba(irule
FeatureMatrix
p267
(dp268
g115
(lp269
(I01
S'highTone'
p270
tp271
asg117
V[ +highTone ]
p272
sbasg125
I00
sg117
V[ +highTone ] [  ]
p273
sg127
I00
sg128
S'L'
sbsg129
(irule
FeatureMatrix
p274
(dp275
g115
(lp276
(I00
g270
tp277
asg117
V[ -highTone ]
p278
sbsg135
(irule
Guard
p279
(dp280
g110
I00
sg111
(lp281
sg125
I00
sg117
V
sg127
I00
sg128
S'R'
sbsg139
(irule
FeatureMatrix
p282
(dp283
g115
(lp284
sg117
V[  ]
p285
sbsg117
V[  ] ---> [ -highTone ] / [ +highTone ] [  ] _ 
p286
sba(irule
Rule
p287
(dp288
g107
(irule
Guard
p289
(dp290
g110
I00
sg111
(lp291
(irule
FeatureMatrix
p292
(dp293
g115
(lp294
sg117
V[  ]
p295
sba(irule
FeatureMatrix
p296
(dp297
g115
(lp298
(I01
g270
tp299
asg117
V[ +highTone ]
p300
sbasg125
I00
sg117
V[ +highTone ] [  ]
p301
sg127
I00
sg128
S'L'
sbsg129
(irule
FeatureMatrix
p302
(dp303
g115
(lp304
(I01
g270
tp305
asg117
V[ +highTone ]
p306
sbsg135
(irule
Guard
p307
(dp308
g110
I00
sg111
(lp309
(irule
FeatureMatrix
p310
(dp311
g115
(lp312
sg117
V[  ]
p313
sbasg125
I00
sg117
g313
sg127
I00
sg128
S'R'
sbsg139
(irule
FeatureMatrix
p314
(dp315
g115
(lp316
sg117
V[  ]
p317
sbsg117
V[  ] ---> [ +highTone ] / [ +highTone ] [  ] _ [  ]
p318
sbasg15
(lp319
(imorph
Morph
p320
(dp321
g19
(lp322
Vk
aVu
asba(imorph
Morph
p323
(dp324
g19
(lp325
Vk
aVu
asba(imorph
Morph
p326
(dp327
g19
(lp328
Vk
aVu
asba(imorph
Morph
p329
(dp330
g19
(lp331
Vk
aVu
asba(imorph
Morph
p332
(dp333
g19
(lp334
Vk
aVu
aVt
aVu\u0301
p335
asba(imorph
Morph
p336
(dp337
g19
(lp338
Vk
aVu
aVk
aVi\u0301
p339
asba(imorph
Morph
p340
(dp341
g19
(lp342
Vk
aVu
aVt
ag335
asba(imorph
Morph
p343
(dp344
g19
(lp345
Vk
aVu
aVk
ag339
aVt
ag335
asbasg45
(dp346
((imorph
Morph
(dp347
g19
(lp348
Vk
aVu
aVb
aVa\u0301
p349
aVl
aVa
asb(imorph
Morph
(dp350
g19
(lp351
Vk
aVu
aVb
aVa\u0301
p352
aVl
aVa\u0301
p353
aVn
aVa
asb(imorph
Morph
(dp354
g19
(lp355
Vk
aVu
aVb
aVa\u0301
p356
aVl
aVi\u0301
p357
aVl
aVa
asb(imorph
Morph
(dp358
g19
(lp359
Vk
aVu
aVb
aVa\u0301
p360
aVl
aVi\u0301
p361
aVl
aVa
aVn
aVa
asb(imorph
Morph
(dp362
g19
(lp363
Vk
aVu
aVt
aVu\u0301
p364
aVb
aVa\u0301
p365
aVl
aVa
asb(imorph
Morph
(dp366
g19
(lp367
Vk
aVu
aVk
aVi\u0301
p368
aVb
aVa\u0301
p369
aVl
aVa
asb(imorph
Morph
(dp370
g19
(lp371
Vk
aVu
aVt
aVu\u0301
p372
aVb
aVa\u0301
p373
aVl
aVi
aVl
aVa
asb(imorph
Morph
(dp374
g19
(lp375
Vk
aVu
aVk
aVi\u0301
p376
aVt
aVu\u0301
p377
aVb
aVa
aVl
aVi
aVl
aVa
asbtp378
(imorph
Morph
p379
(dp380
g19
(lp381
Vb
aVa\u0301
p382
aVl
asbs((imorph
Morph
(dp383
g19
(lp384
Vk
aVu
aVg
aVa
aVy
aVa
asb(imorph
Morph
(dp385
g19
(lp386
Vk
aVu
aVg
aVa
aVy
aVa
aVn
aVa
asb(imorph
Morph
(dp387
g19
(lp388
Vk
aVu
aVg
aVa
aVy
aVi
aVl
aVa
asb(imorph
Morph
(dp389
g19
(lp390
Vk
aVu
aVg
aVa
aVy
aVi
aVl
aVa
aVn
aVa
asb(imorph
Morph
(dp391
g19
(lp392
Vk
aVu
aVt
aVu\u0301
p393
aVg
aVa\u0301
p394
aVy
aVa
asb(imorph
Morph
(dp395
g19
(lp396
Vk
aVu
aVk
aVi\u0301
p397
aVg
aVa\u0301
p398
aVy
aVa
asb(imorph
Morph
(dp399
g19
(lp400
Vk
aVu
aVt
aVu\u0301
p401
aVg
aVa\u0301
p402
aVy
aVi
aVl
aVa
asb(imorph
Morph
(dp403
g19
(lp404
Vk
aVu
aVk
aVi\u0301
p405
aVt
aVu\u0301
p406
aVg
aVa
aVy
aVi
aVl
aVa
asbtp407
(imorph
Morph
p408
(dp409
g19
(lp410
Vg
aVa
aVy
asbs((imorph
Morph
(dp411
g19
(lp412
Vk
aVu
aVb
aVa
aVl
aVa
asb(imorph
Morph
(dp413
g19
(lp414
Vk
aVu
aVb
aVa
aVl
aVa
aVn
aVa
asb(imorph
Morph
(dp415
g19
(lp416
Vk
aVu
aVb
aVa
aVl
aVi
aVl
aVa
asb(imorph
Morph
(dp417
g19
(lp418
Vk
aVu
aVb
aVa
aVl
aVi
aVl
aVa
aVn
aVa
asb(imorph
Morph
(dp419
g19
(lp420
Vk
aVu
aVt
aVu\u0301
p421
aVb
aVa\u0301
p422
aVl
aVa
asb(imorph
Morph
(dp423
g19
(lp424
Vk
aVu
aVk
aVi\u0301
p425
aVb
aVa\u0301
p426
aVl
aVa
asb(imorph
Morph
(dp427
g19
(lp428
Vk
aVu
aVt
aVu\u0301
p429
aVb
aVa\u0301
p430
aVl
aVi
aVl
aVa
asb(imorph
Morph
(dp431
g19
(lp432
Vk
aVu
aVk
aVi\u0301
p433
aVt
aVu\u0301
p434
aVb
aVa
aVl
aVi
aVl
aVa
asbtp435
(imorph
Morph
p436
(dp437
g19
(lp438
Vb
aVa
aVl
asbs((imorph
Morph
(dp439
g19
(lp440
Vk
aVu
aVg
aVu
aVl
aVa
asb(imorph
Morph
(dp441
g19
(lp442
Vk
aVu
aVg
aVu
aVl
aVa
aVn
aVa
asb(imorph
Morph
(dp443
g19
(lp444
Vk
aVu
aVg
aVu
aVl
aVi
aVl
aVa
asb(imorph
Morph
(dp445
g19
(lp446
Vk
aVu
aVg
aVu
aVl
aVi
aVl
aVa
aVn
aVa
asb(imorph
Morph
(dp447
g19
(lp448
Vk
aVu
aVt
aVu\u0301
p449
aVg
aVu\u0301
p450
aVl
aVa
asb(imorph
Morph
(dp451
g19
(lp452
Vk
aVu
aVk
aVi\u0301
p453
aVg
aVu\u0301
p454
aVl
aVa
asb(imorph
Morph
(dp455
g19
(lp456
Vk
aVu
aVt
aVu\u0301
p457
aVg
aVu\u0301
p458
aVl
aVi
aVl
aVa
asb(imorph
Morph
(dp459
g19
(lp460
Vk
aVu
aVk
aVi\u0301
p461
aVt
aVu\u0301
p462
aVg
aVu
aVl
aVi
aVl
aVa
asbtp463
(imorph
Morph
p464
(dp465
g19
(lp466
Vg
aVu
aVl
asbssg75
(lp467
(imorph
Morph
p468
(dp469
g19
(lp470
Va
asba(imorph
Morph
p471
(dp472
g19
(lp473
Va
aVn
aVa
asba(imorph
Morph
p474
(dp475
g19
(lp476
Vi
aVl
aVa
asba(imorph
Morph
p477
(dp478
g19
(lp479
Vi
aVl
aVa
aVn
aVa
asba(imorph
Morph
p480
(dp481
g19
(lp482
Va
asba(imorph
Morph
p483
(dp484
g19
(lp485
Va
asba(imorph
Morph
p486
(dp487
g19
(lp488
Vi
aVl
aVa
asba(imorph
Morph
p489
(dp490
g19
(lp491
Vi
aVl
aVa
asbasbF38381.787703037262
tp492
asS'finalFrontier'
p493
g8
(csolution
Frontier
p494
g10
NtRp495
(dp496
g15
g319
sg75
g467
sg45
(dp497
((imorph
Morph
(dp498
g19
(lp499
Vk
aVu
aVg
aVa
aVy
aVa
asb(imorph
Morph
(dp500
g19
(lp501
Vk
aVu
aVg
aVa
aVy
aVa
aVn
aVa
asb(imorph
Morph
(dp502
g19
(lp503
Vk
aVu
aVg
aVa
aVy
aVi
aVl
aVa
asb(imorph
Morph
(dp504
g19
(lp505
Vk
aVu
aVg
aVa
aVy
aVi
aVl
aVa
aVn
aVa
asb(imorph
Morph
(dp506
g19
(lp507
Vk
aVu
aVt
aVu\u0301
p508
aVg
aVa\u0301
p509
aVy
aVa
asb(imorph
Morph
(dp510
g19
(lp511
Vk
aVu
aVk
aVi\u0301
p512
aVg
aVa\u0301
p513
aVy
aVa
asb(imorph
Morph
(dp514
g19
(lp515
Vk
aVu
aVt
aVu\u0301
p516
aVg
aVa\u0301
p517
aVy
aVi
aVl
aVa
asb(imorph
Morph
(dp518
g19
(lp519
Vk
aVu
aVk
aVi\u0301
p520
aVt
aVu\u0301
p521
aVg
aVa
aVy
aVi
aVl
aVa
asbtp522
(imorph
Morph
p523
(dp524
g19
(lp525
Vg
aVa
aVy
asbs((imorph
Morph
(dp526
g19
(lp527
Vk
aVu
aVg
aVu
aVl
aVa
asb(imorph
Morph
(dp528
g19
(lp529
Vk
aVu
aVg
aVu
aVl
aVa
aVn
aVa
asb(imorph
Morph
(dp530
g19
(lp531
Vk
aVu
aVg
aVu
aVl
aVi
aVl
aVa
asb(imorph
Morph
(dp532
g19
(lp533
Vk
aVu
aVg
aVu
aVl
aVi
aVl
aVa
aVn
aVa
asb(imorph
Morph
(dp534
g19
(lp535
Vk
aVu
aVt
aVu\u0301
p536
aVg
aVu\u0301
p537
aVl
aVa
asb(imorph
Morph
(dp538
g19
(lp539
Vk
aVu
aVk
aVi\u0301
p540
aVg
aVu\u0301
p541
aVl
aVa
asb(imorph
Morph
(dp542
g19
(lp543
Vk
aVu
aVt
aVu\u0301
p544
aVg
aVu\u0301
p545
aVl
aVi
aVl
aVa
asb(imorph
Morph
(dp546
g19
(lp547
Vk
aVu
aVk
aVi\u0301
p548
aVt
aVu\u0301
p549
aVg
aVu
aVl
aVi
aVl
aVa
asbtp550
(imorph
Morph
p551
(dp552
g19
(lp553
Vg
aVu
aVl
asbs((imorph
Morph
(dp554
g19
(lp555
Vk
aVu
aVl
aVa\u0301
p556
aVb
aVa
asb(imorph
Morph
(dp557
g19
(lp558
Vk
aVu
aVl
aVa\u0301
p559
aVb
aVa\u0301
p560
aVn
aVa
asb(imorph
Morph
(dp561
g19
(lp562
Vk
aVu
aVl
aVa\u0301
p563
aVb
aVi\u0301
p564
aVl
aVa
asb(imorph
Morph
(dp565
g19
(lp566
Vk
aVu
aVl
aVa\u0301
p567
aVb
aVi\u0301
p568
aVl
aVa
aVn
aVa
asb(imorph
Morph
(dp569
g19
(lp570
Vk
aVu
aVt
aVu\u0301
p571
aVl
aVa\u0301
p572
aVb
aVa
asb(imorph
Morph
(dp573
g19
(lp574
Vk
aVu
aVk
aVi\u0301
p575
aVl
aVa\u0301
p576
aVb
aVa
asb(imorph
Morph
(dp577
g19
(lp578
Vk
aVu
aVt
aVu\u0301
p579
aVl
aVa\u0301
p580
aVb
aVi
aVl
aVa
asb(imorph
Morph
(dp581
g19
(lp582
Vk
aVu
aVk
aVi\u0301
p583
aVt
aVu\u0301
p584
aVl
aVa
aVb
aVi
aVl
aVa
asbtp585
(imorph
Morph
p586
(dp587
g19
(lp588
Vl
aVa\u0301
p589
aVb
asbs((imorph
Morph
(dp590
g19
(lp591
Vk
aVu
aVl
aVu\u0301
p592
aVm
aVa
asb(imorph
Morph
(dp593
g19
(lp594
Vk
aVu
aVl
aVu\u0301
p595
aVm
aVa\u0301
p596
aVn
aVa
asb(imorph
Morph
(dp597
g19
(lp598
Vk
aVu
aVl
aVu\u0301
p599
aVm
aVi\u0301
p600
aVl
aVa
asb(imorph
Morph
(dp601
g19
(lp602
Vk
aVu
aVl
aVu\u0301
p603
aVm
aVi\u0301
p604
aVl
aVa
aVn
aVa
asb(imorph
Morph
(dp605
g19
(lp606
Vk
aVu
aVt
aVu\u0301
p607
aVl
aVu\u0301
p608
aVm
aVa
asb(imorph
Morph
(dp609
g19
(lp610
Vk
aVu
aVk
aVi\u0301
p611
aVl
aVu\u0301
p612
aVm
aVa
asb(imorph
Morph
(dp613
g19
(lp614
Vk
aVu
aVt
aVu\u0301
p615
aVl
aVu\u0301
p616
aVm
aVi
aVl
aVa
asb(imorph
Morph
(dp617
g19
(lp618
Vk
aVu
aVk
aVi\u0301
p619
aVt
aVu\u0301
p620
aVl
aVu
aVm
aVi
aVl
aVa
asbtp621
(imorph
Morph
p622
(dp623
g19
(lp624
Vl
aVu\u0301
p625
aVm
asbs((imorph
Morph
(dp626
g19
(lp627
Vk
aVu
aVb
aVa
aVl
aVa
asb(imorph
Morph
(dp628
g19
(lp629
Vk
aVu
aVb
aVa
aVl
aVa
aVn
aVa
asb(imorph
Morph
(dp630
g19
(lp631
Vk
aVu
aVb
aVa
aVl
aVi
aVl
aVa
asb(imorph
Morph
(dp632
g19
(lp633
Vk
aVu
aVb
aVa
aVl
aVi
aVl
aVa
aVn
aVa
asb(imorph
Morph
(dp634
g19
(lp635
Vk
aVu
aVt
aVu\u0301
p636
aVb
aVa\u0301
p637
aVl
aVa
asb(imorph
Morph
(dp638
g19
(lp639
Vk
aVu
aVk
aVi\u0301
p640
aVb
aVa\u0301
p641
aVl
aVa
asb(imorph
Morph
(dp642
g19
(lp643
Vk
aVu
aVt
aVu\u0301
p644
aVb
aVa\u0301
p645
aVl
aVi
aVl
aVa
asb(imorph
Morph
(dp646
g19
(lp647
Vk
aVu
aVk
aVi\u0301
p648
aVt
aVu\u0301
p649
aVb
aVa
aVl
aVi
aVl
aVa
asbtp650
(imorph
Morph
p651
(dp652
g19
(lp653
Vb
aVa
aVl
asbs((imorph
Morph
(dp654
g19
(lp655
Vk
aVu
aVb
aVa\u0301
p656
aVl
aVa
asb(imorph
Morph
(dp657
g19
(lp658
Vk
aVu
aVb
aVa\u0301
p659
aVl
aVa\u0301
p660
aVn
aVa
asb(imorph
Morph
(dp661
g19
(lp662
Vk
aVu
aVb
aVa\u0301
p663
aVl
aVi\u0301
p664
aVl
aVa
asb(imorph
Morph
(dp665
g19
(lp666
Vk
aVu
aVb
aVa\u0301
p667
aVl
aVi\u0301
p668
aVl
aVa
aVn
aVa
asb(imorph
Morph
(dp669
g19
(lp670
Vk
aVu
aVt
aVu\u0301
p671
aVb
aVa\u0301
p672
aVl
aVa
asb(imorph
Morph
(dp673
g19
(lp674
Vk
aVu
aVk
aVi\u0301
p675
aVb
aVa\u0301
p676
aVl
aVa
asb(imorph
Morph
(dp677
g19
(lp678
Vk
aVu
aVt
aVu\u0301
p679
aVb
aVa\u0301
p680
aVl
aVi
aVl
aVa
asb(imorph
Morph
(dp681
g19
(lp682
Vk
aVu
aVk
aVi\u0301
p683
aVt
aVu\u0301
p684
aVb
aVa
aVl
aVi
aVl
aVa
asbtp685
(imorph
Morph
p686
(dp687
g19
(lp688
Vb
ag589
aVl
asbs((imorph
Morph
(dp689
g19
(lp690
Vk
aVu
aVs
aVu\u0301
p691
aVn
aVa
asb(imorph
Morph
(dp692
g19
(lp693
Vk
aVu
aVs
aVu\u0301
p694
aVn
aVa\u0301
p695
aVn
aVa
asb(imorph
Morph
(dp696
g19
(lp697
Vk
aVu
aVs
aVu\u0301
p698
aVn
aVi\u0301
p699
aVl
aVa
asb(imorph
Morph
(dp700
g19
(lp701
Vk
aVu
aVs
aVu\u0301
p702
aVn
aVi\u0301
p703
aVl
aVa
aVn
aVa
asb(imorph
Morph
(dp704
g19
(lp705
Vk
aVu
aVt
aVu\u0301
p706
aVs
aVu\u0301
p707
aVn
aVa
asb(imorph
Morph
(dp708
g19
(lp709
Vk
aVu
aVk
aVi\u0301
p710
aVs
aVu\u0301
p711
aVn
aVa
asb(imorph
Morph
(dp712
g19
(lp713
Vk
aVu
aVt
aVu\u0301
p714
aVs
aVu\u0301
p715
aVn
aVi
aVl
aVa
asb(imorph
Morph
(dp716
g19
(lp717
Vk
aVu
aVk
aVi\u0301
p718
aVt
aVu\u0301
p719
aVs
aVu
aVn
aVi
aVl
aVa
asbtp720
(imorph
Morph
p721
(dp722
g19
(lp723
Vs
ag625
aVn
asbssS'frontiers'
p724
(lp725
(lp726
(irule
Rule
p727
(dp728
g107
(irule
Guard
p729
(dp730
g110
I00
sg111
(lp731
(irule
FeatureMatrix
p732
(dp733
g115
(lp734
sg117
V[  ]
p735
sba(irule
FeatureMatrix
p736
(dp737
g115
(lp738
(I01
S'highTone'
p739
tp740
asg117
V[ +highTone ]
p741
sbasg125
I00
sg117
V[ +highTone ] [  ]
p742
sg127
I00
sg128
S'L'
sbsg129
(irule
FeatureMatrix
p743
(dp744
g115
(lp745
(I00
g739
tp746
asg117
V[ -highTone ]
p747
sbsg135
(irule
Guard
p748
(dp749
g110
I00
sg111
(lp750
sg125
I00
sg117
V
sg127
I00
sg128
S'R'
sbsg139
(irule
FeatureMatrix
p751
(dp752
g115
(lp753
sg117
V[  ]
p754
sbsg117
V[  ] ---> [ -highTone ] / [ +highTone ] [  ] _ 
p755
sba(irule
Rule
p756
(dp757
g107
(irule
Guard
p758
(dp759
g110
I00
sg111
(lp760
(irule
FeatureMatrix
p761
(dp762
g115
(lp763
sg117
V[  ]
p764
sba(irule
FeatureMatrix
p765
(dp766
g115
(lp767
(I01
S'highTone'
p768
tp769
asg117
V[ +highTone ]
p770
sbasg125
I00
sg117
V[ +highTone ] [  ]*
p771
sg127
I01
sg128
S'L'
sbsg129
(irule
FeatureMatrix
p772
(dp773
g115
(lp774
(I00
g768
tp775
asg117
V[ -highTone ]
p776
sbsg135
(irule
Guard
p777
(dp778
g110
I00
sg111
(lp779
sg125
I00
sg117
V
sg127
I00
sg128
S'R'
sbsg139
(irule
FeatureMatrix
p780
(dp781
g115
(lp782
sg117
V[  ]
p783
sbsg117
V[  ] ---> [ -highTone ] / [ +highTone ] [  ]* _ 
p784
sba(irule
Rule
p785
(dp786
g107
(irule
Guard
p787
(dp788
g110
I00
sg111
(lp789
(irule
FeatureMatrix
p790
(dp791
g115
(lp792
(I00
S'back'
p793
tp794
asg117
V[ -back ]
p795
sba(irule
FeatureMatrix
p796
(dp797
g115
(lp798
(I01
g768
tp799
asg117
V[ +highTone ]
p800
sbasg125
I00
sg117
V[ +highTone ] [ -back ]
p801
sg127
I00
sg128
S'L'
sbsg129
(irule
FeatureMatrix
p802
(dp803
g115
(lp804
(I00
g768
tp805
asg117
V[ -highTone ]
p806
sbsg135
(irule
Guard
p807
(dp808
g110
I00
sg111
(lp809
sg125
I00
sg117
V
sg127
I00
sg128
S'R'
sbsg139
(irule
FeatureMatrix
p810
(dp811
g115
(lp812
sg117
V[  ]
p813
sbsg117
V[  ] ---> [ -highTone ] / [ +highTone ] [ -back ] _ 
p814
sba(irule
Rule
p815
(dp816
g107
(irule
Guard
p817
(dp818
g110
I00
sg111
(lp819
(irule
FeatureMatrix
p820
(dp821
g115
(lp822
sg117
V[  ]
p823
sba(irule
FeatureMatrix
p824
(dp825
g115
(lp826
(I01
g768
tp827
asg117
V[ +highTone ]
p828
sbasg125
I00
sg117
V[ +highTone ] [  ]
p829
sg127
I00
sg128
S'L'
sbsg129
(irule
FeatureMatrix
p830
(dp831
g115
(lp832
(I00
g768
tp833
a(I00
S'sibilant'
p834
tp835
asg117
V[ -highTone -sibilant ]
p836
sbsg135
(irule
Guard
p837
(dp838
g110
I00
sg111
(lp839
sg125
I00
sg117
V
sg127
I00
sg128
S'R'
sbsg139
(irule
FeatureMatrix
p840
(dp841
g115
(lp842
sg117
V[  ]
p843
sbsg117
V[  ] ---> [ -highTone -sibilant ] / [ +highTone ] [  ] _ 
p844
sba(irule
Rule
p845
(dp846
g107
(irule
Guard
p847
(dp848
g110
I00
sg111
(lp849
(irule
FeatureMatrix
p850
(dp851
g115
(lp852
sg117
V[  ]
p853
sba(irule
FeatureMatrix
p854
(dp855
g115
(lp856
(I01
g768
tp857
a(I00
S'low'
p858
tp859
asg117
V[ +highTone -low ]
p860
sbasg125
I00
sg117
V[ +highTone -low ] [  ]
p861
sg127
I00
sg128
S'L'
sbsg129
(irule
FeatureMatrix
p862
(dp863
g115
(lp864
(I00
g768
tp865
asg117
V[ -highTone ]
p866
sbsg135
(irule
Guard
p867
(dp868
g110
I00
sg111
(lp869
sg125
I00
sg117
V
sg127
I00
sg128
S'R'
sbsg139
(irule
FeatureMatrix
p870
(dp871
g115
(lp872
sg117
V[  ]
p873
sbsg117
V[  ] ---> [ -highTone ] / [ +highTone -low ] [  ] _ 
p874
sba(irule
Rule
p875
(dp876
g107
(irule
Guard
p877
(dp878
g110
I00
sg111
(lp879
(irule
FeatureMatrix
p880
(dp881
g115
(lp882
(I00
g768
tp883
asg117
V[ -highTone ]
p884
sba(irule
FeatureMatrix
p885
(dp886
g115
(lp887
(I01
g768
tp888
asg117
V[ +highTone ]
p889
sbasg125
I00
sg117
V[ +highTone ] [ -highTone ]
p890
sg127
I00
sg128
S'L'
sbsg129
(irule
FeatureMatrix
p891
(dp892
g115
(lp893
(I00
g768
tp894
asg117
V[ -highTone ]
p895
sbsg135
(irule
Guard
p896
(dp897
g110
I00
sg111
(lp898
sg125
I00
sg117
V
sg127
I00
sg128
S'R'
sbsg139
(irule
FeatureMatrix
p899
(dp900
g115
(lp901
sg117
V[  ]
p902
sbsg117
V[  ] ---> [ -highTone ] / [ +highTone ] [ -highTone ] _ 
p903
sba(irule
Rule
p904
(dp905
g107
(irule
Guard
p906
(dp907
g110
I00
sg111
(lp908
(irule
FeatureMatrix
p909
(dp910
g115
(lp911
(I00
S'high'
p912
tp913
asg117
V[ -high ]
p914
sba(irule
FeatureMatrix
p915
(dp916
g115
(lp917
(I01
g768
tp918
asg117
V[ +highTone ]
p919
sbasg125
I00
sg117
V[ +highTone ] [ -high ]
p920
sg127
I00
sg128
S'L'
sbsg129
(irule
FeatureMatrix
p921
(dp922
g115
(lp923
(I00
g768
tp924
asg117
V[ -highTone ]
p925
sbsg135
(irule
Guard
p926
(dp927
g110
I00
sg111
(lp928
sg125
I00
sg117
V
sg127
I00
sg128
S'R'
sbsg139
(irule
FeatureMatrix
p929
(dp930
g115
(lp931
sg117
V[  ]
p932
sbsg117
V[  ] ---> [ -highTone ] / [ +highTone ] [ -high ] _ 
p933
sba(irule
Rule
p934
(dp935
g107
(irule
Guard
p936
(dp937
g110
I00
sg111
(lp938
(irule
FeatureMatrix
p939
(dp940
g115
(lp941
sg117
V[  ]
p942
sba(irule
FeatureMatrix
p943
(dp944
g115
(lp945
(I00
S'anterior'
p946
tp947
a(I01
g768
tp948
asg117
V[ +highTone -anterior ]
p949
sbasg125
I00
sg117
V[ +highTone -anterior ] [  ]
p950
sg127
I00
sg128
S'L'
sbsg129
(irule
FeatureMatrix
p951
(dp952
g115
(lp953
(I00
g768
tp954
asg117
V[ -highTone ]
p955
sbsg135
(irule
Guard
p956
(dp957
g110
I00
sg111
(lp958
sg125
I00
sg117
V
sg127
I00
sg128
S'R'
sbsg139
(irule
FeatureMatrix
p959
(dp960
g115
(lp961
sg117
V[  ]
p962
sbsg117
V[  ] ---> [ -highTone ] / [ +highTone -anterior ] [  ] _ 
p963
sba(irule
Rule
p964
(dp965
g107
(irule
Guard
p966
(dp967
g110
I00
sg111
(lp968
(irule
FeatureMatrix
p969
(dp970
g115
(lp971
sg117
V[  ]
p972
sba(irule
FeatureMatrix
p973
(dp974
g115
(lp975
(I00
S'liquid'
p976
tp977
a(I01
g768
tp978
asg117
V[ +highTone -liquid ]
p979
sbasg125
I00
sg117
V[ +highTone -liquid ] [  ]
p980
sg127
I00
sg128
S'L'
sbsg129
(irule
FeatureMatrix
p981
(dp982
g115
(lp983
(I00
g768
tp984
asg117
V[ -highTone ]
p985
sbsg135
(irule
Guard
p986
(dp987
g110
I00
sg111
(lp988
sg125
I00
sg117
V
sg127
I00
sg128
S'R'
sbsg139
(irule
FeatureMatrix
p989
(dp990
g115
(lp991
sg117
V[  ]
p992
sbsg117
V[  ] ---> [ -highTone ] / [ +highTone -liquid ] [  ] _ 
p993
sba(irule
Rule
p994
(dp995
g107
(irule
Guard
p996
(dp997
g110
I00
sg111
(lp998
(irule
FeatureMatrix
p999
(dp1000
g115
(lp1001
(I00
S'vowel'
p1002
tp1003
asg117
V[ -vowel ]
p1004
sba(irule
FeatureMatrix
p1005
(dp1006
g115
(lp1007
(I01
g768
tp1008
asg117
V[ +highTone ]
p1009
sbasg125
I00
sg117
V[ +highTone ] [ -vowel ]
p1010
sg127
I00
sg128
S'L'
sbsg129
(irule
FeatureMatrix
p1011
(dp1012
g115
(lp1013
(I00
g768
tp1014
asg117
V[ -highTone ]
p1015
sbsg135
(irule
Guard
p1016
(dp1017
g110
I00
sg111
(lp1018
sg125
I00
sg117
V
sg127
I00
sg128
S'R'
sbsg139
(irule
FeatureMatrix
p1019
(dp1020
g115
(lp1021
sg117
V[  ]
p1022
sbsg117
V[  ] ---> [ -highTone ] / [ +highTone ] [ -vowel ] _ 
p1023
sba(irule
Rule
p1024
(dp1025
g107
(irule
Guard
p1026
(dp1027
g110
I00
sg111
(lp1028
(irule
FeatureMatrix
p1029
(dp1030
g115
(lp1031
sg117
V[  ]
p1032
sba(irule
FeatureMatrix
p1033
(dp1034
g115
(lp1035
(I01
g768
tp1036
a(I00
S'palletized'
p1037
tp1038
asg117
V[ +highTone -palletized ]
p1039
sbasg125
I00
sg117
V[ +highTone -palletized ] [  ]
p1040
sg127
I00
sg128
S'L'
sbsg129
(irule
FeatureMatrix
p1041
(dp1042
g115
(lp1043
(I00
g768
tp1044
asg117
V[ -highTone ]
p1045
sbsg135
(irule
Guard
p1046
(dp1047
g110
I00
sg111
(lp1048
sg125
I00
sg117
V
sg127
I00
sg128
S'R'
sbsg139
(irule
FeatureMatrix
p1049
(dp1050
g115
(lp1051
sg117
V[  ]
p1052
sbsg117
V[  ] ---> [ -highTone ] / [ +highTone -palletized ] [  ] _ 
p1053
sba(irule
Rule
p1054
(dp1055
g107
(irule
Guard
p1056
(dp1057
g110
I00
sg111
(lp1058
(irule
FeatureMatrix
p1059
(dp1060
g115
(lp1061
sg117
V[  ]
p1062
sba(irule
FeatureMatrix
p1063
(dp1064
g115
(lp1065
(I01
g768
tp1066
asg117
V[ +highTone ]
p1067
sbasg125
I00
sg117
V[ +highTone ] [  ]
p1068
sg127
I00
sg128
S'L'
sbsg129
(irule
FeatureMatrix
p1069
(dp1070
g115
(lp1071
(I00
g768
tp1072
a(I01
S'voice'
p1073
tp1074
asg117
V[ +voice -highTone ]
p1075
sbsg135
(irule
Guard
p1076
(dp1077
g110
I00
sg111
(lp1078
sg125
I00
sg117
V
sg127
I00
sg128
S'R'
sbsg139
(irule
FeatureMatrix
p1079
(dp1080
g115
(lp1081
sg117
V[  ]
p1082
sbsg117
V[  ] ---> [ +voice -highTone ] / [ +highTone ] [  ] _ 
p1083
sba(irule
Rule
p1084
(dp1085
g107
(irule
Guard
p1086
(dp1087
g110
I00
sg111
(lp1088
(irule
FeatureMatrix
p1089
(dp1090
g115
(lp1091
sg117
V[  ]
p1092
sba(irule
FeatureMatrix
p1093
(dp1094
g115
(lp1095
(I01
g768
tp1096
asg117
V[ +highTone ]
p1097
sbasg125
I00
sg117
V[ +highTone ] [  ]
p1098
sg127
I00
sg128
S'L'
sbsg129
(irule
FeatureMatrix
p1099
(dp1100
g115
(lp1101
(I00
g768
tp1102
a(I00
S'coronal'
p1103
tp1104
asg117
V[ -coronal -highTone ]
p1105
sbsg135
(irule
Guard
p1106
(dp1107
g110
I00
sg111
(lp1108
sg125
I00
sg117
V
sg127
I00
sg128
S'R'
sbsg139
(irule
FeatureMatrix
p1109
(dp1110
g115
(lp1111
sg117
V[  ]
p1112
sbsg117
V[  ] ---> [ -coronal -highTone ] / [ +highTone ] [  ] _ 
p1113
sba(irule
Rule
p1114
(dp1115
g107
(irule
Guard
p1116
(dp1117
g110
I00
sg111
(lp1118
(irule
FeatureMatrix
p1119
(dp1120
g115
(lp1121
(I00
S'nasal'
p1122
tp1123
asg117
V[ -nasal ]
p1124
sba(irule
FeatureMatrix
p1125
(dp1126
g115
(lp1127
(I01
g768
tp1128
asg117
V[ +highTone ]
p1129
sbasg125
I00
sg117
V[ +highTone ] [ -nasal ]
p1130
sg127
I00
sg128
S'L'
sbsg129
(irule
FeatureMatrix
p1131
(dp1132
g115
(lp1133
(I00
g768
tp1134
asg117
V[ -highTone ]
p1135
sbsg135
(irule
Guard
p1136
(dp1137
g110
I00
sg111
(lp1138
sg125
I00
sg117
V
sg127
I00
sg128
S'R'
sbsg139
(irule
FeatureMatrix
p1139
(dp1140
g115
(lp1141
sg117
V[  ]
p1142
sbsg117
V[  ] ---> [ -highTone ] / [ +highTone ] [ -nasal ] _ 
p1143
sba(irule
Rule
p1144
(dp1145
g107
(irule
Guard
p1146
(dp1147
g110
I00
sg111
(lp1148
(irule
FeatureMatrix
p1149
(dp1150
g115
(lp1151
(I00
S'tense'
p1152
tp1153
asg117
V[ -tense ]
p1154
sba(irule
FeatureMatrix
p1155
(dp1156
g115
(lp1157
(I01
g768
tp1158
asg117
V[ +highTone ]
p1159
sbasg125
I00
sg117
V[ +highTone ] [ -tense ]
p1160
sg127
I00
sg128
S'L'
sbsg129
(irule
FeatureMatrix
p1161
(dp1162
g115
(lp1163
(I00
g768
tp1164
asg117
V[ -highTone ]
p1165
sbsg135
(irule
Guard
p1166
(dp1167
g110
I00
sg111
(lp1168
sg125
I00
sg117
V
sg127
I00
sg128
S'R'
sbsg139
(irule
FeatureMatrix
p1169
(dp1170
g115
(lp1171
sg117
V[  ]
p1172
sbsg117
V[  ] ---> [ -highTone ] / [ +highTone ] [ -tense ] _ 
p1173
sba(irule
Rule
p1174
(dp1175
g107
(irule
Guard
p1176
(dp1177
g110
I00
sg111
(lp1178
(irule
FeatureMatrix
p1179
(dp1180
g115
(lp1181
sg117
V[  ]
p1182
sba(irule
FeatureMatrix
p1183
(dp1184
g115
(lp1185
(I01
g768
tp1186
a(I01
g1152
tp1187
asg117
V[ +highTone +tense ]
p1188
sbasg125
I00
sg117
V[ +highTone +tense ] [  ]
p1189
sg127
I00
sg128
S'L'
sbsg129
(irule
FeatureMatrix
p1190
(dp1191
g115
(lp1192
(I00
g768
tp1193
asg117
V[ -highTone ]
p1194
sbsg135
(irule
Guard
p1195
(dp1196
g110
I00
sg111
(lp1197
sg125
I00
sg117
V
sg127
I00
sg128
S'R'
sbsg139
(irule
FeatureMatrix
p1198
(dp1199
g115
(lp1200
sg117
V[  ]
p1201
sbsg117
V[  ] ---> [ -highTone ] / [ +highTone +tense ] [  ] _ 
p1202
sba(irule
Rule
p1203
(dp1204
g107
(irule
Guard
p1205
(dp1206
g110
I00
sg111
(lp1207
(irule
FeatureMatrix
p1208
(dp1209
g115
(lp1210
sg117
V[  ]
p1211
sba(irule
FeatureMatrix
p1212
(dp1213
g115
(lp1214
(I01
g768
tp1215
asg117
V[ +highTone ]
p1216
sbasg125
I00
sg117
V[ +highTone ] [  ]
p1217
sg127
I00
sg128
S'L'
sbsg129
(irule
FeatureMatrix
p1218
(dp1219
g115
(lp1220
(I00
g768
tp1221
a(I01
g1152
tp1222
asg117
V[ +tense -highTone ]
p1223
sbsg135
(irule
Guard
p1224
(dp1225
g110
I00
sg111
(lp1226
sg125
I00
sg117
V
sg127
I00
sg128
S'R'
sbsg139
(irule
FeatureMatrix
p1227
(dp1228
g115
(lp1229
sg117
V[  ]
p1230
sbsg117
V[  ] ---> [ +tense -highTone ] / [ +highTone ] [  ] _ 
p1231
sba(irule
Rule
p1232
(dp1233
g107
(irule
Guard
p1234
(dp1235
g110
I00
sg111
(lp1236
(irule
FeatureMatrix
p1237
(dp1238
g115
(lp1239
sg117
V[  ]
p1240
sba(irule
FeatureMatrix
p1241
(dp1242
g115
(lp1243
(I00
S'glide'
p1244
tp1245
a(I01
g768
tp1246
asg117
V[ +highTone -glide ]
p1247
sbasg125
I00
sg117
V[ +highTone -glide ] [  ]
p1248
sg127
I00
sg128
S'L'
sbsg129
(irule
FeatureMatrix
p1249
(dp1250
g115
(lp1251
(I00
g768
tp1252
asg117
V[ -highTone ]
p1253
sbsg135
(irule
Guard
p1254
(dp1255
g110
I00
sg111
(lp1256
sg125
I00
sg117
V
sg127
I00
sg128
S'R'
sbsg139
(irule
FeatureMatrix
p1257
(dp1258
g115
(lp1259
sg117
V[  ]
p1260
sbsg117
V[  ] ---> [ -highTone ] / [ +highTone -glide ] [  ] _ 
p1261
sba(irule
Rule
p1262
(dp1263
g107
(irule
Guard
p1264
(dp1265
g110
I00
sg111
(lp1266
(irule
FeatureMatrix
p1267
(dp1268
g115
(lp1269
sg117
V[  ]
p1270
sba(irule
FeatureMatrix
p1271
(dp1272
g115
(lp1273
(I01
S'continuant'
p1274
tp1275
a(I01
g768
tp1276
asg117
V[ +continuant +highTone ]
p1277
sbasg125
I00
sg117
V[ +continuant +highTone ] [  ]
p1278
sg127
I00
sg128
S'L'
sbsg129
(irule
FeatureMatrix
p1279
(dp1280
g115
(lp1281
(I00
g768
tp1282
asg117
V[ -highTone ]
p1283
sbsg135
(irule
Guard
p1284
(dp1285
g110
I00
sg111
(lp1286
sg125
I00
sg117
V
sg127
I00
sg128
S'R'
sbsg139
(irule
FeatureMatrix
p1287
(dp1288
g115
(lp1289
sg117
V[  ]
p1290
sbsg117
V[  ] ---> [ -highTone ] / [ +continuant +highTone ] [  ] _ 
p1291
sba(irule
Rule
p1292
(dp1293
g107
(irule
Guard
p1294
(dp1295
g110
I00
sg111
(lp1296
(irule
FeatureMatrix
p1297
(dp1298
g115
(lp1299
sg117
V[  ]
p1300
sba(irule
FeatureMatrix
p1301
(dp1302
g115
(lp1303
(I01
g768
tp1304
asg117
V[ +highTone ]
p1305
sbasg125
I00
sg117
V[ +highTone ] [  ]
p1306
sg127
I00
sg128
S'L'
sbsg129
(irule
FeatureMatrix
p1307
(dp1308
g115
(lp1309
(I00
g768
tp1310
a(I01
g1002
tp1311
asg117
V[ +vowel -highTone ]
p1312
sbsg135
(irule
Guard
p1313
(dp1314
g110
I00
sg111
(lp1315
sg125
I00
sg117
V
sg127
I00
sg128
S'R'
sbsg139
(irule
FeatureMatrix
p1316
(dp1317
g115
(lp1318
sg117
V[  ]
p1319
sbsg117
V[  ] ---> [ +vowel -highTone ] / [ +highTone ] [  ] _ 
p1320
sba(irule
Rule
p1321
(dp1322
g107
(irule
Guard
p1323
(dp1324
g110
I00
sg111
(lp1325
(irule
FeatureMatrix
p1326
(dp1327
g115
(lp1328
sg117
V[  ]
p1329
sba(irule
FeatureMatrix
p1330
(dp1331
g115
(lp1332
(I00
g1122
tp1333
a(I01
g768
tp1334
asg117
V[ +highTone -nasal ]
p1335
sbasg125
I00
sg117
V[ +highTone -nasal ] [  ]
p1336
sg127
I00
sg128
S'L'
sbsg129
(irule
FeatureMatrix
p1337
(dp1338
g115
(lp1339
(I00
g768
tp1340
asg117
V[ -highTone ]
p1341
sbsg135
(irule
Guard
p1342
(dp1343
g110
I00
sg111
(lp1344
sg125
I00
sg117
V
sg127
I00
sg128
S'R'
sbsg139
(irule
FeatureMatrix
p1345
(dp1346
g115
(lp1347
sg117
V[  ]
p1348
sbsg117
V[  ] ---> [ -highTone ] / [ +highTone -nasal ] [  ] _ 
p1349
sba(irule
Rule
p1350
(dp1351
g107
(irule
Guard
p1352
(dp1353
g110
I00
sg111
(lp1354
(irule
FeatureMatrix
p1355
(dp1356
g115
(lp1357
(I00
g1037
tp1358
asg117
V[ -palletized ]
p1359
sba(irule
FeatureMatrix
p1360
(dp1361
g115
(lp1362
(I01
g768
tp1363
asg117
V[ +highTone ]
p1364
sbasg125
I00
sg117
V[ +highTone ] [ -palletized ]
p1365
sg127
I00
sg128
S'L'
sbsg129
(irule
FeatureMatrix
p1366
(dp1367
g115
(lp1368
(I00
g768
tp1369
asg117
V[ -highTone ]
p1370
sbsg135
(irule
Guard
p1371
(dp1372
g110
I00
sg111
(lp1373
sg125
I00
sg117
V
sg127
I00
sg128
S'R'
sbsg139
(irule
FeatureMatrix
p1374
(dp1375
g115
(lp1376
sg117
V[  ]
p1377
sbsg117
V[  ] ---> [ -highTone ] / [ +highTone ] [ -palletized ] _ 
p1378
sba(irule
Rule
p1379
(dp1380
g107
(irule
Guard
p1381
(dp1382
g110
I00
sg111
(lp1383
(irule
FeatureMatrix
p1384
(dp1385
g115
(lp1386
sg117
V[  ]
p1387
sba(irule
FeatureMatrix
p1388
(dp1389
g115
(lp1390
(I01
g768
tp1391
asg117
V[ +highTone ]
p1392
sbasg125
I00
sg117
V[ +highTone ] [  ]
p1393
sg127
I00
sg128
S'L'
sbsg129
(irule
FeatureMatrix
p1394
(dp1395
g115
(lp1396
(I00
g768
tp1397
a(I00
g1037
tp1398
asg117
V[ -highTone -palletized ]
p1399
sbsg135
(irule
Guard
p1400
(dp1401
g110
I00
sg111
(lp1402
sg125
I00
sg117
V
sg127
I00
sg128
S'R'
sbsg139
(irule
FeatureMatrix
p1403
(dp1404
g115
(lp1405
sg117
V[  ]
p1406
sbsg117
V[  ] ---> [ -highTone -palletized ] / [ +highTone ] [  ] _ 
p1407
sba(irule
Rule
p1408
(dp1409
g107
(irule
Guard
p1410
(dp1411
g110
I00
sg111
(lp1412
(irule
FeatureMatrix
p1413
(dp1414
g115
(lp1415
sg117
V[  ]
p1416
sba(irule
FeatureMatrix
p1417
(dp1418
g115
(lp1419
(I01
g768
tp1420
asg117
V[ +highTone ]
p1421
sbasg125
I00
sg117
V[ +highTone ] [  ]
p1422
sg127
I00
sg128
S'L'
sbsg129
(irule
FeatureMatrix
p1423
(dp1424
g115
(lp1425
(I00
g768
tp1426
a(I01
S'sonorant'
p1427
tp1428
asg117
V[ +sonorant -highTone ]
p1429
sbsg135
(irule
Guard
p1430
(dp1431
g110
I00
sg111
(lp1432
sg125
I00
sg117
V
sg127
I00
sg128
S'R'
sbsg139
(irule
FeatureMatrix
p1433
(dp1434
g115
(lp1435
sg117
V[  ]
p1436
sbsg117
V[  ] ---> [ +sonorant -highTone ] / [ +highTone ] [  ] _ 
p1437
sba(irule
Rule
p1438
(dp1439
g107
(irule
Guard
p1440
(dp1441
g110
I00
sg111
(lp1442
(irule
FeatureMatrix
p1443
(dp1444
g115
(lp1445
sg117
V[  ]
p1446
sba(irule
FeatureMatrix
p1447
(dp1448
g115
(lp1449
(I01
g768
tp1450
asg117
V[ +highTone ]
p1451
sbasg125
I00
sg117
V[ +highTone ] [  ]
p1452
sg127
I00
sg128
S'L'
sbsg129
(irule
FeatureMatrix
p1453
(dp1454
g115
(lp1455
(I00
S'lateral'
p1456
tp1457
a(I00
g768
tp1458
asg117
V[ -highTone -lateral ]
p1459
sbsg135
(irule
Guard
p1460
(dp1461
g110
I00
sg111
(lp1462
sg125
I00
sg117
V
sg127
I00
sg128
S'R'
sbsg139
(irule
FeatureMatrix
p1463
(dp1464
g115
(lp1465
sg117
V[  ]
p1466
sbsg117
V[  ] ---> [ -highTone -lateral ] / [ +highTone ] [  ] _ 
p1467
sba(irule
Rule
p1468
(dp1469
g107
(irule
Guard
p1470
(dp1471
g110
I00
sg111
(lp1472
(irule
FeatureMatrix
p1473
(dp1474
g115
(lp1475
(I00
g858
tp1476
asg117
V[ -low ]
p1477
sba(irule
FeatureMatrix
p1478
(dp1479
g115
(lp1480
(I01
g768
tp1481
asg117
V[ +highTone ]
p1482
sbasg125
I00
sg117
V[ +highTone ] [ -low ]
p1483
sg127
I00
sg128
S'L'
sbsg129
(irule
FeatureMatrix
p1484
(dp1485
g115
(lp1486
(I00
g768
tp1487
asg117
V[ -highTone ]
p1488
sbsg135
(irule
Guard
p1489
(dp1490
g110
I00
sg111
(lp1491
sg125
I00
sg117
V
sg127
I00
sg128
S'R'
sbsg139
(irule
FeatureMatrix
p1492
(dp1493
g115
(lp1494
sg117
V[  ]
p1495
sbsg117
V[  ] ---> [ -highTone ] / [ +highTone ] [ -low ] _ 
p1496
sba(irule
Rule
p1497
(dp1498
g107
(irule
Guard
p1499
(dp1500
g110
I00
sg111
(lp1501
(irule
FeatureMatrix
p1502
(dp1503
g115
(lp1504
sg117
V[  ]
p1505
sba(irule
FeatureMatrix
p1506
(dp1507
g115
(lp1508
(I01
g768
tp1509
asg117
V[ +highTone ]
p1510
sbasg125
I00
sg117
V[ +highTone ] [  ]
p1511
sg127
I00
sg128
S'L'
sbsg129
(irule
FeatureMatrix
p1512
(dp1513
g115
(lp1514
(I00
g1244
tp1515
a(I00
g768
tp1516
asg117
V[ -glide -highTone ]
p1517
sbsg135
(irule
Guard
p1518
(dp1519
g110
I00
sg111
(lp1520
sg125
I00
sg117
V
sg127
I00
sg128
S'R'
sbsg139
(irule
FeatureMatrix
p1521
(dp1522
g115
(lp1523
sg117
V[  ]
p1524
sbsg117
V[  ] ---> [ -glide -highTone ] / [ +highTone ] [  ] _ 
p1525
sba(irule
Rule
p1526
(dp1527
g107
(irule
Guard
p1528
(dp1529
g110
I00
sg111
(lp1530
(irule
FeatureMatrix
p1531
(dp1532
g115
(lp1533
(I00
g1244
tp1534
asg117
V[ -glide ]
p1535
sba(irule
FeatureMatrix
p1536
(dp1537
g115
(lp1538
(I01
g768
tp1539
asg117
V[ +highTone ]
p1540
sbasg125
I00
sg117
V[ +highTone ] [ -glide ]
p1541
sg127
I00
sg128
S'L'
sbsg129
(irule
FeatureMatrix
p1542
(dp1543
g115
(lp1544
(I00
g768
tp1545
asg117
V[ -highTone ]
p1546
sbsg135
(irule
Guard
p1547
(dp1548
g110
I00
sg111
(lp1549
sg125
I00
sg117
V
sg127
I00
sg128
S'R'
sbsg139
(irule
FeatureMatrix
p1550
(dp1551
g115
(lp1552
sg117
V[  ]
p1553
sbsg117
V[  ] ---> [ -highTone ] / [ +highTone ] [ -glide ] _ 
p1554
sba(irule
Rule
p1555
(dp1556
g107
(irule
Guard
p1557
(dp1558
g110
I00
sg111
(lp1559
(irule
FeatureMatrix
p1560
(dp1561
g115
(lp1562
sg117
V[  ]
p1563
sba(irule
FeatureMatrix
p1564
(dp1565
g115
(lp1566
(I00
g1456
tp1567
a(I01
g768
tp1568
asg117
V[ +highTone -lateral ]
p1569
sbasg125
I00
sg117
V[ +highTone -lateral ] [  ]
p1570
sg127
I00
sg128
S'L'
sbsg129
(irule
FeatureMatrix
p1571
(dp1572
g115
(lp1573
(I00
g768
tp1574
asg117
V[ -highTone ]
p1575
sbsg135
(irule
Guard
p1576
(dp1577
g110
I00
sg111
(lp1578
sg125
I00
sg117
V
sg127
I00
sg128
S'R'
sbsg139
(irule
FeatureMatrix
p1579
(dp1580
g115
(lp1581
sg117
V[  ]
p1582
sbsg117
V[  ] ---> [ -highTone ] / [ +highTone -lateral ] [  ] _ 
p1583
sba(irule
Rule
p1584
(dp1585
g107
(irule
Guard
p1586
(dp1587
g110
I00
sg111
(lp1588
(irule
FeatureMatrix
p1589
(dp1590
g115
(lp1591
sg117
V[  ]
p1592
sba(irule
FeatureMatrix
p1593
(dp1594
g115
(lp1595
(I01
g768
tp1596
asg117
V[ +highTone ]
p1597
sbasg125
I00
sg117
V[ +highTone ] [  ]
p1598
sg127
I00
sg128
S'L'
sbsg129
(irule
FeatureMatrix
p1599
(dp1600
g115
(lp1601
(I00
g1122
tp1602
a(I00
g768
tp1603
asg117
V[ -highTone -nasal ]
p1604
sbsg135
(irule
Guard
p1605
(dp1606
g110
I00
sg111
(lp1607
sg125
I00
sg117
V
sg127
I00
sg128
S'R'
sbsg139
(irule
FeatureMatrix
p1608
(dp1609
g115
(lp1610
sg117
V[  ]
p1611
sbsg117
V[  ] ---> [ -highTone -nasal ] / [ +highTone ] [  ] _ 
p1612
sba(irule
Rule
p1613
(dp1614
g107
(irule
Guard
p1615
(dp1616
g110
I00
sg111
(lp1617
(irule
FeatureMatrix
p1618
(dp1619
g115
(lp1620
sg117
V[  ]
p1621
sba(irule
FeatureMatrix
p1622
(dp1623
g115
(lp1624
(I01
g768
tp1625
asg117
V[ +highTone ]
p1626
sbasg125
I00
sg117
V[ +highTone ] [  ]
p1627
sg127
I00
sg128
S'L'
sbsg129
(irule
FeatureMatrix
p1628
(dp1629
g115
(lp1630
(I00
g976
tp1631
a(I00
g768
tp1632
asg117
V[ -highTone -liquid ]
p1633
sbsg135
(irule
Guard
p1634
(dp1635
g110
I00
sg111
(lp1636
sg125
I00
sg117
V
sg127
I00
sg128
S'R'
sbsg139
(irule
FeatureMatrix
p1637
(dp1638
g115
(lp1639
sg117
V[  ]
p1640
sbsg117
V[  ] ---> [ -highTone -liquid ] / [ +highTone ] [  ] _ 
p1641
sba(irule
Rule
p1642
(dp1643
g107
(irule
Guard
p1644
(dp1645
g110
I00
sg111
(lp1646
(irule
FeatureMatrix
p1647
(dp1648
g115
(lp1649
sg117
V[  ]
p1650
sba(irule
FeatureMatrix
p1651
(dp1652
g115
(lp1653
(I01
g768
tp1654
a(I01
g1427
tp1655
asg117
V[ +highTone +sonorant ]
p1656
sbasg125
I00
sg117
V[ +highTone +sonorant ] [  ]
p1657
sg127
I00
sg128
S'L'
sbsg129
(irule
FeatureMatrix
p1658
(dp1659
g115
(lp1660
(I00
g768
tp1661
asg117
V[ -highTone ]
p1662
sbsg135
(irule
Guard
p1663
(dp1664
g110
I00
sg111
(lp1665
sg125
I00
sg117
V
sg127
I00
sg128
S'R'
sbsg139
(irule
FeatureMatrix
p1666
(dp1667
g115
(lp1668
sg117
V[  ]
p1669
sbsg117
V[  ] ---> [ -highTone ] / [ +highTone +sonorant ] [  ] _ 
p1670
sba(irule
Rule
p1671
(dp1672
g107
(irule
Guard
p1673
(dp1674
g110
I00
sg111
(lp1675
(irule
FeatureMatrix
p1676
(dp1677
g115
(lp1678
sg117
V[  ]
p1679
sba(irule
FeatureMatrix
p1680
(dp1681
g115
(lp1682
(I01
g768
tp1683
asg117
V[ +highTone ]
p1684
sbasg125
I00
sg117
V[ +highTone ] [  ]
p1685
sg127
I00
sg128
S'L'
sbsg129
(irule
FeatureMatrix
p1686
(dp1687
g115
(lp1688
(I00
g768
tp1689
asg117
V[ -highTone ]
p1690
sbsg135
(irule
Guard
p1691
(dp1692
g110
I00
sg111
(lp1693
sg125
I00
sg117
V
sg127
I00
sg128
S'R'
sbsg139
(irule
FeatureMatrix
p1694
(dp1695
g115
(lp1696
(I01
g1073
tp1697
asg117
V[ +voice ]
p1698
sbsg117
V[ +voice ] ---> [ -highTone ] / [ +highTone ] [  ] _ 
p1699
sba(irule
Rule
p1700
(dp1701
g107
(irule
Guard
p1702
(dp1703
g110
I00
sg111
(lp1704
(irule
FeatureMatrix
p1705
(dp1706
g115
(lp1707
(I00
S'rounded'
tp1708
asg117
V[ -rounded ]
p1709
sba(irule
FeatureMatrix
p1710
(dp1711
g115
(lp1712
(I01
g768
tp1713
asg117
V[ +highTone ]
p1714
sbasg125
I00
sg117
V[ +highTone ] [ -rounded ]
p1715
sg127
I00
sg128
S'L'
sbsg129
(irule
FeatureMatrix
p1716
(dp1717
g115
(lp1718
(I00
g768
tp1719
asg117
V[ -highTone ]
p1720
sbsg135
(irule
Guard
p1721
(dp1722
g110
I00
sg111
(lp1723
sg125
I00
sg117
V
sg127
I00
sg128
S'R'
sbsg139
(irule
FeatureMatrix
p1724
(dp1725
g115
(lp1726
sg117
V[  ]
p1727
sbsg117
V[  ] ---> [ -highTone ] / [ +highTone ] [ -rounded ] _ 
p1728
sba(irule
Rule
p1729
(dp1730
g107
(irule
Guard
p1731
(dp1732
g110
I00
sg111
(lp1733
(irule
FeatureMatrix
p1734
(dp1735
g115
(lp1736
sg117
V[  ]
p1737
sba(irule
FeatureMatrix
p1738
(dp1739
g115
(lp1740
(I01
g768
tp1741
asg117
V[ +highTone ]
p1742
sbasg125
I00
sg117
V[ +highTone ] [  ]
p1743
sg127
I00
sg128
S'L'
sbsg129
(irule
FeatureMatrix
p1744
(dp1745
g115
(lp1746
(I00
g946
tp1747
a(I00
g768
tp1748
asg117
V[ -anterior -highTone ]
p1749
sbsg135
(irule
Guard
p1750
(dp1751
g110
I00
sg111
(lp1752
sg125
I00
sg117
V
sg127
I00
sg128
S'R'
sbsg139
(irule
FeatureMatrix
p1753
(dp1754
g115
(lp1755
sg117
V[  ]
p1756
sbsg117
V[  ] ---> [ -anterior -highTone ] / [ +highTone ] [  ] _ 
p1757
sba(irule
Rule
p1758
(dp1759
g107
(irule
Guard
p1760
(dp1761
g110
I00
sg111
(lp1762
(irule
FeatureMatrix
p1763
(dp1764
g115
(lp1765
sg117
V[  ]
p1766
sba(irule
FeatureMatrix
p1767
(dp1768
g115
(lp1769
(I01
g768
tp1770
asg117
V[ +highTone ]
p1771
sbasg125
I00
sg117
V[ +highTone ] [  ]
p1772
sg127
I00
sg128
S'L'
sbsg129
(irule
FeatureMatrix
p1773
(dp1774
g115
(lp1775
(I00
g768
tp1776
asg117
V[ -highTone ]
p1777
sbsg135
(irule
Guard
p1778
(dp1779
g110
I00
sg111
(lp1780
sg125
I00
sg117
V
sg127
I00
sg128
S'R'
sbsg139
(irule
FeatureMatrix
p1781
(dp1782
g115
(lp1783
(I00
g834
tp1784
asg117
V[ -sibilant ]
p1785
sbsg117
V[ -sibilant ] ---> [ -highTone ] / [ +highTone ] [  ] _ 
p1786
sba(irule
Rule
p1787
(dp1788
g107
(irule
Guard
p1789
(dp1790
g110
I00
sg111
(lp1791
(irule
FeatureMatrix
p1792
(dp1793
g115
(lp1794
sg117
V[  ]
p1795
sba(irule
FeatureMatrix
p1796
(dp1797
g115
(lp1798
(I01
g768
tp1799
a(I01
g1002
tp1800
asg117
V[ +highTone +vowel ]
p1801
sbasg125
I00
sg117
V[ +highTone +vowel ] [  ]
p1802
sg127
I00
sg128
S'L'
sbsg129
(irule
FeatureMatrix
p1803
(dp1804
g115
(lp1805
(I00
g768
tp1806
asg117
V[ -highTone ]
p1807
sbsg135
(irule
Guard
p1808
(dp1809
g110
I00
sg111
(lp1810
sg125
I00
sg117
V
sg127
I00
sg128
S'R'
sbsg139
(irule
FeatureMatrix
p1811
(dp1812
g115
(lp1813
sg117
V[  ]
p1814
sbsg117
V[  ] ---> [ -highTone ] / [ +highTone +vowel ] [  ] _ 
p1815
sba(irule
Rule
p1816
(dp1817
g107
(irule
Guard
p1818
(dp1819
g110
I00
sg111
(lp1820
(irule
FeatureMatrix
p1821
(dp1822
g115
(lp1823
sg117
V[  ]
p1824
sba(irule
FeatureMatrix
p1825
(dp1826
g115
(lp1827
(I01
g768
tp1828
asg117
V[ +highTone ]
p1829
sbasg125
I00
sg117
V[ +highTone ] [  ]
p1830
sg127
I00
sg128
S'L'
sbsg129
(irule
FeatureMatrix
p1831
(dp1832
g115
(lp1833
(I00
g768
tp1834
asg117
V[ -highTone ]
p1835
sbsg135
(irule
Guard
p1836
(dp1837
g110
I00
sg111
(lp1838
(irule
FeatureMatrix
p1839
(dp1840
g115
(lp1841
sg117
V[  ]
p1842
sbasg125
I00
sg117
g1842
sg127
I00
sg128
S'R'
sbsg139
(irule
FeatureMatrix
p1843
(dp1844
g115
(lp1845
sg117
V[  ]
p1846
sbsg117
V[  ] ---> [ -highTone ] / [ +highTone ] [  ] _ [  ]
p1847
sba(irule
Rule
p1848
(dp1849
g107
(irule
Guard
p1850
(dp1851
g110
I00
sg111
(lp1852
(irule
FeatureMatrix
p1853
(dp1854
g115
(lp1855
sg117
V[  ]
p1856
sba(irule
FeatureMatrix
p1857
(dp1858
g115
(lp1859
(I01
g768
tp1860
asg117
V[ +highTone ]
p1861
sbasg125
I00
sg117
V[ +highTone ] [  ]
p1862
sg127
I00
sg128
S'L'
sbsg129
(irule
FeatureMatrix
p1863
(dp1864
g115
(lp1865
(I01
g1274
tp1866
a(I00
g768
tp1867
asg117
V[ +continuant -highTone ]
p1868
sbsg135
(irule
Guard
p1869
(dp1870
g110
I00
sg111
(lp1871
sg125
I00
sg117
V
sg127
I00
sg128
S'R'
sbsg139
(irule
FeatureMatrix
p1872
(dp1873
g115
(lp1874
sg117
V[  ]
p1875
sbsg117
V[  ] ---> [ +continuant -highTone ] / [ +highTone ] [  ] _ 
p1876
sba(irule
Rule
p1877
(dp1878
g107
(irule
Guard
p1879
(dp1880
g110
I00
sg111
(lp1881
(irule
FeatureMatrix
p1882
(dp1883
g115
(lp1884
sg117
V[  ]
p1885
sba(irule
FeatureMatrix
p1886
(dp1887
g115
(lp1888
(I01
g768
tp1889
a(I00
g1103
tp1890
asg117
V[ +highTone -coronal ]
p1891
sbasg125
I00
sg117
V[ +highTone -coronal ] [  ]
p1892
sg127
I00
sg128
S'L'
sbsg129
(irule
FeatureMatrix
p1893
(dp1894
g115
(lp1895
(I00
g768
tp1896
asg117
V[ -highTone ]
p1897
sbsg135
(irule
Guard
p1898
(dp1899
g110
I00
sg111
(lp1900
sg125
I00
sg117
V
sg127
I00
sg128
S'R'
sbsg139
(irule
FeatureMatrix
p1901
(dp1902
g115
(lp1903
sg117
V[  ]
p1904
sbsg117
V[  ] ---> [ -highTone ] / [ +highTone -coronal ] [  ] _ 
p1905
sba(irule
Rule
p1906
(dp1907
g107
(irule
Guard
p1908
(dp1909
g110
I00
sg111
(lp1910
(irule
FeatureMatrix
p1911
(dp1912
g115
(lp1913
sg117
V[  ]
p1914
sba(irule
FeatureMatrix
p1915
(dp1916
g115
(lp1917
(I01
g768
tp1918
a(I01
g1073
tp1919
asg117
V[ +highTone +voice ]
p1920
sbasg125
I00
sg117
V[ +highTone +voice ] [  ]
p1921
sg127
I00
sg128
S'L'
sbsg129
(irule
FeatureMatrix
p1922
(dp1923
g115
(lp1924
(I00
g768
tp1925
asg117
V[ -highTone ]
p1926
sbsg135
(irule
Guard
p1927
(dp1928
g110
I00
sg111
(lp1929
sg125
I00
sg117
V
sg127
I00
sg128
S'R'
sbsg139
(irule
FeatureMatrix
p1930
(dp1931
g115
(lp1932
sg117
V[  ]
p1933
sbsg117
V[  ] ---> [ -highTone ] / [ +highTone +voice ] [  ] _ 
p1934
sba(irule
Rule
p1935
(dp1936
g107
(irule
Guard
p1937
(dp1938
g110
I00
sg111
(lp1939
(irule
FeatureMatrix
p1940
(dp1941
g115
(lp1942
sg117
V[  ]
p1943
sba(irule
FeatureMatrix
p1944
(dp1945
g115
(lp1946
(I01
g768
tp1947
asg117
V[ +highTone ]
p1948
sbasg125
I00
sg117
V[ +highTone ] [  ]
p1949
sg127
I00
sg128
S'L'
sbsg129
(irule
FeatureMatrix
p1950
(dp1951
g115
(lp1952
(I00
g768
tp1953
asg117
V[ -highTone ]
p1954
sbsg135
(irule
Guard
p1955
(dp1956
g110
I00
sg111
(lp1957
sg125
I00
sg117
V
sg127
I00
sg128
S'R'
sbsg139
(irule
FeatureMatrix
p1958
(dp1959
g115
(lp1960
(I01
g1002
tp1961
asg117
V[ +vowel ]
p1962
sbsg117
V[ +vowel ] ---> [ -highTone ] / [ +highTone ] [  ] _ 
p1963
sba(irule
Rule
p1964
(dp1965
g107
(irule
Guard
p1966
(dp1967
g110
I00
sg111
(lp1968
(irule
FeatureMatrix
p1969
(dp1970
g115
(lp1971
sg117
V[  ]
p1972
sba(irule
FeatureMatrix
p1973
(dp1974
g115
(lp1975
(I01
g768
tp1976
a(I00
g834
tp1977
asg117
V[ +highTone -sibilant ]
p1978
sbasg125
I00
sg117
V[ +highTone -sibilant ] [  ]
p1979
sg127
I00
sg128
S'L'
sbsg129
(irule
FeatureMatrix
p1980
(dp1981
g115
(lp1982
(I00
g768
tp1983
asg117
V[ -highTone ]
p1984
sbsg135
(irule
Guard
p1985
(dp1986
g110
I00
sg111
(lp1987
sg125
I00
sg117
V
sg127
I00
sg128
S'R'
sbsg139
(irule
FeatureMatrix
p1988
(dp1989
g115
(lp1990
sg117
V[  ]
p1991
sbsg117
V[  ] ---> [ -highTone ] / [ +highTone -sibilant ] [  ] _ 
p1992
sba(irule
Rule
p1993
(dp1994
g107
(irule
Guard
p1995
(dp1996
g110
I00
sg111
(lp1997
(irule
FeatureMatrix
p1998
(dp1999
g115
(lp2000
sg117
V[  ]
p2001
sba(irule
FeatureMatrix
p2002
(dp2003
g115
(lp2004
(I01
g768
tp2005
asg117
V[ +highTone ]
p2006
sbasg125
I00
sg117
V[ +highTone ] [  ]
p2007
sg127
I00
sg128
S'L'
sbsg129
(irule
FeatureMatrix
p2008
(dp2009
g115
(lp2010
(I00
g768
tp2011
asg117
V[ -highTone ]
p2012
sbsg135
(irule
Guard
p2013
(dp2014
g110
I00
sg111
(lp2015
sg125
I00
sg117
V
sg127
I00
sg128
S'R'
sbsg139
(irule
FeatureMatrix
p2016
(dp2017
g115
(lp2018
(I01
g768
tp2019
asg117
V[ +highTone ]
p2020
sbsg117
V[ +highTone ] ---> [ -highTone ] / [ +highTone ] [  ] _ 
p2021
sba(irule
Rule
p2022
(dp2023
g107
(irule
Guard
p2024
(dp2025
g110
I00
sg111
(lp2026
(irule
FeatureMatrix
p2027
(dp2028
g115
(lp2029
sg117
V[  ]
p2030
sba(irule
FeatureMatrix
p2031
(dp2032
g115
(lp2033
(I01
g768
tp2034
asg117
V[ +highTone ]
p2035
sbasg125
I00
sg117
V[ +highTone ] [  ]
p2036
sg127
I00
sg128
S'L'
sbsg129
(irule
FeatureMatrix
p2037
(dp2038
g115
(lp2039
(I00
g768
tp2040
asg117
V[ -highTone ]
p2041
sbsg135
(irule
Guard
p2042
(dp2043
g110
I00
sg111
(lp2044
sg125
I00
sg117
V
sg127
I00
sg128
S'R'
sbsg139
(irule
FeatureMatrix
p2045
(dp2046
g115
(lp2047
(I01
g793
tp2048
asg117
V[ +back ]
p2049
sbsg117
V[ +back ] ---> [ -highTone ] / [ +highTone ] [  ] _ 
p2050
sba(irule
Rule
p2051
(dp2052
g107
(irule
Guard
p2053
(dp2054
g110
I00
sg111
(lp2055
(irule
FeatureMatrix
p2056
(dp2057
g115
(lp2058
sg117
V[  ]
p2059
sba(irule
FeatureMatrix
p2060
(dp2061
g115
(lp2062
(I01
g768
tp2063
a(I01
g912
tp2064
asg117
V[ +high +highTone ]
p2065
sbasg125
I00
sg117
V[ +high +highTone ] [  ]
p2066
sg127
I00
sg128
S'L'
sbsg129
(irule
FeatureMatrix
p2067
(dp2068
g115
(lp2069
(I00
g768
tp2070
asg117
V[ -highTone ]
p2071
sbsg135
(irule
Guard
p2072
(dp2073
g110
I00
sg111
(lp2074
sg125
I00
sg117
V
sg127
I00
sg128
S'R'
sbsg139
(irule
FeatureMatrix
p2075
(dp2076
g115
(lp2077
sg117
V[  ]
p2078
sbsg117
V[  ] ---> [ -highTone ] / [ +high +highTone ] [  ] _ 
p2079
sba(irule
Rule
p2080
(dp2081
g107
(irule
Guard
p2082
(dp2083
g110
I00
sg111
(lp2084
(irule
FeatureMatrix
p2085
(dp2086
g115
(lp2087
sg117
V[  ]
p2088
sba(irule
FeatureMatrix
p2089
(dp2090
g115
(lp2091
(I01
g768
tp2092
asg117
V[ +highTone ]
p2093
sbasg125
I00
sg117
V[ +highTone ] [  ]
p2094
sg127
I00
sg128
S'L'
sbsg129
(irule
FeatureMatrix
p2095
(dp2096
g115
(lp2097
(I00
g768
tp2098
asg117
V[ -highTone ]
p2099
sbsg135
(irule
Guard
p2100
(dp2101
g110
I00
sg111
(lp2102
sg125
I00
sg117
V
sg127
I00
sg128
S'R'
sbsg139
(irule
FeatureMatrix
p2103
(dp2104
g115
(lp2105
(I01
g1427
tp2106
asg117
V[ +sonorant ]
p2107
sbsg117
V[ +sonorant ] ---> [ -highTone ] / [ +highTone ] [  ] _ 
p2108
sba(irule
Rule
p2109
(dp2110
g107
(irule
Guard
p2111
(dp2112
g110
I00
sg111
(lp2113
(irule
FeatureMatrix
p2114
(dp2115
g115
(lp2116
sg117
V[  ]
p2117
sba(irule
FeatureMatrix
p2118
(dp2119
g115
(lp2120
(I01
g768
tp2121
asg117
V[ +highTone ]
p2122
sbasg125
I00
sg117
V[ +highTone ] [  ]
p2123
sg127
I00
sg128
S'L'
sbsg129
(irule
FeatureMatrix
p2124
(dp2125
g115
(lp2126
(I00
g768
tp2127
asg117
V[ -highTone ]
p2128
sbsg135
(irule
Guard
p2129
(dp2130
g110
I00
sg111
(lp2131
sg125
I00
sg117
V
sg127
I00
sg128
S'R'
sbsg139
(irule
FeatureMatrix
p2132
(dp2133
g115
(lp2134
(I00
g1103
tp2135
asg117
V[ -coronal ]
p2136
sbsg117
V[ -coronal ] ---> [ -highTone ] / [ +highTone ] [  ] _ 
p2137
sba(irule
Rule
p2138
(dp2139
g107
(irule
Guard
p2140
(dp2141
g110
I00
sg111
(lp2142
(irule
FeatureMatrix
p2143
(dp2144
g115
(lp2145
sg117
V[  ]
p2146
sba(irule
FeatureMatrix
p2147
(dp2148
g115
(lp2149
(I01
g768
tp2150
asg117
V[ +highTone ]
p2151
sbasg125
I00
sg117
V[ +highTone ] [  ]
p2152
sg127
I00
sg128
S'L'
sbsg129
(irule
FeatureMatrix
p2153
(dp2154
g115
(lp2155
(I00
g768
tp2156
asg117
V[ -highTone ]
p2157
sbsg135
(irule
Guard
p2158
(dp2159
g110
I00
sg111
(lp2160
sg125
I00
sg117
V
sg127
I00
sg128
S'R'
sbsg139
(irule
FeatureMatrix
p2161
(dp2162
g115
(lp2163
(I01
g1152
tp2164
asg117
V[ +tense ]
p2165
sbsg117
V[ +tense ] ---> [ -highTone ] / [ +highTone ] [  ] _ 
p2166
sba(irule
Rule
p2167
(dp2168
g107
(irule
Guard
p2169
(dp2170
g110
I00
sg111
(lp2171
(irule
FeatureMatrix
p2172
(dp2173
g115
(lp2174
sg117
V[  ]
p2175
sba(irule
FeatureMatrix
p2176
(dp2177
g115
(lp2178
(I01
g768
tp2179
asg117
V[ +highTone ]
p2180
sbasg125
I00
sg117
V[ +highTone ] [  ]
p2181
sg127
I00
sg128
S'L'
sbsg129
(irule
FeatureMatrix
p2182
(dp2183
g115
(lp2184
(I00
g768
tp2185
asg117
V[ -highTone ]
p2186
sbsg135
(irule
Guard
p2187
(dp2188
g110
I00
sg111
(lp2189
sg125
I00
sg117
V
sg127
I00
sg128
S'R'
sbsg139
(irule
FeatureMatrix
p2190
(dp2191
g115
(lp2192
(I00
g1456
tp2193
asg117
V[ -lateral ]
p2194
sbsg117
V[ -lateral ] ---> [ -highTone ] / [ +highTone ] [  ] _ 
p2195
sba(irule
Rule
p2196
(dp2197
g107
(irule
Guard
p2198
(dp2199
g110
I00
sg111
(lp2200
(irule
FeatureMatrix
p2201
(dp2202
g115
(lp2203
sg117
V[  ]
p2204
sba(irule
FeatureMatrix
p2205
(dp2206
g115
(lp2207
(I01
g768
tp2208
asg117
V[ +highTone ]
p2209
sbasg125
I00
sg117
V[ +highTone ] [  ]
p2210
sg127
I00
sg128
S'L'
sbsg129
(irule
FeatureMatrix
p2211
(dp2212
g115
(lp2213
(I00
g768
tp2214
asg117
V[ -highTone ]
p2215
sbsg135
(irule
Guard
p2216
(dp2217
g110
I00
sg111
(lp2218
sg125
I00
sg117
V
sg127
I00
sg128
S'R'
sbsg139
(irule
FeatureMatrix
p2219
(dp2220
g115
(lp2221
(I00
g1037
tp2222
asg117
V[ -palletized ]
p2223
sbsg117
V[ -palletized ] ---> [ -highTone ] / [ +highTone ] [  ] _ 
p2224
sba(irule
Rule
p2225
(dp2226
g107
(irule
Guard
p2227
(dp2228
g110
I00
sg111
(lp2229
(irule
FeatureMatrix
p2230
(dp2231
g115
(lp2232
sg117
V[  ]
p2233
sba(irule
FeatureMatrix
p2234
(dp2235
g115
(lp2236
(I01
g768
tp2237
asg117
V[ +highTone ]
p2238
sbasg125
I00
sg117
V[ +highTone ] [  ]
p2239
sg127
I00
sg128
S'L'
sbsg129
(irule
FeatureMatrix
p2240
(dp2241
g115
(lp2242
(I00
g768
tp2243
asg117
V[ -highTone ]
p2244
sbsg135
(irule
Guard
p2245
(dp2246
g110
I00
sg111
(lp2247
sg125
I00
sg117
V
sg127
I00
sg128
S'R'
sbsg139
(irule
FeatureMatrix
p2248
(dp2249
g115
(lp2250
(I00
g1122
tp2251
asg117
V[ -nasal ]
p2252
sbsg117
V[ -nasal ] ---> [ -highTone ] / [ +highTone ] [  ] _ 
p2253
sba(irule
Rule
p2254
(dp2255
g107
(irule
Guard
p2256
(dp2257
g110
I00
sg111
(lp2258
(irule
FeatureMatrix
p2259
(dp2260
g115
(lp2261
sg117
V[  ]
p2262
sba(irule
FeatureMatrix
p2263
(dp2264
g115
(lp2265
(I01
g768
tp2266
asg117
V[ +highTone ]
p2267
sbasg125
I00
sg117
V[ +highTone ] [  ]
p2268
sg127
I00
sg128
S'L'
sbsg129
(irule
FeatureMatrix
p2269
(dp2270
g115
(lp2271
(I00
g768
tp2272
asg117
V[ -highTone ]
p2273
sbsg135
(irule
Guard
p2274
(dp2275
g110
I00
sg111
(lp2276
sg125
I00
sg117
V
sg127
I00
sg128
S'R'
sbsg139
(irule
FeatureMatrix
p2277
(dp2278
g115
(lp2279
(I00
g1244
tp2280
asg117
V[ -glide ]
p2281
sbsg117
V[ -glide ] ---> [ -highTone ] / [ +highTone ] [  ] _ 
p2282
sba(irule
Rule
p2283
(dp2284
g107
(irule
Guard
p2285
(dp2286
g110
I00
sg111
(lp2287
(irule
FeatureMatrix
p2288
(dp2289
g115
(lp2290
sg117
V[  ]
p2291
sba(irule
FeatureMatrix
p2292
(dp2293
g115
(lp2294
(I01
g768
tp2295
asg117
V[ +highTone ]
p2296
sbasg125
I00
sg117
V[ +highTone ] [  ]
p2297
sg127
I00
sg128
S'L'
sbsg129
(irule
FeatureMatrix
p2298
(dp2299
g115
(lp2300
(I00
g768
tp2301
asg117
V[ -highTone ]
p2302
sbsg135
(irule
Guard
p2303
(dp2304
g110
I00
sg111
(lp2305
sg125
I00
sg117
V
sg127
I00
sg128
S'R'
sbsg139
(irule
FeatureMatrix
p2306
(dp2307
g115
(lp2308
(I01
g1274
tp2309
asg117
V[ +continuant ]
p2310
sbsg117
V[ +continuant ] ---> [ -highTone ] / [ +highTone ] [  ] _ 
p2311
sba(irule
Rule
p2312
(dp2313
g107
(irule
Guard
p2314
(dp2315
g110
I00
sg111
(lp2316
(irule
FeatureMatrix
p2317
(dp2318
g115
(lp2319
sg117
V[  ]
p2320
sba(irule
FeatureMatrix
p2321
(dp2322
g115
(lp2323
(I01
g768
tp2324
asg117
V[ +highTone ]
p2325
sbasg125
I00
sg117
V[ +highTone ] [  ]
p2326
sg127
I00
sg128
S'L'
sbsg129
(irule
FeatureMatrix
p2327
(dp2328
g115
(lp2329
(I00
g768
tp2330
asg117
V[ -highTone ]
p2331
sbsg135
(irule
Guard
p2332
(dp2333
g110
I00
sg111
(lp2334
sg125
I00
sg117
V
sg127
I00
sg128
S'R'
sbsg139
(irule
FeatureMatrix
p2335
(dp2336
g115
(lp2337
(I00
g976
tp2338
asg117
V[ -liquid ]
p2339
sbsg117
V[ -liquid ] ---> [ -highTone ] / [ +highTone ] [  ] _ 
p2340
sba(irule
Rule
p2341
(dp2342
g107
(irule
Guard
p2343
(dp2344
g110
I00
sg111
(lp2345
(irule
FeatureMatrix
p2346
(dp2347
g115
(lp2348
sg117
V[  ]
p2349
sba(irule
FeatureMatrix
p2350
(dp2351
g115
(lp2352
(I01
g768
tp2353
asg117
V[ +highTone ]
p2354
sbasg125
I00
sg117
V[ +highTone ] [  ]
p2355
sg127
I00
sg128
S'L'
sbsg129
(irule
FeatureMatrix
p2356
(dp2357
g115
(lp2358
(I00
g768
tp2359
asg117
V[ -highTone ]
p2360
sbsg135
(irule
Guard
p2361
(dp2362
g110
I00
sg111
(lp2363
sg125
I00
sg117
V
sg127
I00
sg128
S'R'
sbsg139
(irule
FeatureMatrix
p2364
(dp2365
g115
(lp2366
(I00
g946
tp2367
asg117
V[ -anterior ]
p2368
sbsg117
V[ -anterior ] ---> [ -highTone ] / [ +highTone ] [  ] _ 
p2369
sba(irule
Rule
p2370
(dp2371
g107
(irule
Guard
p2372
(dp2373
g110
I00
sg111
(lp2374
(irule
FeatureMatrix
p2375
(dp2376
g115
(lp2377
(I00
g793
tp2378
asg117
V[ -back ]
p2379
sba(irule
FeatureMatrix
p2380
(dp2381
g115
(lp2382
(I01
g768
tp2383
asg117
V[ +highTone ]
p2384
sbasg125
I00
sg117
V[ +highTone ] [ -back ]*
p2385
sg127
I01
sg128
S'L'
sbsg129
(irule
FeatureMatrix
p2386
(dp2387
g115
(lp2388
(I00
g768
tp2389
asg117
V[ -highTone ]
p2390
sbsg135
(irule
Guard
p2391
(dp2392
g110
I00
sg111
(lp2393
sg125
I00
sg117
V
sg127
I00
sg128
S'R'
sbsg139
(irule
FeatureMatrix
p2394
(dp2395
g115
(lp2396
sg117
V[  ]
p2397
sbsg117
V[  ] ---> [ -highTone ] / [ +highTone ] [ -back ]* _ 
p2398
sba(irule
Rule
p2399
(dp2400
g107
(irule
Guard
p2401
(dp2402
g110
I00
sg111
(lp2403
(irule
FeatureMatrix
p2404
(dp2405
g115
(lp2406
(I00
g768
tp2407
asg117
V[ -highTone ]
p2408
sba(irule
FeatureMatrix
p2409
(dp2410
g115
(lp2411
(I01
g768
tp2412
asg117
V[ +highTone ]
p2413
sbasg125
I00
sg117
V[ +highTone ] [ -highTone ]*
p2414
sg127
I01
sg128
S'L'
sbsg129
(irule
FeatureMatrix
p2415
(dp2416
g115
(lp2417
(I00
g768
tp2418
asg117
V[ -highTone ]
p2419
sbsg135
(irule
Guard
p2420
(dp2421
g110
I00
sg111
(lp2422
sg125
I00
sg117
V
sg127
I00
sg128
S'R'
sbsg139
(irule
FeatureMatrix
p2423
(dp2424
g115
(lp2425
sg117
V[  ]
p2426
sbsg117
V[  ] ---> [ -highTone ] / [ +highTone ] [ -highTone ]* _ 
p2427
sba(irule
Rule
p2428
(dp2429
g107
(irule
Guard
p2430
(dp2431
g110
I00
sg111
(lp2432
(irule
FeatureMatrix
p2433
(dp2434
g115
(lp2435
sg117
V[  ]
p2436
sba(irule
FeatureMatrix
p2437
(dp2438
g115
(lp2439
(I01
g768
tp2440
a(I00
g858
tp2441
asg117
V[ +highTone -low ]
p2442
sbasg125
I00
sg117
V[ +highTone -low ] [  ]*
p2443
sg127
I01
sg128
S'L'
sbsg129
(irule
FeatureMatrix
p2444
(dp2445
g115
(lp2446
(I00
g768
tp2447
asg117
V[ -highTone ]
p2448
sbsg135
(irule
Guard
p2449
(dp2450
g110
I00
sg111
(lp2451
sg125
I00
sg117
V
sg127
I00
sg128
S'R'
sbsg139
(irule
FeatureMatrix
p2452
(dp2453
g115
(lp2454
sg117
V[  ]
p2455
sbsg117
V[  ] ---> [ -highTone ] / [ +highTone -low ] [  ]* _ 
p2456
sba(irule
Rule
p2457
(dp2458
g107
(irule
Guard
p2459
(dp2460
g110
I00
sg111
(lp2461
(irule
FeatureMatrix
p2462
(dp2463
g115
(lp2464
sg117
V[  ]
p2465
sba(irule
FeatureMatrix
p2466
(dp2467
g115
(lp2468
(I01
g768
tp2469
a(I01
g1073
tp2470
asg117
V[ +highTone +voice ]
p2471
sbasg125
I00
sg117
V[ +highTone +voice ] [  ]*
p2472
sg127
I01
sg128
S'L'
sbsg129
(irule
FeatureMatrix
p2473
(dp2474
g115
(lp2475
(I00
g768
tp2476
asg117
V[ -highTone ]
p2477
sbsg135
(irule
Guard
p2478
(dp2479
g110
I00
sg111
(lp2480
sg125
I00
sg117
V
sg127
I00
sg128
S'R'
sbsg139
(irule
FeatureMatrix
p2481
(dp2482
g115
(lp2483
sg117
V[  ]
p2484
sbsg117
V[  ] ---> [ -highTone ] / [ +highTone +voice ] [  ]* _ 
p2485
sba(irule
Rule
p2486
(dp2487
g107
(irule
Guard
p2488
(dp2489
g110
I00
sg111
(lp2490
(irule
FeatureMatrix
p2491
(dp2492
g115
(lp2493
sg117
V[  ]
p2494
sba(irule
FeatureMatrix
p2495
(dp2496
g115
(lp2497
(I01
g768
tp2498
asg117
V[ +highTone ]
p2499
sbasg125
I00
sg117
V[ +highTone ] [  ]*
p2500
sg127
I01
sg128
S'L'
sbsg129
(irule
FeatureMatrix
p2501
(dp2502
g115
(lp2503
(I00
g768
tp2504
asg117
V[ -highTone ]
p2505
sbsg135
(irule
Guard
p2506
(dp2507
g110
I00
sg111
(lp2508
(irule
FeatureMatrix
p2509
(dp2510
g115
(lp2511
sg117
V[  ]
p2512
sbasg125
I00
sg117
g2512
sg127
I00
sg128
S'R'
sbsg139
(irule
FeatureMatrix
p2513
(dp2514
g115
(lp2515
sg117
V[  ]
p2516
sbsg117
V[  ] ---> [ -highTone ] / [ +highTone ] [  ]* _ [  ]
p2517
sba(irule
Rule
p2518
(dp2519
g107
(irule
Guard
p2520
(dp2521
g110
I00
sg111
(lp2522
(irule
FeatureMatrix
p2523
(dp2524
g115
(lp2525
sg117
V[  ]
p2526
sba(irule
FeatureMatrix
p2527
(dp2528
g115
(lp2529
(I00
g946
tp2530
a(I01
g768
tp2531
asg117
V[ +highTone -anterior ]
p2532
sbasg125
I00
sg117
V[ +highTone -anterior ] [  ]*
p2533
sg127
I01
sg128
S'L'
sbsg129
(irule
FeatureMatrix
p2534
(dp2535
g115
(lp2536
(I00
g768
tp2537
asg117
V[ -highTone ]
p2538
sbsg135
(irule
Guard
p2539
(dp2540
g110
I00
sg111
(lp2541
sg125
I00
sg117
V
sg127
I00
sg128
S'R'
sbsg139
(irule
FeatureMatrix
p2542
(dp2543
g115
(lp2544
sg117
V[  ]
p2545
sbsg117
V[  ] ---> [ -highTone ] / [ +highTone -anterior ] [  ]* _ 
p2546
sba(irule
Rule
p2547
(dp2548
g107
(irule
Guard
p2549
(dp2550
g110
I00
sg111
(lp2551
(irule
FeatureMatrix
p2552
(dp2553
g115
(lp2554
sg117
V[  ]
p2555
sba(irule
FeatureMatrix
p2556
(dp2557
g115
(lp2558
(I01
g768
tp2559
a(I00
g834
tp2560
asg117
V[ +highTone -sibilant ]
p2561
sbasg125
I00
sg117
V[ +highTone -sibilant ] [  ]*
p2562
sg127
I01
sg128
S'L'
sbsg129
(irule
FeatureMatrix
p2563
(dp2564
g115
(lp2565
(I00
g768
tp2566
asg117
V[ -highTone ]
p2567
sbsg135
(irule
Guard
p2568
(dp2569
g110
I00
sg111
(lp2570
sg125
I00
sg117
V
sg127
I00
sg128
S'R'
sbsg139
(irule
FeatureMatrix
p2571
(dp2572
g115
(lp2573
sg117
V[  ]
p2574
sbsg117
V[  ] ---> [ -highTone ] / [ +highTone -sibilant ] [  ]* _ 
p2575
sba(irule
Rule
p2576
(dp2577
g107
(irule
Guard
p2578
(dp2579
g110
I00
sg111
(lp2580
(irule
FeatureMatrix
p2581
(dp2582
g115
(lp2583
sg117
V[  ]
p2584
sba(irule
FeatureMatrix
p2585
(dp2586
g115
(lp2587
(I01
g768
tp2588
asg117
V[ +highTone ]
p2589
sbasg125
I00
sg117
V[ +highTone ] [  ]
p2590
sg127
I00
sg128
S'L'
sbsg129
(irule
FeatureMatrix
p2591
(dp2592
g115
(lp2593
(I00
g1244
tp2594
a(I00
g768
tp2595
a(I00
g834
tp2596
asg117
V[ -glide -highTone -sibilant ]
p2597
sbsg135
(irule
Guard
p2598
(dp2599
g110
I00
sg111
(lp2600
sg125
I00
sg117
V
sg127
I00
sg128
S'R'
sbsg139
(irule
FeatureMatrix
p2601
(dp2602
g115
(lp2603
sg117
V[  ]
p2604
sbsg117
V[  ] ---> [ -glide -highTone -sibilant ] / [ +highTone ] [  ] _ 
p2605
sba(irule
Rule
p2606
(dp2607
g107
(irule
Guard
p2608
(dp2609
g110
I00
sg111
(lp2610
(irule
FeatureMatrix
p2611
(dp2612
g115
(lp2613
sg117
V[  ]
p2614
sba(irule
FeatureMatrix
p2615
(dp2616
g115
(lp2617
(I00
g1244
tp2618
a(I01
g768
tp2619
asg117
V[ +highTone -glide ]
p2620
sbasg125
I00
sg117
V[ +highTone -glide ] [  ]*
p2621
sg127
I01
sg128
S'L'
sbsg129
(irule
FeatureMatrix
p2622
(dp2623
g115
(lp2624
(I00
g768
tp2625
asg117
V[ -highTone ]
p2626
sbsg135
(irule
Guard
p2627
(dp2628
g110
I00
sg111
(lp2629
sg125
I00
sg117
V
sg127
I00
sg128
S'R'
sbsg139
(irule
FeatureMatrix
p2630
(dp2631
g115
(lp2632
sg117
V[  ]
p2633
sbsg117
V[  ] ---> [ -highTone ] / [ +highTone -glide ] [  ]* _ 
p2634
sba(irule
Rule
p2635
(dp2636
g107
(irule
Guard
p2637
(dp2638
g110
I00
sg111
(lp2639
(irule
FeatureMatrix
p2640
(dp2641
g115
(lp2642
sg117
V[  ]
p2643
sba(irule
FeatureMatrix
p2644
(dp2645
g115
(lp2646
(I00
g976
tp2647
a(I01
g768
tp2648
asg117
V[ +highTone -liquid ]
p2649
sbasg125
I00
sg117
V[ +highTone -liquid ] [  ]*
p2650
sg127
I01
sg128
S'L'
sbsg129
(irule
FeatureMatrix
p2651
(dp2652
g115
(lp2653
(I00
g768
tp2654
asg117
V[ -highTone ]
p2655
sbsg135
(irule
Guard
p2656
(dp2657
g110
I00
sg111
(lp2658
sg125
I00
sg117
V
sg127
I00
sg128
S'R'
sbsg139
(irule
FeatureMatrix
p2659
(dp2660
g115
(lp2661
sg117
V[  ]
p2662
sbsg117
V[  ] ---> [ -highTone ] / [ +highTone -liquid ] [  ]* _ 
p2663
sba(irule
Rule
p2664
(dp2665
g107
(irule
Guard
p2666
(dp2667
g110
I00
sg111
(lp2668
(irule
FeatureMatrix
p2669
(dp2670
g115
(lp2671
sg117
V[  ]
p2672
sba(irule
FeatureMatrix
p2673
(dp2674
g115
(lp2675
(I01
g768
tp2676
a(I01
g1002
tp2677
asg117
V[ +highTone +vowel ]
p2678
sbasg125
I00
sg117
V[ +highTone +vowel ] [  ]*
p2679
sg127
I01
sg128
S'L'
sbsg129
(irule
FeatureMatrix
p2680
(dp2681
g115
(lp2682
(I00
g768
tp2683
asg117
V[ -highTone ]
p2684
sbsg135
(irule
Guard
p2685
(dp2686
g110
I00
sg111
(lp2687
sg125
I00
sg117
V
sg127
I00
sg128
S'R'
sbsg139
(irule
FeatureMatrix
p2688
(dp2689
g115
(lp2690
sg117
V[  ]
p2691
sbsg117
V[  ] ---> [ -highTone ] / [ +highTone +vowel ] [  ]* _ 
p2692
sba(irule
Rule
p2693
(dp2694
g107
(irule
Guard
p2695
(dp2696
g110
I00
sg111
(lp2697
(irule
FeatureMatrix
p2698
(dp2699
g115
(lp2700
sg117
V[  ]
p2701
sba(irule
FeatureMatrix
p2702
(dp2703
g115
(lp2704
(I01
g768
tp2705
asg117
V[ +highTone ]
p2706
sbasg125
I00
sg117
V[ +highTone ] [  ]
p2707
sg127
I00
sg128
S'L'
sbsg129
(irule
FeatureMatrix
p2708
(dp2709
g115
(lp2710
(I00
g768
tp2711
a(I01
g1002
tp2712
a(I01
g1073
tp2713
asg117
V[ +voice +vowel -highTone ]
p2714
sbsg135
(irule
Guard
p2715
(dp2716
g110
I00
sg111
(lp2717
sg125
I00
sg117
V
sg127
I00
sg128
S'R'
sbsg139
(irule
FeatureMatrix
p2718
(dp2719
g115
(lp2720
sg117
V[  ]
p2721
sbsg117
V[  ] ---> [ +voice +vowel -highTone ] / [ +highTone ] [  ] _ 
p2722
sba(irule
Rule
p2723
(dp2724
g107
(irule
Guard
p2725
(dp2726
g110
I00
sg111
(lp2727
(irule
FeatureMatrix
p2728
(dp2729
g115
(lp2730
sg117
V[  ]
p2731
sba(irule
FeatureMatrix
p2732
(dp2733
g115
(lp2734
(I01
g768
tp2735
a(I00
g1037
tp2736
asg117
V[ +highTone -palletized ]
p2737
sbasg125
I00
sg117
V[ +highTone -palletized ] [  ]*
p2738
sg127
I01
sg128
S'L'
sbsg129
(irule
FeatureMatrix
p2739
(dp2740
g115
(lp2741
(I00
g768
tp2742
asg117
V[ -highTone ]
p2743
sbsg135
(irule
Guard
p2744
(dp2745
g110
I00
sg111
(lp2746
sg125
I00
sg117
V
sg127
I00
sg128
S'R'
sbsg139
(irule
FeatureMatrix
p2747
(dp2748
g115
(lp2749
sg117
V[  ]
p2750
sbsg117
V[  ] ---> [ -highTone ] / [ +highTone -palletized ] [  ]* _ 
p2751
sba(irule
Rule
p2752
(dp2753
g107
(irule
Guard
p2754
(dp2755
g110
I00
sg111
(lp2756
(irule
FeatureMatrix
p2757
(dp2758
g115
(lp2759
sg117
V[  ]
p2760
sba(irule
FeatureMatrix
p2761
(dp2762
g115
(lp2763
(I01
g768
tp2764
asg117
V[ +highTone ]
p2765
sbasg125
I00
sg117
V[ +highTone ] [  ]*
p2766
sg127
I01
sg128
S'L'
sbsg129
(irule
FeatureMatrix
p2767
(dp2768
g115
(lp2769
(I00
g768
tp2770
asg117
V[ -highTone ]
p2771
sbsg135
(irule
Guard
p2772
(dp2773
g110
I00
sg111
(lp2774
sg125
I00
sg117
V
sg127
I00
sg128
S'R'
sbsg139
(irule
FeatureMatrix
p2775
(dp2776
g115
(lp2777
(I01
g768
tp2778
asg117
V[ +highTone ]
p2779
sbsg117
V[ +highTone ] ---> [ -highTone ] / [ +highTone ] [  ]* _ 
p2780
sba(irule
Rule
p2781
(dp2782
g107
(irule
Guard
p2783
(dp2784
g110
I00
sg111
(lp2785
(irule
FeatureMatrix
p2786
(dp2787
g115
(lp2788
sg117
V[  ]
p2789
sba(irule
FeatureMatrix
p2790
(dp2791
g115
(lp2792
(I01
g1274
tp2793
a(I01
g768
tp2794
asg117
V[ +continuant +highTone ]
p2795
sbasg125
I00
sg117
V[ +continuant +highTone ] [  ]*
p2796
sg127
I01
sg128
S'L'
sbsg129
(irule
FeatureMatrix
p2797
(dp2798
g115
(lp2799
(I00
g768
tp2800
asg117
V[ -highTone ]
p2801
sbsg135
(irule
Guard
p2802
(dp2803
g110
I00
sg111
(lp2804
sg125
I00
sg117
V
sg127
I00
sg128
S'R'
sbsg139
(irule
FeatureMatrix
p2805
(dp2806
g115
(lp2807
sg117
V[  ]
p2808
sbsg117
V[  ] ---> [ -highTone ] / [ +continuant +highTone ] [  ]* _ 
p2809
sba(irule
Rule
p2810
(dp2811
g107
(irule
Guard
p2812
(dp2813
g110
I00
sg111
(lp2814
(irule
FeatureMatrix
p2815
(dp2816
g115
(lp2817
sg117
V[  ]
p2818
sba(irule
FeatureMatrix
p2819
(dp2820
g115
(lp2821
(I01
g768
tp2822
asg117
V[ +highTone ]
p2823
sbasg125
I00
sg117
V[ +highTone ] [  ]*
p2824
sg127
I01
sg128
S'L'
sbsg129
(irule
FeatureMatrix
p2825
(dp2826
g115
(lp2827
(I00
g768
tp2828
asg117
V[ -highTone ]
p2829
sbsg135
(irule
Guard
p2830
(dp2831
g110
I00
sg111
(lp2832
sg125
I00
sg117
V
sg127
I00
sg128
S'R'
sbsg139
(irule
FeatureMatrix
p2833
(dp2834
g115
(lp2835
(I00
g1456
tp2836
asg117
V[ -lateral ]
p2837
sbsg117
V[ -lateral ] ---> [ -highTone ] / [ +highTone ] [  ]* _ 
p2838
sba(irule
Rule
p2839
(dp2840
g107
(irule
Guard
p2841
(dp2842
g110
I00
sg111
(lp2843
(irule
FeatureMatrix
p2844
(dp2845
g115
(lp2846
(I00
g912
tp2847
asg117
V[ -high ]
p2848
sba(irule
FeatureMatrix
p2849
(dp2850
g115
(lp2851
(I01
g768
tp2852
asg117
V[ +highTone ]
p2853
sbasg125
I00
sg117
V[ +highTone ] [ -high ]*
p2854
sg127
I01
sg128
S'L'
sbsg129
(irule
FeatureMatrix
p2855
(dp2856
g115
(lp2857
(I00
g768
tp2858
asg117
V[ -highTone ]
p2859
sbsg135
(irule
Guard
p2860
(dp2861
g110
I00
sg111
(lp2862
sg125
I00
sg117
V
sg127
I00
sg128
S'R'
sbsg139
(irule
FeatureMatrix
p2863
(dp2864
g115
(lp2865
sg117
V[  ]
p2866
sbsg117
V[  ] ---> [ -highTone ] / [ +highTone ] [ -high ]* _ 
p2867
sba(irule
Rule
p2868
(dp2869
g107
(irule
Guard
p2870
(dp2871
g110
I00
sg111
(lp2872
(irule
FeatureMatrix
p2873
(dp2874
g115
(lp2875
sg117
V[  ]
p2876
sba(irule
FeatureMatrix
p2877
(dp2878
g115
(lp2879
(I01
g768
tp2880
a(I00
g1103
tp2881
asg117
V[ +highTone -coronal ]
p2882
sbasg125
I00
sg117
V[ +highTone -coronal ] [  ]*
p2883
sg127
I01
sg128
S'L'
sbsg129
(irule
FeatureMatrix
p2884
(dp2885
g115
(lp2886
(I00
g768
tp2887
asg117
V[ -highTone ]
p2888
sbsg135
(irule
Guard
p2889
(dp2890
g110
I00
sg111
(lp2891
sg125
I00
sg117
V
sg127
I00
sg128
S'R'
sbsg139
(irule
FeatureMatrix
p2892
(dp2893
g115
(lp2894
sg117
V[  ]
p2895
sbsg117
V[  ] ---> [ -highTone ] / [ +highTone -coronal ] [  ]* _ 
p2896
sba(irule
Rule
p2897
(dp2898
g107
(irule
Guard
p2899
(dp2900
g110
I00
sg111
(lp2901
(irule
FeatureMatrix
p2902
(dp2903
g115
(lp2904
(I00
g793
tp2905
asg117
V[ -back ]
p2906
sba(irule
FeatureMatrix
p2907
(dp2908
g115
(lp2909
(I00
g946
tp2910
a(I01
g768
tp2911
asg117
V[ +highTone -anterior ]
p2912
sbasg125
I00
sg117
V[ +highTone -anterior ] [ -back ]
p2913
sg127
I00
sg128
S'L'
sbsg129
(irule
FeatureMatrix
p2914
(dp2915
g115
(lp2916
(I00
g768
tp2917
asg117
V[ -highTone ]
p2918
sbsg135
(irule
Guard
p2919
(dp2920
g110
I00
sg111
(lp2921
sg125
I00
sg117
V
sg127
I00
sg128
S'R'
sbsg139
(irule
FeatureMatrix
p2922
(dp2923
g115
(lp2924
sg117
V[  ]
p2925
sbsg117
V[  ] ---> [ -highTone ] / [ +highTone -anterior ] [ -back ] _ 
p2926
sba(irule
Rule
p2927
(dp2928
g107
(irule
Guard
p2929
(dp2930
g110
I00
sg111
(lp2931
(irule
FeatureMatrix
p2932
(dp2933
g115
(lp2934
sg117
V[  ]
p2935
sba(irule
FeatureMatrix
p2936
(dp2937
g115
(lp2938
(I00
g1456
tp2939
a(I01
g768
tp2940
asg117
V[ +highTone -lateral ]
p2941
sbasg125
I00
sg117
V[ +highTone -lateral ] [  ]*
p2942
sg127
I01
sg128
S'L'
sbsg129
(irule
FeatureMatrix
p2943
(dp2944
g115
(lp2945
(I00
g768
tp2946
asg117
V[ -highTone ]
p2947
sbsg135
(irule
Guard
p2948
(dp2949
g110
I00
sg111
(lp2950
sg125
I00
sg117
V
sg127
I00
sg128
S'R'
sbsg139
(irule
FeatureMatrix
p2951
(dp2952
g115
(lp2953
sg117
V[  ]
p2954
sbsg117
V[  ] ---> [ -highTone ] / [ +highTone -lateral ] [  ]* _ 
p2955
sba(irule
Rule
p2956
(dp2957
g107
(irule
Guard
p2958
(dp2959
g110
I00
sg111
(lp2960
(irule
FeatureMatrix
p2961
(dp2962
g115
(lp2963
sg117
V[  ]
p2964
sba(irule
FeatureMatrix
p2965
(dp2966
g115
(lp2967
(I00
g1122
tp2968
a(I01
g768
tp2969
asg117
V[ +highTone -nasal ]
p2970
sbasg125
I00
sg117
V[ +highTone -nasal ] [  ]*
p2971
sg127
I01
sg128
S'L'
sbsg129
(irule
FeatureMatrix
p2972
(dp2973
g115
(lp2974
(I00
g768
tp2975
asg117
V[ -highTone ]
p2976
sbsg135
(irule
Guard
p2977
(dp2978
g110
I00
sg111
(lp2979
sg125
I00
sg117
V
sg127
I00
sg128
S'R'
sbsg139
(irule
FeatureMatrix
p2980
(dp2981
g115
(lp2982
sg117
V[  ]
p2983
sbsg117
V[  ] ---> [ -highTone ] / [ +highTone -nasal ] [  ]* _ 
p2984
sba(irule
Rule
p2985
(dp2986
g107
(irule
Guard
p2987
(dp2988
g110
I00
sg111
(lp2989
(irule
FeatureMatrix
p2990
(dp2991
g115
(lp2992
sg117
V[  ]
p2993
sba(irule
FeatureMatrix
p2994
(dp2995
g115
(lp2996
(I01
g768
tp2997
asg117
V[ +highTone ]
p2998
sbasg125
I00
sg117
V[ +highTone ] [  ]*
p2999
sg127
I01
sg128
S'L'
sbsg129
(irule
FeatureMatrix
p3000
(dp3001
g115
(lp3002
(I00
g768
tp3003
asg117
V[ -highTone ]
p3004
sbsg135
(irule
Guard
p3005
(dp3006
g110
I00
sg111
(lp3007
sg125
I00
sg117
V
sg127
I00
sg128
S'R'
sbsg139
(irule
FeatureMatrix
p3008
(dp3009
g115
(lp3010
(I00
g834
tp3011
asg117
V[ -sibilant ]
p3012
sbsg117
V[ -sibilant ] ---> [ -highTone ] / [ +highTone ] [  ]* _ 
p3013
sba(irule
Rule
p3014
(dp3015
g107
(irule
Guard
p3016
(dp3017
g110
I00
sg111
(lp3018
(irule
FeatureMatrix
p3019
(dp3020
g115
(lp3021
(I00
g793
tp3022
asg117
V[ -back ]
p3023
sba(irule
FeatureMatrix
p3024
(dp3025
g115
(lp3026
(I01
g768
tp3027
a(I01
g912
tp3028
asg117
V[ +high +highTone ]
p3029
sbasg125
I00
sg117
V[ +high +highTone ] [ -back ]
p3030
sg127
I00
sg128
S'L'
sbsg129
(irule
FeatureMatrix
p3031
(dp3032
g115
(lp3033
(I00
g768
tp3034
asg117
V[ -highTone ]
p3035
sbsg135
(irule
Guard
p3036
(dp3037
g110
I00
sg111
(lp3038
sg125
I00
sg117
V
sg127
I00
sg128
S'R'
sbsg139
(irule
FeatureMatrix
p3039
(dp3040
g115
(lp3041
sg117
V[  ]
p3042
sbsg117
V[  ] ---> [ -highTone ] / [ +high +highTone ] [ -back ] _ 
p3043
sba(irule
Rule
p3044
(dp3045
g107
(irule
Guard
p3046
(dp3047
g110
I00
sg111
(lp3048
(irule
FeatureMatrix
p3049
(dp3050
g115
(lp3051
(I00
g768
tp3052
asg117
V[ -highTone ]
p3053
sba(irule
FeatureMatrix
p3054
(dp3055
g115
(lp3056
(I00
g946
tp3057
a(I01
g768
tp3058
asg117
V[ +highTone -anterior ]
p3059
sbasg125
I00
sg117
V[ +highTone -anterior ] [ -highTone ]
p3060
sg127
I00
sg128
S'L'
sbsg129
(irule
FeatureMatrix
p3061
(dp3062
g115
(lp3063
(I00
g768
tp3064
asg117
V[ -highTone ]
p3065
sbsg135
(irule
Guard
p3066
(dp3067
g110
I00
sg111
(lp3068
sg125
I00
sg117
V
sg127
I00
sg128
S'R'
sbsg139
(irule
FeatureMatrix
p3069
(dp3070
g115
(lp3071
sg117
V[  ]
p3072
sbsg117
V[  ] ---> [ -highTone ] / [ +highTone -anterior ] [ -highTone ] _ 
p3073
sba(irule
Rule
p3074
(dp3075
g107
(irule
Guard
p3076
(dp3077
g110
I00
sg111
(lp3078
(irule
FeatureMatrix
p3079
(dp3080
g115
(lp3081
sg117
V[  ]
p3082
sba(irule
FeatureMatrix
p3083
(dp3084
g115
(lp3085
(I01
g768
tp3086
asg117
V[ +highTone ]
p3087
sbasg125
I00
sg117
V[ +highTone ] [  ]
p3088
sg127
I00
sg128
S'L'
sbsg129
(irule
FeatureMatrix
p3089
(dp3090
g115
(lp3091
(I00
g768
tp3092
a(I00
g834
tp3093
a(I01
g1073
tp3094
asg117
V[ +voice -highTone -sibilant ]
p3095
sbsg135
(irule
Guard
p3096
(dp3097
g110
I00
sg111
(lp3098
sg125
I00
sg117
V
sg127
I00
sg128
S'R'
sbsg139
(irule
FeatureMatrix
p3099
(dp3100
g115
(lp3101
sg117
V[  ]
p3102
sbsg117
V[  ] ---> [ +voice -highTone -sibilant ] / [ +highTone ] [  ] _ 
p3103
sba(irule
Rule
p3104
(dp3105
g107
(irule
Guard
p3106
(dp3107
g110
I00
sg111
(lp3108
(irule
FeatureMatrix
p3109
(dp3110
g115
(lp3111
sg117
V[  ]
p3112
sba(irule
FeatureMatrix
p3113
(dp3114
g115
(lp3115
(I01
g768
tp3116
asg117
V[ +highTone ]
p3117
sbasg125
I00
sg117
V[ +highTone ] [  ]
p3118
sg127
I00
sg128
S'L'
sbsg129
(irule
FeatureMatrix
p3119
(dp3120
g115
(lp3121
(I00
g1122
tp3122
a(I00
g768
tp3123
a(I00
g834
tp3124
asg117
V[ -highTone -nasal -sibilant ]
p3125
sbsg135
(irule
Guard
p3126
(dp3127
g110
I00
sg111
(lp3128
sg125
I00
sg117
V
sg127
I00
sg128
S'R'
sbsg139
(irule
FeatureMatrix
p3129
(dp3130
g115
(lp3131
sg117
V[  ]
p3132
sbsg117
V[  ] ---> [ -highTone -nasal -sibilant ] / [ +highTone ] [  ] _ 
p3133
sba(irule
Rule
p3134
(dp3135
g107
(irule
Guard
p3136
(dp3137
g110
I00
sg111
(lp3138
(irule
FeatureMatrix
p3139
(dp3140
g115
(lp3141
(I00
g1002
tp3142
asg117
V[ -vowel ]
p3143
sba(irule
FeatureMatrix
p3144
(dp3145
g115
(lp3146
(I01
g768
tp3147
asg117
V[ +highTone ]
p3148
sbasg125
I00
sg117
V[ +highTone ] [ -vowel ]*
p3149
sg127
I01
sg128
S'L'
sbsg129
(irule
FeatureMatrix
p3150
(dp3151
g115
(lp3152
(I00
g768
tp3153
asg117
V[ -highTone ]
p3154
sbsg135
(irule
Guard
p3155
(dp3156
g110
I00
sg111
(lp3157
sg125
I00
sg117
V
sg127
I00
sg128
S'R'
sbsg139
(irule
FeatureMatrix
p3158
(dp3159
g115
(lp3160
sg117
V[  ]
p3161
sbsg117
V[  ] ---> [ -highTone ] / [ +highTone ] [ -vowel ]* _ 
p3162
sba(irule
Rule
p3163
(dp3164
g107
(irule
Guard
p3165
(dp3166
g110
I00
sg111
(lp3167
(irule
FeatureMatrix
p3168
(dp3169
g115
(lp3170
(I00
g1122
tp3171
asg117
V[ -nasal ]
p3172
sba(irule
FeatureMatrix
p3173
(dp3174
g115
(lp3175
(I01
g768
tp3176
asg117
V[ +highTone ]
p3177
sbasg125
I00
sg117
V[ +highTone ] [ -nasal ]*
p3178
sg127
I01
sg128
S'L'
sbsg129
(irule
FeatureMatrix
p3179
(dp3180
g115
(lp3181
(I00
g768
tp3182
asg117
V[ -highTone ]
p3183
sbsg135
(irule
Guard
p3184
(dp3185
g110
I00
sg111
(lp3186
sg125
I00
sg117
V
sg127
I00
sg128
S'R'
sbsg139
(irule
FeatureMatrix
p3187
(dp3188
g115
(lp3189
sg117
V[  ]
p3190
sbsg117
V[  ] ---> [ -highTone ] / [ +highTone ] [ -nasal ]* _ 
p3191
sba(irule
Rule
p3192
(dp3193
g107
(irule
Guard
p3194
(dp3195
g110
I00
sg111
(lp3196
(irule
FeatureMatrix
p3197
(dp3198
g115
(lp3199
sg117
V[  ]
p3200
sba(irule
FeatureMatrix
p3201
(dp3202
g115
(lp3203
(I00
g946
tp3204
a(I01
g768
tp3205
a(I00
g858
tp3206
asg117
V[ +highTone -anterior -low ]
p3207
sbasg125
I00
sg117
V[ +highTone -anterior -low ] [  ]
p3208
sg127
I00
sg128
S'L'
sbsg129
(irule
FeatureMatrix
p3209
(dp3210
g115
(lp3211
(I00
g768
tp3212
asg117
V[ -highTone ]
p3213
sbsg135
(irule
Guard
p3214
(dp3215
g110
I00
sg111
(lp3216
sg125
I00
sg117
V
sg127
I00
sg128
S'R'
sbsg139
(irule
FeatureMatrix
p3217
(dp3218
g115
(lp3219
sg117
V[  ]
p3220
sbsg117
V[  ] ---> [ -highTone ] / [ +highTone -anterior -low ] [  ] _ 
p3221
sba(irule
Rule
p3222
(dp3223
g107
(irule
Guard
p3224
(dp3225
g110
I00
sg111
(lp3226
(irule
FeatureMatrix
p3227
(dp3228
g115
(lp3229
(I00
g793
tp3230
asg117
V[ -back ]
p3231
sba(irule
FeatureMatrix
p3232
(dp3233
g115
(lp3234
(I01
g768
tp3235
a(I00
g858
tp3236
asg117
V[ +highTone -low ]
p3237
sbasg125
I00
sg117
V[ +highTone -low ] [ -back ]
p3238
sg127
I00
sg128
S'L'
sbsg129
(irule
FeatureMatrix
p3239
(dp3240
g115
(lp3241
(I00
g768
tp3242
asg117
V[ -highTone ]
p3243
sbsg135
(irule
Guard
p3244
(dp3245
g110
I00
sg111
(lp3246
sg125
I00
sg117
V
sg127
I00
sg128
S'R'
sbsg139
(irule
FeatureMatrix
p3247
(dp3248
g115
(lp3249
sg117
V[  ]
p3250
sbsg117
V[  ] ---> [ -highTone ] / [ +highTone -low ] [ -back ] _ 
p3251
sba(irule
Rule
p3252
(dp3253
g107
(irule
Guard
p3254
(dp3255
g110
I00
sg111
(lp3256
(irule
FeatureMatrix
p3257
(dp3258
g115
(lp3259
sg117
V[  ]
p3260
sba(irule
FeatureMatrix
p3261
(dp3262
g115
(lp3263
(I01
g768
tp3264
a(I01
g1152
tp3265
asg117
V[ +highTone +tense ]
p3266
sbasg125
I00
sg117
V[ +highTone +tense ] [  ]*
p3267
sg127
I01
sg128
S'L'
sbsg129
(irule
FeatureMatrix
p3268
(dp3269
g115
(lp3270
(I00
g768
tp3271
asg117
V[ -highTone ]
p3272
sbsg135
(irule
Guard
p3273
(dp3274
g110
I00
sg111
(lp3275
sg125
I00
sg117
V
sg127
I00
sg128
S'R'
sbsg139
(irule
FeatureMatrix
p3276
(dp3277
g115
(lp3278
sg117
V[  ]
p3279
sbsg117
V[  ] ---> [ -highTone ] / [ +highTone +tense ] [  ]* _ 
p3280
sba(irule
Rule
p3281
(dp3282
g107
(irule
Guard
p3283
(dp3284
g110
I00
sg111
(lp3285
(irule
FeatureMatrix
p3286
(dp3287
g115
(lp3288
(I00
g858
tp3289
asg117
V[ -low ]
p3290
sba(irule
FeatureMatrix
p3291
(dp3292
g115
(lp3293
(I01
g768
tp3294
asg117
V[ +highTone ]
p3295
sbasg125
I00
sg117
V[ +highTone ] [ -low ]*
p3296
sg127
I01
sg128
S'L'
sbsg129
(irule
FeatureMatrix
p3297
(dp3298
g115
(lp3299
(I00
g768
tp3300
asg117
V[ -highTone ]
p3301
sbsg135
(irule
Guard
p3302
(dp3303
g110
I00
sg111
(lp3304
sg125
I00
sg117
V
sg127
I00
sg128
S'R'
sbsg139
(irule
FeatureMatrix
p3305
(dp3306
g115
(lp3307
sg117
V[  ]
p3308
sbsg117
V[  ] ---> [ -highTone ] / [ +highTone ] [ -low ]* _ 
p3309
sba(irule
Rule
p3310
(dp3311
g107
(irule
Guard
p3312
(dp3313
g110
I00
sg111
(lp3314
(irule
FeatureMatrix
p3315
(dp3316
g115
(lp3317
sg117
V[  ]
p3318
sba(irule
FeatureMatrix
p3319
(dp3320
g115
(lp3321
(I01
g768
tp3322
a(I01
g912
tp3323
asg117
V[ +high +highTone ]
p3324
sbasg125
I00
sg117
V[ +high +highTone ] [  ]*
p3325
sg127
I01
sg128
S'L'
sbsg129
(irule
FeatureMatrix
p3326
(dp3327
g115
(lp3328
(I00
g768
tp3329
asg117
V[ -highTone ]
p3330
sbsg135
(irule
Guard
p3331
(dp3332
g110
I00
sg111
(lp3333
sg125
I00
sg117
V
sg127
I00
sg128
S'R'
sbsg139
(irule
FeatureMatrix
p3334
(dp3335
g115
(lp3336
sg117
V[  ]
p3337
sbsg117
V[  ] ---> [ -highTone ] / [ +high +highTone ] [  ]* _ 
p3338
sba(irule
Rule
p3339
(dp3340
g107
(irule
Guard
p3341
(dp3342
g110
I00
sg111
(lp3343
(irule
FeatureMatrix
p3344
(dp3345
g115
(lp3346
(I00
g1152
tp3347
asg117
V[ -tense ]
p3348
sba(irule
FeatureMatrix
p3349
(dp3350
g115
(lp3351
(I01
g768
tp3352
asg117
V[ +highTone ]
p3353
sbasg125
I00
sg117
V[ +highTone ] [ -tense ]*
p3354
sg127
I01
sg128
S'L'
sbsg129
(irule
FeatureMatrix
p3355
(dp3356
g115
(lp3357
(I00
g768
tp3358
asg117
V[ -highTone ]
p3359
sbsg135
(irule
Guard
p3360
(dp3361
g110
I00
sg111
(lp3362
sg125
I00
sg117
V
sg127
I00
sg128
S'R'
sbsg139
(irule
FeatureMatrix
p3363
(dp3364
g115
(lp3365
sg117
V[  ]
p3366
sbsg117
V[  ] ---> [ -highTone ] / [ +highTone ] [ -tense ]* _ 
p3367
sba(irule
Rule
p3368
(dp3369
g107
(irule
Guard
p3370
(dp3371
g110
I00
sg111
(lp3372
(irule
FeatureMatrix
p3373
(dp3374
g115
(lp3375
sg117
V[  ]
p3376
sba(irule
FeatureMatrix
p3377
(dp3378
g115
(lp3379
(I01
g768
tp3380
a(I01
g1427
tp3381
asg117
V[ +highTone +sonorant ]
p3382
sbasg125
I00
sg117
V[ +highTone +sonorant ] [  ]*
p3383
sg127
I01
sg128
S'L'
sbsg129
(irule
FeatureMatrix
p3384
(dp3385
g115
(lp3386
(I00
g768
tp3387
asg117
V[ -highTone ]
p3388
sbsg135
(irule
Guard
p3389
(dp3390
g110
I00
sg111
(lp3391
sg125
I00
sg117
V
sg127
I00
sg128
S'R'
sbsg139
(irule
FeatureMatrix
p3392
(dp3393
g115
(lp3394
sg117
V[  ]
p3395
sbsg117
V[  ] ---> [ -highTone ] / [ +highTone +sonorant ] [  ]* _ 
p3396
sba(irule
Rule
p3397
(dp3398
g107
(irule
Guard
p3399
(dp3400
g110
I00
sg111
(lp3401
(irule
FeatureMatrix
p3402
(dp3403
g115
(lp3404
sg117
V[  ]
p3405
sba(irule
FeatureMatrix
p3406
(dp3407
g115
(lp3408
(I01
g768
tp3409
a(I00
g858
tp3410
asg117
V[ +highTone -low ]
p3411
sbasg125
I00
sg117
V[ +highTone -low ] [  ]
p3412
sg127
I00
sg128
S'L'
sbsg129
(irule
FeatureMatrix
p3413
(dp3414
g115
(lp3415
(I00
g768
tp3416
asg117
V[ -highTone ]
p3417
sbsg135
(irule
Guard
p3418
(dp3419
g110
I00
sg111
(lp3420
sg125
I00
sg117
V
sg127
I00
sg128
S'R'
sbsg139
(irule
FeatureMatrix
p3421
(dp3422
g115
(lp3423
(I01
g768
tp3424
asg117
V[ +highTone ]
p3425
sbsg117
V[ +highTone ] ---> [ -highTone ] / [ +highTone -low ] [  ] _ 
p3426
sba(irule
Rule
p3427
(dp3428
g107
(irule
Guard
p3429
(dp3430
g110
I00
sg111
(lp3431
(irule
FeatureMatrix
p3432
(dp3433
g115
(lp3434
sg117
V[  ]
p3435
sba(irule
FeatureMatrix
p3436
(dp3437
g115
(lp3438
(I00
g1244
tp3439
a(I01
g768
tp3440
a(I00
g858
tp3441
asg117
V[ +highTone -glide -low ]
p3442
sbasg125
I00
sg117
V[ +highTone -glide -low ] [  ]
p3443
sg127
I00
sg128
S'L'
sbsg129
(irule
FeatureMatrix
p3444
(dp3445
g115
(lp3446
(I00
g768
tp3447
asg117
V[ -highTone ]
p3448
sbsg135
(irule
Guard
p3449
(dp3450
g110
I00
sg111
(lp3451
sg125
I00
sg117
V
sg127
I00
sg128
S'R'
sbsg139
(irule
FeatureMatrix
p3452
(dp3453
g115
(lp3454
sg117
V[  ]
p3455
sbsg117
V[  ] ---> [ -highTone ] / [ +highTone -glide -low ] [  ] _ 
p3456
sba(irule
Rule
p3457
(dp3458
g107
(irule
Guard
p3459
(dp3460
g110
I00
sg111
(lp3461
(irule
FeatureMatrix
p3462
(dp3463
g115
(lp3464
sg117
V[  ]
p3465
sba(irule
FeatureMatrix
p3466
(dp3467
g115
(lp3468
(I01
g768
tp3469
asg117
V[ +highTone ]
p3470
sbasg125
I00
sg117
V[ +highTone ] [  ]*
p3471
sg127
I01
sg128
S'L'
sbsg129
(irule
FeatureMatrix
p3472
(dp3473
g115
(lp3474
(I00
g768
tp3475
asg117
V[ -highTone ]
p3476
sbsg135
(irule
Guard
p3477
(dp3478
g110
I00
sg111
(lp3479
sg125
I00
sg117
V
sg127
I00
sg128
S'R'
sbsg139
(irule
FeatureMatrix
p3480
(dp3481
g115
(lp3482
(I01
g1073
tp3483
asg117
V[ +voice ]
p3484
sbsg117
V[ +voice ] ---> [ -highTone ] / [ +highTone ] [  ]* _ 
p3485
sba(irule
Rule
p3486
(dp3487
g107
(irule
Guard
p3488
(dp3489
g110
I00
sg111
(lp3490
(irule
FeatureMatrix
p3491
(dp3492
g115
(lp3493
(I00
g1244
tp3494
asg117
V[ -glide ]
p3495
sba(irule
FeatureMatrix
p3496
(dp3497
g115
(lp3498
(I01
g768
tp3499
asg117
V[ +highTone ]
p3500
sbasg125
I00
sg117
V[ +highTone ] [ -glide ]*
p3501
sg127
I01
sg128
S'L'
sbsg129
(irule
FeatureMatrix
p3502
(dp3503
g115
(lp3504
(I00
g768
tp3505
asg117
V[ -highTone ]
p3506
sbsg135
(irule
Guard
p3507
(dp3508
g110
I00
sg111
(lp3509
sg125
I00
sg117
V
sg127
I00
sg128
S'R'
sbsg139
(irule
FeatureMatrix
p3510
(dp3511
g115
(lp3512
sg117
V[  ]
p3513
sbsg117
V[  ] ---> [ -highTone ] / [ +highTone ] [ -glide ]* _ 
p3514
sba(irule
Rule
p3515
(dp3516
g107
(irule
Guard
p3517
(dp3518
g110
I00
sg111
(lp3519
(irule
FeatureMatrix
p3520
(dp3521
g115
(lp3522
(I00
g1037
tp3523
asg117
V[ -palletized ]
p3524
sba(irule
FeatureMatrix
p3525
(dp3526
g115
(lp3527
(I01
g768
tp3528
asg117
V[ +highTone ]
p3529
sbasg125
I00
sg117
V[ +highTone ] [ -palletized ]*
p3530
sg127
I01
sg128
S'L'
sbsg129
(irule
FeatureMatrix
p3531
(dp3532
g115
(lp3533
(I00
g768
tp3534
asg117
V[ -highTone ]
p3535
sbsg135
(irule
Guard
p3536
(dp3537
g110
I00
sg111
(lp3538
sg125
I00
sg117
V
sg127
I00
sg128
S'R'
sbsg139
(irule
FeatureMatrix
p3539
(dp3540
g115
(lp3541
sg117
V[  ]
p3542
sbsg117
V[  ] ---> [ -highTone ] / [ +highTone ] [ -palletized ]* _ 
p3543
sba(irule
Rule
p3544
(dp3545
g107
(irule
Guard
p3546
(dp3547
g110
I00
sg111
(lp3548
(irule
FeatureMatrix
p3549
(dp3550
g115
(lp3551
(I00
g912
tp3552
asg117
V[ -high ]
p3553
sba(irule
FeatureMatrix
p3554
(dp3555
g115
(lp3556
(I00
g946
tp3557
a(I01
g768
tp3558
asg117
V[ +highTone -anterior ]
p3559
sbasg125
I00
sg117
V[ +highTone -anterior ] [ -high ]
p3560
sg127
I00
sg128
S'L'
sbsg129
(irule
FeatureMatrix
p3561
(dp3562
g115
(lp3563
(I00
g768
tp3564
asg117
V[ -highTone ]
p3565
sbsg135
(irule
Guard
p3566
(dp3567
g110
I00
sg111
(lp3568
sg125
I00
sg117
V
sg127
I00
sg128
S'R'
sbsg139
(irule
FeatureMatrix
p3569
(dp3570
g115
(lp3571
sg117
V[  ]
p3572
sbsg117
V[  ] ---> [ -highTone ] / [ +highTone -anterior ] [ -high ] _ 
p3573
sba(irule
Rule
p3574
(dp3575
g107
(irule
Guard
p3576
(dp3577
g110
I00
sg111
(lp3578
(irule
FeatureMatrix
p3579
(dp3580
g115
(lp3581
sg117
V[  ]
p3582
sba(irule
FeatureMatrix
p3583
(dp3584
g115
(lp3585
(I01
g768
tp3586
asg117
V[ +highTone ]
p3587
sbasg125
I00
sg117
V[ +highTone ] [  ]
p3588
sg127
I00
sg128
S'L'
sbsg129
(irule
FeatureMatrix
p3589
(dp3590
g115
(lp3591
(I00
g768
tp3592
a(I01
g1002
tp3593
a(I00
g834
tp3594
asg117
V[ +vowel -highTone -sibilant ]
p3595
sbsg135
(irule
Guard
p3596
(dp3597
g110
I00
sg111
(lp3598
sg125
I00
sg117
V
sg127
I00
sg128
S'R'
sbsg139
(irule
FeatureMatrix
p3599
(dp3600
g115
(lp3601
sg117
V[  ]
p3602
sbsg117
V[  ] ---> [ +vowel -highTone -sibilant ] / [ +highTone ] [  ] _ 
p3603
sba(irule
Rule
p3604
(dp3605
g107
(irule
Guard
p3606
(dp3607
g110
I00
sg111
(lp3608
(irule
FeatureMatrix
p3609
(dp3610
g115
(lp3611
sg117
V[  ]
p3612
sba(irule
FeatureMatrix
p3613
(dp3614
g115
(lp3615
(I01
g768
tp3616
asg117
V[ +highTone ]
p3617
sbasg125
I00
sg117
V[ +highTone ] [  ]
p3618
sg127
I00
sg128
S'L'
sbsg129
(irule
FeatureMatrix
p3619
(dp3620
g115
(lp3621
(I00
g768
tp3622
asg117
V[ -highTone ]
p3623
sbsg135
(irule
Guard
p3624
(dp3625
g110
I00
sg111
(lp3626
sg125
I00
sg117
V
sg127
I00
sg128
S'R'
sbsg139
(irule
FeatureMatrix
p3627
(dp3628
g115
(lp3629
(I01
g768
tp3630
a(I01
g1073
tp3631
asg117
V[ +highTone +voice ]
p3632
sbsg117
V[ +highTone +voice ] ---> [ -highTone ] / [ +highTone ] [  ] _ 
p3633
sba(irule
Rule
p3634
(dp3635
g107
(irule
Guard
p3636
(dp3637
g110
I00
sg111
(lp3638
(irule
FeatureMatrix
p3639
(dp3640
g115
(lp3641
(I00
g1037
tp3642
asg117
V[ -palletized ]
p3643
sba(irule
FeatureMatrix
p3644
(dp3645
g115
(lp3646
(I00
g946
tp3647
a(I01
g768
tp3648
asg117
V[ +highTone -anterior ]
p3649
sbasg125
I00
sg117
V[ +highTone -anterior ] [ -palletized ]
p3650
sg127
I00
sg128
S'L'
sbsg129
(irule
FeatureMatrix
p3651
(dp3652
g115
(lp3653
(I00
g768
tp3654
asg117
V[ -highTone ]
p3655
sbsg135
(irule
Guard
p3656
(dp3657
g110
I00
sg111
(lp3658
sg125
I00
sg117
V
sg127
I00
sg128
S'R'
sbsg139
(irule
FeatureMatrix
p3659
(dp3660
g115
(lp3661
sg117
V[  ]
p3662
sbsg117
V[  ] ---> [ -highTone ] / [ +highTone -anterior ] [ -palletized ] _ 
p3663
sbaa(lp3664
(irule
Rule
p3665
(dp3666
g107
(irule
Guard
p3667
(dp3668
g110
I00
sg111
(lp3669
(irule
FeatureMatrix
p3670
(dp3671
g115
(lp3672
sg117
V[  ]
p3673
sba(irule
FeatureMatrix
p3674
(dp3675
g115
(lp3676
(I01
S'highTone'
p3677
tp3678
asg117
V[ +highTone ]
p3679
sbasg125
I00
sg117
V[ +highTone ] [  ]
p3680
sg127
I00
sg128
S'L'
sbsg129
(irule
FeatureMatrix
p3681
(dp3682
g115
(lp3683
(I01
g3677
tp3684
asg117
V[ +highTone ]
p3685
sbsg135
(irule
Guard
p3686
(dp3687
g110
I00
sg111
(lp3688
(irule
FeatureMatrix
p3689
(dp3690
g115
(lp3691
sg117
V[  ]
p3692
sbasg125
I00
sg117
g3692
sg127
I00
sg128
S'R'
sbsg139
(irule
FeatureMatrix
p3693
(dp3694
g115
(lp3695
sg117
V[  ]
p3696
sbsg117
V[  ] ---> [ +highTone ] / [ +highTone ] [  ] _ [  ]
p3697
sba(irule
Rule
p3698
(dp3699
g107
(irule
Guard
p3700
(dp3701
g110
I00
sg111
(lp3702
(irule
FeatureMatrix
p3703
(dp3704
g115
(lp3705
sg117
V[  ]
p3706
sba(irule
FeatureMatrix
p3707
(dp3708
g115
(lp3709
(I01
S'highTone'
p3710
tp3711
a(I01
S'sonorant'
p3712
tp3713
asg117
V[ +highTone +sonorant ]
p3714
sbasg125
I00
sg117
V[ +highTone +sonorant ] [  ]
p3715
sg127
I00
sg128
S'L'
sbsg129
(irule
FeatureMatrix
p3716
(dp3717
g115
(lp3718
(I01
g3710
tp3719
asg117
V[ +highTone ]
p3720
sbsg135
(irule
Guard
p3721
(dp3722
g110
I00
sg111
(lp3723
(irule
FeatureMatrix
p3724
(dp3725
g115
(lp3726
sg117
V[  ]
p3727
sbasg125
I00
sg117
g3727
sg127
I00
sg128
S'R'
sbsg139
(irule
FeatureMatrix
p3728
(dp3729
g115
(lp3730
sg117
V[  ]
p3731
sbsg117
V[  ] ---> [ +highTone ] / [ +highTone +sonorant ] [  ] _ [  ]
p3732
sba(irule
Rule
p3733
(dp3734
g107
(irule
Guard
p3735
(dp3736
g110
I00
sg111
(lp3737
(irule
FeatureMatrix
p3738
(dp3739
g115
(lp3740
sg117
V[  ]
p3741
sba(irule
FeatureMatrix
p3742
(dp3743
g115
(lp3744
(I01
g3710
tp3745
asg117
V[ +highTone ]
p3746
sbasg125
I00
sg117
V[ +highTone ] [  ]
p3747
sg127
I00
sg128
S'L'
sbsg129
(irule
FeatureMatrix
p3748
(dp3749
g115
(lp3750
(I01
g3710
tp3751
asg117
V[ +highTone ]
p3752
sbsg135
(irule
Guard
p3753
(dp3754
g110
I00
sg111
(lp3755
(irule
FeatureMatrix
p3756
(dp3757
g115
(lp3758
sg117
V[  ]
p3759
sba(irule
FeatureMatrix
p3760
(dp3761
g115
(lp3762
sg117
V[  ]
p3763
sbasg125
I00
sg117
V[  ] [  ]
p3764
sg127
I00
sg128
S'R'
sbsg139
(irule
FeatureMatrix
p3765
(dp3766
g115
(lp3767
sg117
V[  ]
p3768
sbsg117
V[  ] ---> [ +highTone ] / [ +highTone ] [  ] _ [  ] [  ]
p3769
sba(irule
Rule
p3770
(dp3771
g107
(irule
Guard
p3772
(dp3773
g110
I00
sg111
(lp3774
(irule
FeatureMatrix
p3775
(dp3776
g115
(lp3777
sg117
V[  ]
p3778
sba(irule
FeatureMatrix
p3779
(dp3780
g115
(lp3781
(I01
g3710
tp3782
asg117
V[ +highTone ]
p3783
sbasg125
I00
sg117
V[ +highTone ] [  ]
p3784
sg127
I00
sg128
S'L'
sbsg129
(irule
FeatureMatrix
p3785
(dp3786
g115
(lp3787
(I01
g3710
tp3788
a(I01
S'voice'
p3789
tp3790
asg117
V[ +highTone +voice ]
p3791
sbsg135
(irule
Guard
p3792
(dp3793
g110
I00
sg111
(lp3794
(irule
FeatureMatrix
p3795
(dp3796
g115
(lp3797
sg117
V[  ]
p3798
sbasg125
I00
sg117
g3798
sg127
I00
sg128
S'R'
sbsg139
(irule
FeatureMatrix
p3799
(dp3800
g115
(lp3801
sg117
V[  ]
p3802
sbsg117
V[  ] ---> [ +highTone +voice ] / [ +highTone ] [  ] _ [  ]
p3803
sba(irule
Rule
p3804
(dp3805
g107
(irule
Guard
p3806
(dp3807
g110
I00
sg111
(lp3808
(irule
FeatureMatrix
p3809
(dp3810
g115
(lp3811
sg117
V[  ]
p3812
sba(irule
FeatureMatrix
p3813
(dp3814
g115
(lp3815
(I01
g3710
tp3816
a(I01
g3789
tp3817
asg117
V[ +highTone +voice ]
p3818
sbasg125
I00
sg117
V[ +highTone +voice ] [  ]
p3819
sg127
I00
sg128
S'L'
sbsg129
(irule
FeatureMatrix
p3820
(dp3821
g115
(lp3822
(I01
g3710
tp3823
asg117
V[ +highTone ]
p3824
sbsg135
(irule
Guard
p3825
(dp3826
g110
I00
sg111
(lp3827
(irule
FeatureMatrix
p3828
(dp3829
g115
(lp3830
sg117
V[  ]
p3831
sbasg125
I00
sg117
g3831
sg127
I00
sg128
S'R'
sbsg139
(irule
FeatureMatrix
p3832
(dp3833
g115
(lp3834
sg117
V[  ]
p3835
sbsg117
V[  ] ---> [ +highTone ] / [ +highTone +voice ] [  ] _ [  ]
p3836
sba(irule
Rule
p3837
(dp3838
g107
(irule
Guard
p3839
(dp3840
g110
I00
sg111
(lp3841
(irule
FeatureMatrix
p3842
(dp3843
g115
(lp3844
sg117
V[  ]
p3845
sba(irule
FeatureMatrix
p3846
(dp3847
g115
(lp3848
(I01
g3710
tp3849
asg117
V[ +highTone ]
p3850
sbasg125
I00
sg117
V[ +highTone ] [  ]
p3851
sg127
I00
sg128
S'L'
sbsg129
(irule
FeatureMatrix
p3852
(dp3853
g115
(lp3854
(I01
g3710
tp3855
asg117
V[ +highTone ]
p3856
sbsg135
(irule
Guard
p3857
(dp3858
g110
I00
sg111
(lp3859
(irule
FeatureMatrix
p3860
(dp3861
g115
(lp3862
(I00
S'vowel'
p3863
tp3864
asg117
V[ -vowel ]
p3865
sbasg125
I00
sg117
g3865
sg127
I00
sg128
S'R'
sbsg139
(irule
FeatureMatrix
p3866
(dp3867
g115
(lp3868
sg117
V[  ]
p3869
sbsg117
V[  ] ---> [ +highTone ] / [ +highTone ] [  ] _ [ -vowel ]
p3870
sba(irule
Rule
p3871
(dp3872
g107
(irule
Guard
p3873
(dp3874
g110
I00
sg111
(lp3875
(irule
FeatureMatrix
p3876
(dp3877
g115
(lp3878
(I00
g3710
tp3879
asg117
V[ -highTone ]
p3880
sba(irule
FeatureMatrix
p3881
(dp3882
g115
(lp3883
(I01
g3710
tp3884
asg117
V[ +highTone ]
p3885
sbasg125
I00
sg117
V[ +highTone ] [ -highTone ]
p3886
sg127
I00
sg128
S'L'
sbsg129
(irule
FeatureMatrix
p3887
(dp3888
g115
(lp3889
(I01
g3710
tp3890
asg117
V[ +highTone ]
p3891
sbsg135
(irule
Guard
p3892
(dp3893
g110
I00
sg111
(lp3894
(irule
FeatureMatrix
p3895
(dp3896
g115
(lp3897
sg117
V[  ]
p3898
sbasg125
I00
sg117
g3898
sg127
I00
sg128
S'R'
sbsg139
(irule
FeatureMatrix
p3899
(dp3900
g115
(lp3901
sg117
V[  ]
p3902
sbsg117
V[  ] ---> [ +highTone ] / [ +highTone ] [ -highTone ] _ [  ]
p3903
sba(irule
Rule
p3904
(dp3905
g107
(irule
Guard
p3906
(dp3907
g110
I00
sg111
(lp3908
(irule
FeatureMatrix
p3909
(dp3910
g115
(lp3911
sg117
V[  ]
p3912
sba(irule
FeatureMatrix
p3913
(dp3914
g115
(lp3915
(I01
g3710
tp3916
asg117
V[ +highTone ]
p3917
sbasg125
I00
sg117
V[ +highTone ] [  ]
p3918
sg127
I00
sg128
S'L'
sbsg129
(irule
FeatureMatrix
p3919
(dp3920
g115
(lp3921
(I01
g3710
tp3922
asg117
V[ +highTone ]
p3923
sbsg135
(irule
Guard
p3924
(dp3925
g110
I00
sg111
(lp3926
(irule
FeatureMatrix
p3927
(dp3928
g115
(lp3929
(I00
g3710
tp3930
asg117
V[ -highTone ]
p3931
sbasg125
I00
sg117
g3931
sg127
I00
sg128
S'R'
sbsg139
(irule
FeatureMatrix
p3932
(dp3933
g115
(lp3934
sg117
V[  ]
p3935
sbsg117
V[  ] ---> [ +highTone ] / [ +highTone ] [  ] _ [ -highTone ]
p3936
sba(irule
Rule
p3937
(dp3938
g107
(irule
Guard
p3939
(dp3940
g110
I00
sg111
(lp3941
(irule
FeatureMatrix
p3942
(dp3943
g115
(lp3944
(I00
g3863
tp3945
asg117
V[ -vowel ]
p3946
sba(irule
FeatureMatrix
p3947
(dp3948
g115
(lp3949
(I01
g3710
tp3950
asg117
V[ +highTone ]
p3951
sbasg125
I00
sg117
V[ +highTone ] [ -vowel ]
p3952
sg127
I00
sg128
S'L'
sbsg129
(irule
FeatureMatrix
p3953
(dp3954
g115
(lp3955
(I01
g3710
tp3956
asg117
V[ +highTone ]
p3957
sbsg135
(irule
Guard
p3958
(dp3959
g110
I00
sg111
(lp3960
(irule
FeatureMatrix
p3961
(dp3962
g115
(lp3963
sg117
V[  ]
p3964
sbasg125
I00
sg117
g3964
sg127
I00
sg128
S'R'
sbsg139
(irule
FeatureMatrix
p3965
(dp3966
g115
(lp3967
sg117
V[  ]
p3968
sbsg117
V[  ] ---> [ +highTone ] / [ +highTone ] [ -vowel ] _ [  ]
p3969
sba(irule
Rule
p3970
(dp3971
g107
(irule
Guard
p3972
(dp3973
g110
I00
sg111
(lp3974
(irule
FeatureMatrix
p3975
(dp3976
g115
(lp3977
sg117
V[  ]
p3978
sba(irule
FeatureMatrix
p3979
(dp3980
g115
(lp3981
(I01
g3710
tp3982
a(I01
S'tense'
p3983
tp3984
asg117
V[ +highTone +tense ]
p3985
sbasg125
I00
sg117
V[ +highTone +tense ] [  ]
p3986
sg127
I00
sg128
S'L'
sbsg129
(irule
FeatureMatrix
p3987
(dp3988
g115
(lp3989
(I01
g3710
tp3990
asg117
V[ +highTone ]
p3991
sbsg135
(irule
Guard
p3992
(dp3993
g110
I00
sg111
(lp3994
(irule
FeatureMatrix
p3995
(dp3996
g115
(lp3997
sg117
V[  ]
p3998
sbasg125
I00
sg117
g3998
sg127
I00
sg128
S'R'
sbsg139
(irule
FeatureMatrix
p3999
(dp4000
g115
(lp4001
sg117
V[  ]
p4002
sbsg117
V[  ] ---> [ +highTone ] / [ +highTone +tense ] [  ] _ [  ]
p4003
sba(irule
Rule
p4004
(dp4005
g107
(irule
Guard
p4006
(dp4007
g110
I00
sg111
(lp4008
(irule
FeatureMatrix
p4009
(dp4010
g115
(lp4011
sg117
V[  ]
p4012
sba(irule
FeatureMatrix
p4013
(dp4014
g115
(lp4015
(I01
g3710
tp4016
asg117
V[ +highTone ]
p4017
sbasg125
I00
sg117
V[ +highTone ] [  ]
p4018
sg127
I00
sg128
S'L'
sbsg129
(irule
FeatureMatrix
p4019
(dp4020
g115
(lp4021
(I01
g3710
tp4022
asg117
V[ +highTone ]
p4023
sbsg135
(irule
Guard
p4024
(dp4025
g110
I00
sg111
(lp4026
(irule
FeatureMatrix
p4027
(dp4028
g115
(lp4029
(I00
S'low'
p4030
tp4031
asg117
V[ -low ]
p4032
sbasg125
I00
sg117
g4032
sg127
I00
sg128
S'R'
sbsg139
(irule
FeatureMatrix
p4033
(dp4034
g115
(lp4035
sg117
V[  ]
p4036
sbsg117
V[  ] ---> [ +highTone ] / [ +highTone ] [  ] _ [ -low ]
p4037
sba(irule
Rule
p4038
(dp4039
g107
(irule
Guard
p4040
(dp4041
g110
I00
sg111
(lp4042
(irule
FeatureMatrix
p4043
(dp4044
g115
(lp4045
sg117
V[  ]
p4046
sba(irule
FeatureMatrix
p4047
(dp4048
g115
(lp4049
(I01
g3710
tp4050
asg117
V[ +highTone ]
p4051
sbasg125
I00
sg117
V[ +highTone ] [  ]
p4052
sg127
I00
sg128
S'L'
sbsg129
(irule
FeatureMatrix
p4053
(dp4054
g115
(lp4055
(I01
g3710
tp4056
asg117
V[ +highTone ]
p4057
sbsg135
(irule
Guard
p4058
(dp4059
g110
I00
sg111
(lp4060
(irule
FeatureMatrix
p4061
(dp4062
g115
(lp4063
(I00
g3983
tp4064
asg117
V[ -tense ]
p4065
sbasg125
I00
sg117
g4065
sg127
I00
sg128
S'R'
sbsg139
(irule
FeatureMatrix
p4066
(dp4067
g115
(lp4068
sg117
V[  ]
p4069
sbsg117
V[  ] ---> [ +highTone ] / [ +highTone ] [  ] _ [ -tense ]
p4070
sba(irule
Rule
p4071
(dp4072
g107
(irule
Guard
p4073
(dp4074
g110
I00
sg111
(lp4075
(irule
FeatureMatrix
p4076
(dp4077
g115
(lp4078
sg117
V[  ]
p4079
sba(irule
FeatureMatrix
p4080
(dp4081
g115
(lp4082
(I01
g3710
tp4083
a(I00
S'palletized'
p4084
tp4085
asg117
V[ +highTone -palletized ]
p4086
sbasg125
I00
sg117
V[ +highTone -palletized ] [  ]
p4087
sg127
I00
sg128
S'L'
sbsg129
(irule
FeatureMatrix
p4088
(dp4089
g115
(lp4090
(I01
g3710
tp4091
asg117
V[ +highTone ]
p4092
sbsg135
(irule
Guard
p4093
(dp4094
g110
I00
sg111
(lp4095
(irule
FeatureMatrix
p4096
(dp4097
g115
(lp4098
sg117
V[  ]
p4099
sbasg125
I00
sg117
g4099
sg127
I00
sg128
S'R'
sbsg139
(irule
FeatureMatrix
p4100
(dp4101
g115
(lp4102
sg117
V[  ]
p4103
sbsg117
V[  ] ---> [ +highTone ] / [ +highTone -palletized ] [  ] _ [  ]
p4104
sba(irule
Rule
p4105
(dp4106
g107
(irule
Guard
p4107
(dp4108
g110
I00
sg111
(lp4109
(irule
FeatureMatrix
p4110
(dp4111
g115
(lp4112
sg117
V[  ]
p4113
sba(irule
FeatureMatrix
p4114
(dp4115
g115
(lp4116
(I01
g3710
tp4117
asg117
V[ +highTone ]
p4118
sbasg125
I00
sg117
V[ +highTone ] [  ]
p4119
sg127
I00
sg128
S'L'
sbsg129
(irule
FeatureMatrix
p4120
(dp4121
g115
(lp4122
(I01
g3710
tp4123
a(I00
S'sibilant'
p4124
tp4125
asg117
V[ +highTone -sibilant ]
p4126
sbsg135
(irule
Guard
p4127
(dp4128
g110
I00
sg111
(lp4129
(irule
FeatureMatrix
p4130
(dp4131
g115
(lp4132
sg117
V[  ]
p4133
sbasg125
I00
sg117
g4133
sg127
I00
sg128
S'R'
sbsg139
(irule
FeatureMatrix
p4134
(dp4135
g115
(lp4136
sg117
V[  ]
p4137
sbsg117
V[  ] ---> [ +highTone -sibilant ] / [ +highTone ] [  ] _ [  ]
p4138
sba(irule
Rule
p4139
(dp4140
g107
(irule
Guard
p4141
(dp4142
g110
I00
sg111
(lp4143
(irule
FeatureMatrix
p4144
(dp4145
g115
(lp4146
sg117
V[  ]
p4147
sba(irule
FeatureMatrix
p4148
(dp4149
g115
(lp4150
(I01
g3710
tp4151
asg117
V[ +highTone ]
p4152
sbasg125
I00
sg117
V[ +highTone ] [  ]
p4153
sg127
I00
sg128
S'L'
sbsg129
(irule
FeatureMatrix
p4154
(dp4155
g115
(lp4156
(I01
g3710
tp4157
asg117
V[ +highTone ]
p4158
sbsg135
(irule
Guard
p4159
(dp4160
g110
I00
sg111
(lp4161
(irule
FeatureMatrix
p4162
(dp4163
g115
(lp4164
sg117
V[  ]
p4165
sbasg125
I00
sg117
g4165
sg127
I00
sg128
S'R'
sbsg139
(irule
FeatureMatrix
p4166
(dp4167
g115
(lp4168
(I01
g3789
tp4169
asg117
V[ +voice ]
p4170
sbsg117
V[ +voice ] ---> [ +highTone ] / [ +highTone ] [  ] _ [  ]
p4171
sba(irule
Rule
p4172
(dp4173
g107
(irule
Guard
p4174
(dp4175
g110
I00
sg111
(lp4176
(irule
FeatureMatrix
p4177
(dp4178
g115
(lp4179
(I00
S'glide'
p4180
tp4181
asg117
V[ -glide ]
p4182
sba(irule
FeatureMatrix
p4183
(dp4184
g115
(lp4185
(I01
g3710
tp4186
asg117
V[ +highTone ]
p4187
sbasg125
I00
sg117
V[ +highTone ] [ -glide ]
p4188
sg127
I00
sg128
S'L'
sbsg129
(irule
FeatureMatrix
p4189
(dp4190
g115
(lp4191
(I01
g3710
tp4192
asg117
V[ +highTone ]
p4193
sbsg135
(irule
Guard
p4194
(dp4195
g110
I00
sg111
(lp4196
(irule
FeatureMatrix
p4197
(dp4198
g115
(lp4199
sg117
V[  ]
p4200
sbasg125
I00
sg117
g4200
sg127
I00
sg128
S'R'
sbsg139
(irule
FeatureMatrix
p4201
(dp4202
g115
(lp4203
sg117
V[  ]
p4204
sbsg117
V[  ] ---> [ +highTone ] / [ +highTone ] [ -glide ] _ [  ]
p4205
sba(irule
Rule
p4206
(dp4207
g107
(irule
Guard
p4208
(dp4209
g110
I00
sg111
(lp4210
(irule
FeatureMatrix
p4211
(dp4212
g115
(lp4213
sg117
V[  ]
p4214
sba(irule
FeatureMatrix
p4215
(dp4216
g115
(lp4217
(I01
g3710
tp4218
asg117
V[ +highTone ]
p4219
sbasg125
I00
sg117
V[ +highTone ] [  ]
p4220
sg127
I00
sg128
S'L'
sbsg129
(irule
FeatureMatrix
p4221
(dp4222
g115
(lp4223
(I01
g3710
tp4224
asg117
V[ +highTone ]
p4225
sbsg135
(irule
Guard
p4226
(dp4227
g110
I00
sg111
(lp4228
(irule
FeatureMatrix
p4229
(dp4230
g115
(lp4231
sg117
V[  ]
p4232
sbasg125
I00
sg117
g4232
sg127
I00
sg128
S'R'
sbsg139
(irule
FeatureMatrix
p4233
(dp4234
g115
(lp4235
(I01
g3863
tp4236
asg117
V[ +vowel ]
p4237
sbsg117
V[ +vowel ] ---> [ +highTone ] / [ +highTone ] [  ] _ [  ]
p4238
sba(irule
Rule
p4239
(dp4240
g107
(irule
Guard
p4241
(dp4242
g110
I00
sg111
(lp4243
(irule
FeatureMatrix
p4244
(dp4245
g115
(lp4246
(I00
g4084
tp4247
asg117
V[ -palletized ]
p4248
sba(irule
FeatureMatrix
p4249
(dp4250
g115
(lp4251
(I01
g3710
tp4252
asg117
V[ +highTone ]
p4253
sbasg125
I00
sg117
V[ +highTone ] [ -palletized ]
p4254
sg127
I00
sg128
S'L'
sbsg129
(irule
FeatureMatrix
p4255
(dp4256
g115
(lp4257
(I01
g3710
tp4258
asg117
V[ +highTone ]
p4259
sbsg135
(irule
Guard
p4260
(dp4261
g110
I00
sg111
(lp4262
(irule
FeatureMatrix
p4263
(dp4264
g115
(lp4265
sg117
V[  ]
p4266
sbasg125
I00
sg117
g4266
sg127
I00
sg128
S'R'
sbsg139
(irule
FeatureMatrix
p4267
(dp4268
g115
(lp4269
sg117
V[  ]
p4270
sbsg117
V[  ] ---> [ +highTone ] / [ +highTone ] [ -palletized ] _ [  ]
p4271
sba(irule
Rule
p4272
(dp4273
g107
(irule
Guard
p4274
(dp4275
g110
I00
sg111
(lp4276
(irule
FeatureMatrix
p4277
(dp4278
g115
(lp4279
sg117
V[  ]
p4280
sba(irule
FeatureMatrix
p4281
(dp4282
g115
(lp4283
(I01
g3710
tp4284
a(I00
g4124
tp4285
asg117
V[ +highTone -sibilant ]
p4286
sbasg125
I00
sg117
V[ +highTone -sibilant ] [  ]
p4287
sg127
I00
sg128
S'L'
sbsg129
(irule
FeatureMatrix
p4288
(dp4289
g115
(lp4290
(I01
g3710
tp4291
asg117
V[ +highTone ]
p4292
sbsg135
(irule
Guard
p4293
(dp4294
g110
I00
sg111
(lp4295
(irule
FeatureMatrix
p4296
(dp4297
g115
(lp4298
sg117
V[  ]
p4299
sbasg125
I00
sg117
g4299
sg127
I00
sg128
S'R'
sbsg139
(irule
FeatureMatrix
p4300
(dp4301
g115
(lp4302
sg117
V[  ]
p4303
sbsg117
V[  ] ---> [ +highTone ] / [ +highTone -sibilant ] [  ] _ [  ]
p4304
sba(irule
Rule
p4305
(dp4306
g107
(irule
Guard
p4307
(dp4308
g110
I00
sg111
(lp4309
(irule
FeatureMatrix
p4310
(dp4311
g115
(lp4312
sg117
V[  ]
p4313
sba(irule
FeatureMatrix
p4314
(dp4315
g115
(lp4316
(I01
g3710
tp4317
a(I00
S'coronal'
p4318
tp4319
asg117
V[ +highTone -coronal ]
p4320
sbasg125
I00
sg117
V[ +highTone -coronal ] [  ]
p4321
sg127
I00
sg128
S'L'
sbsg129
(irule
FeatureMatrix
p4322
(dp4323
g115
(lp4324
(I01
g3710
tp4325
asg117
V[ +highTone ]
p4326
sbsg135
(irule
Guard
p4327
(dp4328
g110
I00
sg111
(lp4329
(irule
FeatureMatrix
p4330
(dp4331
g115
(lp4332
sg117
V[  ]
p4333
sbasg125
I00
sg117
g4333
sg127
I00
sg128
S'R'
sbsg139
(irule
FeatureMatrix
p4334
(dp4335
g115
(lp4336
sg117
V[  ]
p4337
sbsg117
V[  ] ---> [ +highTone ] / [ +highTone -coronal ] [  ] _ [  ]
p4338
sba(irule
Rule
p4339
(dp4340
g107
(irule
Guard
p4341
(dp4342
g110
I00
sg111
(lp4343
(irule
FeatureMatrix
p4344
(dp4345
g115
(lp4346
(I00
g4030
tp4347
asg117
V[ -low ]
p4348
sba(irule
FeatureMatrix
p4349
(dp4350
g115
(lp4351
(I01
g3710
tp4352
asg117
V[ +highTone ]
p4353
sbasg125
I00
sg117
V[ +highTone ] [ -low ]
p4354
sg127
I00
sg128
S'L'
sbsg129
(irule
FeatureMatrix
p4355
(dp4356
g115
(lp4357
(I01
g3710
tp4358
asg117
V[ +highTone ]
p4359
sbsg135
(irule
Guard
p4360
(dp4361
g110
I00
sg111
(lp4362
(irule
FeatureMatrix
p4363
(dp4364
g115
(lp4365
sg117
V[  ]
p4366
sbasg125
I00
sg117
g4366
sg127
I00
sg128
S'R'
sbsg139
(irule
FeatureMatrix
p4367
(dp4368
g115
(lp4369
sg117
V[  ]
p4370
sbsg117
V[  ] ---> [ +highTone ] / [ +highTone ] [ -low ] _ [  ]
p4371
sba(irule
Rule
p4372
(dp4373
g107
(irule
Guard
p4374
(dp4375
g110
I00
sg111
(lp4376
(irule
FeatureMatrix
p4377
(dp4378
g115
(lp4379
sg117
V[  ]
p4380
sba(irule
FeatureMatrix
p4381
(dp4382
g115
(lp4383
(I00
S'anterior'
p4384
tp4385
a(I01
g3710
tp4386
asg117
V[ +highTone -anterior ]
p4387
sbasg125
I00
sg117
V[ +highTone -anterior ] [  ]
p4388
sg127
I00
sg128
S'L'
sbsg129
(irule
FeatureMatrix
p4389
(dp4390
g115
(lp4391
(I01
g3710
tp4392
asg117
V[ +highTone ]
p4393
sbsg135
(irule
Guard
p4394
(dp4395
g110
I00
sg111
(lp4396
(irule
FeatureMatrix
p4397
(dp4398
g115
(lp4399
sg117
V[  ]
p4400
sbasg125
I00
sg117
g4400
sg127
I00
sg128
S'R'
sbsg139
(irule
FeatureMatrix
p4401
(dp4402
g115
(lp4403
sg117
V[  ]
p4404
sbsg117
V[  ] ---> [ +highTone ] / [ +highTone -anterior ] [  ] _ [  ]
p4405
sba(irule
Rule
p4406
(dp4407
g107
(irule
Guard
p4408
(dp4409
g110
I00
sg111
(lp4410
(irule
FeatureMatrix
p4411
(dp4412
g115
(lp4413
sg117
V[  ]
p4414
sba(irule
FeatureMatrix
p4415
(dp4416
g115
(lp4417
(I01
g3710
tp4418
asg117
V[ +highTone ]
p4419
sbasg125
I00
sg117
V[ +highTone ] [  ]
p4420
sg127
I00
sg128
S'L'
sbsg129
(irule
FeatureMatrix
p4421
(dp4422
g115
(lp4423
(I01
g3710
tp4424
asg117
V[ +highTone ]
p4425
sbsg135
(irule
Guard
p4426
(dp4427
g110
I00
sg111
(lp4428
(irule
FeatureMatrix
p4429
(dp4430
g115
(lp4431
(I00
S'rounded'
p4432
tp4433
asg117
V[ -rounded ]
p4434
sbasg125
I00
sg117
g4434
sg127
I00
sg128
S'R'
sbsg139
(irule
FeatureMatrix
p4435
(dp4436
g115
(lp4437
sg117
V[  ]
p4438
sbsg117
V[  ] ---> [ +highTone ] / [ +highTone ] [  ] _ [ -rounded ]
p4439
sba(irule
Rule
p4440
(dp4441
g107
(irule
Guard
p4442
(dp4443
g110
I00
sg111
(lp4444
(irule
FeatureMatrix
p4445
(dp4446
g115
(lp4447
sg117
V[  ]
p4448
sba(irule
FeatureMatrix
p4449
(dp4450
g115
(lp4451
(I01
g3710
tp4452
asg117
V[ +highTone ]
p4453
sbasg125
I00
sg117
V[ +highTone ] [  ]
p4454
sg127
I00
sg128
S'L'
sbsg129
(irule
FeatureMatrix
p4455
(dp4456
g115
(lp4457
(I01
g3710
tp4458
asg117
V[ +highTone ]
p4459
sbsg135
(irule
Guard
p4460
(dp4461
g110
I00
sg111
(lp4462
(irule
FeatureMatrix
p4463
(dp4464
g115
(lp4465
sg117
V[  ]
p4466
sbasg125
I00
sg117
g4466
sg127
I00
sg128
S'R'
sbsg139
(irule
FeatureMatrix
p4467
(dp4468
g115
(lp4469
(I00
g4318
tp4470
asg117
V[ -coronal ]
p4471
sbsg117
V[ -coronal ] ---> [ +highTone ] / [ +highTone ] [  ] _ [  ]
p4472
sba(irule
Rule
p4473
(dp4474
g107
(irule
Guard
p4475
(dp4476
g110
I00
sg111
(lp4477
(irule
FeatureMatrix
p4478
(dp4479
g115
(lp4480
(I00
g3983
tp4481
asg117
V[ -tense ]
p4482
sba(irule
FeatureMatrix
p4483
(dp4484
g115
(lp4485
(I01
g3710
tp4486
asg117
V[ +highTone ]
p4487
sbasg125
I00
sg117
V[ +highTone ] [ -tense ]
p4488
sg127
I00
sg128
S'L'
sbsg129
(irule
FeatureMatrix
p4489
(dp4490
g115
(lp4491
(I01
g3710
tp4492
asg117
V[ +highTone ]
p4493
sbsg135
(irule
Guard
p4494
(dp4495
g110
I00
sg111
(lp4496
(irule
FeatureMatrix
p4497
(dp4498
g115
(lp4499
sg117
V[  ]
p4500
sbasg125
I00
sg117
g4500
sg127
I00
sg128
S'R'
sbsg139
(irule
FeatureMatrix
p4501
(dp4502
g115
(lp4503
sg117
V[  ]
p4504
sbsg117
V[  ] ---> [ +highTone ] / [ +highTone ] [ -tense ] _ [  ]
p4505
sba(irule
Rule
p4506
(dp4507
g107
(irule
Guard
p4508
(dp4509
g110
I00
sg111
(lp4510
(irule
FeatureMatrix
p4511
(dp4512
g115
(lp4513
sg117
V[  ]
p4514
sba(irule
FeatureMatrix
p4515
(dp4516
g115
(lp4517
(I00
S'lateral'
p4518
tp4519
a(I01
g3710
tp4520
asg117
V[ +highTone -lateral ]
p4521
sbasg125
I00
sg117
V[ +highTone -lateral ] [  ]
p4522
sg127
I00
sg128
S'L'
sbsg129
(irule
FeatureMatrix
p4523
(dp4524
g115
(lp4525
(I01
g3710
tp4526
asg117
V[ +highTone ]
p4527
sbsg135
(irule
Guard
p4528
(dp4529
g110
I00
sg111
(lp4530
(irule
FeatureMatrix
p4531
(dp4532
g115
(lp4533
sg117
V[  ]
p4534
sbasg125
I00
sg117
g4534
sg127
I00
sg128
S'R'
sbsg139
(irule
FeatureMatrix
p4535
(dp4536
g115
(lp4537
sg117
V[  ]
p4538
sbsg117
V[  ] ---> [ +highTone ] / [ +highTone -lateral ] [  ] _ [  ]
p4539
sba(irule
Rule
p4540
(dp4541
g107
(irule
Guard
p4542
(dp4543
g110
I00
sg111
(lp4544
(irule
FeatureMatrix
p4545
(dp4546
g115
(lp4547
(I00
g4432
tp4548
asg117
V[ -rounded ]
p4549
sba(irule
FeatureMatrix
p4550
(dp4551
g115
(lp4552
(I01
g3710
tp4553
asg117
V[ +highTone ]
p4554
sbasg125
I00
sg117
V[ +highTone ] [ -rounded ]
p4555
sg127
I00
sg128
S'L'
sbsg129
(irule
FeatureMatrix
p4556
(dp4557
g115
(lp4558
(I01
g3710
tp4559
asg117
V[ +highTone ]
p4560
sbsg135
(irule
Guard
p4561
(dp4562
g110
I00
sg111
(lp4563
(irule
FeatureMatrix
p4564
(dp4565
g115
(lp4566
sg117
V[  ]
p4567
sbasg125
I00
sg117
g4567
sg127
I00
sg128
S'R'
sbsg139
(irule
FeatureMatrix
p4568
(dp4569
g115
(lp4570
sg117
V[  ]
p4571
sbsg117
V[  ] ---> [ +highTone ] / [ +highTone ] [ -rounded ] _ [  ]
p4572
sba(irule
Rule
p4573
(dp4574
g107
(irule
Guard
p4575
(dp4576
g110
I00
sg111
(lp4577
(irule
FeatureMatrix
p4578
(dp4579
g115
(lp4580
sg117
V[  ]
p4581
sba(irule
FeatureMatrix
p4582
(dp4583
g115
(lp4584
(I01
g3710
tp4585
asg117
V[ +highTone ]
p4586
sbasg125
I00
sg117
V[ +highTone ] [  ]
p4587
sg127
I00
sg128
S'L'
sbsg129
(irule
FeatureMatrix
p4588
(dp4589
g115
(lp4590
(I00
g4180
tp4591
a(I01
g3710
tp4592
asg117
V[ +highTone -glide ]
p4593
sbsg135
(irule
Guard
p4594
(dp4595
g110
I00
sg111
(lp4596
(irule
FeatureMatrix
p4597
(dp4598
g115
(lp4599
sg117
V[  ]
p4600
sbasg125
I00
sg117
g4600
sg127
I00
sg128
S'R'
sbsg139
(irule
FeatureMatrix
p4601
(dp4602
g115
(lp4603
sg117
V[  ]
p4604
sbsg117
V[  ] ---> [ +highTone -glide ] / [ +highTone ] [  ] _ [  ]
p4605
sba(irule
Rule
p4606
(dp4607
g107
(irule
Guard
p4608
(dp4609
g110
I00
sg111
(lp4610
(irule
FeatureMatrix
p4611
(dp4612
g115
(lp4613
sg117
V[  ]
p4614
sba(irule
FeatureMatrix
p4615
(dp4616
g115
(lp4617
(I01
g3710
tp4618
asg117
V[ +highTone ]
p4619
sbasg125
I00
sg117
V[ +highTone ] [  ]
p4620
sg127
I00
sg128
S'L'
sbsg129
(irule
FeatureMatrix
p4621
(dp4622
g115
(lp4623
(I01
g3710
tp4624
asg117
V[ +highTone ]
p4625
sbsg135
(irule
Guard
p4626
(dp4627
g110
I00
sg111
(lp4628
(irule
FeatureMatrix
p4629
(dp4630
g115
(lp4631
sg117
V[  ]
p4632
sbasg125
I00
sg117
g4632
sg127
I00
sg128
S'R'
sbsg139
(irule
FeatureMatrix
p4633
(dp4634
g115
(lp4635
(I00
g4124
tp4636
asg117
V[ -sibilant ]
p4637
sbsg117
V[ -sibilant ] ---> [ +highTone ] / [ +highTone ] [  ] _ [  ]
p4638
sba(irule
Rule
p4639
(dp4640
g107
(irule
Guard
p4641
(dp4642
g110
I00
sg111
(lp4643
(irule
FeatureMatrix
p4644
(dp4645
g115
(lp4646
sg117
V[  ]
p4647
sba(irule
FeatureMatrix
p4648
(dp4649
g115
(lp4650
(I01
g3710
tp4651
a(I01
g3863
tp4652
asg117
V[ +highTone +vowel ]
p4653
sbasg125
I00
sg117
V[ +highTone +vowel ] [  ]
p4654
sg127
I00
sg128
S'L'
sbsg129
(irule
FeatureMatrix
p4655
(dp4656
g115
(lp4657
(I01
g3710
tp4658
asg117
V[ +highTone ]
p4659
sbsg135
(irule
Guard
p4660
(dp4661
g110
I00
sg111
(lp4662
(irule
FeatureMatrix
p4663
(dp4664
g115
(lp4665
sg117
V[  ]
p4666
sbasg125
I00
sg117
g4666
sg127
I00
sg128
S'R'
sbsg139
(irule
FeatureMatrix
p4667
(dp4668
g115
(lp4669
sg117
V[  ]
p4670
sbsg117
V[  ] ---> [ +highTone ] / [ +highTone +vowel ] [  ] _ [  ]
p4671
sba(irule
Rule
p4672
(dp4673
g107
(irule
Guard
p4674
(dp4675
g110
I00
sg111
(lp4676
(irule
FeatureMatrix
p4677
(dp4678
g115
(lp4679
sg117
V[  ]
p4680
sba(irule
FeatureMatrix
p4681
(dp4682
g115
(lp4683
(I00
S'nasal'
p4684
tp4685
a(I01
g3710
tp4686
asg117
V[ +highTone -nasal ]
p4687
sbasg125
I00
sg117
V[ +highTone -nasal ] [  ]
p4688
sg127
I00
sg128
S'L'
sbsg129
(irule
FeatureMatrix
p4689
(dp4690
g115
(lp4691
(I01
g3710
tp4692
asg117
V[ +highTone ]
p4693
sbsg135
(irule
Guard
p4694
(dp4695
g110
I00
sg111
(lp4696
(irule
FeatureMatrix
p4697
(dp4698
g115
(lp4699
sg117
V[  ]
p4700
sbasg125
I00
sg117
g4700
sg127
I00
sg128
S'R'
sbsg139
(irule
FeatureMatrix
p4701
(dp4702
g115
(lp4703
sg117
V[  ]
p4704
sbsg117
V[  ] ---> [ +highTone ] / [ +highTone -nasal ] [  ] _ [  ]
p4705
sba(irule
Rule
p4706
(dp4707
g107
(irule
Guard
p4708
(dp4709
g110
I00
sg111
(lp4710
(irule
FeatureMatrix
p4711
(dp4712
g115
(lp4713
sg117
V[  ]
p4714
sba(irule
FeatureMatrix
p4715
(dp4716
g115
(lp4717
(I01
g3710
tp4718
asg117
V[ +highTone ]
p4719
sbasg125
I00
sg117
V[ +highTone ] [  ]
p4720
sg127
I00
sg128
S'L'
sbsg129
(irule
FeatureMatrix
p4721
(dp4722
g115
(lp4723
(I01
g3710
tp4724
a(I00
g4318
tp4725
asg117
V[ +highTone -coronal ]
p4726
sbsg135
(irule
Guard
p4727
(dp4728
g110
I00
sg111
(lp4729
(irule
FeatureMatrix
p4730
(dp4731
g115
(lp4732
sg117
V[  ]
p4733
sbasg125
I00
sg117
g4733
sg127
I00
sg128
S'R'
sbsg139
(irule
FeatureMatrix
p4734
(dp4735
g115
(lp4736
sg117
V[  ]
p4737
sbsg117
V[  ] ---> [ +highTone -coronal ] / [ +highTone ] [  ] _ [  ]
p4738
sba(irule
Rule
p4739
(dp4740
g107
(irule
Guard
p4741
(dp4742
g110
I00
sg111
(lp4743
(irule
FeatureMatrix
p4744
(dp4745
g115
(lp4746
sg117
V[  ]
p4747
sba(irule
FeatureMatrix
p4748
(dp4749
g115
(lp4750
(I00
S'liquid'
p4751
tp4752
a(I01
g3710
tp4753
asg117
V[ +highTone -liquid ]
p4754
sbasg125
I00
sg117
V[ +highTone -liquid ] [  ]
p4755
sg127
I00
sg128
S'L'
sbsg129
(irule
FeatureMatrix
p4756
(dp4757
g115
(lp4758
(I01
g3710
tp4759
asg117
V[ +highTone ]
p4760
sbsg135
(irule
Guard
p4761
(dp4762
g110
I00
sg111
(lp4763
(irule
FeatureMatrix
p4764
(dp4765
g115
(lp4766
sg117
V[  ]
p4767
sbasg125
I00
sg117
g4767
sg127
I00
sg128
S'R'
sbsg139
(irule
FeatureMatrix
p4768
(dp4769
g115
(lp4770
sg117
V[  ]
p4771
sbsg117
V[  ] ---> [ +highTone ] / [ +highTone -liquid ] [  ] _ [  ]
p4772
sba(irule
Rule
p4773
(dp4774
g107
(irule
Guard
p4775
(dp4776
g110
I00
sg111
(lp4777
(irule
FeatureMatrix
p4778
(dp4779
g115
(lp4780
sg117
V[  ]
p4781
sba(irule
FeatureMatrix
p4782
(dp4783
g115
(lp4784
(I00
g4180
tp4785
a(I01
g3710
tp4786
asg117
V[ +highTone -glide ]
p4787
sbasg125
I00
sg117
V[ +highTone -glide ] [  ]
p4788
sg127
I00
sg128
S'L'
sbsg129
(irule
FeatureMatrix
p4789
(dp4790
g115
(lp4791
(I01
g3710
tp4792
asg117
V[ +highTone ]
p4793
sbsg135
(irule
Guard
p4794
(dp4795
g110
I00
sg111
(lp4796
(irule
FeatureMatrix
p4797
(dp4798
g115
(lp4799
sg117
V[  ]
p4800
sbasg125
I00
sg117
g4800
sg127
I00
sg128
S'R'
sbsg139
(irule
FeatureMatrix
p4801
(dp4802
g115
(lp4803
sg117
V[  ]
p4804
sbsg117
V[  ] ---> [ +highTone ] / [ +highTone -glide ] [  ] _ [  ]
p4805
sba(irule
Rule
p4806
(dp4807
g107
(irule
Guard
p4808
(dp4809
g110
I00
sg111
(lp4810
(irule
FeatureMatrix
p4811
(dp4812
g115
(lp4813
sg117
V[  ]
p4814
sba(irule
FeatureMatrix
p4815
(dp4816
g115
(lp4817
(I01
g3710
tp4818
asg117
V[ +highTone ]
p4819
sbasg125
I00
sg117
V[ +highTone ] [  ]
p4820
sg127
I00
sg128
S'L'
sbsg129
(irule
FeatureMatrix
p4821
(dp4822
g115
(lp4823
(I01
g3710
tp4824
a(I01
g3863
tp4825
asg117
V[ +highTone +vowel ]
p4826
sbsg135
(irule
Guard
p4827
(dp4828
g110
I00
sg111
(lp4829
(irule
FeatureMatrix
p4830
(dp4831
g115
(lp4832
sg117
V[  ]
p4833
sbasg125
I00
sg117
g4833
sg127
I00
sg128
S'R'
sbsg139
(irule
FeatureMatrix
p4834
(dp4835
g115
(lp4836
sg117
V[  ]
p4837
sbsg117
V[  ] ---> [ +highTone +vowel ] / [ +highTone ] [  ] _ [  ]
p4838
sba(irule
Rule
p4839
(dp4840
g107
(irule
Guard
p4841
(dp4842
g110
I00
sg111
(lp4843
(irule
FeatureMatrix
p4844
(dp4845
g115
(lp4846
sg117
V[  ]
p4847
sba(irule
FeatureMatrix
p4848
(dp4849
g115
(lp4850
(I01
g3710
tp4851
asg117
V[ +highTone ]
p4852
sbasg125
I00
sg117
V[ +highTone ] [  ]
p4853
sg127
I00
sg128
S'L'
sbsg129
(irule
FeatureMatrix
p4854
(dp4855
g115
(lp4856
(I01
g3710
tp4857
asg117
V[ +highTone ]
p4858
sbsg135
(irule
Guard
p4859
(dp4860
g110
I00
sg111
(lp4861
(irule
FeatureMatrix
p4862
(dp4863
g115
(lp4864
sg117
V[  ]
p4865
sbasg125
I00
sg117
g4865
sg127
I00
sg128
S'R'
sbsg139
(irule
FeatureMatrix
p4866
(dp4867
g115
(lp4868
(I00
g4084
tp4869
asg117
V[ -palletized ]
p4870
sbsg117
V[ -palletized ] ---> [ +highTone ] / [ +highTone ] [  ] _ [  ]
p4871
sba(irule
Rule
p4872
(dp4873
g107
(irule
Guard
p4874
(dp4875
g110
I00
sg111
(lp4876
(irule
FeatureMatrix
p4877
(dp4878
g115
(lp4879
sg117
V[  ]
p4880
sba(irule
FeatureMatrix
p4881
(dp4882
g115
(lp4883
(I01
S'continuant'
p4884
tp4885
a(I01
g3710
tp4886
asg117
V[ +continuant +highTone ]
p4887
sbasg125
I00
sg117
V[ +continuant +highTone ] [  ]
p4888
sg127
I00
sg128
S'L'
sbsg129
(irule
FeatureMatrix
p4889
(dp4890
g115
(lp4891
(I01
g3710
tp4892
asg117
V[ +highTone ]
p4893
sbsg135
(irule
Guard
p4894
(dp4895
g110
I00
sg111
(lp4896
(irule
FeatureMatrix
p4897
(dp4898
g115
(lp4899
sg117
V[  ]
p4900
sbasg125
I00
sg117
g4900
sg127
I00
sg128
S'R'
sbsg139
(irule
FeatureMatrix
p4901
(dp4902
g115
(lp4903
sg117
V[  ]
p4904
sbsg117
V[  ] ---> [ +highTone ] / [ +continuant +highTone ] [  ] _ [  ]
p4905
sba(irule
Rule
p4906
(dp4907
g107
(irule
Guard
p4908
(dp4909
g110
I00
sg111
(lp4910
(irule
FeatureMatrix
p4911
(dp4912
g115
(lp4913
sg117
V[  ]
p4914
sba(irule
FeatureMatrix
p4915
(dp4916
g115
(lp4917
(I01
g3710
tp4918
asg117
V[ +highTone ]
p4919
sbasg125
I00
sg117
V[ +highTone ] [  ]
p4920
sg127
I00
sg128
S'L'
sbsg129
(irule
FeatureMatrix
p4921
(dp4922
g115
(lp4923
(I01
g3710
tp4924
asg117
V[ +highTone ]
p4925
sbsg135
(irule
Guard
p4926
(dp4927
g110
I00
sg111
(lp4928
(irule
FeatureMatrix
p4929
(dp4930
g115
(lp4931
sg117
V[  ]
p4932
sbasg125
I00
sg117
g4932
sg127
I00
sg128
S'R'
sbsg139
(irule
FeatureMatrix
p4933
(dp4934
g115
(lp4935
(I01
g4884
tp4936
asg117
V[ +continuant ]
p4937
sbsg117
V[ +continuant ] ---> [ +highTone ] / [ +highTone ] [  ] _ [  ]
p4938
sba(irule
Rule
p4939
(dp4940
g107
(irule
Guard
p4941
(dp4942
g110
I00
sg111
(lp4943
(irule
FeatureMatrix
p4944
(dp4945
g115
(lp4946
sg117
V[  ]
p4947
sba(irule
FeatureMatrix
p4948
(dp4949
g115
(lp4950
(I01
g3710
tp4951
asg117
V[ +highTone ]
p4952
sbasg125
I00
sg117
V[ +highTone ] [  ]
p4953
sg127
I00
sg128
S'L'
sbsg129
(irule
FeatureMatrix
p4954
(dp4955
g115
(lp4956
(I01
g3710
tp4957
a(I00
g4084
tp4958
asg117
V[ +highTone -palletized ]
p4959
sbsg135
(irule
Guard
p4960
(dp4961
g110
I00
sg111
(lp4962
(irule
FeatureMatrix
p4963
(dp4964
g115
(lp4965
sg117
V[  ]
p4966
sbasg125
I00
sg117
g4966
sg127
I00
sg128
S'R'
sbsg139
(irule
FeatureMatrix
p4967
(dp4968
g115
(lp4969
sg117
V[  ]
p4970
sbsg117
V[  ] ---> [ +highTone -palletized ] / [ +highTone ] [  ] _ [  ]
p4971
sba(irule
Rule
p4972
(dp4973
g107
(irule
Guard
p4974
(dp4975
g110
I00
sg111
(lp4976
(irule
FeatureMatrix
p4977
(dp4978
g115
(lp4979
sg117
V[  ]
p4980
sba(irule
FeatureMatrix
p4981
(dp4982
g115
(lp4983
(I01
g3710
tp4984
asg117
V[ +highTone ]
p4985
sbasg125
I00
sg117
V[ +highTone ] [  ]
p4986
sg127
I00
sg128
S'L'
sbsg129
(irule
FeatureMatrix
p4987
(dp4988
g115
(lp4989
(I01
g3710
tp4990
a(I01
g3983
tp4991
asg117
V[ +highTone +tense ]
p4992
sbsg135
(irule
Guard
p4993
(dp4994
g110
I00
sg111
(lp4995
(irule
FeatureMatrix
p4996
(dp4997
g115
(lp4998
sg117
V[  ]
p4999
sbasg125
I00
sg117
g4999
sg127
I00
sg128
S'R'
sbsg139
(irule
FeatureMatrix
p5000
(dp5001
g115
(lp5002
sg117
V[  ]
p5003
sbsg117
V[  ] ---> [ +highTone +tense ] / [ +highTone ] [  ] _ [  ]
p5004
sba(irule
Rule
p5005
(dp5006
g107
(irule
Guard
p5007
(dp5008
g110
I00
sg111
(lp5009
(irule
FeatureMatrix
p5010
(dp5011
g115
(lp5012
sg117
V[  ]
p5013
sba(irule
FeatureMatrix
p5014
(dp5015
g115
(lp5016
(I01
g3710
tp5017
asg117
V[ +highTone ]
p5018
sbasg125
I00
sg117
V[ +highTone ] [  ]
p5019
sg127
I00
sg128
S'L'
sbsg129
(irule
FeatureMatrix
p5020
(dp5021
g115
(lp5022
(I00
g4518
tp5023
a(I01
g3710
tp5024
asg117
V[ +highTone -lateral ]
p5025
sbsg135
(irule
Guard
p5026
(dp5027
g110
I00
sg111
(lp5028
(irule
FeatureMatrix
p5029
(dp5030
g115
(lp5031
sg117
V[  ]
p5032
sbasg125
I00
sg117
g5032
sg127
I00
sg128
S'R'
sbsg139
(irule
FeatureMatrix
p5033
(dp5034
g115
(lp5035
sg117
V[  ]
p5036
sbsg117
V[  ] ---> [ +highTone -lateral ] / [ +highTone ] [  ] _ [  ]
p5037
sba(irule
Rule
p5038
(dp5039
g107
(irule
Guard
p5040
(dp5041
g110
I00
sg111
(lp5042
(irule
FeatureMatrix
p5043
(dp5044
g115
(lp5045
sg117
V[  ]
p5046
sba(irule
FeatureMatrix
p5047
(dp5048
g115
(lp5049
(I01
g3710
tp5050
asg117
V[ +highTone ]
p5051
sbasg125
I00
sg117
V[ +highTone ] [  ]
p5052
sg127
I00
sg128
S'L'
sbsg129
(irule
FeatureMatrix
p5053
(dp5054
g115
(lp5055
(I00
g4684
tp5056
a(I01
g3710
tp5057
asg117
V[ +highTone -nasal ]
p5058
sbsg135
(irule
Guard
p5059
(dp5060
g110
I00
sg111
(lp5061
(irule
FeatureMatrix
p5062
(dp5063
g115
(lp5064
sg117
V[  ]
p5065
sbasg125
I00
sg117
g5065
sg127
I00
sg128
S'R'
sbsg139
(irule
FeatureMatrix
p5066
(dp5067
g115
(lp5068
sg117
V[  ]
p5069
sbsg117
V[  ] ---> [ +highTone -nasal ] / [ +highTone ] [  ] _ [  ]
p5070
sba(irule
Rule
p5071
(dp5072
g107
(irule
Guard
p5073
(dp5074
g110
I00
sg111
(lp5075
(irule
FeatureMatrix
p5076
(dp5077
g115
(lp5078
sg117
V[  ]
p5079
sba(irule
FeatureMatrix
p5080
(dp5081
g115
(lp5082
(I01
g3710
tp5083
asg117
V[ +highTone ]
p5084
sbasg125
I00
sg117
V[ +highTone ] [  ]
p5085
sg127
I00
sg128
S'L'
sbsg129
(irule
FeatureMatrix
p5086
(dp5087
g115
(lp5088
(I00
g4751
tp5089
a(I01
g3710
tp5090
asg117
V[ +highTone -liquid ]
p5091
sbsg135
(irule
Guard
p5092
(dp5093
g110
I00
sg111
(lp5094
(irule
FeatureMatrix
p5095
(dp5096
g115
(lp5097
sg117
V[  ]
p5098
sbasg125
I00
sg117
g5098
sg127
I00
sg128
S'R'
sbsg139
(irule
FeatureMatrix
p5099
(dp5100
g115
(lp5101
sg117
V[  ]
p5102
sbsg117
V[  ] ---> [ +highTone -liquid ] / [ +highTone ] [  ] _ [  ]
p5103
sba(irule
Rule
p5104
(dp5105
g107
(irule
Guard
p5106
(dp5107
g110
I00
sg111
(lp5108
(irule
FeatureMatrix
p5109
(dp5110
g115
(lp5111
sg117
V[  ]
p5112
sba(irule
FeatureMatrix
p5113
(dp5114
g115
(lp5115
(I01
g3710
tp5116
asg117
V[ +highTone ]
p5117
sbasg125
I00
sg117
V[ +highTone ] [  ]
p5118
sg127
I00
sg128
S'L'
sbsg129
(irule
FeatureMatrix
p5119
(dp5120
g115
(lp5121
(I01
g3710
tp5122
a(I01
g3712
tp5123
asg117
V[ +highTone +sonorant ]
p5124
sbsg135
(irule
Guard
p5125
(dp5126
g110
I00
sg111
(lp5127
(irule
FeatureMatrix
p5128
(dp5129
g115
(lp5130
sg117
V[  ]
p5131
sbasg125
I00
sg117
g5131
sg127
I00
sg128
S'R'
sbsg139
(irule
FeatureMatrix
p5132
(dp5133
g115
(lp5134
sg117
V[  ]
p5135
sbsg117
V[  ] ---> [ +highTone +sonorant ] / [ +highTone ] [  ] _ [  ]
p5136
sba(irule
Rule
p5137
(dp5138
g107
(irule
Guard
p5139
(dp5140
g110
I00
sg111
(lp5141
(irule
FeatureMatrix
p5142
(dp5143
g115
(lp5144
sg117
V[  ]
p5145
sba(irule
FeatureMatrix
p5146
(dp5147
g115
(lp5148
(I01
g3710
tp5149
asg117
V[ +highTone ]
p5150
sbasg125
I00
sg117
V[ +highTone ] [  ]
p5151
sg127
I00
sg128
S'L'
sbsg129
(irule
FeatureMatrix
p5152
(dp5153
g115
(lp5154
(I01
g3710
tp5155
asg117
V[ +highTone ]
p5156
sbsg135
(irule
Guard
p5157
(dp5158
g110
I00
sg111
(lp5159
(irule
FeatureMatrix
p5160
(dp5161
g115
(lp5162
sg117
V[  ]
p5163
sbasg125
I00
sg117
g5163
sg127
I00
sg128
S'R'
sbsg139
(irule
FeatureMatrix
p5164
(dp5165
g115
(lp5166
(I01
g3983
tp5167
asg117
V[ +tense ]
p5168
sbsg117
V[ +tense ] ---> [ +highTone ] / [ +highTone ] [  ] _ [  ]
p5169
sba(irule
Rule
p5170
(dp5171
g107
(irule
Guard
p5172
(dp5173
g110
I00
sg111
(lp5174
(irule
FeatureMatrix
p5175
(dp5176
g115
(lp5177
sg117
V[  ]
p5178
sba(irule
FeatureMatrix
p5179
(dp5180
g115
(lp5181
(I01
g3710
tp5182
asg117
V[ +highTone ]
p5183
sbasg125
I00
sg117
V[ +highTone ] [  ]
p5184
sg127
I00
sg128
S'L'
sbsg129
(irule
FeatureMatrix
p5185
(dp5186
g115
(lp5187
(I01
g3710
tp5188
asg117
V[ +highTone ]
p5189
sbsg135
(irule
Guard
p5190
(dp5191
g110
I00
sg111
(lp5192
(irule
FeatureMatrix
p5193
(dp5194
g115
(lp5195
sg117
V[  ]
p5196
sbasg125
I00
sg117
g5196
sg127
I00
sg128
S'R'
sbsg139
(irule
FeatureMatrix
p5197
(dp5198
g115
(lp5199
(I00
g3710
tp5200
asg117
V[ -highTone ]
p5201
sbsg117
V[ -highTone ] ---> [ +highTone ] / [ +highTone ] [  ] _ [  ]
p5202
sba(irule
Rule
p5203
(dp5204
g107
(irule
Guard
p5205
(dp5206
g110
I00
sg111
(lp5207
(irule
FeatureMatrix
p5208
(dp5209
g115
(lp5210
sg117
V[  ]
p5211
sba(irule
FeatureMatrix
p5212
(dp5213
g115
(lp5214
(I01
g3710
tp5215
asg117
V[ +highTone ]
p5216
sbasg125
I00
sg117
V[ +highTone ] [  ]
p5217
sg127
I00
sg128
S'L'
sbsg129
(irule
FeatureMatrix
p5218
(dp5219
g115
(lp5220
(I01
g3710
tp5221
asg117
V[ +highTone ]
p5222
sbsg135
(irule
Guard
p5223
(dp5224
g110
I00
sg111
(lp5225
(irule
FeatureMatrix
p5226
(dp5227
g115
(lp5228
sg117
V[  ]
p5229
sbasg125
I00
sg117
g5229
sg127
I00
sg128
S'R'
sbsg139
(irule
FeatureMatrix
p5230
(dp5231
g115
(lp5232
(I00
g4518
tp5233
asg117
V[ -lateral ]
p5234
sbsg117
V[ -lateral ] ---> [ +highTone ] / [ +highTone ] [  ] _ [  ]
p5235
sba(irule
Rule
p5236
(dp5237
g107
(irule
Guard
p5238
(dp5239
g110
I00
sg111
(lp5240
(irule
FeatureMatrix
p5241
(dp5242
g115
(lp5243
sg117
V[  ]
p5244
sba(irule
FeatureMatrix
p5245
(dp5246
g115
(lp5247
(I01
g3710
tp5248
asg117
V[ +highTone ]
p5249
sbasg125
I00
sg117
V[ +highTone ] [  ]
p5250
sg127
I00
sg128
S'L'
sbsg129
(irule
FeatureMatrix
p5251
(dp5252
g115
(lp5253
(I00
g4384
tp5254
a(I01
g3710
tp5255
asg117
V[ +highTone -anterior ]
p5256
sbsg135
(irule
Guard
p5257
(dp5258
g110
I00
sg111
(lp5259
(irule
FeatureMatrix
p5260
(dp5261
g115
(lp5262
sg117
V[  ]
p5263
sbasg125
I00
sg117
g5263
sg127
I00
sg128
S'R'
sbsg139
(irule
FeatureMatrix
p5264
(dp5265
g115
(lp5266
sg117
V[  ]
p5267
sbsg117
V[  ] ---> [ +highTone -anterior ] / [ +highTone ] [  ] _ [  ]
p5268
sba(irule
Rule
p5269
(dp5270
g107
(irule
Guard
p5271
(dp5272
g110
I00
sg111
(lp5273
(irule
FeatureMatrix
p5274
(dp5275
g115
(lp5276
sg117
V[  ]
p5277
sba(irule
FeatureMatrix
p5278
(dp5279
g115
(lp5280
(I01
g3710
tp5281
asg117
V[ +highTone ]
p5282
sbasg125
I00
sg117
V[ +highTone ] [  ]
p5283
sg127
I00
sg128
S'L'
sbsg129
(irule
FeatureMatrix
p5284
(dp5285
g115
(lp5286
(I01
g4884
tp5287
a(I01
g3710
tp5288
asg117
V[ +continuant +highTone ]
p5289
sbsg135
(irule
Guard
p5290
(dp5291
g110
I00
sg111
(lp5292
(irule
FeatureMatrix
p5293
(dp5294
g115
(lp5295
sg117
V[  ]
p5296
sbasg125
I00
sg117
g5296
sg127
I00
sg128
S'R'
sbsg139
(irule
FeatureMatrix
p5297
(dp5298
g115
(lp5299
sg117
V[  ]
p5300
sbsg117
V[  ] ---> [ +continuant +highTone ] / [ +highTone ] [  ] _ [  ]
p5301
sba(irule
Rule
p5302
(dp5303
g107
(irule
Guard
p5304
(dp5305
g110
I00
sg111
(lp5306
(irule
FeatureMatrix
p5307
(dp5308
g115
(lp5309
sg117
V[  ]
p5310
sba(irule
FeatureMatrix
p5311
(dp5312
g115
(lp5313
(I01
g3710
tp5314
asg117
V[ +highTone ]
p5315
sbasg125
I00
sg117
V[ +highTone ] [  ]
p5316
sg127
I00
sg128
S'L'
sbsg129
(irule
FeatureMatrix
p5317
(dp5318
g115
(lp5319
(I01
g3710
tp5320
asg117
V[ +highTone ]
p5321
sbsg135
(irule
Guard
p5322
(dp5323
g110
I00
sg111
(lp5324
(irule
FeatureMatrix
p5325
(dp5326
g115
(lp5327
sg117
V[  ]
p5328
sbasg125
I00
sg117
g5328
sg127
I00
sg128
S'R'
sbsg139
(irule
FeatureMatrix
p5329
(dp5330
g115
(lp5331
(I00
g4684
tp5332
asg117
V[ -nasal ]
p5333
sbsg117
V[ -nasal ] ---> [ +highTone ] / [ +highTone ] [  ] _ [  ]
p5334
sba(irule
Rule
p5335
(dp5336
g107
(irule
Guard
p5337
(dp5338
g110
I00
sg111
(lp5339
(irule
FeatureMatrix
p5340
(dp5341
g115
(lp5342
sg117
V[  ]
p5343
sba(irule
FeatureMatrix
p5344
(dp5345
g115
(lp5346
(I01
g3710
tp5347
asg117
V[ +highTone ]
p5348
sbasg125
I00
sg117
V[ +highTone ] [  ]
p5349
sg127
I00
sg128
S'L'
sbsg129
(irule
FeatureMatrix
p5350
(dp5351
g115
(lp5352
(I01
g3710
tp5353
asg117
V[ +highTone ]
p5354
sbsg135
(irule
Guard
p5355
(dp5356
g110
I00
sg111
(lp5357
(irule
FeatureMatrix
p5358
(dp5359
g115
(lp5360
sg117
V[  ]
p5361
sbasg125
I00
sg117
g5361
sg127
I00
sg128
S'R'
sbsg139
(irule
FeatureMatrix
p5362
(dp5363
g115
(lp5364
(I00
g4751
tp5365
asg117
V[ -liquid ]
p5366
sbsg117
V[ -liquid ] ---> [ +highTone ] / [ +highTone ] [  ] _ [  ]
p5367
sba(irule
Rule
p5368
(dp5369
g107
(irule
Guard
p5370
(dp5371
g110
I00
sg111
(lp5372
(irule
FeatureMatrix
p5373
(dp5374
g115
(lp5375
sg117
V[  ]
p5376
sba(irule
FeatureMatrix
p5377
(dp5378
g115
(lp5379
(I01
g3710
tp5380
asg117
V[ +highTone ]
p5381
sbasg125
I00
sg117
V[ +highTone ] [  ]
p5382
sg127
I00
sg128
S'L'
sbsg129
(irule
FeatureMatrix
p5383
(dp5384
g115
(lp5385
(I01
g3710
tp5386
asg117
V[ +highTone ]
p5387
sbsg135
(irule
Guard
p5388
(dp5389
g110
I00
sg111
(lp5390
(irule
FeatureMatrix
p5391
(dp5392
g115
(lp5393
sg117
V[  ]
p5394
sbasg125
I00
sg117
g5394
sg127
I00
sg128
S'R'
sbsg139
(irule
FeatureMatrix
p5395
(dp5396
g115
(lp5397
(I00
g4180
tp5398
asg117
V[ -glide ]
p5399
sbsg117
V[ -glide ] ---> [ +highTone ] / [ +highTone ] [  ] _ [  ]
p5400
sba(irule
Rule
p5401
(dp5402
g107
(irule
Guard
p5403
(dp5404
g110
I00
sg111
(lp5405
(irule
FeatureMatrix
p5406
(dp5407
g115
(lp5408
sg117
V[  ]
p5409
sba(irule
FeatureMatrix
p5410
(dp5411
g115
(lp5412
(I01
g3710
tp5413
asg117
V[ +highTone ]
p5414
sbasg125
I00
sg117
V[ +highTone ] [  ]
p5415
sg127
I00
sg128
S'L'
sbsg129
(irule
FeatureMatrix
p5416
(dp5417
g115
(lp5418
(I01
g3710
tp5419
asg117
V[ +highTone ]
p5420
sbsg135
(irule
Guard
p5421
(dp5422
g110
I00
sg111
(lp5423
(irule
FeatureMatrix
p5424
(dp5425
g115
(lp5426
sg117
V[  ]
p5427
sbasg125
I00
sg117
g5427
sg127
I00
sg128
S'R'
sbsg139
(irule
FeatureMatrix
p5428
(dp5429
g115
(lp5430
(I00
g4384
tp5431
asg117
V[ -anterior ]
p5432
sbsg117
V[ -anterior ] ---> [ +highTone ] / [ +highTone ] [  ] _ [  ]
p5433
sba(irule
Rule
p5434
(dp5435
g107
(irule
Guard
p5436
(dp5437
g110
I00
sg111
(lp5438
(irule
FeatureMatrix
p5439
(dp5440
g115
(lp5441
sg117
V[  ]
p5442
sba(irule
FeatureMatrix
p5443
(dp5444
g115
(lp5445
(I01
g3710
tp5446
asg117
V[ +highTone ]
p5447
sbasg125
I00
sg117
V[ +highTone ] [  ]
p5448
sg127
I00
sg128
S'L'
sbsg129
(irule
FeatureMatrix
p5449
(dp5450
g115
(lp5451
(I01
g3710
tp5452
asg117
V[ +highTone ]
p5453
sbsg135
(irule
Guard
p5454
(dp5455
g110
I00
sg111
(lp5456
(irule
FeatureMatrix
p5457
(dp5458
g115
(lp5459
sg117
V[  ]
p5460
sbasg125
I00
sg117
g5460
sg127
I00
sg128
S'R'
sbsg139
(irule
FeatureMatrix
p5461
(dp5462
g115
(lp5463
(I01
g3712
tp5464
asg117
V[ +sonorant ]
p5465
sbsg117
V[ +sonorant ] ---> [ +highTone ] / [ +highTone ] [  ] _ [  ]
p5466
sba(irule
Rule
p5467
(dp5468
g107
(irule
Guard
p5469
(dp5470
g110
I00
sg111
(lp5471
(irule
FeatureMatrix
p5472
(dp5473
g115
(lp5474
sg117
V[  ]
p5475
sba(irule
FeatureMatrix
p5476
(dp5477
g115
(lp5478
(I01
g3710
tp5479
asg117
V[ +highTone ]
p5480
sbasg125
I00
sg117
V[ +highTone ] [  ]
p5481
sg127
I00
sg128
S'L'
sbsg129
(irule
FeatureMatrix
p5482
(dp5483
g115
(lp5484
(I01
g3710
tp5485
asg117
V[ +highTone ]
p5486
sbsg135
(irule
Guard
p5487
(dp5488
g110
I00
sg111
(lp5489
(irule
FeatureMatrix
p5490
(dp5491
g115
(lp5492
sg117
V[  ]
p5493
sba(irule
FeatureMatrix
p5494
(dp5495
g115
(lp5496
sg117
V[  ]
p5497
sbasg125
I00
sg117
V[  ] [  ]
p5498
sg127
I00
sg128
S'R'
sbsg139
(irule
FeatureMatrix
p5499
(dp5500
g115
(lp5501
(I01
g3863
tp5502
asg117
V[ +vowel ]
p5503
sbsg117
V[ +vowel ] ---> [ +highTone ] / [ +highTone ] [  ] _ [  ] [  ]
p5504
sba(irule
Rule
p5505
(dp5506
g107
(irule
Guard
p5507
(dp5508
g110
I00
sg111
(lp5509
(irule
FeatureMatrix
p5510
(dp5511
g115
(lp5512
sg117
V[  ]
p5513
sba(irule
FeatureMatrix
p5514
(dp5515
g115
(lp5516
(I01
g3710
tp5517
asg117
V[ +highTone ]
p5518
sbasg125
I00
sg117
V[ +highTone ] [  ]
p5519
sg127
I00
sg128
S'L'
sbsg129
(irule
FeatureMatrix
p5520
(dp5521
g115
(lp5522
(I01
g3710
tp5523
asg117
V[ +highTone ]
p5524
sbsg135
(irule
Guard
p5525
(dp5526
g110
I00
sg111
(lp5527
(irule
FeatureMatrix
p5528
(dp5529
g115
(lp5530
sg117
V[  ]
p5531
sba(irule
FeatureMatrix
p5532
(dp5533
g115
(lp5534
(I00
g4384
tp5535
asg117
V[ -anterior ]
p5536
sbasg125
I00
sg117
V[  ] [ -anterior ]
p5537
sg127
I00
sg128
S'R'
sbsg139
(irule
FeatureMatrix
p5538
(dp5539
g115
(lp5540
sg117
V[  ]
p5541
sbsg117
V[  ] ---> [ +highTone ] / [ +highTone ] [  ] _ [  ] [ -anterior ]
p5542
sba(irule
Rule
p5543
(dp5544
g107
(irule
Guard
p5545
(dp5546
g110
I00
sg111
(lp5547
(irule
FeatureMatrix
p5548
(dp5549
g115
(lp5550
sg117
V[  ]
p5551
sba(irule
FeatureMatrix
p5552
(dp5553
g115
(lp5554
(I01
g3710
tp5555
asg117
V[ +highTone ]
p5556
sbasg125
I00
sg117
V[ +highTone ] [  ]
p5557
sg127
I00
sg128
S'L'
sbsg129
(irule
FeatureMatrix
p5558
(dp5559
g115
(lp5560
(I01
g3710
tp5561
asg117
V[ +highTone ]
p5562
sbsg135
(irule
Guard
p5563
(dp5564
g110
I00
sg111
(lp5565
(irule
FeatureMatrix
p5566
(dp5567
g115
(lp5568
sg117
V[  ]
p5569
sba(irule
FeatureMatrix
p5570
(dp5571
g115
(lp5572
(I01
g3983
tp5573
asg117
V[ +tense ]
p5574
sbasg125
I00
sg117
V[  ] [ +tense ]
p5575
sg127
I00
sg128
S'R'
sbsg139
(irule
FeatureMatrix
p5576
(dp5577
g115
(lp5578
sg117
V[  ]
p5579
sbsg117
V[  ] ---> [ +highTone ] / [ +highTone ] [  ] _ [  ] [ +tense ]
p5580
sba(irule
Rule
p5581
(dp5582
g107
(irule
Guard
p5583
(dp5584
g110
I00
sg111
(lp5585
(irule
FeatureMatrix
p5586
(dp5587
g115
(lp5588
sg117
V[  ]
p5589
sba(irule
FeatureMatrix
p5590
(dp5591
g115
(lp5592
(I01
g3710
tp5593
asg117
V[ +highTone ]
p5594
sbasg125
I00
sg117
V[ +highTone ] [  ]
p5595
sg127
I00
sg128
S'L'
sbsg129
(irule
FeatureMatrix
p5596
(dp5597
g115
(lp5598
(I01
g3710
tp5599
asg117
V[ +highTone ]
p5600
sbsg135
(irule
Guard
p5601
(dp5602
g110
I00
sg111
(lp5603
(irule
FeatureMatrix
p5604
(dp5605
g115
(lp5606
sg117
V[  ]
p5607
sba(irule
FeatureMatrix
p5608
(dp5609
g115
(lp5610
(I01
g3789
tp5611
asg117
V[ +voice ]
p5612
sbasg125
I00
sg117
V[  ] [ +voice ]
p5613
sg127
I00
sg128
S'R'
sbsg139
(irule
FeatureMatrix
p5614
(dp5615
g115
(lp5616
sg117
V[  ]
p5617
sbsg117
V[  ] ---> [ +highTone ] / [ +highTone ] [  ] _ [  ] [ +voice ]
p5618
sba(irule
Rule
p5619
(dp5620
g107
(irule
Guard
p5621
(dp5622
g110
I00
sg111
(lp5623
(irule
FeatureMatrix
p5624
(dp5625
g115
(lp5626
sg117
V[  ]
p5627
sba(irule
FeatureMatrix
p5628
(dp5629
g115
(lp5630
(I01
g3710
tp5631
asg117
V[ +highTone ]
p5632
sbasg125
I00
sg117
V[ +highTone ] [  ]
p5633
sg127
I00
sg128
S'L'
sbsg129
(irule
FeatureMatrix
p5634
(dp5635
g115
(lp5636
(I01
g3710
tp5637
asg117
V[ +highTone ]
p5638
sbsg135
(irule
Guard
p5639
(dp5640
g110
I00
sg111
(lp5641
(irule
FeatureMatrix
p5642
(dp5643
g115
(lp5644
(I00
g3863
tp5645
asg117
V[ -vowel ]
p5646
sba(irule
FeatureMatrix
p5647
(dp5648
g115
(lp5649
sg117
V[  ]
p5650
sbasg125
I00
sg117
V[ -vowel ] [  ]
p5651
sg127
I00
sg128
S'R'
sbsg139
(irule
FeatureMatrix
p5652
(dp5653
g115
(lp5654
sg117
V[  ]
p5655
sbsg117
V[  ] ---> [ +highTone ] / [ +highTone ] [  ] _ [ -vowel ] [  ]
p5656
sba(irule
Rule
p5657
(dp5658
g107
(irule
Guard
p5659
(dp5660
g110
I00
sg111
(lp5661
(irule
FeatureMatrix
p5662
(dp5663
g115
(lp5664
(I00
g4180
tp5665
a(I00
g3710
tp5666
asg117
V[ -glide -highTone ]
p5667
sba(irule
FeatureMatrix
p5668
(dp5669
g115
(lp5670
(I01
g3710
tp5671
asg117
V[ +highTone ]
p5672
sbasg125
I00
sg117
V[ +highTone ] [ -glide -highTone ]
p5673
sg127
I00
sg128
S'L'
sbsg129
(irule
FeatureMatrix
p5674
(dp5675
g115
(lp5676
(I01
g3710
tp5677
asg117
V[ +highTone ]
p5678
sbsg135
(irule
Guard
p5679
(dp5680
g110
I00
sg111
(lp5681
(irule
FeatureMatrix
p5682
(dp5683
g115
(lp5684
sg117
V[  ]
p5685
sbasg125
I00
sg117
g5685
sg127
I00
sg128
S'R'
sbsg139
(irule
FeatureMatrix
p5686
(dp5687
g115
(lp5688
sg117
V[  ]
p5689
sbsg117
V[  ] ---> [ +highTone ] / [ +highTone ] [ -glide -highTone ] _ [  ]
p5690
sba(irule
Rule
p5691
(dp5692
g107
(irule
Guard
p5693
(dp5694
g110
I00
sg111
(lp5695
(irule
FeatureMatrix
p5696
(dp5697
g115
(lp5698
sg117
V[  ]
p5699
sba(irule
FeatureMatrix
p5700
(dp5701
g115
(lp5702
(I01
g3710
tp5703
asg117
V[ +highTone ]
p5704
sbasg125
I00
sg117
V[ +highTone ] [  ]
p5705
sg127
I00
sg128
S'L'
sbsg129
(irule
FeatureMatrix
p5706
(dp5707
g115
(lp5708
(I01
g3710
tp5709
asg117
V[ +highTone ]
p5710
sbsg135
(irule
Guard
p5711
(dp5712
g110
I00
sg111
(lp5713
(irule
FeatureMatrix
p5714
(dp5715
g115
(lp5716
sg117
V[  ]
p5717
sba(irule
FeatureMatrix
p5718
(dp5719
g115
(lp5720
sg117
V[  ]
p5721
sbasg125
I00
sg117
V[  ] [  ]
p5722
sg127
I00
sg128
S'R'
sbsg139
(irule
FeatureMatrix
p5723
(dp5724
g115
(lp5725
(I00
g4084
tp5726
asg117
V[ -palletized ]
p5727
sbsg117
V[ -palletized ] ---> [ +highTone ] / [ +highTone ] [  ] _ [  ] [  ]
p5728
sba(irule
Rule
p5729
(dp5730
g107
(irule
Guard
p5731
(dp5732
g110
I00
sg111
(lp5733
(irule
FeatureMatrix
p5734
(dp5735
g115
(lp5736
(I00
g3710
tp5737
asg117
V[ -highTone ]
p5738
sba(irule
FeatureMatrix
p5739
(dp5740
g115
(lp5741
(I00
g4751
tp5742
a(I01
g3710
tp5743
asg117
V[ +highTone -liquid ]
p5744
sbasg125
I00
sg117
V[ +highTone -liquid ] [ -highTone ]
p5745
sg127
I00
sg128
S'L'
sbsg129
(irule
FeatureMatrix
p5746
(dp5747
g115
(lp5748
(I01
g3710
tp5749
asg117
V[ +highTone ]
p5750
sbsg135
(irule
Guard
p5751
(dp5752
g110
I00
sg111
(lp5753
(irule
FeatureMatrix
p5754
(dp5755
g115
(lp5756
sg117
V[  ]
p5757
sbasg125
I00
sg117
g5757
sg127
I00
sg128
S'R'
sbsg139
(irule
FeatureMatrix
p5758
(dp5759
g115
(lp5760
sg117
V[  ]
p5761
sbsg117
V[  ] ---> [ +highTone ] / [ +highTone -liquid ] [ -highTone ] _ [  ]
p5762
sba(irule
Rule
p5763
(dp5764
g107
(irule
Guard
p5765
(dp5766
g110
I00
sg111
(lp5767
(irule
FeatureMatrix
p5768
(dp5769
g115
(lp5770
sg117
V[  ]
p5771
sba(irule
FeatureMatrix
p5772
(dp5773
g115
(lp5774
(I01
g3710
tp5775
a(I00
g4124
tp5776
a(I01
g3789
tp5777
asg117
V[ +highTone +voice -sibilant ]
p5778
sbasg125
I00
sg117
V[ +highTone +voice -sibilant ] [  ]
p5779
sg127
I00
sg128
S'L'
sbsg129
(irule
FeatureMatrix
p5780
(dp5781
g115
(lp5782
(I01
g3710
tp5783
asg117
V[ +highTone ]
p5784
sbsg135
(irule
Guard
p5785
(dp5786
g110
I00
sg111
(lp5787
(irule
FeatureMatrix
p5788
(dp5789
g115
(lp5790
sg117
V[  ]
p5791
sbasg125
I00
sg117
g5791
sg127
I00
sg128
S'R'
sbsg139
(irule
FeatureMatrix
p5792
(dp5793
g115
(lp5794
sg117
V[  ]
p5795
sbsg117
V[  ] ---> [ +highTone ] / [ +highTone +voice -sibilant ] [  ] _ [  ]
p5796
sba(irule
Rule
p5797
(dp5798
g107
(irule
Guard
p5799
(dp5800
g110
I00
sg111
(lp5801
(irule
FeatureMatrix
p5802
(dp5803
g115
(lp5804
sg117
V[  ]
p5805
sba(irule
FeatureMatrix
p5806
(dp5807
g115
(lp5808
(I01
g3710
tp5809
asg117
V[ +highTone ]
p5810
sbasg125
I00
sg117
V[ +highTone ] [  ]
p5811
sg127
I00
sg128
S'L'
sbsg129
(irule
FeatureMatrix
p5812
(dp5813
g115
(lp5814
(I01
g3710
tp5815
a(I00
g4124
tp5816
a(I01
g3789
tp5817
asg117
V[ +highTone +voice -sibilant ]
p5818
sbsg135
(irule
Guard
p5819
(dp5820
g110
I00
sg111
(lp5821
(irule
FeatureMatrix
p5822
(dp5823
g115
(lp5824
sg117
V[  ]
p5825
sbasg125
I00
sg117
g5825
sg127
I00
sg128
S'R'
sbsg139
(irule
FeatureMatrix
p5826
(dp5827
g115
(lp5828
sg117
V[  ]
p5829
sbsg117
V[  ] ---> [ +highTone +voice -sibilant ] / [ +highTone ] [  ] _ [  ]
p5830
sba(irule
Rule
p5831
(dp5832
g107
(irule
Guard
p5833
(dp5834
g110
I00
sg111
(lp5835
(irule
FeatureMatrix
p5836
(dp5837
g115
(lp5838
sg117
V[  ]
p5839
sba(irule
FeatureMatrix
p5840
(dp5841
g115
(lp5842
(I01
g3710
tp5843
asg117
V[ +highTone ]
p5844
sbasg125
I00
sg117
V[ +highTone ] [  ]
p5845
sg127
I00
sg128
S'L'
sbsg129
(irule
FeatureMatrix
p5846
(dp5847
g115
(lp5848
(I01
g3710
tp5849
a(I01
g3863
tp5850
asg117
V[ +highTone +vowel ]
p5851
sbsg135
(irule
Guard
p5852
(dp5853
g110
I00
sg111
(lp5854
(irule
FeatureMatrix
p5855
(dp5856
g115
(lp5857
sg117
V[  ]
p5858
sba(irule
FeatureMatrix
p5859
(dp5860
g115
(lp5861
sg117
V[  ]
p5862
sbasg125
I00
sg117
V[  ] [  ]
p5863
sg127
I00
sg128
S'R'
sbsg139
(irule
FeatureMatrix
p5864
(dp5865
g115
(lp5866
sg117
V[  ]
p5867
sbsg117
V[  ] ---> [ +highTone +vowel ] / [ +highTone ] [  ] _ [  ] [  ]
p5868
sba(irule
Rule
p5869
(dp5870
g107
(irule
Guard
p5871
(dp5872
g110
I00
sg111
(lp5873
(irule
FeatureMatrix
p5874
(dp5875
g115
(lp5876
sg117
V[  ]
p5877
sba(irule
FeatureMatrix
p5878
(dp5879
g115
(lp5880
(I01
g3710
tp5881
asg117
V[ +highTone ]
p5882
sbasg125
I00
sg117
V[ +highTone ] [  ]
p5883
sg127
I00
sg128
S'L'
sbsg129
(irule
FeatureMatrix
p5884
(dp5885
g115
(lp5886
(I01
g3710
tp5887
a(I00
g4318
tp5888
a(I00
g4124
tp5889
asg117
V[ +highTone -coronal -sibilant ]
p5890
sbsg135
(irule
Guard
p5891
(dp5892
g110
I00
sg111
(lp5893
(irule
FeatureMatrix
p5894
(dp5895
g115
(lp5896
sg117
V[  ]
p5897
sbasg125
I00
sg117
g5897
sg127
I00
sg128
S'R'
sbsg139
(irule
FeatureMatrix
p5898
(dp5899
g115
(lp5900
sg117
V[  ]
p5901
sbsg117
V[  ] ---> [ +highTone -coronal -sibilant ] / [ +highTone ] [  ] _ [  ]
p5902
sba(irule
Rule
p5903
(dp5904
g107
(irule
Guard
p5905
(dp5906
g110
I00
sg111
(lp5907
(irule
FeatureMatrix
p5908
(dp5909
g115
(lp5910
(I00
g3710
tp5911
asg117
V[ -highTone ]
p5912
sba(irule
FeatureMatrix
p5913
(dp5914
g115
(lp5915
(I01
g3710
tp5916
asg117
V[ +highTone ]
p5917
sbasg125
I00
sg117
V[ +highTone ] [ -highTone ]
p5918
sg127
I00
sg128
S'L'
sbsg129
(irule
FeatureMatrix
p5919
(dp5920
g115
(lp5921
(I00
g4180
tp5922
a(I01
g3710
tp5923
asg117
V[ +highTone -glide ]
p5924
sbsg135
(irule
Guard
p5925
(dp5926
g110
I00
sg111
(lp5927
(irule
FeatureMatrix
p5928
(dp5929
g115
(lp5930
sg117
V[  ]
p5931
sbasg125
I00
sg117
g5931
sg127
I00
sg128
S'R'
sbsg139
(irule
FeatureMatrix
p5932
(dp5933
g115
(lp5934
sg117
V[  ]
p5935
sbsg117
V[  ] ---> [ +highTone -glide ] / [ +highTone ] [ -highTone ] _ [  ]
p5936
sba(irule
Rule
p5937
(dp5938
g107
(irule
Guard
p5939
(dp5940
g110
I00
sg111
(lp5941
(irule
FeatureMatrix
p5942
(dp5943
g115
(lp5944
sg117
V[  ]
p5945
sba(irule
FeatureMatrix
p5946
(dp5947
g115
(lp5948
(I01
g3710
tp5949
asg117
V[ +highTone ]
p5950
sbasg125
I00
sg117
V[ +highTone ] [  ]
p5951
sg127
I00
sg128
S'L'
sbsg129
(irule
FeatureMatrix
p5952
(dp5953
g115
(lp5954
(I01
g3710
tp5955
a(I01
g3863
tp5956
a(I00
g4124
tp5957
asg117
V[ +highTone +vowel -sibilant ]
p5958
sbsg135
(irule
Guard
p5959
(dp5960
g110
I00
sg111
(lp5961
(irule
FeatureMatrix
p5962
(dp5963
g115
(lp5964
sg117
V[  ]
p5965
sbasg125
I00
sg117
g5965
sg127
I00
sg128
S'R'
sbsg139
(irule
FeatureMatrix
p5966
(dp5967
g115
(lp5968
sg117
V[  ]
p5969
sbsg117
V[  ] ---> [ +highTone +vowel -sibilant ] / [ +highTone ] [  ] _ [  ]
p5970
sba(irule
Rule
p5971
(dp5972
g107
(irule
Guard
p5973
(dp5974
g110
I00
sg111
(lp5975
(irule
FeatureMatrix
p5976
(dp5977
g115
(lp5978
sg117
V[  ]
p5979
sba(irule
FeatureMatrix
p5980
(dp5981
g115
(lp5982
(I01
g3710
tp5983
asg117
V[ +highTone ]
p5984
sbasg125
I00
sg117
V[ +highTone ] [  ]
p5985
sg127
I00
sg128
S'L'
sbsg129
(irule
FeatureMatrix
p5986
(dp5987
g115
(lp5988
(I01
g3710
tp5989
asg117
V[ +highTone ]
p5990
sbsg135
(irule
Guard
p5991
(dp5992
g110
I00
sg111
(lp5993
(irule
FeatureMatrix
p5994
(dp5995
g115
(lp5996
(I00
g4030
tp5997
asg117
V[ -low ]
p5998
sba(irule
FeatureMatrix
p5999
(dp6000
g115
(lp6001
sg117
V[  ]
p6002
sbasg125
I00
sg117
V[ -low ] [  ]
p6003
sg127
I00
sg128
S'R'
sbsg139
(irule
FeatureMatrix
p6004
(dp6005
g115
(lp6006
sg117
V[  ]
p6007
sbsg117
V[  ] ---> [ +highTone ] / [ +highTone ] [  ] _ [ -low ] [  ]
p6008
sba(irule
Rule
p6009
(dp6010
g107
(irule
Guard
p6011
(dp6012
g110
I00
sg111
(lp6013
(irule
FeatureMatrix
p6014
(dp6015
g115
(lp6016
sg117
V[  ]
p6017
sba(irule
FeatureMatrix
p6018
(dp6019
g115
(lp6020
(I01
g3710
tp6021
asg117
V[ +highTone ]
p6022
sbasg125
I00
sg117
V[ +highTone ] [  ]
p6023
sg127
I00
sg128
S'L'
sbsg129
(irule
FeatureMatrix
p6024
(dp6025
g115
(lp6026
(I01
g3710
tp6027
asg117
V[ +highTone ]
p6028
sbsg135
(irule
Guard
p6029
(dp6030
g110
I00
sg111
(lp6031
(irule
FeatureMatrix
p6032
(dp6033
g115
(lp6034
(I00
g3710
tp6035
asg117
V[ -highTone ]
p6036
sba(irule
FeatureMatrix
p6037
(dp6038
g115
(lp6039
sg117
V[  ]
p6040
sbasg125
I00
sg117
V[ -highTone ] [  ]
p6041
sg127
I00
sg128
S'R'
sbsg139
(irule
FeatureMatrix
p6042
(dp6043
g115
(lp6044
sg117
V[  ]
p6045
sbsg117
V[  ] ---> [ +highTone ] / [ +highTone ] [  ] _ [ -highTone ] [  ]
p6046
sba(irule
Rule
p6047
(dp6048
g107
(irule
Guard
p6049
(dp6050
g110
I00
sg111
(lp6051
(irule
FeatureMatrix
p6052
(dp6053
g115
(lp6054
sg117
V[  ]
p6055
sba(irule
FeatureMatrix
p6056
(dp6057
g115
(lp6058
(I01
g3710
tp6059
asg117
V[ +highTone ]
p6060
sbasg125
I00
sg117
V[ +highTone ] [  ]
p6061
sg127
I00
sg128
S'L'
sbsg129
(irule
FeatureMatrix
p6062
(dp6063
g115
(lp6064
(I01
g3710
tp6065
asg117
V[ +highTone ]
p6066
sbsg135
(irule
Guard
p6067
(dp6068
g110
I00
sg111
(lp6069
(irule
FeatureMatrix
p6070
(dp6071
g115
(lp6072
sg117
V[  ]
p6073
sba(irule
FeatureMatrix
p6074
(dp6075
g115
(lp6076
sg117
V[  ]
p6077
sbasg125
I00
sg117
V[  ] [  ]
p6078
sg127
I00
sg128
S'R'
sbsg139
(irule
FeatureMatrix
p6079
(dp6080
g115
(lp6081
(I01
g3789
tp6082
asg117
V[ +voice ]
p6083
sbsg117
V[ +voice ] ---> [ +highTone ] / [ +highTone ] [  ] _ [  ] [  ]
p6084
sba(irule
Rule
p6085
(dp6086
g107
(irule
Guard
p6087
(dp6088
g110
I00
sg111
(lp6089
(irule
FeatureMatrix
p6090
(dp6091
g115
(lp6092
sg117
V[  ]
p6093
sba(irule
FeatureMatrix
p6094
(dp6095
g115
(lp6096
(I01
g3710
tp6097
asg117
V[ +highTone ]
p6098
sbasg125
I00
sg117
V[ +highTone ] [  ]
p6099
sg127
I00
sg128
S'L'
sbsg129
(irule
FeatureMatrix
p6100
(dp6101
g115
(lp6102
(I01
g3710
tp6103
asg117
V[ +highTone ]
p6104
sbsg135
(irule
Guard
p6105
(dp6106
g110
I00
sg111
(lp6107
(irule
FeatureMatrix
p6108
(dp6109
g115
(lp6110
sg117
V[  ]
p6111
sba(irule
FeatureMatrix
p6112
(dp6113
g115
(lp6114
(I00
g4180
tp6115
asg117
V[ -glide ]
p6116
sbasg125
I00
sg117
V[  ] [ -glide ]
p6117
sg127
I00
sg128
S'R'
sbsg139
(irule
FeatureMatrix
p6118
(dp6119
g115
(lp6120
sg117
V[  ]
p6121
sbsg117
V[  ] ---> [ +highTone ] / [ +highTone ] [  ] _ [  ] [ -glide ]
p6122
sba(irule
Rule
p6123
(dp6124
g107
(irule
Guard
p6125
(dp6126
g110
I00
sg111
(lp6127
(irule
FeatureMatrix
p6128
(dp6129
g115
(lp6130
sg117
V[  ]
p6131
sba(irule
FeatureMatrix
p6132
(dp6133
g115
(lp6134
(I01
g3710
tp6135
a(I01
g3863
tp6136
a(I01
g3789
tp6137
asg117
V[ +highTone +voice +vowel ]
p6138
sbasg125
I00
sg117
V[ +highTone +voice +vowel ] [  ]
p6139
sg127
I00
sg128
S'L'
sbsg129
(irule
FeatureMatrix
p6140
(dp6141
g115
(lp6142
(I01
g3710
tp6143
asg117
V[ +highTone ]
p6144
sbsg135
(irule
Guard
p6145
(dp6146
g110
I00
sg111
(lp6147
(irule
FeatureMatrix
p6148
(dp6149
g115
(lp6150
sg117
V[  ]
p6151
sbasg125
I00
sg117
g6151
sg127
I00
sg128
S'R'
sbsg139
(irule
FeatureMatrix
p6152
(dp6153
g115
(lp6154
sg117
V[  ]
p6155
sbsg117
V[  ] ---> [ +highTone ] / [ +highTone +voice +vowel ] [  ] _ [  ]
p6156
sba(irule
Rule
p6157
(dp6158
g107
(irule
Guard
p6159
(dp6160
g110
I00
sg111
(lp6161
(irule
FeatureMatrix
p6162
(dp6163
g115
(lp6164
sg117
V[  ]
p6165
sba(irule
FeatureMatrix
p6166
(dp6167
g115
(lp6168
(I01
g3710
tp6169
asg117
V[ +highTone ]
p6170
sbasg125
I00
sg117
V[ +highTone ] [  ]
p6171
sg127
I00
sg128
S'L'
sbsg129
(irule
FeatureMatrix
p6172
(dp6173
g115
(lp6174
(I01
g3710
tp6175
asg117
V[ +highTone ]
p6176
sbsg135
(irule
Guard
p6177
(dp6178
g110
I00
sg111
(lp6179
(irule
FeatureMatrix
p6180
(dp6181
g115
(lp6182
sg117
V[  ]
p6183
sba(irule
FeatureMatrix
p6184
(dp6185
g115
(lp6186
sg117
V[  ]
p6187
sbasg125
I00
sg117
V[  ] [  ]
p6188
sg127
I00
sg128
S'R'
sbsg139
(irule
FeatureMatrix
p6189
(dp6190
g115
(lp6191
(I01
g4884
tp6192
asg117
V[ +continuant ]
p6193
sbsg117
V[ +continuant ] ---> [ +highTone ] / [ +highTone ] [  ] _ [  ] [  ]
p6194
sba(irule
Rule
p6195
(dp6196
g107
(irule
Guard
p6197
(dp6198
g110
I00
sg111
(lp6199
(irule
FeatureMatrix
p6200
(dp6201
g115
(lp6202
sg117
V[  ]
p6203
sba(irule
FeatureMatrix
p6204
(dp6205
g115
(lp6206
(I01
g3710
tp6207
asg117
V[ +highTone ]
p6208
sbasg125
I00
sg117
V[ +highTone ] [  ]
p6209
sg127
I00
sg128
S'L'
sbsg129
(irule
FeatureMatrix
p6210
(dp6211
g115
(lp6212
(I01
g3710
tp6213
asg117
V[ +highTone ]
p6214
sbsg135
(irule
Guard
p6215
(dp6216
g110
I00
sg111
(lp6217
(irule
FeatureMatrix
p6218
(dp6219
g115
(lp6220
(I00
g3983
tp6221
asg117
V[ -tense ]
p6222
sba(irule
FeatureMatrix
p6223
(dp6224
g115
(lp6225
sg117
V[  ]
p6226
sbasg125
I00
sg117
V[ -tense ] [  ]
p6227
sg127
I00
sg128
S'R'
sbsg139
(irule
FeatureMatrix
p6228
(dp6229
g115
(lp6230
sg117
V[  ]
p6231
sbsg117
V[  ] ---> [ +highTone ] / [ +highTone ] [  ] _ [ -tense ] [  ]
p6232
sba(irule
Rule
p6233
(dp6234
g107
(irule
Guard
p6235
(dp6236
g110
I00
sg111
(lp6237
(irule
FeatureMatrix
p6238
(dp6239
g115
(lp6240
sg117
V[  ]
p6241
sba(irule
FeatureMatrix
p6242
(dp6243
g115
(lp6244
(I01
g3710
tp6245
a(I01
g3789
tp6246
asg117
V[ +highTone +voice ]
p6247
sbasg125
I00
sg117
V[ +highTone +voice ] [  ]
p6248
sg127
I00
sg128
S'L'
sbsg129
(irule
FeatureMatrix
p6249
(dp6250
g115
(lp6251
(I01
g3710
tp6252
asg117
V[ +highTone ]
p6253
sbsg135
(irule
Guard
p6254
(dp6255
g110
I00
sg111
(lp6256
(irule
FeatureMatrix
p6257
(dp6258
g115
(lp6259
sg117
V[  ]
p6260
sbasg125
I00
sg117
g6260
sg127
I00
sg128
S'R'
sbsg139
(irule
FeatureMatrix
p6261
(dp6262
g115
(lp6263
(I01
g4884
tp6264
asg117
V[ +continuant ]
p6265
sbsg117
V[ +continuant ] ---> [ +highTone ] / [ +highTone +voice ] [  ] _ [  ]
p6266
sba(irule
Rule
p6267
(dp6268
g107
(irule
Guard
p6269
(dp6270
g110
I00
sg111
(lp6271
(irule
FeatureMatrix
p6272
(dp6273
g115
(lp6274
sg117
V[  ]
p6275
sba(irule
FeatureMatrix
p6276
(dp6277
g115
(lp6278
(I01
g3710
tp6279
asg117
V[ +highTone ]
p6280
sbasg125
I00
sg117
V[ +highTone ] [  ]
p6281
sg127
I00
sg128
S'L'
sbsg129
(irule
FeatureMatrix
p6282
(dp6283
g115
(lp6284
(I01
g3710
tp6285
asg117
V[ +highTone ]
p6286
sbsg135
(irule
Guard
p6287
(dp6288
g110
I00
sg111
(lp6289
(irule
FeatureMatrix
p6290
(dp6291
g115
(lp6292
sg117
V[  ]
p6293
sba(irule
FeatureMatrix
p6294
(dp6295
g115
(lp6296
(I00
g3710
tp6297
asg117
V[ -highTone ]
p6298
sbasg125
I00
sg117
V[  ] [ -highTone ]
p6299
sg127
I00
sg128
S'R'
sbsg139
(irule
FeatureMatrix
p6300
(dp6301
g115
(lp6302
sg117
V[  ]
p6303
sbsg117
V[  ] ---> [ +highTone ] / [ +highTone ] [  ] _ [  ] [ -highTone ]
p6304
sba(irule
Rule
p6305
(dp6306
g107
(irule
Guard
p6307
(dp6308
g110
I00
sg111
(lp6309
(irule
FeatureMatrix
p6310
(dp6311
g115
(lp6312
(I00
g3710
tp6313
asg117
V[ -highTone ]
p6314
sba(irule
FeatureMatrix
p6315
(dp6316
g115
(lp6317
(I01
g3710
tp6318
asg117
V[ +highTone ]
p6319
sbasg125
I00
sg117
V[ +highTone ] [ -highTone ]
p6320
sg127
I00
sg128
S'L'
sbsg129
(irule
FeatureMatrix
p6321
(dp6322
g115
(lp6323
(I01
g3710
tp6324
a(I00
g4084
tp6325
asg117
V[ +highTone -palletized ]
p6326
sbsg135
(irule
Guard
p6327
(dp6328
g110
I00
sg111
(lp6329
(irule
FeatureMatrix
p6330
(dp6331
g115
(lp6332
sg117
V[  ]
p6333
sbasg125
I00
sg117
g6333
sg127
I00
sg128
S'R'
sbsg139
(irule
FeatureMatrix
p6334
(dp6335
g115
(lp6336
sg117
V[  ]
p6337
sbsg117
V[  ] ---> [ +highTone -palletized ] / [ +highTone ] [ -highTone ] _ [  ]
p6338
sba(irule
Rule
p6339
(dp6340
g107
(irule
Guard
p6341
(dp6342
g110
I00
sg111
(lp6343
(irule
FeatureMatrix
p6344
(dp6345
g115
(lp6346
sg117
V[  ]
p6347
sba(irule
FeatureMatrix
p6348
(dp6349
g115
(lp6350
(I01
g3710
tp6351
asg117
V[ +highTone ]
p6352
sbasg125
I00
sg117
V[ +highTone ] [  ]
p6353
sg127
I00
sg128
S'L'
sbsg129
(irule
FeatureMatrix
p6354
(dp6355
g115
(lp6356
(I01
g3710
tp6357
asg117
V[ +highTone ]
p6358
sbsg135
(irule
Guard
p6359
(dp6360
g110
I00
sg111
(lp6361
(irule
FeatureMatrix
p6362
(dp6363
g115
(lp6364
(I00
g4030
tp6365
asg117
V[ -low ]
p6366
sbasg125
I00
sg117
g6366
sg127
I00
sg128
S'R'
sbsg139
(irule
FeatureMatrix
p6367
(dp6368
g115
(lp6369
(I01
g4884
tp6370
asg117
V[ +continuant ]
p6371
sbsg117
V[ +continuant ] ---> [ +highTone ] / [ +highTone ] [  ] _ [ -low ]
p6372
sba(irule
Rule
p6373
(dp6374
g107
(irule
Guard
p6375
(dp6376
g110
I00
sg111
(lp6377
(irule
FeatureMatrix
p6378
(dp6379
g115
(lp6380
(I00
g3710
tp6381
asg117
V[ -highTone ]
p6382
sba(irule
FeatureMatrix
p6383
(dp6384
g115
(lp6385
(I01
g3710
tp6386
asg117
V[ +highTone ]
p6387
sbasg125
I00
sg117
V[ +highTone ] [ -highTone ]
p6388
sg127
I00
sg128
S'L'
sbsg129
(irule
FeatureMatrix
p6389
(dp6390
g115
(lp6391
(I00
g4684
tp6392
a(I01
g3710
tp6393
asg117
V[ +highTone -nasal ]
p6394
sbsg135
(irule
Guard
p6395
(dp6396
g110
I00
sg111
(lp6397
(irule
FeatureMatrix
p6398
(dp6399
g115
(lp6400
sg117
V[  ]
p6401
sbasg125
I00
sg117
g6401
sg127
I00
sg128
S'R'
sbsg139
(irule
FeatureMatrix
p6402
(dp6403
g115
(lp6404
sg117
V[  ]
p6405
sbsg117
V[  ] ---> [ +highTone -nasal ] / [ +highTone ] [ -highTone ] _ [  ]
p6406
sba(irule
Rule
p6407
(dp6408
g107
(irule
Guard
p6409
(dp6410
g110
I00
sg111
(lp6411
(irule
FeatureMatrix
p6412
(dp6413
g115
(lp6414
sg117
V[  ]
p6415
sba(irule
FeatureMatrix
p6416
(dp6417
g115
(lp6418
(I01
g3710
tp6419
asg117
V[ +highTone ]
p6420
sbasg125
I00
sg117
V[ +highTone ] [  ]
p6421
sg127
I00
sg128
S'L'
sbsg129
(irule
FeatureMatrix
p6422
(dp6423
g115
(lp6424
(I00
g4684
tp6425
a(I01
g3710
tp6426
a(I00
g4084
tp6427
asg117
V[ +highTone -nasal -palletized ]
p6428
sbsg135
(irule
Guard
p6429
(dp6430
g110
I00
sg111
(lp6431
(irule
FeatureMatrix
p6432
(dp6433
g115
(lp6434
sg117
V[  ]
p6435
sbasg125
I00
sg117
g6435
sg127
I00
sg128
S'R'
sbsg139
(irule
FeatureMatrix
p6436
(dp6437
g115
(lp6438
sg117
V[  ]
p6439
sbsg117
V[  ] ---> [ +highTone -nasal -palletized ] / [ +highTone ] [  ] _ [  ]
p6440
sba(irule
Rule
p6441
(dp6442
g107
(irule
Guard
p6443
(dp6444
g110
I00
sg111
(lp6445
(irule
FeatureMatrix
p6446
(dp6447
g115
(lp6448
sg117
V[  ]
p6449
sba(irule
FeatureMatrix
p6450
(dp6451
g115
(lp6452
(I01
g3710
tp6453
asg117
V[ +highTone ]
p6454
sbasg125
I00
sg117
V[ +highTone ] [  ]
p6455
sg127
I00
sg128
S'L'
sbsg129
(irule
FeatureMatrix
p6456
(dp6457
g115
(lp6458
(I01
g3710
tp6459
asg117
V[ +highTone ]
p6460
sbsg135
(irule
Guard
p6461
(dp6462
g110
I00
sg111
(lp6463
(irule
FeatureMatrix
p6464
(dp6465
g115
(lp6466
sg117
V[  ]
p6467
sba(irule
FeatureMatrix
p6468
(dp6469
g115
(lp6470
sg117
V[  ]
p6471
sbasg125
I00
sg117
V[  ] [  ]
p6472
sg127
I00
sg128
S'R'
sbsg139
(irule
FeatureMatrix
p6473
(dp6474
g115
(lp6475
(I00
g4751
tp6476
asg117
V[ -liquid ]
p6477
sbsg117
V[ -liquid ] ---> [ +highTone ] / [ +highTone ] [  ] _ [  ] [  ]
p6478
sba(irule
Rule
p6479
(dp6480
g107
(irule
Guard
p6481
(dp6482
g110
I00
sg111
(lp6483
(irule
FeatureMatrix
p6484
(dp6485
g115
(lp6486
sg117
V[  ]
p6487
sba(irule
FeatureMatrix
p6488
(dp6489
g115
(lp6490
(I01
g3710
tp6491
a(I01
g3863
tp6492
asg117
V[ +highTone +vowel ]
p6493
sbasg125
I00
sg117
V[ +highTone +vowel ] [  ]
p6494
sg127
I00
sg128
S'L'
sbsg129
(irule
FeatureMatrix
p6495
(dp6496
g115
(lp6497
(I01
g3710
tp6498
asg117
V[ +highTone ]
p6499
sbsg135
(irule
Guard
p6500
(dp6501
g110
I00
sg111
(lp6502
(irule
FeatureMatrix
p6503
(dp6504
g115
(lp6505
sg117
V[  ]
p6506
sba(irule
FeatureMatrix
p6507
(dp6508
g115
(lp6509
sg117
V[  ]
p6510
sbasg125
I00
sg117
V[  ] [  ]
p6511
sg127
I00
sg128
S'R'
sbsg139
(irule
FeatureMatrix
p6512
(dp6513
g115
(lp6514
sg117
V[  ]
p6515
sbsg117
V[  ] ---> [ +highTone ] / [ +highTone +vowel ] [  ] _ [  ] [  ]
p6516
sba(irule
Rule
p6517
(dp6518
g107
(irule
Guard
p6519
(dp6520
g110
I00
sg111
(lp6521
(irule
FeatureMatrix
p6522
(dp6523
g115
(lp6524
sg117
V[  ]
p6525
sba(irule
FeatureMatrix
p6526
(dp6527
g115
(lp6528
(I01
g3710
tp6529
asg117
V[ +highTone ]
p6530
sbasg125
I00
sg117
V[ +highTone ] [  ]
p6531
sg127
I00
sg128
S'L'
sbsg129
(irule
FeatureMatrix
p6532
(dp6533
g115
(lp6534
(I01
g3710
tp6535
asg117
V[ +highTone ]
p6536
sbsg135
(irule
Guard
p6537
(dp6538
g110
I00
sg111
(lp6539
(irule
FeatureMatrix
p6540
(dp6541
g115
(lp6542
(I00
g4432
tp6543
asg117
V[ -rounded ]
p6544
sba(irule
FeatureMatrix
p6545
(dp6546
g115
(lp6547
sg117
V[  ]
p6548
sbasg125
I00
sg117
V[ -rounded ] [  ]
p6549
sg127
I00
sg128
S'R'
sbsg139
(irule
FeatureMatrix
p6550
(dp6551
g115
(lp6552
sg117
V[  ]
p6553
sbsg117
V[  ] ---> [ +highTone ] / [ +highTone ] [  ] _ [ -rounded ] [  ]
p6554
sba(irule
Rule
p6555
(dp6556
g107
(irule
Guard
p6557
(dp6558
g110
I00
sg111
(lp6559
(irule
FeatureMatrix
p6560
(dp6561
g115
(lp6562
sg117
V[  ]
p6563
sba(irule
FeatureMatrix
p6564
(dp6565
g115
(lp6566
(I01
g3710
tp6567
asg117
V[ +highTone ]
p6568
sbasg125
I00
sg117
V[ +highTone ] [  ]
p6569
sg127
I00
sg128
S'L'
sbsg129
(irule
FeatureMatrix
p6570
(dp6571
g115
(lp6572
(I01
g3710
tp6573
asg117
V[ +highTone ]
p6574
sbsg135
(irule
Guard
p6575
(dp6576
g110
I00
sg111
(lp6577
(irule
FeatureMatrix
p6578
(dp6579
g115
(lp6580
(I00
g4030
tp6581
a(I00
g3863
tp6582
asg117
V[ -low -vowel ]
p6583
sbasg125
I00
sg117
g6583
sg127
I00
sg128
S'R'
sbsg139
(irule
FeatureMatrix
p6584
(dp6585
g115
(lp6586
sg117
V[  ]
p6587
sbsg117
V[  ] ---> [ +highTone ] / [ +highTone ] [  ] _ [ -low -vowel ]
p6588
sba(irule
Rule
p6589
(dp6590
g107
(irule
Guard
p6591
(dp6592
g110
I00
sg111
(lp6593
(irule
FeatureMatrix
p6594
(dp6595
g115
(lp6596
sg117
V[  ]
p6597
sba(irule
FeatureMatrix
p6598
(dp6599
g115
(lp6600
(I01
g3710
tp6601
asg117
V[ +highTone ]
p6602
sbasg125
I00
sg117
V[ +highTone ] [  ]
p6603
sg127
I00
sg128
S'L'
sbsg129
(irule
FeatureMatrix
p6604
(dp6605
g115
(lp6606
(I01
g3710
tp6607
asg117
V[ +highTone ]
p6608
sbsg135
(irule
Guard
p6609
(dp6610
g110
I00
sg111
(lp6611
(irule
FeatureMatrix
p6612
(dp6613
g115
(lp6614
sg117
V[  ]
p6615
sba(irule
FeatureMatrix
p6616
(dp6617
g115
(lp6618
(I01
g3863
tp6619
asg117
V[ +vowel ]
p6620
sbasg125
I00
sg117
V[  ] [ +vowel ]
p6621
sg127
I00
sg128
S'R'
sbsg139
(irule
FeatureMatrix
p6622
(dp6623
g115
(lp6624
sg117
V[  ]
p6625
sbsg117
V[  ] ---> [ +highTone ] / [ +highTone ] [  ] _ [  ] [ +vowel ]
p6626
sba(irule
Rule
p6627
(dp6628
g107
(irule
Guard
p6629
(dp6630
g110
I00
sg111
(lp6631
(irule
FeatureMatrix
p6632
(dp6633
g115
(lp6634
sg117
V[  ]
p6635
sba(irule
FeatureMatrix
p6636
(dp6637
g115
(lp6638
(I01
g3710
tp6639
a(I01
g3863
tp6640
asg117
V[ +highTone +vowel ]
p6641
sbasg125
I00
sg117
V[ +highTone +vowel ] [  ]
p6642
sg127
I00
sg128
S'L'
sbsg129
(irule
FeatureMatrix
p6643
(dp6644
g115
(lp6645
(I01
g3710
tp6646
asg117
V[ +highTone ]
p6647
sbsg135
(irule
Guard
p6648
(dp6649
g110
I00
sg111
(lp6650
(irule
FeatureMatrix
p6651
(dp6652
g115
(lp6653
(I00
g3863
tp6654
asg117
V[ -vowel ]
p6655
sbasg125
I00
sg117
g6655
sg127
I00
sg128
S'R'
sbsg139
(irule
FeatureMatrix
p6656
(dp6657
g115
(lp6658
sg117
V[  ]
p6659
sbsg117
V[  ] ---> [ +highTone ] / [ +highTone +vowel ] [  ] _ [ -vowel ]
p6660
sba(irule
Rule
p6661
(dp6662
g107
(irule
Guard
p6663
(dp6664
g110
I00
sg111
(lp6665
(irule
FeatureMatrix
p6666
(dp6667
g115
(lp6668
(I00
g4180
tp6669
asg117
V[ -glide ]
p6670
sba(irule
FeatureMatrix
p6671
(dp6672
g115
(lp6673
(I01
g3710
tp6674
a(I01
g3863
tp6675
asg117
V[ +highTone +vowel ]
p6676
sbasg125
I00
sg117
V[ +highTone +vowel ] [ -glide ]
p6677
sg127
I00
sg128
S'L'
sbsg129
(irule
FeatureMatrix
p6678
(dp6679
g115
(lp6680
(I01
g3710
tp6681
asg117
V[ +highTone ]
p6682
sbsg135
(irule
Guard
p6683
(dp6684
g110
I00
sg111
(lp6685
(irule
FeatureMatrix
p6686
(dp6687
g115
(lp6688
sg117
V[  ]
p6689
sbasg125
I00
sg117
g6689
sg127
I00
sg128
S'R'
sbsg139
(irule
FeatureMatrix
p6690
(dp6691
g115
(lp6692
sg117
V[  ]
p6693
sbsg117
V[  ] ---> [ +highTone ] / [ +highTone +vowel ] [ -glide ] _ [  ]
p6694
sba(irule
Rule
p6695
(dp6696
g107
(irule
Guard
p6697
(dp6698
g110
I00
sg111
(lp6699
(irule
FeatureMatrix
p6700
(dp6701
g115
(lp6702
sg117
V[  ]
p6703
sba(irule
FeatureMatrix
p6704
(dp6705
g115
(lp6706
(I01
g3710
tp6707
asg117
V[ +highTone ]
p6708
sbasg125
I00
sg117
V[ +highTone ] [  ]
p6709
sg127
I00
sg128
S'L'
sbsg129
(irule
FeatureMatrix
p6710
(dp6711
g115
(lp6712
(I00
g4180
tp6713
a(I01
g3710
tp6714
asg117
V[ +highTone -glide ]
p6715
sbsg135
(irule
Guard
p6716
(dp6717
g110
I00
sg111
(lp6718
(irule
FeatureMatrix
p6719
(dp6720
g115
(lp6721
sg117
V[  ]
p6722
sba(irule
FeatureMatrix
p6723
(dp6724
g115
(lp6725
sg117
V[  ]
p6726
sbasg125
I00
sg117
V[  ] [  ]
p6727
sg127
I00
sg128
S'R'
sbsg139
(irule
FeatureMatrix
p6728
(dp6729
g115
(lp6730
sg117
V[  ]
p6731
sbsg117
V[  ] ---> [ +highTone -glide ] / [ +highTone ] [  ] _ [  ] [  ]
p6732
sba(irule
Rule
p6733
(dp6734
g107
(irule
Guard
p6735
(dp6736
g110
I00
sg111
(lp6737
(irule
FeatureMatrix
p6738
(dp6739
g115
(lp6740
sg117
V[  ]
p6741
sba(irule
FeatureMatrix
p6742
(dp6743
g115
(lp6744
(I01
g3710
tp6745
asg117
V[ +highTone ]
p6746
sbasg125
I00
sg117
V[ +highTone ] [  ]
p6747
sg127
I00
sg128
S'L'
sbsg129
(irule
FeatureMatrix
p6748
(dp6749
g115
(lp6750
(I01
g3710
tp6751
asg117
V[ +highTone ]
p6752
sbsg135
(irule
Guard
p6753
(dp6754
g110
I00
sg111
(lp6755
(irule
FeatureMatrix
p6756
(dp6757
g115
(lp6758
sg117
V[  ]
p6759
sba(irule
FeatureMatrix
p6760
(dp6761
g115
(lp6762
sg117
V[  ]
p6763
sbasg125
I00
sg117
V[  ]* [  ]
p6764
sg127
I01
sg128
S'R'
sbsg139
(irule
FeatureMatrix
p6765
(dp6766
g115
(lp6767
sg117
V[  ]
p6768
sbsg117
V[  ] ---> [ +highTone ] / [ +highTone ] [  ] _ [  ]* [  ]
p6769
sba(irule
Rule
p6770
(dp6771
g107
(irule
Guard
p6772
(dp6773
g110
I00
sg111
(lp6774
(irule
FeatureMatrix
p6775
(dp6776
g115
(lp6777
sg117
V[  ]
p6778
sba(irule
FeatureMatrix
p6779
(dp6780
g115
(lp6781
(I01
g3710
tp6782
asg117
V[ +highTone ]
p6783
sbasg125
I00
sg117
V[ +highTone ] [  ]
p6784
sg127
I00
sg128
S'L'
sbsg129
(irule
FeatureMatrix
p6785
(dp6786
g115
(lp6787
(I01
g3710
tp6788
asg117
V[ +highTone ]
p6789
sbsg135
(irule
Guard
p6790
(dp6791
g110
I00
sg111
(lp6792
(irule
FeatureMatrix
p6793
(dp6794
g115
(lp6795
sg117
V[  ]
p6796
sba(irule
FeatureMatrix
p6797
(dp6798
g115
(lp6799
(I00
g4751
tp6800
asg117
V[ -liquid ]
p6801
sbasg125
I00
sg117
V[  ] [ -liquid ]
p6802
sg127
I00
sg128
S'R'
sbsg139
(irule
FeatureMatrix
p6803
(dp6804
g115
(lp6805
sg117
V[  ]
p6806
sbsg117
V[  ] ---> [ +highTone ] / [ +highTone ] [  ] _ [  ] [ -liquid ]
p6807
sba(irule
Rule
p6808
(dp6809
g107
(irule
Guard
p6810
(dp6811
g110
I00
sg111
(lp6812
(irule
FeatureMatrix
p6813
(dp6814
g115
(lp6815
sg117
V[  ]
p6816
sba(irule
FeatureMatrix
p6817
(dp6818
g115
(lp6819
(I01
g3710
tp6820
asg117
V[ +highTone ]
p6821
sbasg125
I00
sg117
V[ +highTone ] [  ]
p6822
sg127
I00
sg128
S'L'
sbsg129
(irule
FeatureMatrix
p6823
(dp6824
g115
(lp6825
(I01
g3710
tp6826
asg117
V[ +highTone ]
p6827
sbsg135
(irule
Guard
p6828
(dp6829
g110
I00
sg111
(lp6830
(irule
FeatureMatrix
p6831
(dp6832
g115
(lp6833
sg117
V[  ]
p6834
sba(irule
FeatureMatrix
p6835
(dp6836
g115
(lp6837
(I00
g4124
tp6838
asg117
V[ -sibilant ]
p6839
sbasg125
I00
sg117
V[  ] [ -sibilant ]
p6840
sg127
I00
sg128
S'R'
sbsg139
(irule
FeatureMatrix
p6841
(dp6842
g115
(lp6843
sg117
V[  ]
p6844
sbsg117
V[  ] ---> [ +highTone ] / [ +highTone ] [  ] _ [  ] [ -sibilant ]
p6845
sba(irule
Rule
p6846
(dp6847
g107
(irule
Guard
p6848
(dp6849
g110
I00
sg111
(lp6850
(irule
FeatureMatrix
p6851
(dp6852
g115
(lp6853
sg117
V[  ]
p6854
sba(irule
FeatureMatrix
p6855
(dp6856
g115
(lp6857
(I01
g3710
tp6858
asg117
V[ +highTone ]
p6859
sbasg125
I00
sg117
V[ +highTone ] [  ]
p6860
sg127
I00
sg128
S'L'
sbsg129
(irule
FeatureMatrix
p6861
(dp6862
g115
(lp6863
(I00
g4180
tp6864
a(I00
g4751
tp6865
a(I01
g3710
tp6866
asg117
V[ +highTone -glide -liquid ]
p6867
sbsg135
(irule
Guard
p6868
(dp6869
g110
I00
sg111
(lp6870
(irule
FeatureMatrix
p6871
(dp6872
g115
(lp6873
sg117
V[  ]
p6874
sbasg125
I00
sg117
g6874
sg127
I00
sg128
S'R'
sbsg139
(irule
FeatureMatrix
p6875
(dp6876
g115
(lp6877
sg117
V[  ]
p6878
sbsg117
V[  ] ---> [ +highTone -glide -liquid ] / [ +highTone ] [  ] _ [  ]
p6879
sba(irule
Rule
p6880
(dp6881
g107
(irule
Guard
p6882
(dp6883
g110
I00
sg111
(lp6884
(irule
FeatureMatrix
p6885
(dp6886
g115
(lp6887
(I00
g3710
tp6888
asg117
V[ -highTone ]
p6889
sba(irule
FeatureMatrix
p6890
(dp6891
g115
(lp6892
(I01
g3710
tp6893
asg117
V[ +highTone ]
p6894
sbasg125
I00
sg117
V[ +highTone ] [ -highTone ]
p6895
sg127
I00
sg128
S'L'
sbsg129
(irule
FeatureMatrix
p6896
(dp6897
g115
(lp6898
(I01
g3710
tp6899
asg117
V[ +highTone ]
p6900
sbsg135
(irule
Guard
p6901
(dp6902
g110
I00
sg111
(lp6903
(irule
FeatureMatrix
p6904
(dp6905
g115
(lp6906
(I00
g3863
tp6907
asg117
V[ -vowel ]
p6908
sbasg125
I00
sg117
g6908
sg127
I00
sg128
S'R'
sbsg139
(irule
FeatureMatrix
p6909
(dp6910
g115
(lp6911
sg117
V[  ]
p6912
sbsg117
V[  ] ---> [ +highTone ] / [ +highTone ] [ -highTone ] _ [ -vowel ]
p6913
sba(irule
Rule
p6914
(dp6915
g107
(irule
Guard
p6916
(dp6917
g110
I00
sg111
(lp6918
(irule
FeatureMatrix
p6919
(dp6920
g115
(lp6921
sg117
V[  ]
p6922
sba(irule
FeatureMatrix
p6923
(dp6924
g115
(lp6925
(I01
g3710
tp6926
asg117
V[ +highTone ]
p6927
sbasg125
I00
sg117
V[ +highTone ] [  ]
p6928
sg127
I00
sg128
S'L'
sbsg129
(irule
FeatureMatrix
p6929
(dp6930
g115
(lp6931
(I01
g3710
tp6932
asg117
V[ +highTone ]
p6933
sbsg135
(irule
Guard
p6934
(dp6935
g110
I00
sg111
(lp6936
(irule
FeatureMatrix
p6937
(dp6938
g115
(lp6939
sg117
V[  ]
p6940
sba(irule
FeatureMatrix
p6941
(dp6942
g115
(lp6943
(I01
g4884
tp6944
asg117
V[ +continuant ]
p6945
sbasg125
I00
sg117
V[  ] [ +continuant ]
p6946
sg127
I00
sg128
S'R'
sbsg139
(irule
FeatureMatrix
p6947
(dp6948
g115
(lp6949
sg117
V[  ]
p6950
sbsg117
V[  ] ---> [ +highTone ] / [ +highTone ] [  ] _ [  ] [ +continuant ]
p6951
sba(irule
Rule
p6952
(dp6953
g107
(irule
Guard
p6954
(dp6955
g110
I00
sg111
(lp6956
(irule
FeatureMatrix
p6957
(dp6958
g115
(lp6959
(I00
g3710
tp6960
asg117
V[ -highTone ]
p6961
sba(irule
FeatureMatrix
p6962
(dp6963
g115
(lp6964
(I01
g3710
tp6965
asg117
V[ +highTone ]
p6966
sbasg125
I00
sg117
V[ +highTone ] [ -highTone ]
p6967
sg127
I00
sg128
S'L'
sbsg129
(irule
FeatureMatrix
p6968
(dp6969
g115
(lp6970
(I01
g3710
tp6971
asg117
V[ +highTone ]
p6972
sbsg135
(irule
Guard
p6973
(dp6974
g110
I00
sg111
(lp6975
(irule
FeatureMatrix
p6976
(dp6977
g115
(lp6978
sg117
V[  ]
p6979
sba(irule
FeatureMatrix
p6980
(dp6981
g115
(lp6982
sg117
V[  ]
p6983
sbasg125
I00
sg117
V[  ] [  ]
p6984
sg127
I00
sg128
S'R'
sbsg139
(irule
FeatureMatrix
p6985
(dp6986
g115
(lp6987
sg117
V[  ]
p6988
sbsg117
V[  ] ---> [ +highTone ] / [ +highTone ] [ -highTone ] _ [  ] [  ]
p6989
sba(irule
Rule
p6990
(dp6991
g107
(irule
Guard
p6992
(dp6993
g110
I00
sg111
(lp6994
(irule
FeatureMatrix
p6995
(dp6996
g115
(lp6997
sg117
V[  ]
p6998
sba(irule
FeatureMatrix
p6999
(dp7000
g115
(lp7001
(I01
g3710
tp7002
a(I01
g3789
tp7003
asg117
V[ +highTone +voice ]
p7004
sbasg125
I00
sg117
V[ +highTone +voice ] [  ]
p7005
sg127
I00
sg128
S'L'
sbsg129
(irule
FeatureMatrix
p7006
(dp7007
g115
(lp7008
(I01
g3710
tp7009
asg117
V[ +highTone ]
p7010
sbsg135
(irule
Guard
p7011
(dp7012
g110
I00
sg111
(lp7013
(irule
FeatureMatrix
p7014
(dp7015
g115
(lp7016
sg117
V[  ]
p7017
sba(irule
FeatureMatrix
p7018
(dp7019
g115
(lp7020
sg117
V[  ]
p7021
sbasg125
I00
sg117
V[  ] [  ]
p7022
sg127
I00
sg128
S'R'
sbsg139
(irule
FeatureMatrix
p7023
(dp7024
g115
(lp7025
sg117
V[  ]
p7026
sbsg117
V[  ] ---> [ +highTone ] / [ +highTone +voice ] [  ] _ [  ] [  ]
p7027
sba(irule
Rule
p7028
(dp7029
g107
(irule
Guard
p7030
(dp7031
g110
I00
sg111
(lp7032
(irule
FeatureMatrix
p7033
(dp7034
g115
(lp7035
sg117
V[  ]
p7036
sba(irule
FeatureMatrix
p7037
(dp7038
g115
(lp7039
(I01
g3710
tp7040
asg117
V[ +highTone ]
p7041
sbasg125
I00
sg117
V[ +highTone ] [  ]
p7042
sg127
I00
sg128
S'L'
sbsg129
(irule
FeatureMatrix
p7043
(dp7044
g115
(lp7045
(I01
g3710
tp7046
asg117
V[ +highTone ]
p7047
sbsg135
(irule
Guard
p7048
(dp7049
g110
I00
sg111
(lp7050
(irule
FeatureMatrix
p7051
(dp7052
g115
(lp7053
sg117
V[  ]
p7054
sba(irule
FeatureMatrix
p7055
(dp7056
g115
(lp7057
(I00
g4518
tp7058
asg117
V[ -lateral ]
p7059
sbasg125
I00
sg117
V[  ] [ -lateral ]
p7060
sg127
I00
sg128
S'R'
sbsg139
(irule
FeatureMatrix
p7061
(dp7062
g115
(lp7063
sg117
V[  ]
p7064
sbsg117
V[  ] ---> [ +highTone ] / [ +highTone ] [  ] _ [  ] [ -lateral ]
p7065
sba(irule
Rule
p7066
(dp7067
g107
(irule
Guard
p7068
(dp7069
g110
I00
sg111
(lp7070
(irule
FeatureMatrix
p7071
(dp7072
g115
(lp7073
sg117
V[  ]
p7074
sba(irule
FeatureMatrix
p7075
(dp7076
g115
(lp7077
(I01
g3710
tp7078
asg117
V[ +highTone ]
p7079
sbasg125
I00
sg117
V[ +highTone ] [  ]
p7080
sg127
I00
sg128
S'L'
sbsg129
(irule
FeatureMatrix
p7081
(dp7082
g115
(lp7083
(I01
g3710
tp7084
a(I01
g3789
tp7085
asg117
V[ +highTone +voice ]
p7086
sbsg135
(irule
Guard
p7087
(dp7088
g110
I00
sg111
(lp7089
(irule
FeatureMatrix
p7090
(dp7091
g115
(lp7092
sg117
V[  ]
p7093
sbasg125
I00
sg117
g7093
sg127
I00
sg128
S'R'
sbsg139
(irule
FeatureMatrix
p7094
(dp7095
g115
(lp7096
(I01
g3863
tp7097
asg117
V[ +vowel ]
p7098
sbsg117
V[ +vowel ] ---> [ +highTone +voice ] / [ +highTone ] [  ] _ [  ]
p7099
sba(irule
Rule
p7100
(dp7101
g107
(irule
Guard
p7102
(dp7103
g110
I00
sg111
(lp7104
(irule
FeatureMatrix
p7105
(dp7106
g115
(lp7107
(I00
g3710
tp7108
a(I00
g4030
tp7109
asg117
V[ -highTone -low ]
p7110
sba(irule
FeatureMatrix
p7111
(dp7112
g115
(lp7113
(I01
g3710
tp7114
asg117
V[ +highTone ]
p7115
sbasg125
I00
sg117
V[ +highTone ] [ -highTone -low ]
p7116
sg127
I00
sg128
S'L'
sbsg129
(irule
FeatureMatrix
p7117
(dp7118
g115
(lp7119
(I01
g3710
tp7120
asg117
V[ +highTone ]
p7121
sbsg135
(irule
Guard
p7122
(dp7123
g110
I00
sg111
(lp7124
(irule
FeatureMatrix
p7125
(dp7126
g115
(lp7127
sg117
V[  ]
p7128
sbasg125
I00
sg117
g7128
sg127
I00
sg128
S'R'
sbsg139
(irule
FeatureMatrix
p7129
(dp7130
g115
(lp7131
sg117
V[  ]
p7132
sbsg117
V[  ] ---> [ +highTone ] / [ +highTone ] [ -highTone -low ] _ [  ]
p7133
sbaasbsS'parameters'
p7134
g8
(cargparse
Namespace
p7135
g10
NtRp7136
(dp7137
S'dummy'
p7138
I00
sS'task'
p7139
S'incremental'
p7140
sS'features'
p7141
S'sophisticated'
p7142
sS'resume'
p7143
I00
sS'geometry'
p7144
I01
sS'top'
p7145
I1
sS'disableClean'
p7146
I00
sS'universal'
p7147
NsS'restrict'
p7148
NsS'window'
p7149
NsS'seed'
p7150
S'0'
sS'restore'
p7151
NsS'serial'
p7152
I00
sS'timeout'
p7153
F24
sS'debug'
p7154
NsS'cores'
p7155
I40
sg4
S'Odden_3.1_Kerewe'
p7156
sS'save'
p7157
NsS'verbosity'
p7158
I0
sS'alignment'
p7159
I00
sS'samples'
p7160
I30
sbsb.