(iresult
Result
p1
(dp2
S'startTime'
p3
F1565820414.1216919
sS'solutionSequence'
p4
(lp5
(ccopy_reg
_reconstructor
p6
(csolution
Solution
p7
c__builtin__
object
p8
NtRp9
(dp10
S'rules'
p11
(lp12
(irule
Rule
p13
(dp14
S'leftTriggers'
p15
(irule
Guard
p16
(dp17
S'endOfString'
p18
I00
sS'specifications'
p19
(lp20
sS'optionalEnding'
p21
I00
sS'representation'
p22
V
sS'starred'
p23
I00
sS'side'
p24
S'L'
sbsS'structuralChange'
p25
(irule
FeatureMatrix
p26
(dp27
S'featuresAndPolarities'
p28
(lp29
sg22
V[  ]
p30
sbsS'rightTriggers'
p31
(irule
Guard
p32
(dp33
g18
I00
sg19
(lp34
sg21
I00
sg22
V
sg23
I00
sg24
S'R'
sbsS'focus'
p35
(irule
FeatureMatrix
p36
(dp37
g28
(lp38
sg22
V[  ]
p39
sbsg22
V[  ] ---> [  ] /  _ 
p40
sbasS'prefixes'
p41
(lp42
(imorph
Morph
p43
(dp44
S'phonemes'
p45
(lp46
Vk
aVu
asba(imorph
Morph
p47
(dp48
g45
(lp49
Vm
asba(imorph
Morph
p50
(dp51
g45
(lp52
Va
asba(imorph
Morph
p53
(dp54
g45
(lp55
sbasS'underlyingForms'
p56
(dp57
((imorph
Morph
p58
(dp59
g45
(lp60
Vk
aVu
aVp
aVa
aVa
aV\u014b
aVg
aVa
asb(imorph
Morph
p61
(dp62
g45
(lp63
Vm
aVp
aVa
aVa
aV\u014b
aVg
aVa
asb(imorph
Morph
p64
(dp65
g45
(lp66
Va
aVp
aVa
aVa
aV\u014b
aVg
aVa
asb(imorph
Morph
p67
(dp68
g45
(lp69
Vp
aVa
aVa
aV\u014b
aVg
aVa
asbtp70
(imorph
Morph
p71
(dp72
g45
(lp73
Vp
aVa
aVa
aV\u014b
aVg
aVa
asbs((imorph
Morph
p74
(dp75
g45
(lp76
Vk
aVu
aVp
aVa
aVa
aVm
aVb
aVa
asb(imorph
Morph
p77
(dp78
g45
(lp79
Vm
aVp
aVa
aVa
aVm
aVb
aVa
asb(imorph
Morph
p80
(dp81
g45
(lp82
Va
aVp
aVa
aVa
aVm
aVb
aVa
asb(imorph
Morph
p83
(dp84
g45
(lp85
Vp
aVa
aVa
aVm
aVb
aVa
asbtp86
(imorph
Morph
p87
(dp88
g45
(lp89
Vp
aVa
aVa
aVm
aVb
aVa
asbssS'suffixes'
p90
(lp91
(imorph
Morph
p92
(dp93
g45
(lp94
sba(imorph
Morph
p95
(dp96
g45
(lp97
sba(imorph
Morph
p98
(dp99
g45
(lp100
sba(imorph
Morph
p101
(dp102
g45
(lp103
sbasbF67.578161001205444
tp104
a(g6
(g7
g8
NtRp105
(dp106
g11
(lp107
(irule
Rule
p108
(dp109
g15
(irule
Guard
p110
(dp111
g18
I00
sg19
(lp112
sg21
I00
sg22
V
sg23
I00
sg24
S'L'
sbsg25
(irule
OffsetSpecification
p113
(dp114
S'offset'
p115
I1
sbsg31
(irule
Guard
p116
(dp117
g18
I00
sg19
(lp118
(irule
FeatureMatrix
p119
(dp120
g28
(lp121
(I00
S'high'
p122
tp123
asg22
V[ -high ]
p124
sbasg21
I00
sg22
g124
sg23
I00
sg24
S'R'
sbsg35
(irule
FeatureMatrix
p125
(dp126
g28
(lp127
(I00
S'voice'
p128
tp129
asg22
V[ -voice ]
p130
sbsg22
V[ -voice ] ---> 1 /  _ [ -high ]
p131
sbasg41
(lp132
(imorph
Morph
p133
(dp134
g45
(lp135
Vk
aVu
aVh
asba(imorph
Morph
p136
(dp137
g45
(lp138
Vm
aVp
asba(imorph
Morph
p139
(dp140
g45
(lp141
Va
aVh
asba(imorph
Morph
p142
(dp143
g45
(lp144
Vh
asbasg56
(dp145
(g58
g61
g64
g67
tp146
(imorph
Morph
p147
(dp148
g45
(lp149
Vp
aVa
aV\u014b
aVg
aVa
asbs(g74
g77
g80
g83
tp150
(imorph
Morph
p151
(dp152
g45
(lp153
Vp
aVa
aVm
aVb
aVa
asbs((imorph
Morph
p154
(dp155
g45
(lp156
Vk
aVu
aVh
aVi
aVi
aVg
aVa
asb(imorph
Morph
p157
(dp158
g45
(lp159
Vm
aVp
aVi
aVi
aVg
aVa
asb(imorph
Morph
p160
(dp161
g45
(lp162
Va
aVh
aVi
aVi
aVg
aVa
asb(imorph
Morph
p163
(dp164
g45
(lp165
Vh
aVi
aVi
aVg
aVa
asbtp166
(imorph
Morph
p167
(dp168
g45
(lp169
Vi
aVi
aVg
aVa
asbssg90
(lp170
(imorph
Morph
p171
(dp172
g45
(lp173
sba(imorph
Morph
p174
(dp175
g45
(lp176
sba(imorph
Morph
p177
(dp178
g45
(lp179
sba(imorph
Morph
p180
(dp181
g45
(lp182
sbasbF896.98312401771545
tp183
a(g6
(g7
g8
NtRp184
(dp185
g11
(lp186
(irule
Rule
p187
(dp188
g15
(irule
Guard
p189
(dp190
g18
I00
sg19
(lp191
(irule
ConstantPhoneme
p192
(dp193
S'p'
Vm
sbasg21
I00
sg22
Vm
sg23
I00
sg24
S'L'
sbsg25
(irule
ConstantPhoneme
p194
(dp195
S'p'
Vp
sbsg31
(irule
Guard
p196
(dp197
g18
I00
sg19
(lp198
sg21
I00
sg22
V
sg23
I00
sg24
S'R'
sbsg35
(irule
FeatureMatrix
p199
(dp200
g28
(lp201
(I00
g128
tp202
asg22
V[ -voice ]
p203
sbsg22
V[ -voice ] ---> p / m _ 
p204
sbasg41
(lp205
(imorph
Morph
p206
(dp207
g45
(lp208
Vk
aVu
asba(imorph
Morph
p209
(dp210
g45
(lp211
Vm
asba(imorph
Morph
p212
(dp213
g45
(lp214
Va
asba(imorph
Morph
p215
(dp216
g45
(lp217
sbasg56
(dp218
((imorph
Morph
p219
(dp220
g45
(lp221
Vk
aVu
aVp
aVi
aVm
aVa
asb(imorph
Morph
p222
(dp223
g45
(lp224
Vm
aVp
aVi
aVm
aVa
asb(imorph
Morph
p225
(dp226
g45
(lp227
Va
aVp
aVi
aVm
aVa
asb(imorph
Morph
p228
(dp229
g45
(lp230
Vp
aVi
aVm
aVa
asbtp231
(imorph
Morph
p232
(dp233
g45
(lp234
Vp
aVi
aVm
aVa
asbs(g74
g77
g80
g83
tp235
(imorph
Morph
p236
(dp237
g45
(lp238
Vp
aVa
aVa
aVm
aVb
aVa
asbs((imorph
Morph
(dp239
g45
(lp240
Vk
aVu
aVh
aVu
aVu
aVh
aVa
asb(imorph
Morph
(dp241
g45
(lp242
Vm
aVp
aVu
aVu
aVh
aVa
asb(imorph
Morph
(dp243
g45
(lp244
Va
aVh
aVu
aVu
aVh
aVa
asb(imorph
Morph
(dp245
g45
(lp246
Vh
aVu
aVu
aVh
aVa
asbtp247
(imorph
Morph
p248
(dp249
g45
(lp250
Vh
aVu
aVu
aVh
aVa
asbs((imorph
Morph
(dp251
g45
(lp252
Vk
aVu
aVp
aVi
aVi
aVn
aVd
aVa
asb(imorph
Morph
(dp253
g45
(lp254
Vm
aVp
aVi
aVi
aVn
aVd
aVa
asb(imorph
Morph
(dp255
g45
(lp256
Va
aVp
aVi
aVi
aVn
aVd
aVa
asb(imorph
Morph
(dp257
g45
(lp258
Vp
aVi
aVi
aVn
aVd
aVa
asbtp259
(imorph
Morph
p260
(dp261
g45
(lp262
Vp
aVi
aVi
aVn
aVd
aVa
asbs(g58
g61
g64
g67
tp263
(imorph
Morph
p264
(dp265
g45
(lp266
Vp
aVa
aVa
aV\u014b
aVg
aVa
asbs((imorph
Morph
(dp267
g45
(lp268
Vk
aVu
aVh
aVe
aVe
aVb
aVa
asb(imorph
Morph
(dp269
g45
(lp270
Vm
aVp
aVe
aVe
aVb
aVa
asb(imorph
Morph
(dp271
g45
(lp272
Va
aVh
aVe
aVe
aVb
aVa
asb(imorph
Morph
(dp273
g45
(lp274
Vh
aVe
aVe
aVb
aVa
asbtp275
(imorph
Morph
p276
(dp277
g45
(lp278
Vh
aVe
aVe
aVb
aVa
asbs((imorph
Morph
(dp279
g45
(lp280
Vk
aVu
aVh
aVa
aVa
aV\u014b
aVg
aVa
asb(imorph
Morph
(dp281
g45
(lp282
Vm
aVp
aVa
aVa
aV\u014b
aVg
aVa
asb(imorph
Morph
(dp283
g45
(lp284
Va
aVh
aVa
aVa
aV\u014b
aVg
aVa
asb(imorph
Morph
(dp285
g45
(lp286
Vh
aVa
aVa
aV\u014b
aVg
aVa
asbtp287
(imorph
Morph
p288
(dp289
g45
(lp290
Vh
aVa
aVa
aV\u014b
aVg
aVa
asbs((imorph
Morph
(dp291
g45
(lp292
Vk
aVu
aVp
aVe
aVk
aVe
aVc\u030c
p293
aVa
asb(imorph
Morph
(dp294
g45
(lp295
Vm
aVp
aVe
aVk
aVe
aVc\u030c
p296
aVa
asb(imorph
Morph
(dp297
g45
(lp298
Va
aVp
aVe
aVk
aVe
aVc\u030c
p299
aVa
asb(imorph
Morph
(dp300
g45
(lp301
Vp
aVe
aVk
aVe
aVc\u030c
p302
aVa
asbtp303
(imorph
Morph
p304
(dp305
g45
(lp306
Vp
aVe
aVk
aVe
aVc\u030c
p307
aVa
asbs((imorph
Morph
(dp308
g45
(lp309
Vk
aVu
aVp
aVu
aVu
aVp
aVa
asb(imorph
Morph
(dp310
g45
(lp311
Vm
aVp
aVu
aVu
aVp
aVa
asb(imorph
Morph
(dp312
g45
(lp313
Va
aVp
aVu
aVu
aVp
aVa
asb(imorph
Morph
(dp314
g45
(lp315
Vp
aVu
aVu
aVp
aVa
asbtp316
(imorph
Morph
p317
(dp318
g45
(lp319
Vp
aVu
aVu
aVp
aVa
asbs(g154
g157
g160
g163
tp320
(imorph
Morph
p321
(dp322
g45
(lp323
Vh
aVi
aVi
aVg
aVa
asbs((imorph
Morph
(dp324
g45
(lp325
Vk
aVu
aVh
aVe
aVe
aVk
aVa
asb(imorph
Morph
(dp326
g45
(lp327
Vm
aVp
aVe
aVe
aVk
aVa
asb(imorph
Morph
(dp328
g45
(lp329
Va
aVh
aVe
aVe
aVk
aVa
asb(imorph
Morph
(dp330
g45
(lp331
Vh
aVe
aVe
aVk
aVa
asbtp332
(imorph
Morph
p333
(dp334
g45
(lp335
Vh
aVe
aVe
aVk
aVa
asbs((imorph
Morph
(dp336
g45
(lp337
Vk
aVu
aVh
aVi
aVi
aVm
aVa
asb(imorph
Morph
(dp338
g45
(lp339
Vm
aVp
aVi
aVi
aVm
aVa
asb(imorph
Morph
(dp340
g45
(lp341
Va
aVh
aVi
aVi
aVm
aVa
asb(imorph
Morph
(dp342
g45
(lp343
Vh
aVi
aVi
aVm
aVa
asbtp344
(imorph
Morph
p345
(dp346
g45
(lp347
Vh
aVi
aVi
aVm
aVa
asbssg90
(lp348
(imorph
Morph
p349
(dp350
g45
(lp351
sba(imorph
Morph
p352
(dp353
g45
(lp354
sba(imorph
Morph
p355
(dp356
g45
(lp357
sba(imorph
Morph
p358
(dp359
g45
(lp360
sbasbF1977.8075881004333
tp361
asS'problem'
p362
S'Odden_76_77_Kerewe'
p363
sS'finalFrontier'
p364
g6
(csolution
Frontier
p365
g8
NtRp366
(dp367
g41
g205
sg90
g348
sg56
g218
sS'frontiers'
p368
(lp369
(lp370
g187
aasbsS'parameters'
p371
g6
(cargparse
Namespace
p372
g8
NtRp373
(dp374
S'restore'
p375
NsS'features'
p376
S'simple'
p377
sS'universal'
p378
NsS'restrict'
p379
NsS'seed'
p380
S'0'
sS'serial'
p381
I00
sS'alignment'
p382
I00
sS'top'
p383
I1
sS'maximumDepth'
p384
I3
sS'window'
p385
NsS'minimizeBits'
p386
I5
sS'samples'
p387
I30
sS'save'
p388
NsS'resume'
p389
I00
sS'disableClean'
p390
I00
sS'stemBaseline'
p391
I30
sS'dummy'
p392
I00
sS'task'
p393
S'CEGIS'
p394
sS'geometry'
p395
NsS'verbosity'
p396
I0
sS'timeout'
p397
F24
sS'debug'
p398
NsS'cores'
p399
I40
sg362
S'Odden_76_77_Kerewe'
p400
sS'mergeFrontiers'
p401
I00
sbsb.