(iresult
Result
p1
(dp2
S'startTime'
p3
F1565820444.1990831
sS'solutionSequence'
p4
(lp5
(ccopy_reg
_reconstructor
p6
(csolution
Solution
p7
c__builtin__
object
p8
NtRp9
(dp10
S'rules'
p11
(lp12
(irule
Rule
p13
(dp14
S'leftTriggers'
p15
(irule
Guard
p16
(dp17
S'endOfString'
p18
I00
sS'specifications'
p19
(lp20
sS'optionalEnding'
p21
I00
sS'representation'
p22
V
sS'starred'
p23
I00
sS'side'
p24
S'L'
sbsS'structuralChange'
p25
(irule
ConstantPhoneme
p26
(dp27
S'p'
V\u0259
sbsS'rightTriggers'
p28
(irule
Guard
p29
(dp30
g18
I01
sg19
(lp31
(irule
FeatureMatrix
p32
(dp33
S'featuresAndPolarities'
p34
(lp35
(I00
S'lateral'
p36
tp37
asg22
V[ -lateral ]
p38
sbasg21
I00
sg22
V[ -lateral ] #
p39
sg23
I00
sg24
S'R'
sbsS'focus'
p40
(irule
FeatureMatrix
p41
(dp42
g34
(lp43
sg22
V[  ]
p44
sbsg22
V[  ] ---> \u0259 /  _ [ -lateral ] #
p45
sba(irule
Rule
p46
(dp47
g15
(irule
Guard
p48
(dp49
g18
I00
sg19
(lp50
sg21
I00
sg22
V
sg23
I00
sg24
S'L'
sbsg25
(irule
ConstantPhoneme
p51
(dp52
S'p'
V\u0259
sbsg28
(irule
Guard
p53
(dp54
g18
I00
sg19
(lp55
(irule
FeatureMatrix
p56
(dp57
g34
(lp58
sg22
V[  ]
p59
sba(irule
FeatureMatrix
p60
(dp61
g34
(lp62
(I01
S'highTone'
p63
tp64
asg22
V[ +highTone ]
p65
sbasg21
I00
sg22
V[  ] [ +highTone ]
p66
sg23
I00
sg24
S'R'
sbsg40
(irule
FeatureMatrix
p67
(dp68
g34
(lp69
sg22
V[  ]
p70
sbsg22
V[  ] ---> \u0259 /  _ [  ] [ +highTone ]
p71
sbasS'prefixes'
p72
(lp73
(imorph
Morph
p74
(dp75
S'phonemes'
p76
(lp77
Vm
aV\u0259
asba(imorph
Morph
p78
(dp79
g76
(lp80
sba(imorph
Morph
p81
(dp82
g76
(lp83
sbasS'underlyingForms'
p84
(dp85
((imorph
Morph
(dp86
g76
(lp87
Vm
aV\u0259
aV\u0294
aVa\u0301
p88
aVr
aV\u0259
aVm
asb(imorph
Morph
(dp89
g76
(lp90
V\u0294
aV\u0259
aVr
aV\u0259
aVm
aVa\u0301
p91
aVl
aVl
asb(imorph
Morph
(dp92
g76
(lp93
V\u0294
aV\u0259
aVr
aVo\u0301
p94
aVm
aVl
asbtp95
(imorph
Morph
p96
(dp97
g76
(lp98
V\u0294
aVa\u0301
p99
aVr
aVo\u0301
p100
aVm
asbs((imorph
Morph
(dp101
g76
(lp102
Vm
aV\u0259
aVs
aVe\u0301
p103
aVs
aV\u0259
aVb
asb(imorph
Morph
(dp104
g76
(lp105
Vs
aV\u0259
aVs
aV\u0259
aVb
aVa\u0301
p106
aVl
aVl
asb(imorph
Morph
(dp107
g76
(lp108
Vs
aV\u0259
aVs
aVo\u0301
p109
aVb
aVl
asbtp110
(imorph
Morph
p111
(dp112
g76
(lp113
Vs
aVe\u0301
p114
aVs
ag100
aVb
asbs((imorph
Morph
(dp115
g76
(lp116
Vm
aV\u0259
aVt
aVa\u0301
p117
aVb
aV\u0259
aVk
asb(imorph
Morph
(dp118
g76
(lp119
Vt
aV\u0259
aVb
aV\u0259
aVk
aVa\u0301
p120
aVl
aVl
asb(imorph
Morph
(dp121
g76
(lp122
Vt
aV\u0259
aVb
aVa\u0301
p123
aVk
aVl
asbtp124
(imorph
Morph
p125
(dp126
g76
(lp127
Vt
ag99
aVb
ag99
aVk
asbs((imorph
Morph
p128
(dp129
g76
(lp130
Vm
aV\u0259
aVd
aVa\u0301
p131
aV\u014b
aV\u0259
aVb
asb(imorph
Morph
p132
(dp133
g76
(lp134
Vd
aV\u0259
aV\u014b
aV\u0259
aVb
aVa\u0301
p135
aVl
aVl
asb(imorph
Morph
p136
(dp137
g76
(lp138
Vd
aV\u0259
aV\u014b
aVo\u0301
p139
aVb
aVl
asbtp140
(imorph
Morph
p141
(dp142
g76
(lp143
Vd
ag99
aV\u014b
ag100
aVb
asbs((imorph
Morph
p144
(dp145
g76
(lp146
Vm
aV\u0259
aVt
aVe\u0301
p147
aV\u0294
aV\u0259
aVb
asb(imorph
Morph
p148
(dp149
g76
(lp150
Vt
aV\u0259
aV\u0294
aV\u0259
aVb
aVa\u0301
p151
aVl
aVl
asb(imorph
Morph
p152
(dp153
g76
(lp154
Vt
aV\u0259
aV\u0294
aVi\u0301
p155
aVb
aVl
asbtp156
(imorph
Morph
p157
(dp158
g76
(lp159
Vt
ag114
aV\u0294
aVi\u0301
p160
aVb
asbs((imorph
Morph
p161
(dp162
g76
(lp163
Vm
aV\u0259
aV\u014b
aVe\u0301
p164
aVt
aV\u0259
aVm
asb(imorph
Morph
p165
(dp166
g76
(lp167
V\u014b
aV\u0259
aVt
aV\u0259
aVm
aVa\u0301
p168
aVl
aVl
asb(imorph
Morph
p169
(dp170
g76
(lp171
V\u014b
aV\u0259
aVt
aVo\u0301
p172
aVm
aVl
asbtp173
(imorph
Morph
p174
(dp175
g76
(lp176
V\u014b
ag114
aVt
ag100
aVm
asbssS'suffixes'
p177
(lp178
(imorph
Morph
p179
(dp180
g76
(lp181
sba(imorph
Morph
p182
(dp183
g76
(lp184
g99
aVl
aVl
asba(imorph
Morph
p185
(dp186
g76
(lp187
Vl
asbasbF1370.411435842514
tp188
asS'problem'
p189
S'Odden_88_Palauan'
p190
sS'finalFrontier'
p191
g6
(csolution
Frontier
p192
g8
NtRp193
(dp194
g72
g73
sg177
g178
sg84
g85
sS'frontiers'
p195
(lp196
(lp197
g13
aa(lp198
g46
aasbsS'parameters'
p199
g6
(cargparse
Namespace
p200
g8
NtRp201
(dp202
S'restore'
p203
NsS'features'
p204
S'simple'
p205
sS'universal'
p206
NsS'restrict'
p207
NsS'seed'
p208
S'0'
sS'serial'
p209
I00
sS'alignment'
p210
I00
sS'top'
p211
I1
sS'maximumDepth'
p212
I3
sS'window'
p213
NsS'minimizeBits'
p214
I5
sS'samples'
p215
I30
sS'save'
p216
NsS'resume'
p217
I00
sS'disableClean'
p218
I00
sS'stemBaseline'
p219
I30
sS'dummy'
p220
I00
sS'task'
p221
S'CEGIS'
p222
sS'geometry'
p223
NsS'verbosity'
p224
I0
sS'timeout'
p225
F24
sS'debug'
p226
NsS'cores'
p227
I40
sg189
S'Odden_88_Palauan'
p228
sS'mergeFrontiers'
p229
I00
sbsb.