(iresult
Result
p1
(dp2
S'startTime'
p3
F1555426389.3702409
sS'solutionSequence'
p4
(lp5
(ccopy_reg
_reconstructor
p6
(csolution
Solution
p7
c__builtin__
object
p8
NtRp9
(dp10
S'rules'
p11
(lp12
(irule
Rule
p13
(dp14
S'leftTriggers'
p15
(irule
Guard
p16
(dp17
S'endOfString'
p18
I00
sS'specifications'
p19
(lp20
sS'optionalEnding'
p21
I00
sS'representation'
p22
V
sS'starred'
p23
I00
sS'side'
p24
S'L'
sbsS'structuralChange'
p25
(irule
ConstantPhoneme
p26
(dp27
S'p'
V\u0259
sbsS'rightTriggers'
p28
(irule
Guard
p29
(dp30
g18
I01
sg19
(lp31
(irule
FeatureMatrix
p32
(dp33
S'featuresAndPolarities'
p34
(lp35
sg22
V[  ]
p36
sbasg21
I00
sg22
V[  ] #
p37
sg23
I00
sg24
S'R'
sbsS'focus'
p38
(irule
FeatureMatrix
p39
(dp40
g34
(lp41
(I01
S'vowel'
p42
tp43
asg22
V[ +vowel ]
p44
sbsg22
V[ +vowel ] ---> \u0259 /  _ [  ] #
p45
sba(irule
Rule
p46
(dp47
g15
(irule
Guard
p48
(dp49
g18
I00
sg19
(lp50
sg21
I00
sg22
V
sg23
I00
sg24
S'L'
sbsg25
(irule
ConstantPhoneme
p51
(dp52
S'p'
V\u0259
sbsg28
(irule
Guard
p53
(dp54
g18
I00
sg19
(lp55
(irule
FeatureMatrix
p56
(dp57
g34
(lp58
sg22
V[  ]
p59
sba(irule
FeatureMatrix
p60
(dp61
g34
(lp62
(I01
S'tense'
p63
tp64
asg22
V[ +tense ]
p65
sbasg21
I00
sg22
V[  ] [ +tense ]
p66
sg23
I00
sg24
S'R'
sbsg38
(irule
FeatureMatrix
p67
(dp68
g34
(lp69
sg22
V[  ]
p70
sbsg22
V[  ] ---> \u0259 /  _ [  ] [ +tense ]
p71
sbasS'prefixes'
p72
(lp73
(imorph
Morph
p74
(dp75
S'phonemes'
p76
(lp77
Vm
aVl
asba(imorph
Morph
p78
(dp79
g76
(lp80
sba(imorph
Morph
p81
(dp82
g76
(lp83
sbasS'underlyingForms'
p84
(dp85
((imorph
Morph
(dp86
g76
(lp87
Vm
aV\u0259
aV\u0294
aVa\u0301
p88
aVr
aV\u0259
aVm
asb(imorph
Morph
(dp89
g76
(lp90
V\u0294
aV\u0259
aVr
aV\u0259
aVm
aVa\u0301
p91
aVl
aVl
asb(imorph
Morph
(dp92
g76
(lp93
V\u0294
aV\u0259
aVr
aVo\u0301
p94
aVm
aVl
asbtp95
(imorph
Morph
p96
(dp97
g76
(lp98
V\u0294
aVa\u0301
p99
aVr
aVo\u0301
p100
aVm
asbs((imorph
Morph
(dp101
g76
(lp102
Vm
aV\u0259
aVs
aVe\u0301
p103
aVs
aV\u0259
aVb
asb(imorph
Morph
(dp104
g76
(lp105
Vs
aV\u0259
aVs
aV\u0259
aVb
aVa\u0301
p106
aVl
aVl
asb(imorph
Morph
(dp107
g76
(lp108
Vs
aV\u0259
aVs
aVo\u0301
p109
aVb
aVl
asbtp110
(imorph
Morph
p111
(dp112
g76
(lp113
Vs
aVe\u0301
p114
aVs
ag100
aVb
asbs((imorph
Morph
(dp115
g76
(lp116
Vm
aV\u0259
aVt
aVa\u0301
p117
aVb
aV\u0259
aVk
asb(imorph
Morph
(dp118
g76
(lp119
Vt
aV\u0259
aVb
aV\u0259
aVk
aVa\u0301
p120
aVl
aVl
asb(imorph
Morph
(dp121
g76
(lp122
Vt
aV\u0259
aVb
aVa\u0301
p123
aVk
aVl
asbtp124
(imorph
Morph
p125
(dp126
g76
(lp127
Vt
ag99
aVb
ag99
aVk
asbs((imorph
Morph
p128
(dp129
g76
(lp130
Vm
aV\u0259
aVd
aVa\u0301
p131
aV\u014b
aV\u0259
aVb
asb(imorph
Morph
p132
(dp133
g76
(lp134
Vd
aV\u0259
aV\u014b
aV\u0259
aVb
aVa\u0301
p135
aVl
aVl
asb(imorph
Morph
p136
(dp137
g76
(lp138
Vd
aV\u0259
aV\u014b
aVo\u0301
p139
aVb
aVl
asbtp140
(imorph
Morph
p141
(dp142
g76
(lp143
Vd
ag99
aV\u014b
ag100
aVb
asbs((imorph
Morph
p144
(dp145
g76
(lp146
Vm
aV\u0259
aVt
aVe\u0301
p147
aV\u0294
aV\u0259
aVb
asb(imorph
Morph
p148
(dp149
g76
(lp150
Vt
aV\u0259
aV\u0294
aV\u0259
aVb
aVa\u0301
p151
aVl
aVl
asb(imorph
Morph
p152
(dp153
g76
(lp154
Vt
aV\u0259
aV\u0294
aVi\u0301
p155
aVb
aVl
asbtp156
(imorph
Morph
p157
(dp158
g76
(lp159
Vt
ag114
aV\u0294
aVi\u0301
p160
aVb
asbs((imorph
Morph
(dp161
g76
(lp162
Vm
aV\u0259
aV\u014b
aVe\u0301
p163
aVt
aV\u0259
aVm
asb(imorph
Morph
(dp164
g76
(lp165
V\u014b
aV\u0259
aVt
aV\u0259
aVm
aVa\u0301
p166
aVl
aVl
asb(imorph
Morph
(dp167
g76
(lp168
V\u014b
aV\u0259
aVt
aVo\u0301
p169
aVm
aVl
asbtp170
(imorph
Morph
p171
(dp172
g76
(lp173
V\u014b
ag114
aVt
ag100
aVm
asbssS'suffixes'
p174
(lp175
(imorph
Morph
p176
(dp177
g76
(lp178
sba(imorph
Morph
p179
(dp180
g76
(lp181
g99
aVl
aVl
asba(imorph
Morph
p182
(dp183
g76
(lp184
Vl
asbasbF681.65942597389221
tp185
asS'problem'
p186
S'Odden_88_Palauan'
p187
sS'finalFrontier'
p188
g6
(csolution
Frontier
p189
g8
NtRp190
(dp191
g72
g73
sg174
g175
sg84
g85
sS'frontiers'
p192
(lp193
(lp194
(irule
Rule
p195
(dp196
g15
(irule
Guard
p197
(dp198
g18
I00
sg19
(lp199
sg21
I00
sg22
V
sg23
I00
sg24
S'L'
sbsg25
(irule
ConstantPhoneme
p200
(dp201
S'p'
V\u0259
sbsg28
(irule
Guard
p202
(dp203
g18
I01
sg19
(lp204
(irule
FeatureMatrix
p205
(dp206
g34
(lp207
sg22
V[  ]
p208
sbasg21
I00
sg22
V[  ] #
p209
sg23
I00
sg24
S'R'
sbsg38
(irule
FeatureMatrix
p210
(dp211
g34
(lp212
(I01
S'vowel'
tp213
asg22
V[ +vowel ]
p214
sbsg22
V[ +vowel ] ---> \u0259 /  _ [  ] #
p215
sba(irule
Rule
p216
(dp217
g15
(irule
Guard
p218
(dp219
g18
I00
sg19
(lp220
sg21
I00
sg22
Nsg23
I00
sg24
S'L'
sbsg25
(irule
ConstantPhoneme
p221
(dp222
S'p'
V\u0259
sbsg28
(irule
Guard
p223
(dp224
g18
I01
sg19
(lp225
(irule
FeatureMatrix
p226
(dp227
g34
(lp228
(I00
S'lateral'
p229
tp230
asg22
Nsbasg21
I00
sg22
Nsg23
I00
sg24
S'R'
sbsg38
(irule
FeatureMatrix
p231
(dp232
g34
(lp233
sg22
Nsbsg22
Nsba(irule
Rule
p234
(dp235
g15
(irule
Guard
p236
(dp237
g18
I00
sg19
(lp238
sg21
I00
sg22
Nsg23
I00
sg24
S'L'
sbsg25
(irule
ConstantPhoneme
p239
(dp240
S'p'
V\u0259
sbsg28
(irule
Guard
p241
(dp242
g18
I01
sg19
(lp243
(irule
FeatureMatrix
p244
(dp245
g34
(lp246
(I00
S'coronal'
p247
tp248
asg22
Nsbasg21
I00
sg22
Nsg23
I00
sg24
S'R'
sbsg38
(irule
FeatureMatrix
p249
(dp250
g34
(lp251
sg22
Nsbsg22
Nsba(irule
Rule
p252
(dp253
g15
(irule
Guard
p254
(dp255
g18
I00
sg19
(lp256
sg21
I00
sg22
Nsg23
I00
sg24
S'L'
sbsg25
(irule
ConstantPhoneme
p257
(dp258
S'p'
V\u0259
sbsg28
(irule
Guard
p259
(dp260
g18
I01
sg19
(lp261
(irule
FeatureMatrix
p262
(dp263
g34
(lp264
(I00
S'liquid'
p265
tp266
asg22
Nsbasg21
I00
sg22
Nsg23
I00
sg24
S'R'
sbsg38
(irule
FeatureMatrix
p267
(dp268
g34
(lp269
sg22
Nsbsg22
Nsba(irule
Rule
p270
(dp271
g15
(irule
Guard
p272
(dp273
g18
I00
sg19
(lp274
sg21
I00
sg22
Nsg23
I00
sg24
S'L'
sbsg25
(irule
ConstantPhoneme
p275
(dp276
S'p'
V\u0259
sbsg28
(irule
Guard
p277
(dp278
g18
I01
sg19
(lp279
(irule
FeatureMatrix
p280
(dp281
g34
(lp282
(I00
S'continuant'
p283
tp284
asg22
Nsbasg21
I00
sg22
Nsg23
I00
sg24
S'R'
sbsg38
(irule
FeatureMatrix
p285
(dp286
g34
(lp287
sg22
Nsbsg22
Nsba(irule
Rule
p288
(dp289
g15
(irule
Guard
p290
(dp291
g18
I00
sg19
(lp292
sg21
I00
sg22
Nsg23
I00
sg24
S'L'
sbsg25
(irule
ConstantPhoneme
p293
(dp294
S'p'
V\u0259
sbsg28
(irule
Guard
p295
(dp296
g18
I01
sg19
(lp297
(irule
FeatureMatrix
p298
(dp299
g34
(lp300
sg22
Nsbasg21
I00
sg22
Nsg23
I00
sg24
S'R'
sbsg38
(irule
FeatureMatrix
p301
(dp302
g34
(lp303
(I01
S'tense'
p304
tp305
asg22
Nsbsg22
Nsba(irule
Rule
p306
(dp307
g15
(irule
Guard
p308
(dp309
g18
I00
sg19
(lp310
sg21
I00
sg22
Nsg23
I00
sg24
S'L'
sbsg25
(irule
ConstantPhoneme
p311
(dp312
S'p'
V\u0259
sbsg28
(irule
Guard
p313
(dp314
g18
I01
sg19
(lp315
(irule
FeatureMatrix
p316
(dp317
g34
(lp318
sg22
Nsbasg21
I00
sg22
Nsg23
I00
sg24
S'R'
sbsg38
(irule
FeatureMatrix
p319
(dp320
g34
(lp321
(I01
S'highTone'
p322
tp323
asg22
Nsbsg22
Nsba(irule
Rule
p324
(dp325
g15
(irule
Guard
p326
(dp327
g18
I00
sg19
(lp328
(irule
FeatureMatrix
p329
(dp330
g34
(lp331
sg22
Nsbasg21
I00
sg22
Nsg23
I00
sg24
S'L'
sbsg25
(irule
ConstantPhoneme
p332
(dp333
S'p'
V\u0259
sbsg28
(irule
Guard
p334
(dp335
g18
I01
sg19
(lp336
(irule
FeatureMatrix
p337
(dp338
g34
(lp339
sg22
Nsbasg21
I00
sg22
Nsg23
I00
sg24
S'R'
sbsg38
(irule
FeatureMatrix
p340
(dp341
g34
(lp342
(I01
S'vowel'
p343
tp344
asg22
Nsbsg22
Nsba(irule
Rule
p345
(dp346
g15
(irule
Guard
p347
(dp348
g18
I00
sg19
(lp349
(irule
FeatureMatrix
p350
(dp351
g34
(lp352
sg22
Nsbasg21
I00
sg22
Nsg23
I00
sg24
S'L'
sbsg25
(irule
ConstantPhoneme
p353
(dp354
S'p'
V\u0259
sbsg28
(irule
Guard
p355
(dp356
g18
I01
sg19
(lp357
(irule
FeatureMatrix
p358
(dp359
g34
(lp360
sg22
Nsbasg21
I00
sg22
Nsg23
I00
sg24
S'R'
sbsg38
(irule
FeatureMatrix
p361
(dp362
g34
(lp363
(I01
g322
tp364
asg22
Nsbsg22
Nsba(irule
Rule
p365
(dp366
g15
(irule
Guard
p367
(dp368
g18
I00
sg19
(lp369
(irule
FeatureMatrix
p370
(dp371
g34
(lp372
sg22
Nsbasg21
I00
sg22
Nsg23
I00
sg24
S'L'
sbsg25
(irule
ConstantPhoneme
p373
(dp374
S'p'
V\u0259
sbsg28
(irule
Guard
p375
(dp376
g18
I01
sg19
(lp377
(irule
FeatureMatrix
p378
(dp379
g34
(lp380
sg22
Nsbasg21
I00
sg22
Nsg23
I00
sg24
S'R'
sbsg38
(irule
FeatureMatrix
p381
(dp382
g34
(lp383
(I01
g304
tp384
asg22
Nsbsg22
Nsba(irule
Rule
p385
(dp386
g15
(irule
Guard
p387
(dp388
g18
I00
sg19
(lp389
sg21
I00
sg22
Nsg23
I00
sg24
S'L'
sbsg25
(irule
ConstantPhoneme
p390
(dp391
S'p'
V\u0259
sbsg28
(irule
Guard
p392
(dp393
g18
I01
sg19
(lp394
(irule
FeatureMatrix
p395
(dp396
g34
(lp397
(I00
g247
tp398
asg22
Nsbasg21
I00
sg22
Nsg23
I00
sg24
S'R'
sbsg38
(irule
FeatureMatrix
p399
(dp400
g34
(lp401
(I01
g283
tp402
asg22
Nsbsg22
Nsba(irule
Rule
p403
(dp404
g15
(irule
Guard
p405
(dp406
g18
I00
sg19
(lp407
sg21
I00
sg22
Nsg23
I00
sg24
S'L'
sbsg25
(irule
ConstantPhoneme
p408
(dp409
S'p'
V\u0259
sbsg28
(irule
Guard
p410
(dp411
g18
I01
sg19
(lp412
(irule
FeatureMatrix
p413
(dp414
g34
(lp415
(I00
g247
tp416
asg22
Nsbasg21
I00
sg22
Nsg23
I00
sg24
S'R'
sbsg38
(irule
FeatureMatrix
p417
(dp418
g34
(lp419
(I00
g247
tp420
asg22
Nsbsg22
Nsba(irule
Rule
p421
(dp422
g15
(irule
Guard
p423
(dp424
g18
I00
sg19
(lp425
sg21
I00
sg22
Nsg23
I00
sg24
S'L'
sbsg25
(irule
ConstantPhoneme
p426
(dp427
S'p'
V\u0259
sbsg28
(irule
Guard
p428
(dp429
g18
I01
sg19
(lp430
(irule
FeatureMatrix
p431
(dp432
g34
(lp433
(I00
g265
tp434
asg22
Nsbasg21
I00
sg22
Nsg23
I00
sg24
S'R'
sbsg38
(irule
FeatureMatrix
p435
(dp436
g34
(lp437
(I01
g283
tp438
asg22
Nsbsg22
Nsba(irule
Rule
p439
(dp440
g15
(irule
Guard
p441
(dp442
g18
I00
sg19
(lp443
sg21
I00
sg22
Nsg23
I00
sg24
S'L'
sbsg25
(irule
ConstantPhoneme
p444
(dp445
S'p'
V\u0259
sbsg28
(irule
Guard
p446
(dp447
g18
I01
sg19
(lp448
(irule
FeatureMatrix
p449
(dp450
g34
(lp451
(I00
S'sibilant'
p452
tp453
asg22
Nsbasg21
I00
sg22
Nsg23
I00
sg24
S'R'
sbsg38
(irule
FeatureMatrix
p454
(dp455
g34
(lp456
(I01
g343
tp457
asg22
Nsbsg22
Nsba(irule
Rule
p458
(dp459
g15
(irule
Guard
p460
(dp461
g18
I00
sg19
(lp462
sg21
I00
sg22
Nsg23
I00
sg24
S'L'
sbsg25
(irule
ConstantPhoneme
p463
(dp464
S'p'
V\u0259
sbsg28
(irule
Guard
p465
(dp466
g18
I01
sg19
(lp467
(irule
FeatureMatrix
p468
(dp469
g34
(lp470
sg22
Nsbasg21
I00
sg22
Nsg23
I00
sg24
S'R'
sbsg38
(irule
FeatureMatrix
p471
(dp472
g34
(lp473
(I01
g343
tp474
a(I00
g452
tp475
asg22
Nsbsg22
Nsba(irule
Rule
p476
(dp477
g15
(irule
Guard
p478
(dp479
g18
I00
sg19
(lp480
sg21
I00
sg22
Nsg23
I00
sg24
S'L'
sbsg25
(irule
ConstantPhoneme
p481
(dp482
S'p'
V\u0259
sbsg28
(irule
Guard
p483
(dp484
g18
I01
sg19
(lp485
(irule
FeatureMatrix
p486
(dp487
g34
(lp488
(I00
g343
tp489
asg22
Nsbasg21
I00
sg22
Nsg23
I00
sg24
S'R'
sbsg38
(irule
FeatureMatrix
p490
(dp491
g34
(lp492
(I01
g343
tp493
asg22
Nsbsg22
Nsba(irule
Rule
p494
(dp495
g15
(irule
Guard
p496
(dp497
g18
I00
sg19
(lp498
(irule
FeatureMatrix
p499
(dp500
g34
(lp501
(I00
g322
tp502
asg22
Nsbasg21
I00
sg22
Nsg23
I00
sg24
S'L'
sbsg25
(irule
ConstantPhoneme
p503
(dp504
S'p'
V\u0259
sbsg28
(irule
Guard
p505
(dp506
g18
I01
sg19
(lp507
(irule
FeatureMatrix
p508
(dp509
g34
(lp510
sg22
Nsbasg21
I00
sg22
Nsg23
I00
sg24
S'R'
sbsg38
(irule
FeatureMatrix
p511
(dp512
g34
(lp513
sg22
Nsbsg22
Nsba(irule
Rule
p514
(dp515
g15
(irule
Guard
p516
(dp517
g18
I00
sg19
(lp518
sg21
I00
sg22
Nsg23
I00
sg24
S'L'
sbsg25
(irule
ConstantPhoneme
p519
(dp520
S'p'
V\u0259
sbsg28
(irule
Guard
p521
(dp522
g18
I01
sg19
(lp523
(irule
FeatureMatrix
p524
(dp525
g34
(lp526
(I00
g452
tp527
asg22
Nsbasg21
I00
sg22
Nsg23
I00
sg24
S'R'
sbsg38
(irule
FeatureMatrix
p528
(dp529
g34
(lp530
(I01
g322
tp531
asg22
Nsbsg22
Nsba(irule
Rule
p532
(dp533
g15
(irule
Guard
p534
(dp535
g18
I00
sg19
(lp536
sg21
I00
sg22
Nsg23
I00
sg24
S'L'
sbsg25
(irule
ConstantPhoneme
p537
(dp538
S'p'
V\u0259
sbsg28
(irule
Guard
p539
(dp540
g18
I01
sg19
(lp541
(irule
FeatureMatrix
p542
(dp543
g34
(lp544
(I00
g229
tp545
asg22
Nsbasg21
I00
sg22
Nsg23
I00
sg24
S'R'
sbsg38
(irule
FeatureMatrix
p546
(dp547
g34
(lp548
(I01
g343
tp549
asg22
Nsbsg22
Nsba(irule
Rule
p550
(dp551
g15
(irule
Guard
p552
(dp553
g18
I00
sg19
(lp554
sg21
I00
sg22
Nsg23
I00
sg24
S'L'
sbsg25
(irule
ConstantPhoneme
p555
(dp556
S'p'
V\u0259
sbsg28
(irule
Guard
p557
(dp558
g18
I01
sg19
(lp559
(irule
FeatureMatrix
p560
(dp561
g34
(lp562
(I00
g265
tp563
asg22
Nsbasg21
I00
sg22
Nsg23
I00
sg24
S'R'
sbsg38
(irule
FeatureMatrix
p564
(dp565
g34
(lp566
(I01
g343
tp567
asg22
Nsbsg22
Nsba(irule
Rule
p568
(dp569
g15
(irule
Guard
p570
(dp571
g18
I00
sg19
(lp572
sg21
I00
sg22
Nsg23
I00
sg24
S'L'
sbsg25
(irule
ConstantPhoneme
p573
(dp574
S'p'
V\u0259
sbsg28
(irule
Guard
p575
(dp576
g18
I01
sg19
(lp577
(irule
FeatureMatrix
p578
(dp579
g34
(lp580
(I00
S'rounded'
tp581
asg22
Nsbasg21
I00
sg22
Nsg23
I00
sg24
S'R'
sbsg38
(irule
FeatureMatrix
p582
(dp583
g34
(lp584
(I01
g343
tp585
asg22
Nsbsg22
Nsba(irule
Rule
p586
(dp587
g15
(irule
Guard
p588
(dp589
g18
I00
sg19
(lp590
sg21
I00
sg22
Nsg23
I00
sg24
S'L'
sbsg25
(irule
ConstantPhoneme
p591
(dp592
S'p'
V\u0259
sbsg28
(irule
Guard
p593
(dp594
g18
I01
sg19
(lp595
(irule
FeatureMatrix
p596
(dp597
g34
(lp598
sg22
Nsbasg21
I00
sg22
Nsg23
I00
sg24
S'R'
sbsg38
(irule
FeatureMatrix
p599
(dp600
g34
(lp601
(I00
g229
tp602
a(I01
g343
tp603
asg22
Nsbsg22
Nsba(irule
Rule
p604
(dp605
g15
(irule
Guard
p606
(dp607
g18
I00
sg19
(lp608
sg21
I00
sg22
Nsg23
I00
sg24
S'L'
sbsg25
(irule
ConstantPhoneme
p609
(dp610
S'p'
V\u0259
sbsg28
(irule
Guard
p611
(dp612
g18
I01
sg19
(lp613
(irule
FeatureMatrix
p614
(dp615
g34
(lp616
(I00
g283
tp617
asg22
Nsbasg21
I00
sg22
Nsg23
I00
sg24
S'R'
sbsg38
(irule
FeatureMatrix
p618
(dp619
g34
(lp620
(I00
g452
tp621
asg22
Nsbsg22
Nsba(irule
Rule
p622
(dp623
g15
(irule
Guard
p624
(dp625
g18
I00
sg19
(lp626
(irule
FeatureMatrix
p627
(dp628
g34
(lp629
sg22
Nsbasg21
I00
sg22
Nsg23
I00
sg24
S'L'
sbsg25
(irule
ConstantPhoneme
p630
(dp631
S'p'
V\u0259
sbsg28
(irule
Guard
p632
(dp633
g18
I01
sg19
(lp634
(irule
FeatureMatrix
p635
(dp636
g34
(lp637
(I00
g265
tp638
asg22
Nsbasg21
I00
sg22
Nsg23
I00
sg24
S'R'
sbsg38
(irule
FeatureMatrix
p639
(dp640
g34
(lp641
sg22
Nsbsg22
Nsba(irule
Rule
p642
(dp643
g15
(irule
Guard
p644
(dp645
g18
I00
sg19
(lp646
(irule
FeatureMatrix
p647
(dp648
g34
(lp649
sg22
Nsbasg21
I00
sg22
Nsg23
I00
sg24
S'L'
sbsg25
(irule
ConstantPhoneme
p650
(dp651
S'p'
V\u0259
sbsg28
(irule
Guard
p652
(dp653
g18
I01
sg19
(lp654
(irule
FeatureMatrix
p655
(dp656
g34
(lp657
(I00
g247
tp658
asg22
Nsbasg21
I00
sg22
Nsg23
I00
sg24
S'R'
sbsg38
(irule
FeatureMatrix
p659
(dp660
g34
(lp661
sg22
Nsbsg22
Nsba(irule
Rule
p662
(dp663
g15
(irule
Guard
p664
(dp665
g18
I00
sg19
(lp666
sg21
I00
sg22
Nsg23
I00
sg24
S'L'
sbsg25
(irule
ConstantPhoneme
p667
(dp668
S'p'
V\u0259
sbsg28
(irule
Guard
p669
(dp670
g18
I01
sg19
(lp671
(irule
FeatureMatrix
p672
(dp673
g34
(lp674
sg22
Nsbasg21
I00
sg22
Nsg23
I00
sg24
S'R'
sbsg38
(irule
FeatureMatrix
p675
(dp676
g34
(lp677
(I00
S'nasal'
p678
tp679
a(I01
g343
tp680
asg22
Nsbsg22
Nsba(irule
Rule
p681
(dp682
g15
(irule
Guard
p683
(dp684
g18
I00
sg19
(lp685
sg21
I00
sg22
Nsg23
I00
sg24
S'L'
sbsg25
(irule
ConstantPhoneme
p686
(dp687
S'p'
V\u0259
sbsg28
(irule
Guard
p688
(dp689
g18
I01
sg19
(lp690
(irule
FeatureMatrix
p691
(dp692
g34
(lp693
(I00
g265
tp694
asg22
Nsbasg21
I00
sg22
Nsg23
I00
sg24
S'R'
sbsg38
(irule
FeatureMatrix
p695
(dp696
g34
(lp697
(I01
S'sonorant'
p698
tp699
asg22
Nsbsg22
Nsba(irule
Rule
p700
(dp701
g15
(irule
Guard
p702
(dp703
g18
I00
sg19
(lp704
sg21
I00
sg22
Nsg23
I00
sg24
S'L'
sbsg25
(irule
ConstantPhoneme
p705
(dp706
S'p'
V\u0259
sbsg28
(irule
Guard
p707
(dp708
g18
I01
sg19
(lp709
(irule
FeatureMatrix
p710
(dp711
g34
(lp712
(I00
g283
tp713
a(I00
g229
tp714
asg22
Nsbasg21
I00
sg22
Nsg23
I00
sg24
S'R'
sbsg38
(irule
FeatureMatrix
p715
(dp716
g34
(lp717
sg22
Nsbsg22
Nsba(irule
Rule
p718
(dp719
g15
(irule
Guard
p720
(dp721
g18
I00
sg19
(lp722
(irule
FeatureMatrix
p723
(dp724
g34
(lp725
(I00
g304
tp726
asg22
Nsbasg21
I00
sg22
Nsg23
I00
sg24
S'L'
sbsg25
(irule
ConstantPhoneme
p727
(dp728
S'p'
V\u0259
sbsg28
(irule
Guard
p729
(dp730
g18
I01
sg19
(lp731
(irule
FeatureMatrix
p732
(dp733
g34
(lp734
sg22
Nsbasg21
I00
sg22
Nsg23
I00
sg24
S'R'
sbsg38
(irule
FeatureMatrix
p735
(dp736
g34
(lp737
sg22
Nsbsg22
Nsba(irule
Rule
p738
(dp739
g15
(irule
Guard
p740
(dp741
g18
I00
sg19
(lp742
sg21
I00
sg22
Nsg23
I00
sg24
S'L'
sbsg25
(irule
ConstantPhoneme
p743
(dp744
S'p'
V\u0259
sbsg28
(irule
Guard
p745
(dp746
g18
I01
sg19
(lp747
(irule
FeatureMatrix
p748
(dp749
g34
(lp750
(I00
g265
tp751
asg22
Nsbasg21
I00
sg22
Nsg23
I00
sg24
S'R'
sbsg38
(irule
FeatureMatrix
p752
(dp753
g34
(lp754
(I00
g452
tp755
asg22
Nsbsg22
Nsba(irule
Rule
p756
(dp757
g15
(irule
Guard
p758
(dp759
g18
I00
sg19
(lp760
sg21
I00
sg22
Nsg23
I00
sg24
S'L'
sbsg25
(irule
ConstantPhoneme
p761
(dp762
S'p'
V\u0259
sbsg28
(irule
Guard
p763
(dp764
g18
I01
sg19
(lp765
(irule
FeatureMatrix
p766
(dp767
g34
(lp768
(I00
g304
tp769
asg22
Nsbasg21
I00
sg22
Nsg23
I00
sg24
S'R'
sbsg38
(irule
FeatureMatrix
p770
(dp771
g34
(lp772
(I01
g343
tp773
asg22
Nsbsg22
Nsba(irule
Rule
p774
(dp775
g15
(irule
Guard
p776
(dp777
g18
I00
sg19
(lp778
sg21
I00
sg22
Nsg23
I00
sg24
S'L'
sbsg25
(irule
ConstantPhoneme
p779
(dp780
S'p'
V\u0259
sbsg28
(irule
Guard
p781
(dp782
g18
I01
sg19
(lp783
(irule
FeatureMatrix
p784
(dp785
g34
(lp786
sg22
Nsbasg21
I00
sg22
Nsg23
I00
sg24
S'R'
sbsg38
(irule
FeatureMatrix
p787
(dp788
g34
(lp789
(I00
g265
tp790
a(I01
g343
tp791
asg22
Nsbsg22
Nsba(irule
Rule
p792
(dp793
g15
(irule
Guard
p794
(dp795
g18
I00
sg19
(lp796
sg21
I00
sg22
Nsg23
I00
sg24
S'L'
sbsg25
(irule
ConstantPhoneme
p797
(dp798
S'p'
V\u0259
sbsg28
(irule
Guard
p799
(dp800
g18
I01
sg19
(lp801
(irule
FeatureMatrix
p802
(dp803
g34
(lp804
(I00
g247
tp805
asg22
Nsbasg21
I00
sg22
Nsg23
I00
sg24
S'R'
sbsg38
(irule
FeatureMatrix
p806
(dp807
g34
(lp808
(I01
S'voice'
p809
tp810
asg22
Nsbsg22
Nsba(irule
Rule
p811
(dp812
g15
(irule
Guard
p813
(dp814
g18
I00
sg19
(lp815
sg21
I00
sg22
Nsg23
I00
sg24
S'L'
sbsg25
(irule
ConstantPhoneme
p816
(dp817
S'p'
V\u0259
sbsg28
(irule
Guard
p818
(dp819
g18
I01
sg19
(lp820
(irule
FeatureMatrix
p821
(dp822
g34
(lp823
(I00
g265
tp824
asg22
Nsbasg21
I00
sg22
Nsg23
I00
sg24
S'R'
sbsg38
(irule
FeatureMatrix
p825
(dp826
g34
(lp827
(I00
g247
tp828
asg22
Nsbsg22
Nsba(irule
Rule
p829
(dp830
g15
(irule
Guard
p831
(dp832
g18
I00
sg19
(lp833
(irule
FeatureMatrix
p834
(dp835
g34
(lp836
sg22
Nsbasg21
I00
sg22
Nsg23
I00
sg24
S'L'
sbsg25
(irule
ConstantPhoneme
p837
(dp838
S'p'
V\u0259
sbsg28
(irule
Guard
p839
(dp840
g18
I01
sg19
(lp841
(irule
FeatureMatrix
p842
(dp843
g34
(lp844
(I00
g229
tp845
asg22
Nsbasg21
I00
sg22
Nsg23
I00
sg24
S'R'
sbsg38
(irule
FeatureMatrix
p846
(dp847
g34
(lp848
sg22
Nsbsg22
Nsba(irule
Rule
p849
(dp850
g15
(irule
Guard
p851
(dp852
g18
I00
sg19
(lp853
sg21
I00
sg22
Nsg23
I00
sg24
S'L'
sbsg25
(irule
ConstantPhoneme
p854
(dp855
S'p'
V\u0259
sbsg28
(irule
Guard
p856
(dp857
g18
I01
sg19
(lp858
(irule
FeatureMatrix
p859
(dp860
g34
(lp861
(I00
g229
tp862
asg22
Nsbasg21
I00
sg22
Nsg23
I00
sg24
S'R'
sbsg38
(irule
FeatureMatrix
p863
(dp864
g34
(lp865
(I01
g283
tp866
asg22
Nsbsg22
Nsba(irule
Rule
p867
(dp868
g15
(irule
Guard
p869
(dp870
g18
I00
sg19
(lp871
sg21
I00
sg22
Nsg23
I00
sg24
S'L'
sbsg25
(irule
ConstantPhoneme
p872
(dp873
S'p'
V\u0259
sbsg28
(irule
Guard
p874
(dp875
g18
I01
sg19
(lp876
(irule
FeatureMatrix
p877
(dp878
g34
(lp879
(I00
S'low'
p880
tp881
asg22
Nsbasg21
I00
sg22
Nsg23
I00
sg24
S'R'
sbsg38
(irule
FeatureMatrix
p882
(dp883
g34
(lp884
(I01
g343
tp885
asg22
Nsbsg22
Nsba(irule
Rule
p886
(dp887
g15
(irule
Guard
p888
(dp889
g18
I00
sg19
(lp890
(irule
FeatureMatrix
p891
(dp892
g34
(lp893
sg22
Nsbasg21
I00
sg22
Nsg23
I00
sg24
S'L'
sbsg25
(irule
ConstantPhoneme
p894
(dp895
S'p'
V\u0259
sbsg28
(irule
Guard
p896
(dp897
g18
I01
sg19
(lp898
(irule
FeatureMatrix
p899
(dp900
g34
(lp901
(I00
g283
tp902
asg22
Nsbasg21
I00
sg22
Nsg23
I00
sg24
S'R'
sbsg38
(irule
FeatureMatrix
p903
(dp904
g34
(lp905
sg22
Nsbsg22
Nsba(irule
Rule
p906
(dp907
g15
(irule
Guard
p908
(dp909
g18
I00
sg19
(lp910
sg21
I00
sg22
Nsg23
I00
sg24
S'L'
sbsg25
(irule
ConstantPhoneme
p911
(dp912
S'p'
V\u0259
sbsg28
(irule
Guard
p913
(dp914
g18
I01
sg19
(lp915
(irule
FeatureMatrix
p916
(dp917
g34
(lp918
(I00
g265
tp919
a(I00
g452
tp920
asg22
Nsbasg21
I00
sg22
Nsg23
I00
sg24
S'R'
sbsg38
(irule
FeatureMatrix
p921
(dp922
g34
(lp923
sg22
Nsbsg22
Nsba(irule
Rule
p924
(dp925
g15
(irule
Guard
p926
(dp927
g18
I00
sg19
(lp928
sg21
I00
sg22
Nsg23
I00
sg24
S'L'
sbsg25
(irule
ConstantPhoneme
p929
(dp930
S'p'
V\u0259
sbsg28
(irule
Guard
p931
(dp932
g18
I01
sg19
(lp933
(irule
FeatureMatrix
p934
(dp935
g34
(lp936
(I00
g247
tp937
asg22
Nsbasg21
I00
sg22
Nsg23
I00
sg24
S'R'
sbsg38
(irule
FeatureMatrix
p938
(dp939
g34
(lp940
(I00
g678
tp941
asg22
Nsbsg22
Nsba(irule
Rule
p942
(dp943
g15
(irule
Guard
p944
(dp945
g18
I00
sg19
(lp946
sg21
I00
sg22
Nsg23
I00
sg24
S'L'
sbsg25
(irule
ConstantPhoneme
p947
(dp948
S'p'
V\u0259
sbsg28
(irule
Guard
p949
(dp950
g18
I01
sg19
(lp951
(irule
FeatureMatrix
p952
(dp953
g34
(lp954
(I00
g229
tp955
a(I00
g452
tp956
asg22
Nsbasg21
I00
sg22
Nsg23
I00
sg24
S'R'
sbsg38
(irule
FeatureMatrix
p957
(dp958
g34
(lp959
sg22
Nsbsg22
Nsba(irule
Rule
p960
(dp961
g15
(irule
Guard
p962
(dp963
g18
I00
sg19
(lp964
(irule
FeatureMatrix
p965
(dp966
g34
(lp967
(I00
g343
tp968
asg22
Nsbasg21
I00
sg22
Nsg23
I00
sg24
S'L'
sbsg25
(irule
ConstantPhoneme
p969
(dp970
S'p'
V\u0259
sbsg28
(irule
Guard
p971
(dp972
g18
I01
sg19
(lp973
(irule
FeatureMatrix
p974
(dp975
g34
(lp976
sg22
Nsbasg21
I00
sg22
Nsg23
I00
sg24
S'R'
sbsg38
(irule
FeatureMatrix
p977
(dp978
g34
(lp979
sg22
Nsbsg22
Nsba(irule
Rule
p980
(dp981
g15
(irule
Guard
p982
(dp983
g18
I00
sg19
(lp984
sg21
I00
sg22
Nsg23
I00
sg24
S'L'
sbsg25
(irule
ConstantPhoneme
p985
(dp986
S'p'
V\u0259
sbsg28
(irule
Guard
p987
(dp988
g18
I01
sg19
(lp989
(irule
FeatureMatrix
p990
(dp991
g34
(lp992
(I00
g247
tp993
asg22
Nsbasg21
I00
sg22
Nsg23
I00
sg24
S'R'
sbsg38
(irule
FeatureMatrix
p994
(dp995
g34
(lp996
(I00
g452
tp997
asg22
Nsbsg22
Nsba(irule
Rule
p998
(dp999
g15
(irule
Guard
p1000
(dp1001
g18
I00
sg19
(lp1002
sg21
I00
sg22
Nsg23
I00
sg24
S'L'
sbsg25
(irule
ConstantPhoneme
p1003
(dp1004
S'p'
V\u0259
sbsg28
(irule
Guard
p1005
(dp1006
g18
I01
sg19
(lp1007
(irule
FeatureMatrix
p1008
(dp1009
g34
(lp1010
(I00
g247
tp1011
asg22
Nsbasg21
I00
sg22
Nsg23
I00
sg24
S'R'
sbsg38
(irule
FeatureMatrix
p1012
(dp1013
g34
(lp1014
(I00
g229
tp1015
asg22
Nsbsg22
Nsba(irule
Rule
p1016
(dp1017
g15
(irule
Guard
p1018
(dp1019
g18
I00
sg19
(lp1020
sg21
I00
sg22
Nsg23
I00
sg24
S'L'
sbsg25
(irule
ConstantPhoneme
p1021
(dp1022
S'p'
V\u0259
sbsg28
(irule
Guard
p1023
(dp1024
g18
I01
sg19
(lp1025
(irule
FeatureMatrix
p1026
(dp1027
g34
(lp1028
(I00
g283
tp1029
a(I00
g247
tp1030
asg22
Nsbasg21
I00
sg22
Nsg23
I00
sg24
S'R'
sbsg38
(irule
FeatureMatrix
p1031
(dp1032
g34
(lp1033
sg22
Nsbsg22
Nsba(irule
Rule
p1034
(dp1035
g15
(irule
Guard
p1036
(dp1037
g18
I00
sg19
(lp1038
sg21
I00
sg22
Nsg23
I00
sg24
S'L'
sbsg25
(irule
ConstantPhoneme
p1039
(dp1040
S'p'
V\u0259
sbsg28
(irule
Guard
p1041
(dp1042
g18
I01
sg19
(lp1043
(irule
FeatureMatrix
p1044
(dp1045
g34
(lp1046
(I00
g322
tp1047
asg22
Nsbasg21
I00
sg22
Nsg23
I00
sg24
S'R'
sbsg38
(irule
FeatureMatrix
p1048
(dp1049
g34
(lp1050
(I01
g322
tp1051
asg22
Nsbsg22
Nsba(irule
Rule
p1052
(dp1053
g15
(irule
Guard
p1054
(dp1055
g18
I00
sg19
(lp1056
sg21
I00
sg22
Nsg23
I00
sg24
S'L'
sbsg25
(irule
ConstantPhoneme
p1057
(dp1058
S'p'
V\u0259
sbsg28
(irule
Guard
p1059
(dp1060
g18
I01
sg19
(lp1061
(irule
FeatureMatrix
p1062
(dp1063
g34
(lp1064
(I00
g265
tp1065
asg22
Nsbasg21
I00
sg22
Nsg23
I00
sg24
S'R'
sbsg38
(irule
FeatureMatrix
p1066
(dp1067
g34
(lp1068
(I00
g229
tp1069
asg22
Nsbsg22
Nsba(irule
Rule
p1070
(dp1071
g15
(irule
Guard
p1072
(dp1073
g18
I00
sg19
(lp1074
sg21
I00
sg22
Nsg23
I00
sg24
S'L'
sbsg25
(irule
ConstantPhoneme
p1075
(dp1076
S'p'
V\u0259
sbsg28
(irule
Guard
p1077
(dp1078
g18
I01
sg19
(lp1079
(irule
FeatureMatrix
p1080
(dp1081
g34
(lp1082
(I00
g247
tp1083
asg22
Nsbasg21
I00
sg22
Nsg23
I00
sg24
S'R'
sbsg38
(irule
FeatureMatrix
p1084
(dp1085
g34
(lp1086
(I01
g698
tp1087
asg22
Nsbsg22
Nsba(irule
Rule
p1088
(dp1089
g15
(irule
Guard
p1090
(dp1091
g18
I00
sg19
(lp1092
sg21
I00
sg22
Nsg23
I00
sg24
S'L'
sbsg25
(irule
ConstantPhoneme
p1093
(dp1094
S'p'
V\u0259
sbsg28
(irule
Guard
p1095
(dp1096
g18
I01
sg19
(lp1097
(irule
FeatureMatrix
p1098
(dp1099
g34
(lp1100
sg22
Nsbasg21
I00
sg22
Nsg23
I00
sg24
S'R'
sbsg38
(irule
FeatureMatrix
p1101
(dp1102
g34
(lp1103
(I00
S'anterior'
p1104
tp1105
a(I01
g343
tp1106
asg22
Nsbsg22
Nsba(irule
Rule
p1107
(dp1108
g15
(irule
Guard
p1109
(dp1110
g18
I00
sg19
(lp1111
sg21
I00
sg22
Nsg23
I00
sg24
S'L'
sbsg25
(irule
ConstantPhoneme
p1112
(dp1113
S'p'
V\u0259
sbsg28
(irule
Guard
p1114
(dp1115
g18
I01
sg19
(lp1116
(irule
FeatureMatrix
p1117
(dp1118
g34
(lp1119
(I00
g247
tp1120
asg22
Nsbasg21
I00
sg22
Nsg23
I00
sg24
S'R'
sbsg38
(irule
FeatureMatrix
p1121
(dp1122
g34
(lp1123
(I01
g343
tp1124
asg22
Nsbsg22
Nsba(irule
Rule
p1125
(dp1126
g15
(irule
Guard
p1127
(dp1128
g18
I00
sg19
(lp1129
sg21
I00
sg22
Nsg23
I00
sg24
S'L'
sbsg25
(irule
ConstantPhoneme
p1130
(dp1131
S'p'
V\u0259
sbsg28
(irule
Guard
p1132
(dp1133
g18
I01
sg19
(lp1134
(irule
FeatureMatrix
p1135
(dp1136
g34
(lp1137
sg22
Nsbasg21
I00
sg22
Nsg23
I00
sg24
S'R'
sbsg38
(irule
FeatureMatrix
p1138
(dp1139
g34
(lp1140
(I01
g698
tp1141
a(I01
g343
tp1142
asg22
Nsbsg22
Nsba(irule
Rule
p1143
(dp1144
g15
(irule
Guard
p1145
(dp1146
g18
I00
sg19
(lp1147
sg21
I00
sg22
Nsg23
I00
sg24
S'L'
sbsg25
(irule
ConstantPhoneme
p1148
(dp1149
S'p'
V\u0259
sbsg28
(irule
Guard
p1150
(dp1151
g18
I01
sg19
(lp1152
(irule
FeatureMatrix
p1153
(dp1154
g34
(lp1155
(I00
g229
tp1156
asg22
Nsbasg21
I00
sg22
Nsg23
I00
sg24
S'R'
sbsg38
(irule
FeatureMatrix
p1157
(dp1158
g34
(lp1159
(I00
g452
tp1160
asg22
Nsbsg22
Nsba(irule
Rule
p1161
(dp1162
g15
(irule
Guard
p1163
(dp1164
g18
I00
sg19
(lp1165
sg21
I00
sg22
Nsg23
I00
sg24
S'L'
sbsg25
(irule
ConstantPhoneme
p1166
(dp1167
S'p'
V\u0259
sbsg28
(irule
Guard
p1168
(dp1169
g18
I01
sg19
(lp1170
(irule
FeatureMatrix
p1171
(dp1172
g34
(lp1173
(I00
g322
tp1174
asg22
Nsbasg21
I00
sg22
Nsg23
I00
sg24
S'R'
sbsg38
(irule
FeatureMatrix
p1175
(dp1176
g34
(lp1177
(I01
g343
tp1178
asg22
Nsbsg22
Nsba(irule
Rule
p1179
(dp1180
g15
(irule
Guard
p1181
(dp1182
g18
I00
sg19
(lp1183
sg21
I00
sg22
Nsg23
I00
sg24
S'L'
sbsg25
(irule
ConstantPhoneme
p1184
(dp1185
S'p'
V\u0259
sbsg28
(irule
Guard
p1186
(dp1187
g18
I01
sg19
(lp1188
(irule
FeatureMatrix
p1189
(dp1190
g34
(lp1191
(I00
g229
tp1192
a(I00
g343
tp1193
asg22
Nsbasg21
I00
sg22
Nsg23
I00
sg24
S'R'
sbsg38
(irule
FeatureMatrix
p1194
(dp1195
g34
(lp1196
sg22
Nsbsg22
Nsba(irule
Rule
p1197
(dp1198
g15
(irule
Guard
p1199
(dp1200
g18
I00
sg19
(lp1201
sg21
I00
sg22
Nsg23
I00
sg24
S'L'
sbsg25
(irule
ConstantPhoneme
p1202
(dp1203
S'p'
V\u0259
sbsg28
(irule
Guard
p1204
(dp1205
g18
I01
sg19
(lp1206
(irule
FeatureMatrix
p1207
(dp1208
g34
(lp1209
sg22
Nsbasg21
I00
sg22
Nsg23
I00
sg24
S'R'
sbsg38
(irule
FeatureMatrix
p1210
(dp1211
g34
(lp1212
(I01
g343
tp1213
a(I01
g809
tp1214
asg22
Nsbsg22
Nsba(irule
Rule
p1215
(dp1216
g15
(irule
Guard
p1217
(dp1218
g18
I00
sg19
(lp1219
sg21
I00
sg22
Nsg23
I00
sg24
S'L'
sbsg25
(irule
ConstantPhoneme
p1220
(dp1221
S'p'
V\u0259
sbsg28
(irule
Guard
p1222
(dp1223
g18
I01
sg19
(lp1224
(irule
FeatureMatrix
p1225
(dp1226
g34
(lp1227
(I00
g283
tp1228
asg22
Nsbasg21
I00
sg22
Nsg23
I00
sg24
S'R'
sbsg38
(irule
FeatureMatrix
p1229
(dp1230
g34
(lp1231
(I00
g229
tp1232
asg22
Nsbsg22
Nsba(irule
Rule
p1233
(dp1234
g15
(irule
Guard
p1235
(dp1236
g18
I00
sg19
(lp1237
sg21
I00
sg22
Nsg23
I00
sg24
S'L'
sbsg25
(irule
ConstantPhoneme
p1238
(dp1239
S'p'
V\u0259
sbsg28
(irule
Guard
p1240
(dp1241
g18
I01
sg19
(lp1242
(irule
FeatureMatrix
p1243
(dp1244
g34
(lp1245
(I00
g343
tp1246
asg22
Nsbasg21
I00
sg22
Nsg23
I00
sg24
S'R'
sbsg38
(irule
FeatureMatrix
p1247
(dp1248
g34
(lp1249
(I01
g322
tp1250
asg22
Nsbsg22
Nsba(irule
Rule
p1251
(dp1252
g15
(irule
Guard
p1253
(dp1254
g18
I00
sg19
(lp1255
sg21
I00
sg22
Nsg23
I00
sg24
S'L'
sbsg25
(irule
ConstantPhoneme
p1256
(dp1257
S'p'
V\u0259
sbsg28
(irule
Guard
p1258
(dp1259
g18
I01
sg19
(lp1260
(irule
FeatureMatrix
p1261
(dp1262
g34
(lp1263
(I00
g247
tp1264
asg22
Nsbasg21
I00
sg22
Nsg23
I00
sg24
S'R'
sbsg38
(irule
FeatureMatrix
p1265
(dp1266
g34
(lp1267
(I00
g1104
tp1268
asg22
Nsbsg22
Nsba(irule
Rule
p1269
(dp1270
g15
(irule
Guard
p1271
(dp1272
g18
I00
sg19
(lp1273
sg21
I00
sg22
Nsg23
I00
sg24
S'L'
sbsg25
(irule
ConstantPhoneme
p1274
(dp1275
S'p'
V\u0259
sbsg28
(irule
Guard
p1276
(dp1277
g18
I01
sg19
(lp1278
(irule
FeatureMatrix
p1279
(dp1280
g34
(lp1281
(I00
g229
tp1282
asg22
Nsbasg21
I00
sg22
Nsg23
I00
sg24
S'R'
sbsg38
(irule
FeatureMatrix
p1283
(dp1284
g34
(lp1285
(I00
g229
tp1286
asg22
Nsbsg22
Nsba(irule
Rule
p1287
(dp1288
g15
(irule
Guard
p1289
(dp1290
g18
I00
sg19
(lp1291
sg21
I00
sg22
Nsg23
I00
sg24
S'L'
sbsg25
(irule
ConstantPhoneme
p1292
(dp1293
S'p'
V\u0259
sbsg28
(irule
Guard
p1294
(dp1295
g18
I01
sg19
(lp1296
(irule
FeatureMatrix
p1297
(dp1298
g34
(lp1299
(I00
g265
tp1300
a(I00
g880
tp1301
asg22
Nsbasg21
I00
sg22
Nsg23
I00
sg24
S'R'
sbsg38
(irule
FeatureMatrix
p1302
(dp1303
g34
(lp1304
sg22
Nsbsg22
Nsba(irule
Rule
p1305
(dp1306
g15
(irule
Guard
p1307
(dp1308
g18
I00
sg19
(lp1309
sg21
I00
sg22
Nsg23
I00
sg24
S'L'
sbsg25
(irule
ConstantPhoneme
p1310
(dp1311
S'p'
V\u0259
sbsg28
(irule
Guard
p1312
(dp1313
g18
I01
sg19
(lp1314
(irule
FeatureMatrix
p1315
(dp1316
g34
(lp1317
sg22
Nsbasg21
I00
sg22
Nsg23
I00
sg24
S'R'
sbsg38
(irule
FeatureMatrix
p1318
(dp1319
g34
(lp1320
(I01
g283
tp1321
a(I01
g343
tp1322
asg22
Nsbsg22
Nsba(irule
Rule
p1323
(dp1324
g15
(irule
Guard
p1325
(dp1326
g18
I00
sg19
(lp1327
sg21
I00
sg22
Nsg23
I00
sg24
S'L'
sbsg25
(irule
ConstantPhoneme
p1328
(dp1329
S'p'
V\u0259
sbsg28
(irule
Guard
p1330
(dp1331
g18
I01
sg19
(lp1332
(irule
FeatureMatrix
p1333
(dp1334
g34
(lp1335
(I00
g283
tp1336
asg22
Nsbasg21
I00
sg22
Nsg23
I00
sg24
S'R'
sbsg38
(irule
FeatureMatrix
p1337
(dp1338
g34
(lp1339
(I01
g343
tp1340
asg22
Nsbsg22
Nsba(irule
Rule
p1341
(dp1342
g15
(irule
Guard
p1343
(dp1344
g18
I00
sg19
(lp1345
sg21
I00
sg22
Nsg23
I00
sg24
S'L'
sbsg25
(irule
ConstantPhoneme
p1346
(dp1347
S'p'
V\u0259
sbsg28
(irule
Guard
p1348
(dp1349
g18
I01
sg19
(lp1350
(irule
FeatureMatrix
p1351
(dp1352
g34
(lp1353
(I00
g283
tp1354
asg22
Nsbasg21
I00
sg22
Nsg23
I00
sg24
S'R'
sbsg38
(irule
FeatureMatrix
p1355
(dp1356
g34
(lp1357
(I01
g283
tp1358
asg22
Nsbsg22
Nsba(irule
Rule
p1359
(dp1360
g15
(irule
Guard
p1361
(dp1362
g18
I00
sg19
(lp1363
sg21
I00
sg22
Nsg23
I00
sg24
S'L'
sbsg25
(irule
ConstantPhoneme
p1364
(dp1365
S'p'
V\u0259
sbsg28
(irule
Guard
p1366
(dp1367
g18
I01
sg19
(lp1368
(irule
FeatureMatrix
p1369
(dp1370
g34
(lp1371
(I00
g880
tp1372
asg22
Nsbasg21
I00
sg22
Nsg23
I00
sg24
S'R'
sbsg38
(irule
FeatureMatrix
p1373
(dp1374
g34
(lp1375
(I01
g322
tp1376
asg22
Nsbsg22
Nsba(irule
Rule
p1377
(dp1378
g15
(irule
Guard
p1379
(dp1380
g18
I00
sg19
(lp1381
sg21
I00
sg22
Nsg23
I00
sg24
S'L'
sbsg25
(irule
ConstantPhoneme
p1382
(dp1383
S'p'
V\u0259
sbsg28
(irule
Guard
p1384
(dp1385
g18
I01
sg19
(lp1386
(irule
FeatureMatrix
p1387
(dp1388
g34
(lp1389
(I00
g247
tp1390
asg22
Nsbasg21
I00
sg22
Nsg23
I00
sg24
S'R'
sbsg38
(irule
FeatureMatrix
p1391
(dp1392
g34
(lp1393
(I00
g265
tp1394
asg22
Nsbsg22
Nsba(irule
Rule
p1395
(dp1396
g15
(irule
Guard
p1397
(dp1398
g18
I00
sg19
(lp1399
sg21
I00
sg22
Nsg23
I00
sg24
S'L'
sbsg25
(irule
ConstantPhoneme
p1400
(dp1401
S'p'
V\u0259
sbsg28
(irule
Guard
p1402
(dp1403
g18
I01
sg19
(lp1404
(irule
FeatureMatrix
p1405
(dp1406
g34
(lp1407
sg22
Nsbasg21
I00
sg22
Nsg23
I00
sg24
S'R'
sbsg38
(irule
FeatureMatrix
p1408
(dp1409
g34
(lp1410
(I00
g265
tp1411
a(I01
g304
tp1412
asg22
Nsbsg22
Nsba(irule
Rule
p1413
(dp1414
g15
(irule
Guard
p1415
(dp1416
g18
I00
sg19
(lp1417
sg21
I00
sg22
Nsg23
I00
sg24
S'L'
sbsg25
(irule
ConstantPhoneme
p1418
(dp1419
S'p'
V\u0259
sbsg28
(irule
Guard
p1420
(dp1421
g18
I01
sg19
(lp1422
(irule
FeatureMatrix
p1423
(dp1424
g34
(lp1425
sg22
Nsbasg21
I00
sg22
Nsg23
I00
sg24
S'R'
sbsg38
(irule
FeatureMatrix
p1426
(dp1427
g34
(lp1428
(I00
g247
tp1429
a(I01
g343
tp1430
asg22
Nsbsg22
Nsba(irule
Rule
p1431
(dp1432
g15
(irule
Guard
p1433
(dp1434
g18
I00
sg19
(lp1435
sg21
I00
sg22
Nsg23
I00
sg24
S'L'
sbsg25
(irule
ConstantPhoneme
p1436
(dp1437
S'p'
V\u0259
sbsg28
(irule
Guard
p1438
(dp1439
g18
I01
sg19
(lp1440
(irule
FeatureMatrix
p1441
(dp1442
g34
(lp1443
(I00
g265
tp1444
asg22
Nsbasg21
I00
sg22
Nsg23
I00
sg24
S'R'
sbsg38
(irule
FeatureMatrix
p1445
(dp1446
g34
(lp1447
(I00
g678
tp1448
asg22
Nsbsg22
Nsba(irule
Rule
p1449
(dp1450
g15
(irule
Guard
p1451
(dp1452
g18
I00
sg19
(lp1453
sg21
I00
sg22
Nsg23
I00
sg24
S'L'
sbsg25
(irule
ConstantPhoneme
p1454
(dp1455
S'p'
V\u0259
sbsg28
(irule
Guard
p1456
(dp1457
g18
I01
sg19
(lp1458
(irule
FeatureMatrix
p1459
(dp1460
g34
(lp1461
(I00
g247
tp1462
a(I00
g452
tp1463
asg22
Nsbasg21
I00
sg22
Nsg23
I00
sg24
S'R'
sbsg38
(irule
FeatureMatrix
p1464
(dp1465
g34
(lp1466
sg22
Nsbsg22
Nsba(irule
Rule
p1467
(dp1468
g15
(irule
Guard
p1469
(dp1470
g18
I00
sg19
(lp1471
sg21
I00
sg22
Nsg23
I00
sg24
S'L'
sbsg25
(irule
ConstantPhoneme
p1472
(dp1473
S'p'
V\u0259
sbsg28
(irule
Guard
p1474
(dp1475
g18
I01
sg19
(lp1476
(irule
FeatureMatrix
p1477
(dp1478
g34
(lp1479
(I00
g229
tp1480
asg22
Nsbasg21
I00
sg22
Nsg23
I00
sg24
S'R'
sbsg38
(irule
FeatureMatrix
p1481
(dp1482
g34
(lp1483
(I00
g678
tp1484
asg22
Nsbsg22
Nsba(irule
Rule
p1485
(dp1486
g15
(irule
Guard
p1487
(dp1488
g18
I00
sg19
(lp1489
sg21
I00
sg22
Nsg23
I00
sg24
S'L'
sbsg25
(irule
ConstantPhoneme
p1490
(dp1491
S'p'
V\u0259
sbsg28
(irule
Guard
p1492
(dp1493
g18
I01
sg19
(lp1494
(irule
FeatureMatrix
p1495
(dp1496
g34
(lp1497
(I00
g229
tp1498
asg22
Nsbasg21
I00
sg22
Nsg23
I00
sg24
S'R'
sbsg38
(irule
FeatureMatrix
p1499
(dp1500
g34
(lp1501
(I01
g698
tp1502
asg22
Nsbsg22
Nsba(irule
Rule
p1503
(dp1504
g15
(irule
Guard
p1505
(dp1506
g18
I00
sg19
(lp1507
sg21
I00
sg22
Nsg23
I00
sg24
S'L'
sbsg25
(irule
ConstantPhoneme
p1508
(dp1509
S'p'
V\u0259
sbsg28
(irule
Guard
p1510
(dp1511
g18
I01
sg19
(lp1512
(irule
FeatureMatrix
p1513
(dp1514
g34
(lp1515
sg22
Nsbasg21
I00
sg22
Nsg23
I00
sg24
S'R'
sbsg38
(irule
FeatureMatrix
p1516
(dp1517
g34
(lp1518
(I01
g322
tp1519
a(I01
g343
tp1520
asg22
Nsbsg22
Nsba(irule
Rule
p1521
(dp1522
g15
(irule
Guard
p1523
(dp1524
g18
I00
sg19
(lp1525
sg21
I00
sg22
Nsg23
I00
sg24
S'L'
sbsg25
(irule
ConstantPhoneme
p1526
(dp1527
S'p'
V\u0259
sbsg28
(irule
Guard
p1528
(dp1529
g18
I01
sg19
(lp1530
(irule
FeatureMatrix
p1531
(dp1532
g34
(lp1533
(I00
g452
tp1534
asg22
Nsbasg21
I00
sg22
Nsg23
I00
sg24
S'R'
sbsg38
(irule
FeatureMatrix
p1535
(dp1536
g34
(lp1537
(I01
g304
tp1538
asg22
Nsbsg22
Nsba(irule
Rule
p1539
(dp1540
g15
(irule
Guard
p1541
(dp1542
g18
I00
sg19
(lp1543
sg21
I00
sg22
Nsg23
I00
sg24
S'L'
sbsg25
(irule
ConstantPhoneme
p1544
(dp1545
S'p'
V\u0259
sbsg28
(irule
Guard
p1546
(dp1547
g18
I01
sg19
(lp1548
(irule
FeatureMatrix
p1549
(dp1550
g34
(lp1551
(I00
g343
tp1552
asg22
Nsbasg21
I00
sg22
Nsg23
I00
sg24
S'R'
sbsg38
(irule
FeatureMatrix
p1553
(dp1554
g34
(lp1555
(I01
g304
tp1556
asg22
Nsbsg22
Nsba(irule
Rule
p1557
(dp1558
g15
(irule
Guard
p1559
(dp1560
g18
I00
sg19
(lp1561
sg21
I00
sg22
Nsg23
I00
sg24
S'L'
sbsg25
(irule
ConstantPhoneme
p1562
(dp1563
S'p'
V\u0259
sbsg28
(irule
Guard
p1564
(dp1565
g18
I01
sg19
(lp1566
(irule
FeatureMatrix
p1567
(dp1568
g34
(lp1569
sg22
Nsbasg21
I00
sg22
Nsg23
I00
sg24
S'R'
sbsg38
(irule
FeatureMatrix
p1570
(dp1571
g34
(lp1572
(I01
g304
tp1573
a(I01
g343
tp1574
asg22
Nsbsg22
Nsba(irule
Rule
p1575
(dp1576
g15
(irule
Guard
p1577
(dp1578
g18
I00
sg19
(lp1579
sg21
I00
sg22
Nsg23
I00
sg24
S'L'
sbsg25
(irule
ConstantPhoneme
p1580
(dp1581
S'p'
V\u0259
sbsg28
(irule
Guard
p1582
(dp1583
g18
I01
sg19
(lp1584
(irule
FeatureMatrix
p1585
(dp1586
g34
(lp1587
(I00
g283
tp1588
asg22
Nsbasg21
I00
sg22
Nsg23
I00
sg24
S'R'
sbsg38
(irule
FeatureMatrix
p1589
(dp1590
g34
(lp1591
(I00
g247
tp1592
asg22
Nsbsg22
Nsba(irule
Rule
p1593
(dp1594
g15
(irule
Guard
p1595
(dp1596
g18
I00
sg19
(lp1597
sg21
I00
sg22
Nsg23
I00
sg24
S'L'
sbsg25
(irule
ConstantPhoneme
p1598
(dp1599
S'p'
V\u0259
sbsg28
(irule
Guard
p1600
(dp1601
g18
I01
sg19
(lp1602
(irule
FeatureMatrix
p1603
(dp1604
g34
(lp1605
(I00
g283
tp1606
a(I00
g452
tp1607
asg22
Nsbasg21
I00
sg22
Nsg23
I00
sg24
S'R'
sbsg38
(irule
FeatureMatrix
p1608
(dp1609
g34
(lp1610
sg22
Nsbsg22
Nsba(irule
Rule
p1611
(dp1612
g15
(irule
Guard
p1613
(dp1614
g18
I00
sg19
(lp1615
sg21
I00
sg22
Nsg23
I00
sg24
S'L'
sbsg25
(irule
ConstantPhoneme
p1616
(dp1617
S'p'
V\u0259
sbsg28
(irule
Guard
p1618
(dp1619
g18
I01
sg19
(lp1620
(irule
FeatureMatrix
p1621
(dp1622
g34
(lp1623
(I00
g304
tp1624
asg22
Nsbasg21
I00
sg22
Nsg23
I00
sg24
S'R'
sbsg38
(irule
FeatureMatrix
p1625
(dp1626
g34
(lp1627
(I01
g322
tp1628
asg22
Nsbsg22
Nsba(irule
Rule
p1629
(dp1630
g15
(irule
Guard
p1631
(dp1632
g18
I00
sg19
(lp1633
sg21
I00
sg22
Nsg23
I00
sg24
S'L'
sbsg25
(irule
ConstantPhoneme
p1634
(dp1635
S'p'
V\u0259
sbsg28
(irule
Guard
p1636
(dp1637
g18
I01
sg19
(lp1638
(irule
FeatureMatrix
p1639
(dp1640
g34
(lp1641
sg22
Nsbasg21
I00
sg22
Nsg23
I00
sg24
S'R'
sbsg38
(irule
FeatureMatrix
p1642
(dp1643
g34
(lp1644
(I01
g283
tp1645
a(I00
g229
tp1646
asg22
Nsbsg22
Nsba(irule
Rule
p1647
(dp1648
g15
(irule
Guard
p1649
(dp1650
g18
I00
sg19
(lp1651
sg21
I00
sg22
Nsg23
I00
sg24
S'L'
sbsg25
(irule
ConstantPhoneme
p1652
(dp1653
S'p'
V\u0259
sbsg28
(irule
Guard
p1654
(dp1655
g18
I01
sg19
(lp1656
(irule
FeatureMatrix
p1657
(dp1658
g34
(lp1659
sg22
Nsbasg21
I00
sg22
Nsg23
I00
sg24
S'R'
sbsg38
(irule
FeatureMatrix
p1660
(dp1661
g34
(lp1662
(I00
g229
tp1663
a(I01
g304
tp1664
asg22
Nsbsg22
Nsba(irule
Rule
p1665
(dp1666
g15
(irule
Guard
p1667
(dp1668
g18
I00
sg19
(lp1669
sg21
I00
sg22
Nsg23
I00
sg24
S'L'
sbsg25
(irule
ConstantPhoneme
p1670
(dp1671
S'p'
V\u0259
sbsg28
(irule
Guard
p1672
(dp1673
g18
I01
sg19
(lp1674
(irule
FeatureMatrix
p1675
(dp1676
g34
(lp1677
sg22
Nsbasg21
I00
sg22
Nsg23
I00
sg24
S'R'
sbsg38
(irule
FeatureMatrix
p1678
(dp1679
g34
(lp1680
(I00
g265
tp1681
a(I01
g283
tp1682
asg22
Nsbsg22
Nsba(irule
Rule
p1683
(dp1684
g15
(irule
Guard
p1685
(dp1686
g18
I00
sg19
(lp1687
sg21
I00
sg22
Nsg23
I00
sg24
S'L'
sbsg25
(irule
ConstantPhoneme
p1688
(dp1689
S'p'
V\u0259
sbsg28
(irule
Guard
p1690
(dp1691
g18
I01
sg19
(lp1692
(irule
FeatureMatrix
p1693
(dp1694
g34
(lp1695
(I00
g229
tp1696
asg22
Nsbasg21
I00
sg22
Nsg23
I00
sg24
S'R'
sbsg38
(irule
FeatureMatrix
p1697
(dp1698
g34
(lp1699
(I00
g247
tp1700
asg22
Nsbsg22
Nsba(irule
Rule
p1701
(dp1702
g15
(irule
Guard
p1703
(dp1704
g18
I00
sg19
(lp1705
sg21
I00
sg22
Nsg23
I00
sg24
S'L'
sbsg25
(irule
ConstantPhoneme
p1706
(dp1707
S'p'
V\u0259
sbsg28
(irule
Guard
p1708
(dp1709
g18
I01
sg19
(lp1710
(irule
FeatureMatrix
p1711
(dp1712
g34
(lp1713
(I00
g247
tp1714
a(I00
g343
tp1715
asg22
Nsbasg21
I00
sg22
Nsg23
I00
sg24
S'R'
sbsg38
(irule
FeatureMatrix
p1716
(dp1717
g34
(lp1718
sg22
Nsbsg22
Nsba(irule
Rule
p1719
(dp1720
g15
(irule
Guard
p1721
(dp1722
g18
I00
sg19
(lp1723
sg21
I00
sg22
Nsg23
I00
sg24
S'L'
sbsg25
(irule
ConstantPhoneme
p1724
(dp1725
S'p'
V\u0259
sbsg28
(irule
Guard
p1726
(dp1727
g18
I01
sg19
(lp1728
(irule
FeatureMatrix
p1729
(dp1730
g34
(lp1731
(I00
g229
tp1732
asg22
Nsbasg21
I00
sg22
Nsg23
I00
sg24
S'R'
sbsg38
(irule
FeatureMatrix
p1733
(dp1734
g34
(lp1735
(I00
g265
tp1736
asg22
Nsbsg22
Nsba(irule
Rule
p1737
(dp1738
g15
(irule
Guard
p1739
(dp1740
g18
I00
sg19
(lp1741
sg21
I00
sg22
Nsg23
I00
sg24
S'L'
sbsg25
(irule
ConstantPhoneme
p1742
(dp1743
S'p'
V\u0259
sbsg28
(irule
Guard
p1744
(dp1745
g18
I01
sg19
(lp1746
(irule
FeatureMatrix
p1747
(dp1748
g34
(lp1749
sg22
Nsbasg21
I00
sg22
Nsg23
I00
sg24
S'R'
sbsg38
(irule
FeatureMatrix
p1750
(dp1751
g34
(lp1752
(I00
g678
tp1753
a(I01
g304
tp1754
asg22
Nsbsg22
Nsba(irule
Rule
p1755
(dp1756
g15
(irule
Guard
p1757
(dp1758
g18
I00
sg19
(lp1759
sg21
I00
sg22
Nsg23
I00
sg24
S'L'
sbsg25
(irule
ConstantPhoneme
p1760
(dp1761
S'p'
V\u0259
sbsg28
(irule
Guard
p1762
(dp1763
g18
I01
sg19
(lp1764
(irule
FeatureMatrix
p1765
(dp1766
g34
(lp1767
(I00
g247
tp1768
a(I00
g880
tp1769
asg22
Nsbasg21
I00
sg22
Nsg23
I00
sg24
S'R'
sbsg38
(irule
FeatureMatrix
p1770
(dp1771
g34
(lp1772
sg22
Nsbsg22
Nsba(irule
Rule
p1773
(dp1774
g15
(irule
Guard
p1775
(dp1776
g18
I00
sg19
(lp1777
sg21
I00
sg22
Nsg23
I00
sg24
S'L'
sbsg25
(irule
ConstantPhoneme
p1778
(dp1779
S'p'
V\u0259
sbsg28
(irule
Guard
p1780
(dp1781
g18
I01
sg19
(lp1782
(irule
FeatureMatrix
p1783
(dp1784
g34
(lp1785
(I00
g880
tp1786
asg22
Nsbasg21
I00
sg22
Nsg23
I00
sg24
S'R'
sbsg38
(irule
FeatureMatrix
p1787
(dp1788
g34
(lp1789
(I01
g304
tp1790
asg22
Nsbsg22
Nsba(irule
Rule
p1791
(dp1792
g15
(irule
Guard
p1793
(dp1794
g18
I00
sg19
(lp1795
sg21
I00
sg22
Nsg23
I00
sg24
S'L'
sbsg25
(irule
ConstantPhoneme
p1796
(dp1797
S'p'
V\u0259
sbsg28
(irule
Guard
p1798
(dp1799
g18
I01
sg19
(lp1800
(irule
FeatureMatrix
p1801
(dp1802
g34
(lp1803
(I00
g304
tp1804
asg22
Nsbasg21
I00
sg22
Nsg23
I00
sg24
S'R'
sbsg38
(irule
FeatureMatrix
p1805
(dp1806
g34
(lp1807
(I01
g304
tp1808
asg22
Nsbsg22
Nsba(irule
Rule
p1809
(dp1810
g15
(irule
Guard
p1811
(dp1812
g18
I00
sg19
(lp1813
sg21
I00
sg22
Nsg23
I00
sg24
S'L'
sbsg25
(irule
ConstantPhoneme
p1814
(dp1815
S'p'
V\u0259
sbsg28
(irule
Guard
p1816
(dp1817
g18
I01
sg19
(lp1818
(irule
FeatureMatrix
p1819
(dp1820
g34
(lp1821
sg22
Nsbasg21
I00
sg22
Nsg23
I00
sg24
S'R'
sbsg38
(irule
FeatureMatrix
p1822
(dp1823
g34
(lp1824
(I01
g283
tp1825
a(I00
g247
tp1826
asg22
Nsbsg22
Nsba(irule
Rule
p1827
(dp1828
g15
(irule
Guard
p1829
(dp1830
g18
I00
sg19
(lp1831
sg21
I00
sg22
Nsg23
I00
sg24
S'L'
sbsg25
(irule
ConstantPhoneme
p1832
(dp1833
S'p'
V\u0259
sbsg28
(irule
Guard
p1834
(dp1835
g18
I01
sg19
(lp1836
(irule
FeatureMatrix
p1837
(dp1838
g34
(lp1839
(I00
g229
tp1840
asg22
Nsbasg21
I00
sg22
Nsg23
I00
sg24
S'R'
sbsg38
(irule
FeatureMatrix
p1841
(dp1842
g34
(lp1843
(I01
g809
tp1844
asg22
Nsbsg22
Nsba(irule
Rule
p1845
(dp1846
g15
(irule
Guard
p1847
(dp1848
g18
I00
sg19
(lp1849
sg21
I00
sg22
Nsg23
I00
sg24
S'L'
sbsg25
(irule
ConstantPhoneme
p1850
(dp1851
S'p'
V\u0259
sbsg28
(irule
Guard
p1852
(dp1853
g18
I01
sg19
(lp1854
(irule
FeatureMatrix
p1855
(dp1856
g34
(lp1857
sg22
Nsbasg21
I00
sg22
Nsg23
I00
sg24
S'R'
sbsg38
(irule
FeatureMatrix
p1858
(dp1859
g34
(lp1860
(I00
g229
tp1861
a(I01
g322
tp1862
asg22
Nsbsg22
Nsba(irule
Rule
p1863
(dp1864
g15
(irule
Guard
p1865
(dp1866
g18
I00
sg19
(lp1867
sg21
I00
sg22
Nsg23
I00
sg24
S'L'
sbsg25
(irule
ConstantPhoneme
p1868
(dp1869
S'p'
V\u0259
sbsg28
(irule
Guard
p1870
(dp1871
g18
I01
sg19
(lp1872
(irule
FeatureMatrix
p1873
(dp1874
g34
(lp1875
(I00
g247
tp1876
asg22
Nsbasg21
I00
sg22
Nsg23
I00
sg24
S'R'
sbsg38
(irule
FeatureMatrix
p1877
(dp1878
g34
(lp1879
(I01
g304
tp1880
asg22
Nsbsg22
Nsba(irule
Rule
p1881
(dp1882
g15
(irule
Guard
p1883
(dp1884
g18
I00
sg19
(lp1885
sg21
I00
sg22
Nsg23
I00
sg24
S'L'
sbsg25
(irule
ConstantPhoneme
p1886
(dp1887
S'p'
V\u0259
sbsg28
(irule
Guard
p1888
(dp1889
g18
I01
sg19
(lp1890
(irule
FeatureMatrix
p1891
(dp1892
g34
(lp1893
(I00
g283
tp1894
asg22
Nsbasg21
I00
sg22
Nsg23
I00
sg24
S'R'
sbsg38
(irule
FeatureMatrix
p1895
(dp1896
g34
(lp1897
(I00
g265
tp1898
asg22
Nsbsg22
Nsba(irule
Rule
p1899
(dp1900
g15
(irule
Guard
p1901
(dp1902
g18
I00
sg19
(lp1903
sg21
I00
sg22
Nsg23
I00
sg24
S'L'
sbsg25
(irule
ConstantPhoneme
p1904
(dp1905
S'p'
V\u0259
sbsg28
(irule
Guard
p1906
(dp1907
g18
I01
sg19
(lp1908
(irule
FeatureMatrix
p1909
(dp1910
g34
(lp1911
sg22
Nsbasg21
I00
sg22
Nsg23
I00
sg24
S'R'
sbsg38
(irule
FeatureMatrix
p1912
(dp1913
g34
(lp1914
(I01
g322
tp1915
a(I00
g452
tp1916
asg22
Nsbsg22
Nsba(irule
Rule
p1917
(dp1918
g15
(irule
Guard
p1919
(dp1920
g18
I00
sg19
(lp1921
sg21
I00
sg22
Nsg23
I00
sg24
S'L'
sbsg25
(irule
ConstantPhoneme
p1922
(dp1923
S'p'
V\u0259
sbsg28
(irule
Guard
p1924
(dp1925
g18
I01
sg19
(lp1926
(irule
FeatureMatrix
p1927
(dp1928
g34
(lp1929
(I00
g247
tp1930
a(I00
g304
tp1931
asg22
Nsbasg21
I00
sg22
Nsg23
I00
sg24
S'R'
sbsg38
(irule
FeatureMatrix
p1932
(dp1933
g34
(lp1934
sg22
Nsbsg22
Nsba(irule
Rule
p1935
(dp1936
g15
(irule
Guard
p1937
(dp1938
g18
I00
sg19
(lp1939
sg21
I00
sg22
Nsg23
I00
sg24
S'L'
sbsg25
(irule
ConstantPhoneme
p1940
(dp1941
S'p'
V\u0259
sbsg28
(irule
Guard
p1942
(dp1943
g18
I01
sg19
(lp1944
(irule
FeatureMatrix
p1945
(dp1946
g34
(lp1947
sg22
Nsbasg21
I00
sg22
Nsg23
I00
sg24
S'R'
sbsg38
(irule
FeatureMatrix
p1948
(dp1949
g34
(lp1950
(I01
g322
tp1951
a(I00
g247
tp1952
asg22
Nsbsg22
Nsba(irule
Rule
p1953
(dp1954
g15
(irule
Guard
p1955
(dp1956
g18
I00
sg19
(lp1957
sg21
I00
sg22
Nsg23
I00
sg24
S'L'
sbsg25
(irule
ConstantPhoneme
p1958
(dp1959
S'p'
V\u0259
sbsg28
(irule
Guard
p1960
(dp1961
g18
I01
sg19
(lp1962
(irule
FeatureMatrix
p1963
(dp1964
g34
(lp1965
sg22
Nsbasg21
I00
sg22
Nsg23
I00
sg24
S'R'
sbsg38
(irule
FeatureMatrix
p1966
(dp1967
g34
(lp1968
(I01
g322
tp1969
a(I01
g809
tp1970
asg22
Nsbsg22
Nsba(irule
Rule
p1971
(dp1972
g15
(irule
Guard
p1973
(dp1974
g18
I00
sg19
(lp1975
sg21
I00
sg22
Nsg23
I00
sg24
S'L'
sbsg25
(irule
ConstantPhoneme
p1976
(dp1977
S'p'
V\u0259
sbsg28
(irule
Guard
p1978
(dp1979
g18
I01
sg19
(lp1980
(irule
FeatureMatrix
p1981
(dp1982
g34
(lp1983
(I00
g283
tp1984
asg22
Nsbasg21
I00
sg22
Nsg23
I00
sg24
S'R'
sbsg38
(irule
FeatureMatrix
p1985
(dp1986
g34
(lp1987
(I00
g678
tp1988
asg22
Nsbsg22
Nsba(irule
Rule
p1989
(dp1990
g15
(irule
Guard
p1991
(dp1992
g18
I00
sg19
(lp1993
sg21
I00
sg22
Nsg23
I00
sg24
S'L'
sbsg25
(irule
ConstantPhoneme
p1994
(dp1995
S'p'
V\u0259
sbsg28
(irule
Guard
p1996
(dp1997
g18
I01
sg19
(lp1998
(irule
FeatureMatrix
p1999
(dp2000
g34
(lp2001
(I00
g265
tp2002
asg22
Nsbasg21
I00
sg22
Nsg23
I00
sg24
S'R'
sbsg38
(irule
FeatureMatrix
p2003
(dp2004
g34
(lp2005
(I01
g809
tp2006
asg22
Nsbsg22
Nsba(irule
Rule
p2007
(dp2008
g15
(irule
Guard
p2009
(dp2010
g18
I00
sg19
(lp2011
sg21
I00
sg22
Nsg23
I00
sg24
S'L'
sbsg25
(irule
ConstantPhoneme
p2012
(dp2013
S'p'
V\u0259
sbsg28
(irule
Guard
p2014
(dp2015
g18
I01
sg19
(lp2016
(irule
FeatureMatrix
p2017
(dp2018
g34
(lp2019
sg22
Nsbasg21
I00
sg22
Nsg23
I00
sg24
S'R'
sbsg38
(irule
FeatureMatrix
p2020
(dp2021
g34
(lp2022
(I00
g1104
tp2023
a(I01
g304
tp2024
asg22
Nsbsg22
Nsbaa(lp2025
(irule
Rule
p2026
(dp2027
g15
(irule
Guard
p2028
(dp2029
g18
I00
sg19
(lp2030
sg21
I00
sg22
V
sg23
I00
sg24
S'L'
sbsg25
(irule
ConstantPhoneme
p2031
(dp2032
S'p'
V\u0259
sbsg28
(irule
Guard
p2033
(dp2034
g18
I00
sg19
(lp2035
(irule
FeatureMatrix
p2036
(dp2037
g34
(lp2038
sg22
V[  ]
p2039
sba(irule
FeatureMatrix
p2040
(dp2041
g34
(lp2042
(I01
S'tense'
tp2043
asg22
V[ +tense ]
p2044
sbasg21
I00
sg22
V[  ] [ +tense ]
p2045
sg23
I00
sg24
S'R'
sbsg38
(irule
FeatureMatrix
p2046
(dp2047
g34
(lp2048
sg22
V[  ]
p2049
sbsg22
V[  ] ---> \u0259 /  _ [  ] [ +tense ]
p2050
sba(irule
Rule
p2051
(dp2052
g15
(irule
Guard
p2053
(dp2054
g18
I00
sg19
(lp2055
sg21
I00
sg22
Nsg23
I00
sg24
S'L'
sbsg25
(irule
ConstantPhoneme
p2056
(dp2057
S'p'
V\u0259
sbsg28
(irule
Guard
p2058
(dp2059
g18
I00
sg19
(lp2060
(irule
FeatureMatrix
p2061
(dp2062
g34
(lp2063
sg22
Nsba(irule
FeatureMatrix
p2064
(dp2065
g34
(lp2066
(I01
S'highTone'
p2067
tp2068
asg22
Nsbasg21
I00
sg22
Nsg23
I00
sg24
S'R'
sbsg38
(irule
FeatureMatrix
p2069
(dp2070
g34
(lp2071
sg22
Nsbsg22
Nsba(irule
Rule
p2072
(dp2073
g15
(irule
Guard
p2074
(dp2075
g18
I00
sg19
(lp2076
(irule
FeatureMatrix
p2077
(dp2078
g34
(lp2079
sg22
Nsbasg21
I00
sg22
Nsg23
I00
sg24
S'L'
sbsg25
(irule
ConstantPhoneme
p2080
(dp2081
S'p'
V\u0259
sbsg28
(irule
Guard
p2082
(dp2083
g18
I00
sg19
(lp2084
(irule
FeatureMatrix
p2085
(dp2086
g34
(lp2087
sg22
Nsba(irule
FeatureMatrix
p2088
(dp2089
g34
(lp2090
(I01
g2067
tp2091
asg22
Nsbasg21
I00
sg22
Nsg23
I00
sg24
S'R'
sbsg38
(irule
FeatureMatrix
p2092
(dp2093
g34
(lp2094
sg22
Nsbsg22
Nsba(irule
Rule
p2095
(dp2096
g15
(irule
Guard
p2097
(dp2098
g18
I00
sg19
(lp2099
(irule
FeatureMatrix
p2100
(dp2101
g34
(lp2102
sg22
Nsbasg21
I00
sg22
Nsg23
I00
sg24
S'L'
sbsg25
(irule
ConstantPhoneme
p2103
(dp2104
S'p'
V\u0259
sbsg28
(irule
Guard
p2105
(dp2106
g18
I00
sg19
(lp2107
(irule
FeatureMatrix
p2108
(dp2109
g34
(lp2110
sg22
Nsba(irule
FeatureMatrix
p2111
(dp2112
g34
(lp2113
(I01
S'tense'
p2114
tp2115
asg22
Nsbasg21
I00
sg22
Nsg23
I00
sg24
S'R'
sbsg38
(irule
FeatureMatrix
p2116
(dp2117
g34
(lp2118
sg22
Nsbsg22
Nsba(irule
Rule
p2119
(dp2120
g15
(irule
Guard
p2121
(dp2122
g18
I00
sg19
(lp2123
sg21
I00
sg22
Nsg23
I00
sg24
S'L'
sbsg25
(irule
ConstantPhoneme
p2124
(dp2125
S'p'
V\u0259
sbsg28
(irule
Guard
p2126
(dp2127
g18
I00
sg19
(lp2128
(irule
FeatureMatrix
p2129
(dp2130
g34
(lp2131
(I00
S'rounded'
p2132
tp2133
asg22
Nsba(irule
FeatureMatrix
p2134
(dp2135
g34
(lp2136
(I01
g2067
tp2137
asg22
Nsbasg21
I00
sg22
Nsg23
I00
sg24
S'R'
sbsg38
(irule
FeatureMatrix
p2138
(dp2139
g34
(lp2140
sg22
Nsbsg22
Nsba(irule
Rule
p2141
(dp2142
g15
(irule
Guard
p2143
(dp2144
g18
I00
sg19
(lp2145
sg21
I00
sg22
Nsg23
I00
sg24
S'L'
sbsg25
(irule
ConstantPhoneme
p2146
(dp2147
S'p'
V\u0259
sbsg28
(irule
Guard
p2148
(dp2149
g18
I00
sg19
(lp2150
(irule
FeatureMatrix
p2151
(dp2152
g34
(lp2153
(I00
S'vowel'
p2154
tp2155
asg22
Nsba(irule
FeatureMatrix
p2156
(dp2157
g34
(lp2158
(I01
g2067
tp2159
asg22
Nsbasg21
I00
sg22
Nsg23
I00
sg24
S'R'
sbsg38
(irule
FeatureMatrix
p2160
(dp2161
g34
(lp2162
sg22
Nsbsg22
Nsba(irule
Rule
p2163
(dp2164
g15
(irule
Guard
p2165
(dp2166
g18
I00
sg19
(lp2167
sg21
I00
sg22
Nsg23
I00
sg24
S'L'
sbsg25
(irule
ConstantPhoneme
p2168
(dp2169
S'p'
V\u0259
sbsg28
(irule
Guard
p2170
(dp2171
g18
I00
sg19
(lp2172
(irule
FeatureMatrix
p2173
(dp2174
g34
(lp2175
(I00
g2114
tp2176
asg22
Nsba(irule
FeatureMatrix
p2177
(dp2178
g34
(lp2179
(I01
g2067
tp2180
asg22
Nsbasg21
I00
sg22
Nsg23
I00
sg24
S'R'
sbsg38
(irule
FeatureMatrix
p2181
(dp2182
g34
(lp2183
sg22
Nsbsg22
Nsba(irule
Rule
p2184
(dp2185
g15
(irule
Guard
p2186
(dp2187
g18
I00
sg19
(lp2188
sg21
I00
sg22
Nsg23
I00
sg24
S'L'
sbsg25
(irule
ConstantPhoneme
p2189
(dp2190
S'p'
V\u0259
sbsg28
(irule
Guard
p2191
(dp2192
g18
I00
sg19
(lp2193
(irule
FeatureMatrix
p2194
(dp2195
g34
(lp2196
(I00
g2132
tp2197
asg22
Nsba(irule
FeatureMatrix
p2198
(dp2199
g34
(lp2200
(I01
g2114
tp2201
asg22
Nsbasg21
I00
sg22
Nsg23
I00
sg24
S'R'
sbsg38
(irule
FeatureMatrix
p2202
(dp2203
g34
(lp2204
sg22
Nsbsg22
Nsba(irule
Rule
p2205
(dp2206
g15
(irule
Guard
p2207
(dp2208
g18
I00
sg19
(lp2209
sg21
I00
sg22
Nsg23
I00
sg24
S'L'
sbsg25
(irule
ConstantPhoneme
p2210
(dp2211
S'p'
V\u0259
sbsg28
(irule
Guard
p2212
(dp2213
g18
I00
sg19
(lp2214
(irule
FeatureMatrix
p2215
(dp2216
g34
(lp2217
(I00
S'lateral'
p2218
tp2219
asg22
Nsba(irule
FeatureMatrix
p2220
(dp2221
g34
(lp2222
(I01
g2067
tp2223
asg22
Nsbasg21
I00
sg22
Nsg23
I00
sg24
S'R'
sbsg38
(irule
FeatureMatrix
p2224
(dp2225
g34
(lp2226
sg22
Nsbsg22
Nsba(irule
Rule
p2227
(dp2228
g15
(irule
Guard
p2229
(dp2230
g18
I00
sg19
(lp2231
sg21
I00
sg22
Nsg23
I00
sg24
S'L'
sbsg25
(irule
ConstantPhoneme
p2232
(dp2233
S'p'
V\u0259
sbsg28
(irule
Guard
p2234
(dp2235
g18
I00
sg19
(lp2236
(irule
FeatureMatrix
p2237
(dp2238
g34
(lp2239
(I00
g2067
tp2240
asg22
Nsba(irule
FeatureMatrix
p2241
(dp2242
g34
(lp2243
(I01
g2067
tp2244
asg22
Nsbasg21
I00
sg22
Nsg23
I00
sg24
S'R'
sbsg38
(irule
FeatureMatrix
p2245
(dp2246
g34
(lp2247
sg22
Nsbsg22
Nsba(irule
Rule
p2248
(dp2249
g15
(irule
Guard
p2250
(dp2251
g18
I00
sg19
(lp2252
sg21
I00
sg22
Nsg23
I00
sg24
S'L'
sbsg25
(irule
ConstantPhoneme
p2253
(dp2254
S'p'
V\u0259
sbsg28
(irule
Guard
p2255
(dp2256
g18
I00
sg19
(lp2257
(irule
FeatureMatrix
p2258
(dp2259
g34
(lp2260
sg22
Nsba(irule
FeatureMatrix
p2261
(dp2262
g34
(lp2263
(I00
S'anterior'
p2264
tp2265
a(I01
g2067
tp2266
asg22
Nsbasg21
I00
sg22
Nsg23
I00
sg24
S'R'
sbsg38
(irule
FeatureMatrix
p2267
(dp2268
g34
(lp2269
sg22
Nsbsg22
Nsba(irule
Rule
p2270
(dp2271
g15
(irule
Guard
p2272
(dp2273
g18
I00
sg19
(lp2274
sg21
I00
sg22
Nsg23
I00
sg24
S'L'
sbsg25
(irule
ConstantPhoneme
p2275
(dp2276
S'p'
V\u0259
sbsg28
(irule
Guard
p2277
(dp2278
g18
I00
sg19
(lp2279
(irule
FeatureMatrix
p2280
(dp2281
g34
(lp2282
sg22
Nsba(irule
FeatureMatrix
p2283
(dp2284
g34
(lp2285
(I01
g2067
tp2286
asg22
Nsbasg21
I00
sg22
Nsg23
I00
sg24
S'R'
sbsg38
(irule
FeatureMatrix
p2287
(dp2288
g34
(lp2289
(I01
S'voice'
p2290
tp2291
asg22
Nsbsg22
Nsba(irule
Rule
p2292
(dp2293
g15
(irule
Guard
p2294
(dp2295
g18
I00
sg19
(lp2296
sg21
I00
sg22
Nsg23
I00
sg24
S'L'
sbsg25
(irule
ConstantPhoneme
p2297
(dp2298
S'p'
V\u0259
sbsg28
(irule
Guard
p2299
(dp2300
g18
I00
sg19
(lp2301
(irule
FeatureMatrix
p2302
(dp2303
g34
(lp2304
sg22
Nsba(irule
FeatureMatrix
p2305
(dp2306
g34
(lp2307
(I01
g2067
tp2308
a(I01
g2290
tp2309
asg22
Nsbasg21
I00
sg22
Nsg23
I00
sg24
S'R'
sbsg38
(irule
FeatureMatrix
p2310
(dp2311
g34
(lp2312
sg22
Nsbsg22
Nsba(irule
Rule
p2313
(dp2314
g15
(irule
Guard
p2315
(dp2316
g18
I00
sg19
(lp2317
sg21
I00
sg22
Nsg23
I00
sg24
S'L'
sbsg25
(irule
ConstantPhoneme
p2318
(dp2319
S'p'
V\u0259
sbsg28
(irule
Guard
p2320
(dp2321
g18
I00
sg19
(lp2322
(irule
FeatureMatrix
p2323
(dp2324
g34
(lp2325
sg22
Nsba(irule
FeatureMatrix
p2326
(dp2327
g34
(lp2328
(I01
g2067
tp2329
a(I00
S'coronal'
p2330
tp2331
asg22
Nsbasg21
I00
sg22
Nsg23
I00
sg24
S'R'
sbsg38
(irule
FeatureMatrix
p2332
(dp2333
g34
(lp2334
sg22
Nsbsg22
Nsba(irule
Rule
p2335
(dp2336
g15
(irule
Guard
p2337
(dp2338
g18
I00
sg19
(lp2339
sg21
I00
sg22
Nsg23
I00
sg24
S'L'
sbsg25
(irule
ConstantPhoneme
p2340
(dp2341
S'p'
V\u0259
sbsg28
(irule
Guard
p2342
(dp2343
g18
I00
sg19
(lp2344
(irule
FeatureMatrix
p2345
(dp2346
g34
(lp2347
sg22
Nsba(irule
FeatureMatrix
p2348
(dp2349
g34
(lp2350
(I01
g2067
tp2351
a(I01
S'sonorant'
p2352
tp2353
asg22
Nsbasg21
I00
sg22
Nsg23
I00
sg24
S'R'
sbsg38
(irule
FeatureMatrix
p2354
(dp2355
g34
(lp2356
sg22
Nsbsg22
Nsba(irule
Rule
p2357
(dp2358
g15
(irule
Guard
p2359
(dp2360
g18
I00
sg19
(lp2361
sg21
I00
sg22
Nsg23
I00
sg24
S'L'
sbsg25
(irule
ConstantPhoneme
p2362
(dp2363
S'p'
V\u0259
sbsg28
(irule
Guard
p2364
(dp2365
g18
I00
sg19
(lp2366
(irule
FeatureMatrix
p2367
(dp2368
g34
(lp2369
(I00
g2218
tp2370
asg22
Nsba(irule
FeatureMatrix
p2371
(dp2372
g34
(lp2373
(I01
g2114
tp2374
asg22
Nsbasg21
I00
sg22
Nsg23
I00
sg24
S'R'
sbsg38
(irule
FeatureMatrix
p2375
(dp2376
g34
(lp2377
sg22
Nsbsg22
Nsba(irule
Rule
p2378
(dp2379
g15
(irule
Guard
p2380
(dp2381
g18
I00
sg19
(lp2382
sg21
I00
sg22
Nsg23
I00
sg24
S'L'
sbsg25
(irule
ConstantPhoneme
p2383
(dp2384
S'p'
V\u0259
sbsg28
(irule
Guard
p2385
(dp2386
g18
I00
sg19
(lp2387
(irule
FeatureMatrix
p2388
(dp2389
g34
(lp2390
(I00
g2067
tp2391
asg22
Nsba(irule
FeatureMatrix
p2392
(dp2393
g34
(lp2394
(I01
g2114
tp2395
asg22
Nsbasg21
I00
sg22
Nsg23
I00
sg24
S'R'
sbsg38
(irule
FeatureMatrix
p2396
(dp2397
g34
(lp2398
sg22
Nsbsg22
Nsba(irule
Rule
p2399
(dp2400
g15
(irule
Guard
p2401
(dp2402
g18
I00
sg19
(lp2403
sg21
I00
sg22
Nsg23
I00
sg24
S'L'
sbsg25
(irule
ConstantPhoneme
p2404
(dp2405
S'p'
V\u0259
sbsg28
(irule
Guard
p2406
(dp2407
g18
I00
sg19
(lp2408
(irule
FeatureMatrix
p2409
(dp2410
g34
(lp2411
(I00
g2114
tp2412
asg22
Nsba(irule
FeatureMatrix
p2413
(dp2414
g34
(lp2415
(I01
g2114
tp2416
asg22
Nsbasg21
I00
sg22
Nsg23
I00
sg24
S'R'
sbsg38
(irule
FeatureMatrix
p2417
(dp2418
g34
(lp2419
sg22
Nsbsg22
Nsba(irule
Rule
p2420
(dp2421
g15
(irule
Guard
p2422
(dp2423
g18
I00
sg19
(lp2424
sg21
I00
sg22
Nsg23
I00
sg24
S'L'
sbsg25
(irule
ConstantPhoneme
p2425
(dp2426
S'p'
V\u0259
sbsg28
(irule
Guard
p2427
(dp2428
g18
I00
sg19
(lp2429
(irule
FeatureMatrix
p2430
(dp2431
g34
(lp2432
sg22
Nsba(irule
FeatureMatrix
p2433
(dp2434
g34
(lp2435
(I01
g2067
tp2436
asg22
Nsbasg21
I00
sg22
Nsg23
I00
sg24
S'R'
sbsg38
(irule
FeatureMatrix
p2437
(dp2438
g34
(lp2439
(I00
S'sibilant'
p2440
tp2441
asg22
Nsbsg22
Nsba(irule
Rule
p2442
(dp2443
g15
(irule
Guard
p2444
(dp2445
g18
I00
sg19
(lp2446
sg21
I00
sg22
Nsg23
I00
sg24
S'L'
sbsg25
(irule
ConstantPhoneme
p2447
(dp2448
S'p'
V\u0259
sbsg28
(irule
Guard
p2449
(dp2450
g18
I00
sg19
(lp2451
(irule
FeatureMatrix
p2452
(dp2453
g34
(lp2454
sg22
Nsba(irule
FeatureMatrix
p2455
(dp2456
g34
(lp2457
(I01
g2114
tp2458
asg22
Nsbasg21
I00
sg22
Nsg23
I00
sg24
S'R'
sbsg38
(irule
FeatureMatrix
p2459
(dp2460
g34
(lp2461
(I01
g2290
tp2462
asg22
Nsbsg22
Nsba(irule
Rule
p2463
(dp2464
g15
(irule
Guard
p2465
(dp2466
g18
I00
sg19
(lp2467
sg21
I00
sg22
Nsg23
I00
sg24
S'L'
sbsg25
(irule
ConstantPhoneme
p2468
(dp2469
S'p'
V\u0259
sbsg28
(irule
Guard
p2470
(dp2471
g18
I00
sg19
(lp2472
(irule
FeatureMatrix
p2473
(dp2474
g34
(lp2475
(I00
g2154
tp2476
asg22
Nsba(irule
FeatureMatrix
p2477
(dp2478
g34
(lp2479
(I01
g2114
tp2480
asg22
Nsbasg21
I00
sg22
Nsg23
I00
sg24
S'R'
sbsg38
(irule
FeatureMatrix
p2481
(dp2482
g34
(lp2483
sg22
Nsbsg22
Nsba(irule
Rule
p2484
(dp2485
g15
(irule
Guard
p2486
(dp2487
g18
I00
sg19
(lp2488
sg21
I00
sg22
Nsg23
I00
sg24
S'L'
sbsg25
(irule
ConstantPhoneme
p2489
(dp2490
S'p'
V\u0259
sbsg28
(irule
Guard
p2491
(dp2492
g18
I00
sg19
(lp2493
(irule
FeatureMatrix
p2494
(dp2495
g34
(lp2496
sg22
Nsba(irule
FeatureMatrix
p2497
(dp2498
g34
(lp2499
(I00
g2218
tp2500
a(I01
g2067
tp2501
asg22
Nsbasg21
I00
sg22
Nsg23
I00
sg24
S'R'
sbsg38
(irule
FeatureMatrix
p2502
(dp2503
g34
(lp2504
sg22
Nsbsg22
Nsba(irule
Rule
p2505
(dp2506
g15
(irule
Guard
p2507
(dp2508
g18
I00
sg19
(lp2509
sg21
I00
sg22
Nsg23
I00
sg24
S'L'
sbsg25
(irule
ConstantPhoneme
p2510
(dp2511
S'p'
V\u0259
sbsg28
(irule
Guard
p2512
(dp2513
g18
I00
sg19
(lp2514
(irule
FeatureMatrix
p2515
(dp2516
g34
(lp2517
sg22
Nsba(irule
FeatureMatrix
p2518
(dp2519
g34
(lp2520
(I01
g2067
tp2521
a(I00
g2440
tp2522
asg22
Nsbasg21
I00
sg22
Nsg23
I00
sg24
S'R'
sbsg38
(irule
FeatureMatrix
p2523
(dp2524
g34
(lp2525
sg22
Nsbsg22
Nsba(irule
Rule
p2526
(dp2527
g15
(irule
Guard
p2528
(dp2529
g18
I00
sg19
(lp2530
sg21
I00
sg22
Nsg23
I00
sg24
S'L'
sbsg25
(irule
ConstantPhoneme
p2531
(dp2532
S'p'
V\u0259
sbsg28
(irule
Guard
p2533
(dp2534
g18
I00
sg19
(lp2535
(irule
FeatureMatrix
p2536
(dp2537
g34
(lp2538
sg22
Nsba(irule
FeatureMatrix
p2539
(dp2540
g34
(lp2541
(I00
S'nasal'
p2542
tp2543
a(I01
g2067
tp2544
asg22
Nsbasg21
I00
sg22
Nsg23
I00
sg24
S'R'
sbsg38
(irule
FeatureMatrix
p2545
(dp2546
g34
(lp2547
sg22
Nsbsg22
Nsba(irule
Rule
p2548
(dp2549
g15
(irule
Guard
p2550
(dp2551
g18
I00
sg19
(lp2552
sg21
I00
sg22
Nsg23
I00
sg24
S'L'
sbsg25
(irule
ConstantPhoneme
p2553
(dp2554
S'p'
V\u0259
sbsg28
(irule
Guard
p2555
(dp2556
g18
I00
sg19
(lp2557
(irule
FeatureMatrix
p2558
(dp2559
g34
(lp2560
sg22
Nsba(irule
FeatureMatrix
p2561
(dp2562
g34
(lp2563
(I01
g2067
tp2564
asg22
Nsbasg21
I00
sg22
Nsg23
I00
sg24
S'R'
sbsg38
(irule
FeatureMatrix
p2565
(dp2566
g34
(lp2567
(I01
g2352
tp2568
asg22
Nsbsg22
Nsba(irule
Rule
p2569
(dp2570
g15
(irule
Guard
p2571
(dp2572
g18
I00
sg19
(lp2573
sg21
I00
sg22
Nsg23
I00
sg24
S'L'
sbsg25
(irule
ConstantPhoneme
p2574
(dp2575
S'p'
V\u0259
sbsg28
(irule
Guard
p2576
(dp2577
g18
I00
sg19
(lp2578
(irule
FeatureMatrix
p2579
(dp2580
g34
(lp2581
sg22
Nsba(irule
FeatureMatrix
p2582
(dp2583
g34
(lp2584
(I00
S'liquid'
p2585
tp2586
a(I01
g2067
tp2587
asg22
Nsbasg21
I00
sg22
Nsg23
I00
sg24
S'R'
sbsg38
(irule
FeatureMatrix
p2588
(dp2589
g34
(lp2590
sg22
Nsbsg22
Nsba(irule
Rule
p2591
(dp2592
g15
(irule
Guard
p2593
(dp2594
g18
I00
sg19
(lp2595
sg21
I00
sg22
Nsg23
I00
sg24
S'L'
sbsg25
(irule
ConstantPhoneme
p2596
(dp2597
S'p'
V\u0259
sbsg28
(irule
Guard
p2598
(dp2599
g18
I00
sg19
(lp2600
(irule
FeatureMatrix
p2601
(dp2602
g34
(lp2603
sg22
Nsba(irule
FeatureMatrix
p2604
(dp2605
g34
(lp2606
(I01
g2067
tp2607
a(I01
g2154
tp2608
asg22
Nsbasg21
I00
sg22
Nsg23
I00
sg24
S'R'
sbsg38
(irule
FeatureMatrix
p2609
(dp2610
g34
(lp2611
sg22
Nsbsg22
Nsba(irule
Rule
p2612
(dp2613
g15
(irule
Guard
p2614
(dp2615
g18
I00
sg19
(lp2616
sg21
I00
sg22
Nsg23
I00
sg24
S'L'
sbsg25
(irule
ConstantPhoneme
p2617
(dp2618
S'p'
V\u0259
sbsg28
(irule
Guard
p2619
(dp2620
g18
I00
sg19
(lp2621
(irule
FeatureMatrix
p2622
(dp2623
g34
(lp2624
sg22
Nsba(irule
FeatureMatrix
p2625
(dp2626
g34
(lp2627
(I01
S'continuant'
p2628
tp2629
a(I01
g2067
tp2630
asg22
Nsbasg21
I00
sg22
Nsg23
I00
sg24
S'R'
sbsg38
(irule
FeatureMatrix
p2631
(dp2632
g34
(lp2633
sg22
Nsbsg22
Nsba(irule
Rule
p2634
(dp2635
g15
(irule
Guard
p2636
(dp2637
g18
I00
sg19
(lp2638
sg21
I00
sg22
Nsg23
I00
sg24
S'L'
sbsg25
(irule
ConstantPhoneme
p2639
(dp2640
S'p'
V\u0259
sbsg28
(irule
Guard
p2641
(dp2642
g18
I00
sg19
(lp2643
(irule
FeatureMatrix
p2644
(dp2645
g34
(lp2646
sg22
Nsba(irule
FeatureMatrix
p2647
(dp2648
g34
(lp2649
(I01
g2067
tp2650
a(I01
g2114
tp2651
asg22
Nsbasg21
I00
sg22
Nsg23
I00
sg24
S'R'
sbsg38
(irule
FeatureMatrix
p2652
(dp2653
g34
(lp2654
sg22
Nsbsg22
Nsba(irule
Rule
p2655
(dp2656
g15
(irule
Guard
p2657
(dp2658
g18
I00
sg19
(lp2659
sg21
I00
sg22
Nsg23
I00
sg24
S'L'
sbsg25
(irule
ConstantPhoneme
p2660
(dp2661
S'p'
V\u0259
sbsg28
(irule
Guard
p2662
(dp2663
g18
I00
sg19
(lp2664
(irule
FeatureMatrix
p2665
(dp2666
g34
(lp2667
sg22
Nsba(irule
FeatureMatrix
p2668
(dp2669
g34
(lp2670
(I01
g2114
tp2671
asg22
Nsbasg21
I00
sg22
Nsg23
I00
sg24
S'R'
sbsg38
(irule
FeatureMatrix
p2672
(dp2673
g34
(lp2674
(I00
g2440
tp2675
asg22
Nsbsg22
Nsba(irule
Rule
p2676
(dp2677
g15
(irule
Guard
p2678
(dp2679
g18
I00
sg19
(lp2680
sg21
I00
sg22
Nsg23
I00
sg24
S'L'
sbsg25
(irule
ConstantPhoneme
p2681
(dp2682
S'p'
V\u0259
sbsg28
(irule
Guard
p2683
(dp2684
g18
I00
sg19
(lp2685
(irule
FeatureMatrix
p2686
(dp2687
g34
(lp2688
sg22
Nsba(irule
FeatureMatrix
p2689
(dp2690
g34
(lp2691
(I00
g2218
tp2692
a(I01
g2114
tp2693
asg22
Nsbasg21
I00
sg22
Nsg23
I00
sg24
S'R'
sbsg38
(irule
FeatureMatrix
p2694
(dp2695
g34
(lp2696
sg22
Nsbsg22
Nsba(irule
Rule
p2697
(dp2698
g15
(irule
Guard
p2699
(dp2700
g18
I00
sg19
(lp2701
sg21
I00
sg22
Nsg23
I00
sg24
S'L'
sbsg25
(irule
ConstantPhoneme
p2702
(dp2703
S'p'
V\u0259
sbsg28
(irule
Guard
p2704
(dp2705
g18
I00
sg19
(lp2706
(irule
FeatureMatrix
p2707
(dp2708
g34
(lp2709
sg22
Nsba(irule
FeatureMatrix
p2710
(dp2711
g34
(lp2712
(I00
g2264
tp2713
a(I01
g2114
tp2714
asg22
Nsbasg21
I00
sg22
Nsg23
I00
sg24
S'R'
sbsg38
(irule
FeatureMatrix
p2715
(dp2716
g34
(lp2717
sg22
Nsbsg22
Nsba(irule
Rule
p2718
(dp2719
g15
(irule
Guard
p2720
(dp2721
g18
I00
sg19
(lp2722
sg21
I00
sg22
Nsg23
I00
sg24
S'L'
sbsg25
(irule
ConstantPhoneme
p2723
(dp2724
S'p'
V\u0259
sbsg28
(irule
Guard
p2725
(dp2726
g18
I00
sg19
(lp2727
(irule
FeatureMatrix
p2728
(dp2729
g34
(lp2730
sg22
Nsba(irule
FeatureMatrix
p2731
(dp2732
g34
(lp2733
(I00
g2542
tp2734
a(I01
g2114
tp2735
asg22
Nsbasg21
I00
sg22
Nsg23
I00
sg24
S'R'
sbsg38
(irule
FeatureMatrix
p2736
(dp2737
g34
(lp2738
sg22
Nsbsg22
Nsba(irule
Rule
p2739
(dp2740
g15
(irule
Guard
p2741
(dp2742
g18
I00
sg19
(lp2743
sg21
I00
sg22
Nsg23
I00
sg24
S'L'
sbsg25
(irule
ConstantPhoneme
p2744
(dp2745
S'p'
V\u0259
sbsg28
(irule
Guard
p2746
(dp2747
g18
I00
sg19
(lp2748
(irule
FeatureMatrix
p2749
(dp2750
g34
(lp2751
sg22
Nsba(irule
FeatureMatrix
p2752
(dp2753
g34
(lp2754
(I01
g2628
tp2755
a(I01
g2114
tp2756
asg22
Nsbasg21
I00
sg22
Nsg23
I00
sg24
S'R'
sbsg38
(irule
FeatureMatrix
p2757
(dp2758
g34
(lp2759
sg22
Nsbsg22
Nsba(irule
Rule
p2760
(dp2761
g15
(irule
Guard
p2762
(dp2763
g18
I00
sg19
(lp2764
sg21
I00
sg22
Nsg23
I00
sg24
S'L'
sbsg25
(irule
ConstantPhoneme
p2765
(dp2766
S'p'
V\u0259
sbsg28
(irule
Guard
p2767
(dp2768
g18
I00
sg19
(lp2769
(irule
FeatureMatrix
p2770
(dp2771
g34
(lp2772
sg22
Nsba(irule
FeatureMatrix
p2773
(dp2774
g34
(lp2775
(I01
g2114
tp2776
a(I01
g2290
tp2777
asg22
Nsbasg21
I00
sg22
Nsg23
I00
sg24
S'R'
sbsg38
(irule
FeatureMatrix
p2778
(dp2779
g34
(lp2780
sg22
Nsbsg22
Nsba(irule
Rule
p2781
(dp2782
g15
(irule
Guard
p2783
(dp2784
g18
I00
sg19
(lp2785
sg21
I00
sg22
Nsg23
I00
sg24
S'L'
sbsg25
(irule
ConstantPhoneme
p2786
(dp2787
S'p'
V\u0259
sbsg28
(irule
Guard
p2788
(dp2789
g18
I00
sg19
(lp2790
(irule
FeatureMatrix
p2791
(dp2792
g34
(lp2793
sg22
Nsba(irule
FeatureMatrix
p2794
(dp2795
g34
(lp2796
(I00
g2585
tp2797
a(I01
g2114
tp2798
asg22
Nsbasg21
I00
sg22
Nsg23
I00
sg24
S'R'
sbsg38
(irule
FeatureMatrix
p2799
(dp2800
g34
(lp2801
sg22
Nsbsg22
Nsba(irule
Rule
p2802
(dp2803
g15
(irule
Guard
p2804
(dp2805
g18
I00
sg19
(lp2806
sg21
I00
sg22
Nsg23
I00
sg24
S'L'
sbsg25
(irule
ConstantPhoneme
p2807
(dp2808
S'p'
V\u0259
sbsg28
(irule
Guard
p2809
(dp2810
g18
I00
sg19
(lp2811
(irule
FeatureMatrix
p2812
(dp2813
g34
(lp2814
sg22
Nsba(irule
FeatureMatrix
p2815
(dp2816
g34
(lp2817
(I01
g2114
tp2818
a(I00
g2440
tp2819
asg22
Nsbasg21
I00
sg22
Nsg23
I00
sg24
S'R'
sbsg38
(irule
FeatureMatrix
p2820
(dp2821
g34
(lp2822
sg22
Nsbsg22
Nsba(irule
Rule
p2823
(dp2824
g15
(irule
Guard
p2825
(dp2826
g18
I00
sg19
(lp2827
sg21
I00
sg22
Nsg23
I00
sg24
S'L'
sbsg25
(irule
ConstantPhoneme
p2828
(dp2829
S'p'
V\u0259
sbsg28
(irule
Guard
p2830
(dp2831
g18
I00
sg19
(lp2832
(irule
FeatureMatrix
p2833
(dp2834
g34
(lp2835
sg22
Nsba(irule
FeatureMatrix
p2836
(dp2837
g34
(lp2838
(I01
g2352
tp2839
a(I01
g2114
tp2840
asg22
Nsbasg21
I00
sg22
Nsg23
I00
sg24
S'R'
sbsg38
(irule
FeatureMatrix
p2841
(dp2842
g34
(lp2843
sg22
Nsbsg22
Nsba(irule
Rule
p2844
(dp2845
g15
(irule
Guard
p2846
(dp2847
g18
I00
sg19
(lp2848
sg21
I00
sg22
Nsg23
I00
sg24
S'L'
sbsg25
(irule
ConstantPhoneme
p2849
(dp2850
S'p'
V\u0259
sbsg28
(irule
Guard
p2851
(dp2852
g18
I00
sg19
(lp2853
(irule
FeatureMatrix
p2854
(dp2855
g34
(lp2856
sg22
Nsba(irule
FeatureMatrix
p2857
(dp2858
g34
(lp2859
(I01
g2114
tp2860
asg22
Nsbasg21
I00
sg22
Nsg23
I00
sg24
S'R'
sbsg38
(irule
FeatureMatrix
p2861
(dp2862
g34
(lp2863
(I01
g2352
tp2864
asg22
Nsbsg22
Nsba(irule
Rule
p2865
(dp2866
g15
(irule
Guard
p2867
(dp2868
g18
I00
sg19
(lp2869
sg21
I00
sg22
Nsg23
I00
sg24
S'L'
sbsg25
(irule
ConstantPhoneme
p2870
(dp2871
S'p'
V\u0259
sbsg28
(irule
Guard
p2872
(dp2873
g18
I00
sg19
(lp2874
(irule
FeatureMatrix
p2875
(dp2876
g34
(lp2877
sg22
Nsba(irule
FeatureMatrix
p2878
(dp2879
g34
(lp2880
(I01
g2114
tp2881
a(I01
g2154
tp2882
asg22
Nsbasg21
I00
sg22
Nsg23
I00
sg24
S'R'
sbsg38
(irule
FeatureMatrix
p2883
(dp2884
g34
(lp2885
sg22
Nsbsg22
Nsba(irule
Rule
p2886
(dp2887
g15
(irule
Guard
p2888
(dp2889
g18
I00
sg19
(lp2890
sg21
I00
sg22
Nsg23
I00
sg24
S'L'
sbsg25
(irule
ConstantPhoneme
p2891
(dp2892
S'p'
V\u0259
sbsg28
(irule
Guard
p2893
(dp2894
g18
I00
sg19
(lp2895
(irule
FeatureMatrix
p2896
(dp2897
g34
(lp2898
sg22
Nsba(irule
FeatureMatrix
p2899
(dp2900
g34
(lp2901
(I00
g2330
tp2902
a(I01
g2114
tp2903
asg22
Nsbasg21
I00
sg22
Nsg23
I00
sg24
S'R'
sbsg38
(irule
FeatureMatrix
p2904
(dp2905
g34
(lp2906
sg22
Nsbsg22
Nsba(irule
Rule
p2907
(dp2908
g15
(irule
Guard
p2909
(dp2910
g18
I00
sg19
(lp2911
sg21
I00
sg22
Nsg23
I00
sg24
S'L'
sbsg25
(irule
ConstantPhoneme
p2912
(dp2913
S'p'
V\u0259
sbsg28
(irule
Guard
p2914
(dp2915
g18
I00
sg19
(lp2916
(irule
FeatureMatrix
p2917
(dp2918
g34
(lp2919
sg22
Nsba(irule
FeatureMatrix
p2920
(dp2921
g34
(lp2922
(I01
g2067
tp2923
asg22
Nsbasg21
I00
sg22
Nsg23
I00
sg24
S'R'
sbsg38
(irule
FeatureMatrix
p2924
(dp2925
g34
(lp2926
(I00
g2542
tp2927
asg22
Nsbsg22
Nsba(irule
Rule
p2928
(dp2929
g15
(irule
Guard
p2930
(dp2931
g18
I00
sg19
(lp2932
sg21
I00
sg22
Nsg23
I00
sg24
S'L'
sbsg25
(irule
ConstantPhoneme
p2933
(dp2934
S'p'
V\u0259
sbsg28
(irule
Guard
p2935
(dp2936
g18
I00
sg19
(lp2937
(irule
FeatureMatrix
p2938
(dp2939
g34
(lp2940
sg22
Nsba(irule
FeatureMatrix
p2941
(dp2942
g34
(lp2943
(I01
g2114
tp2944
asg22
Nsbasg21
I00
sg22
Nsg23
I00
sg24
S'R'
sbsg38
(irule
FeatureMatrix
p2945
(dp2946
g34
(lp2947
(I00
g2542
tp2948
asg22
Nsbsg22
Nsba(irule
Rule
p2949
(dp2950
g15
(irule
Guard
p2951
(dp2952
g18
I00
sg19
(lp2953
sg21
I00
sg22
Nsg23
I00
sg24
S'L'
sbsg25
(irule
ConstantPhoneme
p2954
(dp2955
S'p'
V\u0259
sbsg28
(irule
Guard
p2956
(dp2957
g18
I00
sg19
(lp2958
(irule
FeatureMatrix
p2959
(dp2960
g34
(lp2961
sg22
Nsba(irule
FeatureMatrix
p2962
(dp2963
g34
(lp2964
(I01
g2067
tp2965
asg22
Nsbasg21
I00
sg22
Nsg23
I00
sg24
S'R'
sbsg38
(irule
FeatureMatrix
p2966
(dp2967
g34
(lp2968
(I00
g2264
tp2969
asg22
Nsbsg22
Nsba(irule
Rule
p2970
(dp2971
g15
(irule
Guard
p2972
(dp2973
g18
I00
sg19
(lp2974
sg21
I00
sg22
Nsg23
I00
sg24
S'L'
sbsg25
(irule
ConstantPhoneme
p2975
(dp2976
S'p'
V\u0259
sbsg28
(irule
Guard
p2977
(dp2978
g18
I00
sg19
(lp2979
(irule
FeatureMatrix
p2980
(dp2981
g34
(lp2982
sg22
Nsba(irule
FeatureMatrix
p2983
(dp2984
g34
(lp2985
(I01
g2114
tp2986
asg22
Nsbasg21
I00
sg22
Nsg23
I00
sg24
S'R'
sbsg38
(irule
FeatureMatrix
p2987
(dp2988
g34
(lp2989
(I00
g2264
tp2990
asg22
Nsbsg22
Nsba(irule
Rule
p2991
(dp2992
g15
(irule
Guard
p2993
(dp2994
g18
I00
sg19
(lp2995
sg21
I00
sg22
Nsg23
I00
sg24
S'L'
sbsg25
(irule
ConstantPhoneme
p2996
(dp2997
S'p'
V\u0259
sbsg28
(irule
Guard
p2998
(dp2999
g18
I00
sg19
(lp3000
(irule
FeatureMatrix
p3001
(dp3002
g34
(lp3003
sg22
Nsba(irule
FeatureMatrix
p3004
(dp3005
g34
(lp3006
(I01
g2067
tp3007
asg22
Nsbasg21
I00
sg22
Nsg23
I00
sg24
S'R'
sbsg38
(irule
FeatureMatrix
p3008
(dp3009
g34
(lp3010
(I01
g2628
tp3011
asg22
Nsbsg22
Nsba(irule
Rule
p3012
(dp3013
g15
(irule
Guard
p3014
(dp3015
g18
I00
sg19
(lp3016
sg21
I00
sg22
Nsg23
I00
sg24
S'L'
sbsg25
(irule
ConstantPhoneme
p3017
(dp3018
S'p'
V\u0259
sbsg28
(irule
Guard
p3019
(dp3020
g18
I00
sg19
(lp3021
(irule
FeatureMatrix
p3022
(dp3023
g34
(lp3024
sg22
Nsba(irule
FeatureMatrix
p3025
(dp3026
g34
(lp3027
(I01
g2114
tp3028
asg22
Nsbasg21
I00
sg22
Nsg23
I00
sg24
S'R'
sbsg38
(irule
FeatureMatrix
p3029
(dp3030
g34
(lp3031
(I01
g2628
tp3032
asg22
Nsbsg22
Nsba(irule
Rule
p3033
(dp3034
g15
(irule
Guard
p3035
(dp3036
g18
I00
sg19
(lp3037
(irule
FeatureMatrix
p3038
(dp3039
g34
(lp3040
(I00
g2154
tp3041
asg22
Nsbasg21
I00
sg22
Nsg23
I00
sg24
S'L'
sbsg25
(irule
ConstantPhoneme
p3042
(dp3043
S'p'
V\u0259
sbsg28
(irule
Guard
p3044
(dp3045
g18
I00
sg19
(lp3046
(irule
FeatureMatrix
p3047
(dp3048
g34
(lp3049
sg22
Nsba(irule
FeatureMatrix
p3050
(dp3051
g34
(lp3052
(I01
g2067
tp3053
asg22
Nsbasg21
I00
sg22
Nsg23
I00
sg24
S'R'
sbsg38
(irule
FeatureMatrix
p3054
(dp3055
g34
(lp3056
sg22
Nsbsg22
Nsba(irule
Rule
p3057
(dp3058
g15
(irule
Guard
p3059
(dp3060
g18
I00
sg19
(lp3061
(irule
FeatureMatrix
p3062
(dp3063
g34
(lp3064
sg22
Nsbasg21
I00
sg22
Nsg23
I00
sg24
S'L'
sbsg25
(irule
ConstantPhoneme
p3065
(dp3066
S'p'
V\u0259
sbsg28
(irule
Guard
p3067
(dp3068
g18
I00
sg19
(lp3069
(irule
FeatureMatrix
p3070
(dp3071
g34
(lp3072
(I00
g2218
tp3073
asg22
Nsba(irule
FeatureMatrix
p3074
(dp3075
g34
(lp3076
(I01
g2067
tp3077
asg22
Nsbasg21
I00
sg22
Nsg23
I00
sg24
S'R'
sbsg38
(irule
FeatureMatrix
p3078
(dp3079
g34
(lp3080
sg22
Nsbsg22
Nsba(irule
Rule
p3081
(dp3082
g15
(irule
Guard
p3083
(dp3084
g18
I00
sg19
(lp3085
(irule
FeatureMatrix
p3086
(dp3087
g34
(lp3088
sg22
Nsbasg21
I00
sg22
Nsg23
I00
sg24
S'L'
sbsg25
(irule
ConstantPhoneme
p3089
(dp3090
S'p'
V\u0259
sbsg28
(irule
Guard
p3091
(dp3092
g18
I00
sg19
(lp3093
(irule
FeatureMatrix
p3094
(dp3095
g34
(lp3096
(I00
g2218
tp3097
asg22
Nsba(irule
FeatureMatrix
p3098
(dp3099
g34
(lp3100
(I01
g2114
tp3101
asg22
Nsbasg21
I00
sg22
Nsg23
I00
sg24
S'R'
sbsg38
(irule
FeatureMatrix
p3102
(dp3103
g34
(lp3104
sg22
Nsbsg22
Nsba(irule
Rule
p3105
(dp3106
g15
(irule
Guard
p3107
(dp3108
g18
I00
sg19
(lp3109
(irule
FeatureMatrix
p3110
(dp3111
g34
(lp3112
(I00
g2132
tp3113
asg22
Nsbasg21
I00
sg22
Nsg23
I00
sg24
S'L'
sbsg25
(irule
ConstantPhoneme
p3114
(dp3115
S'p'
V\u0259
sbsg28
(irule
Guard
p3116
(dp3117
g18
I00
sg19
(lp3118
(irule
FeatureMatrix
p3119
(dp3120
g34
(lp3121
sg22
Nsba(irule
FeatureMatrix
p3122
(dp3123
g34
(lp3124
(I01
g2067
tp3125
asg22
Nsbasg21
I00
sg22
Nsg23
I00
sg24
S'R'
sbsg38
(irule
FeatureMatrix
p3126
(dp3127
g34
(lp3128
sg22
Nsbsg22
Nsba(irule
Rule
p3129
(dp3130
g15
(irule
Guard
p3131
(dp3132
g18
I00
sg19
(lp3133
(irule
FeatureMatrix
p3134
(dp3135
g34
(lp3136
sg22
Nsbasg21
I00
sg22
Nsg23
I00
sg24
S'L'
sbsg25
(irule
ConstantPhoneme
p3137
(dp3138
S'p'
V\u0259
sbsg28
(irule
Guard
p3139
(dp3140
g18
I00
sg19
(lp3141
(irule
FeatureMatrix
p3142
(dp3143
g34
(lp3144
(I00
g2132
tp3145
asg22
Nsba(irule
FeatureMatrix
p3146
(dp3147
g34
(lp3148
(I01
g2067
tp3149
asg22
Nsbasg21
I00
sg22
Nsg23
I00
sg24
S'R'
sbsg38
(irule
FeatureMatrix
p3150
(dp3151
g34
(lp3152
sg22
Nsbsg22
Nsba(irule
Rule
p3153
(dp3154
g15
(irule
Guard
p3155
(dp3156
g18
I00
sg19
(lp3157
(irule
FeatureMatrix
p3158
(dp3159
g34
(lp3160
sg22
Nsbasg21
I00
sg22
Nsg23
I00
sg24
S'L'
sbsg25
(irule
ConstantPhoneme
p3161
(dp3162
S'p'
V\u0259
sbsg28
(irule
Guard
p3163
(dp3164
g18
I00
sg19
(lp3165
(irule
FeatureMatrix
p3166
(dp3167
g34
(lp3168
(I00
g2067
tp3169
asg22
Nsba(irule
FeatureMatrix
p3170
(dp3171
g34
(lp3172
(I01
g2067
tp3173
asg22
Nsbasg21
I00
sg22
Nsg23
I00
sg24
S'R'
sbsg38
(irule
FeatureMatrix
p3174
(dp3175
g34
(lp3176
sg22
Nsbsg22
Nsba(irule
Rule
p3177
(dp3178
g15
(irule
Guard
p3179
(dp3180
g18
I00
sg19
(lp3181
sg21
I00
sg22
Nsg23
I00
sg24
S'L'
sbsg25
(irule
ConstantPhoneme
p3182
(dp3183
S'p'
V\u0259
sbsg28
(irule
Guard
p3184
(dp3185
g18
I00
sg19
(lp3186
(irule
FeatureMatrix
p3187
(dp3188
g34
(lp3189
(I00
g2218
tp3190
asg22
Nsba(irule
FeatureMatrix
p3191
(dp3192
g34
(lp3193
(I01
g2067
tp3194
asg22
Nsbasg21
I00
sg22
Nsg23
I00
sg24
S'R'
sbsg38
(irule
FeatureMatrix
p3195
(dp3196
g34
(lp3197
(I01
g2352
tp3198
asg22
Nsbsg22
Nsba(irule
Rule
p3199
(dp3200
g15
(irule
Guard
p3201
(dp3202
g18
I00
sg19
(lp3203
(irule
FeatureMatrix
p3204
(dp3205
g34
(lp3206
(I00
g2218
tp3207
asg22
Nsbasg21
I00
sg22
Nsg23
I00
sg24
S'L'
sbsg25
(irule
ConstantPhoneme
p3208
(dp3209
S'p'
V\u0259
sbsg28
(irule
Guard
p3210
(dp3211
g18
I00
sg19
(lp3212
(irule
FeatureMatrix
p3213
(dp3214
g34
(lp3215
sg22
Nsba(irule
FeatureMatrix
p3216
(dp3217
g34
(lp3218
(I01
g2067
tp3219
asg22
Nsbasg21
I00
sg22
Nsg23
I00
sg24
S'R'
sbsg38
(irule
FeatureMatrix
p3220
(dp3221
g34
(lp3222
sg22
Nsbsg22
Nsba(irule
Rule
p3223
(dp3224
g15
(irule
Guard
p3225
(dp3226
g18
I00
sg19
(lp3227
sg21
I00
sg22
Nsg23
I00
sg24
S'L'
sbsg25
(irule
ConstantPhoneme
p3228
(dp3229
S'p'
V\u0259
sbsg28
(irule
Guard
p3230
(dp3231
g18
I00
sg19
(lp3232
(irule
FeatureMatrix
p3233
(dp3234
g34
(lp3235
sg22
Nsba(irule
FeatureMatrix
p3236
(dp3237
g34
(lp3238
(I01
g2067
tp3239
asg22
Nsbasg21
I00
sg22
Nsg23
I00
sg24
S'R'
sbsg38
(irule
FeatureMatrix
p3240
(dp3241
g34
(lp3242
(I01
g2352
tp3243
a(I00
g2440
tp3244
asg22
Nsbsg22
Nsba(irule
Rule
p3245
(dp3246
g15
(irule
Guard
p3247
(dp3248
g18
I00
sg19
(lp3249
(irule
FeatureMatrix
p3250
(dp3251
g34
(lp3252
(I00
g2114
tp3253
asg22
Nsbasg21
I00
sg22
Nsg23
I00
sg24
S'L'
sbsg25
(irule
ConstantPhoneme
p3254
(dp3255
S'p'
V\u0259
sbsg28
(irule
Guard
p3256
(dp3257
g18
I00
sg19
(lp3258
(irule
FeatureMatrix
p3259
(dp3260
g34
(lp3261
sg22
Nsba(irule
FeatureMatrix
p3262
(dp3263
g34
(lp3264
(I01
g2067
tp3265
asg22
Nsbasg21
I00
sg22
Nsg23
I00
sg24
S'R'
sbsg38
(irule
FeatureMatrix
p3266
(dp3267
g34
(lp3268
sg22
Nsbsg22
Nsba(irule
Rule
p3269
(dp3270
g15
(irule
Guard
p3271
(dp3272
g18
I00
sg19
(lp3273
(irule
FeatureMatrix
p3274
(dp3275
g34
(lp3276
(I00
g2154
tp3277
asg22
Nsbasg21
I00
sg22
Nsg23
I00
sg24
S'L'
sbsg25
(irule
ConstantPhoneme
p3278
(dp3279
S'p'
V\u0259
sbsg28
(irule
Guard
p3280
(dp3281
g18
I00
sg19
(lp3282
(irule
FeatureMatrix
p3283
(dp3284
g34
(lp3285
sg22
Nsba(irule
FeatureMatrix
p3286
(dp3287
g34
(lp3288
(I01
g2114
tp3289
asg22
Nsbasg21
I00
sg22
Nsg23
I00
sg24
S'R'
sbsg38
(irule
FeatureMatrix
p3290
(dp3291
g34
(lp3292
sg22
Nsbsg22
Nsba(irule
Rule
p3293
(dp3294
g15
(irule
Guard
p3295
(dp3296
g18
I00
sg19
(lp3297
(irule
FeatureMatrix
p3298
(dp3299
g34
(lp3300
sg22
Nsbasg21
I00
sg22
Nsg23
I00
sg24
S'L'
sbsg25
(irule
ConstantPhoneme
p3301
(dp3302
S'p'
V\u0259
sbsg28
(irule
Guard
p3303
(dp3304
g18
I00
sg19
(lp3305
(irule
FeatureMatrix
p3306
(dp3307
g34
(lp3308
(I00
g2114
tp3309
asg22
Nsba(irule
FeatureMatrix
p3310
(dp3311
g34
(lp3312
(I01
g2067
tp3313
asg22
Nsbasg21
I00
sg22
Nsg23
I00
sg24
S'R'
sbsg38
(irule
FeatureMatrix
p3314
(dp3315
g34
(lp3316
sg22
Nsbsg22
Nsba(irule
Rule
p3317
(dp3318
g15
(irule
Guard
p3319
(dp3320
g18
I00
sg19
(lp3321
(irule
FeatureMatrix
p3322
(dp3323
g34
(lp3324
(I00
g2067
tp3325
asg22
Nsbasg21
I00
sg22
Nsg23
I00
sg24
S'L'
sbsg25
(irule
ConstantPhoneme
p3326
(dp3327
S'p'
V\u0259
sbsg28
(irule
Guard
p3328
(dp3329
g18
I00
sg19
(lp3330
(irule
FeatureMatrix
p3331
(dp3332
g34
(lp3333
sg22
Nsba(irule
FeatureMatrix
p3334
(dp3335
g34
(lp3336
(I01
g2067
tp3337
asg22
Nsbasg21
I00
sg22
Nsg23
I00
sg24
S'R'
sbsg38
(irule
FeatureMatrix
p3338
(dp3339
g34
(lp3340
sg22
Nsbsg22
Nsba(irule
Rule
p3341
(dp3342
g15
(irule
Guard
p3343
(dp3344
g18
I00
sg19
(lp3345
(irule
FeatureMatrix
p3346
(dp3347
g34
(lp3348
(I00
g2114
tp3349
asg22
Nsbasg21
I00
sg22
Nsg23
I00
sg24
S'L'
sbsg25
(irule
ConstantPhoneme
p3350
(dp3351
S'p'
V\u0259
sbsg28
(irule
Guard
p3352
(dp3353
g18
I00
sg19
(lp3354
(irule
FeatureMatrix
p3355
(dp3356
g34
(lp3357
sg22
Nsba(irule
FeatureMatrix
p3358
(dp3359
g34
(lp3360
(I01
g2114
tp3361
asg22
Nsbasg21
I00
sg22
Nsg23
I00
sg24
S'R'
sbsg38
(irule
FeatureMatrix
p3362
(dp3363
g34
(lp3364
sg22
Nsbsg22
Nsba(irule
Rule
p3365
(dp3366
g15
(irule
Guard
p3367
(dp3368
g18
I00
sg19
(lp3369
(irule
FeatureMatrix
p3370
(dp3371
g34
(lp3372
sg22
Nsbasg21
I00
sg22
Nsg23
I00
sg24
S'L'
sbsg25
(irule
ConstantPhoneme
p3373
(dp3374
S'p'
V\u0259
sbsg28
(irule
Guard
p3375
(dp3376
g18
I00
sg19
(lp3377
(irule
FeatureMatrix
p3378
(dp3379
g34
(lp3380
sg22
Nsba(irule
FeatureMatrix
p3381
(dp3382
g34
(lp3383
(I01
g2067
tp3384
asg22
Nsbasg21
I00
sg22
Nsg23
I00
sg24
S'R'
sbsg38
(irule
FeatureMatrix
p3385
(dp3386
g34
(lp3387
(I00
g2440
tp3388
asg22
Nsbsg22
Nsba(irule
Rule
p3389
(dp3390
g15
(irule
Guard
p3391
(dp3392
g18
I00
sg19
(lp3393
(irule
FeatureMatrix
p3394
(dp3395
g34
(lp3396
sg22
Nsbasg21
I00
sg22
Nsg23
I00
sg24
S'L'
sbsg25
(irule
ConstantPhoneme
p3397
(dp3398
S'p'
V\u0259
sbsg28
(irule
Guard
p3399
(dp3400
g18
I00
sg19
(lp3401
(irule
FeatureMatrix
p3402
(dp3403
g34
(lp3404
sg22
Nsba(irule
FeatureMatrix
p3405
(dp3406
g34
(lp3407
(I01
g2067
tp3408
asg22
Nsbasg21
I00
sg22
Nsg23
I00
sg24
S'R'
sbsg38
(irule
FeatureMatrix
p3409
(dp3410
g34
(lp3411
(I01
g2352
tp3412
asg22
Nsbsg22
Nsba(irule
Rule
p3413
(dp3414
g15
(irule
Guard
p3415
(dp3416
g18
I00
sg19
(lp3417
(irule
FeatureMatrix
p3418
(dp3419
g34
(lp3420
sg22
Nsbasg21
I00
sg22
Nsg23
I00
sg24
S'L'
sbsg25
(irule
ConstantPhoneme
p3421
(dp3422
S'p'
V\u0259
sbsg28
(irule
Guard
p3423
(dp3424
g18
I00
sg19
(lp3425
(irule
FeatureMatrix
p3426
(dp3427
g34
(lp3428
sg22
Nsba(irule
FeatureMatrix
p3429
(dp3430
g34
(lp3431
(I01
g2067
tp3432
asg22
Nsbasg21
I00
sg22
Nsg23
I00
sg24
S'R'
sbsg38
(irule
FeatureMatrix
p3433
(dp3434
g34
(lp3435
(I01
g2290
tp3436
asg22
Nsbsg22
Nsba(irule
Rule
p3437
(dp3438
g15
(irule
Guard
p3439
(dp3440
g18
I00
sg19
(lp3441
(irule
FeatureMatrix
p3442
(dp3443
g34
(lp3444
(I00
g2067
tp3445
asg22
Nsbasg21
I00
sg22
Nsg23
I00
sg24
S'L'
sbsg25
(irule
ConstantPhoneme
p3446
(dp3447
S'p'
V\u0259
sbsg28
(irule
Guard
p3448
(dp3449
g18
I00
sg19
(lp3450
(irule
FeatureMatrix
p3451
(dp3452
g34
(lp3453
sg22
Nsba(irule
FeatureMatrix
p3454
(dp3455
g34
(lp3456
(I01
g2114
tp3457
asg22
Nsbasg21
I00
sg22
Nsg23
I00
sg24
S'R'
sbsg38
(irule
FeatureMatrix
p3458
(dp3459
g34
(lp3460
sg22
Nsbsg22
Nsba(irule
Rule
p3461
(dp3462
g15
(irule
Guard
p3463
(dp3464
g18
I00
sg19
(lp3465
(irule
FeatureMatrix
p3466
(dp3467
g34
(lp3468
(I00
g2218
tp3469
asg22
Nsbasg21
I00
sg22
Nsg23
I00
sg24
S'L'
sbsg25
(irule
ConstantPhoneme
p3470
(dp3471
S'p'
V\u0259
sbsg28
(irule
Guard
p3472
(dp3473
g18
I00
sg19
(lp3474
(irule
FeatureMatrix
p3475
(dp3476
g34
(lp3477
sg22
Nsba(irule
FeatureMatrix
p3478
(dp3479
g34
(lp3480
(I01
g2114
tp3481
asg22
Nsbasg21
I00
sg22
Nsg23
I00
sg24
S'R'
sbsg38
(irule
FeatureMatrix
p3482
(dp3483
g34
(lp3484
sg22
Nsbsg22
Nsba(irule
Rule
p3485
(dp3486
g15
(irule
Guard
p3487
(dp3488
g18
I00
sg19
(lp3489
(irule
FeatureMatrix
p3490
(dp3491
g34
(lp3492
sg22
Nsbasg21
I00
sg22
Nsg23
I00
sg24
S'L'
sbsg25
(irule
ConstantPhoneme
p3493
(dp3494
S'p'
V\u0259
sbsg28
(irule
Guard
p3495
(dp3496
g18
I00
sg19
(lp3497
(irule
FeatureMatrix
p3498
(dp3499
g34
(lp3500
(I00
g2132
tp3501
asg22
Nsba(irule
FeatureMatrix
p3502
(dp3503
g34
(lp3504
(I01
g2114
tp3505
asg22
Nsbasg21
I00
sg22
Nsg23
I00
sg24
S'R'
sbsg38
(irule
FeatureMatrix
p3506
(dp3507
g34
(lp3508
sg22
Nsbsg22
Nsba(irule
Rule
p3509
(dp3510
g15
(irule
Guard
p3511
(dp3512
g18
I00
sg19
(lp3513
(irule
FeatureMatrix
p3514
(dp3515
g34
(lp3516
(I00
g2132
tp3517
asg22
Nsbasg21
I00
sg22
Nsg23
I00
sg24
S'L'
sbsg25
(irule
ConstantPhoneme
p3518
(dp3519
S'p'
V\u0259
sbsg28
(irule
Guard
p3520
(dp3521
g18
I00
sg19
(lp3522
(irule
FeatureMatrix
p3523
(dp3524
g34
(lp3525
sg22
Nsba(irule
FeatureMatrix
p3526
(dp3527
g34
(lp3528
(I01
g2114
tp3529
asg22
Nsbasg21
I00
sg22
Nsg23
I00
sg24
S'R'
sbsg38
(irule
FeatureMatrix
p3530
(dp3531
g34
(lp3532
sg22
Nsbsg22
Nsba(irule
Rule
p3533
(dp3534
g15
(irule
Guard
p3535
(dp3536
g18
I00
sg19
(lp3537
(irule
FeatureMatrix
p3538
(dp3539
g34
(lp3540
sg22
Nsbasg21
I00
sg22
Nsg23
I00
sg24
S'L'
sbsg25
(irule
ConstantPhoneme
p3541
(dp3542
S'p'
V\u0259
sbsg28
(irule
Guard
p3543
(dp3544
g18
I00
sg19
(lp3545
(irule
FeatureMatrix
p3546
(dp3547
g34
(lp3548
sg22
Nsba(irule
FeatureMatrix
p3549
(dp3550
g34
(lp3551
(I01
g2067
tp3552
asg22
Nsbasg21
I00
sg22
Nsg23
I00
sg24
S'R'
sbsg38
(irule
FeatureMatrix
p3553
(dp3554
g34
(lp3555
(I00
g2542
tp3556
asg22
Nsbsg22
Nsba(irule
Rule
p3557
(dp3558
g15
(irule
Guard
p3559
(dp3560
g18
I00
sg19
(lp3561
(irule
FeatureMatrix
p3562
(dp3563
g34
(lp3564
sg22
Nsbasg21
I00
sg22
Nsg23
I00
sg24
S'L'
sbsg25
(irule
ConstantPhoneme
p3565
(dp3566
S'p'
V\u0259
sbsg28
(irule
Guard
p3567
(dp3568
g18
I00
sg19
(lp3569
(irule
FeatureMatrix
p3570
(dp3571
g34
(lp3572
sg22
Nsba(irule
FeatureMatrix
p3573
(dp3574
g34
(lp3575
(I01
g2067
tp3576
asg22
Nsbasg21
I00
sg22
Nsg23
I00
sg24
S'R'
sbsg38
(irule
FeatureMatrix
p3577
(dp3578
g34
(lp3579
(I00
g2264
tp3580
asg22
Nsbsg22
Nsba(irule
Rule
p3581
(dp3582
g15
(irule
Guard
p3583
(dp3584
g18
I00
sg19
(lp3585
(irule
FeatureMatrix
p3586
(dp3587
g34
(lp3588
sg22
Nsbasg21
I00
sg22
Nsg23
I00
sg24
S'L'
sbsg25
(irule
ConstantPhoneme
p3589
(dp3590
S'p'
V\u0259
sbsg28
(irule
Guard
p3591
(dp3592
g18
I00
sg19
(lp3593
(irule
FeatureMatrix
p3594
(dp3595
g34
(lp3596
sg22
Nsba(irule
FeatureMatrix
p3597
(dp3598
g34
(lp3599
(I00
g2218
tp3600
a(I01
g2067
tp3601
asg22
Nsbasg21
I00
sg22
Nsg23
I00
sg24
S'R'
sbsg38
(irule
FeatureMatrix
p3602
(dp3603
g34
(lp3604
sg22
Nsbsg22
Nsba(irule
Rule
p3605
(dp3606
g15
(irule
Guard
p3607
(dp3608
g18
I00
sg19
(lp3609
(irule
FeatureMatrix
p3610
(dp3611
g34
(lp3612
sg22
Nsbasg21
I00
sg22
Nsg23
I00
sg24
S'L'
sbsg25
(irule
ConstantPhoneme
p3613
(dp3614
S'p'
V\u0259
sbsg28
(irule
Guard
p3615
(dp3616
g18
I00
sg19
(lp3617
(irule
FeatureMatrix
p3618
(dp3619
g34
(lp3620
sg22
Nsba(irule
FeatureMatrix
p3621
(dp3622
g34
(lp3623
(I01
g2114
tp3624
asg22
Nsbasg21
I00
sg22
Nsg23
I00
sg24
S'R'
sbsg38
(irule
FeatureMatrix
p3625
(dp3626
g34
(lp3627
(I00
g2440
tp3628
asg22
Nsbsg22
Nsba(irule
Rule
p3629
(dp3630
g15
(irule
Guard
p3631
(dp3632
g18
I00
sg19
(lp3633
(irule
FeatureMatrix
p3634
(dp3635
g34
(lp3636
sg22
Nsbasg21
I00
sg22
Nsg23
I00
sg24
S'L'
sbsg25
(irule
ConstantPhoneme
p3637
(dp3638
S'p'
V\u0259
sbsg28
(irule
Guard
p3639
(dp3640
g18
I00
sg19
(lp3641
(irule
FeatureMatrix
p3642
(dp3643
g34
(lp3644
sg22
Nsba(irule
FeatureMatrix
p3645
(dp3646
g34
(lp3647
(I01
g2067
tp3648
asg22
Nsbasg21
I00
sg22
Nsg23
I00
sg24
S'R'
sbsg38
(irule
FeatureMatrix
p3649
(dp3650
g34
(lp3651
(I01
g2628
tp3652
asg22
Nsbsg22
Nsba(irule
Rule
p3653
(dp3654
g15
(irule
Guard
p3655
(dp3656
g18
I00
sg19
(lp3657
(irule
FeatureMatrix
p3658
(dp3659
g34
(lp3660
sg22
Nsbasg21
I00
sg22
Nsg23
I00
sg24
S'L'
sbsg25
(irule
ConstantPhoneme
p3661
(dp3662
S'p'
V\u0259
sbsg28
(irule
Guard
p3663
(dp3664
g18
I00
sg19
(lp3665
(irule
FeatureMatrix
p3666
(dp3667
g34
(lp3668
sg22
Nsba(irule
FeatureMatrix
p3669
(dp3670
g34
(lp3671
(I01
g2114
tp3672
asg22
Nsbasg21
I00
sg22
Nsg23
I00
sg24
S'R'
sbsg38
(irule
FeatureMatrix
p3673
(dp3674
g34
(lp3675
(I01
g2352
tp3676
asg22
Nsbsg22
Nsba(irule
Rule
p3677
(dp3678
g15
(irule
Guard
p3679
(dp3680
g18
I00
sg19
(lp3681
(irule
FeatureMatrix
p3682
(dp3683
g34
(lp3684
sg22
Nsbasg21
I00
sg22
Nsg23
I00
sg24
S'L'
sbsg25
(irule
ConstantPhoneme
p3685
(dp3686
S'p'
V\u0259
sbsg28
(irule
Guard
p3687
(dp3688
g18
I00
sg19
(lp3689
(irule
FeatureMatrix
p3690
(dp3691
g34
(lp3692
(I00
g2154
tp3693
asg22
Nsba(irule
FeatureMatrix
p3694
(dp3695
g34
(lp3696
(I01
g2067
tp3697
asg22
Nsbasg21
I00
sg22
Nsg23
I00
sg24
S'R'
sbsg38
(irule
FeatureMatrix
p3698
(dp3699
g34
(lp3700
sg22
Nsbsg22
Nsba(irule
Rule
p3701
(dp3702
g15
(irule
Guard
p3703
(dp3704
g18
I00
sg19
(lp3705
sg21
I00
sg22
Nsg23
I00
sg24
S'L'
sbsg25
(irule
ConstantPhoneme
p3706
(dp3707
S'p'
V\u0259
sbsg28
(irule
Guard
p3708
(dp3709
g18
I00
sg19
(lp3710
(irule
FeatureMatrix
p3711
(dp3712
g34
(lp3713
sg22
Nsba(irule
FeatureMatrix
p3714
(dp3715
g34
(lp3716
(I01
g2114
tp3717
asg22
Nsbasg21
I00
sg22
Nsg23
I00
sg24
S'R'
sbsg38
(irule
FeatureMatrix
p3718
(dp3719
g34
(lp3720
(I01
g2352
tp3721
a(I00
g2440
tp3722
asg22
Nsbsg22
Nsba(irule
Rule
p3723
(dp3724
g15
(irule
Guard
p3725
(dp3726
g18
I00
sg19
(lp3727
sg21
I00
sg22
Nsg23
I00
sg24
S'L'
sbsg25
(irule
ConstantPhoneme
p3728
(dp3729
S'p'
V\u0259
sbsg28
(irule
Guard
p3730
(dp3731
g18
I00
sg19
(lp3732
(irule
FeatureMatrix
p3733
(dp3734
g34
(lp3735
sg22
Nsba(irule
FeatureMatrix
p3736
(dp3737
g34
(lp3738
(I00
g2542
tp3739
a(I00
g2218
tp3740
a(I01
g2067
tp3741
asg22
Nsbasg21
I00
sg22
Nsg23
I00
sg24
S'R'
sbsg38
(irule
FeatureMatrix
p3742
(dp3743
g34
(lp3744
sg22
Nsbsg22
Nsba(irule
Rule
p3745
(dp3746
g15
(irule
Guard
p3747
(dp3748
g18
I00
sg19
(lp3749
(irule
FeatureMatrix
p3750
(dp3751
g34
(lp3752
sg22
Nsbasg21
I00
sg22
Nsg23
I00
sg24
S'L'
sbsg25
(irule
ConstantPhoneme
p3753
(dp3754
S'p'
V\u0259
sbsg28
(irule
Guard
p3755
(dp3756
g18
I00
sg19
(lp3757
(irule
FeatureMatrix
p3758
(dp3759
g34
(lp3760
sg22
Nsba(irule
FeatureMatrix
p3761
(dp3762
g34
(lp3763
(I00
g2542
tp3764
a(I01
g2067
tp3765
asg22
Nsbasg21
I00
sg22
Nsg23
I00
sg24
S'R'
sbsg38
(irule
FeatureMatrix
p3766
(dp3767
g34
(lp3768
sg22
Nsbsg22
Nsba(irule
Rule
p3769
(dp3770
g15
(irule
Guard
p3771
(dp3772
g18
I00
sg19
(lp3773
sg21
I00
sg22
Nsg23
I00
sg24
S'L'
sbsg25
(irule
ConstantPhoneme
p3774
(dp3775
S'p'
V\u0259
sbsg28
(irule
Guard
p3776
(dp3777
g18
I00
sg19
(lp3778
(irule
FeatureMatrix
p3779
(dp3780
g34
(lp3781
sg22
Nsba(irule
FeatureMatrix
p3782
(dp3783
g34
(lp3784
(I01
g2067
tp3785
asg22
Nsbasg21
I00
sg22
Nsg23
I00
sg24
S'R'
sbsg38
(irule
FeatureMatrix
p3786
(dp3787
g34
(lp3788
(I00
g2264
tp3789
a(I00
g2440
tp3790
asg22
Nsbsg22
Nsba(irule
Rule
p3791
(dp3792
g15
(irule
Guard
p3793
(dp3794
g18
I00
sg19
(lp3795
sg21
I00
sg22
Nsg23
I00
sg24
S'L'
sbsg25
(irule
ConstantPhoneme
p3796
(dp3797
S'p'
V\u0259
sbsg28
(irule
Guard
p3798
(dp3799
g18
I00
sg19
(lp3800
(irule
FeatureMatrix
p3801
(dp3802
g34
(lp3803
(I00
g2218
tp3804
asg22
Nsba(irule
FeatureMatrix
p3805
(dp3806
g34
(lp3807
(I01
g2067
tp3808
asg22
Nsbasg21
I00
sg22
Nsg23
I00
sg24
S'R'
sbsg38
(irule
FeatureMatrix
p3809
(dp3810
g34
(lp3811
(I01
g2628
tp3812
asg22
Nsbsg22
Nsba(irule
Rule
p3813
(dp3814
g15
(irule
Guard
p3815
(dp3816
g18
I00
sg19
(lp3817
(irule
FeatureMatrix
p3818
(dp3819
g34
(lp3820
sg22
Nsbasg21
I00
sg22
Nsg23
I00
sg24
S'L'
sbsg25
(irule
ConstantPhoneme
p3821
(dp3822
S'p'
V\u0259
sbsg28
(irule
Guard
p3823
(dp3824
g18
I00
sg19
(lp3825
(irule
FeatureMatrix
p3826
(dp3827
g34
(lp3828
sg22
Nsba(irule
FeatureMatrix
p3829
(dp3830
g34
(lp3831
(I00
g2585
tp3832
a(I01
g2067
tp3833
asg22
Nsbasg21
I00
sg22
Nsg23
I00
sg24
S'R'
sbsg38
(irule
FeatureMatrix
p3834
(dp3835
g34
(lp3836
sg22
Nsbsg22
Nsba(irule
Rule
p3837
(dp3838
g15
(irule
Guard
p3839
(dp3840
g18
I00
sg19
(lp3841
(irule
FeatureMatrix
p3842
(dp3843
g34
(lp3844
sg22
Nsbasg21
I00
sg22
Nsg23
I00
sg24
S'L'
sbsg25
(irule
ConstantPhoneme
p3845
(dp3846
S'p'
V\u0259
sbsg28
(irule
Guard
p3847
(dp3848
g18
I00
sg19
(lp3849
(irule
FeatureMatrix
p3850
(dp3851
g34
(lp3852
sg22
Nsba(irule
FeatureMatrix
p3853
(dp3854
g34
(lp3855
(I01
g2114
tp3856
asg22
Nsbasg21
I00
sg22
Nsg23
I00
sg24
S'R'
sbsg38
(irule
FeatureMatrix
p3857
(dp3858
g34
(lp3859
(I00
g2542
tp3860
asg22
Nsbsg22
Nsba(irule
Rule
p3861
(dp3862
g15
(irule
Guard
p3863
(dp3864
g18
I00
sg19
(lp3865
(irule
FeatureMatrix
p3866
(dp3867
g34
(lp3868
sg22
Nsbasg21
I00
sg22
Nsg23
I00
sg24
S'L'
sbsg25
(irule
ConstantPhoneme
p3869
(dp3870
S'p'
V\u0259
sbsg28
(irule
Guard
p3871
(dp3872
g18
I00
sg19
(lp3873
(irule
FeatureMatrix
p3874
(dp3875
g34
(lp3876
sg22
Nsba(irule
FeatureMatrix
p3877
(dp3878
g34
(lp3879
(I00
g2264
tp3880
a(I01
g2067
tp3881
asg22
Nsbasg21
I00
sg22
Nsg23
I00
sg24
S'R'
sbsg38
(irule
FeatureMatrix
p3882
(dp3883
g34
(lp3884
sg22
Nsbsg22
Nsba(irule
Rule
p3885
(dp3886
g15
(irule
Guard
p3887
(dp3888
g18
I00
sg19
(lp3889
(irule
FeatureMatrix
p3890
(dp3891
g34
(lp3892
sg22
Nsbasg21
I00
sg22
Nsg23
I00
sg24
S'L'
sbsg25
(irule
ConstantPhoneme
p3893
(dp3894
S'p'
V\u0259
sbsg28
(irule
Guard
p3895
(dp3896
g18
I00
sg19
(lp3897
(irule
FeatureMatrix
p3898
(dp3899
g34
(lp3900
sg22
Nsba(irule
FeatureMatrix
p3901
(dp3902
g34
(lp3903
(I01
g2628
tp3904
a(I01
g2067
tp3905
asg22
Nsbasg21
I00
sg22
Nsg23
I00
sg24
S'R'
sbsg38
(irule
FeatureMatrix
p3906
(dp3907
g34
(lp3908
sg22
Nsbsg22
Nsba(irule
Rule
p3909
(dp3910
g15
(irule
Guard
p3911
(dp3912
g18
I00
sg19
(lp3913
(irule
FeatureMatrix
p3914
(dp3915
g34
(lp3916
sg22
Nsbasg21
I00
sg22
Nsg23
I00
sg24
S'L'
sbsg25
(irule
ConstantPhoneme
p3917
(dp3918
S'p'
V\u0259
sbsg28
(irule
Guard
p3919
(dp3920
g18
I00
sg19
(lp3921
(irule
FeatureMatrix
p3922
(dp3923
g34
(lp3924
sg22
Nsba(irule
FeatureMatrix
p3925
(dp3926
g34
(lp3927
(I01
g2067
tp3928
a(I01
g2290
tp3929
asg22
Nsbasg21
I00
sg22
Nsg23
I00
sg24
S'R'
sbsg38
(irule
FeatureMatrix
p3930
(dp3931
g34
(lp3932
sg22
Nsbsg22
Nsba(irule
Rule
p3933
(dp3934
g15
(irule
Guard
p3935
(dp3936
g18
I00
sg19
(lp3937
(irule
FeatureMatrix
p3938
(dp3939
g34
(lp3940
sg22
Nsbasg21
I00
sg22
Nsg23
I00
sg24
S'L'
sbsg25
(irule
ConstantPhoneme
p3941
(dp3942
S'p'
V\u0259
sbsg28
(irule
Guard
p3943
(dp3944
g18
I00
sg19
(lp3945
(irule
FeatureMatrix
p3946
(dp3947
g34
(lp3948
sg22
Nsba(irule
FeatureMatrix
p3949
(dp3950
g34
(lp3951
(I01
g2114
tp3952
asg22
Nsbasg21
I00
sg22
Nsg23
I00
sg24
S'R'
sbsg38
(irule
FeatureMatrix
p3953
(dp3954
g34
(lp3955
(I01
g2290
tp3956
asg22
Nsbsg22
Nsba(irule
Rule
p3957
(dp3958
g15
(irule
Guard
p3959
(dp3960
g18
I00
sg19
(lp3961
sg21
I00
sg22
Nsg23
I00
sg24
S'L'
sbsg25
(irule
ConstantPhoneme
p3962
(dp3963
S'p'
V\u0259
sbsg28
(irule
Guard
p3964
(dp3965
g18
I00
sg19
(lp3966
(irule
FeatureMatrix
p3967
(dp3968
g34
(lp3969
sg22
Nsba(irule
FeatureMatrix
p3970
(dp3971
g34
(lp3972
(I01
g2114
tp3973
asg22
Nsbasg21
I00
sg22
Nsg23
I00
sg24
S'R'
sbsg38
(irule
FeatureMatrix
p3974
(dp3975
g34
(lp3976
(I00
g2264
tp3977
a(I00
g2440
tp3978
asg22
Nsbsg22
Nsba(irule
Rule
p3979
(dp3980
g15
(irule
Guard
p3981
(dp3982
g18
I00
sg19
(lp3983
(irule
FeatureMatrix
p3984
(dp3985
g34
(lp3986
sg22
Nsbasg21
I00
sg22
Nsg23
I00
sg24
S'L'
sbsg25
(irule
ConstantPhoneme
p3987
(dp3988
S'p'
V\u0259
sbsg28
(irule
Guard
p3989
(dp3990
g18
I00
sg19
(lp3991
(irule
FeatureMatrix
p3992
(dp3993
g34
(lp3994
sg22
Nsba(irule
FeatureMatrix
p3995
(dp3996
g34
(lp3997
(I01
g2114
tp3998
asg22
Nsbasg21
I00
sg22
Nsg23
I00
sg24
S'R'
sbsg38
(irule
FeatureMatrix
p3999
(dp4000
g34
(lp4001
(I01
g2628
tp4002
asg22
Nsbsg22
Nsba(irule
Rule
p4003
(dp4004
g15
(irule
Guard
p4005
(dp4006
g18
I00
sg19
(lp4007
(irule
FeatureMatrix
p4008
(dp4009
g34
(lp4010
sg22
Nsbasg21
I00
sg22
Nsg23
I00
sg24
S'L'
sbsg25
(irule
ConstantPhoneme
p4011
(dp4012
S'p'
V\u0259
sbsg28
(irule
Guard
p4013
(dp4014
g18
I00
sg19
(lp4015
(irule
FeatureMatrix
p4016
(dp4017
g34
(lp4018
sg22
Nsba(irule
FeatureMatrix
p4019
(dp4020
g34
(lp4021
(I01
g2114
tp4022
asg22
Nsbasg21
I00
sg22
Nsg23
I00
sg24
S'R'
sbsg38
(irule
FeatureMatrix
p4023
(dp4024
g34
(lp4025
(I00
g2264
tp4026
asg22
Nsbsg22
Nsba(irule
Rule
p4027
(dp4028
g15
(irule
Guard
p4029
(dp4030
g18
I00
sg19
(lp4031
(irule
FeatureMatrix
p4032
(dp4033
g34
(lp4034
sg22
Nsbasg21
I00
sg22
Nsg23
I00
sg24
S'L'
sbsg25
(irule
ConstantPhoneme
p4035
(dp4036
S'p'
V\u0259
sbsg28
(irule
Guard
p4037
(dp4038
g18
I00
sg19
(lp4039
(irule
FeatureMatrix
p4040
(dp4041
g34
(lp4042
(I00
g2067
tp4043
asg22
Nsba(irule
FeatureMatrix
p4044
(dp4045
g34
(lp4046
(I01
g2114
tp4047
asg22
Nsbasg21
I00
sg22
Nsg23
I00
sg24
S'R'
sbsg38
(irule
FeatureMatrix
p4048
(dp4049
g34
(lp4050
sg22
Nsbsg22
Nsba(irule
Rule
p4051
(dp4052
g15
(irule
Guard
p4053
(dp4054
g18
I00
sg19
(lp4055
sg21
I00
sg22
Nsg23
I00
sg24
S'L'
sbsg25
(irule
ConstantPhoneme
p4056
(dp4057
S'p'
V\u0259
sbsg28
(irule
Guard
p4058
(dp4059
g18
I00
sg19
(lp4060
(irule
FeatureMatrix
p4061
(dp4062
g34
(lp4063
sg22
Nsba(irule
FeatureMatrix
p4064
(dp4065
g34
(lp4066
(I01
g2067
tp4067
asg22
Nsbasg21
I00
sg22
Nsg23
I00
sg24
S'R'
sbsg38
(irule
FeatureMatrix
p4068
(dp4069
g34
(lp4070
(I00
g2542
tp4071
a(I01
g2352
tp4072
asg22
Nsbsg22
Nsba(irule
Rule
p4073
(dp4074
g15
(irule
Guard
p4075
(dp4076
g18
I00
sg19
(lp4077
(irule
FeatureMatrix
p4078
(dp4079
g34
(lp4080
sg22
Nsbasg21
I00
sg22
Nsg23
I00
sg24
S'L'
sbsg25
(irule
ConstantPhoneme
p4081
(dp4082
S'p'
V\u0259
sbsg28
(irule
Guard
p4083
(dp4084
g18
I00
sg19
(lp4085
(irule
FeatureMatrix
p4086
(dp4087
g34
(lp4088
sg22
Nsba(irule
FeatureMatrix
p4089
(dp4090
g34
(lp4091
(I01
g2067
tp4092
a(I00
g2330
tp4093
asg22
Nsbasg21
I00
sg22
Nsg23
I00
sg24
S'R'
sbsg38
(irule
FeatureMatrix
p4094
(dp4095
g34
(lp4096
sg22
Nsbsg22
Nsba(irule
Rule
p4097
(dp4098
g15
(irule
Guard
p4099
(dp4100
g18
I00
sg19
(lp4101
(irule
FeatureMatrix
p4102
(dp4103
g34
(lp4104
sg22
Nsbasg21
I00
sg22
Nsg23
I00
sg24
S'L'
sbsg25
(irule
ConstantPhoneme
p4105
(dp4106
S'p'
V\u0259
sbsg28
(irule
Guard
p4107
(dp4108
g18
I00
sg19
(lp4109
(irule
FeatureMatrix
p4110
(dp4111
g34
(lp4112
(I00
g2154
tp4113
asg22
Nsba(irule
FeatureMatrix
p4114
(dp4115
g34
(lp4116
(I01
g2114
tp4117
asg22
Nsbasg21
I00
sg22
Nsg23
I00
sg24
S'R'
sbsg38
(irule
FeatureMatrix
p4118
(dp4119
g34
(lp4120
sg22
Nsbsg22
Nsba(irule
Rule
p4121
(dp4122
g15
(irule
Guard
p4123
(dp4124
g18
I00
sg19
(lp4125
(irule
FeatureMatrix
p4126
(dp4127
g34
(lp4128
sg22
Nsbasg21
I00
sg22
Nsg23
I00
sg24
S'L'
sbsg25
(irule
ConstantPhoneme
p4129
(dp4130
S'p'
V\u0259
sbsg28
(irule
Guard
p4131
(dp4132
g18
I00
sg19
(lp4133
(irule
FeatureMatrix
p4134
(dp4135
g34
(lp4136
(I00
g2114
tp4137
asg22
Nsba(irule
FeatureMatrix
p4138
(dp4139
g34
(lp4140
(I01
g2114
tp4141
asg22
Nsbasg21
I00
sg22
Nsg23
I00
sg24
S'R'
sbsg38
(irule
FeatureMatrix
p4142
(dp4143
g34
(lp4144
sg22
Nsbsg22
Nsba(irule
Rule
p4145
(dp4146
g15
(irule
Guard
p4147
(dp4148
g18
I00
sg19
(lp4149
sg21
I00
sg22
Nsg23
I00
sg24
S'L'
sbsg25
(irule
ConstantPhoneme
p4150
(dp4151
S'p'
V\u0259
sbsg28
(irule
Guard
p4152
(dp4153
g18
I00
sg19
(lp4154
(irule
FeatureMatrix
p4155
(dp4156
g34
(lp4157
(I00
g2154
tp4158
asg22
Nsba(irule
FeatureMatrix
p4159
(dp4160
g34
(lp4161
(I00
g2218
tp4162
a(I01
g2067
tp4163
asg22
Nsbasg21
I00
sg22
Nsg23
I00
sg24
S'R'
sbsg38
(irule
FeatureMatrix
p4164
(dp4165
g34
(lp4166
sg22
Nsbsg22
Nsba(irule
Rule
p4167
(dp4168
g15
(irule
Guard
p4169
(dp4170
g18
I00
sg19
(lp4171
sg21
I00
sg22
Nsg23
I00
sg24
S'L'
sbsg25
(irule
ConstantPhoneme
p4172
(dp4173
S'p'
V\u0259
sbsg28
(irule
Guard
p4174
(dp4175
g18
I00
sg19
(lp4176
(irule
FeatureMatrix
p4177
(dp4178
g34
(lp4179
(I00
g2218
tp4180
asg22
Nsba(irule
FeatureMatrix
p4181
(dp4182
g34
(lp4183
(I01
g2067
tp4184
a(I00
g2440
tp4185
asg22
Nsbasg21
I00
sg22
Nsg23
I00
sg24
S'R'
sbsg38
(irule
FeatureMatrix
p4186
(dp4187
g34
(lp4188
sg22
Nsbsg22
Nsba(irule
Rule
p4189
(dp4190
g15
(irule
Guard
p4191
(dp4192
g18
I00
sg19
(lp4193
(irule
FeatureMatrix
p4194
(dp4195
g34
(lp4196
sg22
Nsbasg21
I00
sg22
Nsg23
I00
sg24
S'L'
sbsg25
(irule
ConstantPhoneme
p4197
(dp4198
S'p'
V\u0259
sbsg28
(irule
Guard
p4199
(dp4200
g18
I00
sg19
(lp4201
(irule
FeatureMatrix
p4202
(dp4203
g34
(lp4204
sg22
Nsba(irule
FeatureMatrix
p4205
(dp4206
g34
(lp4207
(I01
g2067
tp4208
a(I00
g2440
tp4209
asg22
Nsbasg21
I00
sg22
Nsg23
I00
sg24
S'R'
sbsg38
(irule
FeatureMatrix
p4210
(dp4211
g34
(lp4212
sg22
Nsbsg22
Nsba(irule
Rule
p4213
(dp4214
g15
(irule
Guard
p4215
(dp4216
g18
I00
sg19
(lp4217
sg21
I00
sg22
Nsg23
I00
sg24
S'L'
sbsg25
(irule
ConstantPhoneme
p4218
(dp4219
S'p'
V\u0259
sbsg28
(irule
Guard
p4220
(dp4221
g18
I00
sg19
(lp4222
(irule
FeatureMatrix
p4223
(dp4224
g34
(lp4225
sg22
Nsba(irule
FeatureMatrix
p4226
(dp4227
g34
(lp4228
(I01
g2067
tp4229
a(I00
g2330
tp4230
a(I01
g2290
tp4231
asg22
Nsbasg21
I00
sg22
Nsg23
I00
sg24
S'R'
sbsg38
(irule
FeatureMatrix
p4232
(dp4233
g34
(lp4234
sg22
Nsbsg22
Nsba(irule
Rule
p4235
(dp4236
g15
(irule
Guard
p4237
(dp4238
g18
I00
sg19
(lp4239
sg21
I00
sg22
Nsg23
I00
sg24
S'L'
sbsg25
(irule
ConstantPhoneme
p4240
(dp4241
S'p'
V\u0259
sbsg28
(irule
Guard
p4242
(dp4243
g18
I00
sg19
(lp4244
(irule
FeatureMatrix
p4245
(dp4246
g34
(lp4247
(I00
g2218
tp4248
asg22
Nsba(irule
FeatureMatrix
p4249
(dp4250
g34
(lp4251
(I01
g2067
tp4252
asg22
Nsbasg21
I00
sg22
Nsg23
I00
sg24
S'R'
sbsg38
(irule
FeatureMatrix
p4253
(dp4254
g34
(lp4255
(I00
g2542
tp4256
asg22
Nsbsg22
Nsba(irule
Rule
p4257
(dp4258
g15
(irule
Guard
p4259
(dp4260
g18
I00
sg19
(lp4261
(irule
FeatureMatrix
p4262
(dp4263
g34
(lp4264
sg22
Nsbasg21
I00
sg22
Nsg23
I00
sg24
S'L'
sbsg25
(irule
ConstantPhoneme
p4265
(dp4266
S'p'
V\u0259
sbsg28
(irule
Guard
p4267
(dp4268
g18
I00
sg19
(lp4269
(irule
FeatureMatrix
p4270
(dp4271
g34
(lp4272
sg22
Nsba(irule
FeatureMatrix
p4273
(dp4274
g34
(lp4275
(I01
g2067
tp4276
a(I01
g2154
tp4277
asg22
Nsbasg21
I00
sg22
Nsg23
I00
sg24
S'R'
sbsg38
(irule
FeatureMatrix
p4278
(dp4279
g34
(lp4280
sg22
Nsbsg22
NsbaasbsS'parameters'
p4281
g6
(cargparse
Namespace
p4282
g8
NtRp4283
(dp4284
S'dummy'
p4285
I00
sS'task'
p4286
S'CEGIS'
p4287
sS'features'
p4288
S'sophisticated'
p4289
sS'resume'
p4290
I00
sS'geometry'
p4291
I01
sS'top'
p4292
I100
sS'disableClean'
p4293
I00
sS'universal'
p4294
NsS'restrict'
p4295
NsS'window'
p4296
NsS'seed'
p4297
S'0'
sS'restore'
p4298
NsS'verbosity'
p4299
I0
sS'timeout'
p4300
F24
sS'debug'
p4301
NsS'cores'
p4302
I40
sg186
S'Odden_88_Palauan'
p4303
sS'save'
p4304
NsS'serial'
p4305
I00
sS'alignment'
p4306
I00
sS'samples'
p4307
I30
sbsb.