(iresult
Result
p1
(dp2
S'startTime'
p3
F1565820288.305954
sS'solutionSequence'
p4
(lp5
(ccopy_reg
_reconstructor
p6
(csolution
Solution
p7
c__builtin__
object
p8
NtRp9
(dp10
S'rules'
p11
(lp12
(irule
Rule
p13
(dp14
S'leftTriggers'
p15
(irule
Guard
p16
(dp17
S'endOfString'
p18
I00
sS'specifications'
p19
(lp20
(irule
FeatureMatrix
p21
(dp22
S'featuresAndPolarities'
p23
(lp24
(I01
S'high'
p25
tp26
asS'representation'
p27
V[ +high ]
p28
sbasS'optionalEnding'
p29
I00
sg27
g28
sS'starred'
p30
I00
sS'side'
p31
S'L'
sbsS'structuralChange'
p32
(irule
ConstantPhoneme
p33
(dp34
S'p'
Vp
sbsS'rightTriggers'
p35
(irule
Guard
p36
(dp37
g18
I00
sg19
(lp38
sg29
I00
sg27
V
sg30
I00
sg31
S'R'
sbsS'focus'
p39
(irule
FeatureMatrix
p40
(dp41
g23
(lp42
sg27
V[  ]
p43
sbsg27
V[  ] ---> p / [ +high ] _ 
p44
sba(irule
Rule
p45
(dp46
g15
(irule
Guard
p47
(dp48
g18
I00
sg19
(lp49
(irule
FeatureMatrix
p50
(dp51
g23
(lp52
(I01
S'aspirated'
p53
tp54
asg27
V[ +aspirated ]
p55
sbasg29
I00
sg27
g55
sg30
I00
sg31
S'L'
sbsg32
(irule
ConstantPhoneme
p56
(dp57
S'p'
Va
sbsg35
(irule
Guard
p58
(dp59
g18
I00
sg19
(lp60
sg29
I00
sg27
V
sg30
I00
sg31
S'R'
sbsg39
(irule
FeatureMatrix
p61
(dp62
g23
(lp63
sg27
V[  ]
p64
sbsg27
V[  ] ---> a / [ +aspirated ] _ 
p65
sbasS'prefixes'
p66
(lp67
(imorph
Morph
p68
(dp69
S'phonemes'
p70
(lp71
sba(imorph
Morph
p72
(dp73
g70
(lp74
sbasS'underlyingForms'
p75
(dp76
((imorph
Morph
p77
(dp78
g70
(lp79
Vk
aVu
aVp
aV\u0259
asb(imorph
Morph
p80
(dp81
g70
(lp82
Vk
aVu
aVp
aVk
aVo
asbtp83
(imorph
Morph
p84
(dp85
g70
(lp86
Vk
aVu
asbs((imorph
Morph
p87
(dp88
g70
(lp89
Vk
aVa
aVp^h
p90
aVa
asb(imorph
Morph
p91
(dp92
g70
(lp93
Vk
aVa
aVp
aVk
aVo
asbtp94
(imorph
Morph
p95
(dp96
g70
(lp97
Vk
aVa
asbs((imorph
Morph
p98
(dp99
g70
(lp100
Vi
aVp
aV\u0259
asb(imorph
Morph
p101
(dp102
g70
(lp103
Vi
aVp
aVk
aVo
asbtp104
(imorph
Morph
p105
(dp106
g70
(lp107
Vi
asbssS'suffixes'
p108
(lp109
(imorph
Morph
p110
(dp111
g70
(lp112
Vp^h
p113
aV\u0259
asba(imorph
Morph
p114
(dp115
g70
(lp116
Vp
aVk
aVo
asbasbF410.39953112602234
tp117
a(g6
(g7
g8
NtRp118
(dp119
g11
(lp120
(irule
Rule
p121
(dp122
g15
(irule
Guard
p123
(dp124
g18
I00
sg19
(lp125
sg29
I00
sg27
V
sg30
I00
sg31
S'L'
sbsg32
(irule
FeatureMatrix
p126
(dp127
g23
(lp128
(I00
g53
tp129
asg27
V[ -aspirated ]
p130
sbsg35
(irule
Guard
p131
(dp132
g18
I00
sg19
(lp133
(irule
FeatureMatrix
p134
(dp135
g23
(lp136
(I00
S'voice'
p137
tp138
asg27
V[ -voice ]
p139
sbasg29
I00
sg27
g139
sg30
I00
sg31
S'R'
sbsg39
(irule
FeatureMatrix
p140
(dp141
g23
(lp142
sg27
V[  ]
p143
sbsg27
V[  ] ---> [ -aspirated ] /  _ [ -voice ]
p144
sba(irule
Rule
p145
(dp146
g15
(irule
Guard
p147
(dp148
g18
I00
sg19
(lp149
(irule
FeatureMatrix
p150
(dp151
g23
(lp152
sg27
V[  ]
p153
sba(irule
ConstantPhoneme
p154
(dp155
S'p'
Va
sbasg29
I00
sg27
Va [  ]
p156
sg30
I00
sg31
S'L'
sbsg32
(irule
OffsetSpecification
p157
(dp158
S'offset'
p159
I-2
sbsg35
(irule
Guard
p160
(dp161
g18
I00
sg19
(lp162
sg29
I00
sg27
V
sg30
I00
sg31
S'R'
sbsg39
(irule
FeatureMatrix
p163
(dp164
g23
(lp165
(I01
S'central'
p166
tp167
asg27
V[ +central ]
p168
sbsg27
V[ +central ] ---> -2 / a [  ] _ 
p169
sbasg66
(lp170
(imorph
Morph
p171
(dp172
g70
(lp173
sba(imorph
Morph
p174
(dp175
g70
(lp176
sbasg75
(dp177
((imorph
Morph
(dp178
g70
(lp179
Vi
aVk
aV\u0259
asb(imorph
Morph
(dp180
g70
(lp181
Vi
aVk
aVk
aVo
asbtp182
(imorph
Morph
p183
(dp184
g70
(lp185
Vi
aVk
asbs(g77
g80
tp186
(imorph
Morph
p187
(dp188
g70
(lp189
Vk
aVu
aVp
asbs((imorph
Morph
(dp190
g70
(lp191
Vt
aVa
aVk
aVa
asb(imorph
Morph
(dp192
g70
(lp193
Vt
aVa
aVk
aVk
aVo
asbtp194
(imorph
Morph
p195
(dp196
g70
(lp197
Vt
aVa
aVk
asbs((imorph
Morph
(dp198
g70
(lp199
Vp
aVu
aVt^h
p200
aV\u0259
asb(imorph
Morph
(dp201
g70
(lp202
Vp
aVu
aVt
aVk
aVo
asbtp203
(imorph
Morph
p204
(dp205
g70
(lp206
Vp
aVu
aVt^h
p207
asbs((imorph
Morph
(dp208
g70
(lp209
Vs
aV\u0259
aVk
aV\u0259
asb(imorph
Morph
(dp210
g70
(lp211
Vs
aV\u0259
aVk
aVk
aVo
asbtp212
(imorph
Morph
p213
(dp214
g70
(lp215
Vs
aV\u0259
aVk
asbs((imorph
Morph
(dp216
g70
(lp217
Vt
aVa
aVt
aVa
asb(imorph
Morph
(dp218
g70
(lp219
Vt
aVa
aVt
aVk
aVo
asbtp220
(imorph
Morph
p221
(dp222
g70
(lp223
Vt
aVa
aVt
asbs(g87
g91
tp224
(imorph
Morph
p225
(dp226
g70
(lp227
Vk
aVa
ag113
asbs((imorph
Morph
(dp228
g70
(lp229
Vk
aVa
aVk
aVa
asb(imorph
Morph
(dp230
g70
(lp231
Vk
aVa
aVk
aVk
aVo
asbtp232
(imorph
Morph
p233
(dp234
g70
(lp235
Vk
aVa
aVk
asbs((imorph
Morph
(dp236
g70
(lp237
Vc\u030c
p238
aVu
aVk
aV\u0259
asb(imorph
Morph
(dp239
g70
(lp240
Vc\u030c
p241
aVu
aVk
aVk
aVo
asbtp242
(imorph
Morph
p243
(dp244
g70
(lp245
Vc\u030c
p246
aVu
aVk
asbs((imorph
Morph
(dp247
g70
(lp248
Vm
aV\u0259
aVk
aV\u0259
asb(imorph
Morph
(dp249
g70
(lp250
Vm
aV\u0259
aVk
aVk
aVo
asbtp251
(imorph
Morph
p252
(dp253
g70
(lp254
Vm
aV\u0259
aVk
asbs((imorph
Morph
p255
(dp256
g70
(lp257
Vc
aVi
aVp^h
p258
aV\u0259
asb(imorph
Morph
p259
(dp260
g70
(lp261
Vc
aVi
aVp
aVk
aVo
asbtp262
(imorph
Morph
p263
(dp264
g70
(lp265
Vc
aVi
ag113
asbs(g98
g101
tp266
(imorph
Morph
p267
(dp268
g70
(lp269
Vi
aVp
asbssg108
(lp270
(imorph
Morph
p271
(dp272
g70
(lp273
V\u0259
asba(imorph
Morph
p274
(dp275
g70
(lp276
Vk
aVo
asbasbF1674.8653070926666
tp277
asS'problem'
p278
S'Odden_1.3_Korean'
p279
sS'finalFrontier'
p280
g6
(csolution
Frontier
p281
g8
NtRp282
(dp283
g66
g170
sg108
g270
sg75
g177
sS'frontiers'
p284
(lp285
(lp286
g121
aa(lp287
g145
aasbsS'parameters'
p288
g6
(cargparse
Namespace
p289
g8
NtRp290
(dp291
S'restore'
p292
NsS'features'
p293
S'simple'
p294
sS'universal'
p295
NsS'restrict'
p296
NsS'seed'
p297
S'0'
sS'serial'
p298
I00
sS'alignment'
p299
I00
sS'top'
p300
I1
sS'maximumDepth'
p301
I3
sS'window'
p302
NsS'minimizeBits'
p303
I5
sS'samples'
p304
I30
sS'save'
p305
NsS'resume'
p306
I00
sS'disableClean'
p307
I00
sS'stemBaseline'
p308
I30
sS'dummy'
p309
I00
sS'task'
p310
S'CEGIS'
p311
sS'geometry'
p312
NsS'verbosity'
p313
I0
sS'timeout'
p314
F24
sS'debug'
p315
NsS'cores'
p316
I40
sg278
S'Odden_1.3_Korean'
p317
sS'mergeFrontiers'
p318
I00
sbsb.