(iresult
Result
p1
(dp2
S'startTime'
p3
F1565820404.079874
sS'solutionSequence'
p4
(lp5
(ccopy_reg
_reconstructor
p6
(csolution
Solution
p7
c__builtin__
object
p8
NtRp9
(dp10
S'rules'
p11
(lp12
(irule
Rule
p13
(dp14
S'leftTriggers'
p15
(irule
Guard
p16
(dp17
S'endOfString'
p18
I00
sS'specifications'
p19
(lp20
sS'optionalEnding'
p21
I00
sS'representation'
p22
V
sS'starred'
p23
I00
sS'side'
p24
S'L'
sbsS'structuralChange'
p25
(irule
FeatureMatrix
p26
(dp27
S'featuresAndPolarities'
p28
(lp29
sg22
V[  ]
p30
sbsS'rightTriggers'
p31
(irule
Guard
p32
(dp33
g18
I00
sg19
(lp34
sg21
I00
sg22
V
sg23
I00
sg24
S'R'
sbsS'focus'
p35
(irule
FeatureMatrix
p36
(dp37
g28
(lp38
sg22
V[  ]
p39
sbsg22
V[  ] ---> [  ] /  _ 
p40
sbasS'prefixes'
p41
(lp42
(imorph
Morph
p43
(dp44
S'phonemes'
p45
(lp46
sba(imorph
Morph
p47
(dp48
g45
(lp49
sbasS'underlyingForms'
p50
(dp51
((imorph
Morph
p52
(dp53
g45
(lp54
Vv
aVa
aVg
aVo
aVn
asb(imorph
Morph
p55
(dp56
g45
(lp57
Vv
aVa
aVg
aVo
aVn
aVa
asbtp58
(imorph
Morph
p59
(dp60
g45
(lp61
Vv
aVa
aVg
aVo
aVn
asbs((imorph
Morph
p62
(dp63
g45
(lp64
Vv
aVe
aVc\u030c
p65
aVe
aVr
asb(imorph
Morph
p66
(dp67
g45
(lp68
Vv
aVe
aVc\u030c
p69
aVe
aVr
aVa
asbtp70
(imorph
Morph
p71
(dp72
g45
(lp73
Vv
aVe
aVc\u030c
p74
aVe
aVr
asbs((imorph
Morph
p75
(dp76
g45
(lp77
Va
aVv
aVt
aVo
aVm
aVo
aVb
aVi
aVl^y
p78
asb(imorph
Morph
p79
(dp80
g45
(lp81
Va
aVv
aVt
aVo
aVm
aVo
aVb
aVi
aVl^y
p82
aVa
asbtp83
(imorph
Morph
p84
(dp85
g45
(lp86
Va
aVv
aVt
aVo
aVm
aVo
aVb
aVi
aVl^y
p87
asbssS'suffixes'
p88
(lp89
(imorph
Morph
p90
(dp91
g45
(lp92
sba(imorph
Morph
p93
(dp94
g45
(lp95
Va
asbasbF81.123386859893799
tp96
a(g6
(g7
g8
NtRp97
(dp98
g11
(lp99
(irule
Rule
p100
(dp101
g15
(irule
Guard
p102
(dp103
g18
I00
sg19
(lp104
sg21
I00
sg22
V
sg23
I00
sg24
S'L'
sbsg25
(irule
FeatureMatrix
p105
(dp106
g28
(lp107
(I01
S'voice'
p108
tp109
asg22
V[ +voice ]
p110
sbsg31
(irule
Guard
p111
(dp112
g18
I01
sg19
(lp113
(irule
FeatureMatrix
p114
(dp115
g28
(lp116
sg22
V[  ]
p117
sbasg21
I00
sg22
V[  ] #
p118
sg23
I00
sg24
S'R'
sbsg35
(irule
FeatureMatrix
p119
(dp120
g28
(lp121
sg22
V[  ]
p122
sbsg22
V[  ] ---> [ +voice ] /  _ [  ] #
p123
sbasg41
(lp124
(imorph
Morph
p125
(dp126
g45
(lp127
sba(imorph
Morph
p128
(dp129
g45
(lp130
sbasg50
(dp131
(g52
g55
tp132
(imorph
Morph
p133
(dp134
g45
(lp135
Vv
aVa
aVg
aVo
aVn
asbs(g62
g66
tp136
(imorph
Morph
p137
(dp138
g45
(lp139
Vv
aVe
ag74
aVe
aVr
asbs((imorph
Morph
p140
(dp141
g45
(lp142
Vm
aVu
aV\u0161
asb(imorph
Morph
p143
(dp144
g45
(lp145
Vm
aVu
aVz\u030c
p146
aVa
asbtp147
(imorph
Morph
p148
(dp149
g45
(lp150
Vm
aVu
aV\u0161
asbs(g75
g79
tp151
(imorph
Morph
p152
(dp153
g45
(lp154
Va
aVv
aVt
aVo
aVm
aVo
aVb
aVi
ag87
asbssg88
(lp155
(imorph
Morph
p156
(dp157
g45
(lp158
sba(imorph
Morph
p159
(dp160
g45
(lp161
Va
asbasbF698.7113618850708
tp162
a(g6
(g7
g8
NtRp163
(dp164
g11
(lp165
(irule
Rule
p166
(dp167
g15
(irule
Guard
p168
(dp169
g18
I00
sg19
(lp170
sg21
I00
sg22
V
sg23
I00
sg24
S'L'
sbsg25
(irule
FeatureMatrix
p171
(dp172
g28
(lp173
(I00
g108
tp174
asg22
V[ -voice ]
p175
sbsg31
(irule
Guard
p176
(dp177
g18
I01
sg19
(lp178
sg21
I00
sg22
V#
sg23
I00
sg24
S'R'
sbsg35
(irule
FeatureMatrix
p179
(dp180
g28
(lp181
(I01
S'fricative'
p182
tp183
asg22
V[ +fricative ]
p184
sbsg22
V[ +fricative ] ---> [ -voice ] /  _ #
p185
sbasg41
(lp186
(imorph
Morph
p187
(dp188
g45
(lp189
sba(imorph
Morph
p190
(dp191
g45
(lp192
sbasg50
(dp193
(g52
g55
tp194
(imorph
Morph
p195
(dp196
g45
(lp197
Vv
aVa
aVg
aVo
aVn
asbs((imorph
Morph
p198
(dp199
g45
(lp200
Vk
aVa
aVr
aVa
aVn
aVd
aVa
aV\u0161
asb(imorph
Morph
p201
(dp202
g45
(lp203
Vk
aVa
aVr
aVa
aVn
aVd
aVa
aV\u0161
aVa
asbtp204
(imorph
Morph
p205
(dp206
g45
(lp207
Vk
aVa
aVr
aVa
aVn
aVd
aVa
aV\u0161
asbs(g62
g66
tp208
(imorph
Morph
p209
(dp210
g45
(lp211
Vv
aVe
ag74
aVe
aVr
asbs(g140
g143
tp212
(imorph
Morph
p213
(dp214
g45
(lp215
Vm
aVu
aVz\u030c
p216
asbs(g75
g79
tp217
(imorph
Morph
p218
(dp219
g45
(lp220
Va
aVv
aVt
aVo
aVm
aVo
aVb
aVi
ag87
asbssg88
(lp221
(imorph
Morph
p222
(dp223
g45
(lp224
sba(imorph
Morph
p225
(dp226
g45
(lp227
Va
asbasbF2279.7893030643463
tp228
a(g6
(g7
g8
NtRp229
(dp230
g11
(lp231
(irule
Rule
p232
(dp233
g15
(irule
Guard
p234
(dp235
g18
I00
sg19
(lp236
sg21
I00
sg22
V
sg23
I00
sg24
S'L'
sbsg25
(irule
FeatureMatrix
p237
(dp238
g28
(lp239
(I00
g108
tp240
asg22
V[ -voice ]
p241
sbsg31
(irule
Guard
p242
(dp243
g18
I01
sg19
(lp244
sg21
I00
sg22
V#
sg23
I00
sg24
S'R'
sbsg35
(irule
FeatureMatrix
p245
(dp246
g28
(lp247
(I00
S'sonorant'
p248
tp249
asg22
V[ -sonorant ]
p250
sbsg22
V[ -sonorant ] ---> [ -voice ] /  _ #
p251
sbasg41
(lp252
(imorph
Morph
p253
(dp254
g45
(lp255
sba(imorph
Morph
p256
(dp257
g45
(lp258
sbasg50
(dp259
((imorph
Morph
(dp260
g45
(lp261
Vg
aVl
aVa
aVs
asb(imorph
Morph
(dp262
g45
(lp263
Vg
aVl
aVa
aVz
aVa
asbtp264
(imorph
Morph
p265
(dp266
g45
(lp267
Vg
aVl
aVa
aVz
asbs((imorph
Morph
(dp268
g45
(lp269
Vl
aVe
aVs
asb(imorph
Morph
(dp270
g45
(lp271
Vl
aVe
aVs
aVa
asbtp272
(imorph
Morph
p273
(dp274
g45
(lp275
Vl
aVe
aVs
asbs(g62
g66
tp276
(imorph
Morph
p277
(dp278
g45
(lp279
Vv
aVe
ag74
aVe
aVr
asbs((imorph
Morph
(dp280
g45
(lp281
Vr
aVa
aVs
asb(imorph
Morph
(dp282
g45
(lp283
Vr
aVa
aVz
aVa
asbtp284
(imorph
Morph
p285
(dp286
g45
(lp287
Vr
aVa
aVz
asbs(g52
g55
tp288
(imorph
Morph
p289
(dp290
g45
(lp291
Vv
aVa
aVg
aVo
aVn
asbs((imorph
Morph
p292
(dp293
g45
(lp294
Vp
aVo
aVr
aVo
aVk
asb(imorph
Morph
p295
(dp296
g45
(lp297
Vp
aVo
aVr
aVo
aVg
aVa
asbtp298
(imorph
Morph
p299
(dp300
g45
(lp301
Vp
aVo
aVr
aVo
aVg
asbs((imorph
Morph
(dp302
g45
(lp303
Vs
aVo
aVl
aVd
aVa
aVt
asb(imorph
Morph
(dp304
g45
(lp305
Vs
aVo
aVl
aVd
aVa
aVt
aVa
asbtp306
(imorph
Morph
p307
(dp308
g45
(lp309
Vs
aVo
aVl
aVd
aVa
aVt
asbs((imorph
Morph
(dp310
g45
(lp311
Vx
aVl
aVe
aVp
asb(imorph
Morph
(dp312
g45
(lp313
Vx
aVl
aVe
aVb
aVa
asbtp314
(imorph
Morph
p315
(dp316
g45
(lp317
Vx
aVl
aVe
aVb
asbs((imorph
Morph
(dp318
g45
(lp319
Vz
aVa
aVv
aVo
aVt
asb(imorph
Morph
(dp320
g45
(lp321
Vz
aVa
aVv
aVo
aVd
aVa
asbtp322
(imorph
Morph
p323
(dp324
g45
(lp325
Vz
aVa
aVv
aVo
aVd
asbs((imorph
Morph
(dp326
g45
(lp327
Vp
aVo
aVr
aVo
aVk
asb(imorph
Morph
(dp328
g45
(lp329
Vp
aVo
aVr
aVo
aVk
aVa
asbtp330
(imorph
Morph
p331
(dp332
g45
(lp333
Vp
aVo
aVr
aVo
aVk
asbs((imorph
Morph
(dp334
g45
(lp335
Vg
aVr
aVi
aVp
asb(imorph
Morph
(dp336
g45
(lp337
Vg
aVr
aVi
aVb
aVa
asbtp338
(imorph
Morph
p339
(dp340
g45
(lp341
Vg
aVr
aVi
aVb
asbs((imorph
Morph
(dp342
g45
(lp343
Vp
aVr
aVu
aVt
asb(imorph
Morph
(dp344
g45
(lp345
Vp
aVr
aVu
aVd
aVa
asbtp346
(imorph
Morph
p347
(dp348
g45
(lp349
Vp
aVr
aVu
aVd
asbs((imorph
Morph
(dp350
g45
(lp351
Vu
aVr
aVo
aVk
asb(imorph
Morph
(dp352
g45
(lp353
Vu
aVr
aVo
aVk
aVa
asbtp354
(imorph
Morph
p355
(dp356
g45
(lp357
Vu
aVr
aVo
aVk
asbs(g75
g79
tp358
(imorph
Morph
p359
(dp360
g45
(lp361
Va
aVv
aVt
aVo
aVm
aVo
aVb
aVi
ag87
asbs((imorph
Morph
(dp362
g45
(lp363
Vg
aVo
aVl
aVo
aVs
asb(imorph
Morph
(dp364
g45
(lp365
Vg
aVo
aVl
aVo
aVs
aVa
asbtp366
(imorph
Morph
p367
(dp368
g45
(lp369
Vg
aVo
aVl
aVo
aVs
asbs((imorph
Morph
(dp370
g45
(lp371
Vt
aVr
aVu
aVp
asb(imorph
Morph
(dp372
g45
(lp373
Vt
aVr
aVu
aVp
aVa
asbtp374
(imorph
Morph
p375
(dp376
g45
(lp377
Vt
aVr
aVu
aVp
asbs((imorph
Morph
(dp378
g45
(lp379
Vt^s
p380
aVv
aVe
aVt
asb(imorph
Morph
(dp381
g45
(lp382
Vt^s
p383
aVv
aVe
aVt
aVa
asbtp384
(imorph
Morph
p385
(dp386
g45
(lp387
Vt^s
p388
aVv
aVe
aVt
asbs((imorph
Morph
(dp389
g45
(lp390
Vv
aVr
aVa
aVk
asb(imorph
Morph
(dp391
g45
(lp392
Vv
aVr
aVa
aVg
aVa
asbtp393
(imorph
Morph
p394
(dp395
g45
(lp396
Vv
aVr
aVa
aVg
asbs(g140
g143
tp397
(imorph
Morph
p398
(dp399
g45
(lp400
Vm
aVu
ag216
asbs(g198
g201
tp401
(imorph
Morph
p402
(dp403
g45
(lp404
Vk
aVa
aVr
aVa
aVn
aVd
aVa
aV\u0161
asbssg88
(lp405
(imorph
Morph
p406
(dp407
g45
(lp408
sba(imorph
Morph
p409
(dp410
g45
(lp411
Va
asbasbF6513.7571308612823
tp412
asS'problem'
p413
S'Odden_68_69_Russian'
p414
sS'finalFrontier'
p415
g6
(csolution
Frontier
p416
g8
NtRp417
(dp418
g41
g252
sg88
g405
sg50
g259
sS'frontiers'
p419
(lp420
(lp421
g232
aasbsS'parameters'
p422
g6
(cargparse
Namespace
p423
g8
NtRp424
(dp425
S'restore'
p426
NsS'features'
p427
S'simple'
p428
sS'universal'
p429
NsS'restrict'
p430
NsS'seed'
p431
S'0'
sS'serial'
p432
I00
sS'alignment'
p433
I00
sS'top'
p434
I1
sS'maximumDepth'
p435
I3
sS'window'
p436
NsS'minimizeBits'
p437
I5
sS'samples'
p438
I30
sS'save'
p439
NsS'resume'
p440
I00
sS'disableClean'
p441
I00
sS'stemBaseline'
p442
I30
sS'dummy'
p443
I00
sS'task'
p444
S'CEGIS'
p445
sS'geometry'
p446
NsS'verbosity'
p447
I0
sS'timeout'
p448
F24
sS'debug'
p449
NsS'cores'
p450
I40
sg413
S'Odden_68_69_Russian'
p451
sS'mergeFrontiers'
p452
I00
sbsb.