(iresult
Result
p1
(dp2
S'startTime'
p3
F1559660753.6966009
sS'solutionSequence'
p4
(lp5
(ccopy_reg
_reconstructor
p6
(csolution
Solution
p7
c__builtin__
object
p8
NtRp9
(dp10
S'rules'
p11
(lp12
(irule
Rule
p13
(dp14
S'leftTriggers'
p15
(irule
Guard
p16
(dp17
S'endOfString'
p18
I00
sS'specifications'
p19
(lp20
(irule
FeatureMatrix
p21
(dp22
S'featuresAndPolarities'
p23
(lp24
sS'representation'
p25
V[  ]
p26
sba(irule
ConstantPhoneme
p27
(dp28
S'p'
Va
sbasS'optionalEnding'
p29
I00
sg25
Va [  ]
p30
sS'starred'
p31
I00
sS'side'
p32
S'L'
sbsS'structuralChange'
p33
(irule
OffsetSpecification
p34
(dp35
S'offset'
p36
I-2
sbsS'rightTriggers'
p37
(irule
Guard
p38
(dp39
g18
I00
sg19
(lp40
sg29
I00
sg25
V
sg31
I00
sg32
S'R'
sbsS'focus'
p41
(irule
FeatureMatrix
p42
(dp43
g23
(lp44
sg25
V[  ]
p45
sbsg25
V[  ] ---> -2 / a [  ] _ 
p46
sba(irule
Rule
p47
(dp48
g15
(irule
Guard
p49
(dp50
g18
I00
sg19
(lp51
(irule
ConstantPhoneme
p52
(dp53
S'p'
Vs
sbasg29
I00
sg25
Vs
sg31
I00
sg32
S'L'
sbsg33
(irule
ConstantPhoneme
p54
(dp55
S'p'
V\u0268
sbsg37
(irule
Guard
p56
(dp57
g18
I00
sg19
(lp58
sg29
I00
sg25
V
sg31
I00
sg32
S'R'
sbsg41
(irule
ConstantPhoneme
p59
(dp60
S'p'
Va
sbsg25
Va ---> \u0268 / s _ 
p61
sbasS'prefixes'
p62
(lp63
(imorph
Morph
p64
(dp65
S'phonemes'
p66
(lp67
sba(imorph
Morph
p68
(dp69
g66
(lp70
sba(imorph
Morph
p71
(dp72
g66
(lp73
sba(imorph
Morph
p74
(dp75
g66
(lp76
sba(imorph
Morph
p77
(dp78
g66
(lp79
sbasS'underlyingForms'
p80
(dp81
((imorph
Morph
p82
(dp83
g66
(lp84
Vd
aVe
aVr
aVe
asb(imorph
Morph
p85
(dp86
g66
(lp87
Vd
aVe
aVr
aVe
aVs
aVi
asb(imorph
Morph
p88
(dp89
g66
(lp90
Vd
aVe
aVr
aVe
aVy
aVe
asb(imorph
Morph
p91
(dp92
g66
(lp93
Vd
aVe
aVr
aVe
aVd
aVe
aVn
asb(imorph
Morph
p94
(dp95
g66
(lp96
Vd
aVe
aVr
aVe
aVl
aVe
aVr
asbtp97
(imorph
Morph
p98
(dp99
g66
(lp100
Vd
aVe
aVr
aVe
asbs((imorph
Morph
p101
(dp102
g66
(lp103
Vo
aVd
aVa
asb(imorph
Morph
p104
(dp105
g66
(lp106
Vo
aVd
aVa
aVs
aV\u0268
asb(imorph
Morph
p107
(dp108
g66
(lp109
Vo
aVd
aVa
aVy
aVa
asb(imorph
Morph
p110
(dp111
g66
(lp112
Vo
aVd
aVa
aVd
aVa
aVn
asb(imorph
Morph
p113
(dp114
g66
(lp115
Vo
aVd
aVa
aVl
aVa
aVr
asbtp116
(imorph
Morph
p117
(dp118
g66
(lp119
Vo
aVd
aVa
asbssS'suffixes'
p120
(lp121
(imorph
Morph
p122
(dp123
g66
(lp124
sba(imorph
Morph
p125
(dp126
g66
(lp127
Vs
aVi
asba(imorph
Morph
p128
(dp129
g66
(lp130
Vy
aVe
asba(imorph
Morph
p131
(dp132
g66
(lp133
Vd
aVe
aVn
asba(imorph
Morph
p134
(dp135
g66
(lp136
Vl
aVe
aVr
asbasbF1333.3352341651917
tp137
a(g6
(g7
g8
NtRp138
(dp139
g11
(lp140
(irule
Rule
p141
(dp142
g15
(irule
Guard
p143
(dp144
g18
I00
sg19
(lp145
(irule
FeatureMatrix
p146
(dp147
g23
(lp148
sg25
V[  ]
p149
sba(irule
ConstantPhoneme
p150
(dp151
S'p'
Va
sbasg29
I00
sg25
Va [  ]
p152
sg31
I00
sg32
S'L'
sbsg33
(irule
OffsetSpecification
p153
(dp154
g36
I-2
sbsg37
(irule
Guard
p155
(dp156
g18
I00
sg19
(lp157
sg29
I00
sg25
V
sg31
I00
sg32
S'R'
sbsg41
(irule
FeatureMatrix
p158
(dp159
g23
(lp160
sg25
V[  ]
p161
sbsg25
V[  ] ---> -2 / a [  ] _ 
p162
sba(irule
Rule
p163
(dp164
g15
(irule
Guard
p165
(dp166
g18
I00
sg19
(lp167
(irule
FeatureMatrix
p168
(dp169
g23
(lp170
sg25
V[  ]
p171
sba(irule
FeatureMatrix
p172
(dp173
g23
(lp174
sg25
V[  ]
p175
sbasg29
I00
sg25
V[  ] [  ]
p176
sg31
I00
sg32
S'L'
sbsg33
(irule
OffsetSpecification
p177
(dp178
g36
I-2
sbsg37
(irule
Guard
p179
(dp180
g18
I00
sg19
(lp181
sg29
I00
sg25
V
sg31
I00
sg32
S'R'
sbsg41
(irule
ConstantPhoneme
p182
(dp183
S'p'
Vi
sbsg25
Vi ---> -2 / [  ] [  ] _ 
p184
sba(irule
Rule
p185
(dp186
g15
(irule
Guard
p187
(dp188
g18
I00
sg19
(lp189
(irule
ConstantPhoneme
p190
(dp191
S'p'
Vs
sbasg29
I00
sg25
Vs
sg31
I00
sg32
S'L'
sbsg33
(irule
ConstantPhoneme
p192
(dp193
S'p'
V\u0268
sbsg37
(irule
Guard
p194
(dp195
g18
I00
sg19
(lp196
sg29
I00
sg25
V
sg31
I00
sg32
S'R'
sbsg41
(irule
ConstantPhoneme
p197
(dp198
S'p'
Va
sbsg25
Va ---> \u0268 / s _ 
p199
sbasg62
(lp200
(imorph
Morph
p201
(dp202
g66
(lp203
sba(imorph
Morph
p204
(dp205
g66
(lp206
sba(imorph
Morph
p207
(dp208
g66
(lp209
sba(imorph
Morph
p210
(dp211
g66
(lp212
sba(imorph
Morph
p213
(dp214
g66
(lp215
sbasg80
(dp216
((imorph
Morph
p217
(dp218
g66
(lp219
Vu\u0308
p220
aVt
aVu\u0308
p221
asb(imorph
Morph
p222
(dp223
g66
(lp224
Vu\u0308
p225
aVt
aVu\u0308
p226
aVs
aVu\u0308
p227
asb(imorph
Morph
p228
(dp229
g66
(lp230
Vu\u0308
p231
aVt
aVu\u0308
p232
aVy
aVe
asb(imorph
Morph
p233
(dp234
g66
(lp235
Vu\u0308
p236
aVt
aVu\u0308
p237
aVd
aVe
aVn
asb(imorph
Morph
p238
(dp239
g66
(lp240
Vu\u0308
p241
aVt
aVu\u0308
p242
aVl
aVe
aVr
asbtp243
(imorph
Morph
p244
(dp245
g66
(lp246
Vu\u0308
p247
aVt
ag247
asbs(g82
g85
g88
g91
g94
tp248
(imorph
Morph
p249
(dp250
g66
(lp251
Vd
aVe
aVr
aVi
asbs(g101
g104
g107
g110
g113
tp252
(imorph
Morph
p253
(dp254
g66
(lp255
Vo
aVd
aVa
asbssg120
(lp256
(imorph
Morph
p257
(dp258
g66
(lp259
sba(imorph
Morph
p260
(dp261
g66
(lp262
Vs
aVi
asba(imorph
Morph
p263
(dp264
g66
(lp265
Vy
aVe
asba(imorph
Morph
p266
(dp267
g66
(lp268
Vd
aVe
aVn
asba(imorph
Morph
p269
(dp270
g66
(lp271
Vl
aVe
aVr
asbasbF24009.368753194809
tp272
asS'problem'
p273
S'Odden_4.5_Turkish'
p274
sS'finalFrontier'
p275
g6
(csolution
Frontier
p276
g8
NtRp277
(dp278
g62
g200
sg120
g256
sg80
g216
sS'frontiers'
p279
(lp280
(lp281
g141
aa(lp282
g163
aa(lp283
g185
aasbsS'parameters'
p284
g6
(cargparse
Namespace
p285
g8
NtRp286
(dp287
S'restore'
p288
NsS'features'
p289
S'none'
p290
sS'universal'
p291
NsS'restrict'
p292
NsS'seed'
p293
S'0'
sS'serial'
p294
I00
sS'alignment'
p295
I00
sS'top'
p296
I1
sS'maximumDepth'
p297
I3
sS'window'
p298
NsS'minimizeBits'
p299
I5
sS'samples'
p300
I30
sS'save'
p301
NsS'resume'
p302
I00
sS'disableClean'
p303
I01
sS'stemBaseline'
p304
I30
sS'dummy'
p305
I00
sS'task'
p306
S'CEGIS'
p307
sS'geometry'
p308
NsS'verbosity'
p309
I0
sS'timeout'
p310
F24
sS'debug'
p311
NsS'cores'
p312
I64
sg273
S'Odden_4.5_Turkish'
p313
sS'mergeFrontiers'
p314
I00
sbsb.