(iresult
Result
p1
(dp2
S'startTime'
p3
F1565820358.4386971
sS'solutionSequence'
p4
(lp5
(ccopy_reg
_reconstructor
p6
(csolution
Solution
p7
c__builtin__
object
p8
NtRp9
(dp10
S'rules'
p11
(lp12
(irule
Rule
p13
(dp14
S'leftTriggers'
p15
(irule
Guard
p16
(dp17
S'endOfString'
p18
I00
sS'specifications'
p19
(lp20
sS'optionalEnding'
p21
I00
sS'representation'
p22
V
sS'starred'
p23
I00
sS'side'
p24
S'L'
sbsS'structuralChange'
p25
(irule
FeatureMatrix
p26
(dp27
S'featuresAndPolarities'
p28
(lp29
sg22
V[  ]
p30
sbsS'rightTriggers'
p31
(irule
Guard
p32
(dp33
g18
I00
sg19
(lp34
sg21
I00
sg22
V
sg23
I00
sg24
S'R'
sbsS'focus'
p35
(irule
FeatureMatrix
p36
(dp37
g28
(lp38
sg22
V[  ]
p39
sbsg22
V[  ] ---> [  ] /  _ 
p40
sbasS'prefixes'
p41
(lp42
(imorph
Morph
p43
(dp44
S'phonemes'
p45
(lp46
sba(imorph
Morph
p47
(dp48
g45
(lp49
sba(imorph
Morph
p50
(dp51
g45
(lp52
sba(imorph
Morph
p53
(dp54
g45
(lp55
sba(imorph
Morph
p56
(dp57
g45
(lp58
sba(imorph
Morph
p59
(dp60
g45
(lp61
sba(imorph
Morph
p62
(dp63
g45
(lp64
sba(imorph
Morph
p65
(dp66
g45
(lp67
sbasS'underlyingForms'
p68
(dp69
((imorph
Morph
p70
(dp71
g45
(lp72
Vs
aVu
aVn
aVc\u030c
p73
aVa
aVn
asb(imorph
Morph
p74
(dp75
g45
(lp76
Vs
aVu
aVn
aVc\u030c
p77
aVa
aVn
aVa
asb(imorph
Morph
p78
(dp79
g45
(lp80
Vs
aVu
aVn
aVc\u030c
p81
aVa
aVn
aVo
asb(imorph
Morph
p82
(dp83
g45
(lp84
Vs
aVu
aVn
aVc\u030c
p85
aVa
aVn
aVi
asbNNNNtp86
(imorph
Morph
p87
(dp88
g45
(lp89
Vs
aVu
aVn
aVc\u030c
p90
aVa
aVn
asbs((imorph
Morph
p91
(dp92
g45
(lp93
Vs
aVv
aVe
aVc\u030c
p94
aVa
aVn
asb(imorph
Morph
p95
(dp96
g45
(lp97
Vs
aVv
aVe
aVc\u030c
p98
aVa
aVn
aVa
asb(imorph
Morph
p99
(dp100
g45
(lp101
Vs
aVv
aVe
aVc\u030c
p102
aVa
aVn
aVo
asb(imorph
Morph
p103
(dp104
g45
(lp105
Vs
aVv
aVe
aVc\u030c
p106
aVa
aVn
aVi
asbNNNNtp107
(imorph
Morph
p108
(dp109
g45
(lp110
Vs
aVv
aVe
ag90
aVa
aVn
asbs((imorph
Morph
p111
(dp112
g45
(lp113
Vk
aVr
aVi
aVz\u030c
p114
aVa
aVn
asb(imorph
Morph
p115
(dp116
g45
(lp117
Vk
aVr
aVi
aVz\u030c
p118
aVa
aVn
aVa
asb(imorph
Morph
p119
(dp120
g45
(lp121
Vk
aVr
aVi
aVz\u030c
p122
aVa
aVn
aVo
asb(imorph
Morph
p123
(dp124
g45
(lp125
Vk
aVr
aVi
aVz\u030c
p126
aVa
aVn
aVi
asbNNNNtp127
(imorph
Morph
p128
(dp129
g45
(lp130
Vk
aVr
aVi
aVz\u030c
p131
aVa
aVn
asbssS'suffixes'
p132
(lp133
(imorph
Morph
p134
(dp135
g45
(lp136
sba(imorph
Morph
p137
(dp138
g45
(lp139
Va
asba(imorph
Morph
p140
(dp141
g45
(lp142
Vo
asba(imorph
Morph
p143
(dp144
g45
(lp145
Vi
asba(imorph
Morph
p146
(dp147
g45
(lp148
sba(imorph
Morph
p149
(dp150
g45
(lp151
sba(imorph
Morph
p152
(dp153
g45
(lp154
sba(imorph
Morph
p155
(dp156
g45
(lp157
sbasbF136.24448084831238
tp158
a(g6
(g7
g8
NtRp159
(dp160
g11
(lp161
(irule
Rule
p162
(dp163
g15
(irule
Guard
p164
(dp165
g18
I00
sg19
(lp166
(irule
ConstantPhoneme
p167
(dp168
S'p'
Vd
sbasg21
I00
sg22
Vd
sg23
I00
sg24
S'L'
sbsg25
(irule
FeatureMatrix
p169
(dp170
g28
(lp171
(I01
S'highTone'
p172
tp173
asg22
V[ +highTone ]
p174
sbsg31
(irule
Guard
p175
(dp176
g18
I00
sg19
(lp177
sg21
I00
sg22
V
sg23
I00
sg24
S'R'
sbsg35
(irule
FeatureMatrix
p178
(dp179
g28
(lp180
sg22
V[  ]
p181
sbsg22
V[  ] ---> [ +highTone ] / d _ 
p182
sba(irule
Rule
p183
(dp184
g15
(irule
Guard
p185
(dp186
g18
I00
sg19
(lp187
sg21
I00
sg22
V
sg23
I00
sg24
S'L'
sbsg25
(irule
FeatureMatrix
p188
(dp189
g28
(lp190
(I00
g172
tp191
asg22
V[ -highTone ]
p192
sbsg31
(irule
Guard
p193
(dp194
g18
I00
sg19
(lp195
(irule
FeatureMatrix
p196
(dp197
g28
(lp198
sg22
V[  ]
p199
sba(irule
FeatureMatrix
p200
(dp201
g28
(lp202
sg22
V[  ]
p203
sbasg21
I00
sg22
V[  ] [  ]
p204
sg23
I00
sg24
S'R'
sbsg35
(irule
FeatureMatrix
p205
(dp206
g28
(lp207
sg22
V[  ]
p208
sbsg22
V[  ] ---> [ -highTone ] /  _ [  ] [  ]
p209
sbasg41
(lp210
(imorph
Morph
p211
(dp212
g45
(lp213
sba(imorph
Morph
p214
(dp215
g45
(lp216
sba(imorph
Morph
p217
(dp218
g45
(lp219
sba(imorph
Morph
p220
(dp221
g45
(lp222
sba(imorph
Morph
p223
(dp224
g45
(lp225
sba(imorph
Morph
p226
(dp227
g45
(lp228
sba(imorph
Morph
p229
(dp230
g45
(lp231
sba(imorph
Morph
p232
(dp233
g45
(lp234
sbasg68
(dp235
(g70
g74
g78
g82
NNNNtp236
(imorph
Morph
p237
(dp238
g45
(lp239
Vs
aVu
aVn
ag90
aVa
aVn
asbs(g91
g95
g99
g103
NNNNtp240
(imorph
Morph
p241
(dp242
g45
(lp243
Vs
aVv
aVe
ag90
aVa
aVn
asbs((imorph
Morph
p244
(dp245
g45
(lp246
Vm
aVl
aVa\u0301
p247
aVd
asb(imorph
Morph
p248
(dp249
g45
(lp250
Vm
aVl
aVa
aVd
aVa\u0301
p251
asb(imorph
Morph
p252
(dp253
g45
(lp254
Vm
aVl
aVa
aVd
aVo\u0301
p255
asb(imorph
Morph
p256
(dp257
g45
(lp258
Vm
aVl
aVa
aVd
aVi\u0301
p259
asbNNNNtp260
(imorph
Morph
p261
(dp262
g45
(lp263
Vm
aVl
aVa\u0301
p264
aVd
asbs(g111
g115
g119
g123
NNNNtp265
(imorph
Morph
p266
(dp267
g45
(lp268
Vk
aVr
aVi
ag131
aVa
aVn
asbssg132
(lp269
(imorph
Morph
p270
(dp271
g45
(lp272
sba(imorph
Morph
p273
(dp274
g45
(lp275
Va
asba(imorph
Morph
p276
(dp277
g45
(lp278
Vo
asba(imorph
Morph
p279
(dp280
g45
(lp281
Vi
asba(imorph
Morph
p282
(dp283
g45
(lp284
sba(imorph
Morph
p285
(dp286
g45
(lp287
sba(imorph
Morph
p288
(dp289
g45
(lp290
sba(imorph
Morph
p291
(dp292
g45
(lp293
sbasbF2784.8976428508759
tp294
a(g6
(g7
g8
NtRp295
(dp296
g11
(lp297
(irule
Rule
p298
(dp299
g15
(irule
Guard
p300
(dp301
g18
I00
sg19
(lp302
(irule
FeatureMatrix
p303
(dp304
g28
(lp305
(I01
S'nasal'
p306
tp307
asg22
V[ +nasal ]
p308
sbasg21
I00
sg22
g308
sg23
I00
sg24
S'L'
sbsg25
(irule
FeatureMatrix
p309
(dp310
g28
(lp311
(I00
g172
tp312
asg22
V[ -highTone ]
p313
sbsg31
(irule
Guard
p314
(dp315
g18
I00
sg19
(lp316
sg21
I00
sg22
V
sg23
I00
sg24
S'R'
sbsg35
(irule
FeatureMatrix
p317
(dp318
g28
(lp319
sg22
V[  ]
p320
sbsg22
V[  ] ---> [ -highTone ] / [ +nasal ] _ 
p321
sba(irule
Rule
p322
(dp323
g15
(irule
Guard
p324
(dp325
g18
I00
sg19
(lp326
sg21
I00
sg22
V
sg23
I00
sg24
S'L'
sbsg25
(irule
FeatureMatrix
p327
(dp328
g28
(lp329
(I00
g172
tp330
asg22
V[ -highTone ]
p331
sbsg31
(irule
Guard
p332
(dp333
g18
I00
sg19
(lp334
(irule
FeatureMatrix
p335
(dp336
g28
(lp337
sg22
V[  ]
p338
sba(irule
FeatureMatrix
p339
(dp340
g28
(lp341
sg22
V[  ]
p342
sbasg21
I00
sg22
V[  ] [  ]
p343
sg23
I00
sg24
S'R'
sbsg35
(irule
FeatureMatrix
p344
(dp345
g28
(lp346
sg22
V[  ]
p347
sbsg22
V[  ] ---> [ -highTone ] /  _ [  ] [  ]
p348
sbasg41
(lp349
(imorph
Morph
p350
(dp351
g45
(lp352
sba(imorph
Morph
p353
(dp354
g45
(lp355
sba(imorph
Morph
p356
(dp357
g45
(lp358
sba(imorph
Morph
p359
(dp360
g45
(lp361
sba(imorph
Morph
p362
(dp363
g45
(lp364
sba(imorph
Morph
p365
(dp366
g45
(lp367
sba(imorph
Morph
p368
(dp369
g45
(lp370
sba(imorph
Morph
p371
(dp372
g45
(lp373
sbasg68
(dp374
((imorph
Morph
p375
(dp376
g45
(lp377
Vt
aVu\u0301
p378
aVp
asb(imorph
Morph
p379
(dp380
g45
(lp381
Vt
aVu
aVp
aVa\u0301
p382
asb(imorph
Morph
p383
(dp384
g45
(lp385
Vt
aVu
aVp
aVo\u0301
p386
asb(imorph
Morph
p387
(dp388
g45
(lp389
Vt
aVu
aVp
aVi\u0301
p390
asbNNNNtp391
(imorph
Morph
p392
(dp393
g45
(lp394
Vt
aVu\u0301
p395
aVp
asbs(g70
g74
g78
g82
NNNNtp396
(imorph
Morph
p397
(dp398
g45
(lp399
Vs
ag395
aVn
ag90
aVa
aVn
asbs(g91
g95
g99
g103
NNNNtp400
(imorph
Morph
p401
(dp402
g45
(lp403
Vs
aVv
aVe
ag90
aVa
aVn
asbs(g244
g248
g252
g256
NNNNtp404
(imorph
Morph
p405
(dp406
g45
(lp407
Vm
aVl
ag264
aVd
asbs(g111
g115
g119
g123
NNNNtp408
(imorph
Morph
p409
(dp410
g45
(lp411
Vk
aVr
aVi
ag131
aVa
aVn
asbssg132
(lp412
(imorph
Morph
p413
(dp414
g45
(lp415
sba(imorph
Morph
p416
(dp417
g45
(lp418
g264
asba(imorph
Morph
p419
(dp420
g45
(lp421
Vo\u0301
p422
asba(imorph
Morph
p423
(dp424
g45
(lp425
Vi\u0301
p426
asba(imorph
Morph
p427
(dp428
g45
(lp429
sba(imorph
Morph
p430
(dp431
g45
(lp432
sba(imorph
Morph
p433
(dp434
g45
(lp435
sba(imorph
Morph
p436
(dp437
g45
(lp438
sbasbF6643.5982890129089
tp439
a(g6
(g7
g8
NtRp440
(dp441
g11
(lp442
(irule
Rule
p443
(dp444
g15
(irule
Guard
p445
(dp446
g18
I00
sg19
(lp447
(irule
FeatureMatrix
p448
(dp449
g28
(lp450
sg22
V[  ]
p451
sba(irule
FeatureMatrix
p452
(dp453
g28
(lp454
(I01
g172
tp455
asg22
V[ +highTone ]
p456
sbasg21
I00
sg22
V[ +highTone ] [  ]
p457
sg23
I00
sg24
S'L'
sbsg25
(irule
FeatureMatrix
p458
(dp459
g28
(lp460
(I01
g172
tp461
asg22
V[ +highTone ]
p462
sbsg31
(irule
Guard
p463
(dp464
g18
I00
sg19
(lp465
sg21
I00
sg22
V
sg23
I00
sg24
S'R'
sbsg35
(irule
FeatureMatrix
p466
(dp467
g28
(lp468
sg22
V[  ]
p469
sbsg22
V[  ] ---> [ +highTone ] / [ +highTone ] [  ] _ 
p470
sba(irule
Rule
p471
(dp472
g15
(irule
Guard
p473
(dp474
g18
I00
sg19
(lp475
sg21
I00
sg22
V
sg23
I00
sg24
S'L'
sbsg25
(irule
FeatureMatrix
p476
(dp477
g28
(lp478
(I00
g172
tp479
asg22
V[ -highTone ]
p480
sbsg31
(irule
Guard
p481
(dp482
g18
I00
sg19
(lp483
(irule
FeatureMatrix
p484
(dp485
g28
(lp486
sg22
V[  ]
p487
sba(irule
FeatureMatrix
p488
(dp489
g28
(lp490
sg22
V[  ]
p491
sbasg21
I00
sg22
V[  ] [  ]
p492
sg23
I00
sg24
S'R'
sbsg35
(irule
FeatureMatrix
p493
(dp494
g28
(lp495
sg22
V[  ]
p496
sbsg22
V[  ] ---> [ -highTone ] /  _ [  ] [  ]
p497
sbasg41
(lp498
(imorph
Morph
p499
(dp500
g45
(lp501
sba(imorph
Morph
p502
(dp503
g45
(lp504
sba(imorph
Morph
p505
(dp506
g45
(lp507
sba(imorph
Morph
p508
(dp509
g45
(lp510
sba(imorph
Morph
p511
(dp512
g45
(lp513
sba(imorph
Morph
p514
(dp515
g45
(lp516
sba(imorph
Morph
p517
(dp518
g45
(lp519
sba(imorph
Morph
p520
(dp521
g45
(lp522
sbasg68
(dp523
(g91
g95
g99
g103
NNNNtp524
(imorph
Morph
p525
(dp526
g45
(lp527
Vs
aVv
aVe
ag90
aVa
aVn
asbs(g244
g248
g252
g256
NNNNtp528
(imorph
Morph
p529
(dp530
g45
(lp531
Vm
aVl
ag264
aVd
asbs((imorph
Morph
p532
(dp533
g45
(lp534
Vb
aVo
aVg
aVa
aVt
asb(imorph
Morph
p535
(dp536
g45
(lp537
Vb
aVo
aVg
aVa
aVt
aVa
asb(imorph
Morph
p538
(dp539
g45
(lp540
Vb
aVo
aVg
aVa
aVt
aVo
asb(imorph
Morph
p541
(dp542
g45
(lp543
Vb
aVo
aVg
aVa
aVt
aVi
asbNNNNtp544
(imorph
Morph
p545
(dp546
g45
(lp547
Vb
aVo
aVg
aVa
aVt
asbs(g70
g74
g78
g82
NNNNtp548
(imorph
Morph
p549
(dp550
g45
(lp551
Vs
aVu
aVn
ag90
aVa
aVn
asbs(g375
g379
g383
g387
NNNNtp552
(imorph
Morph
p553
(dp554
g45
(lp555
Vt
ag395
aVp
asbs(g111
g115
g119
g123
NNNNtp556
(imorph
Morph
p557
(dp558
g45
(lp559
Vk
aVr
aVi
ag131
aVa
aVn
asbssg132
(lp560
(imorph
Morph
p561
(dp562
g45
(lp563
sba(imorph
Morph
p564
(dp565
g45
(lp566
Va
asba(imorph
Morph
p567
(dp568
g45
(lp569
Vo
asba(imorph
Morph
p570
(dp571
g45
(lp572
Vi
asba(imorph
Morph
p573
(dp574
g45
(lp575
sba(imorph
Morph
p576
(dp577
g45
(lp578
sba(imorph
Morph
p579
(dp580
g45
(lp581
sba(imorph
Morph
p582
(dp583
g45
(lp584
sbasbF10670.43607878685
tp585
a(g6
(g7
g8
NtRp586
(dp587
g11
(lp588
(irule
Rule
p589
(dp590
g15
(irule
Guard
p591
(dp592
g18
I00
sg19
(lp593
(irule
FeatureMatrix
p594
(dp595
g28
(lp596
sg22
V[  ]
p597
sba(irule
ConstantPhoneme
p598
(dp599
S'p'
Va
sbasg21
I00
sg22
Va [  ]
p600
sg23
I00
sg24
S'L'
sbsg25
(irule
FeatureMatrix
p601
(dp602
g28
(lp603
(I00
g172
tp604
asg22
V[ -highTone ]
p605
sbsg31
(irule
Guard
p606
(dp607
g18
I00
sg19
(lp608
sg21
I00
sg22
V
sg23
I00
sg24
S'R'
sbsg35
(irule
FeatureMatrix
p609
(dp610
g28
(lp611
sg22
V[  ]
p612
sbsg22
V[  ] ---> [ -highTone ] / a [  ] _ 
p613
sba(irule
Rule
p614
(dp615
g15
(irule
Guard
p616
(dp617
g18
I00
sg19
(lp618
sg21
I00
sg22
V
sg23
I00
sg24
S'L'
sbsg25
(irule
FeatureMatrix
p619
(dp620
g28
(lp621
(I00
g172
tp622
asg22
V[ -highTone ]
p623
sbsg31
(irule
Guard
p624
(dp625
g18
I00
sg19
(lp626
(irule
FeatureMatrix
p627
(dp628
g28
(lp629
sg22
V[  ]
p630
sba(irule
FeatureMatrix
p631
(dp632
g28
(lp633
sg22
V[  ]
p634
sbasg21
I00
sg22
V[  ] [  ]
p635
sg23
I00
sg24
S'R'
sbsg35
(irule
FeatureMatrix
p636
(dp637
g28
(lp638
sg22
V[  ]
p639
sbsg22
V[  ] ---> [ -highTone ] /  _ [  ] [  ]
p640
sba(irule
Rule
p641
(dp642
g15
(irule
Guard
p643
(dp644
g18
I00
sg19
(lp645
sg21
I00
sg22
V
sg23
I00
sg24
S'L'
sbsg25
(irule
ConstantPhoneme
p646
(dp647
S'p'
Vo
sbsg31
(irule
Guard
p648
(dp649
g18
I01
sg19
(lp650
sg21
I00
sg22
V#
sg23
I00
sg24
S'R'
sbsg35
(irule
FeatureMatrix
p651
(dp652
g28
(lp653
(I01
S'liquid'
p654
tp655
asg22
V[ +liquid ]
p656
sbsg22
V[ +liquid ] ---> o /  _ #
p657
sbasg41
(lp658
(imorph
Morph
p659
(dp660
g45
(lp661
sba(imorph
Morph
p662
(dp663
g45
(lp664
sba(imorph
Morph
p665
(dp666
g45
(lp667
sba(imorph
Morph
p668
(dp669
g45
(lp670
sba(imorph
Morph
p671
(dp672
g45
(lp673
sba(imorph
Morph
p674
(dp675
g45
(lp676
sba(imorph
Morph
p677
(dp678
g45
(lp679
sba(imorph
Morph
p680
(dp681
g45
(lp682
sbasg68
(dp683
((imorph
Morph
(dp684
g45
(lp685
Vk
aVr
aVa
aVd
aVe\u0301
p686
aVn
asb(imorph
Morph
(dp687
g45
(lp688
Vk
aVr
aVa
aVd
aVe
aVn
aVa\u0301
p689
asb(imorph
Morph
(dp690
g45
(lp691
Vk
aVr
aVa
aVd
aVe
aVn
aVo\u0301
p692
asb(imorph
Morph
(dp693
g45
(lp694
Vk
aVr
aVa
aVd
aVe
aVn
aVi\u0301
p695
asbNNNNtp696
(imorph
Morph
p697
(dp698
g45
(lp699
Vk
aVr
ag264
aVd
aVe\u0301
p700
aVn
asbs((imorph
Morph
p701
(dp702
g45
(lp703
Vb
aVe\u0301
p704
aVo
asb(imorph
Morph
p705
(dp706
g45
(lp707
Vb
aVe
aVl
aVa\u0301
p708
asb(imorph
Morph
p709
(dp710
g45
(lp711
Vb
aVe
aVl
aVo\u0301
p712
asb(imorph
Morph
p713
(dp714
g45
(lp715
Vb
aVe
aVl
aVi\u0301
p716
asbNNNNtp717
(imorph
Morph
p718
(dp719
g45
(lp720
Vb
ag700
aVl
asbs((imorph
Morph
(dp721
g45
(lp722
Vr
aVa
aVp
aVa
aVv
asb(imorph
Morph
(dp723
g45
(lp724
Vr
aVa
aVp
aVa
aVv
aVa
asb(imorph
Morph
(dp725
g45
(lp726
Vr
aVa
aVp
aVa
aVv
aVo
asb(imorph
Morph
(dp727
g45
(lp728
Vr
aVa
aVp
aVa
aVv
aVi
asbNNNNtp729
(imorph
Morph
p730
(dp731
g45
(lp732
Vr
aVa
aVp
aVa
aVv
asbs((imorph
Morph
(dp733
g45
(lp734
Vz
aVe
aVl
aVe\u0301
p735
aVn
asb(imorph
Morph
(dp736
g45
(lp737
Vz
aVe
aVl
aVe
aVn
aVa\u0301
p738
asb(imorph
Morph
(dp739
g45
(lp740
Vz
aVe
aVl
aVe
aVn
aVo\u0301
p741
asb(imorph
Morph
(dp742
g45
(lp743
Vz
aVe
aVl
aVe
aVn
aVi\u0301
p744
asbNNNNtp745
(imorph
Morph
p746
(dp747
g45
(lp748
Vz
aVe
aVl
ag700
aVn
asbs((imorph
Morph
(dp749
g45
(lp750
Vd
aVa
aVl
aVe\u0301
p751
aVk
asb(imorph
Morph
(dp752
g45
(lp753
Vd
aVa
aVl
aVe
aVk
aVa\u0301
p754
asb(imorph
Morph
(dp755
g45
(lp756
Vd
aVa
aVl
aVe
aVk
aVo\u0301
p757
asb(imorph
Morph
(dp758
g45
(lp759
Vd
aVa
aVl
aVe
aVk
aVi\u0301
p760
asbNNNNtp761
(imorph
Morph
p762
(dp763
g45
(lp764
Vd
ag264
aVl
ag700
aVk
asbs(g91
g95
g99
g103
NNNNtp765
(imorph
Morph
p766
(dp767
g45
(lp768
Vs
aVv
aVe
ag90
aVa
aVn
asbs((imorph
Morph
(dp769
g45
(lp770
Vd
aVe
aVb
aVe\u0301
p771
aVo
asb(imorph
Morph
(dp772
g45
(lp773
Vd
aVe
aVb
aVe
aVl
aVa\u0301
p774
asb(imorph
Morph
(dp775
g45
(lp776
Vd
aVe
aVb
aVe
aVl
aVo\u0301
p777
asb(imorph
Morph
(dp778
g45
(lp779
Vd
aVe
aVb
aVe
aVl
aVi\u0301
p780
asbNNNNtp781
(imorph
Morph
p782
(dp783
g45
(lp784
Vd
aVe
aVb
ag700
aVl
asbs(g244
g248
g252
g256
NNNNtp785
(imorph
Morph
p786
(dp787
g45
(lp788
Vm
aVl
ag264
aVd
asbs((imorph
Morph
(dp789
g45
(lp790
Vm
aVi\u0301
p791
aVo
asb(imorph
Morph
(dp792
g45
(lp793
Vm
aVi
aVl
aVa\u0301
p794
asb(imorph
Morph
(dp795
g45
(lp796
Vm
aVi
aVl
aVo\u0301
p797
asb(imorph
Morph
(dp798
g45
(lp799
Vm
aVi
aVl
aVi\u0301
p800
asbNNNNtp801
(imorph
Morph
p802
(dp803
g45
(lp804
Vm
ag426
aVl
asbs((imorph
Morph
(dp805
g45
(lp806
Vb
aVl
aVa\u0301
p807
aVg
asb(imorph
Morph
(dp808
g45
(lp809
Vb
aVl
aVa
aVg
aVa\u0301
p810
asb(imorph
Morph
(dp811
g45
(lp812
Vb
aVl
aVa
aVg
aVo\u0301
p813
asb(imorph
Morph
(dp814
g45
(lp815
Vb
aVl
aVa
aVg
aVi\u0301
p816
asbNNNNtp817
(imorph
Morph
p818
(dp819
g45
(lp820
Vb
aVl
ag264
aVg
asbs((imorph
Morph
(dp821
g45
(lp822
Vu
aVs
aVt
aVa
aVo
asb(imorph
Morph
(dp823
g45
(lp824
Vu
aVs
aVt
aVa
aVl
aVa
asb(imorph
Morph
(dp825
g45
(lp826
Vu
aVs
aVt
aVa
aVl
aVo
asb(imorph
Morph
(dp827
g45
(lp828
Vu
aVs
aVt
aVa
aVl
aVi
asbNNNNtp829
(imorph
Morph
p830
(dp831
g45
(lp832
g395
aVs
aVt
aVa
aVl
asbs(g532
g535
g538
g541
NNNNtp833
(imorph
Morph
p834
(dp835
g45
(lp836
Vb
aVo
aVg
aVa
aVt
asbs((imorph
Morph
(dp837
g45
(lp838
Vv
aVi
aVs
aVo\u0301
p839
aVk
asb(imorph
Morph
(dp840
g45
(lp841
Vv
aVi
aVs
aVo
aVk
aVa\u0301
p842
asb(imorph
Morph
(dp843
g45
(lp844
Vv
aVi
aVs
aVo
aVk
aVo\u0301
p845
asb(imorph
Morph
(dp846
g45
(lp847
Vv
aVi
aVs
aVo
aVk
aVi\u0301
p848
asbNNNNtp849
(imorph
Morph
p850
(dp851
g45
(lp852
Vv
aVi
aVs
ag422
aVk
asbs((imorph
Morph
(dp853
g45
(lp854
Vg
aVr
aVu\u0301
p855
aVb
asb(imorph
Morph
(dp856
g45
(lp857
Vg
aVr
aVu
aVb
aVa\u0301
p858
asb(imorph
Morph
(dp859
g45
(lp860
Vg
aVr
aVu
aVb
aVo\u0301
p861
asb(imorph
Morph
(dp862
g45
(lp863
Vg
aVr
aVu
aVb
aVi\u0301
p864
asbNNNNtp865
(imorph
Morph
p866
(dp867
g45
(lp868
Vg
aVr
ag395
aVb
asbs(g70
g74
g78
g82
NNNNtp869
(imorph
Morph
p870
(dp871
g45
(lp872
Vs
aVu
aVn
ag90
aVa
aVn
asbs((imorph
Morph
(dp873
g45
(lp874
Vd
aVu
aVb
aVo\u0301
p875
aVk
asb(imorph
Morph
(dp876
g45
(lp877
Vd
aVu
aVb
aVo
aVk
aVa\u0301
p878
asb(imorph
Morph
(dp879
g45
(lp880
Vd
aVu
aVb
aVo
aVk
aVo\u0301
p881
asb(imorph
Morph
(dp882
g45
(lp883
Vd
aVu
aVb
aVo
aVk
aVi\u0301
p884
asbNNNNtp885
(imorph
Morph
p886
(dp887
g45
(lp888
Vd
aVu
aVb
ag422
aVk
asbs(g375
g379
g383
g387
NNNNtp889
(imorph
Morph
p890
(dp891
g45
(lp892
Vt
ag395
aVp
asbs(g111
g115
g119
g123
NNNNtp893
(imorph
Morph
p894
(dp895
g45
(lp896
Vk
aVr
aVi
ag131
aVa
aVn
asbssg132
(lp897
(imorph
Morph
p898
(dp899
g45
(lp900
sba(imorph
Morph
p901
(dp902
g45
(lp903
g264
asba(imorph
Morph
p904
(dp905
g45
(lp906
g422
asba(imorph
Morph
p907
(dp908
g45
(lp909
g426
asba(imorph
Morph
p910
(dp911
g45
(lp912
sba(imorph
Morph
p913
(dp914
g45
(lp915
sba(imorph
Morph
p916
(dp917
g45
(lp918
sba(imorph
Morph
p919
(dp920
g45
(lp921
sbasbF85384.495395898819
tp922
asS'problem'
p923
S'Odden_4.1_Serbo_Croatian'
p924
sS'finalFrontier'
p925
g6
(csolution
Frontier
p926
g8
NtRp927
(dp928
g41
g658
sg132
g897
sg68
g683
sS'frontiers'
p929
(lp930
(lp931
g589
aa(lp932
g614
aa(lp933
g641
aasbsS'parameters'
p934
g6
(cargparse
Namespace
p935
g8
NtRp936
(dp937
S'restore'
p938
NsS'features'
p939
S'simple'
p940
sS'universal'
p941
NsS'restrict'
p942
NsS'seed'
p943
S'0'
sS'serial'
p944
I00
sS'alignment'
p945
I00
sS'top'
p946
I1
sS'maximumDepth'
p947
I3
sS'window'
p948
NsS'minimizeBits'
p949
I5
sS'samples'
p950
I30
sS'save'
p951
NsS'resume'
p952
I00
sS'disableClean'
p953
I00
sS'stemBaseline'
p954
I30
sS'dummy'
p955
I00
sS'task'
p956
S'CEGIS'
p957
sS'geometry'
p958
NsS'verbosity'
p959
I0
sS'timeout'
p960
F24
sS'debug'
p961
NsS'cores'
p962
I40
sg923
S'Odden_4.1_Serbo_Croatian'
p963
sS'mergeFrontiers'
p964
I00
sbsb.