(iresult
Result
p1
(dp2
S'startTime'
p3
F1554923921.1284709
sS'solutionSequence'
p4
(lp5
(ccopy_reg
_reconstructor
p6
(csolution
Solution
p7
c__builtin__
object
p8
NtRp9
(dp10
S'rules'
p11
(lp12
(irule
Rule
p13
(dp14
S'leftTriggers'
p15
(irule
Guard
p16
(dp17
S'endOfString'
p18
I00
sS'specifications'
p19
(lp20
sS'optionalEnding'
p21
I00
sS'representation'
p22
V
sS'starred'
p23
I00
sS'side'
p24
S'L'
sbsS'structuralChange'
p25
(irule
ConstantPhoneme
p26
(dp27
S'p'
Va
sbsS'rightTriggers'
p28
(irule
Guard
p29
(dp30
g18
I00
sg19
(lp31
(irule
FeatureMatrix
p32
(dp33
S'featuresAndPolarities'
p34
(lp35
sg22
V[  ]
p36
sba(irule
FeatureMatrix
p37
(dp38
g34
(lp39
(I01
S'highTone'
p40
tp41
asg22
V[ +highTone ]
p42
sbasg21
I00
sg22
V[  ] [ +highTone ]
p43
sg23
I00
sg24
S'R'
sbsS'focus'
p44
(irule
FeatureMatrix
p45
(dp46
g34
(lp47
sg22
V[  ]
p48
sbsg22
V[  ] ---> a /  _ [  ] [ +highTone ]
p49
sbasS'prefixes'
p50
(lp51
(imorph
Morph
p52
(dp53
S'phonemes'
p54
(lp55
sba(imorph
Morph
p56
(dp57
g54
(lp58
sba(imorph
Morph
p59
(dp60
g54
(lp61
sbasS'underlyingForms'
p62
(dp63
((imorph
Morph
p64
(dp65
g54
(lp66
Va
aVm
aVa\u0301
p67
aV\u014b
aVg
aVa
asb(imorph
Morph
p68
(dp69
g54
(lp70
Va
aVm
aVi\u0301
p71
aVl
aVe
asb(imorph
Morph
p72
(dp73
g54
(lp74
Va\u0301
p75
aVm
aVa
asbtp76
(imorph
Morph
p77
(dp78
g54
(lp79
Va\u0301
p80
aVm
asbs((imorph
Morph
p81
(dp82
g54
(lp83
Vt
aVa
aVv
aVa\u0301
p84
aV\u014b
aVg
aVa
asb(imorph
Morph
p85
(dp86
g54
(lp87
Vt
aVa
aVv
aVi\u0301
p88
aVl
aVe
asb(imorph
Morph
p89
(dp90
g54
(lp91
Vt
aVa\u0301
p92
aVv
aVa
asbtp93
(imorph
Morph
p94
(dp95
g54
(lp96
Vt
ag80
aVv
asbssS'suffixes'
p97
(lp98
(imorph
Morph
p99
(dp100
g54
(lp101
g80
aV\u014b
aVg
aVa
asba(imorph
Morph
p102
(dp103
g54
(lp104
Vi\u0301
p105
aVl
aVe
asba(imorph
Morph
p106
(dp107
g54
(lp108
Va
asbasbF32.302399158477783
tp109
a(g6
(g7
g8
NtRp110
(dp111
g11
(lp112
(irule
Rule
p113
(dp114
g15
(irule
Guard
p115
(dp116
g18
I00
sg19
(lp117
sg21
I00
sg22
V
sg23
I00
sg24
S'L'
sbsg25
(irule
FeatureMatrix
p118
(dp119
g34
(lp120
(I00
g40
tp121
asg22
V[ -highTone ]
p122
sbsg28
(irule
Guard
p123
(dp124
g18
I00
sg19
(lp125
(irule
FeatureMatrix
p126
(dp127
g34
(lp128
sg22
V[  ]
p129
sba(irule
FeatureMatrix
p130
(dp131
g34
(lp132
(I01
g40
tp133
asg22
V[ +highTone ]
p134
sbasg21
I00
sg22
V[  ] [ +highTone ]
p135
sg23
I00
sg24
S'R'
sbsg44
(irule
FeatureMatrix
p136
(dp137
g34
(lp138
sg22
V[  ]
p139
sbsg22
V[  ] ---> [ -highTone ] /  _ [  ] [ +highTone ]
p140
sbasg50
(lp141
(imorph
Morph
p142
(dp143
g54
(lp144
sba(imorph
Morph
p145
(dp146
g54
(lp147
sba(imorph
Morph
p148
(dp149
g54
(lp150
sbasg62
(dp151
(g64
g68
g72
tp152
(imorph
Morph
p153
(dp154
g54
(lp155
g80
aVm
asbs(g81
g85
g89
tp156
(imorph
Morph
p157
(dp158
g54
(lp159
Vt
ag80
aVv
asbs((imorph
Morph
p160
(dp161
g54
(lp162
Vu
aVt
aVa\u0301
p163
aV\u014b
aVg
aVa
asb(imorph
Morph
p164
(dp165
g54
(lp166
Vu
aVt
aVi\u0301
p167
aVl
aVe
asb(imorph
Morph
p168
(dp169
g54
(lp170
Vu\u0301
p171
aVt
aVa
asbtp172
(imorph
Morph
p173
(dp174
g54
(lp175
Vu\u0301
p176
aVt
asbssg97
(lp177
(imorph
Morph
p178
(dp179
g54
(lp180
g80
aV\u014b
aVg
aVa
asba(imorph
Morph
p181
(dp182
g54
(lp183
g105
aVl
aVe
asba(imorph
Morph
p184
(dp185
g54
(lp186
Va
asbasbF134.56298518180847
tp187
a(g6
(g7
g8
NtRp188
(dp189
g11
(lp190
(irule
Rule
p191
(dp192
g15
(irule
Guard
p193
(dp194
g18
I00
sg19
(lp195
sg21
I00
sg22
V
sg23
I00
sg24
S'L'
sbsg25
(irule
FeatureMatrix
p196
(dp197
g34
(lp198
(I00
g40
tp199
asg22
V[ -highTone ]
p200
sbsg28
(irule
Guard
p201
(dp202
g18
I00
sg19
(lp203
(irule
FeatureMatrix
p204
(dp205
g34
(lp206
sg22
V[  ]
p207
sba(irule
FeatureMatrix
p208
(dp209
g34
(lp210
(I01
g40
tp211
asg22
V[ +highTone ]
p212
sbasg21
I00
sg22
V[  ] [ +highTone ]
p213
sg23
I00
sg24
S'R'
sbsg44
(irule
FeatureMatrix
p214
(dp215
g34
(lp216
sg22
V[  ]
p217
sbsg22
V[  ] ---> [ -highTone ] /  _ [  ] [ +highTone ]
p218
sba(irule
Rule
p219
(dp220
g15
(irule
Guard
p221
(dp222
g18
I00
sg19
(lp223
sg21
I00
sg22
V
sg23
I00
sg24
S'L'
sbsg25
(irule
FeatureMatrix
p224
(dp225
g34
(lp226
(I01
S'rounded'
p227
tp228
asg22
V[ +rounded ]
p229
sbsg28
(irule
Guard
p230
(dp231
g18
I00
sg19
(lp232
(irule
FeatureMatrix
p233
(dp234
g34
(lp235
(I00
S'voice'
p236
tp237
asg22
V[ -voice ]
p238
sbasg21
I00
sg22
g238
sg23
I00
sg24
S'R'
sbsg44
(irule
FeatureMatrix
p239
(dp240
g34
(lp241
(I01
g40
tp242
asg22
V[ +highTone ]
p243
sbsg22
V[ +highTone ] ---> [ +rounded ] /  _ [ -voice ]
p244
sbasg50
(lp245
(imorph
Morph
p246
(dp247
g54
(lp248
sba(imorph
Morph
p249
(dp250
g54
(lp251
sba(imorph
Morph
p252
(dp253
g54
(lp254
sbasg62
(dp255
(g64
g68
g72
tp256
(imorph
Morph
p257
(dp258
g54
(lp259
g80
aVm
asbs((imorph
Morph
p260
(dp261
g54
(lp262
Vp
aVa
aVt
aVa\u0301
p263
aV\u014b
aVg
aVa
asb(imorph
Morph
p264
(dp265
g54
(lp266
Vp
aVa
aVt
aVi\u0301
p267
aVl
aVe
asb(imorph
Morph
p268
(dp269
g54
(lp270
Vp
aVo\u0301
p271
aVt
aVa
asbtp272
(imorph
Morph
p273
(dp274
g54
(lp275
Vp
ag80
aVt
asbs(g81
g85
g89
tp276
(imorph
Morph
p277
(dp278
g54
(lp279
Vt
ag80
aVv
asbs(g160
g164
g168
tp280
(imorph
Morph
p281
(dp282
g54
(lp283
g176
aVt
asbssg97
(lp284
(imorph
Morph
p285
(dp286
g54
(lp287
g80
aV\u014b
aVg
aVa
asba(imorph
Morph
p288
(dp289
g54
(lp290
g105
aVl
aVe
asba(imorph
Morph
p291
(dp292
g54
(lp293
Va
asbasbF1369.7856361865997
tp294
a(g6
(g7
g8
NtRp295
(dp296
g11
(lp297
(irule
Rule
p298
(dp299
g15
(irule
Guard
p300
(dp301
g18
I00
sg19
(lp302
sg21
I00
sg22
V
sg23
I00
sg24
S'L'
sbsg25
(irule
FeatureMatrix
p303
(dp304
g34
(lp305
(I00
g40
tp306
asg22
V[ -highTone ]
p307
sbsg28
(irule
Guard
p308
(dp309
g18
I00
sg19
(lp310
(irule
FeatureMatrix
p311
(dp312
g34
(lp313
sg22
V[  ]
p314
sba(irule
FeatureMatrix
p315
(dp316
g34
(lp317
(I01
g40
tp318
asg22
V[ +highTone ]
p319
sbasg21
I00
sg22
V[  ] [ +highTone ]
p320
sg23
I00
sg24
S'R'
sbsg44
(irule
FeatureMatrix
p321
(dp322
g34
(lp323
sg22
V[  ]
p324
sbsg22
V[  ] ---> [ -highTone ] /  _ [  ] [ +highTone ]
p325
sba(irule
Rule
p326
(dp327
g15
(irule
Guard
p328
(dp329
g18
I00
sg19
(lp330
sg21
I00
sg22
V
sg23
I00
sg24
S'L'
sbsg25
(irule
ConstantPhoneme
p331
(dp332
S'p'
Vo\u0301
p333
sbsg28
(irule
Guard
p334
(dp335
g18
I00
sg19
(lp336
(irule
FeatureMatrix
p337
(dp338
g34
(lp339
(I01
S'coronal'
p340
tp341
asg22
V[ +coronal ]
p342
sbasg21
I00
sg22
g342
sg23
I00
sg24
S'R'
sbsg44
(irule
ConstantPhoneme
p343
(dp344
S'p'
g80
sbsg22
Va\u0301 ---> o\u0301 /  _ [ +coronal ]
p345
sbasg50
(lp346
(imorph
Morph
p347
(dp348
g54
(lp349
sba(imorph
Morph
p350
(dp351
g54
(lp352
sba(imorph
Morph
p353
(dp354
g54
(lp355
sbasg62
(dp356
(g64
g68
g72
tp357
(imorph
Morph
p358
(dp359
g54
(lp360
g80
aVm
asbs(g260
g264
g268
tp361
(imorph
Morph
p362
(dp363
g54
(lp364
Vp
ag80
aVt
asbs(g81
g85
g89
tp365
(imorph
Morph
p366
(dp367
g54
(lp368
Vt
ag80
aVv
asbs(g160
g164
g168
tp369
(imorph
Morph
p370
(dp371
g54
(lp372
g176
aVt
asbs((imorph
Morph
p373
(dp374
g54
(lp375
Va
aVk
aVa\u0301
p376
aV\u014b
aVg
aVa
asb(imorph
Morph
p377
(dp378
g54
(lp379
Va
aVk
aVi\u0301
p380
aVl
aVe
asb(imorph
Morph
p381
(dp382
g54
(lp383
Va\u0301
p384
aVk
aVa
asbtp385
(imorph
Morph
p386
(dp387
g54
(lp388
g80
aVk
asbssg97
(lp389
(imorph
Morph
p390
(dp391
g54
(lp392
g80
aV\u014b
aVg
aVa
asba(imorph
Morph
p393
(dp394
g54
(lp395
g105
aVl
aVe
asba(imorph
Morph
p396
(dp397
g54
(lp398
Va
asbasbF2355.7883791923523
tp399
a(g6
(g7
g8
NtRp400
(dp401
g11
(lp402
(irule
Rule
p403
(dp404
g15
(irule
Guard
p405
(dp406
g18
I00
sg19
(lp407
sg21
I00
sg22
V
sg23
I00
sg24
S'L'
sbsg25
(irule
FeatureMatrix
p408
(dp409
g34
(lp410
(I00
g227
tp411
asg22
V[ -rounded ]
p412
sbsg28
(irule
Guard
p413
(dp414
g18
I00
sg19
(lp415
(irule
FeatureMatrix
p416
(dp417
g34
(lp418
sg22
V[  ]
p419
sba(irule
FeatureMatrix
p420
(dp421
g34
(lp422
(I01
g40
tp423
asg22
V[ +highTone ]
p424
sbasg21
I00
sg22
V[  ] [ +highTone ]
p425
sg23
I00
sg24
S'R'
sbsg44
(irule
FeatureMatrix
p426
(dp427
g34
(lp428
(I00
S'high'
p429
tp430
asg22
V[ -high ]
p431
sbsg22
V[ -high ] ---> [ -rounded ] /  _ [  ] [ +highTone ]
p432
sba(irule
Rule
p433
(dp434
g15
(irule
Guard
p435
(dp436
g18
I00
sg19
(lp437
sg21
I00
sg22
V
sg23
I00
sg24
S'L'
sbsg25
(irule
FeatureMatrix
p438
(dp439
g34
(lp440
(I00
g40
tp441
asg22
V[ -highTone ]
p442
sbsg28
(irule
Guard
p443
(dp444
g18
I00
sg19
(lp445
(irule
FeatureMatrix
p446
(dp447
g34
(lp448
sg22
V[  ]
p449
sba(irule
FeatureMatrix
p450
(dp451
g34
(lp452
(I01
g40
tp453
asg22
V[ +highTone ]
p454
sbasg21
I00
sg22
V[  ] [ +highTone ]
p455
sg23
I00
sg24
S'R'
sbsg44
(irule
FeatureMatrix
p456
(dp457
g34
(lp458
sg22
V[  ]
p459
sbsg22
V[  ] ---> [ -highTone ] /  _ [  ] [ +highTone ]
p460
sbasg50
(lp461
(imorph
Morph
p462
(dp463
g54
(lp464
sba(imorph
Morph
p465
(dp466
g54
(lp467
sba(imorph
Morph
p468
(dp469
g54
(lp470
sbasg62
(dp471
(g81
g85
g89
tp472
(imorph
Morph
p473
(dp474
g54
(lp475
Vt
ag80
aVv
asbs(g373
g377
g381
tp476
(imorph
Morph
p477
(dp478
g54
(lp479
g80
aVk
asbs(g160
g164
g168
tp480
(imorph
Morph
p481
(dp482
g54
(lp483
g176
aVt
asbs((imorph
Morph
p484
(dp485
g54
(lp486
Vd
aVa
aVb
aVa\u0301
p487
aV\u014b
aVg
aVa
asb(imorph
Morph
p488
(dp489
g54
(lp490
Vd
aVa
aVb
aVi\u0301
p491
aVl
aVe
asb(imorph
Morph
p492
(dp493
g54
(lp494
Vd
aVo\u0301
p495
aVb
aVa
asbtp496
(imorph
Morph
p497
(dp498
g54
(lp499
Vd
ag333
aVb
asbs(g64
g68
g72
tp500
(imorph
Morph
p501
(dp502
g54
(lp503
g80
aVm
asbs(g260
g264
g268
tp504
(imorph
Morph
p505
(dp506
g54
(lp507
Vp
ag333
aVt
asbssg97
(lp508
(imorph
Morph
p509
(dp510
g54
(lp511
g80
aV\u014b
aVg
aVa
asba(imorph
Morph
p512
(dp513
g54
(lp514
g105
aVl
aVe
asba(imorph
Morph
p515
(dp516
g54
(lp517
Va
asbasbF3478.9028091430664
tp518
a(g6
(g7
g8
NtRp519
(dp520
g11
(lp521
(irule
Rule
p522
(dp523
g15
(irule
Guard
p524
(dp525
g18
I00
sg19
(lp526
sg21
I00
sg22
V
sg23
I00
sg24
S'L'
sbsg25
(irule
ConstantPhoneme
p527
(dp528
S'p'
Va
sbsg28
(irule
Guard
p529
(dp530
g18
I00
sg19
(lp531
(irule
FeatureMatrix
p532
(dp533
g34
(lp534
sg22
V[  ]
p535
sba(irule
FeatureMatrix
p536
(dp537
g34
(lp538
(I01
g40
tp539
asg22
V[ +highTone ]
p540
sbasg21
I00
sg22
V[  ] [ +highTone ]
p541
sg23
I00
sg24
S'R'
sbsg44
(irule
FeatureMatrix
p542
(dp543
g34
(lp544
sg22
V[  ]
p545
sbsg22
V[  ] ---> a /  _ [  ] [ +highTone ]
p546
sba(irule
Rule
p547
(dp548
g15
(irule
Guard
p549
(dp550
g18
I01
sg19
(lp551
sg21
I00
sg22
V#
sg23
I00
sg24
S'L'
sbsg25
(irule
ConstantPhoneme
p552
(dp553
S'p'
Vu
sbsg28
(irule
Guard
p554
(dp555
g18
I00
sg19
(lp556
(irule
ConstantPhoneme
p557
(dp558
S'p'
Vt
sbasg21
I00
sg22
Vt
sg23
I00
sg24
S'R'
sbsg44
(irule
FeatureMatrix
p559
(dp560
g34
(lp561
(I00
g429
tp562
asg22
V[ -high ]
p563
sbsg22
V[ -high ] ---> u / # _ t
p564
sbasg50
(lp565
(imorph
Morph
p566
(dp567
g54
(lp568
sba(imorph
Morph
p569
(dp570
g54
(lp571
sba(imorph
Morph
p572
(dp573
g54
(lp574
sbasg62
(dp575
(g81
g85
g89
tp576
(imorph
Morph
p577
(dp578
g54
(lp579
Vt
ag80
aVv
asbs(g373
g377
g381
tp580
(imorph
Morph
p581
(dp582
g54
(lp583
g80
aVk
asbs(g160
g164
g168
tp584
(imorph
Morph
p585
(dp586
g54
(lp587
g176
aVt
asbs(g484
g488
g492
tp588
(imorph
Morph
p589
(dp590
g54
(lp591
Vd
ag333
aVb
asbs(g64
g68
g72
tp592
(imorph
Morph
p593
(dp594
g54
(lp595
g80
aVm
asbs(g260
g264
g268
tp596
(imorph
Morph
p597
(dp598
g54
(lp599
Vp
ag333
aVt
asbs((imorph
Morph
p600
(dp601
g54
(lp602
Vt
aVa
aVp
aVa\u0301
p603
aV\u014b
aVg
aVa
asb(imorph
Morph
p604
(dp605
g54
(lp606
Vt
aVa
aVp
aVi\u0301
p607
aVl
aVe
asb(imorph
Morph
p608
(dp609
g54
(lp610
Vt
aVe\u0301
p611
aVp
aVa
asbtp612
(imorph
Morph
p613
(dp614
g54
(lp615
Vt
aVe\u0301
p616
aVp
asbssg97
(lp617
(imorph
Morph
p618
(dp619
g54
(lp620
g80
aV\u014b
aVg
aVa
asba(imorph
Morph
p621
(dp622
g54
(lp623
g105
aVl
aVe
asba(imorph
Morph
p624
(dp625
g54
(lp626
Va
asbasbF5081.4589760303497
tp627
a(g6
(g7
g8
NtRp628
(dp629
g11
(lp630
(irule
Rule
p631
(dp632
g15
(irule
Guard
p633
(dp634
g18
I00
sg19
(lp635
sg21
I00
sg22
V
sg23
I00
sg24
S'L'
sbsg25
(irule
ConstantPhoneme
p636
(dp637
S'p'
g80
sbsg28
(irule
Guard
p638
(dp639
g18
I00
sg19
(lp640
(irule
FeatureMatrix
p641
(dp642
g34
(lp643
sg22
V[  ]
p644
sba(irule
FeatureMatrix
p645
(dp646
g34
(lp647
(I01
g40
tp648
asg22
V[ +highTone ]
p649
sbasg21
I00
sg22
V[  ] [ +highTone ]
p650
sg23
I00
sg24
S'R'
sbsg44
(irule
FeatureMatrix
p651
(dp652
g34
(lp653
(I00
g429
tp654
asg22
V[ -high ]
p655
sbsg22
V[ -high ] ---> a\u0301 /  _ [  ] [ +highTone ]
p656
sba(irule
Rule
p657
(dp658
g15
(irule
Guard
p659
(dp660
g18
I00
sg19
(lp661
sg21
I00
sg22
V
sg23
I00
sg24
S'L'
sbsg25
(irule
FeatureMatrix
p662
(dp663
g34
(lp664
(I00
g40
tp665
asg22
V[ -highTone ]
p666
sbsg28
(irule
Guard
p667
(dp668
g18
I00
sg19
(lp669
(irule
FeatureMatrix
p670
(dp671
g34
(lp672
sg22
V[  ]
p673
sba(irule
FeatureMatrix
p674
(dp675
g34
(lp676
(I01
g40
tp677
asg22
V[ +highTone ]
p678
sbasg21
I00
sg22
V[  ] [ +highTone ]
p679
sg23
I00
sg24
S'R'
sbsg44
(irule
FeatureMatrix
p680
(dp681
g34
(lp682
sg22
V[  ]
p683
sbsg22
V[  ] ---> [ -highTone ] /  _ [  ] [ +highTone ]
p684
sbasg50
(lp685
(imorph
Morph
p686
(dp687
g54
(lp688
sba(imorph
Morph
p689
(dp690
g54
(lp691
sba(imorph
Morph
p692
(dp693
g54
(lp694
sbasg62
(dp695
(g81
g85
g89
tp696
(imorph
Morph
p697
(dp698
g54
(lp699
Vt
ag80
aVv
asbs(g373
g377
g381
tp700
(imorph
Morph
p701
(dp702
g54
(lp703
g80
aVk
asbs(g160
g164
g168
tp704
(imorph
Morph
p705
(dp706
g54
(lp707
g176
aVt
asbs(g484
g488
g492
tp708
(imorph
Morph
p709
(dp710
g54
(lp711
Vd
ag333
aVb
asbs((imorph
Morph
p712
(dp713
g54
(lp714
Vl
aVu
aVk
aVa\u0301
p715
aV\u014b
aVg
aVa
asb(imorph
Morph
p716
(dp717
g54
(lp718
Vl
aVu
aVk
aVi\u0301
p719
aVl
aVe
asb(imorph
Morph
p720
(dp721
g54
(lp722
Vl
aVu\u0301
p723
aVk
aVa
asbtp724
(imorph
Morph
p725
(dp726
g54
(lp727
Vl
ag176
aVk
asbs(g64
g68
g72
tp728
(imorph
Morph
p729
(dp730
g54
(lp731
g80
aVm
asbs(g260
g264
g268
tp732
(imorph
Morph
p733
(dp734
g54
(lp735
Vp
ag333
aVt
asbs(g600
g604
g608
tp736
(imorph
Morph
p737
(dp738
g54
(lp739
Vt
ag616
aVp
asbssg97
(lp740
(imorph
Morph
p741
(dp742
g54
(lp743
g80
aV\u014b
aVg
aVa
asba(imorph
Morph
p744
(dp745
g54
(lp746
g105
aVl
aVe
asba(imorph
Morph
p747
(dp748
g54
(lp749
Va
asbasbF6357.2978541851044
tp750
a(g6
(g7
g8
NtRp751
(dp752
g11
(lp753
(irule
Rule
p754
(dp755
g15
(irule
Guard
p756
(dp757
g18
I00
sg19
(lp758
sg21
I00
sg22
V
sg23
I00
sg24
S'L'
sbsg25
(irule
ConstantPhoneme
p759
(dp760
S'p'
Va
sbsg28
(irule
Guard
p761
(dp762
g18
I00
sg19
(lp763
(irule
FeatureMatrix
p764
(dp765
g34
(lp766
sg22
V[  ]
p767
sba(irule
FeatureMatrix
p768
(dp769
g34
(lp770
(I01
g40
tp771
asg22
V[ +highTone ]
p772
sbasg21
I00
sg22
V[  ] [ +highTone ]
p773
sg23
I00
sg24
S'R'
sbsg44
(irule
FeatureMatrix
p774
(dp775
g34
(lp776
(I00
g429
tp777
asg22
V[ -high ]
p778
sbsg22
V[ -high ] ---> a /  _ [  ] [ +highTone ]
p779
sba(irule
Rule
p780
(dp781
g15
(irule
Guard
p782
(dp783
g18
I00
sg19
(lp784
sg21
I00
sg22
V
sg23
I00
sg24
S'L'
sbsg25
(irule
FeatureMatrix
p785
(dp786
g34
(lp787
(I00
g40
tp788
asg22
V[ -highTone ]
p789
sbsg28
(irule
Guard
p790
(dp791
g18
I00
sg19
(lp792
(irule
FeatureMatrix
p793
(dp794
g34
(lp795
sg22
V[  ]
p796
sba(irule
FeatureMatrix
p797
(dp798
g34
(lp799
(I01
g40
tp800
asg22
V[ +highTone ]
p801
sbasg21
I00
sg22
V[  ]* [ +highTone ]
p802
sg23
I01
sg24
S'R'
sbsg44
(irule
FeatureMatrix
p803
(dp804
g34
(lp805
sg22
V[  ]
p806
sbsg22
V[  ] ---> [ -highTone ] /  _ [  ]* [ +highTone ]
p807
sbasg50
(lp808
(imorph
Morph
p809
(dp810
g54
(lp811
sba(imorph
Morph
p812
(dp813
g54
(lp814
sba(imorph
Morph
p815
(dp816
g54
(lp817
sbasg62
(dp818
(g81
g85
g89
tp819
(imorph
Morph
p820
(dp821
g54
(lp822
Vt
ag80
aVv
asbs(g373
g377
g381
tp823
(imorph
Morph
p824
(dp825
g54
(lp826
g80
aVk
asbs(g160
g164
g168
tp827
(imorph
Morph
p828
(dp829
g54
(lp830
g176
aVt
asbs(g484
g488
g492
tp831
(imorph
Morph
p832
(dp833
g54
(lp834
Vd
ag333
aVb
asbs(g712
g716
g720
tp835
(imorph
Morph
p836
(dp837
g54
(lp838
Vl
ag176
aVk
asbs(g64
g68
g72
tp839
(imorph
Morph
p840
(dp841
g54
(lp842
g80
aVm
asbs(g260
g264
g268
tp843
(imorph
Morph
p844
(dp845
g54
(lp846
Vp
ag333
aVt
asbs((imorph
Morph
p847
(dp848
g54
(lp849
Vu
aV\u014b
aVg
aVa\u0301
p850
aV\u014b
aVg
aVa
asb(imorph
Morph
p851
(dp852
g54
(lp853
Vu
aV\u014b
aVg
aVi\u0301
p854
aVl
aVe
asb(imorph
Morph
p855
(dp856
g54
(lp857
Vu\u0301
p858
aV\u014b
aVg
aVa
asbtp859
(imorph
Morph
p860
(dp861
g54
(lp862
g176
aV\u014b
aVg
asbs(g600
g604
g608
tp863
(imorph
Morph
p864
(dp865
g54
(lp866
Vt
ag616
aVp
asbssg97
(lp867
(imorph
Morph
p868
(dp869
g54
(lp870
g80
aV\u014b
aVg
aVa
asba(imorph
Morph
p871
(dp872
g54
(lp873
g105
aVl
aVe
asba(imorph
Morph
p874
(dp875
g54
(lp876
Va
asbasbF7500.4300441741943
tp877
a(g6
(g7
g8
NtRp878
(dp879
g11
(lp880
(irule
Rule
p881
(dp882
g15
(irule
Guard
p883
(dp884
g18
I00
sg19
(lp885
(irule
FeatureMatrix
p886
(dp887
g34
(lp888
(I00
S'sonorant'
p889
tp890
asg22
V[ -sonorant ]
p891
sbasg21
I00
sg22
g891
sg23
I00
sg24
S'L'
sbsg25
(irule
ConstantPhoneme
p892
(dp893
S'p'
g80
sbsg28
(irule
Guard
p894
(dp895
g18
I00
sg19
(lp896
(irule
FeatureMatrix
p897
(dp898
g34
(lp899
sg22
V[  ]
p900
sba(irule
FeatureMatrix
p901
(dp902
g34
(lp903
(I01
g40
tp904
asg22
V[ +highTone ]
p905
sbasg21
I00
sg22
V[  ] [ +highTone ]
p906
sg23
I00
sg24
S'R'
sbsg44
(irule
FeatureMatrix
p907
(dp908
g34
(lp909
sg22
V[  ]
p910
sbsg22
V[  ] ---> a\u0301 / [ -sonorant ] _ [  ] [ +highTone ]
p911
sba(irule
Rule
p912
(dp913
g15
(irule
Guard
p914
(dp915
g18
I00
sg19
(lp916
sg21
I00
sg22
V
sg23
I00
sg24
S'L'
sbsg25
(irule
FeatureMatrix
p917
(dp918
g34
(lp919
(I00
g40
tp920
asg22
V[ -highTone ]
p921
sbsg28
(irule
Guard
p922
(dp923
g18
I00
sg19
(lp924
(irule
FeatureMatrix
p925
(dp926
g34
(lp927
sg22
V[  ]
p928
sba(irule
FeatureMatrix
p929
(dp930
g34
(lp931
(I01
g40
tp932
asg22
V[ +highTone ]
p933
sbasg21
I00
sg22
V[  ]* [ +highTone ]
p934
sg23
I01
sg24
S'R'
sbsg44
(irule
FeatureMatrix
p935
(dp936
g34
(lp937
sg22
V[  ]
p938
sbsg22
V[  ] ---> [ -highTone ] /  _ [  ]* [ +highTone ]
p939
sbasg50
(lp940
(imorph
Morph
p941
(dp942
g54
(lp943
sba(imorph
Morph
p944
(dp945
g54
(lp946
sba(imorph
Morph
p947
(dp948
g54
(lp949
sbasg62
(dp950
(g81
g85
g89
tp951
(imorph
Morph
p952
(dp953
g54
(lp954
Vt
ag80
aVv
asbs(g373
g377
g381
tp955
(imorph
Morph
p956
(dp957
g54
(lp958
g80
aVk
asbs(g160
g164
g168
tp959
(imorph
Morph
p960
(dp961
g54
(lp962
g176
aVt
asbs(g484
g488
g492
tp963
(imorph
Morph
p964
(dp965
g54
(lp966
Vd
ag333
aVb
asbs(g712
g716
g720
tp967
(imorph
Morph
p968
(dp969
g54
(lp970
Vl
ag176
aVk
asbs(g64
g68
g72
tp971
(imorph
Morph
p972
(dp973
g54
(lp974
g80
aVm
asbs((imorph
Morph
p975
(dp976
g54
(lp977
Vi
aVm
aVb
aVa\u0301
p978
aV\u014b
aVg
aVa
asb(imorph
Morph
p979
(dp980
g54
(lp981
Vi
aVm
aVb
aVi\u0301
p982
aVl
aVe
asb(imorph
Morph
p983
(dp984
g54
(lp985
Vi\u0301
p986
aVm
aVb
aVa
asbtp987
(imorph
Morph
p988
(dp989
g54
(lp990
g105
aVm
aVb
asbs(g260
g264
g268
tp991
(imorph
Morph
p992
(dp993
g54
(lp994
Vp
ag333
aVt
asbs(g847
g851
g855
tp995
(imorph
Morph
p996
(dp997
g54
(lp998
g176
aV\u014b
aVg
asbs(g600
g604
g608
tp999
(imorph
Morph
p1000
(dp1001
g54
(lp1002
Vt
ag616
aVp
asbssg97
(lp1003
(imorph
Morph
p1004
(dp1005
g54
(lp1006
g80
aV\u014b
aVg
aVa
asba(imorph
Morph
p1007
(dp1008
g54
(lp1009
g105
aVl
aVe
asba(imorph
Morph
p1010
(dp1011
g54
(lp1012
Va
asbasbF8837.0081140995026
tp1013
a(g6
(g7
g8
NtRp1014
(dp1015
g11
(lp1016
(irule
Rule
p1017
(dp1018
g15
(irule
Guard
p1019
(dp1020
g18
I00
sg19
(lp1021
sg21
I00
sg22
V
sg23
I00
sg24
S'L'
sbsg25
(irule
FeatureMatrix
p1022
(dp1023
g34
(lp1024
(I00
g40
tp1025
asg22
V[ -highTone ]
p1026
sbsg28
(irule
Guard
p1027
(dp1028
g18
I00
sg19
(lp1029
(irule
FeatureMatrix
p1030
(dp1031
g34
(lp1032
sg22
V[  ]
p1033
sba(irule
FeatureMatrix
p1034
(dp1035
g34
(lp1036
(I01
g40
tp1037
asg22
V[ +highTone ]
p1038
sbasg21
I00
sg22
V[  ]* [ +highTone ]
p1039
sg23
I01
sg24
S'R'
sbsg44
(irule
FeatureMatrix
p1040
(dp1041
g34
(lp1042
(I01
g429
tp1043
asg22
V[ +high ]
p1044
sbsg22
V[ +high ] ---> [ -highTone ] /  _ [  ]* [ +highTone ]
p1045
sba(irule
Rule
p1046
(dp1047
g15
(irule
Guard
p1048
(dp1049
g18
I00
sg19
(lp1050
sg21
I00
sg22
V
sg23
I00
sg24
S'L'
sbsg25
(irule
ConstantPhoneme
p1051
(dp1052
S'p'
Va
sbsg28
(irule
Guard
p1053
(dp1054
g18
I00
sg19
(lp1055
(irule
FeatureMatrix
p1056
(dp1057
g34
(lp1058
sg22
V[  ]
p1059
sba(irule
FeatureMatrix
p1060
(dp1061
g34
(lp1062
(I01
g40
tp1063
asg22
V[ +highTone ]
p1064
sbasg21
I00
sg22
V[  ] [ +highTone ]
p1065
sg23
I00
sg24
S'R'
sbsg44
(irule
FeatureMatrix
p1066
(dp1067
g34
(lp1068
(I01
g40
tp1069
asg22
V[ +highTone ]
p1070
sbsg22
V[ +highTone ] ---> a /  _ [  ] [ +highTone ]
p1071
sbasg50
(lp1072
(imorph
Morph
p1073
(dp1074
g54
(lp1075
sba(imorph
Morph
p1076
(dp1077
g54
(lp1078
sba(imorph
Morph
p1079
(dp1080
g54
(lp1081
sbasg62
(dp1082
((imorph
Morph
(dp1083
g54
(lp1084
Vp
aVi
aVt
aVa\u0301
p1085
aV\u014b
aVg
aVa
asb(imorph
Morph
(dp1086
g54
(lp1087
Vp
aVi
aVt
aVi\u0301
p1088
aVl
aVe
asb(imorph
Morph
(dp1089
g54
(lp1090
Vp
aVi\u0301
p1091
aVt
aVa
asbtp1092
(imorph
Morph
p1093
(dp1094
g54
(lp1095
Vp
ag105
aVt
asbs((imorph
Morph
(dp1096
g54
(lp1097
Va
aVm
aVa\u0301
p1098
aV\u014b
aVg
aVa
asb(imorph
Morph
(dp1099
g54
(lp1100
Va
aVm
aVi\u0301
p1101
aVl
aVe
asb(imorph
Morph
(dp1102
g54
(lp1103
Vo\u0301
p1104
aVm
aVa
asbtp1105
(imorph
Morph
p1106
(dp1107
g54
(lp1108
g333
aVm
asbs((imorph
Morph
p1109
(dp1110
g54
(lp1111
Va
aVv
aVa\u0301
p1112
aV\u014b
aVg
aVa
asb(imorph
Morph
p1113
(dp1114
g54
(lp1115
Va
aVv
aVi\u0301
p1116
aVl
aVe
asb(imorph
Morph
p1117
(dp1118
g54
(lp1119
Vo\u0301
p1120
aVv
aVa
asbtp1121
(imorph
Morph
p1122
(dp1123
g54
(lp1124
g333
aVv
asbs((imorph
Morph
(dp1125
g54
(lp1126
Vi
aVv
aVa\u0301
p1127
aV\u014b
aVg
aVa
asb(imorph
Morph
(dp1128
g54
(lp1129
Vi
aVv
aVi\u0301
p1130
aVl
aVe
asb(imorph
Morph
(dp1131
g54
(lp1132
Vi\u0301
p1133
aVv
aVa
asbtp1134
(imorph
Morph
p1135
(dp1136
g54
(lp1137
g105
aVv
asbs(g81
g85
g89
tp1138
(imorph
Morph
p1139
(dp1140
g54
(lp1141
Vt
ag80
aVv
asbs((imorph
Morph
(dp1142
g54
(lp1143
Va
aVv
aVa\u0301
p1144
aV\u014b
aVg
aVa
asb(imorph
Morph
(dp1145
g54
(lp1146
Va
aVv
aVi\u0301
p1147
aVl
aVe
asb(imorph
Morph
(dp1148
g54
(lp1149
Ve\u0301
p1150
aVv
aVa
asbtp1151
(imorph
Morph
p1152
(dp1153
g54
(lp1154
g616
aVv
asbs((imorph
Morph
(dp1155
g54
(lp1156
Vt
aVa
aVt
aVa\u0301
p1157
aV\u014b
aVg
aVa
asb(imorph
Morph
(dp1158
g54
(lp1159
Vt
aVa
aVt
aVi\u0301
p1160
aVl
aVe
asb(imorph
Morph
(dp1161
g54
(lp1162
Vt
aVo\u0301
p1163
aVt
aVa
asbtp1164
(imorph
Morph
p1165
(dp1166
g54
(lp1167
Vt
ag333
aVt
asbs((imorph
Morph
(dp1168
g54
(lp1169
Vl
aVu
aVm
aVa\u0301
p1170
aV\u014b
aVg
aVa
asb(imorph
Morph
(dp1171
g54
(lp1172
Vl
aVu
aVm
aVi\u0301
p1173
aVl
aVe
asb(imorph
Morph
(dp1174
g54
(lp1175
Vl
aVu\u0301
p1176
aVm
aVa
asbtp1177
(imorph
Morph
p1178
(dp1179
g54
(lp1180
Vl
ag176
aVm
asbs(g373
g377
g381
tp1181
(imorph
Morph
p1182
(dp1183
g54
(lp1184
g80
aVk
asbs(g160
g164
g168
tp1185
(imorph
Morph
p1186
(dp1187
g54
(lp1188
g176
aVt
asbs(g484
g488
g492
tp1189
(imorph
Morph
p1190
(dp1191
g54
(lp1192
Vd
ag333
aVb
asbs(g712
g716
g720
tp1193
(imorph
Morph
p1194
(dp1195
g54
(lp1196
Vl
ag176
aVk
asbs((imorph
Morph
(dp1197
g54
(lp1198
Vb
aVa
aVb
aVa\u0301
p1199
aV\u014b
aVg
aVa
asb(imorph
Morph
(dp1200
g54
(lp1201
Vb
aVa
aVb
aVi\u0301
p1202
aVl
aVe
asb(imorph
Morph
(dp1203
g54
(lp1204
Vb
aVe\u0301
p1205
aVb
aVa
asbtp1206
(imorph
Morph
p1207
(dp1208
g54
(lp1209
Vb
ag616
aVb
asbs((imorph
Morph
(dp1210
g54
(lp1211
Vl
aVi
aVm
aVa\u0301
p1212
aV\u014b
aVg
aVa
asb(imorph
Morph
(dp1213
g54
(lp1214
Vl
aVi
aVm
aVi\u0301
p1215
aVl
aVe
asb(imorph
Morph
(dp1216
g54
(lp1217
Vl
aVi\u0301
p1218
aVm
aVa
asbtp1219
(imorph
Morph
p1220
(dp1221
g54
(lp1222
Vl
ag105
aVm
asbs(g64
g68
g72
tp1223
(imorph
Morph
p1224
(dp1225
g54
(lp1226
g80
aVm
asbs(g975
g979
g983
tp1227
(imorph
Morph
p1228
(dp1229
g54
(lp1230
g105
aVm
aVb
asbs(g260
g264
g268
tp1231
(imorph
Morph
p1232
(dp1233
g54
(lp1234
Vp
ag333
aVt
asbs((imorph
Morph
(dp1235
g54
(lp1236
Vp
aVa
aVt
aVa\u0301
p1237
aV\u014b
aVg
aVa
asb(imorph
Morph
(dp1238
g54
(lp1239
Vp
aVa
aVt
aVi\u0301
p1240
aVl
aVe
asb(imorph
Morph
(dp1241
g54
(lp1242
Vp
aVe\u0301
p1243
aVt
aVa
asbtp1244
(imorph
Morph
p1245
(dp1246
g54
(lp1247
Vp
ag616
aVt
asbs(g847
g851
g855
tp1248
(imorph
Morph
p1249
(dp1250
g54
(lp1251
g176
aV\u014b
aVg
asbs(g600
g604
g608
tp1252
(imorph
Morph
p1253
(dp1254
g54
(lp1255
Vt
ag616
aVp
asbssg97
(lp1256
(imorph
Morph
p1257
(dp1258
g54
(lp1259
g80
aV\u014b
aVg
aVa
asba(imorph
Morph
p1260
(dp1261
g54
(lp1262
g105
aVl
aVe
asba(imorph
Morph
p1263
(dp1264
g54
(lp1265
Va
asbasbF10631.201486110687
tp1266
asS'problem'
p1267
S'Odden_2.5_Makonde'
p1268
sS'finalFrontier'
p1269
g6
(csolution
Frontier
p1270
g8
NtRp1271
(dp1272
g50
g1072
sg97
g1256
sg62
g1082
sS'frontiers'
p1273
(lp1274
(lp1275
(irule
Rule
p1276
(dp1277
g15
(irule
Guard
p1278
(dp1279
g18
I00
sg19
(lp1280
sg21
I00
sg22
V
sg23
I00
sg24
S'L'
sbsg25
(irule
FeatureMatrix
p1281
(dp1282
g34
(lp1283
(I00
S'highTone'
p1284
tp1285
asg22
V[ -highTone ]
p1286
sbsg28
(irule
Guard
p1287
(dp1288
g18
I00
sg19
(lp1289
(irule
FeatureMatrix
p1290
(dp1291
g34
(lp1292
sg22
V[  ]
p1293
sba(irule
FeatureMatrix
p1294
(dp1295
g34
(lp1296
(I01
g1284
tp1297
asg22
V[ +highTone ]
p1298
sbasg21
I00
sg22
V[  ]* [ +highTone ]
p1299
sg23
I01
sg24
S'R'
sbsg44
(irule
FeatureMatrix
p1300
(dp1301
g34
(lp1302
(I01
S'high'
tp1303
asg22
V[ +high ]
p1304
sbsg22
V[ +high ] ---> [ -highTone ] /  _ [  ]* [ +highTone ]
p1305
sba(irule
Rule
p1306
(dp1307
g15
(irule
Guard
p1308
(dp1309
g18
I00
sg19
(lp1310
sg21
I00
sg22
Nsg23
I00
sg24
S'L'
sbsg25
(irule
FeatureMatrix
p1311
(dp1312
g34
(lp1313
(I00
S'highTone'
p1314
tp1315
asg22
Nsbsg28
(irule
Guard
p1316
(dp1317
g18
I00
sg19
(lp1318
(irule
FeatureMatrix
p1319
(dp1320
g34
(lp1321
sg22
Nsba(irule
FeatureMatrix
p1322
(dp1323
g34
(lp1324
(I01
g1314
tp1325
asg22
Nsbasg21
I00
sg22
Nsg23
I01
sg24
S'R'
sbsg44
(irule
FeatureMatrix
p1326
(dp1327
g34
(lp1328
(I01
S'high'
p1329
tp1330
a(I00
S'coronal'
p1331
tp1332
asg22
Nsbsg22
Nsba(irule
Rule
p1333
(dp1334
g15
(irule
Guard
p1335
(dp1336
g18
I00
sg19
(lp1337
sg21
I00
sg22
Nsg23
I00
sg24
S'L'
sbsg25
(irule
FeatureMatrix
p1338
(dp1339
g34
(lp1340
(I00
g1314
tp1341
asg22
Nsbsg28
(irule
Guard
p1342
(dp1343
g18
I00
sg19
(lp1344
(irule
FeatureMatrix
p1345
(dp1346
g34
(lp1347
sg22
Nsba(irule
FeatureMatrix
p1348
(dp1349
g34
(lp1350
(I01
g1314
tp1351
asg22
Nsbasg21
I00
sg22
Nsg23
I01
sg24
S'R'
sbsg44
(irule
FeatureMatrix
p1352
(dp1353
g34
(lp1354
(I01
g1329
tp1355
a(I01
S'vowel'
p1356
tp1357
asg22
Nsbsg22
Nsba(irule
Rule
p1358
(dp1359
g15
(irule
Guard
p1360
(dp1361
g18
I00
sg19
(lp1362
sg21
I00
sg22
Nsg23
I00
sg24
S'L'
sbsg25
(irule
FeatureMatrix
p1363
(dp1364
g34
(lp1365
(I00
g1314
tp1366
asg22
Nsbsg28
(irule
Guard
p1367
(dp1368
g18
I00
sg19
(lp1369
(irule
FeatureMatrix
p1370
(dp1371
g34
(lp1372
sg22
Nsba(irule
FeatureMatrix
p1373
(dp1374
g34
(lp1375
(I00
S'anterior'
p1376
tp1377
a(I01
g1314
tp1378
asg22
Nsbasg21
I00
sg22
Nsg23
I01
sg24
S'R'
sbsg44
(irule
FeatureMatrix
p1379
(dp1380
g34
(lp1381
(I01
g1329
tp1382
asg22
Nsbsg22
Nsba(irule
Rule
p1383
(dp1384
g15
(irule
Guard
p1385
(dp1386
g18
I00
sg19
(lp1387
sg21
I00
sg22
Nsg23
I00
sg24
S'L'
sbsg25
(irule
FeatureMatrix
p1388
(dp1389
g34
(lp1390
(I00
g1314
tp1391
asg22
Nsbsg28
(irule
Guard
p1392
(dp1393
g18
I00
sg19
(lp1394
(irule
FeatureMatrix
p1395
(dp1396
g34
(lp1397
sg22
Nsba(irule
FeatureMatrix
p1398
(dp1399
g34
(lp1400
(I01
g1314
tp1401
asg22
Nsbasg21
I00
sg22
Nsg23
I01
sg24
S'R'
sbsg44
(irule
FeatureMatrix
p1402
(dp1403
g34
(lp1404
(I01
g1329
tp1405
a(I01
S'voice'
p1406
tp1407
asg22
Nsbsg22
Nsba(irule
Rule
p1408
(dp1409
g15
(irule
Guard
p1410
(dp1411
g18
I00
sg19
(lp1412
sg21
I00
sg22
Nsg23
I00
sg24
S'L'
sbsg25
(irule
FeatureMatrix
p1413
(dp1414
g34
(lp1415
(I00
S'liquid'
p1416
tp1417
a(I00
g1314
tp1418
asg22
Nsbsg28
(irule
Guard
p1419
(dp1420
g18
I00
sg19
(lp1421
(irule
FeatureMatrix
p1422
(dp1423
g34
(lp1424
sg22
Nsba(irule
FeatureMatrix
p1425
(dp1426
g34
(lp1427
(I01
g1314
tp1428
asg22
Nsbasg21
I00
sg22
Nsg23
I01
sg24
S'R'
sbsg44
(irule
FeatureMatrix
p1429
(dp1430
g34
(lp1431
(I01
g1329
tp1432
asg22
Nsbsg22
Nsba(irule
Rule
p1433
(dp1434
g15
(irule
Guard
p1435
(dp1436
g18
I00
sg19
(lp1437
sg21
I00
sg22
Nsg23
I00
sg24
S'L'
sbsg25
(irule
FeatureMatrix
p1438
(dp1439
g34
(lp1440
(I00
g1314
tp1441
asg22
Nsbsg28
(irule
Guard
p1442
(dp1443
g18
I00
sg19
(lp1444
(irule
FeatureMatrix
p1445
(dp1446
g34
(lp1447
sg22
Nsba(irule
FeatureMatrix
p1448
(dp1449
g34
(lp1450
(I01
g1314
tp1451
asg22
Nsbasg21
I00
sg22
Nsg23
I01
sg24
S'R'
sbsg44
(irule
FeatureMatrix
p1452
(dp1453
g34
(lp1454
(I01
g1329
tp1455
a(I01
S'tense'
p1456
tp1457
asg22
Nsbsg22
Nsba(irule
Rule
p1458
(dp1459
g15
(irule
Guard
p1460
(dp1461
g18
I00
sg19
(lp1462
sg21
I00
sg22
Nsg23
I00
sg24
S'L'
sbsg25
(irule
FeatureMatrix
p1463
(dp1464
g34
(lp1465
(I00
g1314
tp1466
asg22
Nsbsg28
(irule
Guard
p1467
(dp1468
g18
I00
sg19
(lp1469
(irule
FeatureMatrix
p1470
(dp1471
g34
(lp1472
sg22
Nsba(irule
FeatureMatrix
p1473
(dp1474
g34
(lp1475
(I01
g1314
tp1476
asg22
Nsbasg21
I00
sg22
Nsg23
I01
sg24
S'R'
sbsg44
(irule
FeatureMatrix
p1477
(dp1478
g34
(lp1479
(I01
g1329
tp1480
a(I00
S'low'
p1481
tp1482
asg22
Nsbsg22
Nsba(irule
Rule
p1483
(dp1484
g15
(irule
Guard
p1485
(dp1486
g18
I00
sg19
(lp1487
sg21
I00
sg22
Nsg23
I00
sg24
S'L'
sbsg25
(irule
FeatureMatrix
p1488
(dp1489
g34
(lp1490
(I00
g1376
tp1491
a(I00
g1314
tp1492
asg22
Nsbsg28
(irule
Guard
p1493
(dp1494
g18
I00
sg19
(lp1495
(irule
FeatureMatrix
p1496
(dp1497
g34
(lp1498
sg22
Nsba(irule
FeatureMatrix
p1499
(dp1500
g34
(lp1501
(I01
g1314
tp1502
asg22
Nsbasg21
I00
sg22
Nsg23
I01
sg24
S'R'
sbsg44
(irule
FeatureMatrix
p1503
(dp1504
g34
(lp1505
(I01
g1329
tp1506
asg22
Nsbsg22
Nsba(irule
Rule
p1507
(dp1508
g15
(irule
Guard
p1509
(dp1510
g18
I00
sg19
(lp1511
sg21
I00
sg22
Nsg23
I00
sg24
S'L'
sbsg25
(irule
FeatureMatrix
p1512
(dp1513
g34
(lp1514
(I00
g1314
tp1515
asg22
Nsbsg28
(irule
Guard
p1516
(dp1517
g18
I00
sg19
(lp1518
(irule
FeatureMatrix
p1519
(dp1520
g34
(lp1521
sg22
Nsba(irule
FeatureMatrix
p1522
(dp1523
g34
(lp1524
(I01
g1314
tp1525
asg22
Nsbasg21
I00
sg22
Nsg23
I01
sg24
S'R'
sbsg44
(irule
FeatureMatrix
p1526
(dp1527
g34
(lp1528
(I00
S'lateral'
p1529
tp1530
a(I01
g1329
tp1531
asg22
Nsbsg22
Nsba(irule
Rule
p1532
(dp1533
g15
(irule
Guard
p1534
(dp1535
g18
I00
sg19
(lp1536
sg21
I00
sg22
Nsg23
I00
sg24
S'L'
sbsg25
(irule
FeatureMatrix
p1537
(dp1538
g34
(lp1539
(I00
g1314
tp1540
asg22
Nsbsg28
(irule
Guard
p1541
(dp1542
g18
I00
sg19
(lp1543
(irule
FeatureMatrix
p1544
(dp1545
g34
(lp1546
sg22
Nsba(irule
FeatureMatrix
p1547
(dp1548
g34
(lp1549
(I01
g1314
tp1550
asg22
Nsbasg21
I00
sg22
Nsg23
I01
sg24
S'R'
sbsg44
(irule
FeatureMatrix
p1551
(dp1552
g34
(lp1553
(I01
S'sonorant'
p1554
tp1555
a(I01
g1329
tp1556
asg22
Nsbsg22
Nsba(irule
Rule
p1557
(dp1558
g15
(irule
Guard
p1559
(dp1560
g18
I00
sg19
(lp1561
sg21
I00
sg22
Nsg23
I00
sg24
S'L'
sbsg25
(irule
FeatureMatrix
p1562
(dp1563
g34
(lp1564
(I00
g1314
tp1565
asg22
Nsbsg28
(irule
Guard
p1566
(dp1567
g18
I00
sg19
(lp1568
(irule
FeatureMatrix
p1569
(dp1570
g34
(lp1571
sg22
Nsba(irule
FeatureMatrix
p1572
(dp1573
g34
(lp1574
(I01
g1314
tp1575
asg22
Nsbasg21
I00
sg22
Nsg23
I01
sg24
S'R'
sbsg44
(irule
FeatureMatrix
p1576
(dp1577
g34
(lp1578
(I01
S'continuant'
p1579
tp1580
a(I01
g1329
tp1581
asg22
Nsbsg22
Nsba(irule
Rule
p1582
(dp1583
g15
(irule
Guard
p1584
(dp1585
g18
I00
sg19
(lp1586
sg21
I00
sg22
Nsg23
I00
sg24
S'L'
sbsg25
(irule
FeatureMatrix
p1587
(dp1588
g34
(lp1589
(I00
g1314
tp1590
a(I00
g1331
tp1591
asg22
Nsbsg28
(irule
Guard
p1592
(dp1593
g18
I00
sg19
(lp1594
(irule
FeatureMatrix
p1595
(dp1596
g34
(lp1597
sg22
Nsba(irule
FeatureMatrix
p1598
(dp1599
g34
(lp1600
(I01
g1314
tp1601
asg22
Nsbasg21
I00
sg22
Nsg23
I01
sg24
S'R'
sbsg44
(irule
FeatureMatrix
p1602
(dp1603
g34
(lp1604
(I01
g1329
tp1605
asg22
Nsbsg22
Nsba(irule
Rule
p1606
(dp1607
g15
(irule
Guard
p1608
(dp1609
g18
I00
sg19
(lp1610
sg21
I00
sg22
Nsg23
I00
sg24
S'L'
sbsg25
(irule
FeatureMatrix
p1611
(dp1612
g34
(lp1613
(I00
g1529
tp1614
a(I00
g1314
tp1615
asg22
Nsbsg28
(irule
Guard
p1616
(dp1617
g18
I00
sg19
(lp1618
(irule
FeatureMatrix
p1619
(dp1620
g34
(lp1621
sg22
Nsba(irule
FeatureMatrix
p1622
(dp1623
g34
(lp1624
(I01
g1314
tp1625
asg22
Nsbasg21
I00
sg22
Nsg23
I01
sg24
S'R'
sbsg44
(irule
FeatureMatrix
p1626
(dp1627
g34
(lp1628
(I01
g1329
tp1629
asg22
Nsbsg22
Nsba(irule
Rule
p1630
(dp1631
g15
(irule
Guard
p1632
(dp1633
g18
I00
sg19
(lp1634
sg21
I00
sg22
Nsg23
I00
sg24
S'L'
sbsg25
(irule
FeatureMatrix
p1635
(dp1636
g34
(lp1637
(I00
g1314
tp1638
a(I00
g1481
tp1639
asg22
Nsbsg28
(irule
Guard
p1640
(dp1641
g18
I00
sg19
(lp1642
(irule
FeatureMatrix
p1643
(dp1644
g34
(lp1645
sg22
Nsba(irule
FeatureMatrix
p1646
(dp1647
g34
(lp1648
(I01
g1314
tp1649
asg22
Nsbasg21
I00
sg22
Nsg23
I01
sg24
S'R'
sbsg44
(irule
FeatureMatrix
p1650
(dp1651
g34
(lp1652
(I01
g1329
tp1653
asg22
Nsbsg22
Nsba(irule
Rule
p1654
(dp1655
g15
(irule
Guard
p1656
(dp1657
g18
I00
sg19
(lp1658
sg21
I00
sg22
Nsg23
I00
sg24
S'L'
sbsg25
(irule
FeatureMatrix
p1659
(dp1660
g34
(lp1661
(I00
g1314
tp1662
asg22
Nsbsg28
(irule
Guard
p1663
(dp1664
g18
I00
sg19
(lp1665
(irule
FeatureMatrix
p1666
(dp1667
g34
(lp1668
sg22
Nsba(irule
FeatureMatrix
p1669
(dp1670
g34
(lp1671
(I01
g1314
tp1672
asg22
Nsbasg21
I00
sg22
Nsg23
I01
sg24
S'R'
sbsg44
(irule
FeatureMatrix
p1673
(dp1674
g34
(lp1675
(I00
S'nasal'
p1676
tp1677
a(I01
g1329
tp1678
asg22
Nsbsg22
Nsba(irule
Rule
p1679
(dp1680
g15
(irule
Guard
p1681
(dp1682
g18
I00
sg19
(lp1683
sg21
I00
sg22
Nsg23
I00
sg24
S'L'
sbsg25
(irule
FeatureMatrix
p1684
(dp1685
g34
(lp1686
(I00
g1314
tp1687
asg22
Nsbsg28
(irule
Guard
p1688
(dp1689
g18
I00
sg19
(lp1690
(irule
FeatureMatrix
p1691
(dp1692
g34
(lp1693
sg22
Nsba(irule
FeatureMatrix
p1694
(dp1695
g34
(lp1696
(I01
g1314
tp1697
asg22
Nsbasg21
I00
sg22
Nsg23
I01
sg24
S'R'
sbsg44
(irule
FeatureMatrix
p1698
(dp1699
g34
(lp1700
(I01
g1314
tp1701
a(I01
g1329
tp1702
asg22
Nsbsg22
Nsba(irule
Rule
p1703
(dp1704
g15
(irule
Guard
p1705
(dp1706
g18
I00
sg19
(lp1707
sg21
I00
sg22
Nsg23
I00
sg24
S'L'
sbsg25
(irule
FeatureMatrix
p1708
(dp1709
g34
(lp1710
(I00
g1314
tp1711
a(I01
g1329
tp1712
asg22
Nsbsg28
(irule
Guard
p1713
(dp1714
g18
I00
sg19
(lp1715
(irule
FeatureMatrix
p1716
(dp1717
g34
(lp1718
sg22
Nsba(irule
FeatureMatrix
p1719
(dp1720
g34
(lp1721
(I01
g1314
tp1722
asg22
Nsbasg21
I00
sg22
Nsg23
I01
sg24
S'R'
sbsg44
(irule
FeatureMatrix
p1723
(dp1724
g34
(lp1725
(I01
g1329
tp1726
asg22
Nsbsg22
Nsba(irule
Rule
p1727
(dp1728
g15
(irule
Guard
p1729
(dp1730
g18
I00
sg19
(lp1731
sg21
I00
sg22
Nsg23
I00
sg24
S'L'
sbsg25
(irule
FeatureMatrix
p1732
(dp1733
g34
(lp1734
(I00
g1314
tp1735
asg22
Nsbsg28
(irule
Guard
p1736
(dp1737
g18
I00
sg19
(lp1738
(irule
FeatureMatrix
p1739
(dp1740
g34
(lp1741
sg22
Nsba(irule
FeatureMatrix
p1742
(dp1743
g34
(lp1744
(I01
g1314
tp1745
asg22
Nsbasg21
I00
sg22
Nsg23
I01
sg24
S'R'
sbsg44
(irule
FeatureMatrix
p1746
(dp1747
g34
(lp1748
(I00
g1416
tp1749
a(I01
g1329
tp1750
asg22
Nsbsg22
Nsba(irule
Rule
p1751
(dp1752
g15
(irule
Guard
p1753
(dp1754
g18
I00
sg19
(lp1755
sg21
I00
sg22
Nsg23
I00
sg24
S'L'
sbsg25
(irule
FeatureMatrix
p1756
(dp1757
g34
(lp1758
(I00
g1314
tp1759
asg22
Nsbsg28
(irule
Guard
p1760
(dp1761
g18
I00
sg19
(lp1762
(irule
FeatureMatrix
p1763
(dp1764
g34
(lp1765
sg22
Nsba(irule
FeatureMatrix
p1766
(dp1767
g34
(lp1768
(I01
g1579
tp1769
a(I01
g1314
tp1770
asg22
Nsbasg21
I00
sg22
Nsg23
I01
sg24
S'R'
sbsg44
(irule
FeatureMatrix
p1771
(dp1772
g34
(lp1773
(I01
g1329
tp1774
asg22
Nsbsg22
Nsba(irule
Rule
p1775
(dp1776
g15
(irule
Guard
p1777
(dp1778
g18
I00
sg19
(lp1779
sg21
I00
sg22
Nsg23
I00
sg24
S'L'
sbsg25
(irule
FeatureMatrix
p1780
(dp1781
g34
(lp1782
(I00
g1314
tp1783
asg22
Nsbsg28
(irule
Guard
p1784
(dp1785
g18
I00
sg19
(lp1786
(irule
FeatureMatrix
p1787
(dp1788
g34
(lp1789
sg22
Nsba(irule
FeatureMatrix
p1790
(dp1791
g34
(lp1792
(I01
g1314
tp1793
asg22
Nsbasg21
I00
sg22
Nsg23
I01
sg24
S'R'
sbsg44
(irule
FeatureMatrix
p1794
(dp1795
g34
(lp1796
(I00
g1376
tp1797
a(I01
g1329
tp1798
asg22
Nsbsg22
Nsba(irule
Rule
p1799
(dp1800
g15
(irule
Guard
p1801
(dp1802
g18
I00
sg19
(lp1803
sg21
I00
sg22
Nsg23
I00
sg24
S'L'
sbsg25
(irule
FeatureMatrix
p1804
(dp1805
g34
(lp1806
(I00
g1314
tp1807
asg22
Nsbsg28
(irule
Guard
p1808
(dp1809
g18
I00
sg19
(lp1810
(irule
FeatureMatrix
p1811
(dp1812
g34
(lp1813
(I00
g1356
tp1814
asg22
Nsba(irule
FeatureMatrix
p1815
(dp1816
g34
(lp1817
(I01
g1314
tp1818
asg22
Nsbasg21
I00
sg22
Nsg23
I01
sg24
S'R'
sbsg44
(irule
FeatureMatrix
p1819
(dp1820
g34
(lp1821
(I01
g1329
tp1822
asg22
Nsbsg22
Nsba(irule
Rule
p1823
(dp1824
g15
(irule
Guard
p1825
(dp1826
g18
I00
sg19
(lp1827
sg21
I00
sg22
Nsg23
I00
sg24
S'L'
sbsg25
(irule
FeatureMatrix
p1828
(dp1829
g34
(lp1830
(I00
g1314
tp1831
asg22
Nsbsg28
(irule
Guard
p1832
(dp1833
g18
I00
sg19
(lp1834
(irule
FeatureMatrix
p1835
(dp1836
g34
(lp1837
(I00
g1481
tp1838
asg22
Nsba(irule
FeatureMatrix
p1839
(dp1840
g34
(lp1841
(I01
g1314
tp1842
asg22
Nsbasg21
I00
sg22
Nsg23
I01
sg24
S'R'
sbsg44
(irule
FeatureMatrix
p1843
(dp1844
g34
(lp1845
(I01
g1329
tp1846
asg22
Nsbsg22
Nsba(irule
Rule
p1847
(dp1848
g15
(irule
Guard
p1849
(dp1850
g18
I00
sg19
(lp1851
sg21
I00
sg22
Nsg23
I00
sg24
S'L'
sbsg25
(irule
FeatureMatrix
p1852
(dp1853
g34
(lp1854
(I00
g1314
tp1855
asg22
Nsbsg28
(irule
Guard
p1856
(dp1857
g18
I00
sg19
(lp1858
(irule
FeatureMatrix
p1859
(dp1860
g34
(lp1861
sg22
Nsba(irule
FeatureMatrix
p1862
(dp1863
g34
(lp1864
(I01
g1314
tp1865
a(I01
g1406
tp1866
asg22
Nsbasg21
I00
sg22
Nsg23
I01
sg24
S'R'
sbsg44
(irule
FeatureMatrix
p1867
(dp1868
g34
(lp1869
(I01
g1329
tp1870
asg22
Nsbsg22
Nsba(irule
Rule
p1871
(dp1872
g15
(irule
Guard
p1873
(dp1874
g18
I00
sg19
(lp1875
sg21
I00
sg22
Nsg23
I00
sg24
S'L'
sbsg25
(irule
FeatureMatrix
p1876
(dp1877
g34
(lp1878
(I00
g1314
tp1879
asg22
Nsbsg28
(irule
Guard
p1880
(dp1881
g18
I00
sg19
(lp1882
(irule
FeatureMatrix
p1883
(dp1884
g34
(lp1885
(I00
g1456
tp1886
asg22
Nsba(irule
FeatureMatrix
p1887
(dp1888
g34
(lp1889
(I01
g1314
tp1890
asg22
Nsbasg21
I00
sg22
Nsg23
I01
sg24
S'R'
sbsg44
(irule
FeatureMatrix
p1891
(dp1892
g34
(lp1893
(I01
g1329
tp1894
asg22
Nsbsg22
Nsba(irule
Rule
p1895
(dp1896
g15
(irule
Guard
p1897
(dp1898
g18
I00
sg19
(lp1899
sg21
I00
sg22
Nsg23
I00
sg24
S'L'
sbsg25
(irule
FeatureMatrix
p1900
(dp1901
g34
(lp1902
(I00
g1314
tp1903
asg22
Nsbsg28
(irule
Guard
p1904
(dp1905
g18
I00
sg19
(lp1906
(irule
FeatureMatrix
p1907
(dp1908
g34
(lp1909
sg22
Nsba(irule
FeatureMatrix
p1910
(dp1911
g34
(lp1912
(I00
g1529
tp1913
a(I01
g1314
tp1914
asg22
Nsbasg21
I00
sg22
Nsg23
I01
sg24
S'R'
sbsg44
(irule
FeatureMatrix
p1915
(dp1916
g34
(lp1917
(I01
g1329
tp1918
asg22
Nsbsg22
Nsba(irule
Rule
p1919
(dp1920
g15
(irule
Guard
p1921
(dp1922
g18
I00
sg19
(lp1923
sg21
I00
sg22
Nsg23
I00
sg24
S'L'
sbsg25
(irule
FeatureMatrix
p1924
(dp1925
g34
(lp1926
(I00
g1314
tp1927
asg22
Nsbsg28
(irule
Guard
p1928
(dp1929
g18
I00
sg19
(lp1930
(irule
FeatureMatrix
p1931
(dp1932
g34
(lp1933
sg22
Nsba(irule
FeatureMatrix
p1934
(dp1935
g34
(lp1936
(I01
g1314
tp1937
a(I01
g1356
tp1938
asg22
Nsbasg21
I00
sg22
Nsg23
I01
sg24
S'R'
sbsg44
(irule
FeatureMatrix
p1939
(dp1940
g34
(lp1941
(I01
g1329
tp1942
asg22
Nsbsg22
Nsba(irule
Rule
p1943
(dp1944
g15
(irule
Guard
p1945
(dp1946
g18
I00
sg19
(lp1947
sg21
I00
sg22
Nsg23
I00
sg24
S'L'
sbsg25
(irule
FeatureMatrix
p1948
(dp1949
g34
(lp1950
(I00
g1314
tp1951
asg22
Nsbsg28
(irule
Guard
p1952
(dp1953
g18
I00
sg19
(lp1954
(irule
FeatureMatrix
p1955
(dp1956
g34
(lp1957
(I00
g1314
tp1958
asg22
Nsba(irule
FeatureMatrix
p1959
(dp1960
g34
(lp1961
(I01
g1314
tp1962
asg22
Nsbasg21
I00
sg22
Nsg23
I01
sg24
S'R'
sbsg44
(irule
FeatureMatrix
p1963
(dp1964
g34
(lp1965
(I01
g1329
tp1966
asg22
Nsbsg22
Nsba(irule
Rule
p1967
(dp1968
g15
(irule
Guard
p1969
(dp1970
g18
I00
sg19
(lp1971
sg21
I00
sg22
Nsg23
I00
sg24
S'L'
sbsg25
(irule
FeatureMatrix
p1972
(dp1973
g34
(lp1974
(I00
g1314
tp1975
asg22
Nsbsg28
(irule
Guard
p1976
(dp1977
g18
I00
sg19
(lp1978
(irule
FeatureMatrix
p1979
(dp1980
g34
(lp1981
sg22
Nsba(irule
FeatureMatrix
p1982
(dp1983
g34
(lp1984
(I01
g1314
tp1985
a(I00
g1331
tp1986
asg22
Nsbasg21
I00
sg22
Nsg23
I01
sg24
S'R'
sbsg44
(irule
FeatureMatrix
p1987
(dp1988
g34
(lp1989
(I01
g1329
tp1990
asg22
Nsbsg22
Nsba(irule
Rule
p1991
(dp1992
g15
(irule
Guard
p1993
(dp1994
g18
I00
sg19
(lp1995
sg21
I00
sg22
Nsg23
I00
sg24
S'L'
sbsg25
(irule
FeatureMatrix
p1996
(dp1997
g34
(lp1998
(I00
g1314
tp1999
asg22
Nsbsg28
(irule
Guard
p2000
(dp2001
g18
I00
sg19
(lp2002
(irule
FeatureMatrix
p2003
(dp2004
g34
(lp2005
sg22
Nsba(irule
FeatureMatrix
p2006
(dp2007
g34
(lp2008
(I00
g1676
tp2009
a(I01
g1314
tp2010
asg22
Nsbasg21
I00
sg22
Nsg23
I01
sg24
S'R'
sbsg44
(irule
FeatureMatrix
p2011
(dp2012
g34
(lp2013
(I01
g1329
tp2014
asg22
Nsbsg22
Nsba(irule
Rule
p2015
(dp2016
g15
(irule
Guard
p2017
(dp2018
g18
I00
sg19
(lp2019
sg21
I00
sg22
Nsg23
I00
sg24
S'L'
sbsg25
(irule
FeatureMatrix
p2020
(dp2021
g34
(lp2022
(I00
g1314
tp2023
asg22
Nsbsg28
(irule
Guard
p2024
(dp2025
g18
I00
sg19
(lp2026
(irule
FeatureMatrix
p2027
(dp2028
g34
(lp2029
(I00
g1529
tp2030
asg22
Nsba(irule
FeatureMatrix
p2031
(dp2032
g34
(lp2033
(I01
g1314
tp2034
asg22
Nsbasg21
I00
sg22
Nsg23
I01
sg24
S'R'
sbsg44
(irule
FeatureMatrix
p2035
(dp2036
g34
(lp2037
(I01
g1329
tp2038
asg22
Nsbsg22
Nsba(irule
Rule
p2039
(dp2040
g15
(irule
Guard
p2041
(dp2042
g18
I00
sg19
(lp2043
sg21
I00
sg22
Nsg23
I00
sg24
S'L'
sbsg25
(irule
FeatureMatrix
p2044
(dp2045
g34
(lp2046
(I00
g1314
tp2047
asg22
Nsbsg28
(irule
Guard
p2048
(dp2049
g18
I00
sg19
(lp2050
(irule
FeatureMatrix
p2051
(dp2052
g34
(lp2053
sg22
Nsba(irule
FeatureMatrix
p2054
(dp2055
g34
(lp2056
(I00
S'rounded'
p2057
tp2058
a(I01
g1314
tp2059
asg22
Nsbasg21
I00
sg22
Nsg23
I01
sg24
S'R'
sbsg44
(irule
FeatureMatrix
p2060
(dp2061
g34
(lp2062
(I01
g1329
tp2063
asg22
Nsbsg22
Nsba(irule
Rule
p2064
(dp2065
g15
(irule
Guard
p2066
(dp2067
g18
I00
sg19
(lp2068
sg21
I00
sg22
Nsg23
I00
sg24
S'L'
sbsg25
(irule
FeatureMatrix
p2069
(dp2070
g34
(lp2071
(I00
g1314
tp2072
asg22
Nsbsg28
(irule
Guard
p2073
(dp2074
g18
I00
sg19
(lp2075
(irule
FeatureMatrix
p2076
(dp2077
g34
(lp2078
sg22
Nsba(irule
FeatureMatrix
p2079
(dp2080
g34
(lp2081
(I01
g1314
tp2082
a(I01
g1554
tp2083
asg22
Nsbasg21
I00
sg22
Nsg23
I01
sg24
S'R'
sbsg44
(irule
FeatureMatrix
p2084
(dp2085
g34
(lp2086
(I01
g1329
tp2087
asg22
Nsbsg22
Nsba(irule
Rule
p2088
(dp2089
g15
(irule
Guard
p2090
(dp2091
g18
I00
sg19
(lp2092
sg21
I00
sg22
Nsg23
I00
sg24
S'L'
sbsg25
(irule
FeatureMatrix
p2093
(dp2094
g34
(lp2095
(I00
g1314
tp2096
asg22
Nsbsg28
(irule
Guard
p2097
(dp2098
g18
I00
sg19
(lp2099
(irule
FeatureMatrix
p2100
(dp2101
g34
(lp2102
sg22
Nsba(irule
FeatureMatrix
p2103
(dp2104
g34
(lp2105
(I01
g1314
tp2106
a(I01
g1456
tp2107
asg22
Nsbasg21
I00
sg22
Nsg23
I01
sg24
S'R'
sbsg44
(irule
FeatureMatrix
p2108
(dp2109
g34
(lp2110
(I01
g1329
tp2111
asg22
Nsbsg22
Nsba(irule
Rule
p2112
(dp2113
g15
(irule
Guard
p2114
(dp2115
g18
I00
sg19
(lp2116
sg21
I00
sg22
Nsg23
I00
sg24
S'L'
sbsg25
(irule
FeatureMatrix
p2117
(dp2118
g34
(lp2119
(I00
g1314
tp2120
asg22
Nsbsg28
(irule
Guard
p2121
(dp2122
g18
I00
sg19
(lp2123
(irule
FeatureMatrix
p2124
(dp2125
g34
(lp2126
sg22
Nsba(irule
FeatureMatrix
p2127
(dp2128
g34
(lp2129
(I00
g1416
tp2130
a(I01
g1314
tp2131
asg22
Nsbasg21
I00
sg22
Nsg23
I01
sg24
S'R'
sbsg44
(irule
FeatureMatrix
p2132
(dp2133
g34
(lp2134
(I01
g1329
tp2135
asg22
Nsbsg22
Nsba(irule
Rule
p2136
(dp2137
g15
(irule
Guard
p2138
(dp2139
g18
I00
sg19
(lp2140
sg21
I00
sg22
Nsg23
I00
sg24
S'L'
sbsg25
(irule
FeatureMatrix
p2141
(dp2142
g34
(lp2143
(I00
g1314
tp2144
asg22
Nsbsg28
(irule
Guard
p2145
(dp2146
g18
I00
sg19
(lp2147
(irule
FeatureMatrix
p2148
(dp2149
g34
(lp2150
(I00
g1416
tp2151
asg22
Nsba(irule
FeatureMatrix
p2152
(dp2153
g34
(lp2154
(I01
g1314
tp2155
asg22
Nsbasg21
I00
sg22
Nsg23
I01
sg24
S'R'
sbsg44
(irule
FeatureMatrix
p2156
(dp2157
g34
(lp2158
(I01
g1329
tp2159
asg22
Nsbsg22
Nsba(irule
Rule
p2160
(dp2161
g15
(irule
Guard
p2162
(dp2163
g18
I00
sg19
(lp2164
sg21
I00
sg22
Nsg23
I00
sg24
S'L'
sbsg25
(irule
FeatureMatrix
p2165
(dp2166
g34
(lp2167
(I00
g1314
tp2168
asg22
Nsbsg28
(irule
Guard
p2169
(dp2170
g18
I00
sg19
(lp2171
(irule
FeatureMatrix
p2172
(dp2173
g34
(lp2174
(I00
g2057
tp2175
asg22
Nsba(irule
FeatureMatrix
p2176
(dp2177
g34
(lp2178
(I01
g1314
tp2179
asg22
Nsbasg21
I00
sg22
Nsg23
I01
sg24
S'R'
sbsg44
(irule
FeatureMatrix
p2180
(dp2181
g34
(lp2182
(I01
g1329
tp2183
asg22
Nsbsg22
Nsba(irule
Rule
p2184
(dp2185
g15
(irule
Guard
p2186
(dp2187
g18
I00
sg19
(lp2188
sg21
I00
sg22
Nsg23
I00
sg24
S'L'
sbsg25
(irule
FeatureMatrix
p2189
(dp2190
g34
(lp2191
(I00
g1314
tp2192
a(I01
g1456
tp2193
asg22
Nsbsg28
(irule
Guard
p2194
(dp2195
g18
I00
sg19
(lp2196
(irule
FeatureMatrix
p2197
(dp2198
g34
(lp2199
sg22
Nsba(irule
FeatureMatrix
p2200
(dp2201
g34
(lp2202
(I01
g1314
tp2203
asg22
Nsbasg21
I00
sg22
Nsg23
I01
sg24
S'R'
sbsg44
(irule
FeatureMatrix
p2204
(dp2205
g34
(lp2206
(I01
g1329
tp2207
a(I01
g1456
tp2208
asg22
Nsbsg22
Nsba(irule
Rule
p2209
(dp2210
g15
(irule
Guard
p2211
(dp2212
g18
I00
sg19
(lp2213
sg21
I00
sg22
Nsg23
I00
sg24
S'L'
sbsg25
(irule
FeatureMatrix
p2214
(dp2215
g34
(lp2216
(I01
g1579
tp2217
a(I00
g1314
tp2218
asg22
Nsbsg28
(irule
Guard
p2219
(dp2220
g18
I00
sg19
(lp2221
(irule
FeatureMatrix
p2222
(dp2223
g34
(lp2224
sg22
Nsba(irule
FeatureMatrix
p2225
(dp2226
g34
(lp2227
(I01
g1314
tp2228
asg22
Nsbasg21
I00
sg22
Nsg23
I01
sg24
S'R'
sbsg44
(irule
FeatureMatrix
p2229
(dp2230
g34
(lp2231
(I01
g1329
tp2232
a(I01
g1356
tp2233
asg22
Nsbsg22
Nsba(irule
Rule
p2234
(dp2235
g15
(irule
Guard
p2236
(dp2237
g18
I00
sg19
(lp2238
sg21
I00
sg22
Nsg23
I00
sg24
S'L'
sbsg25
(irule
FeatureMatrix
p2239
(dp2240
g34
(lp2241
(I01
g1579
tp2242
a(I00
g1314
tp2243
asg22
Nsbsg28
(irule
Guard
p2244
(dp2245
g18
I00
sg19
(lp2246
(irule
FeatureMatrix
p2247
(dp2248
g34
(lp2249
sg22
Nsba(irule
FeatureMatrix
p2250
(dp2251
g34
(lp2252
(I01
g1314
tp2253
asg22
Nsbasg21
I00
sg22
Nsg23
I01
sg24
S'R'
sbsg44
(irule
FeatureMatrix
p2254
(dp2255
g34
(lp2256
(I01
g1329
tp2257
a(I01
g1456
tp2258
asg22
Nsbsg22
Nsba(irule
Rule
p2259
(dp2260
g15
(irule
Guard
p2261
(dp2262
g18
I00
sg19
(lp2263
sg21
I00
sg22
Nsg23
I00
sg24
S'L'
sbsg25
(irule
FeatureMatrix
p2264
(dp2265
g34
(lp2266
(I01
g1579
tp2267
a(I00
g1314
tp2268
asg22
Nsbsg28
(irule
Guard
p2269
(dp2270
g18
I00
sg19
(lp2271
(irule
FeatureMatrix
p2272
(dp2273
g34
(lp2274
sg22
Nsba(irule
FeatureMatrix
p2275
(dp2276
g34
(lp2277
(I01
g1314
tp2278
asg22
Nsbasg21
I00
sg22
Nsg23
I01
sg24
S'R'
sbsg44
(irule
FeatureMatrix
p2279
(dp2280
g34
(lp2281
(I01
g1579
tp2282
a(I01
g1329
tp2283
asg22
Nsbsg22
Nsba(irule
Rule
p2284
(dp2285
g15
(irule
Guard
p2286
(dp2287
g18
I00
sg19
(lp2288
sg21
I00
sg22
Nsg23
I00
sg24
S'L'
sbsg25
(irule
FeatureMatrix
p2289
(dp2290
g34
(lp2291
(I00
g1314
tp2292
a(I01
g1406
tp2293
asg22
Nsbsg28
(irule
Guard
p2294
(dp2295
g18
I00
sg19
(lp2296
(irule
FeatureMatrix
p2297
(dp2298
g34
(lp2299
sg22
Nsba(irule
FeatureMatrix
p2300
(dp2301
g34
(lp2302
(I01
g1314
tp2303
asg22
Nsbasg21
I00
sg22
Nsg23
I01
sg24
S'R'
sbsg44
(irule
FeatureMatrix
p2304
(dp2305
g34
(lp2306
(I01
g1329
tp2307
a(I01
g1406
tp2308
asg22
Nsbsg22
Nsba(irule
Rule
p2309
(dp2310
g15
(irule
Guard
p2311
(dp2312
g18
I00
sg19
(lp2313
sg21
I00
sg22
Nsg23
I00
sg24
S'L'
sbsg25
(irule
FeatureMatrix
p2314
(dp2315
g34
(lp2316
(I00
g1314
tp2317
asg22
Nsbsg28
(irule
Guard
p2318
(dp2319
g18
I00
sg19
(lp2320
(irule
FeatureMatrix
p2321
(dp2322
g34
(lp2323
(I00
g1456
tp2324
asg22
Nsba(irule
FeatureMatrix
p2325
(dp2326
g34
(lp2327
(I01
g1314
tp2328
a(I00
g1331
tp2329
asg22
Nsbasg21
I00
sg22
Nsg23
I01
sg24
S'R'
sbsg44
(irule
FeatureMatrix
p2330
(dp2331
g34
(lp2332
(I01
g1329
tp2333
asg22
Nsbsg22
Nsba(irule
Rule
p2334
(dp2335
g15
(irule
Guard
p2336
(dp2337
g18
I00
sg19
(lp2338
sg21
I00
sg22
Nsg23
I00
sg24
S'L'
sbsg25
(irule
FeatureMatrix
p2339
(dp2340
g34
(lp2341
(I01
g1579
tp2342
a(I00
g1314
tp2343
asg22
Nsbsg28
(irule
Guard
p2344
(dp2345
g18
I00
sg19
(lp2346
(irule
FeatureMatrix
p2347
(dp2348
g34
(lp2349
sg22
Nsba(irule
FeatureMatrix
p2350
(dp2351
g34
(lp2352
(I01
g1314
tp2353
asg22
Nsbasg21
I00
sg22
Nsg23
I01
sg24
S'R'
sbsg44
(irule
FeatureMatrix
p2354
(dp2355
g34
(lp2356
(I01
g1314
tp2357
a(I01
g1329
tp2358
asg22
Nsbsg22
Nsba(irule
Rule
p2359
(dp2360
g15
(irule
Guard
p2361
(dp2362
g18
I00
sg19
(lp2363
sg21
I00
sg22
Nsg23
I00
sg24
S'L'
sbsg25
(irule
FeatureMatrix
p2364
(dp2365
g34
(lp2366
(I00
g1314
tp2367
asg22
Nsbsg28
(irule
Guard
p2368
(dp2369
g18
I00
sg19
(lp2370
(irule
FeatureMatrix
p2371
(dp2372
g34
(lp2373
(I00
g1456
tp2374
asg22
Nsba(irule
FeatureMatrix
p2375
(dp2376
g34
(lp2377
(I01
g1314
tp2378
a(I01
g1456
tp2379
asg22
Nsbasg21
I00
sg22
Nsg23
I01
sg24
S'R'
sbsg44
(irule
FeatureMatrix
p2380
(dp2381
g34
(lp2382
(I01
g1329
tp2383
asg22
Nsbsg22
Nsba(irule
Rule
p2384
(dp2385
g15
(irule
Guard
p2386
(dp2387
g18
I00
sg19
(lp2388
sg21
I00
sg22
Nsg23
I00
sg24
S'L'
sbsg25
(irule
FeatureMatrix
p2389
(dp2390
g34
(lp2391
(I00
g1314
tp2392
asg22
Nsbsg28
(irule
Guard
p2393
(dp2394
g18
I00
sg19
(lp2395
(irule
FeatureMatrix
p2396
(dp2397
g34
(lp2398
(I00
g1456
tp2399
asg22
Nsba(irule
FeatureMatrix
p2400
(dp2401
g34
(lp2402
(I00
g1376
tp2403
a(I01
g1314
tp2404
asg22
Nsbasg21
I00
sg22
Nsg23
I01
sg24
S'R'
sbsg44
(irule
FeatureMatrix
p2405
(dp2406
g34
(lp2407
(I01
g1329
tp2408
asg22
Nsbsg22
Nsba(irule
Rule
p2409
(dp2410
g15
(irule
Guard
p2411
(dp2412
g18
I00
sg19
(lp2413
sg21
I00
sg22
Nsg23
I00
sg24
S'L'
sbsg25
(irule
FeatureMatrix
p2414
(dp2415
g34
(lp2416
(I00
g1376
tp2417
a(I00
g1314
tp2418
asg22
Nsbsg28
(irule
Guard
p2419
(dp2420
g18
I00
sg19
(lp2421
(irule
FeatureMatrix
p2422
(dp2423
g34
(lp2424
sg22
Nsba(irule
FeatureMatrix
p2425
(dp2426
g34
(lp2427
(I01
g1314
tp2428
asg22
Nsbasg21
I00
sg22
Nsg23
I01
sg24
S'R'
sbsg44
(irule
FeatureMatrix
p2429
(dp2430
g34
(lp2431
(I01
g1329
tp2432
a(I01
g1356
tp2433
asg22
Nsbsg22
Nsba(irule
Rule
p2434
(dp2435
g15
(irule
Guard
p2436
(dp2437
g18
I00
sg19
(lp2438
sg21
I00
sg22
Nsg23
I00
sg24
S'L'
sbsg25
(irule
FeatureMatrix
p2439
(dp2440
g34
(lp2441
(I00
g1376
tp2442
a(I00
g1416
tp2443
a(I00
g1314
tp2444
asg22
Nsbsg28
(irule
Guard
p2445
(dp2446
g18
I00
sg19
(lp2447
(irule
FeatureMatrix
p2448
(dp2449
g34
(lp2450
sg22
Nsba(irule
FeatureMatrix
p2451
(dp2452
g34
(lp2453
(I01
g1314
tp2454
asg22
Nsbasg21
I00
sg22
Nsg23
I01
sg24
S'R'
sbsg44
(irule
FeatureMatrix
p2455
(dp2456
g34
(lp2457
(I01
g1329
tp2458
asg22
Nsbsg22
Nsba(irule
Rule
p2459
(dp2460
g15
(irule
Guard
p2461
(dp2462
g18
I00
sg19
(lp2463
sg21
I00
sg22
Nsg23
I00
sg24
S'L'
sbsg25
(irule
FeatureMatrix
p2464
(dp2465
g34
(lp2466
(I00
g1314
tp2467
a(I01
g1406
tp2468
asg22
Nsbsg28
(irule
Guard
p2469
(dp2470
g18
I00
sg19
(lp2471
(irule
FeatureMatrix
p2472
(dp2473
g34
(lp2474
sg22
Nsba(irule
FeatureMatrix
p2475
(dp2476
g34
(lp2477
(I01
g1314
tp2478
asg22
Nsbasg21
I00
sg22
Nsg23
I01
sg24
S'R'
sbsg44
(irule
FeatureMatrix
p2479
(dp2480
g34
(lp2481
(I01
g1329
tp2482
a(I01
g1356
tp2483
asg22
Nsbsg22
Nsba(irule
Rule
p2484
(dp2485
g15
(irule
Guard
p2486
(dp2487
g18
I00
sg19
(lp2488
sg21
I00
sg22
Nsg23
I00
sg24
S'L'
sbsg25
(irule
FeatureMatrix
p2489
(dp2490
g34
(lp2491
(I00
g1314
tp2492
a(I01
g1456
tp2493
asg22
Nsbsg28
(irule
Guard
p2494
(dp2495
g18
I00
sg19
(lp2496
(irule
FeatureMatrix
p2497
(dp2498
g34
(lp2499
sg22
Nsba(irule
FeatureMatrix
p2500
(dp2501
g34
(lp2502
(I01
g1314
tp2503
asg22
Nsbasg21
I00
sg22
Nsg23
I01
sg24
S'R'
sbsg44
(irule
FeatureMatrix
p2504
(dp2505
g34
(lp2506
(I01
g1329
tp2507
a(I01
g1356
tp2508
asg22
Nsbsg22
Nsba(irule
Rule
p2509
(dp2510
g15
(irule
Guard
p2511
(dp2512
g18
I00
sg19
(lp2513
sg21
I00
sg22
Nsg23
I00
sg24
S'L'
sbsg25
(irule
FeatureMatrix
p2514
(dp2515
g34
(lp2516
(I00
g1314
tp2517
asg22
Nsbsg28
(irule
Guard
p2518
(dp2519
g18
I00
sg19
(lp2520
(irule
FeatureMatrix
p2521
(dp2522
g34
(lp2523
sg22
Nsba(irule
FeatureMatrix
p2524
(dp2525
g34
(lp2526
(I01
g1314
tp2527
a(I00
g1331
tp2528
a(I01
g1456
tp2529
asg22
Nsbasg21
I00
sg22
Nsg23
I01
sg24
S'R'
sbsg44
(irule
FeatureMatrix
p2530
(dp2531
g34
(lp2532
(I01
g1329
tp2533
asg22
Nsbsg22
Nsba(irule
Rule
p2534
(dp2535
g15
(irule
Guard
p2536
(dp2537
g18
I00
sg19
(lp2538
sg21
I00
sg22
Nsg23
I00
sg24
S'L'
sbsg25
(irule
FeatureMatrix
p2539
(dp2540
g34
(lp2541
(I00
g1314
tp2542
a(I01
g1356
tp2543
asg22
Nsbsg28
(irule
Guard
p2544
(dp2545
g18
I00
sg19
(lp2546
(irule
FeatureMatrix
p2547
(dp2548
g34
(lp2549
sg22
Nsba(irule
FeatureMatrix
p2550
(dp2551
g34
(lp2552
(I01
g1314
tp2553
asg22
Nsbasg21
I00
sg22
Nsg23
I01
sg24
S'R'
sbsg44
(irule
FeatureMatrix
p2554
(dp2555
g34
(lp2556
(I01
g1329
tp2557
a(I01
g1356
tp2558
asg22
Nsbsg22
Nsba(irule
Rule
p2559
(dp2560
g15
(irule
Guard
p2561
(dp2562
g18
I00
sg19
(lp2563
sg21
I00
sg22
Nsg23
I00
sg24
S'L'
sbsg25
(irule
FeatureMatrix
p2564
(dp2565
g34
(lp2566
(I00
g1314
tp2567
a(I01
g1406
tp2568
asg22
Nsbsg28
(irule
Guard
p2569
(dp2570
g18
I00
sg19
(lp2571
(irule
FeatureMatrix
p2572
(dp2573
g34
(lp2574
sg22
Nsba(irule
FeatureMatrix
p2575
(dp2576
g34
(lp2577
(I01
g1314
tp2578
asg22
Nsbasg21
I00
sg22
Nsg23
I01
sg24
S'R'
sbsg44
(irule
FeatureMatrix
p2579
(dp2580
g34
(lp2581
(I01
g1554
tp2582
a(I01
g1329
tp2583
asg22
Nsbsg22
Nsba(irule
Rule
p2584
(dp2585
g15
(irule
Guard
p2586
(dp2587
g18
I00
sg19
(lp2588
sg21
I00
sg22
Nsg23
I00
sg24
S'L'
sbsg25
(irule
FeatureMatrix
p2589
(dp2590
g34
(lp2591
(I00
g1314
tp2592
a(I01
g1406
tp2593
asg22
Nsbsg28
(irule
Guard
p2594
(dp2595
g18
I00
sg19
(lp2596
(irule
FeatureMatrix
p2597
(dp2598
g34
(lp2599
sg22
Nsba(irule
FeatureMatrix
p2600
(dp2601
g34
(lp2602
(I01
g1314
tp2603
asg22
Nsbasg21
I00
sg22
Nsg23
I01
sg24
S'R'
sbsg44
(irule
FeatureMatrix
p2604
(dp2605
g34
(lp2606
(I01
g1579
tp2607
a(I01
g1329
tp2608
asg22
Nsbsg22
Nsba(irule
Rule
p2609
(dp2610
g15
(irule
Guard
p2611
(dp2612
g18
I00
sg19
(lp2613
sg21
I00
sg22
Nsg23
I00
sg24
S'L'
sbsg25
(irule
FeatureMatrix
p2614
(dp2615
g34
(lp2616
(I00
g1314
tp2617
asg22
Nsbsg28
(irule
Guard
p2618
(dp2619
g18
I00
sg19
(lp2620
(irule
FeatureMatrix
p2621
(dp2622
g34
(lp2623
(I00
g1356
tp2624
asg22
Nsba(irule
FeatureMatrix
p2625
(dp2626
g34
(lp2627
(I01
g1314
tp2628
asg22
Nsbasg21
I00
sg22
Nsg23
I01
sg24
S'R'
sbsg44
(irule
FeatureMatrix
p2629
(dp2630
g34
(lp2631
(I01
g1329
tp2632
a(I01
g1356
tp2633
asg22
Nsbsg22
Nsba(irule
Rule
p2634
(dp2635
g15
(irule
Guard
p2636
(dp2637
g18
I00
sg19
(lp2638
sg21
I00
sg22
Nsg23
I00
sg24
S'L'
sbsg25
(irule
FeatureMatrix
p2639
(dp2640
g34
(lp2641
(I00
g1376
tp2642
a(I00
g1529
tp2643
a(I00
g1314
tp2644
asg22
Nsbsg28
(irule
Guard
p2645
(dp2646
g18
I00
sg19
(lp2647
(irule
FeatureMatrix
p2648
(dp2649
g34
(lp2650
sg22
Nsba(irule
FeatureMatrix
p2651
(dp2652
g34
(lp2653
(I01
g1314
tp2654
asg22
Nsbasg21
I00
sg22
Nsg23
I01
sg24
S'R'
sbsg44
(irule
FeatureMatrix
p2655
(dp2656
g34
(lp2657
(I01
g1329
tp2658
asg22
Nsbsg22
Nsba(irule
Rule
p2659
(dp2660
g15
(irule
Guard
p2661
(dp2662
g18
I00
sg19
(lp2663
sg21
I00
sg22
Nsg23
I00
sg24
S'L'
sbsg25
(irule
FeatureMatrix
p2664
(dp2665
g34
(lp2666
(I00
g1416
tp2667
a(I00
g1314
tp2668
asg22
Nsbsg28
(irule
Guard
p2669
(dp2670
g18
I00
sg19
(lp2671
(irule
FeatureMatrix
p2672
(dp2673
g34
(lp2674
sg22
Nsba(irule
FeatureMatrix
p2675
(dp2676
g34
(lp2677
(I01
g1314
tp2678
asg22
Nsbasg21
I00
sg22
Nsg23
I01
sg24
S'R'
sbsg44
(irule
FeatureMatrix
p2679
(dp2680
g34
(lp2681
(I01
g1329
tp2682
a(I01
g1356
tp2683
asg22
Nsbsg22
Nsba(irule
Rule
p2684
(dp2685
g15
(irule
Guard
p2686
(dp2687
g18
I00
sg19
(lp2688
sg21
I00
sg22
Nsg23
I00
sg24
S'L'
sbsg25
(irule
FeatureMatrix
p2689
(dp2690
g34
(lp2691
(I00
g1376
tp2692
a(I00
g1314
tp2693
a(I01
g1329
tp2694
asg22
Nsbsg28
(irule
Guard
p2695
(dp2696
g18
I00
sg19
(lp2697
(irule
FeatureMatrix
p2698
(dp2699
g34
(lp2700
sg22
Nsba(irule
FeatureMatrix
p2701
(dp2702
g34
(lp2703
(I01
g1314
tp2704
asg22
Nsbasg21
I00
sg22
Nsg23
I01
sg24
S'R'
sbsg44
(irule
FeatureMatrix
p2705
(dp2706
g34
(lp2707
(I01
g1329
tp2708
asg22
Nsbsg22
Nsba(irule
Rule
p2709
(dp2710
g15
(irule
Guard
p2711
(dp2712
g18
I00
sg19
(lp2713
sg21
I00
sg22
Nsg23
I00
sg24
S'L'
sbsg25
(irule
FeatureMatrix
p2714
(dp2715
g34
(lp2716
(I00
g1376
tp2717
a(I00
g1314
tp2718
a(I00
g1481
tp2719
asg22
Nsbsg28
(irule
Guard
p2720
(dp2721
g18
I00
sg19
(lp2722
(irule
FeatureMatrix
p2723
(dp2724
g34
(lp2725
sg22
Nsba(irule
FeatureMatrix
p2726
(dp2727
g34
(lp2728
(I01
g1314
tp2729
asg22
Nsbasg21
I00
sg22
Nsg23
I01
sg24
S'R'
sbsg44
(irule
FeatureMatrix
p2730
(dp2731
g34
(lp2732
(I01
g1329
tp2733
asg22
Nsbsg22
Nsba(irule
Rule
p2734
(dp2735
g15
(irule
Guard
p2736
(dp2737
g18
I00
sg19
(lp2738
sg21
I00
sg22
Nsg23
I00
sg24
S'L'
sbsg25
(irule
FeatureMatrix
p2739
(dp2740
g34
(lp2741
(I00
g1416
tp2742
a(I00
g1314
tp2743
a(I00
g1331
tp2744
asg22
Nsbsg28
(irule
Guard
p2745
(dp2746
g18
I00
sg19
(lp2747
(irule
FeatureMatrix
p2748
(dp2749
g34
(lp2750
sg22
Nsba(irule
FeatureMatrix
p2751
(dp2752
g34
(lp2753
(I01
g1314
tp2754
asg22
Nsbasg21
I00
sg22
Nsg23
I01
sg24
S'R'
sbsg44
(irule
FeatureMatrix
p2755
(dp2756
g34
(lp2757
(I01
g1329
tp2758
asg22
Nsbsg22
Nsba(irule
Rule
p2759
(dp2760
g15
(irule
Guard
p2761
(dp2762
g18
I00
sg19
(lp2763
sg21
I00
sg22
Nsg23
I00
sg24
S'L'
sbsg25
(irule
FeatureMatrix
p2764
(dp2765
g34
(lp2766
(I00
g1314
tp2767
a(I01
g1406
tp2768
asg22
Nsbsg28
(irule
Guard
p2769
(dp2770
g18
I00
sg19
(lp2771
(irule
FeatureMatrix
p2772
(dp2773
g34
(lp2774
sg22
Nsba(irule
FeatureMatrix
p2775
(dp2776
g34
(lp2777
(I01
g1314
tp2778
asg22
Nsbasg21
I00
sg22
Nsg23
I01
sg24
S'R'
sbsg44
(irule
FeatureMatrix
p2779
(dp2780
g34
(lp2781
(I01
g1329
tp2782
a(I01
g1456
tp2783
asg22
Nsbsg22
Nsba(irule
Rule
p2784
(dp2785
g15
(irule
Guard
p2786
(dp2787
g18
I00
sg19
(lp2788
sg21
I00
sg22
Nsg23
I00
sg24
S'L'
sbsg25
(irule
FeatureMatrix
p2789
(dp2790
g34
(lp2791
(I00
g1314
tp2792
a(I01
g1406
tp2793
asg22
Nsbsg28
(irule
Guard
p2794
(dp2795
g18
I00
sg19
(lp2796
(irule
FeatureMatrix
p2797
(dp2798
g34
(lp2799
sg22
Nsba(irule
FeatureMatrix
p2800
(dp2801
g34
(lp2802
(I01
g1314
tp2803
asg22
Nsbasg21
I00
sg22
Nsg23
I01
sg24
S'R'
sbsg44
(irule
FeatureMatrix
p2804
(dp2805
g34
(lp2806
(I01
g1314
tp2807
a(I01
g1329
tp2808
asg22
Nsbsg22
Nsba(irule
Rule
p2809
(dp2810
g15
(irule
Guard
p2811
(dp2812
g18
I00
sg19
(lp2813
sg21
I00
sg22
Nsg23
I00
sg24
S'L'
sbsg25
(irule
FeatureMatrix
p2814
(dp2815
g34
(lp2816
(I00
g1314
tp2817
a(I00
g1331
tp2818
asg22
Nsbsg28
(irule
Guard
p2819
(dp2820
g18
I00
sg19
(lp2821
(irule
FeatureMatrix
p2822
(dp2823
g34
(lp2824
sg22
Nsba(irule
FeatureMatrix
p2825
(dp2826
g34
(lp2827
(I01
g1314
tp2828
asg22
Nsbasg21
I00
sg22
Nsg23
I01
sg24
S'R'
sbsg44
(irule
FeatureMatrix
p2829
(dp2830
g34
(lp2831
(I01
g1329
tp2832
a(I01
g1356
tp2833
asg22
Nsbsg22
Nsba(irule
Rule
p2834
(dp2835
g15
(irule
Guard
p2836
(dp2837
g18
I00
sg19
(lp2838
sg21
I00
sg22
Nsg23
I00
sg24
S'L'
sbsg25
(irule
FeatureMatrix
p2839
(dp2840
g34
(lp2841
(I00
g1314
tp2842
a(I01
g1329
tp2843
asg22
Nsbsg28
(irule
Guard
p2844
(dp2845
g18
I00
sg19
(lp2846
(irule
FeatureMatrix
p2847
(dp2848
g34
(lp2849
sg22
Nsba(irule
FeatureMatrix
p2850
(dp2851
g34
(lp2852
(I01
g1314
tp2853
asg22
Nsbasg21
I00
sg22
Nsg23
I01
sg24
S'R'
sbsg44
(irule
FeatureMatrix
p2854
(dp2855
g34
(lp2856
(I01
g1329
tp2857
a(I01
g1356
tp2858
asg22
Nsbsg22
Nsba(irule
Rule
p2859
(dp2860
g15
(irule
Guard
p2861
(dp2862
g18
I00
sg19
(lp2863
sg21
I00
sg22
Nsg23
I00
sg24
S'L'
sbsg25
(irule
FeatureMatrix
p2864
(dp2865
g34
(lp2866
(I00
g1314
tp2867
asg22
Nsbsg28
(irule
Guard
p2868
(dp2869
g18
I00
sg19
(lp2870
(irule
FeatureMatrix
p2871
(dp2872
g34
(lp2873
sg22
Nsba(irule
FeatureMatrix
p2874
(dp2875
g34
(lp2876
(I01
g1314
tp2877
asg22
Nsbasg21
I00
sg22
Nsg23
I01
sg24
S'R'
sbsg44
(irule
FeatureMatrix
p2878
(dp2879
g34
(lp2880
(I01
g1554
tp2881
a(I01
g1329
tp2882
a(I01
g1356
tp2883
asg22
Nsbsg22
Nsba(irule
Rule
p2884
(dp2885
g15
(irule
Guard
p2886
(dp2887
g18
I00
sg19
(lp2888
sg21
I00
sg22
Nsg23
I00
sg24
S'L'
sbsg25
(irule
FeatureMatrix
p2889
(dp2890
g34
(lp2891
(I00
g1416
tp2892
a(I00
g1529
tp2893
a(I00
g1314
tp2894
asg22
Nsbsg28
(irule
Guard
p2895
(dp2896
g18
I00
sg19
(lp2897
(irule
FeatureMatrix
p2898
(dp2899
g34
(lp2900
sg22
Nsba(irule
FeatureMatrix
p2901
(dp2902
g34
(lp2903
(I01
g1314
tp2904
asg22
Nsbasg21
I00
sg22
Nsg23
I01
sg24
S'R'
sbsg44
(irule
FeatureMatrix
p2905
(dp2906
g34
(lp2907
(I01
g1329
tp2908
asg22
Nsbsg22
Nsba(irule
Rule
p2909
(dp2910
g15
(irule
Guard
p2911
(dp2912
g18
I00
sg19
(lp2913
sg21
I00
sg22
Nsg23
I00
sg24
S'L'
sbsg25
(irule
FeatureMatrix
p2914
(dp2915
g34
(lp2916
(I00
g1314
tp2917
a(I00
g1331
tp2918
asg22
Nsbsg28
(irule
Guard
p2919
(dp2920
g18
I00
sg19
(lp2921
(irule
FeatureMatrix
p2922
(dp2923
g34
(lp2924
sg22
Nsba(irule
FeatureMatrix
p2925
(dp2926
g34
(lp2927
(I01
g1314
tp2928
asg22
Nsbasg21
I00
sg22
Nsg23
I01
sg24
S'R'
sbsg44
(irule
FeatureMatrix
p2929
(dp2930
g34
(lp2931
(I01
g1329
tp2932
a(I01
g1456
tp2933
asg22
Nsbsg22
Nsba(irule
Rule
p2934
(dp2935
g15
(irule
Guard
p2936
(dp2937
g18
I00
sg19
(lp2938
sg21
I00
sg22
Nsg23
I00
sg24
S'L'
sbsg25
(irule
FeatureMatrix
p2939
(dp2940
g34
(lp2941
(I00
g1416
tp2942
a(I00
g1314
tp2943
a(I00
g1481
tp2944
asg22
Nsbsg28
(irule
Guard
p2945
(dp2946
g18
I00
sg19
(lp2947
(irule
FeatureMatrix
p2948
(dp2949
g34
(lp2950
sg22
Nsba(irule
FeatureMatrix
p2951
(dp2952
g34
(lp2953
(I01
g1314
tp2954
asg22
Nsbasg21
I00
sg22
Nsg23
I01
sg24
S'R'
sbsg44
(irule
FeatureMatrix
p2955
(dp2956
g34
(lp2957
(I01
g1329
tp2958
asg22
Nsbsg22
Nsba(irule
Rule
p2959
(dp2960
g15
(irule
Guard
p2961
(dp2962
g18
I00
sg19
(lp2963
sg21
I00
sg22
Nsg23
I00
sg24
S'L'
sbsg25
(irule
FeatureMatrix
p2964
(dp2965
g34
(lp2966
(I00
g1314
tp2967
asg22
Nsbsg28
(irule
Guard
p2968
(dp2969
g18
I00
sg19
(lp2970
(irule
FeatureMatrix
p2971
(dp2972
g34
(lp2973
(I00
g1456
tp2974
asg22
Nsba(irule
FeatureMatrix
p2975
(dp2976
g34
(lp2977
(I01
g1314
tp2978
a(I01
g1554
tp2979
asg22
Nsbasg21
I00
sg22
Nsg23
I01
sg24
S'R'
sbsg44
(irule
FeatureMatrix
p2980
(dp2981
g34
(lp2982
(I01
g1329
tp2983
asg22
Nsbsg22
Nsba(irule
Rule
p2984
(dp2985
g15
(irule
Guard
p2986
(dp2987
g18
I00
sg19
(lp2988
sg21
I00
sg22
Nsg23
I00
sg24
S'L'
sbsg25
(irule
FeatureMatrix
p2989
(dp2990
g34
(lp2991
(I00
g1416
tp2992
a(I00
g1314
tp2993
a(I01
g1329
tp2994
asg22
Nsbsg28
(irule
Guard
p2995
(dp2996
g18
I00
sg19
(lp2997
(irule
FeatureMatrix
p2998
(dp2999
g34
(lp3000
sg22
Nsba(irule
FeatureMatrix
p3001
(dp3002
g34
(lp3003
(I01
g1314
tp3004
asg22
Nsbasg21
I00
sg22
Nsg23
I01
sg24
S'R'
sbsg44
(irule
FeatureMatrix
p3005
(dp3006
g34
(lp3007
(I01
g1329
tp3008
asg22
Nsbsg22
Nsba(irule
Rule
p3009
(dp3010
g15
(irule
Guard
p3011
(dp3012
g18
I00
sg19
(lp3013
sg21
I00
sg22
Nsg23
I00
sg24
S'L'
sbsg25
(irule
FeatureMatrix
p3014
(dp3015
g34
(lp3016
(I00
g1376
tp3017
a(I00
g1314
tp3018
a(I00
g1331
tp3019
asg22
Nsbsg28
(irule
Guard
p3020
(dp3021
g18
I00
sg19
(lp3022
(irule
FeatureMatrix
p3023
(dp3024
g34
(lp3025
sg22
Nsba(irule
FeatureMatrix
p3026
(dp3027
g34
(lp3028
(I01
g1314
tp3029
asg22
Nsbasg21
I00
sg22
Nsg23
I01
sg24
S'R'
sbsg44
(irule
FeatureMatrix
p3030
(dp3031
g34
(lp3032
(I01
g1329
tp3033
asg22
Nsbsg22
Nsba(irule
Rule
p3034
(dp3035
g15
(irule
Guard
p3036
(dp3037
g18
I00
sg19
(lp3038
sg21
I00
sg22
Nsg23
I00
sg24
S'L'
sbsg25
(irule
FeatureMatrix
p3039
(dp3040
g34
(lp3041
(I00
g1676
tp3042
a(I00
g1314
tp3043
asg22
Nsbsg28
(irule
Guard
p3044
(dp3045
g18
I00
sg19
(lp3046
(irule
FeatureMatrix
p3047
(dp3048
g34
(lp3049
sg22
Nsba(irule
FeatureMatrix
p3050
(dp3051
g34
(lp3052
(I01
g1314
tp3053
asg22
Nsbasg21
I00
sg22
Nsg23
I01
sg24
S'R'
sbsg44
(irule
FeatureMatrix
p3054
(dp3055
g34
(lp3056
(I01
g1329
tp3057
a(I01
g1356
tp3058
asg22
Nsbsg22
Nsba(irule
Rule
p3059
(dp3060
g15
(irule
Guard
p3061
(dp3062
g18
I00
sg19
(lp3063
sg21
I00
sg22
Nsg23
I00
sg24
S'L'
sbsg25
(irule
FeatureMatrix
p3064
(dp3065
g34
(lp3066
(I00
g1314
tp3067
asg22
Nsbsg28
(irule
Guard
p3068
(dp3069
g18
I00
sg19
(lp3070
(irule
FeatureMatrix
p3071
(dp3072
g34
(lp3073
sg22
Nsba(irule
FeatureMatrix
p3074
(dp3075
g34
(lp3076
(I01
g1314
tp3077
a(I01
g1406
tp3078
asg22
Nsbasg21
I00
sg22
Nsg23
I01
sg24
S'R'
sbsg44
(irule
FeatureMatrix
p3079
(dp3080
g34
(lp3081
(I01
g1329
tp3082
a(I01
g1356
tp3083
asg22
Nsbsg22
Nsba(irule
Rule
p3084
(dp3085
g15
(irule
Guard
p3086
(dp3087
g18
I00
sg19
(lp3088
sg21
I00
sg22
Nsg23
I00
sg24
S'L'
sbsg25
(irule
FeatureMatrix
p3089
(dp3090
g34
(lp3091
(I00
g1529
tp3092
a(I00
g1314
tp3093
asg22
Nsbsg28
(irule
Guard
p3094
(dp3095
g18
I00
sg19
(lp3096
(irule
FeatureMatrix
p3097
(dp3098
g34
(lp3099
sg22
Nsba(irule
FeatureMatrix
p3100
(dp3101
g34
(lp3102
(I01
g1314
tp3103
asg22
Nsbasg21
I00
sg22
Nsg23
I01
sg24
S'R'
sbsg44
(irule
FeatureMatrix
p3104
(dp3105
g34
(lp3106
(I01
g1329
tp3107
a(I01
g1356
tp3108
asg22
Nsbsg22
Nsba(irule
Rule
p3109
(dp3110
g15
(irule
Guard
p3111
(dp3112
g18
I00
sg19
(lp3113
sg21
I00
sg22
Nsg23
I00
sg24
S'L'
sbsg25
(irule
FeatureMatrix
p3114
(dp3115
g34
(lp3116
(I00
g1314
tp3117
a(I01
g1554
tp3118
asg22
Nsbsg28
(irule
Guard
p3119
(dp3120
g18
I00
sg19
(lp3121
(irule
FeatureMatrix
p3122
(dp3123
g34
(lp3124
sg22
Nsba(irule
FeatureMatrix
p3125
(dp3126
g34
(lp3127
(I01
g1314
tp3128
asg22
Nsbasg21
I00
sg22
Nsg23
I01
sg24
S'R'
sbsg44
(irule
FeatureMatrix
p3129
(dp3130
g34
(lp3131
(I01
g1329
tp3132
a(I01
g1356
tp3133
asg22
Nsbsg22
Nsba(irule
Rule
p3134
(dp3135
g15
(irule
Guard
p3136
(dp3137
g18
I00
sg19
(lp3138
sg21
I00
sg22
Nsg23
I00
sg24
S'L'
sbsg25
(irule
FeatureMatrix
p3139
(dp3140
g34
(lp3141
(I00
g1376
tp3142
a(I00
g1314
tp3143
asg22
Nsbsg28
(irule
Guard
p3144
(dp3145
g18
I00
sg19
(lp3146
(irule
FeatureMatrix
p3147
(dp3148
g34
(lp3149
sg22
Nsba(irule
FeatureMatrix
p3150
(dp3151
g34
(lp3152
(I01
g1314
tp3153
asg22
Nsbasg21
I00
sg22
Nsg23
I01
sg24
S'R'
sbsg44
(irule
FeatureMatrix
p3154
(dp3155
g34
(lp3156
(I01
g1329
tp3157
a(I01
g1406
tp3158
asg22
Nsbsg22
Nsba(irule
Rule
p3159
(dp3160
g15
(irule
Guard
p3161
(dp3162
g18
I00
sg19
(lp3163
sg21
I00
sg22
Nsg23
I00
sg24
S'L'
sbsg25
(irule
FeatureMatrix
p3164
(dp3165
g34
(lp3166
(I00
g1314
tp3167
a(I00
g1481
tp3168
asg22
Nsbsg28
(irule
Guard
p3169
(dp3170
g18
I00
sg19
(lp3171
(irule
FeatureMatrix
p3172
(dp3173
g34
(lp3174
sg22
Nsba(irule
FeatureMatrix
p3175
(dp3176
g34
(lp3177
(I01
g1314
tp3178
asg22
Nsbasg21
I00
sg22
Nsg23
I01
sg24
S'R'
sbsg44
(irule
FeatureMatrix
p3179
(dp3180
g34
(lp3181
(I01
g1329
tp3182
a(I01
g1356
tp3183
asg22
Nsbsg22
Nsba(irule
Rule
p3184
(dp3185
g15
(irule
Guard
p3186
(dp3187
g18
I00
sg19
(lp3188
sg21
I00
sg22
Nsg23
I00
sg24
S'L'
sbsg25
(irule
FeatureMatrix
p3189
(dp3190
g34
(lp3191
(I00
g1314
tp3192
asg22
Nsbsg28
(irule
Guard
p3193
(dp3194
g18
I00
sg19
(lp3195
(irule
FeatureMatrix
p3196
(dp3197
g34
(lp3198
(I00
g1356
tp3199
asg22
Nsba(irule
FeatureMatrix
p3200
(dp3201
g34
(lp3202
(I01
g1314
tp3203
a(I01
g1456
tp3204
asg22
Nsbasg21
I00
sg22
Nsg23
I01
sg24
S'R'
sbsg44
(irule
FeatureMatrix
p3205
(dp3206
g34
(lp3207
(I01
g1329
tp3208
asg22
Nsbsg22
Nsba(irule
Rule
p3209
(dp3210
g15
(irule
Guard
p3211
(dp3212
g18
I00
sg19
(lp3213
sg21
I00
sg22
Nsg23
I00
sg24
S'L'
sbsg25
(irule
FeatureMatrix
p3214
(dp3215
g34
(lp3216
(I00
g1314
tp3217
a(I00
g1331
tp3218
a(I00
g1481
tp3219
asg22
Nsbsg28
(irule
Guard
p3220
(dp3221
g18
I00
sg19
(lp3222
(irule
FeatureMatrix
p3223
(dp3224
g34
(lp3225
sg22
Nsba(irule
FeatureMatrix
p3226
(dp3227
g34
(lp3228
(I01
g1314
tp3229
asg22
Nsbasg21
I00
sg22
Nsg23
I01
sg24
S'R'
sbsg44
(irule
FeatureMatrix
p3230
(dp3231
g34
(lp3232
(I01
g1329
tp3233
asg22
Nsbsg22
Nsba(irule
Rule
p3234
(dp3235
g15
(irule
Guard
p3236
(dp3237
g18
I00
sg19
(lp3238
sg21
I00
sg22
Nsg23
I00
sg24
S'L'
sbsg25
(irule
FeatureMatrix
p3239
(dp3240
g34
(lp3241
(I00
g1314
tp3242
a(I01
g1329
tp3243
a(I00
g1331
tp3244
asg22
Nsbsg28
(irule
Guard
p3245
(dp3246
g18
I00
sg19
(lp3247
(irule
FeatureMatrix
p3248
(dp3249
g34
(lp3250
sg22
Nsba(irule
FeatureMatrix
p3251
(dp3252
g34
(lp3253
(I01
g1314
tp3254
asg22
Nsbasg21
I00
sg22
Nsg23
I01
sg24
S'R'
sbsg44
(irule
FeatureMatrix
p3255
(dp3256
g34
(lp3257
(I01
g1329
tp3258
asg22
Nsbsg22
Nsba(irule
Rule
p3259
(dp3260
g15
(irule
Guard
p3261
(dp3262
g18
I00
sg19
(lp3263
sg21
I00
sg22
Nsg23
I00
sg24
S'L'
sbsg25
(irule
FeatureMatrix
p3264
(dp3265
g34
(lp3266
(I00
g1314
tp3267
asg22
Nsbsg28
(irule
Guard
p3268
(dp3269
g18
I00
sg19
(lp3270
(irule
FeatureMatrix
p3271
(dp3272
g34
(lp3273
(I00
g1481
tp3274
asg22
Nsba(irule
FeatureMatrix
p3275
(dp3276
g34
(lp3277
(I01
g1314
tp3278
a(I01
g1456
tp3279
asg22
Nsbasg21
I00
sg22
Nsg23
I01
sg24
S'R'
sbsg44
(irule
FeatureMatrix
p3280
(dp3281
g34
(lp3282
(I01
g1329
tp3283
asg22
Nsbsg22
Nsba(irule
Rule
p3284
(dp3285
g15
(irule
Guard
p3286
(dp3287
g18
I00
sg19
(lp3288
sg21
I00
sg22
Nsg23
I00
sg24
S'L'
sbsg25
(irule
FeatureMatrix
p3289
(dp3290
g34
(lp3291
(I00
g1314
tp3292
asg22
Nsbsg28
(irule
Guard
p3293
(dp3294
g18
I00
sg19
(lp3295
(irule
FeatureMatrix
p3296
(dp3297
g34
(lp3298
(I00
g1356
tp3299
asg22
Nsba(irule
FeatureMatrix
p3300
(dp3301
g34
(lp3302
(I01
g1314
tp3303
a(I00
g1331
tp3304
asg22
Nsbasg21
I00
sg22
Nsg23
I01
sg24
S'R'
sbsg44
(irule
FeatureMatrix
p3305
(dp3306
g34
(lp3307
(I01
g1329
tp3308
asg22
Nsbsg22
Nsba(irule
Rule
p3309
(dp3310
g15
(irule
Guard
p3311
(dp3312
g18
I00
sg19
(lp3313
sg21
I00
sg22
Nsg23
I00
sg24
S'L'
sbsg25
(irule
FeatureMatrix
p3314
(dp3315
g34
(lp3316
(I00
g1314
tp3317
a(I01
g1329
tp3318
a(I00
g1481
tp3319
asg22
Nsbsg28
(irule
Guard
p3320
(dp3321
g18
I00
sg19
(lp3322
(irule
FeatureMatrix
p3323
(dp3324
g34
(lp3325
sg22
Nsba(irule
FeatureMatrix
p3326
(dp3327
g34
(lp3328
(I01
g1314
tp3329
asg22
Nsbasg21
I00
sg22
Nsg23
I01
sg24
S'R'
sbsg44
(irule
FeatureMatrix
p3330
(dp3331
g34
(lp3332
(I01
g1329
tp3333
asg22
Nsbsg22
Nsba(irule
Rule
p3334
(dp3335
g15
(irule
Guard
p3336
(dp3337
g18
I00
sg19
(lp3338
sg21
I00
sg22
Nsg23
I00
sg24
S'L'
sbsg25
(irule
FeatureMatrix
p3339
(dp3340
g34
(lp3341
(I00
g1416
tp3342
a(I00
g1314
tp3343
asg22
Nsbsg28
(irule
Guard
p3344
(dp3345
g18
I00
sg19
(lp3346
(irule
FeatureMatrix
p3347
(dp3348
g34
(lp3349
sg22
Nsba(irule
FeatureMatrix
p3350
(dp3351
g34
(lp3352
(I01
g1314
tp3353
asg22
Nsbasg21
I00
sg22
Nsg23
I01
sg24
S'R'
sbsg44
(irule
FeatureMatrix
p3354
(dp3355
g34
(lp3356
(I01
g1314
tp3357
a(I01
g1329
tp3358
asg22
Nsbsg22
Nsba(irule
Rule
p3359
(dp3360
g15
(irule
Guard
p3361
(dp3362
g18
I00
sg19
(lp3363
sg21
I00
sg22
Nsg23
I00
sg24
S'L'
sbsg25
(irule
FeatureMatrix
p3364
(dp3365
g34
(lp3366
(I00
g1314
tp3367
asg22
Nsbsg28
(irule
Guard
p3368
(dp3369
g18
I00
sg19
(lp3370
(irule
FeatureMatrix
p3371
(dp3372
g34
(lp3373
(I00
g1314
tp3374
asg22
Nsba(irule
FeatureMatrix
p3375
(dp3376
g34
(lp3377
(I01
g1314
tp3378
a(I01
g1456
tp3379
asg22
Nsbasg21
I00
sg22
Nsg23
I01
sg24
S'R'
sbsg44
(irule
FeatureMatrix
p3380
(dp3381
g34
(lp3382
(I01
g1329
tp3383
asg22
Nsbsg22
Nsba(irule
Rule
p3384
(dp3385
g15
(irule
Guard
p3386
(dp3387
g18
I00
sg19
(lp3388
sg21
I00
sg22
Nsg23
I00
sg24
S'L'
sbsg25
(irule
FeatureMatrix
p3389
(dp3390
g34
(lp3391
(I00
g1314
tp3392
a(I01
g1554
tp3393
asg22
Nsbsg28
(irule
Guard
p3394
(dp3395
g18
I00
sg19
(lp3396
(irule
FeatureMatrix
p3397
(dp3398
g34
(lp3399
sg22
Nsba(irule
FeatureMatrix
p3400
(dp3401
g34
(lp3402
(I01
g1314
tp3403
asg22
Nsbasg21
I00
sg22
Nsg23
I01
sg24
S'R'
sbsg44
(irule
FeatureMatrix
p3404
(dp3405
g34
(lp3406
(I01
g1329
tp3407
a(I01
g1456
tp3408
asg22
Nsbsg22
Nsba(irule
Rule
p3409
(dp3410
g15
(irule
Guard
p3411
(dp3412
g18
I00
sg19
(lp3413
sg21
I00
sg22
Nsg23
I00
sg24
S'L'
sbsg25
(irule
FeatureMatrix
p3414
(dp3415
g34
(lp3416
(I00
g1314
tp3417
a(I01
g1554
tp3418
asg22
Nsbsg28
(irule
Guard
p3419
(dp3420
g18
I00
sg19
(lp3421
(irule
FeatureMatrix
p3422
(dp3423
g34
(lp3424
sg22
Nsba(irule
FeatureMatrix
p3425
(dp3426
g34
(lp3427
(I01
g1314
tp3428
asg22
Nsbasg21
I00
sg22
Nsg23
I01
sg24
S'R'
sbsg44
(irule
FeatureMatrix
p3429
(dp3430
g34
(lp3431
(I01
g1554
tp3432
a(I01
g1329
tp3433
asg22
Nsbsg22
Nsba(irule
Rule
p3434
(dp3435
g15
(irule
Guard
p3436
(dp3437
g18
I00
sg19
(lp3438
sg21
I00
sg22
Nsg23
I00
sg24
S'L'
sbsg25
(irule
FeatureMatrix
p3439
(dp3440
g34
(lp3441
(I00
g1314
tp3442
asg22
Nsbsg28
(irule
Guard
p3443
(dp3444
g18
I00
sg19
(lp3445
(irule
FeatureMatrix
p3446
(dp3447
g34
(lp3448
(I00
g1314
tp3449
asg22
Nsba(irule
FeatureMatrix
p3450
(dp3451
g34
(lp3452
(I00
g1376
tp3453
a(I01
g1314
tp3454
asg22
Nsbasg21
I00
sg22
Nsg23
I01
sg24
S'R'
sbsg44
(irule
FeatureMatrix
p3455
(dp3456
g34
(lp3457
(I01
g1329
tp3458
asg22
Nsbsg22
Nsba(irule
Rule
p3459
(dp3460
g15
(irule
Guard
p3461
(dp3462
g18
I00
sg19
(lp3463
sg21
I00
sg22
Nsg23
I00
sg24
S'L'
sbsg25
(irule
FeatureMatrix
p3464
(dp3465
g34
(lp3466
(I00
g1529
tp3467
a(I00
g1314
tp3468
a(I00
g1331
tp3469
asg22
Nsbsg28
(irule
Guard
p3470
(dp3471
g18
I00
sg19
(lp3472
(irule
FeatureMatrix
p3473
(dp3474
g34
(lp3475
sg22
Nsba(irule
FeatureMatrix
p3476
(dp3477
g34
(lp3478
(I01
g1314
tp3479
asg22
Nsbasg21
I00
sg22
Nsg23
I01
sg24
S'R'
sbsg44
(irule
FeatureMatrix
p3480
(dp3481
g34
(lp3482
(I01
g1329
tp3483
asg22
Nsbsg22
Nsba(irule
Rule
p3484
(dp3485
g15
(irule
Guard
p3486
(dp3487
g18
I00
sg19
(lp3488
sg21
I00
sg22
Nsg23
I00
sg24
S'L'
sbsg25
(irule
FeatureMatrix
p3489
(dp3490
g34
(lp3491
(I00
g1314
tp3492
asg22
Nsbsg28
(irule
Guard
p3493
(dp3494
g18
I00
sg19
(lp3495
(irule
FeatureMatrix
p3496
(dp3497
g34
(lp3498
(I00
g1456
tp3499
asg22
Nsba(irule
FeatureMatrix
p3500
(dp3501
g34
(lp3502
(I01
g1314
tp3503
asg22
Nsbasg21
I00
sg22
Nsg23
I01
sg24
S'R'
sbsg44
(irule
FeatureMatrix
p3504
(dp3505
g34
(lp3506
(I01
g1329
tp3507
a(I01
g1356
tp3508
asg22
Nsbsg22
Nsba(irule
Rule
p3509
(dp3510
g15
(irule
Guard
p3511
(dp3512
g18
I00
sg19
(lp3513
sg21
I00
sg22
Nsg23
I00
sg24
S'L'
sbsg25
(irule
FeatureMatrix
p3514
(dp3515
g34
(lp3516
(I00
g1529
tp3517
a(I00
g1314
tp3518
a(I01
g1329
tp3519
asg22
Nsbsg28
(irule
Guard
p3520
(dp3521
g18
I00
sg19
(lp3522
(irule
FeatureMatrix
p3523
(dp3524
g34
(lp3525
sg22
Nsba(irule
FeatureMatrix
p3526
(dp3527
g34
(lp3528
(I01
g1314
tp3529
asg22
Nsbasg21
I00
sg22
Nsg23
I01
sg24
S'R'
sbsg44
(irule
FeatureMatrix
p3530
(dp3531
g34
(lp3532
(I01
g1329
tp3533
asg22
Nsbsg22
Nsba(irule
Rule
p3534
(dp3535
g15
(irule
Guard
p3536
(dp3537
g18
I00
sg19
(lp3538
sg21
I00
sg22
Nsg23
I00
sg24
S'L'
sbsg25
(irule
FeatureMatrix
p3539
(dp3540
g34
(lp3541
(I00
g1529
tp3542
a(I00
g1314
tp3543
a(I00
g1481
tp3544
asg22
Nsbsg28
(irule
Guard
p3545
(dp3546
g18
I00
sg19
(lp3547
(irule
FeatureMatrix
p3548
(dp3549
g34
(lp3550
sg22
Nsba(irule
FeatureMatrix
p3551
(dp3552
g34
(lp3553
(I01
g1314
tp3554
asg22
Nsbasg21
I00
sg22
Nsg23
I01
sg24
S'R'
sbsg44
(irule
FeatureMatrix
p3555
(dp3556
g34
(lp3557
(I01
g1329
tp3558
asg22
Nsbsg22
Nsba(irule
Rule
p3559
(dp3560
g15
(irule
Guard
p3561
(dp3562
g18
I00
sg19
(lp3563
sg21
I00
sg22
Nsg23
I00
sg24
S'L'
sbsg25
(irule
FeatureMatrix
p3564
(dp3565
g34
(lp3566
(I00
g1314
tp3567
a(I01
g1554
tp3568
asg22
Nsbsg28
(irule
Guard
p3569
(dp3570
g18
I00
sg19
(lp3571
(irule
FeatureMatrix
p3572
(dp3573
g34
(lp3574
sg22
Nsba(irule
FeatureMatrix
p3575
(dp3576
g34
(lp3577
(I01
g1314
tp3578
asg22
Nsbasg21
I00
sg22
Nsg23
I01
sg24
S'R'
sbsg44
(irule
FeatureMatrix
p3579
(dp3580
g34
(lp3581
(I01
g1579
tp3582
a(I01
g1329
tp3583
asg22
Nsbsg22
Nsba(irule
Rule
p3584
(dp3585
g15
(irule
Guard
p3586
(dp3587
g18
I00
sg19
(lp3588
sg21
I00
sg22
Nsg23
I00
sg24
S'L'
sbsg25
(irule
FeatureMatrix
p3589
(dp3590
g34
(lp3591
(I00
g1314
tp3592
asg22
Nsbsg28
(irule
Guard
p3593
(dp3594
g18
I00
sg19
(lp3595
(irule
FeatureMatrix
p3596
(dp3597
g34
(lp3598
sg22
Nsba(irule
FeatureMatrix
p3599
(dp3600
g34
(lp3601
(I01
g1314
tp3602
asg22
Nsbasg21
I00
sg22
Nsg23
I01
sg24
S'R'
sbsg44
(irule
FeatureMatrix
p3603
(dp3604
g34
(lp3605
(I01
g1329
tp3606
a(I01
g1456
tp3607
a(I00
g1481
tp3608
asg22
Nsbsg22
Nsba(irule
Rule
p3609
(dp3610
g15
(irule
Guard
p3611
(dp3612
g18
I00
sg19
(lp3613
sg21
I00
sg22
Nsg23
I00
sg24
S'L'
sbsg25
(irule
FeatureMatrix
p3614
(dp3615
g34
(lp3616
(I00
g1314
tp3617
asg22
Nsbsg28
(irule
Guard
p3618
(dp3619
g18
I00
sg19
(lp3620
(irule
FeatureMatrix
p3621
(dp3622
g34
(lp3623
sg22
Nsba(irule
FeatureMatrix
p3624
(dp3625
g34
(lp3626
(I00
g1529
tp3627
a(I01
g1314
tp3628
a(I01
g1456
tp3629
asg22
Nsbasg21
I00
sg22
Nsg23
I01
sg24
S'R'
sbsg44
(irule
FeatureMatrix
p3630
(dp3631
g34
(lp3632
(I01
g1329
tp3633
asg22
Nsbsg22
Nsba(irule
Rule
p3634
(dp3635
g15
(irule
Guard
p3636
(dp3637
g18
I00
sg19
(lp3638
sg21
I00
sg22
Nsg23
I00
sg24
S'L'
sbsg25
(irule
FeatureMatrix
p3639
(dp3640
g34
(lp3641
(I00
g1314
tp3642
a(I00
g1481
tp3643
asg22
Nsbsg28
(irule
Guard
p3644
(dp3645
g18
I00
sg19
(lp3646
(irule
FeatureMatrix
p3647
(dp3648
g34
(lp3649
(I00
g1456
tp3650
asg22
Nsba(irule
FeatureMatrix
p3651
(dp3652
g34
(lp3653
(I01
g1314
tp3654
asg22
Nsbasg21
I00
sg22
Nsg23
I01
sg24
S'R'
sbsg44
(irule
FeatureMatrix
p3655
(dp3656
g34
(lp3657
(I01
g1329
tp3658
asg22
Nsbsg22
Nsba(irule
Rule
p3659
(dp3660
g15
(irule
Guard
p3661
(dp3662
g18
I00
sg19
(lp3663
sg21
I00
sg22
Nsg23
I00
sg24
S'L'
sbsg25
(irule
FeatureMatrix
p3664
(dp3665
g34
(lp3666
(I00
g1314
tp3667
a(I00
g1481
tp3668
asg22
Nsbsg28
(irule
Guard
p3669
(dp3670
g18
I00
sg19
(lp3671
(irule
FeatureMatrix
p3672
(dp3673
g34
(lp3674
sg22
Nsba(irule
FeatureMatrix
p3675
(dp3676
g34
(lp3677
(I01
g1314
tp3678
asg22
Nsbasg21
I00
sg22
Nsg23
I01
sg24
S'R'
sbsg44
(irule
FeatureMatrix
p3679
(dp3680
g34
(lp3681
(I01
g1329
tp3682
a(I01
g1406
tp3683
asg22
Nsbsg22
Nsba(irule
Rule
p3684
(dp3685
g15
(irule
Guard
p3686
(dp3687
g18
I00
sg19
(lp3688
sg21
I00
sg22
Nsg23
I00
sg24
S'L'
sbsg25
(irule
FeatureMatrix
p3689
(dp3690
g34
(lp3691
(I00
g1416
tp3692
a(I00
g1314
tp3693
asg22
Nsbsg28
(irule
Guard
p3694
(dp3695
g18
I00
sg19
(lp3696
(irule
FeatureMatrix
p3697
(dp3698
g34
(lp3699
sg22
Nsba(irule
FeatureMatrix
p3700
(dp3701
g34
(lp3702
(I01
g1314
tp3703
asg22
Nsbasg21
I00
sg22
Nsg23
I01
sg24
S'R'
sbsg44
(irule
FeatureMatrix
p3704
(dp3705
g34
(lp3706
(I01
g1329
tp3707
a(I01
g1406
tp3708
asg22
Nsbsg22
Nsba(irule
Rule
p3709
(dp3710
g15
(irule
Guard
p3711
(dp3712
g18
I00
sg19
(lp3713
sg21
I00
sg22
Nsg23
I00
sg24
S'L'
sbsg25
(irule
FeatureMatrix
p3714
(dp3715
g34
(lp3716
(I00
g1314
tp3717
a(I00
g1331
tp3718
asg22
Nsbsg28
(irule
Guard
p3719
(dp3720
g18
I00
sg19
(lp3721
(irule
FeatureMatrix
p3722
(dp3723
g34
(lp3724
sg22
Nsba(irule
FeatureMatrix
p3725
(dp3726
g34
(lp3727
(I00
g2057
tp3728
a(I01
g1314
tp3729
asg22
Nsbasg21
I00
sg22
Nsg23
I01
sg24
S'R'
sbsg44
(irule
FeatureMatrix
p3730
(dp3731
g34
(lp3732
(I01
g1329
tp3733
asg22
Nsbsg22
Nsba(irule
Rule
p3734
(dp3735
g15
(irule
Guard
p3736
(dp3737
g18
I00
sg19
(lp3738
sg21
I00
sg22
Nsg23
I00
sg24
S'L'
sbsg25
(irule
FeatureMatrix
p3739
(dp3740
g34
(lp3741
(I00
g1314
tp3742
asg22
Nsbsg28
(irule
Guard
p3743
(dp3744
g18
I00
sg19
(lp3745
(irule
FeatureMatrix
p3746
(dp3747
g34
(lp3748
sg22
Nsba(irule
FeatureMatrix
p3749
(dp3750
g34
(lp3751
(I01
g1314
tp3752
asg22
Nsbasg21
I00
sg22
Nsg23
I01
sg24
S'R'
sbsg44
(irule
FeatureMatrix
p3753
(dp3754
g34
(lp3755
(I01
g1329
tp3756
a(I01
g1356
tp3757
a(I01
g1406
tp3758
asg22
Nsbsg22
Nsbaa(lp3759
(irule
Rule
p3760
(dp3761
g15
(irule
Guard
p3762
(dp3763
g18
I00
sg19
(lp3764
sg21
I00
sg22
V
sg23
I00
sg24
S'L'
sbsg25
(irule
ConstantPhoneme
p3765
(dp3766
S'p'
Va
sbsg28
(irule
Guard
p3767
(dp3768
g18
I00
sg19
(lp3769
(irule
FeatureMatrix
p3770
(dp3771
g34
(lp3772
sg22
V[  ]
p3773
sba(irule
FeatureMatrix
p3774
(dp3775
g34
(lp3776
(I01
S'highTone'
p3777
tp3778
asg22
V[ +highTone ]
p3779
sbasg21
I00
sg22
V[  ] [ +highTone ]
p3780
sg23
I00
sg24
S'R'
sbsg44
(irule
FeatureMatrix
p3781
(dp3782
g34
(lp3783
(I01
g3777
tp3784
asg22
V[ +highTone ]
p3785
sbsg22
V[ +highTone ] ---> a /  _ [  ] [ +highTone ]
p3786
sba(irule
Rule
p3787
(dp3788
g15
(irule
Guard
p3789
(dp3790
g18
I00
sg19
(lp3791
sg21
I00
sg22
Nsg23
I00
sg24
S'L'
sbsg25
(irule
ConstantPhoneme
p3792
(dp3793
S'p'
Va
sbsg28
(irule
Guard
p3794
(dp3795
g18
I00
sg19
(lp3796
(irule
FeatureMatrix
p3797
(dp3798
g34
(lp3799
sg22
Nsba(irule
FeatureMatrix
p3800
(dp3801
g34
(lp3802
(I01
S'highTone'
p3803
tp3804
asg22
Nsbasg21
I00
sg22
Nsg23
I01
sg24
S'R'
sbsg44
(irule
FeatureMatrix
p3805
(dp3806
g34
(lp3807
(I01
g3803
tp3808
asg22
Nsbsg22
Nsba(irule
Rule
p3809
(dp3810
g15
(irule
Guard
p3811
(dp3812
g18
I00
sg19
(lp3813
sg21
I00
sg22
Nsg23
I00
sg24
S'L'
sbsg25
(irule
ConstantPhoneme
p3814
(dp3815
S'p'
Va
sbsg28
(irule
Guard
p3816
(dp3817
g18
I00
sg19
(lp3818
(irule
FeatureMatrix
p3819
(dp3820
g34
(lp3821
sg22
Nsba(irule
FeatureMatrix
p3822
(dp3823
g34
(lp3824
(I00
S'lateral'
p3825
tp3826
a(I01
g3803
tp3827
asg22
Nsbasg21
I00
sg22
Nsg23
I00
sg24
S'R'
sbsg44
(irule
FeatureMatrix
p3828
(dp3829
g34
(lp3830
(I01
g3803
tp3831
asg22
Nsbsg22
Nsba(irule
Rule
p3832
(dp3833
g15
(irule
Guard
p3834
(dp3835
g18
I00
sg19
(lp3836
sg21
I00
sg22
Nsg23
I00
sg24
S'L'
sbsg25
(irule
ConstantPhoneme
p3837
(dp3838
S'p'
Va
sbsg28
(irule
Guard
p3839
(dp3840
g18
I00
sg19
(lp3841
(irule
FeatureMatrix
p3842
(dp3843
g34
(lp3844
(I00
S'vowel'
p3845
tp3846
asg22
Nsba(irule
FeatureMatrix
p3847
(dp3848
g34
(lp3849
(I01
g3803
tp3850
asg22
Nsbasg21
I00
sg22
Nsg23
I00
sg24
S'R'
sbsg44
(irule
FeatureMatrix
p3851
(dp3852
g34
(lp3853
(I01
g3803
tp3854
asg22
Nsbsg22
Nsba(irule
Rule
p3855
(dp3856
g15
(irule
Guard
p3857
(dp3858
g18
I00
sg19
(lp3859
sg21
I00
sg22
Nsg23
I00
sg24
S'L'
sbsg25
(irule
ConstantPhoneme
p3860
(dp3861
S'p'
Va
sbsg28
(irule
Guard
p3862
(dp3863
g18
I00
sg19
(lp3864
(irule
FeatureMatrix
p3865
(dp3866
g34
(lp3867
sg22
Nsba(irule
FeatureMatrix
p3868
(dp3869
g34
(lp3870
(I01
g3803
tp3871
a(I01
S'voice'
p3872
tp3873
asg22
Nsbasg21
I00
sg22
Nsg23
I00
sg24
S'R'
sbsg44
(irule
FeatureMatrix
p3874
(dp3875
g34
(lp3876
(I01
g3803
tp3877
asg22
Nsbsg22
Nsba(irule
Rule
p3878
(dp3879
g15
(irule
Guard
p3880
(dp3881
g18
I00
sg19
(lp3882
sg21
I00
sg22
Nsg23
I00
sg24
S'L'
sbsg25
(irule
ConstantPhoneme
p3883
(dp3884
S'p'
Va
sbsg28
(irule
Guard
p3885
(dp3886
g18
I00
sg19
(lp3887
(irule
FeatureMatrix
p3888
(dp3889
g34
(lp3890
sg22
Nsba(irule
FeatureMatrix
p3891
(dp3892
g34
(lp3893
(I01
g3803
tp3894
a(I01
g3845
tp3895
asg22
Nsbasg21
I00
sg22
Nsg23
I00
sg24
S'R'
sbsg44
(irule
FeatureMatrix
p3896
(dp3897
g34
(lp3898
(I01
g3803
tp3899
asg22
Nsbsg22
Nsba(irule
Rule
p3900
(dp3901
g15
(irule
Guard
p3902
(dp3903
g18
I00
sg19
(lp3904
sg21
I00
sg22
Nsg23
I00
sg24
S'L'
sbsg25
(irule
ConstantPhoneme
p3905
(dp3906
S'p'
Va
sbsg28
(irule
Guard
p3907
(dp3908
g18
I00
sg19
(lp3909
(irule
FeatureMatrix
p3910
(dp3911
g34
(lp3912
(I00
S'low'
p3913
tp3914
asg22
Nsba(irule
FeatureMatrix
p3915
(dp3916
g34
(lp3917
(I01
g3803
tp3918
asg22
Nsbasg21
I00
sg22
Nsg23
I00
sg24
S'R'
sbsg44
(irule
FeatureMatrix
p3919
(dp3920
g34
(lp3921
(I01
g3803
tp3922
asg22
Nsbsg22
Nsba(irule
Rule
p3923
(dp3924
g15
(irule
Guard
p3925
(dp3926
g18
I00
sg19
(lp3927
sg21
I00
sg22
Nsg23
I00
sg24
S'L'
sbsg25
(irule
ConstantPhoneme
p3928
(dp3929
S'p'
Va
sbsg28
(irule
Guard
p3930
(dp3931
g18
I00
sg19
(lp3932
(irule
FeatureMatrix
p3933
(dp3934
g34
(lp3935
sg22
Nsba(irule
FeatureMatrix
p3936
(dp3937
g34
(lp3938
(I00
S'rounded'
p3939
tp3940
a(I01
g3803
tp3941
asg22
Nsbasg21
I00
sg22
Nsg23
I00
sg24
S'R'
sbsg44
(irule
FeatureMatrix
p3942
(dp3943
g34
(lp3944
(I01
g3803
tp3945
asg22
Nsbsg22
Nsba(irule
Rule
p3946
(dp3947
g15
(irule
Guard
p3948
(dp3949
g18
I00
sg19
(lp3950
sg21
I00
sg22
Nsg23
I00
sg24
S'L'
sbsg25
(irule
ConstantPhoneme
p3951
(dp3952
S'p'
Va
sbsg28
(irule
Guard
p3953
(dp3954
g18
I00
sg19
(lp3955
(irule
FeatureMatrix
p3956
(dp3957
g34
(lp3958
sg22
Nsba(irule
FeatureMatrix
p3959
(dp3960
g34
(lp3961
(I01
g3803
tp3962
asg22
Nsbasg21
I00
sg22
Nsg23
I00
sg24
S'R'
sbsg44
(irule
FeatureMatrix
p3963
(dp3964
g34
(lp3965
(I01
g3803
tp3966
a(I00
S'high'
p3967
tp3968
asg22
Nsbsg22
Nsba(irule
Rule
p3969
(dp3970
g15
(irule
Guard
p3971
(dp3972
g18
I00
sg19
(lp3973
sg21
I00
sg22
Nsg23
I00
sg24
S'L'
sbsg25
(irule
ConstantPhoneme
p3974
(dp3975
S'p'
Va
sbsg28
(irule
Guard
p3976
(dp3977
g18
I00
sg19
(lp3978
(irule
FeatureMatrix
p3979
(dp3980
g34
(lp3981
(I00
g3825
tp3982
asg22
Nsba(irule
FeatureMatrix
p3983
(dp3984
g34
(lp3985
(I01
g3803
tp3986
asg22
Nsbasg21
I00
sg22
Nsg23
I00
sg24
S'R'
sbsg44
(irule
FeatureMatrix
p3987
(dp3988
g34
(lp3989
(I01
g3803
tp3990
asg22
Nsbsg22
Nsba(irule
Rule
p3991
(dp3992
g15
(irule
Guard
p3993
(dp3994
g18
I00
sg19
(lp3995
sg21
I00
sg22
Nsg23
I00
sg24
S'L'
sbsg25
(irule
ConstantPhoneme
p3996
(dp3997
S'p'
Va
sbsg28
(irule
Guard
p3998
(dp3999
g18
I00
sg19
(lp4000
(irule
FeatureMatrix
p4001
(dp4002
g34
(lp4003
sg22
Nsba(irule
FeatureMatrix
p4004
(dp4005
g34
(lp4006
(I00
S'anterior'
p4007
tp4008
a(I01
g3803
tp4009
asg22
Nsbasg21
I00
sg22
Nsg23
I00
sg24
S'R'
sbsg44
(irule
FeatureMatrix
p4010
(dp4011
g34
(lp4012
(I01
g3803
tp4013
asg22
Nsbsg22
Nsba(irule
Rule
p4014
(dp4015
g15
(irule
Guard
p4016
(dp4017
g18
I00
sg19
(lp4018
sg21
I00
sg22
Nsg23
I00
sg24
S'L'
sbsg25
(irule
ConstantPhoneme
p4019
(dp4020
S'p'
Va
sbsg28
(irule
Guard
p4021
(dp4022
g18
I00
sg19
(lp4023
(irule
FeatureMatrix
p4024
(dp4025
g34
(lp4026
(I00
g3803
tp4027
asg22
Nsba(irule
FeatureMatrix
p4028
(dp4029
g34
(lp4030
(I01
g3803
tp4031
asg22
Nsbasg21
I00
sg22
Nsg23
I00
sg24
S'R'
sbsg44
(irule
FeatureMatrix
p4032
(dp4033
g34
(lp4034
(I01
g3803
tp4035
asg22
Nsbsg22
Nsba(irule
Rule
p4036
(dp4037
g15
(irule
Guard
p4038
(dp4039
g18
I00
sg19
(lp4040
sg21
I00
sg22
Nsg23
I00
sg24
S'L'
sbsg25
(irule
ConstantPhoneme
p4041
(dp4042
S'p'
Va
sbsg28
(irule
Guard
p4043
(dp4044
g18
I00
sg19
(lp4045
(irule
FeatureMatrix
p4046
(dp4047
g34
(lp4048
(I00
S'tense'
p4049
tp4050
asg22
Nsba(irule
FeatureMatrix
p4051
(dp4052
g34
(lp4053
(I01
g3803
tp4054
asg22
Nsbasg21
I00
sg22
Nsg23
I00
sg24
S'R'
sbsg44
(irule
FeatureMatrix
p4055
(dp4056
g34
(lp4057
(I01
g3803
tp4058
asg22
Nsbsg22
Nsba(irule
Rule
p4059
(dp4060
g15
(irule
Guard
p4061
(dp4062
g18
I00
sg19
(lp4063
sg21
I00
sg22
Nsg23
I00
sg24
S'L'
sbsg25
(irule
ConstantPhoneme
p4064
(dp4065
S'p'
Va
sbsg28
(irule
Guard
p4066
(dp4067
g18
I00
sg19
(lp4068
(irule
FeatureMatrix
p4069
(dp4070
g34
(lp4071
sg22
Nsba(irule
FeatureMatrix
p4072
(dp4073
g34
(lp4074
(I01
S'continuant'
p4075
tp4076
a(I01
g3803
tp4077
asg22
Nsbasg21
I00
sg22
Nsg23
I00
sg24
S'R'
sbsg44
(irule
FeatureMatrix
p4078
(dp4079
g34
(lp4080
(I01
g3803
tp4081
asg22
Nsbsg22
Nsba(irule
Rule
p4082
(dp4083
g15
(irule
Guard
p4084
(dp4085
g18
I00
sg19
(lp4086
sg21
I00
sg22
Nsg23
I00
sg24
S'L'
sbsg25
(irule
ConstantPhoneme
p4087
(dp4088
S'p'
Va
sbsg28
(irule
Guard
p4089
(dp4090
g18
I00
sg19
(lp4091
(irule
FeatureMatrix
p4092
(dp4093
g34
(lp4094
sg22
Nsba(irule
FeatureMatrix
p4095
(dp4096
g34
(lp4097
(I01
g3803
tp4098
asg22
Nsbasg21
I00
sg22
Nsg23
I00
sg24
S'R'
sbsg44
(irule
FeatureMatrix
p4099
(dp4100
g34
(lp4101
(I01
g3803
tp4102
a(I01
g3845
tp4103
asg22
Nsbsg22
Nsba(irule
Rule
p4104
(dp4105
g15
(irule
Guard
p4106
(dp4107
g18
I00
sg19
(lp4108
sg21
I00
sg22
Nsg23
I00
sg24
S'L'
sbsg25
(irule
ConstantPhoneme
p4109
(dp4110
S'p'
Va
sbsg28
(irule
Guard
p4111
(dp4112
g18
I00
sg19
(lp4113
(irule
FeatureMatrix
p4114
(dp4115
g34
(lp4116
sg22
Nsba(irule
FeatureMatrix
p4117
(dp4118
g34
(lp4119
(I01
g3803
tp4120
a(I01
g4049
tp4121
asg22
Nsbasg21
I00
sg22
Nsg23
I00
sg24
S'R'
sbsg44
(irule
FeatureMatrix
p4122
(dp4123
g34
(lp4124
(I01
g3803
tp4125
asg22
Nsbsg22
Nsba(irule
Rule
p4126
(dp4127
g15
(irule
Guard
p4128
(dp4129
g18
I00
sg19
(lp4130
sg21
I00
sg22
Nsg23
I00
sg24
S'L'
sbsg25
(irule
ConstantPhoneme
p4131
(dp4132
S'p'
Va
sbsg28
(irule
Guard
p4133
(dp4134
g18
I00
sg19
(lp4135
(irule
FeatureMatrix
p4136
(dp4137
g34
(lp4138
sg22
Nsba(irule
FeatureMatrix
p4139
(dp4140
g34
(lp4141
(I01
g3803
tp4142
asg22
Nsbasg21
I00
sg22
Nsg23
I00
sg24
S'R'
sbsg44
(irule
FeatureMatrix
p4143
(dp4144
g34
(lp4145
(I01
g3803
tp4146
a(I00
S'coronal'
p4147
tp4148
asg22
Nsbsg22
Nsba(irule
Rule
p4149
(dp4150
g15
(irule
Guard
p4151
(dp4152
g18
I00
sg19
(lp4153
sg21
I00
sg22
Nsg23
I00
sg24
S'L'
sbsg25
(irule
ConstantPhoneme
p4154
(dp4155
S'p'
Va
sbsg28
(irule
Guard
p4156
(dp4157
g18
I00
sg19
(lp4158
(irule
FeatureMatrix
p4159
(dp4160
g34
(lp4161
sg22
Nsba(irule
FeatureMatrix
p4162
(dp4163
g34
(lp4164
(I01
g3803
tp4165
asg22
Nsbasg21
I00
sg22
Nsg23
I00
sg24
S'R'
sbsg44
(irule
FeatureMatrix
p4166
(dp4167
g34
(lp4168
(I00
g3825
tp4169
a(I01
g3803
tp4170
asg22
Nsbsg22
Nsba(irule
Rule
p4171
(dp4172
g15
(irule
Guard
p4173
(dp4174
g18
I00
sg19
(lp4175
sg21
I00
sg22
Nsg23
I00
sg24
S'L'
sbsg25
(irule
ConstantPhoneme
p4176
(dp4177
S'p'
Va
sbsg28
(irule
Guard
p4178
(dp4179
g18
I00
sg19
(lp4180
(irule
FeatureMatrix
p4181
(dp4182
g34
(lp4183
sg22
Nsba(irule
FeatureMatrix
p4184
(dp4185
g34
(lp4186
(I01
g3803
tp4187
asg22
Nsbasg21
I00
sg22
Nsg23
I00
sg24
S'R'
sbsg44
(irule
FeatureMatrix
p4188
(dp4189
g34
(lp4190
(I01
g3803
tp4191
a(I01
S'sonorant'
p4192
tp4193
asg22
Nsbsg22
Nsba(irule
Rule
p4194
(dp4195
g15
(irule
Guard
p4196
(dp4197
g18
I00
sg19
(lp4198
sg21
I00
sg22
Nsg23
I00
sg24
S'L'
sbsg25
(irule
ConstantPhoneme
p4199
(dp4200
S'p'
Va
sbsg28
(irule
Guard
p4201
(dp4202
g18
I00
sg19
(lp4203
(irule
FeatureMatrix
p4204
(dp4205
g34
(lp4206
sg22
Nsba(irule
FeatureMatrix
p4207
(dp4208
g34
(lp4209
(I01
g3803
tp4210
asg22
Nsbasg21
I00
sg22
Nsg23
I00
sg24
S'R'
sbsg44
(irule
FeatureMatrix
p4211
(dp4212
g34
(lp4213
(I01
g3803
tp4214
a(I01
g3872
tp4215
asg22
Nsbsg22
Nsba(irule
Rule
p4216
(dp4217
g15
(irule
Guard
p4218
(dp4219
g18
I00
sg19
(lp4220
sg21
I00
sg22
Nsg23
I00
sg24
S'L'
sbsg25
(irule
ConstantPhoneme
p4221
(dp4222
S'p'
Va
sbsg28
(irule
Guard
p4223
(dp4224
g18
I00
sg19
(lp4225
(irule
FeatureMatrix
p4226
(dp4227
g34
(lp4228
sg22
Nsba(irule
FeatureMatrix
p4229
(dp4230
g34
(lp4231
(I01
g3803
tp4232
asg22
Nsbasg21
I00
sg22
Nsg23
I00
sg24
S'R'
sbsg44
(irule
FeatureMatrix
p4233
(dp4234
g34
(lp4235
(I01
g3803
tp4236
a(I01
g4049
tp4237
asg22
Nsbsg22
Nsba(irule
Rule
p4238
(dp4239
g15
(irule
Guard
p4240
(dp4241
g18
I00
sg19
(lp4242
sg21
I00
sg22
Nsg23
I00
sg24
S'L'
sbsg25
(irule
ConstantPhoneme
p4243
(dp4244
S'p'
Va
sbsg28
(irule
Guard
p4245
(dp4246
g18
I00
sg19
(lp4247
(irule
FeatureMatrix
p4248
(dp4249
g34
(lp4250
sg22
Nsba(irule
FeatureMatrix
p4251
(dp4252
g34
(lp4253
(I01
g3803
tp4254
asg22
Nsbasg21
I00
sg22
Nsg23
I00
sg24
S'R'
sbsg44
(irule
FeatureMatrix
p4255
(dp4256
g34
(lp4257
(I00
S'nasal'
p4258
tp4259
a(I01
g3803
tp4260
asg22
Nsbsg22
Nsba(irule
Rule
p4261
(dp4262
g15
(irule
Guard
p4263
(dp4264
g18
I00
sg19
(lp4265
sg21
I00
sg22
Nsg23
I00
sg24
S'L'
sbsg25
(irule
ConstantPhoneme
p4266
(dp4267
S'p'
Va
sbsg28
(irule
Guard
p4268
(dp4269
g18
I00
sg19
(lp4270
(irule
FeatureMatrix
p4271
(dp4272
g34
(lp4273
sg22
Nsba(irule
FeatureMatrix
p4274
(dp4275
g34
(lp4276
(I01
g3803
tp4277
a(I00
g4147
tp4278
asg22
Nsbasg21
I00
sg22
Nsg23
I00
sg24
S'R'
sbsg44
(irule
FeatureMatrix
p4279
(dp4280
g34
(lp4281
(I01
g3803
tp4282
asg22
Nsbsg22
Nsba(irule
Rule
p4283
(dp4284
g15
(irule
Guard
p4285
(dp4286
g18
I00
sg19
(lp4287
sg21
I00
sg22
Nsg23
I00
sg24
S'L'
sbsg25
(irule
ConstantPhoneme
p4288
(dp4289
S'p'
Va
sbsg28
(irule
Guard
p4290
(dp4291
g18
I00
sg19
(lp4292
(irule
FeatureMatrix
p4293
(dp4294
g34
(lp4295
sg22
Nsba(irule
FeatureMatrix
p4296
(dp4297
g34
(lp4298
(I01
g3803
tp4299
asg22
Nsbasg21
I00
sg22
Nsg23
I00
sg24
S'R'
sbsg44
(irule
FeatureMatrix
p4300
(dp4301
g34
(lp4302
(I00
g4007
tp4303
a(I00
g3967
tp4304
asg22
Nsbsg22
Nsba(irule
Rule
p4305
(dp4306
g15
(irule
Guard
p4307
(dp4308
g18
I00
sg19
(lp4309
sg21
I00
sg22
Nsg23
I00
sg24
S'L'
sbsg25
(irule
ConstantPhoneme
p4310
(dp4311
S'p'
Va
sbsg28
(irule
Guard
p4312
(dp4313
g18
I00
sg19
(lp4314
(irule
FeatureMatrix
p4315
(dp4316
g34
(lp4317
sg22
Nsba(irule
FeatureMatrix
p4318
(dp4319
g34
(lp4320
(I00
g4258
tp4321
a(I01
g3803
tp4322
asg22
Nsbasg21
I00
sg22
Nsg23
I00
sg24
S'R'
sbsg44
(irule
FeatureMatrix
p4323
(dp4324
g34
(lp4325
(I01
g3803
tp4326
asg22
Nsbsg22
Nsba(irule
Rule
p4327
(dp4328
g15
(irule
Guard
p4329
(dp4330
g18
I00
sg19
(lp4331
sg21
I00
sg22
Nsg23
I00
sg24
S'L'
sbsg25
(irule
ConstantPhoneme
p4332
(dp4333
S'p'
Va
sbsg28
(irule
Guard
p4334
(dp4335
g18
I00
sg19
(lp4336
(irule
FeatureMatrix
p4337
(dp4338
g34
(lp4339
sg22
Nsba(irule
FeatureMatrix
p4340
(dp4341
g34
(lp4342
(I01
g3803
tp4343
asg22
Nsbasg21
I00
sg22
Nsg23
I00
sg24
S'R'
sbsg44
(irule
FeatureMatrix
p4344
(dp4345
g34
(lp4346
(I00
g3967
tp4347
a(I01
g4049
tp4348
asg22
Nsbsg22
Nsba(irule
Rule
p4349
(dp4350
g15
(irule
Guard
p4351
(dp4352
g18
I00
sg19
(lp4353
sg21
I00
sg22
Nsg23
I00
sg24
S'L'
sbsg25
(irule
ConstantPhoneme
p4354
(dp4355
S'p'
Va
sbsg28
(irule
Guard
p4356
(dp4357
g18
I00
sg19
(lp4358
(irule
FeatureMatrix
p4359
(dp4360
g34
(lp4361
sg22
Nsba(irule
FeatureMatrix
p4362
(dp4363
g34
(lp4364
(I00
S'liquid'
p4365
tp4366
a(I01
g3803
tp4367
asg22
Nsbasg21
I00
sg22
Nsg23
I00
sg24
S'R'
sbsg44
(irule
FeatureMatrix
p4368
(dp4369
g34
(lp4370
(I01
g3803
tp4371
asg22
Nsbsg22
Nsba(irule
Rule
p4372
(dp4373
g15
(irule
Guard
p4374
(dp4375
g18
I00
sg19
(lp4376
sg21
I00
sg22
Nsg23
I00
sg24
S'L'
sbsg25
(irule
ConstantPhoneme
p4377
(dp4378
S'p'
Va
sbsg28
(irule
Guard
p4379
(dp4380
g18
I00
sg19
(lp4381
(irule
FeatureMatrix
p4382
(dp4383
g34
(lp4384
sg22
Nsba(irule
FeatureMatrix
p4385
(dp4386
g34
(lp4387
(I01
g3803
tp4388
a(I01
g4192
tp4389
asg22
Nsbasg21
I00
sg22
Nsg23
I00
sg24
S'R'
sbsg44
(irule
FeatureMatrix
p4390
(dp4391
g34
(lp4392
(I01
g3803
tp4393
asg22
Nsbsg22
Nsba(irule
Rule
p4394
(dp4395
g15
(irule
Guard
p4396
(dp4397
g18
I00
sg19
(lp4398
sg21
I00
sg22
Nsg23
I00
sg24
S'L'
sbsg25
(irule
ConstantPhoneme
p4399
(dp4400
S'p'
Va
sbsg28
(irule
Guard
p4401
(dp4402
g18
I00
sg19
(lp4403
(irule
FeatureMatrix
p4404
(dp4405
g34
(lp4406
sg22
Nsba(irule
FeatureMatrix
p4407
(dp4408
g34
(lp4409
(I01
g3803
tp4410
asg22
Nsbasg21
I00
sg22
Nsg23
I00
sg24
S'R'
sbsg44
(irule
FeatureMatrix
p4411
(dp4412
g34
(lp4413
(I00
g4258
tp4414
a(I00
g3967
tp4415
asg22
Nsbsg22
Nsba(irule
Rule
p4416
(dp4417
g15
(irule
Guard
p4418
(dp4419
g18
I00
sg19
(lp4420
sg21
I00
sg22
Nsg23
I00
sg24
S'L'
sbsg25
(irule
ConstantPhoneme
p4421
(dp4422
S'p'
Va
sbsg28
(irule
Guard
p4423
(dp4424
g18
I00
sg19
(lp4425
(irule
FeatureMatrix
p4426
(dp4427
g34
(lp4428
(I00
g4365
tp4429
asg22
Nsba(irule
FeatureMatrix
p4430
(dp4431
g34
(lp4432
(I01
g3803
tp4433
asg22
Nsbasg21
I00
sg22
Nsg23
I00
sg24
S'R'
sbsg44
(irule
FeatureMatrix
p4434
(dp4435
g34
(lp4436
(I01
g3803
tp4437
asg22
Nsbsg22
Nsba(irule
Rule
p4438
(dp4439
g15
(irule
Guard
p4440
(dp4441
g18
I00
sg19
(lp4442
sg21
I00
sg22
Nsg23
I00
sg24
S'L'
sbsg25
(irule
ConstantPhoneme
p4443
(dp4444
S'p'
Va
sbsg28
(irule
Guard
p4445
(dp4446
g18
I00
sg19
(lp4447
(irule
FeatureMatrix
p4448
(dp4449
g34
(lp4450
(I00
g3939
tp4451
asg22
Nsba(irule
FeatureMatrix
p4452
(dp4453
g34
(lp4454
(I01
g3803
tp4455
asg22
Nsbasg21
I00
sg22
Nsg23
I00
sg24
S'R'
sbsg44
(irule
FeatureMatrix
p4456
(dp4457
g34
(lp4458
(I01
g3803
tp4459
asg22
Nsbsg22
Nsba(irule
Rule
p4460
(dp4461
g15
(irule
Guard
p4462
(dp4463
g18
I00
sg19
(lp4464
sg21
I00
sg22
Nsg23
I00
sg24
S'L'
sbsg25
(irule
ConstantPhoneme
p4465
(dp4466
S'p'
Va
sbsg28
(irule
Guard
p4467
(dp4468
g18
I00
sg19
(lp4469
(irule
FeatureMatrix
p4470
(dp4471
g34
(lp4472
sg22
Nsba(irule
FeatureMatrix
p4473
(dp4474
g34
(lp4475
(I01
g3803
tp4476
asg22
Nsbasg21
I00
sg22
Nsg23
I00
sg24
S'R'
sbsg44
(irule
FeatureMatrix
p4477
(dp4478
g34
(lp4479
(I00
g4365
tp4480
a(I01
g3803
tp4481
asg22
Nsbsg22
Nsba(irule
Rule
p4482
(dp4483
g15
(irule
Guard
p4484
(dp4485
g18
I00
sg19
(lp4486
sg21
I00
sg22
Nsg23
I00
sg24
S'L'
sbsg25
(irule
ConstantPhoneme
p4487
(dp4488
S'p'
Va
sbsg28
(irule
Guard
p4489
(dp4490
g18
I00
sg19
(lp4491
(irule
FeatureMatrix
p4492
(dp4493
g34
(lp4494
sg22
Nsba(irule
FeatureMatrix
p4495
(dp4496
g34
(lp4497
(I01
g3803
tp4498
asg22
Nsbasg21
I00
sg22
Nsg23
I00
sg24
S'R'
sbsg44
(irule
FeatureMatrix
p4499
(dp4500
g34
(lp4501
(I01
g4075
tp4502
a(I01
g3803
tp4503
asg22
Nsbsg22
Nsba(irule
Rule
p4504
(dp4505
g15
(irule
Guard
p4506
(dp4507
g18
I00
sg19
(lp4508
sg21
I00
sg22
Nsg23
I00
sg24
S'L'
sbsg25
(irule
ConstantPhoneme
p4509
(dp4510
S'p'
Va
sbsg28
(irule
Guard
p4511
(dp4512
g18
I00
sg19
(lp4513
(irule
FeatureMatrix
p4514
(dp4515
g34
(lp4516
sg22
Nsba(irule
FeatureMatrix
p4517
(dp4518
g34
(lp4519
(I01
g3803
tp4520
asg22
Nsbasg21
I00
sg22
Nsg23
I00
sg24
S'R'
sbsg44
(irule
FeatureMatrix
p4521
(dp4522
g34
(lp4523
(I00
g3967
tp4524
a(I01
g3845
tp4525
asg22
Nsbsg22
Nsba(irule
Rule
p4526
(dp4527
g15
(irule
Guard
p4528
(dp4529
g18
I00
sg19
(lp4530
sg21
I00
sg22
Nsg23
I00
sg24
S'L'
sbsg25
(irule
ConstantPhoneme
p4531
(dp4532
S'p'
Va
sbsg28
(irule
Guard
p4533
(dp4534
g18
I00
sg19
(lp4535
(irule
FeatureMatrix
p4536
(dp4537
g34
(lp4538
sg22
Nsba(irule
FeatureMatrix
p4539
(dp4540
g34
(lp4541
(I01
g3803
tp4542
asg22
Nsbasg21
I00
sg22
Nsg23
I00
sg24
S'R'
sbsg44
(irule
FeatureMatrix
p4543
(dp4544
g34
(lp4545
(I00
g4007
tp4546
a(I01
g3803
tp4547
asg22
Nsbsg22
Nsba(irule
Rule
p4548
(dp4549
g15
(irule
Guard
p4550
(dp4551
g18
I00
sg19
(lp4552
sg21
I00
sg22
Nsg23
I00
sg24
S'L'
sbsg25
(irule
ConstantPhoneme
p4553
(dp4554
S'p'
Va
sbsg28
(irule
Guard
p4555
(dp4556
g18
I00
sg19
(lp4557
(irule
FeatureMatrix
p4558
(dp4559
g34
(lp4560
sg22
Nsba(irule
FeatureMatrix
p4561
(dp4562
g34
(lp4563
(I01
g3803
tp4564
asg22
Nsbasg21
I00
sg22
Nsg23
I00
sg24
S'R'
sbsg44
(irule
FeatureMatrix
p4565
(dp4566
g34
(lp4567
(I01
g4075
tp4568
a(I00
g3967
tp4569
asg22
Nsbsg22
Nsba(irule
Rule
p4570
(dp4571
g15
(irule
Guard
p4572
(dp4573
g18
I00
sg19
(lp4574
sg21
I00
sg22
Nsg23
I00
sg24
S'L'
sbsg25
(irule
ConstantPhoneme
p4575
(dp4576
S'p'
Va
sbsg28
(irule
Guard
p4577
(dp4578
g18
I00
sg19
(lp4579
(irule
FeatureMatrix
p4580
(dp4581
g34
(lp4582
sg22
Nsba(irule
FeatureMatrix
p4583
(dp4584
g34
(lp4585
(I01
g3803
tp4586
a(I01
g3845
tp4587
asg22
Nsbasg21
I00
sg22
Nsg23
I01
sg24
S'R'
sbsg44
(irule
FeatureMatrix
p4588
(dp4589
g34
(lp4590
(I01
g3803
tp4591
asg22
Nsbsg22
Nsba(irule
Rule
p4592
(dp4593
g15
(irule
Guard
p4594
(dp4595
g18
I00
sg19
(lp4596
sg21
I00
sg22
Nsg23
I00
sg24
S'L'
sbsg25
(irule
ConstantPhoneme
p4597
(dp4598
S'p'
Va
sbsg28
(irule
Guard
p4599
(dp4600
g18
I00
sg19
(lp4601
(irule
FeatureMatrix
p4602
(dp4603
g34
(lp4604
sg22
Nsba(irule
FeatureMatrix
p4605
(dp4606
g34
(lp4607
(I01
g3803
tp4608
asg22
Nsbasg21
I01
sg22
Nsg23
I00
sg24
S'R'
sbsg44
(irule
FeatureMatrix
p4609
(dp4610
g34
(lp4611
(I01
g3803
tp4612
asg22
Nsbsg22
Nsba(irule
Rule
p4613
(dp4614
g15
(irule
Guard
p4615
(dp4616
g18
I00
sg19
(lp4617
sg21
I00
sg22
Nsg23
I00
sg24
S'L'
sbsg25
(irule
ConstantPhoneme
p4618
(dp4619
S'p'
Va
sbsg28
(irule
Guard
p4620
(dp4621
g18
I00
sg19
(lp4622
(irule
FeatureMatrix
p4623
(dp4624
g34
(lp4625
sg22
Nsba(irule
FeatureMatrix
p4626
(dp4627
g34
(lp4628
(I01
g3803
tp4629
a(I01
g3872
tp4630
asg22
Nsbasg21
I00
sg22
Nsg23
I01
sg24
S'R'
sbsg44
(irule
FeatureMatrix
p4631
(dp4632
g34
(lp4633
(I01
g3803
tp4634
asg22
Nsbsg22
Nsba(irule
Rule
p4635
(dp4636
g15
(irule
Guard
p4637
(dp4638
g18
I00
sg19
(lp4639
sg21
I00
sg22
Nsg23
I00
sg24
S'L'
sbsg25
(irule
ConstantPhoneme
p4640
(dp4641
S'p'
Va
sbsg28
(irule
Guard
p4642
(dp4643
g18
I00
sg19
(lp4644
(irule
FeatureMatrix
p4645
(dp4646
g34
(lp4647
(I00
g3913
tp4648
asg22
Nsba(irule
FeatureMatrix
p4649
(dp4650
g34
(lp4651
(I01
g3803
tp4652
asg22
Nsbasg21
I00
sg22
Nsg23
I01
sg24
S'R'
sbsg44
(irule
FeatureMatrix
p4653
(dp4654
g34
(lp4655
(I01
g3803
tp4656
asg22
Nsbsg22
Nsba(irule
Rule
p4657
(dp4658
g15
(irule
Guard
p4659
(dp4660
g18
I00
sg19
(lp4661
sg21
I00
sg22
Nsg23
I00
sg24
S'L'
sbsg25
(irule
ConstantPhoneme
p4662
(dp4663
S'p'
Va
sbsg28
(irule
Guard
p4664
(dp4665
g18
I00
sg19
(lp4666
(irule
FeatureMatrix
p4667
(dp4668
g34
(lp4669
(I00
g3825
tp4670
asg22
Nsba(irule
FeatureMatrix
p4671
(dp4672
g34
(lp4673
(I01
g3803
tp4674
asg22
Nsbasg21
I00
sg22
Nsg23
I01
sg24
S'R'
sbsg44
(irule
FeatureMatrix
p4675
(dp4676
g34
(lp4677
(I01
g3803
tp4678
asg22
Nsbsg22
Nsba(irule
Rule
p4679
(dp4680
g15
(irule
Guard
p4681
(dp4682
g18
I00
sg19
(lp4683
sg21
I00
sg22
Nsg23
I00
sg24
S'L'
sbsg25
(irule
ConstantPhoneme
p4684
(dp4685
S'p'
Va
sbsg28
(irule
Guard
p4686
(dp4687
g18
I00
sg19
(lp4688
(irule
FeatureMatrix
p4689
(dp4690
g34
(lp4691
sg22
Nsba(irule
FeatureMatrix
p4692
(dp4693
g34
(lp4694
(I00
g3825
tp4695
a(I01
g3803
tp4696
asg22
Nsbasg21
I00
sg22
Nsg23
I01
sg24
S'R'
sbsg44
(irule
FeatureMatrix
p4697
(dp4698
g34
(lp4699
(I01
g3803
tp4700
asg22
Nsbsg22
Nsba(irule
Rule
p4701
(dp4702
g15
(irule
Guard
p4703
(dp4704
g18
I00
sg19
(lp4705
sg21
I00
sg22
Nsg23
I00
sg24
S'L'
sbsg25
(irule
ConstantPhoneme
p4706
(dp4707
S'p'
Va
sbsg28
(irule
Guard
p4708
(dp4709
g18
I00
sg19
(lp4710
(irule
FeatureMatrix
p4711
(dp4712
g34
(lp4713
(I00
g3845
tp4714
asg22
Nsba(irule
FeatureMatrix
p4715
(dp4716
g34
(lp4717
(I01
g3803
tp4718
asg22
Nsbasg21
I00
sg22
Nsg23
I01
sg24
S'R'
sbsg44
(irule
FeatureMatrix
p4719
(dp4720
g34
(lp4721
(I01
g3803
tp4722
asg22
Nsbsg22
Nsba(irule
Rule
p4723
(dp4724
g15
(irule
Guard
p4725
(dp4726
g18
I00
sg19
(lp4727
sg21
I00
sg22
Nsg23
I00
sg24
S'L'
sbsg25
(irule
ConstantPhoneme
p4728
(dp4729
S'p'
Va
sbsg28
(irule
Guard
p4730
(dp4731
g18
I00
sg19
(lp4732
(irule
FeatureMatrix
p4733
(dp4734
g34
(lp4735
sg22
Nsba(irule
FeatureMatrix
p4736
(dp4737
g34
(lp4738
(I01
g3803
tp4739
asg22
Nsbasg21
I00
sg22
Nsg23
I01
sg24
S'R'
sbsg44
(irule
FeatureMatrix
p4740
(dp4741
g34
(lp4742
(I01
g3803
tp4743
a(I00
g3967
tp4744
asg22
Nsbsg22
Nsba(irule
Rule
p4745
(dp4746
g15
(irule
Guard
p4747
(dp4748
g18
I00
sg19
(lp4749
sg21
I00
sg22
Nsg23
I00
sg24
S'L'
sbsg25
(irule
ConstantPhoneme
p4750
(dp4751
S'p'
Va
sbsg28
(irule
Guard
p4752
(dp4753
g18
I00
sg19
(lp4754
(irule
FeatureMatrix
p4755
(dp4756
g34
(lp4757
(I00
g4049
tp4758
asg22
Nsba(irule
FeatureMatrix
p4759
(dp4760
g34
(lp4761
(I01
g3803
tp4762
asg22
Nsbasg21
I00
sg22
Nsg23
I01
sg24
S'R'
sbsg44
(irule
FeatureMatrix
p4763
(dp4764
g34
(lp4765
(I01
g3803
tp4766
asg22
Nsbsg22
Nsba(irule
Rule
p4767
(dp4768
g15
(irule
Guard
p4769
(dp4770
g18
I00
sg19
(lp4771
sg21
I00
sg22
Nsg23
I00
sg24
S'L'
sbsg25
(irule
ConstantPhoneme
p4772
(dp4773
S'p'
Va
sbsg28
(irule
Guard
p4774
(dp4775
g18
I00
sg19
(lp4776
(irule
FeatureMatrix
p4777
(dp4778
g34
(lp4779
sg22
Nsba(irule
FeatureMatrix
p4780
(dp4781
g34
(lp4782
(I01
g3803
tp4783
asg22
Nsbasg21
I00
sg22
Nsg23
I01
sg24
S'R'
sbsg44
(irule
FeatureMatrix
p4784
(dp4785
g34
(lp4786
(I00
g4007
tp4787
a(I01
g3803
tp4788
asg22
Nsbsg22
Nsba(irule
Rule
p4789
(dp4790
g15
(irule
Guard
p4791
(dp4792
g18
I00
sg19
(lp4793
sg21
I00
sg22
Nsg23
I00
sg24
S'L'
sbsg25
(irule
ConstantPhoneme
p4794
(dp4795
S'p'
Va
sbsg28
(irule
Guard
p4796
(dp4797
g18
I00
sg19
(lp4798
(irule
FeatureMatrix
p4799
(dp4800
g34
(lp4801
sg22
Nsba(irule
FeatureMatrix
p4802
(dp4803
g34
(lp4804
(I00
g4007
tp4805
a(I00
g4365
tp4806
a(I01
g3803
tp4807
asg22
Nsbasg21
I00
sg22
Nsg23
I00
sg24
S'R'
sbsg44
(irule
FeatureMatrix
p4808
(dp4809
g34
(lp4810
(I01
g3803
tp4811
asg22
Nsbsg22
Nsba(irule
Rule
p4812
(dp4813
g15
(irule
Guard
p4814
(dp4815
g18
I00
sg19
(lp4816
sg21
I00
sg22
Nsg23
I00
sg24
S'L'
sbsg25
(irule
ConstantPhoneme
p4817
(dp4818
S'p'
Va
sbsg28
(irule
Guard
p4819
(dp4820
g18
I00
sg19
(lp4821
(irule
FeatureMatrix
p4822
(dp4823
g34
(lp4824
sg22
Nsba(irule
FeatureMatrix
p4825
(dp4826
g34
(lp4827
(I01
g3803
tp4828
asg22
Nsbasg21
I00
sg22
Nsg23
I01
sg24
S'R'
sbsg44
(irule
FeatureMatrix
p4829
(dp4830
g34
(lp4831
(I00
g3825
tp4832
a(I01
g3803
tp4833
asg22
Nsbsg22
Nsba(irule
Rule
p4834
(dp4835
g15
(irule
Guard
p4836
(dp4837
g18
I00
sg19
(lp4838
sg21
I00
sg22
Nsg23
I00
sg24
S'L'
sbsg25
(irule
ConstantPhoneme
p4839
(dp4840
S'p'
Va
sbsg28
(irule
Guard
p4841
(dp4842
g18
I00
sg19
(lp4843
(irule
FeatureMatrix
p4844
(dp4845
g34
(lp4846
sg22
Nsba(irule
FeatureMatrix
p4847
(dp4848
g34
(lp4849
(I01
g3803
tp4850
asg22
Nsbasg21
I00
sg22
Nsg23
I01
sg24
S'R'
sbsg44
(irule
FeatureMatrix
p4851
(dp4852
g34
(lp4853
(I00
g4258
tp4854
a(I01
g3803
tp4855
asg22
Nsbsg22
Nsba(irule
Rule
p4856
(dp4857
g15
(irule
Guard
p4858
(dp4859
g18
I00
sg19
(lp4860
sg21
I00
sg22
Nsg23
I00
sg24
S'L'
sbsg25
(irule
ConstantPhoneme
p4861
(dp4862
S'p'
Va
sbsg28
(irule
Guard
p4863
(dp4864
g18
I00
sg19
(lp4865
(irule
FeatureMatrix
p4866
(dp4867
g34
(lp4868
sg22
Nsba(irule
FeatureMatrix
p4869
(dp4870
g34
(lp4871
(I00
g3939
tp4872
a(I01
g3803
tp4873
asg22
Nsbasg21
I00
sg22
Nsg23
I01
sg24
S'R'
sbsg44
(irule
FeatureMatrix
p4874
(dp4875
g34
(lp4876
(I01
g3803
tp4877
asg22
Nsbsg22
Nsba(irule
Rule
p4878
(dp4879
g15
(irule
Guard
p4880
(dp4881
g18
I00
sg19
(lp4882
sg21
I00
sg22
Nsg23
I00
sg24
S'L'
sbsg25
(irule
ConstantPhoneme
p4883
(dp4884
S'p'
Va
sbsg28
(irule
Guard
p4885
(dp4886
g18
I00
sg19
(lp4887
(irule
FeatureMatrix
p4888
(dp4889
g34
(lp4890
sg22
Nsba(irule
FeatureMatrix
p4891
(dp4892
g34
(lp4893
(I00
g4258
tp4894
a(I01
g3803
tp4895
asg22
Nsbasg21
I00
sg22
Nsg23
I01
sg24
S'R'
sbsg44
(irule
FeatureMatrix
p4896
(dp4897
g34
(lp4898
(I01
g3803
tp4899
asg22
Nsbsg22
Nsba(irule
Rule
p4900
(dp4901
g15
(irule
Guard
p4902
(dp4903
g18
I00
sg19
(lp4904
sg21
I00
sg22
Nsg23
I00
sg24
S'L'
sbsg25
(irule
ConstantPhoneme
p4905
(dp4906
S'p'
Va
sbsg28
(irule
Guard
p4907
(dp4908
g18
I00
sg19
(lp4909
(irule
FeatureMatrix
p4910
(dp4911
g34
(lp4912
sg22
Nsba(irule
FeatureMatrix
p4913
(dp4914
g34
(lp4915
(I00
g4007
tp4916
a(I01
g3803
tp4917
asg22
Nsbasg21
I00
sg22
Nsg23
I01
sg24
S'R'
sbsg44
(irule
FeatureMatrix
p4918
(dp4919
g34
(lp4920
(I01
g3803
tp4921
asg22
Nsbsg22
Nsba(irule
Rule
p4922
(dp4923
g15
(irule
Guard
p4924
(dp4925
g18
I00
sg19
(lp4926
sg21
I00
sg22
Nsg23
I00
sg24
S'L'
sbsg25
(irule
ConstantPhoneme
p4927
(dp4928
S'p'
Va
sbsg28
(irule
Guard
p4929
(dp4930
g18
I00
sg19
(lp4931
(irule
FeatureMatrix
p4932
(dp4933
g34
(lp4934
(I00
g3803
tp4935
asg22
Nsba(irule
FeatureMatrix
p4936
(dp4937
g34
(lp4938
(I01
g3803
tp4939
asg22
Nsbasg21
I00
sg22
Nsg23
I01
sg24
S'R'
sbsg44
(irule
FeatureMatrix
p4940
(dp4941
g34
(lp4942
(I01
g3803
tp4943
asg22
Nsbsg22
Nsba(irule
Rule
p4944
(dp4945
g15
(irule
Guard
p4946
(dp4947
g18
I00
sg19
(lp4948
sg21
I00
sg22
Nsg23
I00
sg24
S'L'
sbsg25
(irule
ConstantPhoneme
p4949
(dp4950
S'p'
Va
sbsg28
(irule
Guard
p4951
(dp4952
g18
I00
sg19
(lp4953
(irule
FeatureMatrix
p4954
(dp4955
g34
(lp4956
sg22
Nsba(irule
FeatureMatrix
p4957
(dp4958
g34
(lp4959
(I00
g4365
tp4960
a(I01
g3803
tp4961
asg22
Nsbasg21
I00
sg22
Nsg23
I01
sg24
S'R'
sbsg44
(irule
FeatureMatrix
p4962
(dp4963
g34
(lp4964
(I01
g3803
tp4965
asg22
Nsbsg22
Nsba(irule
Rule
p4966
(dp4967
g15
(irule
Guard
p4968
(dp4969
g18
I00
sg19
(lp4970
sg21
I00
sg22
Nsg23
I00
sg24
S'L'
sbsg25
(irule
ConstantPhoneme
p4971
(dp4972
S'p'
Va
sbsg28
(irule
Guard
p4973
(dp4974
g18
I00
sg19
(lp4975
(irule
FeatureMatrix
p4976
(dp4977
g34
(lp4978
sg22
Nsba(irule
FeatureMatrix
p4979
(dp4980
g34
(lp4981
(I01
g3803
tp4982
a(I01
g4192
tp4983
a(I01
g4049
tp4984
asg22
Nsbasg21
I00
sg22
Nsg23
I00
sg24
S'R'
sbsg44
(irule
FeatureMatrix
p4985
(dp4986
g34
(lp4987
(I01
g3803
tp4988
asg22
Nsbsg22
Nsba(irule
Rule
p4989
(dp4990
g15
(irule
Guard
p4991
(dp4992
g18
I00
sg19
(lp4993
sg21
I00
sg22
Nsg23
I00
sg24
S'L'
sbsg25
(irule
ConstantPhoneme
p4994
(dp4995
S'p'
Va
sbsg28
(irule
Guard
p4996
(dp4997
g18
I00
sg19
(lp4998
(irule
FeatureMatrix
p4999
(dp5000
g34
(lp5001
sg22
Nsba(irule
FeatureMatrix
p5002
(dp5003
g34
(lp5004
(I01
g3803
tp5005
a(I01
g3872
tp5006
asg22
Nsbasg21
I00
sg22
Nsg23
I00
sg24
S'R'
sbsg44
(irule
FeatureMatrix
p5007
(dp5008
g34
(lp5009
(I00
g3825
tp5010
a(I01
g3803
tp5011
asg22
Nsbsg22
Nsba(irule
Rule
p5012
(dp5013
g15
(irule
Guard
p5014
(dp5015
g18
I00
sg19
(lp5016
sg21
I00
sg22
Nsg23
I00
sg24
S'L'
sbsg25
(irule
ConstantPhoneme
p5017
(dp5018
S'p'
Va
sbsg28
(irule
Guard
p5019
(dp5020
g18
I00
sg19
(lp5021
(irule
FeatureMatrix
p5022
(dp5023
g34
(lp5024
(I00
g3939
tp5025
asg22
Nsba(irule
FeatureMatrix
p5026
(dp5027
g34
(lp5028
(I01
g3803
tp5029
asg22
Nsbasg21
I00
sg22
Nsg23
I01
sg24
S'R'
sbsg44
(irule
FeatureMatrix
p5030
(dp5031
g34
(lp5032
(I01
g3803
tp5033
asg22
Nsbsg22
Nsba(irule
Rule
p5034
(dp5035
g15
(irule
Guard
p5036
(dp5037
g18
I00
sg19
(lp5038
sg21
I00
sg22
Nsg23
I00
sg24
S'L'
sbsg25
(irule
ConstantPhoneme
p5039
(dp5040
S'p'
Va
sbsg28
(irule
Guard
p5041
(dp5042
g18
I00
sg19
(lp5043
(irule
FeatureMatrix
p5044
(dp5045
g34
(lp5046
(I00
g4365
tp5047
asg22
Nsba(irule
FeatureMatrix
p5048
(dp5049
g34
(lp5050
(I01
g3803
tp5051
asg22
Nsbasg21
I00
sg22
Nsg23
I00
sg24
S'R'
sbsg44
(irule
FeatureMatrix
p5052
(dp5053
g34
(lp5054
(I01
g3803
tp5055
a(I00
g4147
tp5056
asg22
Nsbsg22
Nsba(irule
Rule
p5057
(dp5058
g15
(irule
Guard
p5059
(dp5060
g18
I00
sg19
(lp5061
sg21
I00
sg22
Nsg23
I00
sg24
S'L'
sbsg25
(irule
ConstantPhoneme
p5062
(dp5063
S'p'
Va
sbsg28
(irule
Guard
p5064
(dp5065
g18
I00
sg19
(lp5066
(irule
FeatureMatrix
p5067
(dp5068
g34
(lp5069
(I00
g4365
tp5070
asg22
Nsba(irule
FeatureMatrix
p5071
(dp5072
g34
(lp5073
(I01
g3803
tp5074
asg22
Nsbasg21
I00
sg22
Nsg23
I01
sg24
S'R'
sbsg44
(irule
FeatureMatrix
p5075
(dp5076
g34
(lp5077
(I01
g3803
tp5078
asg22
Nsbsg22
Nsba(irule
Rule
p5079
(dp5080
g15
(irule
Guard
p5081
(dp5082
g18
I00
sg19
(lp5083
sg21
I00
sg22
Nsg23
I00
sg24
S'L'
sbsg25
(irule
ConstantPhoneme
p5084
(dp5085
S'p'
Va
sbsg28
(irule
Guard
p5086
(dp5087
g18
I00
sg19
(lp5088
(irule
FeatureMatrix
p5089
(dp5090
g34
(lp5091
sg22
Nsba(irule
FeatureMatrix
p5092
(dp5093
g34
(lp5094
(I01
g3803
tp5095
asg22
Nsbasg21
I00
sg22
Nsg23
I01
sg24
S'R'
sbsg44
(irule
FeatureMatrix
p5096
(dp5097
g34
(lp5098
(I01
g3803
tp5099
a(I01
g3872
tp5100
asg22
Nsbsg22
Nsba(irule
Rule
p5101
(dp5102
g15
(irule
Guard
p5103
(dp5104
g18
I00
sg19
(lp5105
sg21
I00
sg22
Nsg23
I00
sg24
S'L'
sbsg25
(irule
ConstantPhoneme
p5106
(dp5107
S'p'
Va
sbsg28
(irule
Guard
p5108
(dp5109
g18
I00
sg19
(lp5110
(irule
FeatureMatrix
p5111
(dp5112
g34
(lp5113
sg22
Nsba(irule
FeatureMatrix
p5114
(dp5115
g34
(lp5116
(I01
g3803
tp5117
a(I00
g4147
tp5118
asg22
Nsbasg21
I00
sg22
Nsg23
I01
sg24
S'R'
sbsg44
(irule
FeatureMatrix
p5119
(dp5120
g34
(lp5121
(I01
g3803
tp5122
asg22
Nsbsg22
Nsba(irule
Rule
p5123
(dp5124
g15
(irule
Guard
p5125
(dp5126
g18
I00
sg19
(lp5127
sg21
I00
sg22
Nsg23
I00
sg24
S'L'
sbsg25
(irule
ConstantPhoneme
p5128
(dp5129
S'p'
Va
sbsg28
(irule
Guard
p5130
(dp5131
g18
I00
sg19
(lp5132
(irule
FeatureMatrix
p5133
(dp5134
g34
(lp5135
sg22
Nsba(irule
FeatureMatrix
p5136
(dp5137
g34
(lp5138
(I01
g3803
tp5139
a(I01
g4192
tp5140
asg22
Nsbasg21
I00
sg22
Nsg23
I01
sg24
S'R'
sbsg44
(irule
FeatureMatrix
p5141
(dp5142
g34
(lp5143
(I01
g3803
tp5144
asg22
Nsbsg22
Nsba(irule
Rule
p5145
(dp5146
g15
(irule
Guard
p5147
(dp5148
g18
I00
sg19
(lp5149
sg21
I00
sg22
Nsg23
I00
sg24
S'L'
sbsg25
(irule
ConstantPhoneme
p5150
(dp5151
S'p'
Va
sbsg28
(irule
Guard
p5152
(dp5153
g18
I00
sg19
(lp5154
(irule
FeatureMatrix
p5155
(dp5156
g34
(lp5157
sg22
Nsba(irule
FeatureMatrix
p5158
(dp5159
g34
(lp5160
(I01
g3803
tp5161
asg22
Nsbasg21
I00
sg22
Nsg23
I01
sg24
S'R'
sbsg44
(irule
FeatureMatrix
p5162
(dp5163
g34
(lp5164
(I01
g3803
tp5165
a(I01
g3845
tp5166
asg22
Nsbsg22
Nsba(irule
Rule
p5167
(dp5168
g15
(irule
Guard
p5169
(dp5170
g18
I00
sg19
(lp5171
sg21
I00
sg22
Nsg23
I00
sg24
S'L'
sbsg25
(irule
ConstantPhoneme
p5172
(dp5173
S'p'
Va
sbsg28
(irule
Guard
p5174
(dp5175
g18
I00
sg19
(lp5176
(irule
FeatureMatrix
p5177
(dp5178
g34
(lp5179
sg22
Nsba(irule
FeatureMatrix
p5180
(dp5181
g34
(lp5182
(I01
g3803
tp5183
a(I01
g4049
tp5184
asg22
Nsbasg21
I00
sg22
Nsg23
I01
sg24
S'R'
sbsg44
(irule
FeatureMatrix
p5185
(dp5186
g34
(lp5187
(I01
g3803
tp5188
asg22
Nsbsg22
Nsba(irule
Rule
p5189
(dp5190
g15
(irule
Guard
p5191
(dp5192
g18
I00
sg19
(lp5193
sg21
I00
sg22
Nsg23
I00
sg24
S'L'
sbsg25
(irule
ConstantPhoneme
p5194
(dp5195
S'p'
Va
sbsg28
(irule
Guard
p5196
(dp5197
g18
I00
sg19
(lp5198
(irule
FeatureMatrix
p5199
(dp5200
g34
(lp5201
sg22
Nsba(irule
FeatureMatrix
p5202
(dp5203
g34
(lp5204
(I01
g4075
tp5205
a(I01
g3803
tp5206
asg22
Nsbasg21
I00
sg22
Nsg23
I01
sg24
S'R'
sbsg44
(irule
FeatureMatrix
p5207
(dp5208
g34
(lp5209
(I01
g3803
tp5210
asg22
Nsbsg22
Nsba(irule
Rule
p5211
(dp5212
g15
(irule
Guard
p5213
(dp5214
g18
I00
sg19
(lp5215
sg21
I00
sg22
Nsg23
I00
sg24
S'L'
sbsg25
(irule
ConstantPhoneme
p5216
(dp5217
S'p'
Va
sbsg28
(irule
Guard
p5218
(dp5219
g18
I00
sg19
(lp5220
(irule
FeatureMatrix
p5221
(dp5222
g34
(lp5223
(I00
g3913
tp5224
a(I00
g3845
tp5225
asg22
Nsba(irule
FeatureMatrix
p5226
(dp5227
g34
(lp5228
(I01
g3803
tp5229
asg22
Nsbasg21
I00
sg22
Nsg23
I00
sg24
S'R'
sbsg44
(irule
FeatureMatrix
p5230
(dp5231
g34
(lp5232
(I01
g3803
tp5233
asg22
Nsbsg22
Nsba(irule
Rule
p5234
(dp5235
g15
(irule
Guard
p5236
(dp5237
g18
I00
sg19
(lp5238
sg21
I00
sg22
Nsg23
I00
sg24
S'L'
sbsg25
(irule
ConstantPhoneme
p5239
(dp5240
S'p'
Va
sbsg28
(irule
Guard
p5241
(dp5242
g18
I00
sg19
(lp5243
(irule
FeatureMatrix
p5244
(dp5245
g34
(lp5246
(I00
g4365
tp5247
asg22
Nsba(irule
FeatureMatrix
p5248
(dp5249
g34
(lp5250
(I01
g3803
tp5251
a(I01
g3872
tp5252
asg22
Nsbasg21
I00
sg22
Nsg23
I00
sg24
S'R'
sbsg44
(irule
FeatureMatrix
p5253
(dp5254
g34
(lp5255
(I01
g3803
tp5256
asg22
Nsbsg22
Nsba(irule
Rule
p5257
(dp5258
g15
(irule
Guard
p5259
(dp5260
g18
I00
sg19
(lp5261
sg21
I00
sg22
Nsg23
I00
sg24
S'L'
sbsg25
(irule
ConstantPhoneme
p5262
(dp5263
S'p'
Va
sbsg28
(irule
Guard
p5264
(dp5265
g18
I00
sg19
(lp5266
(irule
FeatureMatrix
p5267
(dp5268
g34
(lp5269
sg22
Nsba(irule
FeatureMatrix
p5270
(dp5271
g34
(lp5272
(I01
g3803
tp5273
asg22
Nsbasg21
I00
sg22
Nsg23
I01
sg24
S'R'
sbsg44
(irule
FeatureMatrix
p5274
(dp5275
g34
(lp5276
(I00
g4365
tp5277
a(I01
g3803
tp5278
asg22
Nsbsg22
Nsba(irule
Rule
p5279
(dp5280
g15
(irule
Guard
p5281
(dp5282
g18
I00
sg19
(lp5283
sg21
I00
sg22
Nsg23
I00
sg24
S'L'
sbsg25
(irule
ConstantPhoneme
p5284
(dp5285
S'p'
Va
sbsg28
(irule
Guard
p5286
(dp5287
g18
I00
sg19
(lp5288
(irule
FeatureMatrix
p5289
(dp5290
g34
(lp5291
sg22
Nsba(irule
FeatureMatrix
p5292
(dp5293
g34
(lp5294
(I01
g3803
tp5295
asg22
Nsbasg21
I00
sg22
Nsg23
I01
sg24
S'R'
sbsg44
(irule
FeatureMatrix
p5296
(dp5297
g34
(lp5298
(I01
g3803
tp5299
a(I00
g4147
tp5300
asg22
Nsbsg22
Nsba(irule
Rule
p5301
(dp5302
g15
(irule
Guard
p5303
(dp5304
g18
I00
sg19
(lp5305
sg21
I00
sg22
Nsg23
I00
sg24
S'L'
sbsg25
(irule
ConstantPhoneme
p5306
(dp5307
S'p'
Va
sbsg28
(irule
Guard
p5308
(dp5309
g18
I00
sg19
(lp5310
(irule
FeatureMatrix
p5311
(dp5312
g34
(lp5313
sg22
Nsba(irule
FeatureMatrix
p5314
(dp5315
g34
(lp5316
(I01
g3803
tp5317
asg22
Nsbasg21
I00
sg22
Nsg23
I01
sg24
S'R'
sbsg44
(irule
FeatureMatrix
p5318
(dp5319
g34
(lp5320
(I01
g3803
tp5321
a(I01
g4192
tp5322
asg22
Nsbsg22
Nsba(irule
Rule
p5323
(dp5324
g15
(irule
Guard
p5325
(dp5326
g18
I00
sg19
(lp5327
sg21
I00
sg22
Nsg23
I00
sg24
S'L'
sbsg25
(irule
ConstantPhoneme
p5328
(dp5329
S'p'
Va
sbsg28
(irule
Guard
p5330
(dp5331
g18
I00
sg19
(lp5332
(irule
FeatureMatrix
p5333
(dp5334
g34
(lp5335
sg22
Nsba(irule
FeatureMatrix
p5336
(dp5337
g34
(lp5338
(I01
g3803
tp5339
asg22
Nsbasg21
I00
sg22
Nsg23
I01
sg24
S'R'
sbsg44
(irule
FeatureMatrix
p5340
(dp5341
g34
(lp5342
(I01
g4075
tp5343
a(I01
g3803
tp5344
asg22
Nsbsg22
Nsba(irule
Rule
p5345
(dp5346
g15
(irule
Guard
p5347
(dp5348
g18
I00
sg19
(lp5349
sg21
I00
sg22
Nsg23
I00
sg24
S'L'
sbsg25
(irule
ConstantPhoneme
p5350
(dp5351
S'p'
Va
sbsg28
(irule
Guard
p5352
(dp5353
g18
I00
sg19
(lp5354
(irule
FeatureMatrix
p5355
(dp5356
g34
(lp5357
(I00
g3845
tp5358
asg22
Nsba(irule
FeatureMatrix
p5359
(dp5360
g34
(lp5361
(I01
g3803
tp5362
a(I01
g3845
tp5363
asg22
Nsbasg21
I00
sg22
Nsg23
I00
sg24
S'R'
sbsg44
(irule
FeatureMatrix
p5364
(dp5365
g34
(lp5366
(I01
g3803
tp5367
asg22
Nsbsg22
Nsba(irule
Rule
p5368
(dp5369
g15
(irule
Guard
p5370
(dp5371
g18
I00
sg19
(lp5372
sg21
I00
sg22
Nsg23
I00
sg24
S'L'
sbsg25
(irule
ConstantPhoneme
p5373
(dp5374
S'p'
Va
sbsg28
(irule
Guard
p5375
(dp5376
g18
I00
sg19
(lp5377
(irule
FeatureMatrix
p5378
(dp5379
g34
(lp5380
(I00
g3913
tp5381
asg22
Nsba(irule
FeatureMatrix
p5382
(dp5383
g34
(lp5384
(I01
g3803
tp5385
asg22
Nsbasg21
I00
sg22
Nsg23
I00
sg24
S'R'
sbsg44
(irule
FeatureMatrix
p5386
(dp5387
g34
(lp5388
(I01
g3803
tp5389
a(I00
g3967
tp5390
asg22
Nsbsg22
Nsba(irule
Rule
p5391
(dp5392
g15
(irule
Guard
p5393
(dp5394
g18
I00
sg19
(lp5395
sg21
I00
sg22
Nsg23
I00
sg24
S'L'
sbsg25
(irule
ConstantPhoneme
p5396
(dp5397
S'p'
Va
sbsg28
(irule
Guard
p5398
(dp5399
g18
I00
sg19
(lp5400
(irule
FeatureMatrix
p5401
(dp5402
g34
(lp5403
(I00
g3913
tp5404
asg22
Nsba(irule
FeatureMatrix
p5405
(dp5406
g34
(lp5407
(I00
g3939
tp5408
a(I01
g3803
tp5409
asg22
Nsbasg21
I00
sg22
Nsg23
I00
sg24
S'R'
sbsg44
(irule
FeatureMatrix
p5410
(dp5411
g34
(lp5412
(I01
g3803
tp5413
asg22
Nsbsg22
Nsba(irule
Rule
p5414
(dp5415
g15
(irule
Guard
p5416
(dp5417
g18
I00
sg19
(lp5418
sg21
I00
sg22
Nsg23
I00
sg24
S'L'
sbsg25
(irule
ConstantPhoneme
p5419
(dp5420
S'p'
Va
sbsg28
(irule
Guard
p5421
(dp5422
g18
I00
sg19
(lp5423
(irule
FeatureMatrix
p5424
(dp5425
g34
(lp5426
sg22
Nsba(irule
FeatureMatrix
p5427
(dp5428
g34
(lp5429
(I01
g3803
tp5430
asg22
Nsbasg21
I00
sg22
Nsg23
I00
sg24
S'R'
sbsg44
(irule
FeatureMatrix
p5431
(dp5432
g34
(lp5433
(I01
g3803
tp5434
a(I01
g4049
tp5435
a(I01
g3872
tp5436
asg22
Nsbsg22
Nsba(irule
Rule
p5437
(dp5438
g15
(irule
Guard
p5439
(dp5440
g18
I00
sg19
(lp5441
sg21
I00
sg22
Nsg23
I00
sg24
S'L'
sbsg25
(irule
ConstantPhoneme
p5442
(dp5443
S'p'
Va
sbsg28
(irule
Guard
p5444
(dp5445
g18
I00
sg19
(lp5446
(irule
FeatureMatrix
p5447
(dp5448
g34
(lp5449
sg22
Nsba(irule
FeatureMatrix
p5450
(dp5451
g34
(lp5452
(I01
g3803
tp5453
asg22
Nsbasg21
I00
sg22
Nsg23
I00
sg24
S'R'
sbsg44
(irule
FeatureMatrix
p5454
(dp5455
g34
(lp5456
(I00
g4007
tp5457
a(I01
g3803
tp5458
a(I00
g3967
tp5459
asg22
Nsbsg22
Nsba(irule
Rule
p5460
(dp5461
g15
(irule
Guard
p5462
(dp5463
g18
I00
sg19
(lp5464
sg21
I00
sg22
Nsg23
I00
sg24
S'L'
sbsg25
(irule
ConstantPhoneme
p5465
(dp5466
S'p'
Va
sbsg28
(irule
Guard
p5467
(dp5468
g18
I00
sg19
(lp5469
(irule
FeatureMatrix
p5470
(dp5471
g34
(lp5472
sg22
Nsba(irule
FeatureMatrix
p5473
(dp5474
g34
(lp5475
(I01
g3803
tp5476
asg22
Nsbasg21
I00
sg22
Nsg23
I01
sg24
S'R'
sbsg44
(irule
FeatureMatrix
p5477
(dp5478
g34
(lp5479
(I00
g3967
tp5480
a(I01
g3845
tp5481
asg22
Nsbsg22
Nsba(irule
Rule
p5482
(dp5483
g15
(irule
Guard
p5484
(dp5485
g18
I00
sg19
(lp5486
sg21
I00
sg22
Nsg23
I00
sg24
S'L'
sbsg25
(irule
ConstantPhoneme
p5487
(dp5488
S'p'
Va
sbsg28
(irule
Guard
p5489
(dp5490
g18
I00
sg19
(lp5491
(irule
FeatureMatrix
p5492
(dp5493
g34
(lp5494
sg22
Nsba(irule
FeatureMatrix
p5495
(dp5496
g34
(lp5497
(I01
g3803
tp5498
asg22
Nsbasg21
I00
sg22
Nsg23
I00
sg24
S'R'
sbsg44
(irule
FeatureMatrix
p5499
(dp5500
g34
(lp5501
(I00
g4007
tp5502
a(I01
g4075
tp5503
a(I00
g3967
tp5504
asg22
Nsbsg22
Nsba(irule
Rule
p5505
(dp5506
g15
(irule
Guard
p5507
(dp5508
g18
I00
sg19
(lp5509
sg21
I00
sg22
Nsg23
I00
sg24
S'L'
sbsg25
(irule
ConstantPhoneme
p5510
(dp5511
S'p'
Va
sbsg28
(irule
Guard
p5512
(dp5513
g18
I00
sg19
(lp5514
(irule
FeatureMatrix
p5515
(dp5516
g34
(lp5517
sg22
Nsba(irule
FeatureMatrix
p5518
(dp5519
g34
(lp5520
(I01
g3803
tp5521
asg22
Nsbasg21
I00
sg22
Nsg23
I01
sg24
S'R'
sbsg44
(irule
FeatureMatrix
p5522
(dp5523
g34
(lp5524
(I01
g3803
tp5525
a(I01
g4049
tp5526
asg22
Nsbsg22
Nsba(irule
Rule
p5527
(dp5528
g15
(irule
Guard
p5529
(dp5530
g18
I00
sg19
(lp5531
sg21
I00
sg22
Nsg23
I00
sg24
S'L'
sbsg25
(irule
ConstantPhoneme
p5532
(dp5533
S'p'
Va
sbsg28
(irule
Guard
p5534
(dp5535
g18
I00
sg19
(lp5536
(irule
FeatureMatrix
p5537
(dp5538
g34
(lp5539
sg22
Nsba(irule
FeatureMatrix
p5540
(dp5541
g34
(lp5542
(I01
g3803
tp5543
asg22
Nsbasg21
I00
sg22
Nsg23
I00
sg24
S'R'
sbsg44
(irule
FeatureMatrix
p5544
(dp5545
g34
(lp5546
(I01
g3803
tp5547
a(I01
g3845
tp5548
a(I01
g3872
tp5549
asg22
Nsbsg22
Nsba(irule
Rule
p5550
(dp5551
g15
(irule
Guard
p5552
(dp5553
g18
I00
sg19
(lp5554
sg21
I00
sg22
Nsg23
I00
sg24
S'L'
sbsg25
(irule
ConstantPhoneme
p5555
(dp5556
S'p'
Va
sbsg28
(irule
Guard
p5557
(dp5558
g18
I00
sg19
(lp5559
(irule
FeatureMatrix
p5560
(dp5561
g34
(lp5562
(I00
g3913
tp5563
asg22
Nsba(irule
FeatureMatrix
p5564
(dp5565
g34
(lp5566
(I00
g4258
tp5567
a(I01
g3803
tp5568
asg22
Nsbasg21
I00
sg22
Nsg23
I00
sg24
S'R'
sbsg44
(irule
FeatureMatrix
p5569
(dp5570
g34
(lp5571
(I01
g3803
tp5572
asg22
Nsbsg22
Nsba(irule
Rule
p5573
(dp5574
g15
(irule
Guard
p5575
(dp5576
g18
I00
sg19
(lp5577
sg21
I00
sg22
Nsg23
I00
sg24
S'L'
sbsg25
(irule
ConstantPhoneme
p5578
(dp5579
S'p'
Va
sbsg28
(irule
Guard
p5580
(dp5581
g18
I00
sg19
(lp5582
(irule
FeatureMatrix
p5583
(dp5584
g34
(lp5585
sg22
Nsba(irule
FeatureMatrix
p5586
(dp5587
g34
(lp5588
(I01
g3803
tp5589
asg22
Nsbasg21
I00
sg22
Nsg23
I00
sg24
S'R'
sbsg44
(irule
FeatureMatrix
p5590
(dp5591
g34
(lp5592
(I00
g4365
tp5593
a(I01
g3803
tp5594
a(I00
g3967
tp5595
asg22
Nsbsg22
Nsba(irule
Rule
p5596
(dp5597
g15
(irule
Guard
p5598
(dp5599
g18
I00
sg19
(lp5600
sg21
I00
sg22
Nsg23
I00
sg24
S'L'
sbsg25
(irule
ConstantPhoneme
p5601
(dp5602
S'p'
Va
sbsg28
(irule
Guard
p5603
(dp5604
g18
I00
sg19
(lp5605
(irule
FeatureMatrix
p5606
(dp5607
g34
(lp5608
sg22
Nsba(irule
FeatureMatrix
p5609
(dp5610
g34
(lp5611
(I01
g3803
tp5612
a(I01
g4049
tp5613
a(I01
g3872
tp5614
asg22
Nsbasg21
I00
sg22
Nsg23
I00
sg24
S'R'
sbsg44
(irule
FeatureMatrix
p5615
(dp5616
g34
(lp5617
(I01
g3803
tp5618
asg22
Nsbsg22
Nsba(irule
Rule
p5619
(dp5620
g15
(irule
Guard
p5621
(dp5622
g18
I00
sg19
(lp5623
sg21
I00
sg22
Nsg23
I00
sg24
S'L'
sbsg25
(irule
ConstantPhoneme
p5624
(dp5625
S'p'
Va
sbsg28
(irule
Guard
p5626
(dp5627
g18
I00
sg19
(lp5628
(irule
FeatureMatrix
p5629
(dp5630
g34
(lp5631
(I00
g4049
tp5632
a(I00
g3913
tp5633
asg22
Nsba(irule
FeatureMatrix
p5634
(dp5635
g34
(lp5636
(I01
g3803
tp5637
asg22
Nsbasg21
I00
sg22
Nsg23
I00
sg24
S'R'
sbsg44
(irule
FeatureMatrix
p5638
(dp5639
g34
(lp5640
(I01
g3803
tp5641
asg22
Nsbsg22
Nsba(irule
Rule
p5642
(dp5643
g15
(irule
Guard
p5644
(dp5645
g18
I00
sg19
(lp5646
sg21
I00
sg22
Nsg23
I00
sg24
S'L'
sbsg25
(irule
ConstantPhoneme
p5647
(dp5648
S'p'
Va
sbsg28
(irule
Guard
p5649
(dp5650
g18
I00
sg19
(lp5651
(irule
FeatureMatrix
p5652
(dp5653
g34
(lp5654
sg22
Nsba(irule
FeatureMatrix
p5655
(dp5656
g34
(lp5657
(I01
g3803
tp5658
asg22
Nsbasg21
I00
sg22
Nsg23
I01
sg24
S'R'
sbsg44
(irule
FeatureMatrix
p5659
(dp5660
g34
(lp5661
(I00
g3967
tp5662
a(I01
g4049
tp5663
asg22
Nsbsg22
Nsba(irule
Rule
p5664
(dp5665
g15
(irule
Guard
p5666
(dp5667
g18
I00
sg19
(lp5668
sg21
I00
sg22
Nsg23
I00
sg24
S'L'
sbsg25
(irule
ConstantPhoneme
p5669
(dp5670
S'p'
Va
sbsg28
(irule
Guard
p5671
(dp5672
g18
I00
sg19
(lp5673
(irule
FeatureMatrix
p5674
(dp5675
g34
(lp5676
(I00
g3939
tp5677
a(I00
g3913
tp5678
asg22
Nsba(irule
FeatureMatrix
p5679
(dp5680
g34
(lp5681
(I01
g3803
tp5682
asg22
Nsbasg21
I00
sg22
Nsg23
I00
sg24
S'R'
sbsg44
(irule
FeatureMatrix
p5683
(dp5684
g34
(lp5685
(I01
g3803
tp5686
asg22
Nsbsg22
Nsba(irule
Rule
p5687
(dp5688
g15
(irule
Guard
p5689
(dp5690
g18
I00
sg19
(lp5691
sg21
I00
sg22
Nsg23
I00
sg24
S'L'
sbsg25
(irule
ConstantPhoneme
p5692
(dp5693
S'p'
Va
sbsg28
(irule
Guard
p5694
(dp5695
g18
I00
sg19
(lp5696
(irule
FeatureMatrix
p5697
(dp5698
g34
(lp5699
(I00
g3913
tp5700
asg22
Nsba(irule
FeatureMatrix
p5701
(dp5702
g34
(lp5703
(I01
g3803
tp5704
asg22
Nsbasg21
I00
sg22
Nsg23
I00
sg24
S'R'
sbsg44
(irule
FeatureMatrix
p5705
(dp5706
g34
(lp5707
(I00
g4365
tp5708
a(I01
g3803
tp5709
asg22
Nsbsg22
Nsba(irule
Rule
p5710
(dp5711
g15
(irule
Guard
p5712
(dp5713
g18
I00
sg19
(lp5714
sg21
I00
sg22
Nsg23
I00
sg24
S'L'
sbsg25
(irule
ConstantPhoneme
p5715
(dp5716
S'p'
Va
sbsg28
(irule
Guard
p5717
(dp5718
g18
I00
sg19
(lp5719
(irule
FeatureMatrix
p5720
(dp5721
g34
(lp5722
(I00
g4365
tp5723
asg22
Nsba(irule
FeatureMatrix
p5724
(dp5725
g34
(lp5726
(I01
g3803
tp5727
asg22
Nsbasg21
I00
sg22
Nsg23
I00
sg24
S'R'
sbsg44
(irule
FeatureMatrix
p5728
(dp5729
g34
(lp5730
(I01
g3803
tp5731
a(I00
g3967
tp5732
asg22
Nsbsg22
Nsba(irule
Rule
p5733
(dp5734
g15
(irule
Guard
p5735
(dp5736
g18
I00
sg19
(lp5737
sg21
I00
sg22
Nsg23
I00
sg24
S'L'
sbsg25
(irule
ConstantPhoneme
p5738
(dp5739
S'p'
Va
sbsg28
(irule
Guard
p5740
(dp5741
g18
I00
sg19
(lp5742
(irule
FeatureMatrix
p5743
(dp5744
g34
(lp5745
sg22
Nsba(irule
FeatureMatrix
p5746
(dp5747
g34
(lp5748
(I01
g3803
tp5749
a(I01
g3845
tp5750
a(I01
g3872
tp5751
asg22
Nsbasg21
I00
sg22
Nsg23
I00
sg24
S'R'
sbsg44
(irule
FeatureMatrix
p5752
(dp5753
g34
(lp5754
(I01
g3803
tp5755
asg22
Nsbsg22
Nsba(irule
Rule
p5756
(dp5757
g15
(irule
Guard
p5758
(dp5759
g18
I00
sg19
(lp5760
sg21
I00
sg22
Nsg23
I00
sg24
S'L'
sbsg25
(irule
ConstantPhoneme
p5761
(dp5762
S'p'
Va
sbsg28
(irule
Guard
p5763
(dp5764
g18
I00
sg19
(lp5765
(irule
FeatureMatrix
p5766
(dp5767
g34
(lp5768
sg22
Nsba(irule
FeatureMatrix
p5769
(dp5770
g34
(lp5771
(I01
g3803
tp5772
asg22
Nsbasg21
I00
sg22
Nsg23
I00
sg24
S'R'
sbsg44
(irule
FeatureMatrix
p5773
(dp5774
g34
(lp5775
(I01
g4075
tp5776
a(I01
g3803
tp5777
a(I00
g3967
tp5778
asg22
Nsbsg22
Nsba(irule
Rule
p5779
(dp5780
g15
(irule
Guard
p5781
(dp5782
g18
I00
sg19
(lp5783
sg21
I00
sg22
Nsg23
I00
sg24
S'L'
sbsg25
(irule
ConstantPhoneme
p5784
(dp5785
S'p'
Va
sbsg28
(irule
Guard
p5786
(dp5787
g18
I00
sg19
(lp5788
(irule
FeatureMatrix
p5789
(dp5790
g34
(lp5791
(I00
g4365
tp5792
asg22
Nsba(irule
FeatureMatrix
p5793
(dp5794
g34
(lp5795
(I01
g3803
tp5796
asg22
Nsbasg21
I00
sg22
Nsg23
I00
sg24
S'R'
sbsg44
(irule
FeatureMatrix
p5797
(dp5798
g34
(lp5799
(I00
g3967
tp5800
a(I01
g4049
tp5801
asg22
Nsbsg22
Nsba(irule
Rule
p5802
(dp5803
g15
(irule
Guard
p5804
(dp5805
g18
I00
sg19
(lp5806
sg21
I00
sg22
Nsg23
I00
sg24
S'L'
sbsg25
(irule
ConstantPhoneme
p5807
(dp5808
S'p'
Va
sbsg28
(irule
Guard
p5809
(dp5810
g18
I00
sg19
(lp5811
(irule
FeatureMatrix
p5812
(dp5813
g34
(lp5814
(I00
g4049
tp5815
a(I00
g3845
tp5816
asg22
Nsba(irule
FeatureMatrix
p5817
(dp5818
g34
(lp5819
(I01
g3803
tp5820
asg22
Nsbasg21
I00
sg22
Nsg23
I00
sg24
S'R'
sbsg44
(irule
FeatureMatrix
p5821
(dp5822
g34
(lp5823
(I01
g3803
tp5824
asg22
Nsbsg22
Nsba(irule
Rule
p5825
(dp5826
g15
(irule
Guard
p5827
(dp5828
g18
I00
sg19
(lp5829
sg21
I00
sg22
Nsg23
I00
sg24
S'L'
sbsg25
(irule
ConstantPhoneme
p5830
(dp5831
S'p'
Va
sbsg28
(irule
Guard
p5832
(dp5833
g18
I00
sg19
(lp5834
(irule
FeatureMatrix
p5835
(dp5836
g34
(lp5837
sg22
Nsba(irule
FeatureMatrix
p5838
(dp5839
g34
(lp5840
(I01
g3803
tp5841
asg22
Nsbasg21
I00
sg22
Nsg23
I00
sg24
S'R'
sbsg44
(irule
FeatureMatrix
p5842
(dp5843
g34
(lp5844
(I01
g3803
tp5845
a(I01
g4192
tp5846
a(I00
g3967
tp5847
asg22
Nsbsg22
Nsba(irule
Rule
p5848
(dp5849
g15
(irule
Guard
p5850
(dp5851
g18
I00
sg19
(lp5852
sg21
I00
sg22
Nsg23
I00
sg24
S'L'
sbsg25
(irule
ConstantPhoneme
p5853
(dp5854
S'p'
Va
sbsg28
(irule
Guard
p5855
(dp5856
g18
I00
sg19
(lp5857
(irule
FeatureMatrix
p5858
(dp5859
g34
(lp5860
sg22
Nsba(irule
FeatureMatrix
p5861
(dp5862
g34
(lp5863
(I01
g3803
tp5864
asg22
Nsbasg21
I00
sg22
Nsg23
I00
sg24
S'R'
sbsg44
(irule
FeatureMatrix
p5865
(dp5866
g34
(lp5867
(I01
g3803
tp5868
a(I01
g4049
tp5869
a(I01
g3845
tp5870
asg22
Nsbsg22
Nsba(irule
Rule
p5871
(dp5872
g15
(irule
Guard
p5873
(dp5874
g18
I00
sg19
(lp5875
sg21
I00
sg22
Nsg23
I00
sg24
S'L'
sbsg25
(irule
ConstantPhoneme
p5876
(dp5877
S'p'
Va
sbsg28
(irule
Guard
p5878
(dp5879
g18
I00
sg19
(lp5880
(irule
FeatureMatrix
p5881
(dp5882
g34
(lp5883
sg22
Nsba(irule
FeatureMatrix
p5884
(dp5885
g34
(lp5886
(I00
g3825
tp5887
a(I01
g3803
tp5888
a(I01
g3845
tp5889
asg22
Nsbasg21
I00
sg22
Nsg23
I00
sg24
S'R'
sbsg44
(irule
FeatureMatrix
p5890
(dp5891
g34
(lp5892
(I01
g3803
tp5893
asg22
Nsbsg22
Nsba(irule
Rule
p5894
(dp5895
g15
(irule
Guard
p5896
(dp5897
g18
I00
sg19
(lp5898
sg21
I00
sg22
Nsg23
I00
sg24
S'L'
sbsg25
(irule
ConstantPhoneme
p5899
(dp5900
S'p'
Va
sbsg28
(irule
Guard
p5901
(dp5902
g18
I00
sg19
(lp5903
(irule
FeatureMatrix
p5904
(dp5905
g34
(lp5906
sg22
Nsba(irule
FeatureMatrix
p5907
(dp5908
g34
(lp5909
(I00
g4258
tp5910
a(I01
g3803
tp5911
a(I01
g4049
tp5912
asg22
Nsbasg21
I00
sg22
Nsg23
I00
sg24
S'R'
sbsg44
(irule
FeatureMatrix
p5913
(dp5914
g34
(lp5915
(I01
g3803
tp5916
asg22
Nsbsg22
Nsba(irule
Rule
p5917
(dp5918
g15
(irule
Guard
p5919
(dp5920
g18
I00
sg19
(lp5921
sg21
I00
sg22
Nsg23
I00
sg24
S'L'
sbsg25
(irule
ConstantPhoneme
p5922
(dp5923
S'p'
Va
sbsg28
(irule
Guard
p5924
(dp5925
g18
I00
sg19
(lp5926
(irule
FeatureMatrix
p5927
(dp5928
g34
(lp5929
sg22
Nsba(irule
FeatureMatrix
p5930
(dp5931
g34
(lp5932
(I01
g3803
tp5933
asg22
Nsbasg21
I00
sg22
Nsg23
I00
sg24
S'R'
sbsg44
(irule
FeatureMatrix
p5934
(dp5935
g34
(lp5936
(I00
g4258
tp5937
a(I01
g3803
tp5938
a(I00
g3967
tp5939
asg22
Nsbsg22
Nsba(irule
Rule
p5940
(dp5941
g15
(irule
Guard
p5942
(dp5943
g18
I00
sg19
(lp5944
sg21
I00
sg22
Nsg23
I00
sg24
S'L'
sbsg25
(irule
ConstantPhoneme
p5945
(dp5946
S'p'
Va
sbsg28
(irule
Guard
p5947
(dp5948
g18
I00
sg19
(lp5949
(irule
FeatureMatrix
p5950
(dp5951
g34
(lp5952
sg22
Nsba(irule
FeatureMatrix
p5953
(dp5954
g34
(lp5955
(I01
g3803
tp5956
asg22
Nsbasg21
I00
sg22
Nsg23
I00
sg24
S'R'
sbsg44
(irule
FeatureMatrix
p5957
(dp5958
g34
(lp5959
(I01
g3803
tp5960
a(I00
g4147
tp5961
a(I01
g4049
tp5962
asg22
Nsbsg22
Nsba(irule
Rule
p5963
(dp5964
g15
(irule
Guard
p5965
(dp5966
g18
I00
sg19
(lp5967
sg21
I00
sg22
Nsg23
I00
sg24
S'L'
sbsg25
(irule
ConstantPhoneme
p5968
(dp5969
S'p'
Va
sbsg28
(irule
Guard
p5970
(dp5971
g18
I00
sg19
(lp5972
(irule
FeatureMatrix
p5973
(dp5974
g34
(lp5975
(I00
g3913
tp5976
asg22
Nsba(irule
FeatureMatrix
p5977
(dp5978
g34
(lp5979
(I00
g4007
tp5980
a(I01
g3803
tp5981
asg22
Nsbasg21
I00
sg22
Nsg23
I00
sg24
S'R'
sbsg44
(irule
FeatureMatrix
p5982
(dp5983
g34
(lp5984
(I01
g3803
tp5985
asg22
Nsbsg22
Nsba(irule
Rule
p5986
(dp5987
g15
(irule
Guard
p5988
(dp5989
g18
I00
sg19
(lp5990
sg21
I00
sg22
Nsg23
I00
sg24
S'L'
sbsg25
(irule
ConstantPhoneme
p5991
(dp5992
S'p'
Va
sbsg28
(irule
Guard
p5993
(dp5994
g18
I00
sg19
(lp5995
(irule
FeatureMatrix
p5996
(dp5997
g34
(lp5998
sg22
Nsba(irule
FeatureMatrix
p5999
(dp6000
g34
(lp6001
(I01
g3803
tp6002
asg22
Nsbasg21
I00
sg22
Nsg23
I00
sg24
S'R'
sbsg44
(irule
FeatureMatrix
p6003
(dp6004
g34
(lp6005
(I01
g3803
tp6006
a(I00
g4147
tp6007
a(I01
g3872
tp6008
asg22
Nsbsg22
NsbaasbsS'parameters'
p6009
g6
(cargparse
Namespace
p6010
g8
NtRp6011
(dp6012
S'dummy'
p6013
I00
sS'task'
p6014
S'CEGIS'
p6015
sS'features'
p6016
S'sophisticated'
p6017
sS'resume'
p6018
I00
sS'geometry'
p6019
I01
sS'top'
p6020
I100
sS'disableClean'
p6021
I00
sS'universal'
p6022
NsS'restrict'
p6023
NsS'window'
p6024
NsS'seed'
p6025
S'0'
sS'restore'
p6026
NsS'verbosity'
p6027
I0
sS'timeout'
p6028
F24
sS'debug'
p6029
NsS'cores'
p6030
I40
sg1267
S'Odden_2.5_Makonde'
p6031
sS'save'
p6032
NsS'serial'
p6033
I00
sS'alignment'
p6034
I00
sS'samples'
p6035
I30
sbsb.