(iresult
Result
p1
(dp2
S'startTime'
p3
F1563908720.916852
sS'solutionSequence'
p4
(lp5
(ccopy_reg
_reconstructor
p6
(csolution
Solution
p7
c__builtin__
object
p8
NtRp9
(dp10
S'rules'
p11
(lp12
(irule
Rule
p13
(dp14
S'leftTriggers'
p15
(irule
Guard
p16
(dp17
S'endOfString'
p18
I00
sS'specifications'
p19
(lp20
sS'optionalEnding'
p21
I00
sS'representation'
p22
V
sS'starred'
p23
I00
sS'side'
p24
S'L'
sbsS'structuralChange'
p25
(irule
FeatureMatrix
p26
(dp27
S'featuresAndPolarities'
p28
(lp29
sg22
V[  ]
p30
sbsS'rightTriggers'
p31
(irule
Guard
p32
(dp33
g18
I00
sg19
(lp34
sg21
I00
sg22
V
sg23
I00
sg24
S'R'
sbsS'focus'
p35
(irule
FeatureMatrix
p36
(dp37
g28
(lp38
sg22
V[  ]
p39
sbsg22
V[  ] ---> [  ] /  _ 
p40
sbasS'prefixes'
p41
(lp42
(imorph
Morph
p43
(dp44
S'phonemes'
p45
(lp46
V\u0263
aVo
asbasS'underlyingForms'
p47
(dp48
((imorph
Morph
p49
(dp50
g45
(lp51
V\u0263
aVo
aVt
aV\u025b
aV\u014b
aV\u025b
aVr
aVa
asbtp52
(imorph
Morph
p53
(dp54
g45
(lp55
Vt
aV\u025b
aV\u014b
aV\u025b
aVr
asbs((imorph
Morph
p56
(dp57
g45
(lp58
V\u0263
aVo
aVk
aVu
aVu
aVa
asbtp59
(imorph
Morph
p60
(dp61
g45
(lp62
Vk
aVu
aVu
asbs((imorph
Morph
p63
(dp64
g45
(lp65
V\u0263
aVo
aVk
aVo
aVo
aVr
aVa
asbtp66
(imorph
Morph
p67
(dp68
g45
(lp69
Vk
aVo
aVo
aVr
asbssS'suffixes'
p70
(lp71
(imorph
Morph
p72
(dp73
g45
(lp74
Va
asbasbF8.2454540729522705
tp75
a(g6
(g7
g8
NtRp76
(dp77
g11
(lp78
(irule
Rule
p79
(dp80
g15
(irule
Guard
p81
(dp82
g18
I00
sg19
(lp83
sg21
I00
sg22
V
sg23
I00
sg24
S'L'
sbsg25
(irule
ConstantPhoneme
p84
(dp85
S'p'
V\u0263
sbsg31
(irule
Guard
p86
(dp87
g18
I00
sg19
(lp88
(irule
FeatureMatrix
p89
(dp90
g28
(lp91
sg22
V[  ]
p92
sba(irule
FeatureMatrix
p93
(dp94
g28
(lp95
(I00
S'voice'
p96
tp97
asg22
V[ -voice ]
p98
sbasg21
I00
sg22
V[  ] [ -voice ]
p99
sg23
I00
sg24
S'R'
sbsg35
(irule
FeatureMatrix
p100
(dp101
g28
(lp102
sg22
V[  ]
p103
sbsg22
V[  ] ---> \u0263 /  _ [  ] [ -voice ]
p104
sbasg41
(lp105
(imorph
Morph
p106
(dp107
g45
(lp108
Vk
aVo
asbasg47
(dp109
((imorph
Morph
p110
(dp111
g45
(lp112
Vk
aVo
aVm
aV\u025b
aV\u0272
aVa
asbtp113
(imorph
Morph
p114
(dp115
g45
(lp116
Vm
aV\u025b
aV\u0272
asbs((imorph
Morph
p117
(dp118
g45
(lp119
Vk
aVo
aVr
aVu
aV\u0263
aVa
asbtp120
(imorph
Morph
p121
(dp122
g45
(lp123
Vr
aVu
aV\u0263
asbs(g49
tp124
(imorph
Morph
p125
(dp126
g45
(lp127
Vt
aV\u025b
aV\u014b
aV\u025b
aVr
asbs(g56
tp128
(imorph
Morph
p129
(dp130
g45
(lp131
Vk
aVu
aVu
asbs(g63
tp132
(imorph
Morph
p133
(dp134
g45
(lp135
Vk
aVo
aVo
aVr
asbs((imorph
Morph
p136
(dp137
g45
(lp138
Vk
aVo
aVo
aVr
aVi
aVa
asbtp139
(imorph
Morph
p140
(dp141
g45
(lp142
Vo
aVr
aVi
asbssg70
(lp143
(imorph
Morph
p144
(dp145
g45
(lp146
Va
asbasbF36.822356939315796
tp147
a(g6
(g7
g8
NtRp148
(dp149
g11
(lp150
(irule
Rule
p151
(dp152
g15
(irule
Guard
p153
(dp154
g18
I00
sg19
(lp155
sg21
I00
sg22
V
sg23
I00
sg24
S'L'
sbsg25
(irule
ConstantPhoneme
p156
(dp157
S'p'
V\u0263
sbsg31
(irule
Guard
p158
(dp159
g18
I00
sg19
(lp160
(irule
FeatureMatrix
p161
(dp162
g28
(lp163
(I01
S'low'
p164
tp165
asg22
V[ +low ]
p166
sba(irule
FeatureMatrix
p167
(dp168
g28
(lp169
(I00
S'continuant'
p170
tp171
a(I00
S'nasal'
p172
tp173
asg22
V[ -continuant -nasal ]
p174
sbasg21
I00
sg22
V[ +low ] [ -continuant -nasal ]
p175
sg23
I00
sg24
S'R'
sbsg35
(irule
FeatureMatrix
p176
(dp177
g28
(lp178
sg22
V[  ]
p179
sbsg22
V[  ] ---> \u0263 /  _ [ +low ] [ -continuant -nasal ]
p180
sbasg41
(lp181
(imorph
Morph
p182
(dp183
g45
(lp184
Vk
aVo
asbasg47
(dp185
(g110
tp186
(imorph
Morph
p187
(dp188
g45
(lp189
Vm
aV\u025b
aV\u0272
asbs((imorph
Morph
(dp190
g45
(lp191
V\u0263
aVo
aVk
aVa
aVy
aVa
asbtp192
(imorph
Morph
p193
(dp194
g45
(lp195
Vk
aVa
aVy
asbs((imorph
Morph
p196
(dp197
g45
(lp198
V\u0263
aVo
aVc\u030c
p199
aVi
aVn
aVa
asbtp200
(imorph
Morph
p201
(dp202
g45
(lp203
Vc\u030c
p204
aVi
aVn
asbs(g117
tp205
(imorph
Morph
p206
(dp207
g45
(lp208
Vr
aVu
aV\u0263
asbs((imorph
Morph
p209
(dp210
g45
(lp211
Vk
aVo
aV\u0263
aVe
aVe
aVr
aVa
asbtp212
(imorph
Morph
p213
(dp214
g45
(lp215
V\u0263
aVe
aVe
aVr
asbs((imorph
Morph
p216
(dp217
g45
(lp218
Vk
aVo
aVh
aV\u0254
aVt
aVa
asbtp219
(imorph
Morph
p220
(dp221
g45
(lp222
Vh
aV\u0254
aVt
asbs(g49
tp223
(imorph
Morph
p224
(dp225
g45
(lp226
Vt
aV\u025b
aV\u014b
aV\u025b
aVr
asbs(g56
tp227
(imorph
Morph
p228
(dp229
g45
(lp230
Vk
aVu
aVu
asbs((imorph
Morph
(dp231
g45
(lp232
Vk
aVo
aVi
aVn
aVa
asbtp233
(imorph
Morph
p234
(dp235
g45
(lp236
Vi
aVn
asbs((imorph
Morph
(dp237
g45
(lp238
Vk
aVo
aV\u0263
aVa
aVy
aVa
asbtp239
(imorph
Morph
p240
(dp241
g45
(lp242
V\u0263
aVa
aVy
asbs((imorph
Morph
(dp243
g45
(lp244
V\u0263
aVo
aVc\u030c
p245
aVu
aVu
aVk
aVa
asbtp246
(imorph
Morph
p247
(dp248
g45
(lp249
g204
aVu
aVu
aVk
asbs(g63
tp250
(imorph
Morph
p251
(dp252
g45
(lp253
Vk
aVo
aVo
aVr
asbs(g136
tp254
(imorph
Morph
p255
(dp256
g45
(lp257
Vo
aVr
aVi
asbssg70
(lp258
(imorph
Morph
p259
(dp260
g45
(lp261
Va
asbasbF91.719697952270508
tp262
asS'problem'
p263
S'Odden_1.2_Kikuyu'
p264
sS'finalFrontier'
p265
g6
(csolution
Frontier
p266
g8
NtRp267
(dp268
g41
g181
sg70
g258
sg47
g185
sS'frontiers'
p269
(lp270
(lp271
g151
aasbsS'parameters'
p272
g6
(cargparse
Namespace
p273
g8
NtRp274
(dp275
S'restore'
p276
NsS'features'
p277
S'sophisticated'
p278
sS'universal'
p279
NsS'restrict'
p280
NsS'seed'
p281
S'0'
sS'serial'
p282
I00
sS'alignment'
p283
I00
sS'top'
p284
I1
sS'maximumDepth'
p285
I3
sS'window'
p286
NsS'minimizeBits'
p287
I5
sS'samples'
p288
I30
sS'save'
p289
NsS'resume'
p290
I00
sS'disableClean'
p291
I00
sS'stemBaseline'
p292
I30
sS'dummy'
p293
I00
sS'task'
p294
S'CEGIS'
p295
sS'geometry'
p296
I01
sS'verbosity'
p297
I0
sS'timeout'
p298
NsS'debug'
p299
NsS'cores'
p300
I12
sg263
S'Odden_1.2_Kikuyu'
p301
sS'mergeFrontiers'
p302
I00
sbsb.