(iresult
Result
p1
(dp2
S'startTime'
p3
F1565820394.1170571
sS'solutionSequence'
p4
(lp5
(ccopy_reg
_reconstructor
p6
(csolution
Solution
p7
c__builtin__
object
p8
NtRp9
(dp10
S'rules'
p11
(lp12
(irule
Rule
p13
(dp14
S'leftTriggers'
p15
(irule
Guard
p16
(dp17
S'endOfString'
p18
I00
sS'specifications'
p19
(lp20
sS'optionalEnding'
p21
I00
sS'representation'
p22
V
sS'starred'
p23
I00
sS'side'
p24
S'L'
sbsS'structuralChange'
p25
(irule
FeatureMatrix
p26
(dp27
S'featuresAndPolarities'
p28
(lp29
sg22
V[  ]
p30
sbsS'rightTriggers'
p31
(irule
Guard
p32
(dp33
g18
I00
sg19
(lp34
sg21
I00
sg22
V
sg23
I00
sg24
S'R'
sbsS'focus'
p35
(irule
FeatureMatrix
p36
(dp37
g28
(lp38
sg22
V[  ]
p39
sbsg22
V[  ] ---> [  ] /  _ 
p40
sbasS'prefixes'
p41
(lp42
(imorph
Morph
p43
(dp44
S'phonemes'
p45
(lp46
sba(imorph
Morph
p47
(dp48
g45
(lp49
sba(imorph
Morph
p50
(dp51
g45
(lp52
sbasS'underlyingForms'
p53
(dp54
((imorph
Morph
p55
(dp56
g45
(lp57
Va
aV\u0263
aVa
asb(imorph
Morph
p58
(dp59
g45
(lp60
Va
aV\u0263
aVa
aVl
aVa
aVr
asb(imorph
Morph
p61
(dp62
g45
(lp63
Va
aV\u0263
aVa
aVl
aV\u0268
aV\u0268
aVn
asbtp64
(imorph
Morph
p65
(dp66
g45
(lp67
Va
aV\u0263
aVa
asbs((imorph
Morph
p68
(dp69
g45
(lp70
Vt
aV\u0268
aVa
asb(imorph
Morph
p71
(dp72
g45
(lp73
Vt
aV\u0268
aVa
aVl
aVa
aVr
asb(imorph
Morph
p74
(dp75
g45
(lp76
Vt
aV\u0268
aVa
aVl
aV\u0268
aV\u0268
aVn
asbtp77
(imorph
Morph
p78
(dp79
g45
(lp80
Vt
aV\u0268
aVa
asbs((imorph
Morph
p81
(dp82
g45
(lp83
Vp
aVa
aVa
aVr
aVt
aVa
asb(imorph
Morph
p84
(dp85
g45
(lp86
Vp
aVa
aVa
aVr
aVt
aVa
aVl
aVa
aVr
asb(imorph
Morph
p87
(dp88
g45
(lp89
Vp
aVa
aVa
aVr
aVt
aVa
aVl
aV\u0268
aV\u0268
aVn
asbtp90
(imorph
Morph
p91
(dp92
g45
(lp93
Vp
aVa
aVa
aVr
aVt
aVa
asbssS'suffixes'
p94
(lp95
(imorph
Morph
p96
(dp97
g45
(lp98
sba(imorph
Morph
p99
(dp100
g45
(lp101
Vl
aVa
aVr
asba(imorph
Morph
p102
(dp103
g45
(lp104
Vl
aV\u0268
aV\u0268
aVn
asbasbF112.4555389881134
tp105
a(g6
(g7
g8
NtRp106
(dp107
g11
(lp108
(irule
Rule
p109
(dp110
g15
(irule
Guard
p111
(dp112
g18
I00
sg19
(lp113
(irule
FeatureMatrix
p114
(dp115
g28
(lp116
sg22
V[  ]
p117
sba(irule
FeatureMatrix
p118
(dp119
g28
(lp120
(I01
S'nasal'
p121
tp122
asg22
V[ +nasal ]
p123
sbasg21
I00
sg22
V[ +nasal ] [  ]*
p124
sg23
I01
sg24
S'L'
sbsg25
(irule
ConstantPhoneme
p125
(dp126
S'p'
Ve
sbsg31
(irule
Guard
p127
(dp128
g18
I00
sg19
(lp129
sg21
I00
sg22
V
sg23
I00
sg24
S'R'
sbsg35
(irule
FeatureMatrix
p130
(dp131
g28
(lp132
(I01
S'tense'
p133
tp134
asg22
V[ +tense ]
p135
sbsg22
V[ +tense ] ---> e / [ +nasal ] [  ]* _ 
p136
sba(irule
Rule
p137
(dp138
g15
(irule
Guard
p139
(dp140
g18
I00
sg19
(lp141
sg21
I00
sg22
V
sg23
I00
sg24
S'L'
sbsg25
(irule
ConstantPhoneme
p142
(dp143
S'p'
Vi
sbsg31
(irule
Guard
p144
(dp145
g18
I00
sg19
(lp146
(irule
FeatureMatrix
p147
(dp148
g28
(lp149
(I00
S'liquid'
p150
tp151
asg22
V[ -liquid ]
p152
sbasg21
I00
sg22
g152
sg23
I00
sg24
S'R'
sbsg35
(irule
FeatureMatrix
p153
(dp154
g28
(lp155
(I01
S'middle'
p156
tp157
asg22
V[ +middle ]
p158
sbsg22
V[ +middle ] ---> i /  _ [ -liquid ]
p159
sbasg41
(lp160
(imorph
Morph
p161
(dp162
g45
(lp163
sba(imorph
Morph
p164
(dp165
g45
(lp166
sba(imorph
Morph
p167
(dp168
g45
(lp169
sbasg53
(dp170
(g55
g58
g61
tp171
(imorph
Morph
p172
(dp173
g45
(lp174
Va
aV\u0263
asbs(g68
g71
g74
tp175
(imorph
Morph
p176
(dp177
g45
(lp178
Vt
aV\u0268
asbs(g81
g84
g87
tp179
(imorph
Morph
p180
(dp181
g45
(lp182
Vp
aVa
aVa
aVr
aVt
asbs((imorph
Morph
p183
(dp184
g45
(lp185
Vk
aVi
aVn
aVi
aVg
aVe
asb(imorph
Morph
p186
(dp187
g45
(lp188
Vk
aVi
aVn
aVi
aVg
aVe
aVl
aVe
aVr
asb(imorph
Morph
p189
(dp190
g45
(lp191
Vk
aVi
aVn
aVi
aVg
aVe
aVl
aVi
aVi
aVn
asbtp192
(imorph
Morph
p193
(dp194
g45
(lp195
Vk
aVi
aVn
aVi
aVg
asbssg94
(lp196
(imorph
Morph
p197
(dp198
g45
(lp199
Va
asba(imorph
Morph
p200
(dp201
g45
(lp202
Va
aVl
aVa
aVr
asba(imorph
Morph
p203
(dp204
g45
(lp205
Va
aVl
aV\u0268
aV\u0268
aVn
asbasbF3504.3475999832153
tp206
a(g6
(g7
g8
NtRp207
(dp208
g11
(lp209
(irule
Rule
p210
(dp211
g15
(irule
Guard
p212
(dp213
g18
I00
sg19
(lp214
(irule
FeatureMatrix
p215
(dp216
g28
(lp217
sg22
V[  ]
p218
sba(irule
ConstantPhoneme
p219
(dp220
S'p'
Vi
sbasg21
I00
sg22
Vi [  ]*
p221
sg23
I01
sg24
S'L'
sbsg25
(irule
ConstantPhoneme
p222
(dp223
S'p'
Ve
sbsg31
(irule
Guard
p224
(dp225
g18
I00
sg19
(lp226
sg21
I00
sg22
V
sg23
I00
sg24
S'R'
sbsg35
(irule
FeatureMatrix
p227
(dp228
g28
(lp229
(I01
S'central'
p230
tp231
asg22
V[ +central ]
p232
sbsg22
V[ +central ] ---> e / i [  ]* _ 
p233
sba(irule
Rule
p234
(dp235
g15
(irule
Guard
p236
(dp237
g18
I00
sg19
(lp238
sg21
I00
sg22
V
sg23
I00
sg24
S'L'
sbsg25
(irule
ConstantPhoneme
p239
(dp240
S'p'
Vi
sbsg31
(irule
Guard
p241
(dp242
g18
I00
sg19
(lp243
(irule
FeatureMatrix
p244
(dp245
g28
(lp246
(I00
g150
tp247
asg22
V[ -liquid ]
p248
sbasg21
I00
sg22
g248
sg23
I00
sg24
S'R'
sbsg35
(irule
FeatureMatrix
p249
(dp250
g28
(lp251
(I01
g156
tp252
asg22
V[ +middle ]
p253
sbsg22
V[ +middle ] ---> i /  _ [ -liquid ]
p254
sbasg41
(lp255
(imorph
Morph
p256
(dp257
g45
(lp258
sba(imorph
Morph
p259
(dp260
g45
(lp261
sba(imorph
Morph
p262
(dp263
g45
(lp264
sbasg53
(dp265
(g55
g58
g61
tp266
(imorph
Morph
p267
(dp268
g45
(lp269
Va
aV\u0263
asbs((imorph
Morph
p270
(dp271
g45
(lp272
V\u0161
aVi
aVe
asb(imorph
Morph
p273
(dp274
g45
(lp275
V\u0161
aVi
aVe
aVl
aVe
aVr
asb(imorph
Morph
p276
(dp277
g45
(lp278
V\u0161
aVi
aVe
aVl
aVi
aVi
aVn
asbtp279
(imorph
Morph
p280
(dp281
g45
(lp282
V\u0161
aVi
asbs(g68
g71
g74
tp283
(imorph
Morph
p284
(dp285
g45
(lp286
Vt
aV\u0268
asbs(g81
g84
g87
tp287
(imorph
Morph
p288
(dp289
g45
(lp290
Vp
aVa
aVa
aVr
aVt
asbs(g183
g186
g189
tp291
(imorph
Morph
p292
(dp293
g45
(lp294
Vk
aVi
aVn
aVa
aVg
asbssg94
(lp295
(imorph
Morph
p296
(dp297
g45
(lp298
Va
asba(imorph
Morph
p299
(dp300
g45
(lp301
Va
aVl
aVa
aVr
asba(imorph
Morph
p302
(dp303
g45
(lp304
Va
aVl
aV\u0268
aV\u0268
aVn
asbasbF8049.5115938186646
tp305
a(g6
(g7
g8
NtRp306
(dp307
g11
(lp308
(irule
Rule
p309
(dp310
g15
(irule
Guard
p311
(dp312
g18
I00
sg19
(lp313
(irule
FeatureMatrix
p314
(dp315
g28
(lp316
sg22
V[  ]
p317
sba(irule
FeatureMatrix
p318
(dp319
g28
(lp320
(I01
S'low'
p321
tp322
asg22
V[ +low ]
p323
sbasg21
I00
sg22
V[ +low ] [  ]*
p324
sg23
I01
sg24
S'L'
sbsg25
(irule
ConstantPhoneme
p325
(dp326
S'p'
V\u0268
sbsg31
(irule
Guard
p327
(dp328
g18
I00
sg19
(lp329
sg21
I00
sg22
V
sg23
I00
sg24
S'R'
sbsg35
(irule
FeatureMatrix
p330
(dp331
g28
(lp332
(I01
S'front'
p333
tp334
asg22
V[ +front ]
p335
sbsg22
V[ +front ] ---> \u0268 / [ +low ] [  ]* _ 
p336
sba(irule
Rule
p337
(dp338
g15
(irule
Guard
p339
(dp340
g18
I00
sg19
(lp341
sg21
I00
sg22
V
sg23
I00
sg24
S'L'
sbsg25
(irule
ConstantPhoneme
p342
(dp343
S'p'
Va
sbsg31
(irule
Guard
p344
(dp345
g18
I00
sg19
(lp346
(irule
FeatureMatrix
p347
(dp348
g28
(lp349
(I01
g150
tp350
asg22
V[ +liquid ]
p351
sbasg21
I00
sg22
g351
sg23
I00
sg24
S'R'
sbsg35
(irule
FeatureMatrix
p352
(dp353
g28
(lp354
(I01
S'back'
p355
tp356
asg22
V[ +back ]
p357
sbsg22
V[ +back ] ---> a /  _ [ +liquid ]
p358
sbasg41
(lp359
(imorph
Morph
p360
(dp361
g45
(lp362
sba(imorph
Morph
p363
(dp364
g45
(lp365
sba(imorph
Morph
p366
(dp367
g45
(lp368
sbasg53
(dp369
(g81
g84
g87
tp370
(imorph
Morph
p371
(dp372
g45
(lp373
Vp
aVa
aVa
aVr
aVt
aVa
asbs((imorph
Morph
p374
(dp375
g45
(lp376
Vk
aVi
aVn
aVi
asb(imorph
Morph
p377
(dp378
g45
(lp379
Vk
aVi
aVn
aVi
aVl
aVe
aVr
asb(imorph
Morph
p380
(dp381
g45
(lp382
Vk
aVi
aVn
aVi
aVl
aVi
aVi
aVn
asbtp383
(imorph
Morph
p384
(dp385
g45
(lp386
Vk
aVi
aVn
aVi
asbs(g55
g58
g61
tp387
(imorph
Morph
p388
(dp389
g45
(lp390
Va
aV\u0263
aVa
asbs(g68
g71
g74
tp391
(imorph
Morph
p392
(dp393
g45
(lp394
Vt
aV\u0268
aVa
asbs(g270
g273
g276
tp395
(imorph
Morph
p396
(dp397
g45
(lp398
V\u0161
aVi
aVe
asbs(g183
g186
g189
tp399
(imorph
Morph
p400
(dp401
g45
(lp402
Vk
aVi
aVn
aVi
aVg
aVe
asbssg94
(lp403
(imorph
Morph
p404
(dp405
g45
(lp406
sba(imorph
Morph
p407
(dp408
g45
(lp409
Vl
aVe
aVr
asba(imorph
Morph
p410
(dp411
g45
(lp412
Vl
aVi
aVi
aVn
asbasbF15542.440099954605
tp413
a(g6
(g7
g8
NtRp414
(dp415
g11
(lp416
(irule
Rule
p417
(dp418
g15
(irule
Guard
p419
(dp420
g18
I00
sg19
(lp421
(irule
FeatureMatrix
p422
(dp423
g28
(lp424
(I00
S'stop'
p425
tp426
a(I00
g133
tp427
asg22
V[ -stop -tense ]
p428
sba(irule
FeatureMatrix
p429
(dp430
g28
(lp431
(I00
g230
tp432
asg22
V[ -central ]
p433
sbasg21
I00
sg22
V[ -central ] [ -stop -tense ]
p434
sg23
I00
sg24
S'L'
sbsg25
(irule
OffsetSpecification
p435
(dp436
S'offset'
p437
I-2
sbsg31
(irule
Guard
p438
(dp439
g18
I00
sg19
(lp440
sg21
I00
sg22
V
sg23
I00
sg24
S'R'
sbsg35
(irule
FeatureMatrix
p441
(dp442
g28
(lp443
sg22
V[  ]
p444
sbsg22
V[  ] ---> -2 / [ -central ] [ -stop -tense ] _ 
p445
sba(irule
Rule
p446
(dp447
g15
(irule
Guard
p448
(dp449
g18
I00
sg19
(lp450
sg21
I00
sg22
V
sg23
I00
sg24
S'L'
sbsg25
(irule
FeatureMatrix
p451
(dp452
g28
(lp453
(I01
S'high'
p454
tp455
a(I00
g156
tp456
asg22
V[ +high -middle ]
p457
sbsg31
(irule
Guard
p458
(dp459
g18
I00
sg19
(lp460
(irule
ConstantPhoneme
p461
(dp462
S'p'
Vm
sbasg21
I00
sg22
Vm
sg23
I00
sg24
S'R'
sbsg35
(irule
FeatureMatrix
p463
(dp464
g28
(lp465
sg22
V[  ]
p466
sbsg22
V[  ] ---> [ +high -middle ] /  _ m
p467
sba(irule
Rule
p468
(dp469
g15
(irule
Guard
p470
(dp471
g18
I00
sg19
(lp472
(irule
FeatureMatrix
p473
(dp474
g28
(lp475
sg22
V[  ]
p476
sbasg21
I00
sg22
g476
sg23
I00
sg24
S'L'
sbsg25
(irule
OffsetSpecification
p477
(dp478
g437
I-1
sbsg31
(irule
Guard
p479
(dp480
g18
I00
sg19
(lp481
sg21
I00
sg22
V
sg23
I00
sg24
S'R'
sbsg35
(irule
FeatureMatrix
p482
(dp483
g28
(lp484
(I01
S'bilabial'
p485
tp486
asg22
V[ +bilabial ]
p487
sbsg22
V[ +bilabial ] ---> -1 / [  ] _ 
p488
sbasg41
(lp489
(imorph
Morph
p490
(dp491
g45
(lp492
sba(imorph
Morph
p493
(dp494
g45
(lp495
sba(imorph
Morph
p496
(dp497
g45
(lp498
sbasg53
(dp499
((imorph
Morph
(dp500
g45
(lp501
Vb
aVo\u0308
p502
aVr
aVo\u0308
p503
asb(imorph
Morph
(dp504
g45
(lp505
Vb
aVo\u0308
p506
aVr
aVo\u0308
p507
aVl
aVo\u0308
p508
aVr
asb(imorph
Morph
(dp509
g45
(lp510
Vb
aVo\u0308
p511
aVr
aVo\u0308
p512
aVl
aVu\u0308
p513
aVu\u0308
p514
aVn
asbtp515
(imorph
Morph
p516
(dp517
g45
(lp518
Vb
aVo\u0308
p519
aVr
ag519
asbs((imorph
Morph
p520
(dp521
g45
(lp522
Vo
aV\u0263
aVo
asb(imorph
Morph
p523
(dp524
g45
(lp525
Vo
aV\u0263
aVo
aVl
aVo
aVr
asb(imorph
Morph
p526
(dp527
g45
(lp528
Vo
aV\u0263
aVo
aVl
aVu
aVu
aVn
asbtp529
(imorph
Morph
p530
(dp531
g45
(lp532
Vo
aV\u0263
aVo
asbs(g81
g84
g87
tp533
(imorph
Morph
p534
(dp535
g45
(lp536
Vp
aVa
aVa
aVr
aVt
aVa
asbs(g374
g377
g380
tp537
(imorph
Morph
p538
(dp539
g45
(lp540
Vk
aVi
aVn
aVe
asbs(g55
g58
g61
tp541
(imorph
Morph
p542
(dp543
g45
(lp544
Va
aV\u0263
aVa
asbs((imorph
Morph
(dp545
g45
(lp546
Vb
aVi
aVe
asb(imorph
Morph
(dp547
g45
(lp548
Vb
aVi
aVe
aVl
aVe
aVr
asb(imorph
Morph
(dp549
g45
(lp550
Vb
aVi
aVe
aVl
aVi
aVi
aVn
asbtp551
(imorph
Morph
p552
(dp553
g45
(lp554
Vb
aVi
aVe
asbs(g68
g71
g74
tp555
(imorph
Morph
p556
(dp557
g45
(lp558
Vt
aV\u0268
aVa
asbs(g270
g273
g276
tp559
(imorph
Morph
p560
(dp561
g45
(lp562
V\u0161
aVi
aVe
asbs(g183
g186
g189
tp563
(imorph
Morph
p564
(dp565
g45
(lp566
Vk
aVi
aVn
aVi
aVg
aVe
asbssg94
(lp567
(imorph
Morph
p568
(dp569
g45
(lp570
sba(imorph
Morph
p571
(dp572
g45
(lp573
Vl
aVa
aVr
asba(imorph
Morph
p574
(dp575
g45
(lp576
Vl
aV\u0268
aVm
aVn
asbasbF73427.779979944229
tp577
asS'problem'
p578
S'Odden_4.10_Sakha_Yakut'
p579
sS'finalFrontier'
p580
g6
(csolution
Frontier
p581
g8
NtRp582
(dp583
g41
g489
sg94
g567
sg53
g499
sS'frontiers'
p584
(lp585
(lp586
g417
aa(lp587
g446
aa(lp588
g468
aasbsS'parameters'
p589
g6
(cargparse
Namespace
p590
g8
NtRp591
(dp592
S'restore'
p593
NsS'features'
p594
S'simple'
p595
sS'universal'
p596
NsS'restrict'
p597
NsS'seed'
p598
S'0'
sS'serial'
p599
I00
sS'alignment'
p600
I00
sS'top'
p601
I1
sS'maximumDepth'
p602
I3
sS'window'
p603
NsS'minimizeBits'
p604
I5
sS'samples'
p605
I30
sS'save'
p606
NsS'resume'
p607
I00
sS'disableClean'
p608
I00
sS'stemBaseline'
p609
I30
sS'dummy'
p610
I00
sS'task'
p611
S'CEGIS'
p612
sS'geometry'
p613
NsS'verbosity'
p614
I0
sS'timeout'
p615
F24
sS'debug'
p616
NsS'cores'
p617
I40
sg578
S'Odden_4.10_Sakha_Yakut'
p618
sS'mergeFrontiers'
p619
I00
sbsb.