(iresult
Result
p1
(dp2
S'startTime'
p3
F1559660758.6650431
sS'solutionSequence'
p4
(lp5
(ccopy_reg
_reconstructor
p6
(csolution
Solution
p7
c__builtin__
object
p8
NtRp9
(dp10
S'rules'
p11
(lp12
(irule
Rule
p13
(dp14
S'leftTriggers'
p15
(irule
Guard
p16
(dp17
S'endOfString'
p18
I00
sS'specifications'
p19
(lp20
sS'optionalEnding'
p21
I00
sS'representation'
p22
V
sS'starred'
p23
I00
sS'side'
p24
S'L'
sbsS'structuralChange'
p25
(irule
OffsetSpecification
p26
(dp27
S'offset'
p28
I2
sbsS'rightTriggers'
p29
(irule
Guard
p30
(dp31
g18
I00
sg19
(lp32
(irule
FeatureMatrix
p33
(dp34
S'featuresAndPolarities'
p35
(lp36
sg22
V[  ]
p37
sba(irule
ConstantPhoneme
p38
(dp39
S'p'
Va
sbasg21
I00
sg22
V[  ] a
p40
sg23
I00
sg24
S'R'
sbsS'focus'
p41
(irule
FeatureMatrix
p42
(dp43
g35
(lp44
sg22
V[  ]
p45
sbsg22
V[  ] ---> 2 /  _ [  ] a
p46
sba(irule
Rule
p47
(dp48
g15
(irule
Guard
p49
(dp50
g18
I00
sg19
(lp51
(irule
ConstantPhoneme
p52
(dp53
S'p'
Vn
sbasg21
I00
sg22
Vn
sg23
I00
sg24
S'L'
sbsg25
(irule
ConstantPhoneme
p54
(dp55
S'p'
Ve
sbsg29
(irule
Guard
p56
(dp57
g18
I00
sg19
(lp58
(irule
FeatureMatrix
p59
(dp60
g35
(lp61
sg22
V[  ]
p62
sbasg21
I00
sg22
g62
sg23
I00
sg24
S'R'
sbsg41
(irule
FeatureMatrix
p63
(dp64
g35
(lp65
sg22
V[  ]
p66
sbsg22
V[  ] ---> e / n _ [  ]
p67
sba(irule
Rule
p68
(dp69
g15
(irule
Guard
p70
(dp71
g18
I00
sg19
(lp72
(irule
ConstantPhoneme
p73
(dp74
S'p'
Vs
sbasg21
I00
sg22
Vs
sg23
I00
sg24
S'L'
sbsg25
(irule
ConstantPhoneme
p75
(dp76
S'p'
Ve:
p77
sbsg29
(irule
Guard
p78
(dp79
g18
I00
sg19
(lp80
sg21
I00
sg22
V
sg23
I00
sg24
S'R'
sbsg41
(irule
ConstantPhoneme
p81
(dp82
S'p'
Va
sbsg22
Va ---> e: / s _ 
p83
sbasS'prefixes'
p84
(lp85
(imorph
Morph
p86
(dp87
S'phonemes'
p88
(lp89
sba(imorph
Morph
p90
(dp91
g88
(lp92
sba(imorph
Morph
p93
(dp94
g88
(lp95
sba(imorph
Morph
p96
(dp97
g88
(lp98
sba(imorph
Morph
p99
(dp100
g88
(lp101
sba(imorph
Morph
p102
(dp103
g88
(lp104
sbasS'underlyingForms'
p105
(dp106
((imorph
Morph
p107
(dp108
g88
(lp109
Vh
aVa
aVm
aVa
aVn
asb(imorph
Morph
p110
(dp111
g88
(lp112
Vh
aVa
aVm
aVa
aVm
asb(imorph
Morph
p113
(dp114
g88
(lp115
Vh
aV\u0268
aVm
aVi
asb(imorph
Morph
p116
(dp117
g88
(lp118
Vh
aV\u0268
aVm
aVu
asb(imorph
Morph
p119
(dp120
g88
(lp121
Vh
aVa
aVm
aVa
asb(imorph
Morph
p122
(dp123
g88
(lp124
Vh
aVa
aVm
aVa
aV\u014b
asbtp125
(imorph
Morph
p126
(dp127
g88
(lp128
Vh
aV\u0268
aVm
asbs((imorph
Morph
p129
(dp130
g88
(lp131
Vs
aVe:
p132
aVn
aVe
aVn
asb(imorph
Morph
p133
(dp134
g88
(lp135
Vs
aVe:
p136
aVn
aVe
aVm
asb(imorph
Morph
p137
(dp138
g88
(lp139
Vs
aVi:
p140
aVn
aVi
asb(imorph
Morph
p141
(dp142
g88
(lp143
Vs
aVi:
p144
aVn
aVu
asb(imorph
Morph
p145
(dp146
g88
(lp147
Vs
aVe:
p148
aVn
aVa
asb(imorph
Morph
p149
(dp150
g88
(lp151
Vs
aVe:
p152
aVn
aVe
aV\u014b
asbtp153
(imorph
Morph
p154
(dp155
g88
(lp156
Vs
aVi:
p157
aVn
asbs((imorph
Morph
(dp158
g88
(lp159
Vh
aVa
aVr
aVa
aVn
asb(imorph
Morph
(dp160
g88
(lp161
Vh
aVa
aVr
aVa
aVm
asb(imorph
Morph
(dp162
g88
(lp163
Vh
aV\u0268
aVr
aVi
asb(imorph
Morph
(dp164
g88
(lp165
Vh
aV\u0268
aVr
aVu
asb(imorph
Morph
(dp166
g88
(lp167
Vh
aVa
aVr
aVa
asb(imorph
Morph
(dp168
g88
(lp169
Vh
aVa
aVr
aVa
aV\u014b
asbtp170
(imorph
Morph
p171
(dp172
g88
(lp173
Vh
aV\u0268
aVr
asbs((imorph
Morph
(dp174
g88
(lp175
V\u0294
aVa
aVp
aVa
aVn
asb(imorph
Morph
(dp176
g88
(lp177
V\u0294
aVa
aVp
aVa
aVm
asb(imorph
Morph
(dp178
g88
(lp179
V\u0294
aV\u0268
aVp
aVi
asb(imorph
Morph
(dp180
g88
(lp181
V\u0294
aV\u0268
aVp
aVu
asb(imorph
Morph
(dp182
g88
(lp183
V\u0294
aVa
aVp
aVa
asb(imorph
Morph
(dp184
g88
(lp185
V\u0294
aVa
aVp
aVa
aV\u014b
asbtp186
(imorph
Morph
p187
(dp188
g88
(lp189
V\u0294
aV\u0268
aVp
asbssS'suffixes'
p190
(lp191
(imorph
Morph
p192
(dp193
g88
(lp194
Va
aVn
asba(imorph
Morph
p195
(dp196
g88
(lp197
Va
aVm
asba(imorph
Morph
p198
(dp199
g88
(lp200
Vi
asba(imorph
Morph
p201
(dp202
g88
(lp203
Vu
asba(imorph
Morph
p204
(dp205
g88
(lp206
Va
asba(imorph
Morph
p207
(dp208
g88
(lp209
Va
aV\u014b
asbasbF17906.470621824265
tp210
asS'problem'
p211
S'Odden_4.6_Kera'
p212
sS'finalFrontier'
p213
g6
(csolution
Frontier
p214
g8
NtRp215
(dp216
g84
g85
sg190
g191
sg105
g106
sS'frontiers'
p217
(lp218
(lp219
g13
aa(lp220
g47
aa(lp221
g68
aasbsS'parameters'
p222
g6
(cargparse
Namespace
p223
g8
NtRp224
(dp225
S'restore'
p226
NsS'features'
p227
S'none'
p228
sS'universal'
p229
NsS'restrict'
p230
NsS'seed'
p231
S'0'
sS'serial'
p232
I00
sS'alignment'
p233
I00
sS'top'
p234
I1
sS'maximumDepth'
p235
I3
sS'window'
p236
NsS'minimizeBits'
p237
I5
sS'samples'
p238
I30
sS'save'
p239
NsS'resume'
p240
I00
sS'disableClean'
p241
I01
sS'stemBaseline'
p242
I30
sS'dummy'
p243
I00
sS'task'
p244
S'CEGIS'
p245
sS'geometry'
p246
NsS'verbosity'
p247
I0
sS'timeout'
p248
F24
sS'debug'
p249
NsS'cores'
p250
I64
sg211
S'Odden_4.6_Kera'
p251
sS'mergeFrontiers'
p252
I00
sbsb.