(iresult
Result
p1
(dp2
S'startTime'
p3
F1591191674.014189
sS'solutionSequence'
p4
(lp5
(ccopy_reg
_reconstructor
p6
(csolution
Solution
p7
c__builtin__
object
p8
NtRp9
(dp10
S'rules'
p11
(lp12
(irule
Rule
p13
(dp14
S'leftTriggers'
p15
(irule
Guard
p16
(dp17
S'endOfString'
p18
I00
sS'specifications'
p19
(lp20
(irule
FeatureMatrix
p21
(dp22
S'featuresAndPolarities'
p23
(lp24
sS'representation'
p25
V[  ]
p26
sba(irule
FeatureMatrix
p27
(dp28
g23
(lp29
(I01
S'high'
p30
tp31
asg25
V[ +high ]
p32
sbasS'optionalEnding'
p33
I00
sg25
V[ +high ] [  ]*
p34
sS'starred'
p35
I01
sS'side'
p36
S'L'
sbsS'structuralChange'
p37
(irule
ConstantPhoneme
p38
(dp39
S'p'
Vu
sbsS'rightTriggers'
p40
(irule
Guard
p41
(dp42
g18
I00
sg19
(lp43
sg33
I00
sg25
V
sg35
I00
sg36
S'R'
sbsS'focus'
p44
(irule
FeatureMatrix
p45
(dp46
g23
(lp47
(I01
g30
tp48
asg25
V[ +high ]
p49
sbsg25
V[ +high ] ---> u / [ +high ] [  ]* _ 
p50
sbasS'prefixes'
p51
(lp52
(imorph
Morph
p53
(dp54
S'phonemes'
p55
(lp56
sba(imorph
Morph
p57
(dp58
g55
(lp59
sba(imorph
Morph
p60
(dp61
g55
(lp62
sba(imorph
Morph
p63
(dp64
g55
(lp65
sbasS'underlyingForms'
p66
(dp67
((imorph
Morph
p68
(dp69
g55
(lp70
Vd
aVu
aVb
aVh
aVu
aVn
asb(imorph
Morph
p71
(dp72
g55
(lp73
Vd
aVu
aVb
aVk
aVa
asb(imorph
Morph
p74
(dp75
g55
(lp76
Vd
aVu
aVb
aVa
aVl
asb(imorph
Morph
p77
(dp78
g55
(lp79
Vd
aVu
aVb
aVu
aVt
asbtp80
(imorph
Morph
p81
(dp82
g55
(lp83
Vd
aVu
aVb
asbs((imorph
Morph
p84
(dp85
g55
(lp86
Vx
aVa
aVt
aVh
aVi
aVn
asb(imorph
Morph
p87
(dp88
g55
(lp89
Vx
aVa
aVt
aVk
aVa
asb(imorph
Morph
p90
(dp91
g55
(lp92
Vx
aVa
aVt
aVa
aVl
asb(imorph
Morph
p93
(dp94
g55
(lp95
Vx
aVa
aVt
aVi
aVt
asbtp96
(imorph
Morph
p97
(dp98
g55
(lp99
Vx
aVa
aVt
asbssS'suffixes'
p100
(lp101
(imorph
Morph
p102
(dp103
g55
(lp104
Vh
aVi
aVn
asba(imorph
Morph
p105
(dp106
g55
(lp107
Vk
aVa
asba(imorph
Morph
p108
(dp109
g55
(lp110
Va
aVl
asba(imorph
Morph
p111
(dp112
g55
(lp113
Vi
aVt
asbasbF56.388758897781372
tp114
a(g6
(g7
g8
NtRp115
(dp116
g11
(lp117
(irule
Rule
p118
(dp119
g15
(irule
Guard
p120
(dp121
g18
I00
sg19
(lp122
(irule
FeatureMatrix
p123
(dp124
g23
(lp125
sg25
V[  ]
p126
sba(irule
FeatureMatrix
p127
(dp128
g23
(lp129
(I01
S'bilabial'
p130
tp131
asg25
V[ +bilabial ]
p132
sbasg33
I00
sg25
V[ +bilabial ] [  ]*
p133
sg35
I01
sg36
S'L'
sbsg37
(irule
ConstantPhoneme
p134
(dp135
S'p'
Vu
sbsg40
(irule
Guard
p136
(dp137
g18
I00
sg19
(lp138
sg33
I00
sg25
V
sg35
I00
sg36
S'R'
sbsg44
(irule
FeatureMatrix
p139
(dp140
g23
(lp141
(I01
g30
tp142
asg25
V[ +high ]
p143
sbsg25
V[ +high ] ---> u / [ +bilabial ] [  ]* _ 
p144
sbasg51
(lp145
(imorph
Morph
p146
(dp147
g55
(lp148
sba(imorph
Morph
p149
(dp150
g55
(lp151
sba(imorph
Morph
p152
(dp153
g55
(lp154
sba(imorph
Morph
p155
(dp156
g55
(lp157
sbasg66
(dp158
(g68
g71
g74
g77
tp159
(imorph
Morph
p160
(dp161
g55
(lp162
Vd
aVu
aVb
asbs((imorph
Morph
p163
(dp164
g55
(lp165
Vx
aVi
aVl
aVh
aVi
aVn
asb(imorph
Morph
p166
(dp167
g55
(lp168
Vx
aVi
aVl
aVk
aVa
asb(imorph
Morph
p169
(dp170
g55
(lp171
Vx
aVi
aVl
aVa
aVl
asb(imorph
Morph
p172
(dp173
g55
(lp174
Vx
aVi
aVl
aVi
aVt
asbtp175
(imorph
Morph
p176
(dp177
g55
(lp178
Vx
aVi
aVl
asbs(g84
g87
g90
g93
tp179
(imorph
Morph
p180
(dp181
g55
(lp182
Vx
aVa
aVt
asbssg100
(lp183
(imorph
Morph
p184
(dp185
g55
(lp186
Vh
aVi
aVn
asba(imorph
Morph
p187
(dp188
g55
(lp189
Vk
aVa
asba(imorph
Morph
p190
(dp191
g55
(lp192
Va
aVl
asba(imorph
Morph
p193
(dp194
g55
(lp195
Vi
aVt
asbasbF153.6109299659729
tp196
a(g6
(g7
g8
NtRp197
(dp198
g11
(lp199
(irule
Rule
p200
(dp201
g15
(irule
Guard
p202
(dp203
g18
I00
sg19
(lp204
(irule
FeatureMatrix
p205
(dp206
g23
(lp207
sg25
V[  ]
p208
sba(irule
FeatureMatrix
p209
(dp210
g23
(lp211
(I01
S'velar'
p212
tp213
asg25
V[ +velar ]
p214
sbasg33
I00
sg25
V[ +velar ] [  ]*
p215
sg35
I01
sg36
S'L'
sbsg37
(irule
ConstantPhoneme
p216
(dp217
S'p'
Vi
sbsg40
(irule
Guard
p218
(dp219
g18
I00
sg19
(lp220
sg33
I00
sg25
V
sg35
I00
sg36
S'R'
sbsg44
(irule
ConstantPhoneme
p221
(dp222
S'p'
Vu
sbsg25
Vu ---> i / [ +velar ] [  ]* _ 
p223
sba(irule
Rule
p224
(dp225
g15
(irule
Guard
p226
(dp227
g18
I00
sg19
(lp228
(irule
FeatureMatrix
p229
(dp230
g23
(lp231
(I00
S'laryngeal'
p232
tp233
asg25
V[ -laryngeal ]
p234
sba(irule
FeatureMatrix
p235
(dp236
g23
(lp237
(I00
g232
tp238
asg25
V[ -laryngeal ]
p239
sbasg33
I00
sg25
V[ -laryngeal ] [ -laryngeal ]
p240
sg35
I00
sg36
S'L'
sbsg37
(irule
ConstantPhoneme
p241
(dp242
S'p'
Va
sbsg40
(irule
Guard
p243
(dp244
g18
I00
sg19
(lp245
sg33
I00
sg25
V
sg35
I00
sg36
S'R'
sbsg44
(irule
ConstantPhoneme
p246
(dp247
S'p'
Vo
sbsg25
Vo ---> a / [ -laryngeal ] [ -laryngeal ] _ 
p248
sbasg51
(lp249
(imorph
Morph
p250
(dp251
g55
(lp252
sba(imorph
Morph
p253
(dp254
g55
(lp255
sba(imorph
Morph
p256
(dp257
g55
(lp258
sba(imorph
Morph
p259
(dp260
g55
(lp261
sbasg66
(dp262
((imorph
Morph
p263
(dp264
g55
(lp265
Vk
aVo
aV\u0294
aVh
aVi
aVn
asb(imorph
Morph
p266
(dp267
g55
(lp268
Vk
aVo
aV\u0294
aVk
aVo
asb(imorph
Morph
p269
(dp270
g55
(lp271
Vk
aVo
aV\u0294
aVo
aVl
asb(imorph
Morph
p272
(dp273
g55
(lp274
Vk
aVo
aV\u0294
aVi
aVt
asbtp275
(imorph
Morph
p276
(dp277
g55
(lp278
Vk
aVo
aV\u0294
asbs(g68
g71
g74
g77
tp279
(imorph
Morph
p280
(dp281
g55
(lp282
Vd
aVu
aVb
asbs(g163
g166
g169
g172
tp283
(imorph
Morph
p284
(dp285
g55
(lp286
Vx
aVi
aVl
asbs(g84
g87
g90
g93
tp287
(imorph
Morph
p288
(dp289
g55
(lp290
Vx
aVa
aVt
asbssg100
(lp291
(imorph
Morph
p292
(dp293
g55
(lp294
Vh
aVu
aVn
asba(imorph
Morph
p295
(dp296
g55
(lp297
Vk
aVo
asba(imorph
Morph
p298
(dp299
g55
(lp300
Vo
aVl
asba(imorph
Morph
p301
(dp302
g55
(lp303
Vu
aVt
asbasbF2642.5669980049133
tp304
asS'problem'
p305
S'Odden_170_Yawelmani'
p306
sS'finalFrontier'
p307
g6
(csolution
Frontier
p308
g8
NtRp309
(dp310
g51
g249
sg100
g291
sg66
g262
sS'frontiers'
p311
(lp312
(lp313
g200
aa(lp314
g224
aasbsS'parameters'
p315
g6
(cargparse
Namespace
p316
g8
NtRp317
(dp318
S'restore'
p319
NsS'features'
p320
S'simple'
p321
sS'universal'
p322
NsS'restrict'
p323
NsS'seed'
p324
NsS'serial'
p325
I00
sS'cv'
p326
I00
sS'alignment'
p327
I00
sS'top'
p328
I1
sS'maximumDepth'
p329
I3
sS'window'
p330
NsS'minimizeBits'
p331
I5
sS'samples'
p332
I30
sS'save'
p333
NsS'resume'
p334
I00
sS'disableClean'
p335
I00
sS'stemBaseline'
p336
I30
sS'dummy'
p337
I00
sS'task'
p338
S'CEGIS'
p339
sS'geometry'
p340
NsS'verbosity'
p341
I0
sS'noConstant'
p342
I00
sS'timeout'
p343
F24
sS'debug'
p344
NsS'cores'
p345
I40
sg305
S'Odden_170_Yawelmani'
p346
sS'mergeFrontiers'
p347
I00
sbsb.