(iresult
Result
p1
(dp2
S'startTime'
p3
F1550590694.150352
sS'solutionSequence'
p4
(lp5
(ccopy_reg
_reconstructor
p6
(csolution
Solution
p7
c__builtin__
object
p8
NtRp9
(dp10
S'rules'
p11
(lp12
(irule
Rule
p13
(dp14
S'leftTriggers'
p15
(irule
Guard
p16
(dp17
S'endOfString'
p18
I00
sS'specifications'
p19
(lp20
sS'optionalEnding'
p21
I00
sS'representation'
p22
V
sS'starred'
p23
I00
sS'side'
p24
S'L'
sbsS'structuralChange'
p25
(irule
FeatureMatrix
p26
(dp27
S'featuresAndPolarities'
p28
(lp29
sg22
V[  ]
p30
sbsS'rightTriggers'
p31
(irule
Guard
p32
(dp33
g18
I00
sg19
(lp34
sg21
I00
sg22
V
sg23
I00
sg24
S'R'
sbsS'focus'
p35
(irule
FeatureMatrix
p36
(dp37
g28
(lp38
sg22
V[  ]
p39
sbsg22
V[  ] ---> [  ] /  _ 
p40
sbasS'prefixes'
p41
(lp42
(imorph
Morph
p43
(dp44
S'phonemes'
p45
(lp46
sba(imorph
Morph
p47
(dp48
g45
(lp49
sba(imorph
Morph
p50
(dp51
g45
(lp52
sba(imorph
Morph
p53
(dp54
g45
(lp55
sba(imorph
Morph
p56
(dp57
g45
(lp58
sba(imorph
Morph
p59
(dp60
g45
(lp61
sba(imorph
Morph
p62
(dp63
g45
(lp64
sba(imorph
Morph
p65
(dp66
g45
(lp67
sba(imorph
Morph
p68
(dp69
g45
(lp70
sba(imorph
Morph
p71
(dp72
g45
(lp73
sbasS'underlyingForms'
p74
(dp75
((imorph
Morph
p76
(dp77
g45
(lp78
Vz
aVu
aVb
asb(imorph
Morph
p79
(dp80
g45
(lp81
Vz
aVu
aVb
aVa
aVm
asb(imorph
Morph
p82
(dp83
g45
(lp84
Vz
aVu
aVb
aVo
aVv^y
p85
aVi
asb(imorph
Morph
p86
(dp87
g45
(lp88
Vz
aVu
aVb^y
p89
aVi
asbNNNNNNtp90
(imorph
Morph
p91
(dp92
g45
(lp93
Vz
aVu
asbssS'suffixes'
p94
(lp95
(imorph
Morph
p96
(dp97
g45
(lp98
Vb
asba(imorph
Morph
p99
(dp100
g45
(lp101
Vb
aVa
aVm
asba(imorph
Morph
p102
(dp103
g45
(lp104
Vb
aVo
aVv^y
p105
aVi
asba(imorph
Morph
p106
(dp107
g45
(lp108
Vb^y
p109
aVi
asba(imorph
Morph
p110
(dp111
g45
(lp112
sba(imorph
Morph
p113
(dp114
g45
(lp115
sba(imorph
Morph
p116
(dp117
g45
(lp118
sba(imorph
Morph
p119
(dp120
g45
(lp121
sba(imorph
Morph
p122
(dp123
g45
(lp124
sba(imorph
Morph
p125
(dp126
g45
(lp127
sbasbF27.553616046905518
tp128
a(g6
(g7
g8
NtRp129
(dp130
g11
(lp131
(irule
Rule
p132
(dp133
g15
(irule
Guard
p134
(dp135
g18
I00
sg19
(lp136
sg21
I00
sg22
V
sg23
I00
sg24
S'L'
sbsg25
(irule
FeatureMatrix
p137
(dp138
g28
(lp139
(I01
S'palletized'
tp140
asg22
V[ +palletized ]
p141
sbsg31
(irule
Guard
p142
(dp143
g18
I00
sg19
(lp144
(irule
ConstantPhoneme
p145
(dp146
S'p'
Vi
sbasg21
I00
sg22
Vi
sg23
I00
sg24
S'R'
sbsg35
(irule
FeatureMatrix
p147
(dp148
g28
(lp149
sg22
V[  ]
p150
sbsg22
V[  ] ---> [ +palletized ] /  _ i
p151
sbasg41
(lp152
(imorph
Morph
p153
(dp154
g45
(lp155
sba(imorph
Morph
p156
(dp157
g45
(lp158
sba(imorph
Morph
p159
(dp160
g45
(lp161
sba(imorph
Morph
p162
(dp163
g45
(lp164
sba(imorph
Morph
p165
(dp166
g45
(lp167
sba(imorph
Morph
p168
(dp169
g45
(lp170
sba(imorph
Morph
p171
(dp172
g45
(lp173
sba(imorph
Morph
p174
(dp175
g45
(lp176
sba(imorph
Morph
p177
(dp178
g45
(lp179
sba(imorph
Morph
p180
(dp181
g45
(lp182
sbasg74
(dp183
((imorph
Morph
(dp184
g45
(lp185
Vs
aVv^y
p186
aVi
aVt
asb(imorph
Morph
(dp187
g45
(lp188
Vs
aVv^y
p189
aVi
aVt
aVa
aVm
asb(imorph
Morph
(dp190
g45
(lp191
Vs
aVv^y
p192
aVi
aVt
aVo
aVv^y
p193
aVi
asb(imorph
Morph
(dp194
g45
(lp195
Vs
aVv^y
p196
aVi
aVt^y
p197
aVi
asbNNNNNNtp198
(imorph
Morph
p199
(dp200
g45
(lp201
Vs
aVv
aVi
aVt
asbs((imorph
Morph
(dp202
g45
(lp203
Vz
aVu
aVb
asb(imorph
Morph
(dp204
g45
(lp205
Vz
aVu
aVb
aVa
aVm
asb(imorph
Morph
(dp206
g45
(lp207
Vz
aVu
aVb
aVo
aVv^y
p208
aVi
asb(imorph
Morph
(dp209
g45
(lp210
Vz
aVu
aVb^y
p211
aVi
asbNNNNNNtp212
(imorph
Morph
p213
(dp214
g45
(lp215
Vz
aVu
aVb
asbssg94
(lp216
(imorph
Morph
p217
(dp218
g45
(lp219
sba(imorph
Morph
p220
(dp221
g45
(lp222
Va
aVm
asba(imorph
Morph
p223
(dp224
g45
(lp225
Vo
aVv^y
p226
aVi
asba(imorph
Morph
p227
(dp228
g45
(lp229
Vi
asba(imorph
Morph
p230
(dp231
g45
(lp232
sba(imorph
Morph
p233
(dp234
g45
(lp235
sba(imorph
Morph
p236
(dp237
g45
(lp238
sba(imorph
Morph
p239
(dp240
g45
(lp241
sba(imorph
Morph
p242
(dp243
g45
(lp244
sba(imorph
Morph
p245
(dp246
g45
(lp247
sbasbF649.49165797233582
tp248
a(g6
(g7
g8
NtRp249
(dp250
g11
(lp251
(irule
Rule
p252
(dp253
g15
(irule
Guard
p254
(dp255
g18
I00
sg19
(lp256
sg21
I00
sg22
V
sg23
I00
sg24
S'L'
sbsg25
(irule
FeatureMatrix
p257
(dp258
g28
(lp259
(I01
S'palletized'
tp260
asg22
V[ +palletized ]
p261
sbsg31
(irule
Guard
p262
(dp263
g18
I00
sg19
(lp264
(irule
ConstantPhoneme
p265
(dp266
S'p'
Vi
sbasg21
I00
sg22
Vi
sg23
I00
sg24
S'R'
sbsg35
(irule
FeatureMatrix
p267
(dp268
g28
(lp269
sg22
V[  ]
p270
sbsg22
V[  ] ---> [ +palletized ] /  _ i
p271
sba(irule
Rule
p272
(dp273
g15
(irule
Guard
p274
(dp275
g18
I00
sg19
(lp276
(irule
FeatureMatrix
p277
(dp278
g28
(lp279
sg22
V[  ]
p280
sba(irule
FeatureMatrix
p281
(dp282
g28
(lp283
(I00
S'high'
tp284
asg22
V[ -high ]
p285
sbasg21
I00
sg22
V[ -high ] [  ]
p286
sg23
I00
sg24
S'L'
sbsg25
(irule
FeatureMatrix
p287
(dp288
g28
(lp289
(I00
S'rounded'
tp290
a(I00
S'back'
tp291
a(I00
S'palletized'
tp292
asg22
V[ -back -palletized -rounded ]
p293
sbsg31
(irule
Guard
p294
(dp295
g18
I00
sg19
(lp296
(irule
FeatureMatrix
p297
(dp298
g28
(lp299
(I00
S'low'
tp300
asg22
V[ -low ]
p301
sba(irule
FeatureMatrix
p302
(dp303
g28
(lp304
sg22
V[  ]
p305
sbasg21
I00
sg22
V[ -low ] [  ]
p306
sg23
I00
sg24
S'R'
sbsg35
(irule
FeatureMatrix
p307
(dp308
g28
(lp309
sg22
V[  ]
p310
sbsg22
V[  ] ---> [ -back -palletized -rounded ] / [ -high ] [  ] _ [ -low ] [  ]
p311
sbasg41
(lp312
(imorph
Morph
p313
(dp314
g45
(lp315
sba(imorph
Morph
p316
(dp317
g45
(lp318
sba(imorph
Morph
p319
(dp320
g45
(lp321
sba(imorph
Morph
p322
(dp323
g45
(lp324
sba(imorph
Morph
p325
(dp326
g45
(lp327
sba(imorph
Morph
p328
(dp329
g45
(lp330
sba(imorph
Morph
p331
(dp332
g45
(lp333
sba(imorph
Morph
p334
(dp335
g45
(lp336
sba(imorph
Morph
p337
(dp338
g45
(lp339
sba(imorph
Morph
p340
(dp341
g45
(lp342
sbasg74
(dp343
((imorph
Morph
(dp344
g45
(lp345
Vs
aVv^y
p346
aVi
aVt
asb(imorph
Morph
(dp347
g45
(lp348
Vs
aVv^y
p349
aVi
aVt
aVa
aVm
asb(imorph
Morph
(dp350
g45
(lp351
Vs
aVv^y
p352
aVi
aVt
aVo
aVv^y
p353
aVi
asb(imorph
Morph
(dp354
g45
(lp355
Vs
aVv^y
p356
aVi
aVt^y
p357
aVi
asbNNNNNNtp358
(imorph
Morph
p359
(dp360
g45
(lp361
Vs
aVv
aVi
aVt
asbs((imorph
Morph
(dp362
g45
(lp363
Vz^y
p364
aVa
aVt^y
p365
asb(imorph
Morph
(dp366
g45
(lp367
Vz^y
p368
aVa
aVt^y
p369
aVa
aVm
asb(imorph
Morph
(dp370
g45
(lp371
Vz^y
p372
aVa
aVt
aVe
aVv^y
p373
aVi
asbN(imorph
Morph
(dp374
g45
(lp375
Vz^y
p376
aVa
aVt
aVe
aVv^y
p377
aVi
asbNNNNNtp378
(imorph
Morph
p379
(dp380
g45
(lp381
Vz^y
p382
aVa
aVt^y
p383
asbs((imorph
Morph
(dp384
g45
(lp385
Vz
aVu
aVb
asb(imorph
Morph
(dp386
g45
(lp387
Vz
aVu
aVb
aVa
aVm
asb(imorph
Morph
(dp388
g45
(lp389
Vz
aVu
aVb
aVo
aVv^y
p390
aVi
asb(imorph
Morph
(dp391
g45
(lp392
Vz
aVu
aVb^y
p393
aVi
asbNNNNNNtp394
(imorph
Morph
p395
(dp396
g45
(lp397
Vz
aVu
aVb
asbssg94
(lp398
(imorph
Morph
p399
(dp400
g45
(lp401
sba(imorph
Morph
p402
(dp403
g45
(lp404
Va
aVm
asba(imorph
Morph
p405
(dp406
g45
(lp407
Vo
aVv^y
p408
aVi
asba(imorph
Morph
p409
(dp410
g45
(lp411
Vi
asba(imorph
Morph
p412
(dp413
g45
(lp414
Ve
ag408
aVi
asba(imorph
Morph
p415
(dp416
g45
(lp417
sba(imorph
Morph
p418
(dp419
g45
(lp420
sba(imorph
Morph
p421
(dp422
g45
(lp423
sba(imorph
Morph
p424
(dp425
g45
(lp426
sba(imorph
Morph
p427
(dp428
g45
(lp429
sbasbF3711.7271959781647
tp430
a(g6
(g7
g8
NtRp431
(dp432
g11
(lp433
(irule
Rule
p434
(dp435
g15
(irule
Guard
p436
(dp437
g18
I00
sg19
(lp438
sg21
I00
sg22
V
sg23
I00
sg24
S'L'
sbsg25
(irule
FeatureMatrix
p439
(dp440
g28
(lp441
(I01
S'palletized'
tp442
asg22
V[ +palletized ]
p443
sbsg31
(irule
Guard
p444
(dp445
g18
I00
sg19
(lp446
(irule
ConstantPhoneme
p447
(dp448
S'p'
Vi
sbasg21
I00
sg22
Vi
sg23
I00
sg24
S'R'
sbsg35
(irule
FeatureMatrix
p449
(dp450
g28
(lp451
sg22
V[  ]
p452
sbsg22
V[  ] ---> [ +palletized ] /  _ i
p453
sba(irule
Rule
p454
(dp455
g15
(irule
Guard
p456
(dp457
g18
I00
sg19
(lp458
(irule
FeatureMatrix
p459
(dp460
g28
(lp461
(I01
S'palletized'
p462
tp463
asg22
V[ +palletized ]
p464
sbasg21
I00
sg22
g464
sg23
I00
sg24
S'L'
sbsg25
(irule
ConstantPhoneme
p465
(dp466
S'p'
Ve
sbsg31
(irule
Guard
p467
(dp468
g18
I00
sg19
(lp469
(irule
FeatureMatrix
p470
(dp471
g28
(lp472
(I01
S'continuant'
tp473
asg22
V[ +continuant ]
p474
sba(irule
FeatureMatrix
p475
(dp476
g28
(lp477
sg22
V[  ]
p478
sbasg21
I00
sg22
V[ +continuant ] [  ]
p479
sg23
I00
sg24
S'R'
sbsg35
(irule
FeatureMatrix
p480
(dp481
g28
(lp482
sg22
V[  ]
p483
sbsg22
V[  ] ---> e / [ +palletized ] _ [ +continuant ] [  ]
p484
sba(irule
Rule
p485
(dp486
g15
(irule
Guard
p487
(dp488
g18
I00
sg19
(lp489
sg21
I00
sg22
V
sg23
I00
sg24
S'L'
sbsg25
(irule
FeatureMatrix
p490
(dp491
g28
(lp492
(I00
g462
tp493
asg22
V[ -palletized ]
p494
sbsg31
(irule
Guard
p495
(dp496
g18
I00
sg19
(lp497
(irule
ConstantPhoneme
p498
(dp499
S'p'
Ve
sbasg21
I00
sg22
Ve
sg23
I00
sg24
S'R'
sbsg35
(irule
FeatureMatrix
p500
(dp501
g28
(lp502
sg22
V[  ]
p503
sbsg22
V[  ] ---> [ -palletized ] /  _ e
p504
sbasg41
(lp505
(imorph
Morph
p506
(dp507
g45
(lp508
sba(imorph
Morph
p509
(dp510
g45
(lp511
sba(imorph
Morph
p512
(dp513
g45
(lp514
sba(imorph
Morph
p515
(dp516
g45
(lp517
sba(imorph
Morph
p518
(dp519
g45
(lp520
sba(imorph
Morph
p521
(dp522
g45
(lp523
sba(imorph
Morph
p524
(dp525
g45
(lp526
sba(imorph
Morph
p527
(dp528
g45
(lp529
sba(imorph
Morph
p530
(dp531
g45
(lp532
sba(imorph
Morph
p533
(dp534
g45
(lp535
sbasg74
(dp536
((imorph
Morph
(dp537
g45
(lp538
Vk
aVo
aV\u0161^y
p539
aVi
aVl^y
p540
asb(imorph
Morph
(dp541
g45
(lp542
Vk
aVo
aV\u0161
aVe
aVl^y
p543
aVa
aVm
asb(imorph
Morph
(dp544
g45
(lp545
Vk
aVo
aV\u0161
aVe
aVl
aVe
aVv^y
p546
aVi
asb(imorph
Morph
(dp547
g45
(lp548
Vk
aVo
aV\u0161
aVe
aVl^y
p549
aVi
asbNNNNNNtp550
(imorph
Morph
p551
(dp552
g45
(lp553
Vk
aVo
aV\u0161^y
p554
aVi
aVl^y
p555
asbs((imorph
Morph
(dp556
g45
(lp557
Vs
aVv^y
p558
aVi
aVt
asb(imorph
Morph
(dp559
g45
(lp560
Vs
aVv^y
p561
aVi
aVt
aVa
aVm
asb(imorph
Morph
(dp562
g45
(lp563
Vs
aVv^y
p564
aVi
aVt
aVo
aVv^y
p565
aVi
asb(imorph
Morph
(dp566
g45
(lp567
Vs
aVv^y
p568
aVi
aVt^y
p569
aVi
asbNNNNNNtp570
(imorph
Morph
p571
(dp572
g45
(lp573
Vs
aVv^y
p574
aVi
aVt
asbs((imorph
Morph
(dp575
g45
(lp576
Vz^y
p577
aVa
aVt^y
p578
asb(imorph
Morph
(dp579
g45
(lp580
Vz^y
p581
aVa
aVt^y
p582
aVa
aVm
asb(imorph
Morph
(dp583
g45
(lp584
Vz^y
p585
aVa
aVt
aVe
aVv^y
p586
aVi
asbN(imorph
Morph
(dp587
g45
(lp588
Vz^y
p589
aVa
aVt
aVe
aVv^y
p590
aVi
asbNNNNNtp591
(imorph
Morph
p592
(dp593
g45
(lp594
Vz^y
p595
aVa
aVt^y
p596
asbs((imorph
Morph
(dp597
g45
(lp598
Vz
aVu
aVb
asb(imorph
Morph
(dp599
g45
(lp600
Vz
aVu
aVb
aVa
aVm
asb(imorph
Morph
(dp601
g45
(lp602
Vz
aVu
aVb
aVo
aVv^y
p603
aVi
asb(imorph
Morph
(dp604
g45
(lp605
Vz
aVu
aVb^y
p606
aVi
asbNNNNNNtp607
(imorph
Morph
p608
(dp609
g45
(lp610
Vz
aVu
aVb
asbssg94
(lp611
(imorph
Morph
p612
(dp613
g45
(lp614
sba(imorph
Morph
p615
(dp616
g45
(lp617
Va
aVm
asba(imorph
Morph
p618
(dp619
g45
(lp620
Vo
aVv^y
p621
aVi
asba(imorph
Morph
p622
(dp623
g45
(lp624
Vi
asba(imorph
Morph
p625
(dp626
g45
(lp627
Vo
aVv
aVi
asba(imorph
Morph
p628
(dp629
g45
(lp630
sba(imorph
Morph
p631
(dp632
g45
(lp633
sba(imorph
Morph
p634
(dp635
g45
(lp636
sba(imorph
Morph
p637
(dp638
g45
(lp639
sba(imorph
Morph
p640
(dp641
g45
(lp642
sbasbF4702.3926589488983
tp643
a(g6
(g7
g8
NtRp644
(dp645
g11
(lp646
(irule
Rule
p647
(dp648
g15
(irule
Guard
p649
(dp650
g18
I00
sg19
(lp651
sg21
I00
sg22
V
sg23
I00
sg24
S'L'
sbsg25
(irule
FeatureMatrix
p652
(dp653
g28
(lp654
(I01
S'palletized'
tp655
asg22
V[ +palletized ]
p656
sbsg31
(irule
Guard
p657
(dp658
g18
I00
sg19
(lp659
(irule
ConstantPhoneme
p660
(dp661
S'p'
Vi
sbasg21
I00
sg22
Vi
sg23
I00
sg24
S'R'
sbsg35
(irule
FeatureMatrix
p662
(dp663
g28
(lp664
sg22
V[  ]
p665
sbsg22
V[  ] ---> [ +palletized ] /  _ i
p666
sba(irule
Rule
p667
(dp668
g15
(irule
Guard
p669
(dp670
g18
I00
sg19
(lp671
(irule
FeatureMatrix
p672
(dp673
g28
(lp674
(I01
S'palletized'
p675
tp676
asg22
V[ +palletized ]
p677
sbasg21
I00
sg22
g677
sg23
I00
sg24
S'L'
sbsg25
(irule
ConstantPhoneme
p678
(dp679
S'p'
Ve
sbsg31
(irule
Guard
p680
(dp681
g18
I00
sg19
(lp682
(irule
FeatureMatrix
p683
(dp684
g28
(lp685
(I00
S'glide'
tp686
a(I01
S'continuant'
tp687
asg22
V[ +continuant -glide ]
p688
sba(irule
FeatureMatrix
p689
(dp690
g28
(lp691
sg22
V[  ]
p692
sbasg21
I00
sg22
V[ +continuant -glide ] [  ]
p693
sg23
I00
sg24
S'R'
sbsg35
(irule
FeatureMatrix
p694
(dp695
g28
(lp696
sg22
V[  ]
p697
sbsg22
V[  ] ---> e / [ +palletized ] _ [ +continuant -glide ] [  ]
p698
sba(irule
Rule
p699
(dp700
g15
(irule
Guard
p701
(dp702
g18
I00
sg19
(lp703
sg21
I00
sg22
V
sg23
I00
sg24
S'L'
sbsg25
(irule
FeatureMatrix
p704
(dp705
g28
(lp706
(I00
g675
tp707
asg22
V[ -palletized ]
p708
sbsg31
(irule
Guard
p709
(dp710
g18
I00
sg19
(lp711
(irule
ConstantPhoneme
p712
(dp713
S'p'
Ve
sbasg21
I00
sg22
Ve
sg23
I00
sg24
S'R'
sbsg35
(irule
FeatureMatrix
p714
(dp715
g28
(lp716
(I01
S'coronal'
tp717
asg22
V[ +coronal ]
p718
sbsg22
V[ +coronal ] ---> [ -palletized ] /  _ e
p719
sbasg41
(lp720
(imorph
Morph
p721
(dp722
g45
(lp723
sba(imorph
Morph
p724
(dp725
g45
(lp726
sba(imorph
Morph
p727
(dp728
g45
(lp729
sba(imorph
Morph
p730
(dp731
g45
(lp732
sba(imorph
Morph
p733
(dp734
g45
(lp735
sba(imorph
Morph
p736
(dp737
g45
(lp738
sba(imorph
Morph
p739
(dp740
g45
(lp741
sba(imorph
Morph
p742
(dp743
g45
(lp744
sba(imorph
Morph
p745
(dp746
g45
(lp747
sba(imorph
Morph
p748
(dp749
g45
(lp750
sbasg74
(dp751
((imorph
Morph
(dp752
g45
(lp753
Vk
aVo
aV\u0161^y
p754
aVi
aVl^y
p755
asb(imorph
Morph
(dp756
g45
(lp757
Vk
aVo
aV\u0161
aVe
aVl^y
p758
aVa
aVm
asb(imorph
Morph
(dp759
g45
(lp760
Vk
aVo
aV\u0161
aVe
aVl
aVe
aVv^y
p761
aVi
asb(imorph
Morph
(dp762
g45
(lp763
Vk
aVo
aV\u0161
aVe
aVl^y
p764
aVi
asbNNNNNNtp765
(imorph
Morph
p766
(dp767
g45
(lp768
Vk
aVo
aV\u0161^y
p769
aVi
aVl^y
p770
asbs((imorph
Morph
(dp771
g45
(lp772
Vs
aVv^y
p773
aVi
aVt
asb(imorph
Morph
(dp774
g45
(lp775
Vs
aVv^y
p776
aVi
aVt
aVa
aVm
asb(imorph
Morph
(dp777
g45
(lp778
Vs
aVv^y
p779
aVi
aVt
aVo
aVv^y
p780
aVi
asb(imorph
Morph
(dp781
g45
(lp782
Vs
aVv^y
p783
aVi
aVt^y
p784
aVi
asbNNNNNNtp785
(imorph
Morph
p786
(dp787
g45
(lp788
Vs
aVv^y
p789
aVi
aVt
asbs((imorph
Morph
(dp790
g45
(lp791
Vz^y
p792
aVa
aVt^y
p793
asb(imorph
Morph
(dp794
g45
(lp795
Vz^y
p796
aVa
aVt^y
p797
aVa
aVm
asb(imorph
Morph
(dp798
g45
(lp799
Vz^y
p800
aVa
aVt
aVe
aVv^y
p801
aVi
asbN(imorph
Morph
(dp802
g45
(lp803
Vz^y
p804
aVa
aVt
aVe
aVv^y
p805
aVi
asbNNNNNtp806
(imorph
Morph
p807
(dp808
g45
(lp809
Vz^y
p810
aVa
aVt^y
p811
asbs((imorph
Morph
(dp812
g45
(lp813
Vz
aVu
aVb
asb(imorph
Morph
(dp814
g45
(lp815
Vz
aVu
aVb
aVa
aVm
asb(imorph
Morph
(dp816
g45
(lp817
Vz
aVu
aVb
aVo
aVv^y
p818
aVi
asb(imorph
Morph
(dp819
g45
(lp820
Vz
aVu
aVb^y
p821
aVi
asbNNNNNNtp822
(imorph
Morph
p823
(dp824
g45
(lp825
Vz
aVu
aVb
asbs((imorph
Morph
(dp826
g45
(lp827
Vz
aVl
aVo
aVd^y
p828
aVi
aVy
asb(imorph
Morph
(dp829
g45
(lp830
Vz
aVl
aVo
aVd^y
p831
aVi
aVy
aVa
aVm
asb(imorph
Morph
(dp832
g45
(lp833
Vz
aVl
aVo
aVd^y
p834
aVi
aVy
aVe
aVv^y
p835
aVi
asbN(imorph
Morph
(dp836
g45
(lp837
Vz
aVl
aVo
aVd^y
p838
aVi
aVy
aVe
aVv^y
p839
aVi
asbNNNNNtp840
(imorph
Morph
p841
(dp842
g45
(lp843
Vz
aVl
aVo
aVd^y
p844
aVi
aVy
asbssg94
(lp845
(imorph
Morph
p846
(dp847
g45
(lp848
sba(imorph
Morph
p849
(dp850
g45
(lp851
Va
aVm
asba(imorph
Morph
p852
(dp853
g45
(lp854
Vo
aVv^y
p855
aVi
asba(imorph
Morph
p856
(dp857
g45
(lp858
Vi
asba(imorph
Morph
p859
(dp860
g45
(lp861
Ve
ag789
aVi
asba(imorph
Morph
p862
(dp863
g45
(lp864
sba(imorph
Morph
p865
(dp866
g45
(lp867
sba(imorph
Morph
p868
(dp869
g45
(lp870
sba(imorph
Morph
p871
(dp872
g45
(lp873
sba(imorph
Morph
p874
(dp875
g45
(lp876
sbasbF5874.0770170688629
tp877
a(g6
(g7
g8
NtRp878
(dp879
g11
(lp880
(irule
Rule
p881
(dp882
g15
(irule
Guard
p883
(dp884
g18
I00
sg19
(lp885
(irule
FeatureMatrix
p886
(dp887
g28
(lp888
(I01
S'palletized'
p889
tp890
asg22
V[ +palletized ]
p891
sbasg21
I00
sg22
g891
sg23
I00
sg24
S'L'
sbsg25
(irule
ConstantPhoneme
p892
(dp893
S'p'
Ve
sbsg31
(irule
Guard
p894
(dp895
g18
I00
sg19
(lp896
(irule
FeatureMatrix
p897
(dp898
g28
(lp899
(I01
S'voice'
tp900
asg22
V[ +voice ]
p901
sba(irule
FeatureMatrix
p902
(dp903
g28
(lp904
sg22
V[  ]
p905
sbasg21
I00
sg22
V[ +voice ] [  ]
p906
sg23
I00
sg24
S'R'
sbsg35
(irule
FeatureMatrix
p907
(dp908
g28
(lp909
sg22
V[  ]
p910
sbsg22
V[  ] ---> e / [ +palletized ] _ [ +voice ] [  ]
p911
sba(irule
Rule
p912
(dp913
g15
(irule
Guard
p914
(dp915
g18
I00
sg19
(lp916
sg21
I00
sg22
V
sg23
I00
sg24
S'L'
sbsg25
(irule
FeatureMatrix
p917
(dp918
g28
(lp919
(I01
g889
tp920
asg22
V[ +palletized ]
p921
sbsg31
(irule
Guard
p922
(dp923
g18
I00
sg19
(lp924
(irule
ConstantPhoneme
p925
(dp926
S'p'
Vi
sbasg21
I00
sg22
Vi
sg23
I00
sg24
S'R'
sbsg35
(irule
FeatureMatrix
p927
(dp928
g28
(lp929
sg22
V[  ]
p930
sbsg22
V[  ] ---> [ +palletized ] /  _ i
p931
sba(irule
Rule
p932
(dp933
g15
(irule
Guard
p934
(dp935
g18
I00
sg19
(lp936
sg21
I00
sg22
V
sg23
I00
sg24
S'L'
sbsg25
(irule
FeatureMatrix
p937
(dp938
g28
(lp939
(I00
S'palletized'
tp940
asg22
V[ -palletized ]
p941
sbsg31
(irule
Guard
p942
(dp943
g18
I00
sg19
(lp944
(irule
ConstantPhoneme
p945
(dp946
S'p'
Ve
sbasg21
I00
sg22
Ve
sg23
I00
sg24
S'R'
sbsg35
(irule
FeatureMatrix
p947
(dp948
g28
(lp949
(I01
S'coronal'
tp950
asg22
V[ +coronal ]
p951
sbsg22
V[ +coronal ] ---> [ -palletized ] /  _ e
p952
sbasg41
(lp953
(imorph
Morph
p954
(dp955
g45
(lp956
sba(imorph
Morph
p957
(dp958
g45
(lp959
sba(imorph
Morph
p960
(dp961
g45
(lp962
sba(imorph
Morph
p963
(dp964
g45
(lp965
sba(imorph
Morph
p966
(dp967
g45
(lp968
sba(imorph
Morph
p969
(dp970
g45
(lp971
sba(imorph
Morph
p972
(dp973
g45
(lp974
sba(imorph
Morph
p975
(dp976
g45
(lp977
sba(imorph
Morph
p978
(dp979
g45
(lp980
sba(imorph
Morph
p981
(dp982
g45
(lp983
sbasg74
(dp984
((imorph
Morph
(dp985
g45
(lp986
Vk
aVo
aV\u0161^y
p987
aVi
aVl^y
p988
asb(imorph
Morph
(dp989
g45
(lp990
Vk
aVo
aV\u0161
aVe
aVl^y
p991
aVa
aVm
asb(imorph
Morph
(dp992
g45
(lp993
Vk
aVo
aV\u0161
aVe
aVl
aVe
aVv^y
p994
aVi
asb(imorph
Morph
(dp995
g45
(lp996
Vk
aVo
aV\u0161
aVe
aVl^y
p997
aVi
asbNNNNNNtp998
(imorph
Morph
p999
(dp1000
g45
(lp1001
Vk
aVo
aV\u0161^y
p1002
aVi
aVl^y
p1003
asbs((imorph
Morph
(dp1004
g45
(lp1005
Vs
aVv^y
p1006
aVi
aVt
asb(imorph
Morph
(dp1007
g45
(lp1008
Vs
aVv^y
p1009
aVi
aVt
aVa
aVm
asb(imorph
Morph
(dp1010
g45
(lp1011
Vs
aVv^y
p1012
aVi
aVt
aVo
aVv^y
p1013
aVi
asb(imorph
Morph
(dp1014
g45
(lp1015
Vs
aVv^y
p1016
aVi
aVt^y
p1017
aVi
asbNNNNNNtp1018
(imorph
Morph
p1019
(dp1020
g45
(lp1021
Vs
aVv^y
p1022
aVi
aVt
asbs((imorph
Morph
(dp1023
g45
(lp1024
Vz
aVl
aVo
aVd^y
p1025
aVi
aVy
asb(imorph
Morph
(dp1026
g45
(lp1027
Vz
aVl
aVo
aVd^y
p1028
aVi
aVy
aVa
aVm
asb(imorph
Morph
(dp1029
g45
(lp1030
Vz
aVl
aVo
aVd^y
p1031
aVi
aVy
aVe
aVv^y
p1032
aVi
asbN(imorph
Morph
(dp1033
g45
(lp1034
Vz
aVl
aVo
aVd^y
p1035
aVi
aVy
aVe
aVv^y
p1036
aVi
asbNNNNNtp1037
(imorph
Morph
p1038
(dp1039
g45
(lp1040
Vz
aVl
aVo
aVd
aVi
aVy
asbs((imorph
Morph
(dp1041
g45
(lp1042
Vm^y
p1043
aVi
aVs^y
p1044
aVa
aVt^s^y
p1045
asb(imorph
Morph
(dp1046
g45
(lp1047
Vm^y
p1048
aVi
aVs^y
p1049
aVa
aVt^s^y
p1050
aVa
aVm
asb(imorph
Morph
(dp1051
g45
(lp1052
Vm^y
p1053
aVi
aVs^y
p1054
aVa
aVt^s
p1055
aVe
aVv^y
p1056
aVi
asb(imorph
Morph
(dp1057
g45
(lp1058
Vm^y
p1059
aVi
aVs^y
p1060
aVa
aVt^s^y
p1061
aVi
asbNNNNNNtp1062
(imorph
Morph
p1063
(dp1064
g45
(lp1065
Vm^y
p1066
aVi
aVs^y
p1067
aVa
aVt^s^y
p1068
asbs((imorph
Morph
(dp1069
g45
(lp1070
Vz^y
p1071
aVa
aVt^y
p1072
asb(imorph
Morph
(dp1073
g45
(lp1074
Vz^y
p1075
aVa
aVt^y
p1076
aVa
aVm
asb(imorph
Morph
(dp1077
g45
(lp1078
Vz^y
p1079
aVa
aVt
aVe
aVv^y
p1080
aVi
asbN(imorph
Morph
(dp1081
g45
(lp1082
Vz^y
p1083
aVa
aVt
aVe
aVv^y
p1084
aVi
asbNNNNNtp1085
(imorph
Morph
p1086
(dp1087
g45
(lp1088
Vz^y
p1089
aVa
aVt^y
p1090
asbs((imorph
Morph
(dp1091
g45
(lp1092
Vz
aVu
aVb
asb(imorph
Morph
(dp1093
g45
(lp1094
Vz
aVu
aVb
aVa
aVm
asb(imorph
Morph
(dp1095
g45
(lp1096
Vz
aVu
aVb
aVo
aVv^y
p1097
aVi
asb(imorph
Morph
(dp1098
g45
(lp1099
Vz
aVu
aVb^y
p1100
aVi
asbNNNNNNtp1101
(imorph
Morph
p1102
(dp1103
g45
(lp1104
Vz
aVu
aVb
asbssg94
(lp1105
(imorph
Morph
p1106
(dp1107
g45
(lp1108
sba(imorph
Morph
p1109
(dp1110
g45
(lp1111
Va
aVm
asba(imorph
Morph
p1112
(dp1113
g45
(lp1114
Vo
aVv^y
p1115
aVi
asba(imorph
Morph
p1116
(dp1117
g45
(lp1118
Vi
asba(imorph
Morph
p1119
(dp1120
g45
(lp1121
Ve
ag1022
aVi
asba(imorph
Morph
p1122
(dp1123
g45
(lp1124
sba(imorph
Morph
p1125
(dp1126
g45
(lp1127
sba(imorph
Morph
p1128
(dp1129
g45
(lp1130
sba(imorph
Morph
p1131
(dp1132
g45
(lp1133
sba(imorph
Morph
p1134
(dp1135
g45
(lp1136
sbasbF7101.0034658908844
tp1137
a(g6
(g7
g8
NtRp1138
(dp1139
g11
(lp1140
(irule
Rule
p1141
(dp1142
g15
(irule
Guard
p1143
(dp1144
g18
I00
sg19
(lp1145
(irule
FeatureMatrix
p1146
(dp1147
g28
(lp1148
(I01
S'palletized'
p1149
tp1150
asg22
V[ +palletized ]
p1151
sbasg21
I00
sg22
g1151
sg23
I00
sg24
S'L'
sbsg25
(irule
ConstantPhoneme
p1152
(dp1153
S'p'
Ve
sbsg31
(irule
Guard
p1154
(dp1155
g18
I00
sg19
(lp1156
(irule
FeatureMatrix
p1157
(dp1158
g28
(lp1159
(I01
S'voice'
tp1160
asg22
V[ +voice ]
p1161
sba(irule
FeatureMatrix
p1162
(dp1163
g28
(lp1164
sg22
V[  ]
p1165
sbasg21
I00
sg22
V[ +voice ] [  ]
p1166
sg23
I00
sg24
S'R'
sbsg35
(irule
FeatureMatrix
p1167
(dp1168
g28
(lp1169
sg22
V[  ]
p1170
sbsg22
V[  ] ---> e / [ +palletized ] _ [ +voice ] [  ]
p1171
sba(irule
Rule
p1172
(dp1173
g15
(irule
Guard
p1174
(dp1175
g18
I00
sg19
(lp1176
sg21
I00
sg22
V
sg23
I00
sg24
S'L'
sbsg25
(irule
FeatureMatrix
p1177
(dp1178
g28
(lp1179
(I01
g1149
tp1180
asg22
V[ +palletized ]
p1181
sbsg31
(irule
Guard
p1182
(dp1183
g18
I00
sg19
(lp1184
(irule
ConstantPhoneme
p1185
(dp1186
S'p'
Vi
sbasg21
I00
sg22
Vi
sg23
I00
sg24
S'R'
sbsg35
(irule
FeatureMatrix
p1187
(dp1188
g28
(lp1189
sg22
V[  ]
p1190
sbsg22
V[  ] ---> [ +palletized ] /  _ i
p1191
sba(irule
Rule
p1192
(dp1193
g15
(irule
Guard
p1194
(dp1195
g18
I00
sg19
(lp1196
sg21
I00
sg22
V
sg23
I00
sg24
S'L'
sbsg25
(irule
FeatureMatrix
p1197
(dp1198
g28
(lp1199
(I00
S'palletized'
tp1200
asg22
V[ -palletized ]
p1201
sbsg31
(irule
Guard
p1202
(dp1203
g18
I00
sg19
(lp1204
(irule
ConstantPhoneme
p1205
(dp1206
S'p'
Ve
sbasg21
I00
sg22
Ve
sg23
I00
sg24
S'R'
sbsg35
(irule
FeatureMatrix
p1207
(dp1208
g28
(lp1209
(I00
S'glide'
tp1210
asg22
V[ -glide ]
p1211
sbsg22
V[ -glide ] ---> [ -palletized ] /  _ e
p1212
sbasg41
(lp1213
(imorph
Morph
p1214
(dp1215
g45
(lp1216
sba(imorph
Morph
p1217
(dp1218
g45
(lp1219
sba(imorph
Morph
p1220
(dp1221
g45
(lp1222
sba(imorph
Morph
p1223
(dp1224
g45
(lp1225
sba(imorph
Morph
p1226
(dp1227
g45
(lp1228
sba(imorph
Morph
p1229
(dp1230
g45
(lp1231
sba(imorph
Morph
p1232
(dp1233
g45
(lp1234
sba(imorph
Morph
p1235
(dp1236
g45
(lp1237
sba(imorph
Morph
p1238
(dp1239
g45
(lp1240
sba(imorph
Morph
p1241
(dp1242
g45
(lp1243
sbasg74
(dp1244
((imorph
Morph
(dp1245
g45
(lp1246
Vk
aVo
aV\u0161^y
p1247
aVi
aVl^y
p1248
asb(imorph
Morph
(dp1249
g45
(lp1250
Vk
aVo
aV\u0161
aVe
aVl^y
p1251
aVa
aVm
asb(imorph
Morph
(dp1252
g45
(lp1253
Vk
aVo
aV\u0161
aVe
aVl
aVe
aVv^y
p1254
aVi
asb(imorph
Morph
(dp1255
g45
(lp1256
Vk
aVo
aV\u0161
aVe
aVl^y
p1257
aVi
asbNNNNNNtp1258
(imorph
Morph
p1259
(dp1260
g45
(lp1261
Vk
aVo
aV\u0161^y
p1262
aVi
aVl^y
p1263
asbs((imorph
Morph
(dp1264
g45
(lp1265
Vk
aVa
aVm^y
p1266
aVi
aVn^y
p1267
asb(imorph
Morph
(dp1268
g45
(lp1269
Vk
aVa
aVm
aVe
aVn^y
p1270
aVa
aVm
asb(imorph
Morph
(dp1271
g45
(lp1272
Vk
aVa
aVm
aVe
aVn
aVe
aVv^y
p1273
aVi
asb(imorph
Morph
(dp1274
g45
(lp1275
Vk
aVa
aVm
aVe
aVn^y
p1276
aVi
asbNNNNNNtp1277
(imorph
Morph
p1278
(dp1279
g45
(lp1280
Vk
aVa
aVm^y
p1281
aVi
aVn^y
p1282
asbs((imorph
Morph
(dp1283
g45
(lp1284
Vm^y
p1285
aVi
aVs^y
p1286
aVa
aVt^s^y
p1287
asb(imorph
Morph
(dp1288
g45
(lp1289
Vm^y
p1290
aVi
aVs^y
p1291
aVa
aVt^s^y
p1292
aVa
aVm
asb(imorph
Morph
(dp1293
g45
(lp1294
Vm^y
p1295
aVi
aVs^y
p1296
aVa
aVt^s
p1297
aVe
aVv^y
p1298
aVi
asb(imorph
Morph
(dp1299
g45
(lp1300
Vm^y
p1301
aVi
aVs^y
p1302
aVa
aVt^s^y
p1303
aVi
asbNNNNNNtp1304
(imorph
Morph
p1305
(dp1306
g45
(lp1307
g1281
aVi
aVs^y
p1308
aVa
aVt^s^y
p1309
asbs((imorph
Morph
(dp1310
g45
(lp1311
Vz
aVl
aVo
aVd^y
p1312
aVi
aVy
asb(imorph
Morph
(dp1313
g45
(lp1314
Vz
aVl
aVo
aVd^y
p1315
aVi
aVy
aVa
aVm
asb(imorph
Morph
(dp1316
g45
(lp1317
Vz
aVl
aVo
aVd^y
p1318
aVi
aVy
aVe
aVv^y
p1319
aVi
asbN(imorph
Morph
(dp1320
g45
(lp1321
Vz
aVl
aVo
aVd^y
p1322
aVi
aVy
aVe
aVv^y
p1323
aVi
asbNNNNNtp1324
(imorph
Morph
p1325
(dp1326
g45
(lp1327
Vz
aVl
aVo
aVd
aVi
aVy
asbs((imorph
Morph
(dp1328
g45
(lp1329
Vs
aVv^y
p1330
aVi
aVt
asb(imorph
Morph
(dp1331
g45
(lp1332
Vs
aVv^y
p1333
aVi
aVt
aVa
aVm
asb(imorph
Morph
(dp1334
g45
(lp1335
Vs
aVv^y
p1336
aVi
aVt
aVo
aVv^y
p1337
aVi
asb(imorph
Morph
(dp1338
g45
(lp1339
Vs
aVv^y
p1340
aVi
aVt^y
p1341
aVi
asbNNNNNNtp1342
(imorph
Morph
p1343
(dp1344
g45
(lp1345
Vs
aVv^y
p1346
aVi
aVt
asbs((imorph
Morph
(dp1347
g45
(lp1348
Vz^y
p1349
aVa
aVt^y
p1350
asb(imorph
Morph
(dp1351
g45
(lp1352
Vz^y
p1353
aVa
aVt^y
p1354
aVa
aVm
asb(imorph
Morph
(dp1355
g45
(lp1356
Vz^y
p1357
aVa
aVt
aVe
aVv^y
p1358
aVi
asbN(imorph
Morph
(dp1359
g45
(lp1360
Vz^y
p1361
aVa
aVt
aVe
aVv^y
p1362
aVi
asbNNNNNtp1363
(imorph
Morph
p1364
(dp1365
g45
(lp1366
Vz^y
p1367
aVa
aVt^y
p1368
asbs((imorph
Morph
(dp1369
g45
(lp1370
Vz
aVu
aVb
asb(imorph
Morph
(dp1371
g45
(lp1372
Vz
aVu
aVb
aVa
aVm
asb(imorph
Morph
(dp1373
g45
(lp1374
Vz
aVu
aVb
aVo
aVv^y
p1375
aVi
asb(imorph
Morph
(dp1376
g45
(lp1377
Vz
aVu
aVb^y
p1378
aVi
asbNNNNNNtp1379
(imorph
Morph
p1380
(dp1381
g45
(lp1382
Vz
aVu
aVb
asbs((imorph
Morph
(dp1383
g45
(lp1384
Vk
aVo
aVr
aVo
aVv
aVa
aVy
asb(imorph
Morph
(dp1385
g45
(lp1386
Vk
aVo
aVr
aVo
aVv
aVa
aVy
aVa
aVm
asb(imorph
Morph
(dp1387
g45
(lp1388
Vk
aVo
aVr
aVo
aVv
aVa
aVy
aVe
aVv^y
p1389
aVi
asb(imorph
Morph
(dp1390
g45
(lp1391
Vk
aVo
aVr
aVo
aVv
aVa
aVy
aVi
asbNNNNNNtp1392
(imorph
Morph
p1393
(dp1394
g45
(lp1395
Vk
aVo
aVr
aVo
aVv
aVa
aVy
asbssg94
(lp1396
(imorph
Morph
p1397
(dp1398
g45
(lp1399
sba(imorph
Morph
p1400
(dp1401
g45
(lp1402
Va
aVm
asba(imorph
Morph
p1403
(dp1404
g45
(lp1405
Vo
aVv^y
p1406
aVi
asba(imorph
Morph
p1407
(dp1408
g45
(lp1409
Vi
asba(imorph
Morph
p1410
(dp1411
g45
(lp1412
Ve
ag1346
aVi
asba(imorph
Morph
p1413
(dp1414
g45
(lp1415
sba(imorph
Morph
p1416
(dp1417
g45
(lp1418
sba(imorph
Morph
p1419
(dp1420
g45
(lp1421
sba(imorph
Morph
p1422
(dp1423
g45
(lp1424
sba(imorph
Morph
p1425
(dp1426
g45
(lp1427
sbasbF9076.5744791030884
tp1428
a(g6
(g7
g8
NtRp1429
(dp1430
g11
(lp1431
(irule
Rule
p1432
(dp1433
g15
(irule
Guard
p1434
(dp1435
g18
I00
sg19
(lp1436
sg21
I00
sg22
V
sg23
I00
sg24
S'L'
sbsg25
(irule
ConstantPhoneme
p1437
(dp1438
S'p'
Vw
sbsg31
(irule
Guard
p1439
(dp1440
g18
I01
sg19
(lp1441
sg21
I00
sg22
V#
sg23
I00
sg24
S'R'
sbsg35
(irule
ConstantPhoneme
p1442
(dp1443
S'p'
Vv
sbsg22
Vv ---> w /  _ #
p1444
sba(irule
Rule
p1445
(dp1446
g15
(irule
Guard
p1447
(dp1448
g18
I00
sg19
(lp1449
(irule
FeatureMatrix
p1450
(dp1451
g28
(lp1452
(I01
S'palletized'
p1453
tp1454
asg22
V[ +palletized ]
p1455
sbasg21
I00
sg22
g1455
sg23
I00
sg24
S'L'
sbsg25
(irule
ConstantPhoneme
p1456
(dp1457
S'p'
Ve
sbsg31
(irule
Guard
p1458
(dp1459
g18
I00
sg19
(lp1460
(irule
FeatureMatrix
p1461
(dp1462
g28
(lp1463
(I01
S'voice'
tp1464
asg22
V[ +voice ]
p1465
sba(irule
FeatureMatrix
p1466
(dp1467
g28
(lp1468
sg22
V[  ]
p1469
sbasg21
I00
sg22
V[ +voice ] [  ]
p1470
sg23
I00
sg24
S'R'
sbsg35
(irule
FeatureMatrix
p1471
(dp1472
g28
(lp1473
sg22
V[  ]
p1474
sbsg22
V[  ] ---> e / [ +palletized ] _ [ +voice ] [  ]
p1475
sba(irule
Rule
p1476
(dp1477
g15
(irule
Guard
p1478
(dp1479
g18
I00
sg19
(lp1480
sg21
I00
sg22
V
sg23
I00
sg24
S'L'
sbsg25
(irule
FeatureMatrix
p1481
(dp1482
g28
(lp1483
(I01
g1453
tp1484
asg22
V[ +palletized ]
p1485
sbsg31
(irule
Guard
p1486
(dp1487
g18
I00
sg19
(lp1488
(irule
ConstantPhoneme
p1489
(dp1490
S'p'
Vi
sbasg21
I00
sg22
Vi
sg23
I00
sg24
S'R'
sbsg35
(irule
FeatureMatrix
p1491
(dp1492
g28
(lp1493
sg22
V[  ]
p1494
sbsg22
V[  ] ---> [ +palletized ] /  _ i
p1495
sba(irule
Rule
p1496
(dp1497
g15
(irule
Guard
p1498
(dp1499
g18
I00
sg19
(lp1500
sg21
I00
sg22
V
sg23
I00
sg24
S'L'
sbsg25
(irule
FeatureMatrix
p1501
(dp1502
g28
(lp1503
(I00
S'palletized'
tp1504
asg22
V[ -palletized ]
p1505
sbsg31
(irule
Guard
p1506
(dp1507
g18
I00
sg19
(lp1508
(irule
ConstantPhoneme
p1509
(dp1510
S'p'
Ve
sbasg21
I00
sg22
Ve
sg23
I00
sg24
S'R'
sbsg35
(irule
FeatureMatrix
p1511
(dp1512
g28
(lp1513
(I00
S'glide'
tp1514
asg22
V[ -glide ]
p1515
sbsg22
V[ -glide ] ---> [ -palletized ] /  _ e
p1516
sbasg41
(lp1517
(imorph
Morph
p1518
(dp1519
g45
(lp1520
sba(imorph
Morph
p1521
(dp1522
g45
(lp1523
sba(imorph
Morph
p1524
(dp1525
g45
(lp1526
sba(imorph
Morph
p1527
(dp1528
g45
(lp1529
sba(imorph
Morph
p1530
(dp1531
g45
(lp1532
sba(imorph
Morph
p1533
(dp1534
g45
(lp1535
sba(imorph
Morph
p1536
(dp1537
g45
(lp1538
sba(imorph
Morph
p1539
(dp1540
g45
(lp1541
sba(imorph
Morph
p1542
(dp1543
g45
(lp1544
sba(imorph
Morph
p1545
(dp1546
g45
(lp1547
sbasg74
(dp1548
((imorph
Morph
(dp1549
g45
(lp1550
Vk
aVa
aVm^y
p1551
aVi
aVn^y
p1552
asb(imorph
Morph
(dp1553
g45
(lp1554
Vk
aVa
aVm
aVe
aVn^y
p1555
aVa
aVm
asb(imorph
Morph
(dp1556
g45
(lp1557
Vk
aVa
aVm
aVe
aVn
aVe
aVv^y
p1558
aVi
asb(imorph
Morph
(dp1559
g45
(lp1560
Vk
aVa
aVm
aVe
aVn^y
p1561
aVi
asbNNNNNNtp1562
(imorph
Morph
p1563
(dp1564
g45
(lp1565
Vk
aVa
aVm^y
p1566
aVi
aVn^y
p1567
asbs((imorph
Morph
(dp1568
g45
(lp1569
Vm^y
p1570
aVi
aVd^y
p1571
asb(imorph
Morph
(dp1572
g45
(lp1573
Vm^y
p1574
aVi
aVd^y
p1575
aVa
aVm
asb(imorph
Morph
(dp1576
g45
(lp1577
Vm^y
p1578
aVi
aVd
aVe
aVv^y
p1579
aVi
asb(imorph
Morph
(dp1580
g45
(lp1581
Vm^y
p1582
aVi
aVd^y
p1583
aVi
asbNNNNNNtp1584
(imorph
Morph
p1585
(dp1586
g45
(lp1587
Vm
aVi
aVd^y
p1588
asbs((imorph
Morph
(dp1589
g45
(lp1590
Vk
aVo
aV\u0161^y
p1591
aVi
aVl^y
p1592
asb(imorph
Morph
(dp1593
g45
(lp1594
Vk
aVo
aV\u0161
aVe
aVl^y
p1595
aVa
aVm
asb(imorph
Morph
(dp1596
g45
(lp1597
Vk
aVo
aV\u0161
aVe
aVl
aVe
aVv^y
p1598
aVi
asb(imorph
Morph
(dp1599
g45
(lp1600
Vk
aVo
aV\u0161
aVe
aVl^y
p1601
aVi
asbNNNNNNtp1602
(imorph
Morph
p1603
(dp1604
g45
(lp1605
Vk
aVo
aV\u0161^y
p1606
aVi
aVl^y
p1607
asbs((imorph
Morph
(dp1608
g45
(lp1609
Vx
aVl^y
p1610
aVi
aVw
asb(imorph
Morph
(dp1611
g45
(lp1612
Vx
aVl^y
p1613
aVi
aVv
aVa
aVm
asb(imorph
Morph
(dp1614
g45
(lp1615
Vx
aVl^y
p1616
aVi
aVv
aVo
aVv^y
p1617
aVi
asb(imorph
Morph
(dp1618
g45
(lp1619
Vx
aVl^y
p1620
aVi
aVv^y
p1621
aVi
asbNNNNNNtp1622
(imorph
Morph
p1623
(dp1624
g45
(lp1625
Vx
aVl
aVi
aVv
asbs((imorph
Morph
(dp1626
g45
(lp1627
Vs
aVv^y
p1628
aVi
aVt
asb(imorph
Morph
(dp1629
g45
(lp1630
Vs
aVv^y
p1631
aVi
aVt
aVa
aVm
asb(imorph
Morph
(dp1632
g45
(lp1633
Vs
aVv^y
p1634
aVi
aVt
aVo
aVv^y
p1635
aVi
asb(imorph
Morph
(dp1636
g45
(lp1637
Vs
aVv^y
p1638
aVi
aVt^y
p1639
aVi
asbNNNNNNtp1640
(imorph
Morph
p1641
(dp1642
g45
(lp1643
Vs
aVv^y
p1644
aVi
aVt
asbs((imorph
Morph
(dp1645
g45
(lp1646
Vz
aVl
aVo
aVd^y
p1647
aVi
aVy
asb(imorph
Morph
(dp1648
g45
(lp1649
Vz
aVl
aVo
aVd^y
p1650
aVi
aVy
aVa
aVm
asb(imorph
Morph
(dp1651
g45
(lp1652
Vz
aVl
aVo
aVd^y
p1653
aVi
aVy
aVe
aVv^y
p1654
aVi
asbN(imorph
Morph
(dp1655
g45
(lp1656
Vz
aVl
aVo
aVd^y
p1657
aVi
aVy
aVe
aVv^y
p1658
aVi
asbNNNNNtp1659
(imorph
Morph
p1660
(dp1661
g45
(lp1662
Vz
aVl
aVo
aVd
aVi
aVy
asbs((imorph
Morph
(dp1663
g45
(lp1664
Vm^y
p1665
aVi
aVs^y
p1666
aVa
aVt^s^y
p1667
asb(imorph
Morph
(dp1668
g45
(lp1669
Vm^y
p1670
aVi
aVs^y
p1671
aVa
aVt^s^y
p1672
aVa
aVm
asb(imorph
Morph
(dp1673
g45
(lp1674
Vm^y
p1675
aVi
aVs^y
p1676
aVa
aVt^s
p1677
aVe
aVv^y
p1678
aVi
asb(imorph
Morph
(dp1679
g45
(lp1680
Vm^y
p1681
aVi
aVs^y
p1682
aVa
aVt^s^y
p1683
aVi
asbNNNNNNtp1684
(imorph
Morph
p1685
(dp1686
g45
(lp1687
g1566
aVi
aVs^y
p1688
aVa
aVt^s^y
p1689
asbs((imorph
Morph
(dp1690
g45
(lp1691
Vz^y
p1692
aVa
aVt^y
p1693
asb(imorph
Morph
(dp1694
g45
(lp1695
Vz^y
p1696
aVa
aVt^y
p1697
aVa
aVm
asb(imorph
Morph
(dp1698
g45
(lp1699
Vz^y
p1700
aVa
aVt
aVe
aVv^y
p1701
aVi
asbN(imorph
Morph
(dp1702
g45
(lp1703
Vz^y
p1704
aVa
aVt
aVe
aVv^y
p1705
aVi
asbNNNNNtp1706
(imorph
Morph
p1707
(dp1708
g45
(lp1709
Vz^y
p1710
aVa
aVt^y
p1711
asbs((imorph
Morph
(dp1712
g45
(lp1713
Vz
aVu
aVb
asb(imorph
Morph
(dp1714
g45
(lp1715
Vz
aVu
aVb
aVa
aVm
asb(imorph
Morph
(dp1716
g45
(lp1717
Vz
aVu
aVb
aVo
aVv^y
p1718
aVi
asb(imorph
Morph
(dp1719
g45
(lp1720
Vz
aVu
aVb^y
p1721
aVi
asbNNNNNNtp1722
(imorph
Morph
p1723
(dp1724
g45
(lp1725
Vz
aVu
aVb
asbs((imorph
Morph
(dp1726
g45
(lp1727
Vk
aVo
aVr
aVo
aVv
aVa
aVy
asb(imorph
Morph
(dp1728
g45
(lp1729
Vk
aVo
aVr
aVo
aVv
aVa
aVy
aVa
aVm
asb(imorph
Morph
(dp1730
g45
(lp1731
Vk
aVo
aVr
aVo
aVv
aVa
aVy
aVe
aVv^y
p1732
aVi
asb(imorph
Morph
(dp1733
g45
(lp1734
Vk
aVo
aVr
aVo
aVv
aVa
aVy
aVi
asbNNNNNNtp1735
(imorph
Morph
p1736
(dp1737
g45
(lp1738
Vk
aVo
aVr
aVo
aVv
aVa
aVy
asbssg94
(lp1739
(imorph
Morph
p1740
(dp1741
g45
(lp1742
sba(imorph
Morph
p1743
(dp1744
g45
(lp1745
Va
aVm
asba(imorph
Morph
p1746
(dp1747
g45
(lp1748
Vo
aVv^y
p1749
aVi
asba(imorph
Morph
p1750
(dp1751
g45
(lp1752
Vi
asba(imorph
Morph
p1753
(dp1754
g45
(lp1755
Ve
ag1644
aVi
asba(imorph
Morph
p1756
(dp1757
g45
(lp1758
sba(imorph
Morph
p1759
(dp1760
g45
(lp1761
sba(imorph
Morph
p1762
(dp1763
g45
(lp1764
sba(imorph
Morph
p1765
(dp1766
g45
(lp1767
sba(imorph
Morph
p1768
(dp1769
g45
(lp1770
sbasbF10938.967752933502
tp1771
a(g6
(g7
g8
NtRp1772
(dp1773
g11
(lp1774
(irule
Rule
p1775
(dp1776
g15
(irule
Guard
p1777
(dp1778
g18
I00
sg19
(lp1779
sg21
I00
sg22
V
sg23
I00
sg24
S'L'
sbsg25
(irule
ConstantPhoneme
p1780
(dp1781
S'p'
Vo
sbsg31
(irule
Guard
p1782
(dp1783
g18
I00
sg19
(lp1784
(irule
FeatureMatrix
p1785
(dp1786
g28
(lp1787
sg22
V[  ]
p1788
sbasg21
I00
sg22
g1788
sg23
I00
sg24
S'R'
sbsg35
(irule
ConstantPhoneme
p1789
(dp1790
S'p'
Ve
sbsg22
Ve ---> o /  _ [  ]
p1791
sba(irule
Rule
p1792
(dp1793
g15
(irule
Guard
p1794
(dp1795
g18
I00
sg19
(lp1796
sg21
I00
sg22
V
sg23
I00
sg24
S'L'
sbsg25
(irule
ConstantPhoneme
p1797
(dp1798
S'p'
Vw
sbsg31
(irule
Guard
p1799
(dp1800
g18
I01
sg19
(lp1801
sg21
I00
sg22
V#
sg23
I00
sg24
S'R'
sbsg35
(irule
ConstantPhoneme
p1802
(dp1803
S'p'
Vv
sbsg22
Vv ---> w /  _ #
p1804
sba(irule
Rule
p1805
(dp1806
g15
(irule
Guard
p1807
(dp1808
g18
I00
sg19
(lp1809
(irule
FeatureMatrix
p1810
(dp1811
g28
(lp1812
(I01
S'palletized'
p1813
tp1814
asg22
V[ +palletized ]
p1815
sbasg21
I00
sg22
g1815
sg23
I00
sg24
S'L'
sbsg25
(irule
ConstantPhoneme
p1816
(dp1817
S'p'
Ve
sbsg31
(irule
Guard
p1818
(dp1819
g18
I00
sg19
(lp1820
(irule
FeatureMatrix
p1821
(dp1822
g28
(lp1823
(I01
S'voice'
tp1824
asg22
V[ +voice ]
p1825
sba(irule
FeatureMatrix
p1826
(dp1827
g28
(lp1828
sg22
V[  ]
p1829
sbasg21
I00
sg22
V[ +voice ] [  ]
p1830
sg23
I00
sg24
S'R'
sbsg35
(irule
FeatureMatrix
p1831
(dp1832
g28
(lp1833
sg22
V[  ]
p1834
sbsg22
V[  ] ---> e / [ +palletized ] _ [ +voice ] [  ]
p1835
sba(irule
Rule
p1836
(dp1837
g15
(irule
Guard
p1838
(dp1839
g18
I00
sg19
(lp1840
sg21
I00
sg22
V
sg23
I00
sg24
S'L'
sbsg25
(irule
FeatureMatrix
p1841
(dp1842
g28
(lp1843
(I01
g1813
tp1844
asg22
V[ +palletized ]
p1845
sbsg31
(irule
Guard
p1846
(dp1847
g18
I00
sg19
(lp1848
(irule
ConstantPhoneme
p1849
(dp1850
S'p'
Vi
sbasg21
I00
sg22
Vi
sg23
I00
sg24
S'R'
sbsg35
(irule
FeatureMatrix
p1851
(dp1852
g28
(lp1853
sg22
V[  ]
p1854
sbsg22
V[  ] ---> [ +palletized ] /  _ i
p1855
sba(irule
Rule
p1856
(dp1857
g15
(irule
Guard
p1858
(dp1859
g18
I00
sg19
(lp1860
sg21
I00
sg22
V
sg23
I00
sg24
S'L'
sbsg25
(irule
FeatureMatrix
p1861
(dp1862
g28
(lp1863
(I00
S'palletized'
tp1864
asg22
V[ -palletized ]
p1865
sbsg31
(irule
Guard
p1866
(dp1867
g18
I00
sg19
(lp1868
(irule
ConstantPhoneme
p1869
(dp1870
S'p'
Ve
sbasg21
I00
sg22
Ve
sg23
I00
sg24
S'R'
sbsg35
(irule
FeatureMatrix
p1871
(dp1872
g28
(lp1873
(I00
S'glide'
tp1874
asg22
V[ -glide ]
p1875
sbsg22
V[ -glide ] ---> [ -palletized ] /  _ e
p1876
sbasg41
(lp1877
(imorph
Morph
p1878
(dp1879
g45
(lp1880
sba(imorph
Morph
p1881
(dp1882
g45
(lp1883
sba(imorph
Morph
p1884
(dp1885
g45
(lp1886
sba(imorph
Morph
p1887
(dp1888
g45
(lp1889
sba(imorph
Morph
p1890
(dp1891
g45
(lp1892
sba(imorph
Morph
p1893
(dp1894
g45
(lp1895
sba(imorph
Morph
p1896
(dp1897
g45
(lp1898
sba(imorph
Morph
p1899
(dp1900
g45
(lp1901
sba(imorph
Morph
p1902
(dp1903
g45
(lp1904
sba(imorph
Morph
p1905
(dp1906
g45
(lp1907
sbasg74
(dp1908
((imorph
Morph
(dp1909
g45
(lp1910
Vk
aVa
aVm^y
p1911
aVi
aVn^y
p1912
asb(imorph
Morph
(dp1913
g45
(lp1914
Vk
aVa
aVm
aVe
aVn^y
p1915
aVa
aVm
asb(imorph
Morph
(dp1916
g45
(lp1917
Vk
aVa
aVm
aVe
aVn
aVe
aVv^y
p1918
aVi
asb(imorph
Morph
(dp1919
g45
(lp1920
Vk
aVa
aVm
aVe
aVn^y
p1921
aVi
asbNNNNNNtp1922
(imorph
Morph
p1923
(dp1924
g45
(lp1925
Vk
aVa
aVm^y
p1926
aVi
aVn^y
p1927
asbs((imorph
Morph
(dp1928
g45
(lp1929
Vl
aVe
aVb^y
p1930
aVi
aVd^y
p1931
asb(imorph
Morph
(dp1932
g45
(lp1933
Vl
aVe
aVb
aVe
aVd^y
p1934
aVa
aVm
asb(imorph
Morph
(dp1935
g45
(lp1936
Vl
aVe
aVb
aVe
aVd
aVe
aVv^y
p1937
aVi
asb(imorph
Morph
(dp1938
g45
(lp1939
Vl
aVe
aVb
aVe
aVd^y
p1940
aVi
asbNNNNNNtp1941
(imorph
Morph
p1942
(dp1943
g45
(lp1944
Vl^y
p1945
aVe
aVb^y
p1946
aVi
aVd^y
p1947
asbs((imorph
Morph
(dp1948
g45
(lp1949
Vm^y
p1950
aVi
aVd^y
p1951
asb(imorph
Morph
(dp1952
g45
(lp1953
Vm^y
p1954
aVi
aVd^y
p1955
aVa
aVm
asb(imorph
Morph
(dp1956
g45
(lp1957
Vm^y
p1958
aVi
aVd
aVe
aVv^y
p1959
aVi
asb(imorph
Morph
(dp1960
g45
(lp1961
Vm^y
p1962
aVi
aVd^y
p1963
aVi
asbNNNNNNtp1964
(imorph
Morph
p1965
(dp1966
g45
(lp1967
Vm
aVi
ag1947
asbs((imorph
Morph
(dp1968
g45
(lp1969
Vk
aVo
aV\u0161^y
p1970
aVi
aVl^y
p1971
asb(imorph
Morph
(dp1972
g45
(lp1973
Vk
aVo
aV\u0161
aVe
aVl^y
p1974
aVa
aVm
asb(imorph
Morph
(dp1975
g45
(lp1976
Vk
aVo
aV\u0161
aVe
aVl
aVe
aVv^y
p1977
aVi
asb(imorph
Morph
(dp1978
g45
(lp1979
Vk
aVo
aV\u0161
aVe
aVl^y
p1980
aVi
asbNNNNNNtp1981
(imorph
Morph
p1982
(dp1983
g45
(lp1984
Vk
aVo
aV\u0161^y
p1985
aVi
aVl^y
p1986
asbs((imorph
Morph
(dp1987
g45
(lp1988
Vs^y
p1989
aVi
aVn
asb(imorph
Morph
(dp1990
g45
(lp1991
Vs^y
p1992
aVi
aVn
aVa
aVm
asb(imorph
Morph
(dp1993
g45
(lp1994
Vs^y
p1995
aVi
aVn
aVo
aVv^y
p1996
aVi
asb(imorph
Morph
(dp1997
g45
(lp1998
Vs^y
p1999
aVi
aVn^y
p2000
aVi
asbNNNNNNtp2001
(imorph
Morph
p2002
(dp2003
g45
(lp2004
Vs
aVi
aVn
asbs((imorph
Morph
(dp2005
g45
(lp2006
Vs
aVu
aVs^y
p2007
aVi
aVd
asb(imorph
Morph
(dp2008
g45
(lp2009
Vs
aVu
aVs^y
p2010
aVi
aVd
aVa
aVm
asb(imorph
Morph
(dp2011
g45
(lp2012
Vs
aVu
aVs^y
p2013
aVi
aVd
aVo
aVv^y
p2014
aVi
asbN(imorph
Morph
(dp2015
g45
(lp2016
Vs
aVu
aVs^y
p2017
aVi
aVd
aVo
aVv^y
p2018
aVi
asbNNNNNtp2019
(imorph
Morph
p2020
(dp2021
g45
(lp2022
Vs
aVu
aVs
aVi
aVd
asbs((imorph
Morph
(dp2023
g45
(lp2024
Vx
aVl^y
p2025
aVi
aVw
asb(imorph
Morph
(dp2026
g45
(lp2027
Vx
aVl^y
p2028
aVi
aVv
aVa
aVm
asb(imorph
Morph
(dp2029
g45
(lp2030
Vx
aVl^y
p2031
aVi
aVv
aVo
aVv^y
p2032
aVi
asb(imorph
Morph
(dp2033
g45
(lp2034
Vx
aVl^y
p2035
aVi
aVv^y
p2036
aVi
asbNNNNNNtp2037
(imorph
Morph
p2038
(dp2039
g45
(lp2040
Vx
aVl
aVi
aVv
asbs((imorph
Morph
(dp2041
g45
(lp2042
Vm^y
p2043
aVi
aVs^y
p2044
aVa
aVt^s^y
p2045
asb(imorph
Morph
(dp2046
g45
(lp2047
Vm^y
p2048
aVi
aVs^y
p2049
aVa
aVt^s^y
p2050
aVa
aVm
asb(imorph
Morph
(dp2051
g45
(lp2052
Vm^y
p2053
aVi
aVs^y
p2054
aVa
aVt^s
p2055
aVe
aVv^y
p2056
aVi
asb(imorph
Morph
(dp2057
g45
(lp2058
Vm^y
p2059
aVi
aVs^y
p2060
aVa
aVt^s^y
p2061
aVi
asbNNNNNNtp2062
(imorph
Morph
p2063
(dp2064
g45
(lp2065
Vm^y
p2066
aVi
aVs^y
p2067
aVa
aVt^s^y
p2068
asbs((imorph
Morph
(dp2069
g45
(lp2070
Vz
aVl
aVo
aVd^y
p2071
aVi
aVy
asb(imorph
Morph
(dp2072
g45
(lp2073
Vz
aVl
aVo
aVd^y
p2074
aVi
aVy
aVa
aVm
asb(imorph
Morph
(dp2075
g45
(lp2076
Vz
aVl
aVo
aVd^y
p2077
aVi
aVy
aVe
aVv^y
p2078
aVi
asbN(imorph
Morph
(dp2079
g45
(lp2080
Vz
aVl
aVo
aVd^y
p2081
aVi
aVy
aVe
aVv^y
p2082
aVi
asbNNNNNtp2083
(imorph
Morph
p2084
(dp2085
g45
(lp2086
Vz
aVl
aVo
aVd
aVi
aVy
asbs((imorph
Morph
(dp2087
g45
(lp2088
Vh
aVo
aVl
aVu
aVb
asb(imorph
Morph
(dp2089
g45
(lp2090
Vh
aVo
aVl
aVu
aVb
aVa
aVm
asb(imorph
Morph
(dp2091
g45
(lp2092
Vh
aVo
aVl
aVu
aVb
aVo
aVv^y
p2093
aVi
asb(imorph
Morph
(dp2094
g45
(lp2095
Vh
aVo
aVl
aVu
aVb^y
p2096
aVi
asbNNNNNNtp2097
(imorph
Morph
p2098
(dp2099
g45
(lp2100
Vh
aVo
aVl
aVu
aVb
asbs((imorph
Morph
(dp2101
g45
(lp2102
Vs
aVv^y
p2103
aVi
aVt
asb(imorph
Morph
(dp2104
g45
(lp2105
Vs
aVv^y
p2106
aVi
aVt
aVa
aVm
asb(imorph
Morph
(dp2107
g45
(lp2108
Vs
aVv^y
p2109
aVi
aVt
aVo
aVv^y
p2110
aVi
asb(imorph
Morph
(dp2111
g45
(lp2112
Vs
aVv^y
p2113
aVi
aVt^y
p2114
aVi
asbNNNNNNtp2115
(imorph
Morph
p2116
(dp2117
g45
(lp2118
Vs
aVv^y
p2119
aVi
aVt
asbs((imorph
Morph
(dp2120
g45
(lp2121
Vz^y
p2122
aVa
aVt^y
p2123
asb(imorph
Morph
(dp2124
g45
(lp2125
Vz^y
p2126
aVa
aVt^y
p2127
aVa
aVm
asb(imorph
Morph
(dp2128
g45
(lp2129
Vz^y
p2130
aVa
aVt
aVe
aVv^y
p2131
aVi
asbN(imorph
Morph
(dp2132
g45
(lp2133
Vz^y
p2134
aVa
aVt
aVe
aVv^y
p2135
aVi
asbNNNNNtp2136
(imorph
Morph
p2137
(dp2138
g45
(lp2139
Vz^y
p2140
aVa
aVt^y
p2141
asbs((imorph
Morph
(dp2142
g45
(lp2143
Vz
aVu
aVb
asb(imorph
Morph
(dp2144
g45
(lp2145
Vz
aVu
aVb
aVa
aVm
asb(imorph
Morph
(dp2146
g45
(lp2147
Vz
aVu
aVb
aVo
aVv^y
p2148
aVi
asb(imorph
Morph
(dp2149
g45
(lp2150
Vz
aVu
aVb^y
p2151
aVi
asbNNNNNNtp2152
(imorph
Morph
p2153
(dp2154
g45
(lp2155
Vz
aVu
aVb
asbs((imorph
Morph
(dp2156
g45
(lp2157
Vk
aVo
aVr
aVo
aVv
aVa
aVy
asb(imorph
Morph
(dp2158
g45
(lp2159
Vk
aVo
aVr
aVo
aVv
aVa
aVy
aVa
aVm
asb(imorph
Morph
(dp2160
g45
(lp2161
Vk
aVo
aVr
aVo
aVv
aVa
aVy
aVe
aVv^y
p2162
aVi
asb(imorph
Morph
(dp2163
g45
(lp2164
Vk
aVo
aVr
aVo
aVv
aVa
aVy
aVi
asbNNNNNNtp2165
(imorph
Morph
p2166
(dp2167
g45
(lp2168
Vk
aVe
aVr
aVo
aVv
aVa
aVy
asbssg94
(lp2169
(imorph
Morph
p2170
(dp2171
g45
(lp2172
sba(imorph
Morph
p2173
(dp2174
g45
(lp2175
Va
aVm
asba(imorph
Morph
p2176
(dp2177
g45
(lp2178
Vo
aVv^y
p2179
aVi
asba(imorph
Morph
p2180
(dp2181
g45
(lp2182
Vi
asba(imorph
Morph
p2183
(dp2184
g45
(lp2185
Ve
ag2119
aVi
asba(imorph
Morph
p2186
(dp2187
g45
(lp2188
sba(imorph
Morph
p2189
(dp2190
g45
(lp2191
sba(imorph
Morph
p2192
(dp2193
g45
(lp2194
sba(imorph
Morph
p2195
(dp2196
g45
(lp2197
sba(imorph
Morph
p2198
(dp2199
g45
(lp2200
sbasbF16468.268676996231
tp2201
a(g6
(g7
g8
NtRp2202
(dp2203
g11
(lp2204
(irule
Rule
p2205
(dp2206
g15
(irule
Guard
p2207
(dp2208
g18
I00
sg19
(lp2209
sg21
I00
sg22
V
sg23
I00
sg24
S'L'
sbsg25
(irule
ConstantPhoneme
p2210
(dp2211
S'p'
Vo
sbsg31
(irule
Guard
p2212
(dp2213
g18
I00
sg19
(lp2214
(irule
FeatureMatrix
p2215
(dp2216
g28
(lp2217
sg22
V[  ]
p2218
sbasg21
I00
sg22
g2218
sg23
I00
sg24
S'R'
sbsg35
(irule
ConstantPhoneme
p2219
(dp2220
S'p'
Ve
sbsg22
Ve ---> o /  _ [  ]
p2221
sba(irule
Rule
p2222
(dp2223
g15
(irule
Guard
p2224
(dp2225
g18
I00
sg19
(lp2226
sg21
I00
sg22
V
sg23
I00
sg24
S'L'
sbsg25
(irule
ConstantPhoneme
p2227
(dp2228
S'p'
Vw
sbsg31
(irule
Guard
p2229
(dp2230
g18
I01
sg19
(lp2231
sg21
I00
sg22
V#
sg23
I00
sg24
S'R'
sbsg35
(irule
ConstantPhoneme
p2232
(dp2233
S'p'
Vv
sbsg22
Vv ---> w /  _ #
p2234
sba(irule
Rule
p2235
(dp2236
g15
(irule
Guard
p2237
(dp2238
g18
I00
sg19
(lp2239
(irule
FeatureMatrix
p2240
(dp2241
g28
(lp2242
(I01
S'palletized'
p2243
tp2244
asg22
V[ +palletized ]
p2245
sbasg21
I00
sg22
g2245
sg23
I00
sg24
S'L'
sbsg25
(irule
ConstantPhoneme
p2246
(dp2247
S'p'
Ve
sbsg31
(irule
Guard
p2248
(dp2249
g18
I00
sg19
(lp2250
(irule
FeatureMatrix
p2251
(dp2252
g28
(lp2253
(I01
S'voice'
tp2254
asg22
V[ +voice ]
p2255
sba(irule
FeatureMatrix
p2256
(dp2257
g28
(lp2258
sg22
V[  ]
p2259
sbasg21
I00
sg22
V[ +voice ] [  ]
p2260
sg23
I00
sg24
S'R'
sbsg35
(irule
FeatureMatrix
p2261
(dp2262
g28
(lp2263
sg22
V[  ]
p2264
sbsg22
V[  ] ---> e / [ +palletized ] _ [ +voice ] [  ]
p2265
sba(irule
Rule
p2266
(dp2267
g15
(irule
Guard
p2268
(dp2269
g18
I00
sg19
(lp2270
sg21
I00
sg22
V
sg23
I00
sg24
S'L'
sbsg25
(irule
FeatureMatrix
p2271
(dp2272
g28
(lp2273
(I01
g2243
tp2274
asg22
V[ +palletized ]
p2275
sbsg31
(irule
Guard
p2276
(dp2277
g18
I00
sg19
(lp2278
(irule
ConstantPhoneme
p2279
(dp2280
S'p'
Vi
sbasg21
I00
sg22
Vi
sg23
I00
sg24
S'R'
sbsg35
(irule
FeatureMatrix
p2281
(dp2282
g28
(lp2283
sg22
V[  ]
p2284
sbsg22
V[  ] ---> [ +palletized ] /  _ i
p2285
sba(irule
Rule
p2286
(dp2287
g15
(irule
Guard
p2288
(dp2289
g18
I00
sg19
(lp2290
sg21
I00
sg22
V
sg23
I00
sg24
S'L'
sbsg25
(irule
FeatureMatrix
p2291
(dp2292
g28
(lp2293
(I00
S'palletized'
tp2294
asg22
V[ -palletized ]
p2295
sbsg31
(irule
Guard
p2296
(dp2297
g18
I00
sg19
(lp2298
(irule
ConstantPhoneme
p2299
(dp2300
S'p'
Ve
sbasg21
I00
sg22
Ve
sg23
I00
sg24
S'R'
sbsg35
(irule
FeatureMatrix
p2301
(dp2302
g28
(lp2303
(I00
S'glide'
tp2304
asg22
V[ -glide ]
p2305
sbsg22
V[ -glide ] ---> [ -palletized ] /  _ e
p2306
sba(irule
Rule
p2307
(dp2308
g15
(irule
Guard
p2309
(dp2310
g18
I00
sg19
(lp2311
sg21
I00
sg22
V
sg23
I00
sg24
S'L'
sbsg25
(irule
ConstantPhoneme
p2312
(dp2313
S'p'
Vi
sbsg31
(irule
Guard
p2314
(dp2315
g18
I01
sg19
(lp2316
(irule
FeatureMatrix
p2317
(dp2318
g28
(lp2319
sg22
V[  ]
p2320
sbasg21
I00
sg22
V[  ] #
p2321
sg23
I00
sg24
S'R'
sbsg35
(irule
ConstantPhoneme
p2322
(dp2323
S'p'
Vo
sbsg22
Vo ---> i /  _ [  ] #
p2324
sbasg41
(lp2325
(imorph
Morph
p2326
(dp2327
g45
(lp2328
sba(imorph
Morph
p2329
(dp2330
g45
(lp2331
sba(imorph
Morph
p2332
(dp2333
g45
(lp2334
sba(imorph
Morph
p2335
(dp2336
g45
(lp2337
sba(imorph
Morph
p2338
(dp2339
g45
(lp2340
sba(imorph
Morph
p2341
(dp2342
g45
(lp2343
sba(imorph
Morph
p2344
(dp2345
g45
(lp2346
sba(imorph
Morph
p2347
(dp2348
g45
(lp2349
sba(imorph
Morph
p2350
(dp2351
g45
(lp2352
sba(imorph
Morph
p2353
(dp2354
g45
(lp2355
sbasg74
(dp2356
((imorph
Morph
(dp2357
g45
(lp2358
Vz
aVl
aVo
aVd^y
p2359
aVi
aVy
asb(imorph
Morph
(dp2360
g45
(lp2361
Vz
aVl
aVo
aVd^y
p2362
aVi
aVy
aVa
aVm
asb(imorph
Morph
(dp2363
g45
(lp2364
Vz
aVl
aVo
aVd^y
p2365
aVi
aVy
aVe
aVv^y
p2366
aVi
asbN(imorph
Morph
(dp2367
g45
(lp2368
Vz
aVl
aVo
aVd^y
p2369
aVi
aVy
aVe
aVv^y
p2370
aVi
asbNNNNNtp2371
(imorph
Morph
p2372
(dp2373
g45
(lp2374
Vz
aVl
aVo
aVd
aVi
aVy
asbs((imorph
Morph
(dp2375
g45
(lp2376
Vl^y
p2377
aVi
aVd
asb(imorph
Morph
(dp2378
g45
(lp2379
Vl
aVe
aVd
aVa
aVm
asb(imorph
Morph
(dp2380
g45
(lp2381
Vl
aVe
aVd
aVo
aVv^y
p2382
aVi
asb(imorph
Morph
(dp2383
g45
(lp2384
Vl
aVe
aVd^y
p2385
aVi
asbNNNNNNtp2386
(imorph
Morph
p2387
(dp2388
g45
(lp2389
Vl^y
p2390
aVi
aVd
asbs((imorph
Morph
(dp2391
g45
(lp2392
Vl
aVe
aVb^y
p2393
aVi
aVd^y
p2394
asb(imorph
Morph
(dp2395
g45
(lp2396
Vl
aVe
aVb
aVe
aVd^y
p2397
aVa
aVm
asb(imorph
Morph
(dp2398
g45
(lp2399
Vl
aVe
aVb
aVe
aVd
aVe
aVv^y
p2400
aVi
asb(imorph
Morph
(dp2401
g45
(lp2402
Vl
aVe
aVb
aVe
aVd^y
p2403
aVi
asbNNNNNNtp2404
(imorph
Morph
p2405
(dp2406
g45
(lp2407
g2390
aVb
aVb^y
p2408
aVi
aVd^y
p2409
asbs((imorph
Morph
(dp2410
g45
(lp2411
Vm^y
p2412
aVi
aVd^y
p2413
asb(imorph
Morph
(dp2414
g45
(lp2415
Vm^y
p2416
aVi
aVd^y
p2417
aVa
aVm
asb(imorph
Morph
(dp2418
g45
(lp2419
Vm^y
p2420
aVi
aVd
aVe
aVv^y
p2421
aVi
asb(imorph
Morph
(dp2422
g45
(lp2423
Vm^y
p2424
aVi
aVd^y
p2425
aVi
asbNNNNNNtp2426
(imorph
Morph
p2427
(dp2428
g45
(lp2429
Vm
aVi
ag2409
asbs((imorph
Morph
(dp2430
g45
(lp2431
Vc\u030c
p2432
aVo
aVl
aVo
aVv^y
p2433
aVi
aVk
asb(imorph
Morph
(dp2434
g45
(lp2435
Vc\u030c
p2436
aVo
aVl
aVo
aVv^y
p2437
aVi
aVk
aVa
aVm
asb(imorph
Morph
(dp2438
g45
(lp2439
Vc\u030c
p2440
aVo
aVl
aVo
aVv^y
p2441
aVi
aVk
aVo
aVv^y
p2442
aVi
asbN(imorph
Morph
(dp2443
g45
(lp2444
Vc\u030c
p2445
aVo
aVl
aVo
aVv^y
p2446
aVi
aVk
aVo
aVv^y
p2447
aVi
asbNNNNNtp2448
(imorph
Morph
p2449
(dp2450
g45
(lp2451
Vc\u030c
p2452
aVe
aVl
aVo
aVv
aVi
aVk
asbs((imorph
Morph
(dp2453
g45
(lp2454
Vk
aVo
aV\u0161^y
p2455
aVi
aVl^y
p2456
asb(imorph
Morph
(dp2457
g45
(lp2458
Vk
aVo
aV\u0161
aVe
aVl^y
p2459
aVa
aVm
asb(imorph
Morph
(dp2460
g45
(lp2461
Vk
aVo
aV\u0161
aVe
aVl
aVe
aVv^y
p2462
aVi
asb(imorph
Morph
(dp2463
g45
(lp2464
Vk
aVo
aV\u0161
aVe
aVl^y
p2465
aVi
asbNNNNNNtp2466
(imorph
Morph
p2467
(dp2468
g45
(lp2469
Vk
aVo
aV\u0161^y
p2470
aVi
aVl^y
p2471
asbs((imorph
Morph
(dp2472
g45
(lp2473
Vs^y
p2474
aVi
aVn
asb(imorph
Morph
(dp2475
g45
(lp2476
Vs^y
p2477
aVi
aVn
aVa
aVm
asb(imorph
Morph
(dp2478
g45
(lp2479
Vs^y
p2480
aVi
aVn
aVo
aVv^y
p2481
aVi
asb(imorph
Morph
(dp2482
g45
(lp2483
Vs^y
p2484
aVi
aVn^y
p2485
aVi
asbNNNNNNtp2486
(imorph
Morph
p2487
(dp2488
g45
(lp2489
Vs
aVi
aVn
asbs((imorph
Morph
(dp2490
g45
(lp2491
Vs
aVu
aVs^y
p2492
aVi
aVd
asb(imorph
Morph
(dp2493
g45
(lp2494
Vs
aVu
aVs^y
p2495
aVi
aVd
aVa
aVm
asb(imorph
Morph
(dp2496
g45
(lp2497
Vs
aVu
aVs^y
p2498
aVi
aVd
aVo
aVv^y
p2499
aVi
asbN(imorph
Morph
(dp2500
g45
(lp2501
Vs
aVu
aVs^y
p2502
aVi
aVd
aVo
aVv^y
p2503
aVi
asbNNNNNtp2504
(imorph
Morph
p2505
(dp2506
g45
(lp2507
Vs
aVu
aVs
aVi
aVd
asbs((imorph
Morph
(dp2508
g45
(lp2509
Vx
aVl^y
p2510
aVi
aVw
asb(imorph
Morph
(dp2511
g45
(lp2512
Vx
aVl^y
p2513
aVi
aVv
aVa
aVm
asb(imorph
Morph
(dp2514
g45
(lp2515
Vx
aVl^y
p2516
aVi
aVv
aVo
aVv^y
p2517
aVi
asb(imorph
Morph
(dp2518
g45
(lp2519
Vx
aVl^y
p2520
aVi
aVv^y
p2521
aVi
asbNNNNNNtp2522
(imorph
Morph
p2523
(dp2524
g45
(lp2525
Vx
aVl
aVi
aVv
asbs((imorph
Morph
(dp2526
g45
(lp2527
Vm^y
p2528
aVi
aVs^y
p2529
aVa
aVt^s^y
p2530
asb(imorph
Morph
(dp2531
g45
(lp2532
Vm^y
p2533
aVi
aVs^y
p2534
aVa
aVt^s^y
p2535
aVa
aVm
asb(imorph
Morph
(dp2536
g45
(lp2537
Vm^y
p2538
aVi
aVs^y
p2539
aVa
aVt^s
p2540
aVe
aVv^y
p2541
aVi
asb(imorph
Morph
(dp2542
g45
(lp2543
Vm^y
p2544
aVi
aVs^y
p2545
aVa
aVt^s^y
p2546
aVi
asbNNNNNNtp2547
(imorph
Morph
p2548
(dp2549
g45
(lp2550
Vm^y
p2551
aVi
aVs^y
p2552
aVa
aVt^s^y
p2553
asbs((imorph
Morph
(dp2554
g45
(lp2555
Vk
aVa
aVm^y
p2556
aVi
aVn^y
p2557
asb(imorph
Morph
(dp2558
g45
(lp2559
Vk
aVa
aVm
aVe
aVn^y
p2560
aVa
aVm
asb(imorph
Morph
(dp2561
g45
(lp2562
Vk
aVa
aVm
aVe
aVn
aVe
aVv^y
p2563
aVi
asb(imorph
Morph
(dp2564
g45
(lp2565
Vk
aVa
aVm
aVe
aVn^y
p2566
aVi
asbNNNNNNtp2567
(imorph
Morph
p2568
(dp2569
g45
(lp2570
Vk
aVa
aVm^y
p2571
aVi
aVn^y
p2572
asbs((imorph
Morph
(dp2573
g45
(lp2574
Vh
aVo
aVl
aVu
aVb
asb(imorph
Morph
(dp2575
g45
(lp2576
Vh
aVo
aVl
aVu
aVb
aVa
aVm
asb(imorph
Morph
(dp2577
g45
(lp2578
Vh
aVo
aVl
aVu
aVb
aVo
aVv^y
p2579
aVi
asb(imorph
Morph
(dp2580
g45
(lp2581
Vh
aVo
aVl
aVu
aVb^y
p2582
aVi
asbNNNNNNtp2583
(imorph
Morph
p2584
(dp2585
g45
(lp2586
Vh
aVo
aVl
aVu
aVb
asbs((imorph
Morph
(dp2587
g45
(lp2588
Vs
aVv^y
p2589
aVi
aVt
asb(imorph
Morph
(dp2590
g45
(lp2591
Vs
aVv^y
p2592
aVi
aVt
aVa
aVm
asb(imorph
Morph
(dp2593
g45
(lp2594
Vs
aVv^y
p2595
aVi
aVt
aVo
aVv^y
p2596
aVi
asb(imorph
Morph
(dp2597
g45
(lp2598
Vs
aVv^y
p2599
aVi
aVt^y
p2600
aVi
asbNNNNNNtp2601
(imorph
Morph
p2602
(dp2603
g45
(lp2604
Vs
aVv^y
p2605
aVi
aVt
asbs((imorph
Morph
(dp2606
g45
(lp2607
Vb
aVi
aVl^y
p2608
asb(imorph
Morph
(dp2609
g45
(lp2610
Vb
aVo
aVl^y
p2611
aVa
aVm
asb(imorph
Morph
(dp2612
g45
(lp2613
Vb
aVo
aVl
aVe
aVv^y
p2614
aVi
asb(imorph
Morph
(dp2615
g45
(lp2616
Vb
aVo
aVl^y
p2617
aVi
asbNNNNNNtp2618
(imorph
Morph
p2619
(dp2620
g45
(lp2621
Vb
aVo
ag2390
asbs((imorph
Morph
(dp2622
g45
(lp2623
Vz^y
p2624
aVa
aVt^y
p2625
asb(imorph
Morph
(dp2626
g45
(lp2627
Vz^y
p2628
aVa
aVt^y
p2629
aVa
aVm
asb(imorph
Morph
(dp2630
g45
(lp2631
Vz^y
p2632
aVa
aVt
aVe
aVv^y
p2633
aVi
asbN(imorph
Morph
(dp2634
g45
(lp2635
Vz^y
p2636
aVa
aVt
aVe
aVv^y
p2637
aVi
asbNNNNNtp2638
(imorph
Morph
p2639
(dp2640
g45
(lp2641
Vz^y
p2642
aVa
aVt^y
p2643
asbs((imorph
Morph
(dp2644
g45
(lp2645
Vz
aVu
aVb
asb(imorph
Morph
(dp2646
g45
(lp2647
Vz
aVu
aVb
aVa
aVm
asb(imorph
Morph
(dp2648
g45
(lp2649
Vz
aVu
aVb
aVo
aVv^y
p2650
aVi
asb(imorph
Morph
(dp2651
g45
(lp2652
Vz
aVu
aVb^y
p2653
aVi
asbNNNNNNtp2654
(imorph
Morph
p2655
(dp2656
g45
(lp2657
Vz
aVu
aVb
asbs((imorph
Morph
(dp2658
g45
(lp2659
Vk
aVo
aVr
aVo
aVv
aVa
aVy
asb(imorph
Morph
(dp2660
g45
(lp2661
Vk
aVo
aVr
aVo
aVv
aVa
aVy
aVa
aVm
asb(imorph
Morph
(dp2662
g45
(lp2663
Vk
aVo
aVr
aVo
aVv
aVa
aVy
aVe
aVv^y
p2664
aVi
asb(imorph
Morph
(dp2665
g45
(lp2666
Vk
aVo
aVr
aVo
aVv
aVa
aVy
aVi
asbNNNNNNtp2667
(imorph
Morph
p2668
(dp2669
g45
(lp2670
Vk
aVo
aVr
aVo
aVv
aVa
aVy
asbssg94
(lp2671
(imorph
Morph
p2672
(dp2673
g45
(lp2674
sba(imorph
Morph
p2675
(dp2676
g45
(lp2677
Va
aVm
asba(imorph
Morph
p2678
(dp2679
g45
(lp2680
Vo
aVv^y
p2681
aVi
asba(imorph
Morph
p2682
(dp2683
g45
(lp2684
Vi
asba(imorph
Morph
p2685
(dp2686
g45
(lp2687
Ve
ag2605
aVi
asba(imorph
Morph
p2688
(dp2689
g45
(lp2690
sba(imorph
Morph
p2691
(dp2692
g45
(lp2693
sba(imorph
Morph
p2694
(dp2695
g45
(lp2696
sba(imorph
Morph
p2697
(dp2698
g45
(lp2699
sba(imorph
Morph
p2700
(dp2701
g45
(lp2702
sbasbF20039.656807899475
tp2703
a(g6
(g7
g8
NtRp2704
(dp2705
g11
(lp2706
(irule
Rule
p2707
(dp2708
g15
(irule
Guard
p2709
(dp2710
g18
I00
sg19
(lp2711
sg21
I00
sg22
V
sg23
I00
sg24
S'L'
sbsg25
(irule
ConstantPhoneme
p2712
(dp2713
S'p'
Vo
sbsg31
(irule
Guard
p2714
(dp2715
g18
I00
sg19
(lp2716
(irule
FeatureMatrix
p2717
(dp2718
g28
(lp2719
sg22
V[  ]
p2720
sbasg21
I00
sg22
g2720
sg23
I00
sg24
S'R'
sbsg35
(irule
ConstantPhoneme
p2721
(dp2722
S'p'
Ve
sbsg22
Ve ---> o /  _ [  ]
p2723
sba(irule
Rule
p2724
(dp2725
g15
(irule
Guard
p2726
(dp2727
g18
I00
sg19
(lp2728
sg21
I00
sg22
V
sg23
I00
sg24
S'L'
sbsg25
(irule
ConstantPhoneme
p2729
(dp2730
S'p'
Vw
sbsg31
(irule
Guard
p2731
(dp2732
g18
I01
sg19
(lp2733
sg21
I00
sg22
V#
sg23
I00
sg24
S'R'
sbsg35
(irule
FeatureMatrix
p2734
(dp2735
g28
(lp2736
(I01
S'continuant'
tp2737
a(I00
S'palletized'
tp2738
a(I00
S'tense'
tp2739
asg22
V[ +continuant -palletized -tense ]
p2740
sbsg22
V[ +continuant -palletized -tense ] ---> w /  _ #
p2741
sba(irule
Rule
p2742
(dp2743
g15
(irule
Guard
p2744
(dp2745
g18
I00
sg19
(lp2746
(irule
FeatureMatrix
p2747
(dp2748
g28
(lp2749
(I01
S'palletized'
p2750
tp2751
asg22
V[ +palletized ]
p2752
sbasg21
I00
sg22
g2752
sg23
I00
sg24
S'L'
sbsg25
(irule
ConstantPhoneme
p2753
(dp2754
S'p'
Ve
sbsg31
(irule
Guard
p2755
(dp2756
g18
I00
sg19
(lp2757
(irule
FeatureMatrix
p2758
(dp2759
g28
(lp2760
(I01
S'voice'
tp2761
asg22
V[ +voice ]
p2762
sba(irule
FeatureMatrix
p2763
(dp2764
g28
(lp2765
sg22
V[  ]
p2766
sbasg21
I00
sg22
V[ +voice ] [  ]
p2767
sg23
I00
sg24
S'R'
sbsg35
(irule
FeatureMatrix
p2768
(dp2769
g28
(lp2770
sg22
V[  ]
p2771
sbsg22
V[  ] ---> e / [ +palletized ] _ [ +voice ] [  ]
p2772
sba(irule
Rule
p2773
(dp2774
g15
(irule
Guard
p2775
(dp2776
g18
I00
sg19
(lp2777
sg21
I00
sg22
V
sg23
I00
sg24
S'L'
sbsg25
(irule
FeatureMatrix
p2778
(dp2779
g28
(lp2780
(I01
g2750
tp2781
asg22
V[ +palletized ]
p2782
sbsg31
(irule
Guard
p2783
(dp2784
g18
I00
sg19
(lp2785
(irule
ConstantPhoneme
p2786
(dp2787
S'p'
Vi
sbasg21
I00
sg22
Vi
sg23
I00
sg24
S'R'
sbsg35
(irule
FeatureMatrix
p2788
(dp2789
g28
(lp2790
sg22
V[  ]
p2791
sbsg22
V[  ] ---> [ +palletized ] /  _ i
p2792
sba(irule
Rule
p2793
(dp2794
g15
(irule
Guard
p2795
(dp2796
g18
I00
sg19
(lp2797
sg21
I00
sg22
V
sg23
I00
sg24
S'L'
sbsg25
(irule
FeatureMatrix
p2798
(dp2799
g28
(lp2800
(I00
S'palletized'
tp2801
asg22
V[ -palletized ]
p2802
sbsg31
(irule
Guard
p2803
(dp2804
g18
I00
sg19
(lp2805
(irule
ConstantPhoneme
p2806
(dp2807
S'p'
Ve
sbasg21
I00
sg22
Ve
sg23
I00
sg24
S'R'
sbsg35
(irule
FeatureMatrix
p2808
(dp2809
g28
(lp2810
(I00
S'glide'
tp2811
asg22
V[ -glide ]
p2812
sbsg22
V[ -glide ] ---> [ -palletized ] /  _ e
p2813
sba(irule
Rule
p2814
(dp2815
g15
(irule
Guard
p2816
(dp2817
g18
I00
sg19
(lp2818
sg21
I00
sg22
V
sg23
I00
sg24
S'L'
sbsg25
(irule
ConstantPhoneme
p2819
(dp2820
S'p'
Vi
sbsg31
(irule
Guard
p2821
(dp2822
g18
I01
sg19
(lp2823
(irule
FeatureMatrix
p2824
(dp2825
g28
(lp2826
sg22
V[  ]
p2827
sbasg21
I00
sg22
V[  ] #
p2828
sg23
I00
sg24
S'R'
sbsg35
(irule
ConstantPhoneme
p2829
(dp2830
S'p'
Vo
sbsg22
Vo ---> i /  _ [  ] #
p2831
sbasg41
(lp2832
(imorph
Morph
p2833
(dp2834
g45
(lp2835
sba(imorph
Morph
p2836
(dp2837
g45
(lp2838
sba(imorph
Morph
p2839
(dp2840
g45
(lp2841
sba(imorph
Morph
p2842
(dp2843
g45
(lp2844
sba(imorph
Morph
p2845
(dp2846
g45
(lp2847
sba(imorph
Morph
p2848
(dp2849
g45
(lp2850
sba(imorph
Morph
p2851
(dp2852
g45
(lp2853
sba(imorph
Morph
p2854
(dp2855
g45
(lp2856
sba(imorph
Morph
p2857
(dp2858
g45
(lp2859
sba(imorph
Morph
p2860
(dp2861
g45
(lp2862
sbasg74
(dp2863
((imorph
Morph
(dp2864
g45
(lp2865
Vx
aVl^y
p2866
aVi
aVw
asb(imorph
Morph
(dp2867
g45
(lp2868
Vx
aVl^y
p2869
aVi
aVv
aVa
aVm
asb(imorph
Morph
(dp2870
g45
(lp2871
Vx
aVl^y
p2872
aVi
aVv
aVo
aVv^y
p2873
aVi
asb(imorph
Morph
(dp2874
g45
(lp2875
Vx
aVl^y
p2876
aVi
aVv^y
p2877
aVi
asbNNNNNNtp2878
(imorph
Morph
p2879
(dp2880
g45
(lp2881
Vx
aVl
aVi
aVv
asbs((imorph
Morph
(dp2882
g45
(lp2883
Vr
aVi
aVw
asb(imorph
Morph
(dp2884
g45
(lp2885
Vr
aVo
aVv
aVa
aVm
asb(imorph
Morph
(dp2886
g45
(lp2887
Vr
aVo
aVv
aVo
aVv^y
p2888
aVi
asb(imorph
Morph
(dp2889
g45
(lp2890
Vr
aVo
aVv^y
p2891
aVi
asbNNNNNNtp2892
(imorph
Morph
p2893
(dp2894
g45
(lp2895
Vr
aVo
aVv
asbs((imorph
Morph
(dp2896
g45
(lp2897
Vl^y
p2898
aVi
aVd
asb(imorph
Morph
(dp2899
g45
(lp2900
Vl
aVe
aVd
aVa
aVm
asb(imorph
Morph
(dp2901
g45
(lp2902
Vl
aVe
aVd
aVo
aVv^y
p2903
aVi
asb(imorph
Morph
(dp2904
g45
(lp2905
Vl
aVe
aVd^y
p2906
aVi
asbNNNNNNtp2907
(imorph
Morph
p2908
(dp2909
g45
(lp2910
Vl^y
p2911
aVi
aVd
asbs((imorph
Morph
(dp2912
g45
(lp2913
Vl
aVe
aVb^y
p2914
aVi
aVd^y
p2915
asb(imorph
Morph
(dp2916
g45
(lp2917
Vl
aVe
aVb
aVe
aVd^y
p2918
aVa
aVm
asb(imorph
Morph
(dp2919
g45
(lp2920
Vl
aVe
aVb
aVe
aVd
aVe
aVv^y
p2921
aVi
asb(imorph
Morph
(dp2922
g45
(lp2923
Vl
aVe
aVb
aVe
aVd^y
p2924
aVi
asbNNNNNNtp2925
(imorph
Morph
p2926
(dp2927
g45
(lp2928
g2911
aVw
aVb^y
p2929
aVo
aVd^y
p2930
asbs((imorph
Morph
(dp2931
g45
(lp2932
Vm^y
p2933
aVi
aVd^y
p2934
asb(imorph
Morph
(dp2935
g45
(lp2936
Vm^y
p2937
aVi
aVd^y
p2938
aVa
aVm
asb(imorph
Morph
(dp2939
g45
(lp2940
Vm^y
p2941
aVi
aVd
aVe
aVv^y
p2942
aVi
asb(imorph
Morph
(dp2943
g45
(lp2944
Vm^y
p2945
aVi
aVd^y
p2946
aVi
asbNNNNNNtp2947
(imorph
Morph
p2948
(dp2949
g45
(lp2950
Vm
aVi
aVd^y
p2951
asbs((imorph
Morph
(dp2952
g45
(lp2953
Vk
aVa
aVm^y
p2954
aVi
aVn^y
p2955
asb(imorph
Morph
(dp2956
g45
(lp2957
Vk
aVa
aVm
aVe
aVn^y
p2958
aVa
aVm
asb(imorph
Morph
(dp2959
g45
(lp2960
Vk
aVa
aVm
aVe
aVn
aVe
aVv^y
p2961
aVi
asb(imorph
Morph
(dp2962
g45
(lp2963
Vk
aVa
aVm
aVe
aVn^y
p2964
aVi
asbNNNNNNtp2965
(imorph
Morph
p2966
(dp2967
g45
(lp2968
Vk
aVa
aVm^y
p2969
aVi
aVn^y
p2970
asbs((imorph
Morph
(dp2971
g45
(lp2972
Vk
aVo
aV\u0161^y
p2973
aVi
aVl^y
p2974
asb(imorph
Morph
(dp2975
g45
(lp2976
Vk
aVo
aV\u0161
aVe
aVl^y
p2977
aVa
aVm
asb(imorph
Morph
(dp2978
g45
(lp2979
Vk
aVo
aV\u0161
aVe
aVl
aVe
aVv^y
p2980
aVi
asb(imorph
Morph
(dp2981
g45
(lp2982
Vk
aVo
aV\u0161
aVe
aVl^y
p2983
aVi
asbNNNNNNtp2984
(imorph
Morph
p2985
(dp2986
g45
(lp2987
Vk
aVo
aV\u0161^y
p2988
aVi
aVl^y
p2989
asbs((imorph
Morph
(dp2990
g45
(lp2991
Vs^y
p2992
aVi
aVn
asb(imorph
Morph
(dp2993
g45
(lp2994
Vs^y
p2995
aVi
aVn
aVa
aVm
asb(imorph
Morph
(dp2996
g45
(lp2997
Vs^y
p2998
aVi
aVn
aVo
aVv^y
p2999
aVi
asb(imorph
Morph
(dp3000
g45
(lp3001
Vs^y
p3002
aVi
aVn^y
p3003
aVi
asbNNNNNNtp3004
(imorph
Morph
p3005
(dp3006
g45
(lp3007
Vs
aVi
aVn
asbs((imorph
Morph
(dp3008
g45
(lp3009
Vs
aVu
aVs^y
p3010
aVi
aVd
asb(imorph
Morph
(dp3011
g45
(lp3012
Vs
aVu
aVs^y
p3013
aVi
aVd
aVa
aVm
asb(imorph
Morph
(dp3014
g45
(lp3015
Vs
aVu
aVs^y
p3016
aVi
aVd
aVo
aVv^y
p3017
aVi
asbN(imorph
Morph
(dp3018
g45
(lp3019
Vs
aVu
aVs^y
p3020
aVi
aVd
aVo
aVv^y
p3021
aVi
asbNNNNNtp3022
(imorph
Morph
p3023
(dp3024
g45
(lp3025
Vs
aVu
aVs
aVi
aVd
asbs((imorph
Morph
(dp3026
g45
(lp3027
Vc\u030c
p3028
aVo
aVl
aVo
aVv^y
p3029
aVi
aVk
asb(imorph
Morph
(dp3030
g45
(lp3031
Vc\u030c
p3032
aVo
aVl
aVo
aVv^y
p3033
aVi
aVk
aVa
aVm
asb(imorph
Morph
(dp3034
g45
(lp3035
Vc\u030c
p3036
aVo
aVl
aVo
aVv^y
p3037
aVi
aVk
aVo
aVv^y
p3038
aVi
asbN(imorph
Morph
(dp3039
g45
(lp3040
Vc\u030c
p3041
aVo
aVl
aVo
aVv^y
p3042
aVi
aVk
aVo
aVv^y
p3043
aVi
asbNNNNNtp3044
(imorph
Morph
p3045
(dp3046
g45
(lp3047
Vc\u030c
p3048
aVo
aVl
aVo
aVv
aVi
aVk
asbs((imorph
Morph
(dp3049
g45
(lp3050
Vm^y
p3051
aVi
aVs^y
p3052
aVa
aVt^s^y
p3053
asb(imorph
Morph
(dp3054
g45
(lp3055
Vm^y
p3056
aVi
aVs^y
p3057
aVa
aVt^s^y
p3058
aVa
aVm
asb(imorph
Morph
(dp3059
g45
(lp3060
Vm^y
p3061
aVi
aVs^y
p3062
aVa
aVt^s
p3063
aVe
aVv^y
p3064
aVi
asb(imorph
Morph
(dp3065
g45
(lp3066
Vm^y
p3067
aVi
aVs^y
p3068
aVa
aVt^s^y
p3069
aVi
asbNNNNNNtp3070
(imorph
Morph
p3071
(dp3072
g45
(lp3073
Vm^y
p3074
aVi
aVs^y
p3075
aVa
aVt^s^y
p3076
asbs((imorph
Morph
(dp3077
g45
(lp3078
Vz
aVl
aVo
aVd^y
p3079
aVi
aVy
asb(imorph
Morph
(dp3080
g45
(lp3081
Vz
aVl
aVo
aVd^y
p3082
aVi
aVy
aVa
aVm
asb(imorph
Morph
(dp3083
g45
(lp3084
Vz
aVl
aVo
aVd^y
p3085
aVi
aVy
aVe
aVv^y
p3086
aVi
asbN(imorph
Morph
(dp3087
g45
(lp3088
Vz
aVl
aVo
aVd^y
p3089
aVi
aVy
aVe
aVv^y
p3090
aVi
asbNNNNNtp3091
(imorph
Morph
p3092
(dp3093
g45
(lp3094
Vz
aVl
aVo
aVd
aVi
aVy
asbs((imorph
Morph
(dp3095
g45
(lp3096
Vh
aVo
aVl
aVu
aVb
asb(imorph
Morph
(dp3097
g45
(lp3098
Vh
aVo
aVl
aVu
aVb
aVa
aVm
asb(imorph
Morph
(dp3099
g45
(lp3100
Vh
aVo
aVl
aVu
aVb
aVo
aVv^y
p3101
aVi
asb(imorph
Morph
(dp3102
g45
(lp3103
Vh
aVo
aVl
aVu
aVb^y
p3104
aVi
asbNNNNNNtp3105
(imorph
Morph
p3106
(dp3107
g45
(lp3108
Vh
aVo
aVl
aVu
aVb
asbs((imorph
Morph
(dp3109
g45
(lp3110
Vs
aVv^y
p3111
aVi
aVt
asb(imorph
Morph
(dp3112
g45
(lp3113
Vs
aVv^y
p3114
aVi
aVt
aVa
aVm
asb(imorph
Morph
(dp3115
g45
(lp3116
Vs
aVv^y
p3117
aVi
aVt
aVo
aVv^y
p3118
aVi
asb(imorph
Morph
(dp3119
g45
(lp3120
Vs
aVv^y
p3121
aVi
aVt^y
p3122
aVi
asbNNNNNNtp3123
(imorph
Morph
p3124
(dp3125
g45
(lp3126
Vs
aVv^y
p3127
aVi
aVt
asbs((imorph
Morph
(dp3128
g45
(lp3129
Vb
aVi
aVl^y
p3130
asb(imorph
Morph
(dp3131
g45
(lp3132
Vb
aVo
aVl^y
p3133
aVa
aVm
asb(imorph
Morph
(dp3134
g45
(lp3135
Vb
aVo
aVl
aVe
aVv^y
p3136
aVi
asb(imorph
Morph
(dp3137
g45
(lp3138
Vb
aVo
aVl^y
p3139
aVi
asbNNNNNNtp3140
(imorph
Morph
p3141
(dp3142
g45
(lp3143
Vb
aVo
ag2911
asbs((imorph
Morph
(dp3144
g45
(lp3145
Vs
aVt
aVi
aVw
asb(imorph
Morph
(dp3146
g45
(lp3147
Vs
aVt
aVo
aVl
aVa
aVm
asb(imorph
Morph
(dp3148
g45
(lp3149
Vs
aVt
aVo
aVl
aVo
aVv^y
p3150
aVi
asb(imorph
Morph
(dp3151
g45
(lp3152
Vs
aVt
aVo
aVl^y
p3153
aVi
asbNNNNNNtp3154
(imorph
Morph
p3155
(dp3156
g45
(lp3157
Vs
aVt
aVo
aVl
asbs((imorph
Morph
(dp3158
g45
(lp3159
Vz^y
p3160
aVa
aVt^y
p3161
asb(imorph
Morph
(dp3162
g45
(lp3163
Vz^y
p3164
aVa
aVt^y
p3165
aVa
aVm
asb(imorph
Morph
(dp3166
g45
(lp3167
Vz^y
p3168
aVa
aVt
aVe
aVv^y
p3169
aVi
asbN(imorph
Morph
(dp3170
g45
(lp3171
Vz^y
p3172
aVa
aVt
aVe
aVv^y
p3173
aVi
asbNNNNNtp3174
(imorph
Morph
p3175
(dp3176
g45
(lp3177
Vz^y
p3178
aVa
aVt^y
p3179
asbs((imorph
Morph
(dp3180
g45
(lp3181
Vz
aVu
aVb
asb(imorph
Morph
(dp3182
g45
(lp3183
Vz
aVu
aVb
aVa
aVm
asb(imorph
Morph
(dp3184
g45
(lp3185
Vz
aVu
aVb
aVo
aVv^y
p3186
aVi
asb(imorph
Morph
(dp3187
g45
(lp3188
Vz
aVu
aVb^y
p3189
aVi
asbNNNNNNtp3190
(imorph
Morph
p3191
(dp3192
g45
(lp3193
Vz
aVu
aVb
asbs((imorph
Morph
(dp3194
g45
(lp3195
Vk
aVo
aVr
aVo
aVv
aVa
aVy
asb(imorph
Morph
(dp3196
g45
(lp3197
Vk
aVo
aVr
aVo
aVv
aVa
aVy
aVa
aVm
asb(imorph
Morph
(dp3198
g45
(lp3199
Vk
aVo
aVr
aVo
aVv
aVa
aVy
aVe
aVv^y
p3200
aVi
asb(imorph
Morph
(dp3201
g45
(lp3202
Vk
aVo
aVr
aVo
aVv
aVa
aVy
aVi
asbNNNNNNtp3203
(imorph
Morph
p3204
(dp3205
g45
(lp3206
Vk
aVo
aVr
aVo
aVv
aVa
aVy
asbssg94
(lp3207
(imorph
Morph
p3208
(dp3209
g45
(lp3210
sba(imorph
Morph
p3211
(dp3212
g45
(lp3213
Va
aVm
asba(imorph
Morph
p3214
(dp3215
g45
(lp3216
Vo
aVv^y
p3217
aVi
asba(imorph
Morph
p3218
(dp3219
g45
(lp3220
Vi
asba(imorph
Morph
p3221
(dp3222
g45
(lp3223
Ve
ag3127
aVi
asba(imorph
Morph
p3224
(dp3225
g45
(lp3226
sba(imorph
Morph
p3227
(dp3228
g45
(lp3229
sba(imorph
Morph
p3230
(dp3231
g45
(lp3232
sba(imorph
Morph
p3233
(dp3234
g45
(lp3235
sba(imorph
Morph
p3236
(dp3237
g45
(lp3238
sbasbF31057.433443069458
tp3239
a(g6
(g7
g8
NtRp3240
(dp3241
g11
(lp3242
(irule
Rule
p3243
(dp3244
g15
(irule
Guard
p3245
(dp3246
g18
I00
sg19
(lp3247
sg21
I00
sg22
V
sg23
I00
sg24
S'L'
sbsg25
(irule
ConstantPhoneme
p3248
(dp3249
S'p'
Vo
sbsg31
(irule
Guard
p3250
(dp3251
g18
I00
sg19
(lp3252
(irule
FeatureMatrix
p3253
(dp3254
g28
(lp3255
sg22
V[  ]
p3256
sbasg21
I00
sg22
g3256
sg23
I00
sg24
S'R'
sbsg35
(irule
ConstantPhoneme
p3257
(dp3258
S'p'
Ve
sbsg22
Ve ---> o /  _ [  ]
p3259
sba(irule
Rule
p3260
(dp3261
g15
(irule
Guard
p3262
(dp3263
g18
I00
sg19
(lp3264
sg21
I00
sg22
V
sg23
I00
sg24
S'L'
sbsg25
(irule
ConstantPhoneme
p3265
(dp3266
S'p'
Vw
sbsg31
(irule
Guard
p3267
(dp3268
g18
I01
sg19
(lp3269
sg21
I00
sg22
V#
sg23
I00
sg24
S'R'
sbsg35
(irule
FeatureMatrix
p3270
(dp3271
g28
(lp3272
(I01
S'continuant'
tp3273
a(I00
S'palletized'
tp3274
a(I00
S'tense'
tp3275
asg22
V[ +continuant -palletized -tense ]
p3276
sbsg22
V[ +continuant -palletized -tense ] ---> w /  _ #
p3277
sba(irule
Rule
p3278
(dp3279
g15
(irule
Guard
p3280
(dp3281
g18
I00
sg19
(lp3282
(irule
FeatureMatrix
p3283
(dp3284
g28
(lp3285
(I01
S'palletized'
p3286
tp3287
asg22
V[ +palletized ]
p3288
sbasg21
I00
sg22
g3288
sg23
I00
sg24
S'L'
sbsg25
(irule
ConstantPhoneme
p3289
(dp3290
S'p'
Ve
sbsg31
(irule
Guard
p3291
(dp3292
g18
I00
sg19
(lp3293
(irule
FeatureMatrix
p3294
(dp3295
g28
(lp3296
(I01
S'voice'
tp3297
asg22
V[ +voice ]
p3298
sba(irule
FeatureMatrix
p3299
(dp3300
g28
(lp3301
sg22
V[  ]
p3302
sbasg21
I00
sg22
V[ +voice ] [  ]
p3303
sg23
I00
sg24
S'R'
sbsg35
(irule
FeatureMatrix
p3304
(dp3305
g28
(lp3306
sg22
V[  ]
p3307
sbsg22
V[  ] ---> e / [ +palletized ] _ [ +voice ] [  ]
p3308
sba(irule
Rule
p3309
(dp3310
g15
(irule
Guard
p3311
(dp3312
g18
I00
sg19
(lp3313
sg21
I00
sg22
V
sg23
I00
sg24
S'L'
sbsg25
(irule
FeatureMatrix
p3314
(dp3315
g28
(lp3316
(I01
g3286
tp3317
asg22
V[ +palletized ]
p3318
sbsg31
(irule
Guard
p3319
(dp3320
g18
I00
sg19
(lp3321
(irule
ConstantPhoneme
p3322
(dp3323
S'p'
Vi
sbasg21
I00
sg22
Vi
sg23
I00
sg24
S'R'
sbsg35
(irule
FeatureMatrix
p3324
(dp3325
g28
(lp3326
sg22
V[  ]
p3327
sbsg22
V[  ] ---> [ +palletized ] /  _ i
p3328
sba(irule
Rule
p3329
(dp3330
g15
(irule
Guard
p3331
(dp3332
g18
I00
sg19
(lp3333
sg21
I00
sg22
V
sg23
I00
sg24
S'L'
sbsg25
(irule
FeatureMatrix
p3334
(dp3335
g28
(lp3336
(I00
S'palletized'
tp3337
asg22
V[ -palletized ]
p3338
sbsg31
(irule
Guard
p3339
(dp3340
g18
I00
sg19
(lp3341
(irule
ConstantPhoneme
p3342
(dp3343
S'p'
Ve
sbasg21
I00
sg22
Ve
sg23
I00
sg24
S'R'
sbsg35
(irule
FeatureMatrix
p3344
(dp3345
g28
(lp3346
(I00
S'glide'
tp3347
asg22
V[ -glide ]
p3348
sbsg22
V[ -glide ] ---> [ -palletized ] /  _ e
p3349
sba(irule
Rule
p3350
(dp3351
g15
(irule
Guard
p3352
(dp3353
g18
I00
sg19
(lp3354
sg21
I00
sg22
V
sg23
I00
sg24
S'L'
sbsg25
(irule
ConstantPhoneme
p3355
(dp3356
S'p'
Vi
sbsg31
(irule
Guard
p3357
(dp3358
g18
I01
sg19
(lp3359
(irule
FeatureMatrix
p3360
(dp3361
g28
(lp3362
(I01
S'sibilant'
tp3363
asg22
V[ +sibilant ]
p3364
sba(irule
FeatureMatrix
p3365
(dp3366
g28
(lp3367
sg22
V[  ]
p3368
sbasg21
I00
sg22
V[ +sibilant ]* [  ] #
p3369
sg23
I01
sg24
S'R'
sbsg35
(irule
ConstantPhoneme
p3370
(dp3371
S'p'
Vo
sbsg22
Vo ---> i /  _ [ +sibilant ]* [  ] #
p3372
sbasg41
(lp3373
(imorph
Morph
p3374
(dp3375
g45
(lp3376
sba(imorph
Morph
p3377
(dp3378
g45
(lp3379
sba(imorph
Morph
p3380
(dp3381
g45
(lp3382
sba(imorph
Morph
p3383
(dp3384
g45
(lp3385
sba(imorph
Morph
p3386
(dp3387
g45
(lp3388
sba(imorph
Morph
p3389
(dp3390
g45
(lp3391
sba(imorph
Morph
p3392
(dp3393
g45
(lp3394
sba(imorph
Morph
p3395
(dp3396
g45
(lp3397
sba(imorph
Morph
p3398
(dp3399
g45
(lp3400
sba(imorph
Morph
p3401
(dp3402
g45
(lp3403
sbasg74
(dp3404
((imorph
Morph
(dp3405
g45
(lp3406
Vk
aVa
aVm^y
p3407
aVi
aVn^y
p3408
asb(imorph
Morph
(dp3409
g45
(lp3410
Vk
aVa
aVm
aVe
aVn^y
p3411
aVa
aVm
asb(imorph
Morph
(dp3412
g45
(lp3413
Vk
aVa
aVm
aVe
aVn
aVe
aVv^y
p3414
aVi
asb(imorph
Morph
(dp3415
g45
(lp3416
Vk
aVa
aVm
aVe
aVn^y
p3417
aVi
asbNNNNNNtp3418
(imorph
Morph
p3419
(dp3420
g45
(lp3421
Vk
aVa
aVm^y
p3422
aVi
aVn^y
p3423
asbs((imorph
Morph
(dp3424
g45
(lp3425
Vl
aVe
aVb^y
p3426
aVi
aVd^y
p3427
asb(imorph
Morph
(dp3428
g45
(lp3429
Vl
aVe
aVb
aVe
aVd^y
p3430
aVa
aVm
asb(imorph
Morph
(dp3431
g45
(lp3432
Vl
aVe
aVb
aVe
aVd
aVe
aVv^y
p3433
aVi
asb(imorph
Morph
(dp3434
g45
(lp3435
Vl
aVe
aVb
aVe
aVd^y
p3436
aVi
asbNNNNNNtp3437
(imorph
Morph
p3438
(dp3439
g45
(lp3440
Vl^y
p3441
aVw
aVb^y
p3442
aVo
aVd^y
p3443
asbs((imorph
Morph
(dp3444
g45
(lp3445
Vk
aVo
aV\u0161^y
p3446
aVi
aVl^y
p3447
asb(imorph
Morph
(dp3448
g45
(lp3449
Vk
aVo
aV\u0161
aVe
aVl^y
p3450
aVa
aVm
asb(imorph
Morph
(dp3451
g45
(lp3452
Vk
aVo
aV\u0161
aVe
aVl
aVe
aVv^y
p3453
aVi
asb(imorph
Morph
(dp3454
g45
(lp3455
Vk
aVo
aV\u0161
aVe
aVl^y
p3456
aVi
asbNNNNNNtp3457
(imorph
Morph
p3458
(dp3459
g45
(lp3460
Vk
aVo
aV\u0161^y
p3461
aVi
aVl^y
p3462
asbs((imorph
Morph
(dp3463
g45
(lp3464
Vx
aVl^y
p3465
aVi
aVw
asb(imorph
Morph
(dp3466
g45
(lp3467
Vx
aVl^y
p3468
aVi
aVv
aVa
aVm
asb(imorph
Morph
(dp3469
g45
(lp3470
Vx
aVl^y
p3471
aVi
aVv
aVo
aVv^y
p3472
aVi
asb(imorph
Morph
(dp3473
g45
(lp3474
Vx
aVl^y
p3475
aVi
aVv^y
p3476
aVi
asbNNNNNNtp3477
(imorph
Morph
p3478
(dp3479
g45
(lp3480
Vx
aVl
aVi
aVv
asbs((imorph
Morph
(dp3481
g45
(lp3482
Vs
aVv^y
p3483
aVi
aVt
asb(imorph
Morph
(dp3484
g45
(lp3485
Vs
aVv^y
p3486
aVi
aVt
aVa
aVm
asb(imorph
Morph
(dp3487
g45
(lp3488
Vs
aVv^y
p3489
aVi
aVt
aVo
aVv^y
p3490
aVi
asb(imorph
Morph
(dp3491
g45
(lp3492
Vs
aVv^y
p3493
aVi
aVt^y
p3494
aVi
asbNNNNNNtp3495
(imorph
Morph
p3496
(dp3497
g45
(lp3498
Vs
aVv^y
p3499
aVi
aVt
asbs((imorph
Morph
(dp3500
g45
(lp3501
Vd^y
p3502
aVi
aVd
asb(imorph
Morph
(dp3503
g45
(lp3504
Vd^y
p3505
aVi
aVd
aVa
aVm
asb(imorph
Morph
(dp3506
g45
(lp3507
Vd^y
p3508
aVi
aVd
aVo
aVv^y
p3509
aVi
asbN(imorph
Morph
(dp3510
g45
(lp3511
Vd^y
p3512
aVi
aVd
aVo
aVv^y
p3513
aVi
asbNNNNNtp3514
(imorph
Morph
p3515
(dp3516
g45
(lp3517
Vd
aVi
aVd
asbs((imorph
Morph
(dp3518
g45
(lp3519
Vz^y
p3520
aVa
aVt^y
p3521
asb(imorph
Morph
(dp3522
g45
(lp3523
Vz^y
p3524
aVa
aVt^y
p3525
aVa
aVm
asb(imorph
Morph
(dp3526
g45
(lp3527
Vz^y
p3528
aVa
aVt
aVe
aVv^y
p3529
aVi
asbN(imorph
Morph
(dp3530
g45
(lp3531
Vz^y
p3532
aVa
aVt
aVe
aVv^y
p3533
aVi
asbNNNNNtp3534
(imorph
Morph
p3535
(dp3536
g45
(lp3537
Vz^y
p3538
aVa
aVt^y
p3539
asbs((imorph
Morph
(dp3540
g45
(lp3541
Vl^y
p3542
aVi
aVt
asb(imorph
Morph
(dp3543
g45
(lp3544
Vl^y
p3545
aVo
aVt
aVa
aVm
asb(imorph
Morph
(dp3546
g45
(lp3547
Vl^y
p3548
aVo
aVt
aVo
aVv^y
p3549
aVi
asb(imorph
Morph
(dp3550
g45
(lp3551
Vl^y
p3552
aVo
aVt^y
p3553
aVi
asbNNNNNNtp3554
(imorph
Morph
p3555
(dp3556
g45
(lp3557
g3441
aVe
aVt
asbs((imorph
Morph
(dp3558
g45
(lp3559
Vm^y
p3560
aVi
aVd^y
p3561
asb(imorph
Morph
(dp3562
g45
(lp3563
Vm^y
p3564
aVi
aVd^y
p3565
aVa
aVm
asb(imorph
Morph
(dp3566
g45
(lp3567
Vm^y
p3568
aVi
aVd
aVe
aVv^y
p3569
aVi
asb(imorph
Morph
(dp3570
g45
(lp3571
Vm^y
p3572
aVi
aVd^y
p3573
aVi
asbNNNNNNtp3574
(imorph
Morph
p3575
(dp3576
g45
(lp3577
Vm
aVi
aVd^y
p3578
asbs((imorph
Morph
(dp3579
g45
(lp3580
Vs^y
p3581
aVi
aVn
asb(imorph
Morph
(dp3582
g45
(lp3583
Vs^y
p3584
aVi
aVn
aVa
aVm
asb(imorph
Morph
(dp3585
g45
(lp3586
Vs^y
p3587
aVi
aVn
aVo
aVv^y
p3588
aVi
asb(imorph
Morph
(dp3589
g45
(lp3590
Vs^y
p3591
aVi
aVn^y
p3592
aVi
asbNNNNNNtp3593
(imorph
Morph
p3594
(dp3595
g45
(lp3596
Vs
aVi
aVn
asbs((imorph
Morph
(dp3597
g45
(lp3598
Vc\u030c
p3599
aVo
aVl
aVo
aVv^y
p3600
aVi
aVk
asb(imorph
Morph
(dp3601
g45
(lp3602
Vc\u030c
p3603
aVo
aVl
aVo
aVv^y
p3604
aVi
aVk
aVa
aVm
asb(imorph
Morph
(dp3605
g45
(lp3606
Vc\u030c
p3607
aVo
aVl
aVo
aVv^y
p3608
aVi
aVk
aVo
aVv^y
p3609
aVi
asbN(imorph
Morph
(dp3610
g45
(lp3611
Vc\u030c
p3612
aVo
aVl
aVo
aVv^y
p3613
aVi
aVk
aVo
aVv^y
p3614
aVi
asbNNNNNtp3615
(imorph
Morph
p3616
(dp3617
g45
(lp3618
Vc\u030c
p3619
aVo
aVl
aVo
aVv
aVi
aVk
asbs((imorph
Morph
(dp3620
g45
(lp3621
Vb
aVi
aVl^y
p3622
asb(imorph
Morph
(dp3623
g45
(lp3624
Vb
aVo
aVl^y
p3625
aVa
aVm
asb(imorph
Morph
(dp3626
g45
(lp3627
Vb
aVo
aVl
aVe
aVv^y
p3628
aVi
asb(imorph
Morph
(dp3629
g45
(lp3630
Vb
aVo
aVl^y
p3631
aVi
asbNNNNNNtp3632
(imorph
Morph
p3633
(dp3634
g45
(lp3635
Vb
aVo
ag3441
asbs((imorph
Morph
(dp3636
g45
(lp3637
Vs
aVt
aVi
aVw
asb(imorph
Morph
(dp3638
g45
(lp3639
Vs
aVt
aVo
aVl
aVa
aVm
asb(imorph
Morph
(dp3640
g45
(lp3641
Vs
aVt
aVo
aVl
aVo
aVv^y
p3642
aVi
asb(imorph
Morph
(dp3643
g45
(lp3644
Vs
aVt
aVo
aVl^y
p3645
aVi
asbNNNNNNtp3646
(imorph
Morph
p3647
(dp3648
g45
(lp3649
Vs
aVt
aVo
aVl
asbs((imorph
Morph
(dp3650
g45
(lp3651
Vl^y
p3652
aVi
aVd
asb(imorph
Morph
(dp3653
g45
(lp3654
Vl
aVe
aVd
aVa
aVm
asb(imorph
Morph
(dp3655
g45
(lp3656
Vl
aVe
aVd
aVo
aVv^y
p3657
aVi
asb(imorph
Morph
(dp3658
g45
(lp3659
Vl
aVe
aVd^y
p3660
aVi
asbNNNNNNtp3661
(imorph
Morph
p3662
(dp3663
g45
(lp3664
g3441
aVi
aVd
asbs((imorph
Morph
(dp3665
g45
(lp3666
Vs
aVu
aVs^y
p3667
aVi
aVd
asb(imorph
Morph
(dp3668
g45
(lp3669
Vs
aVu
aVs^y
p3670
aVi
aVd
aVa
aVm
asb(imorph
Morph
(dp3671
g45
(lp3672
Vs
aVu
aVs^y
p3673
aVi
aVd
aVo
aVv^y
p3674
aVi
asbN(imorph
Morph
(dp3675
g45
(lp3676
Vs
aVu
aVs^y
p3677
aVi
aVd
aVo
aVv^y
p3678
aVi
asbNNNNNtp3679
(imorph
Morph
p3680
(dp3681
g45
(lp3682
Vs
aVu
aVs
aVi
aVd
asbs((imorph
Morph
(dp3683
g45
(lp3684
Vm^y
p3685
aVi
aVs^y
p3686
aVa
aVt^s^y
p3687
asb(imorph
Morph
(dp3688
g45
(lp3689
Vm^y
p3690
aVi
aVs^y
p3691
aVa
aVt^s^y
p3692
aVa
aVm
asb(imorph
Morph
(dp3693
g45
(lp3694
Vm^y
p3695
aVi
aVs^y
p3696
aVa
aVt^s
p3697
aVe
aVv^y
p3698
aVi
asb(imorph
Morph
(dp3699
g45
(lp3700
Vm^y
p3701
aVi
aVs^y
p3702
aVa
aVt^s^y
p3703
aVi
asbNNNNNNtp3704
(imorph
Morph
p3705
(dp3706
g45
(lp3707
Vm^y
p3708
aVi
aVs^y
p3709
aVa
aVt^s^y
p3710
asbs((imorph
Morph
(dp3711
g45
(lp3712
Vm
aVi
aVs
aVt
asb(imorph
Morph
(dp3713
g45
(lp3714
Vm
aVo
aVs
aVt
aVa
aVm
asb(imorph
Morph
(dp3715
g45
(lp3716
Vm
aVo
aVs
aVt
aVo
aVv^y
p3717
aVi
asb(imorph
Morph
(dp3718
g45
(lp3719
Vm
aVo
aVs
aVt^y
p3720
aVi
asbNNNNNNtp3721
(imorph
Morph
p3722
(dp3723
g45
(lp3724
Vm
aVo
aVs
aVt
asbs((imorph
Morph
(dp3725
g45
(lp3726
Vr
aVi
aVw
asb(imorph
Morph
(dp3727
g45
(lp3728
Vr
aVo
aVv
aVa
aVm
asb(imorph
Morph
(dp3729
g45
(lp3730
Vr
aVo
aVv
aVo
aVv^y
p3731
aVi
asb(imorph
Morph
(dp3732
g45
(lp3733
Vr
aVo
aVv^y
p3734
aVi
asbNNNNNNtp3735
(imorph
Morph
p3736
(dp3737
g45
(lp3738
Vr
aVo
aVv
asbs((imorph
Morph
(dp3739
g45
(lp3740
Vz
aVl
aVo
aVd^y
p3741
aVi
aVy
asb(imorph
Morph
(dp3742
g45
(lp3743
Vz
aVl
aVo
aVd^y
p3744
aVi
aVy
aVa
aVm
asb(imorph
Morph
(dp3745
g45
(lp3746
Vz
aVl
aVo
aVd^y
p3747
aVi
aVy
aVe
aVv^y
p3748
aVi
asbN(imorph
Morph
(dp3749
g45
(lp3750
Vz
aVl
aVo
aVd^y
p3751
aVi
aVy
aVe
aVv^y
p3752
aVi
asbNNNNNtp3753
(imorph
Morph
p3754
(dp3755
g45
(lp3756
Vz
aVl
aVo
aVd
aVi
aVy
asbs((imorph
Morph
(dp3757
g45
(lp3758
Vh
aVo
aVl
aVu
aVb
asb(imorph
Morph
(dp3759
g45
(lp3760
Vh
aVo
aVl
aVu
aVb
aVa
aVm
asb(imorph
Morph
(dp3761
g45
(lp3762
Vh
aVo
aVl
aVu
aVb
aVo
aVv^y
p3763
aVi
asb(imorph
Morph
(dp3764
g45
(lp3765
Vh
aVo
aVl
aVu
aVb^y
p3766
aVi
asbNNNNNNtp3767
(imorph
Morph
p3768
(dp3769
g45
(lp3770
Vh
aVo
aVl
aVu
aVb
asbs((imorph
Morph
(dp3771
g45
(lp3772
Vz
aVu
aVb
asb(imorph
Morph
(dp3773
g45
(lp3774
Vz
aVu
aVb
aVa
aVm
asb(imorph
Morph
(dp3775
g45
(lp3776
Vz
aVu
aVb
aVo
aVv^y
p3777
aVi
asb(imorph
Morph
(dp3778
g45
(lp3779
Vz
aVu
aVb^y
p3780
aVi
asbNNNNNNtp3781
(imorph
Morph
p3782
(dp3783
g45
(lp3784
Vz
aVu
aVb
asbs((imorph
Morph
(dp3785
g45
(lp3786
Vk
aVo
aVr
aVo
aVv
aVa
aVy
asb(imorph
Morph
(dp3787
g45
(lp3788
Vk
aVo
aVr
aVo
aVv
aVa
aVy
aVa
aVm
asb(imorph
Morph
(dp3789
g45
(lp3790
Vk
aVo
aVr
aVo
aVv
aVa
aVy
aVe
aVv^y
p3791
aVi
asb(imorph
Morph
(dp3792
g45
(lp3793
Vk
aVo
aVr
aVo
aVv
aVa
aVy
aVi
asbNNNNNNtp3794
(imorph
Morph
p3795
(dp3796
g45
(lp3797
Vk
aVo
aVr
aVo
aVv
aVa
aVy
asbssg94
(lp3798
(imorph
Morph
p3799
(dp3800
g45
(lp3801
sba(imorph
Morph
p3802
(dp3803
g45
(lp3804
Va
aVm
asba(imorph
Morph
p3805
(dp3806
g45
(lp3807
Vo
aVv^y
p3808
aVi
asba(imorph
Morph
p3809
(dp3810
g45
(lp3811
Vi
asba(imorph
Morph
p3812
(dp3813
g45
(lp3814
Ve
ag3499
aVi
asba(imorph
Morph
p3815
(dp3816
g45
(lp3817
sba(imorph
Morph
p3818
(dp3819
g45
(lp3820
sba(imorph
Morph
p3821
(dp3822
g45
(lp3823
sba(imorph
Morph
p3824
(dp3825
g45
(lp3826
sba(imorph
Morph
p3827
(dp3828
g45
(lp3829
sbasbF39028.294729948044
tp3830
a(g6
(g7
g8
NtRp3831
(dp3832
g11
(lp3833
(irule
Rule
p3834
(dp3835
g15
(irule
Guard
p3836
(dp3837
g18
I00
sg19
(lp3838
(irule
FeatureMatrix
p3839
(dp3840
g28
(lp3841
(I01
S'tense'
tp3842
asg22
V[ +tense ]
p3843
sbasg21
I00
sg22
g3843
sg23
I00
sg24
S'L'
sbsg25
(irule
ConstantPhoneme
p3844
(dp3845
S'p'
Vw
sbsg31
(irule
Guard
p3846
(dp3847
g18
I01
sg19
(lp3848
sg21
I00
sg22
V#
sg23
I00
sg24
S'R'
sbsg35
(irule
FeatureMatrix
p3849
(dp3850
g28
(lp3851
(I01
S'continuant'
p3852
tp3853
a(I00
S'palletized'
tp3854
asg22
V[ +continuant -palletized ]
p3855
sbsg22
V[ +continuant -palletized ] ---> w / [ +tense ] _ #
p3856
sba(irule
Rule
p3857
(dp3858
g15
(irule
Guard
p3859
(dp3860
g18
I00
sg19
(lp3861
(irule
FeatureMatrix
p3862
(dp3863
g28
(lp3864
(I00
g3852
tp3865
asg22
V[ -continuant ]
p3866
sbasg21
I00
sg22
g3866
sg23
I00
sg24
S'L'
sbsg25
(irule
ConstantPhoneme
p3867
(dp3868
S'p'
Vo
sbsg31
(irule
Guard
p3869
(dp3870
g18
I00
sg19
(lp3871
sg21
I00
sg22
V
sg23
I00
sg24
S'R'
sbsg35
(irule
FeatureMatrix
p3872
(dp3873
g28
(lp3874
(I00
S'high'
tp3875
a(I00
S'low'
tp3876
asg22
V[ -high -low ]
p3877
sbsg22
V[ -high -low ] ---> o / [ -continuant ] _ 
p3878
sba(irule
Rule
p3879
(dp3880
g15
(irule
Guard
p3881
(dp3882
g18
I00
sg19
(lp3883
(irule
FeatureMatrix
p3884
(dp3885
g28
(lp3886
(I01
S'palletized'
p3887
tp3888
asg22
V[ +palletized ]
p3889
sbasg21
I00
sg22
g3889
sg23
I00
sg24
S'L'
sbsg25
(irule
ConstantPhoneme
p3890
(dp3891
S'p'
Ve
sbsg31
(irule
Guard
p3892
(dp3893
g18
I00
sg19
(lp3894
(irule
FeatureMatrix
p3895
(dp3896
g28
(lp3897
(I01
S'voice'
tp3898
asg22
V[ +voice ]
p3899
sba(irule
FeatureMatrix
p3900
(dp3901
g28
(lp3902
sg22
V[  ]
p3903
sbasg21
I00
sg22
V[ +voice ] [  ]
p3904
sg23
I00
sg24
S'R'
sbsg35
(irule
FeatureMatrix
p3905
(dp3906
g28
(lp3907
sg22
V[  ]
p3908
sbsg22
V[  ] ---> e / [ +palletized ] _ [ +voice ] [  ]
p3909
sba(irule
Rule
p3910
(dp3911
g15
(irule
Guard
p3912
(dp3913
g18
I00
sg19
(lp3914
sg21
I00
sg22
V
sg23
I00
sg24
S'L'
sbsg25
(irule
FeatureMatrix
p3915
(dp3916
g28
(lp3917
(I01
g3887
tp3918
asg22
V[ +palletized ]
p3919
sbsg31
(irule
Guard
p3920
(dp3921
g18
I00
sg19
(lp3922
(irule
ConstantPhoneme
p3923
(dp3924
S'p'
Vi
sbasg21
I00
sg22
Vi
sg23
I00
sg24
S'R'
sbsg35
(irule
FeatureMatrix
p3925
(dp3926
g28
(lp3927
sg22
V[  ]
p3928
sbsg22
V[  ] ---> [ +palletized ] /  _ i
p3929
sba(irule
Rule
p3930
(dp3931
g15
(irule
Guard
p3932
(dp3933
g18
I00
sg19
(lp3934
sg21
I00
sg22
V
sg23
I00
sg24
S'L'
sbsg25
(irule
FeatureMatrix
p3935
(dp3936
g28
(lp3937
(I00
S'palletized'
tp3938
asg22
V[ -palletized ]
p3939
sbsg31
(irule
Guard
p3940
(dp3941
g18
I00
sg19
(lp3942
(irule
ConstantPhoneme
p3943
(dp3944
S'p'
Ve
sbasg21
I00
sg22
Ve
sg23
I00
sg24
S'R'
sbsg35
(irule
FeatureMatrix
p3945
(dp3946
g28
(lp3947
(I00
S'glide'
tp3948
asg22
V[ -glide ]
p3949
sbsg22
V[ -glide ] ---> [ -palletized ] /  _ e
p3950
sba(irule
Rule
p3951
(dp3952
g15
(irule
Guard
p3953
(dp3954
g18
I00
sg19
(lp3955
sg21
I00
sg22
V
sg23
I00
sg24
S'L'
sbsg25
(irule
ConstantPhoneme
p3956
(dp3957
S'p'
Vi
sbsg31
(irule
Guard
p3958
(dp3959
g18
I01
sg19
(lp3960
(irule
FeatureMatrix
p3961
(dp3962
g28
(lp3963
(I01
S'sibilant'
tp3964
asg22
V[ +sibilant ]
p3965
sba(irule
FeatureMatrix
p3966
(dp3967
g28
(lp3968
sg22
V[  ]
p3969
sbasg21
I00
sg22
V[ +sibilant ]* [  ] #
p3970
sg23
I01
sg24
S'R'
sbsg35
(irule
ConstantPhoneme
p3971
(dp3972
S'p'
Vo
sbsg22
Vo ---> i /  _ [ +sibilant ]* [  ] #
p3973
sbasg41
(lp3974
(imorph
Morph
p3975
(dp3976
g45
(lp3977
sba(imorph
Morph
p3978
(dp3979
g45
(lp3980
sba(imorph
Morph
p3981
(dp3982
g45
(lp3983
sba(imorph
Morph
p3984
(dp3985
g45
(lp3986
sba(imorph
Morph
p3987
(dp3988
g45
(lp3989
sba(imorph
Morph
p3990
(dp3991
g45
(lp3992
sba(imorph
Morph
p3993
(dp3994
g45
(lp3995
sba(imorph
Morph
p3996
(dp3997
g45
(lp3998
sba(imorph
Morph
p3999
(dp4000
g45
(lp4001
sba(imorph
Morph
p4002
(dp4003
g45
(lp4004
sbasg74
(dp4005
((imorph
Morph
(dp4006
g45
(lp4007
Vk
aVa
aVm^y
p4008
aVi
aVn^y
p4009
asb(imorph
Morph
(dp4010
g45
(lp4011
Vk
aVa
aVm
aVe
aVn^y
p4012
aVa
aVm
asb(imorph
Morph
(dp4013
g45
(lp4014
Vk
aVa
aVm
aVe
aVn
aVe
aVv^y
p4015
aVi
asb(imorph
Morph
(dp4016
g45
(lp4017
Vk
aVa
aVm
aVe
aVn^y
p4018
aVi
asbNNNNNNtp4019
(imorph
Morph
p4020
(dp4021
g45
(lp4022
Vk
aVa
aVm^y
p4023
aVi
aVn^y
p4024
asbs((imorph
Morph
(dp4025
g45
(lp4026
Vl
aVe
aVb^y
p4027
aVi
aVd^y
p4028
asb(imorph
Morph
(dp4029
g45
(lp4030
Vl
aVe
aVb
aVe
aVd^y
p4031
aVa
aVm
asb(imorph
Morph
(dp4032
g45
(lp4033
Vl
aVe
aVb
aVe
aVd
aVe
aVv^y
p4034
aVi
asb(imorph
Morph
(dp4035
g45
(lp4036
Vl
aVe
aVb
aVe
aVd^y
p4037
aVi
asbNNNNNNtp4038
(imorph
Morph
p4039
(dp4040
g45
(lp4041
Vl
aVe
aVb^y
p4042
aVi
aVd^y
p4043
asbs((imorph
Morph
(dp4044
g45
(lp4045
Vv
aVe
aVc\u030c
p4046
aVi
aVr
asb(imorph
Morph
(dp4047
g45
(lp4048
Vv
aVe
aVc\u030c
p4049
aVo
aVr
aVa
aVm
asb(imorph
Morph
(dp4050
g45
(lp4051
Vv
aVe
aVc\u030c
p4052
aVo
aVr
aVo
aVv^y
p4053
aVi
asb(imorph
Morph
(dp4054
g45
(lp4055
Vv
aVe
aVc\u030c
p4056
aVo
aVr^y
p4057
aVi
asbNNNNNNtp4058
(imorph
Morph
p4059
(dp4060
g45
(lp4061
Vv
aVe
aVc\u030c
p4062
aVr^y
p4063
aVr
asbs((imorph
Morph
(dp4064
g45
(lp4065
Vk
aVo
aV\u0161^y
p4066
aVi
aVl^y
p4067
asb(imorph
Morph
(dp4068
g45
(lp4069
Vk
aVo
aV\u0161
aVe
aVl^y
p4070
aVa
aVm
asb(imorph
Morph
(dp4071
g45
(lp4072
Vk
aVo
aV\u0161
aVe
aVl
aVe
aVv^y
p4073
aVi
asb(imorph
Morph
(dp4074
g45
(lp4075
Vk
aVo
aV\u0161
aVe
aVl^y
p4076
aVi
asbNNNNNNtp4077
(imorph
Morph
p4078
(dp4079
g45
(lp4080
Vk
aVo
aV\u0161^y
p4081
aVi
aVl^y
p4082
asbs((imorph
Morph
(dp4083
g45
(lp4084
Vx
aVl^y
p4085
aVi
aVw
asb(imorph
Morph
(dp4086
g45
(lp4087
Vx
aVl^y
p4088
aVi
aVv
aVa
aVm
asb(imorph
Morph
(dp4089
g45
(lp4090
Vx
aVl^y
p4091
aVi
aVv
aVo
aVv^y
p4092
aVi
asb(imorph
Morph
(dp4093
g45
(lp4094
Vx
aVl^y
p4095
aVi
aVv^y
p4096
aVi
asbNNNNNNtp4097
(imorph
Morph
p4098
(dp4099
g45
(lp4100
Vx
aVl
aVi
aVv
asbs((imorph
Morph
(dp4101
g45
(lp4102
Vs
aVv^y
p4103
aVi
aVt
asb(imorph
Morph
(dp4104
g45
(lp4105
Vs
aVv^y
p4106
aVi
aVt
aVa
aVm
asb(imorph
Morph
(dp4107
g45
(lp4108
Vs
aVv^y
p4109
aVi
aVt
aVo
aVv^y
p4110
aVi
asb(imorph
Morph
(dp4111
g45
(lp4112
Vs
aVv^y
p4113
aVi
aVt^y
p4114
aVi
asbNNNNNNtp4115
(imorph
Morph
p4116
(dp4117
g45
(lp4118
Vs
aVv^y
p4119
aVi
aVt
asbs((imorph
Morph
(dp4120
g45
(lp4121
Vd^y
p4122
aVi
aVd
asb(imorph
Morph
(dp4123
g45
(lp4124
Vd^y
p4125
aVi
aVd
aVa
aVm
asb(imorph
Morph
(dp4126
g45
(lp4127
Vd^y
p4128
aVi
aVd
aVo
aVv^y
p4129
aVi
asbN(imorph
Morph
(dp4130
g45
(lp4131
Vd^y
p4132
aVi
aVd
aVo
aVv^y
p4133
aVi
asbNNNNNtp4134
(imorph
Morph
p4135
(dp4136
g45
(lp4137
Vd
aVi
aVd
asbs((imorph
Morph
(dp4138
g45
(lp4139
Vz^y
p4140
aVa
aVt^y
p4141
asb(imorph
Morph
(dp4142
g45
(lp4143
Vz^y
p4144
aVa
aVt^y
p4145
aVa
aVm
asb(imorph
Morph
(dp4146
g45
(lp4147
Vz^y
p4148
aVa
aVt
aVe
aVv^y
p4149
aVi
asbN(imorph
Morph
(dp4150
g45
(lp4151
Vz^y
p4152
aVa
aVt
aVe
aVv^y
p4153
aVi
asbNNNNNtp4154
(imorph
Morph
p4155
(dp4156
g45
(lp4157
Vz^y
p4158
aVa
aVt^y
p4159
asbs((imorph
Morph
(dp4160
g45
(lp4161
Vl^y
p4162
aVi
aVt
asb(imorph
Morph
(dp4163
g45
(lp4164
Vl^y
p4165
aVo
aVt
aVa
aVm
asb(imorph
Morph
(dp4166
g45
(lp4167
Vl^y
p4168
aVo
aVt
aVo
aVv^y
p4169
aVi
asb(imorph
Morph
(dp4170
g45
(lp4171
Vl^y
p4172
aVo
aVt^y
p4173
aVi
asbNNNNNNtp4174
(imorph
Morph
p4175
(dp4176
g45
(lp4177
Vl^y
p4178
aVo
aVt
asbs((imorph
Morph
(dp4179
g45
(lp4180
Vm^y
p4181
aVi
aVd^y
p4182
asb(imorph
Morph
(dp4183
g45
(lp4184
Vm^y
p4185
aVi
aVd^y
p4186
aVa
aVm
asb(imorph
Morph
(dp4187
g45
(lp4188
Vm^y
p4189
aVi
aVd
aVe
aVv^y
p4190
aVi
asb(imorph
Morph
(dp4191
g45
(lp4192
Vm^y
p4193
aVi
aVd^y
p4194
aVi
asbNNNNNNtp4195
(imorph
Morph
p4196
(dp4197
g45
(lp4198
Vm
aVi
aVd^y
p4199
asbs((imorph
Morph
(dp4200
g45
(lp4201
Vs^y
p4202
aVi
aVn
asb(imorph
Morph
(dp4203
g45
(lp4204
Vs^y
p4205
aVi
aVn
aVa
aVm
asb(imorph
Morph
(dp4206
g45
(lp4207
Vs^y
p4208
aVi
aVn
aVo
aVv^y
p4209
aVi
asb(imorph
Morph
(dp4210
g45
(lp4211
Vs^y
p4212
aVi
aVn^y
p4213
aVi
asbNNNNNNtp4214
(imorph
Morph
p4215
(dp4216
g45
(lp4217
Vs
aVi
aVn
asbs((imorph
Morph
(dp4218
g45
(lp4219
Vc\u030c
p4220
aVo
aVl
aVo
aVv^y
p4221
aVi
aVk
asb(imorph
Morph
(dp4222
g45
(lp4223
Vc\u030c
p4224
aVo
aVl
aVo
aVv^y
p4225
aVi
aVk
aVa
aVm
asb(imorph
Morph
(dp4226
g45
(lp4227
Vc\u030c
p4228
aVo
aVl
aVo
aVv^y
p4229
aVi
aVk
aVo
aVv^y
p4230
aVi
asbN(imorph
Morph
(dp4231
g45
(lp4232
Vc\u030c
p4233
aVo
aVl
aVo
aVv^y
p4234
aVi
aVk
aVo
aVv^y
p4235
aVi
asbNNNNNtp4236
(imorph
Morph
p4237
(dp4238
g45
(lp4239
g4062
aVo
aVl
aVo
aVv^y
p4240
aVi
aVk
asbs((imorph
Morph
(dp4241
g45
(lp4242
Vb
aVi
aVl^y
p4243
asb(imorph
Morph
(dp4244
g45
(lp4245
Vb
aVo
aVl^y
p4246
aVa
aVm
asb(imorph
Morph
(dp4247
g45
(lp4248
Vb
aVo
aVl
aVe
aVv^y
p4249
aVi
asb(imorph
Morph
(dp4250
g45
(lp4251
Vb
aVo
aVl^y
p4252
aVi
asbNNNNNNtp4253
(imorph
Morph
p4254
(dp4255
g45
(lp4256
Vb
aVo
aVl^y
p4257
asbs((imorph
Morph
(dp4258
g45
(lp4259
Vs
aVt
aVi
aVw
asb(imorph
Morph
(dp4260
g45
(lp4261
Vs
aVt
aVo
aVl
aVa
aVm
asb(imorph
Morph
(dp4262
g45
(lp4263
Vs
aVt
aVo
aVl
aVo
aVv^y
p4264
aVi
asb(imorph
Morph
(dp4265
g45
(lp4266
Vs
aVt
aVo
aVl^y
p4267
aVi
asbNNNNNNtp4268
(imorph
Morph
p4269
(dp4270
g45
(lp4271
Vs
aVt
aVo
aVl
asbs((imorph
Morph
(dp4272
g45
(lp4273
Vl^y
p4274
aVi
aVd
asb(imorph
Morph
(dp4275
g45
(lp4276
Vl
aVe
aVd
aVa
aVm
asb(imorph
Morph
(dp4277
g45
(lp4278
Vl
aVe
aVd
aVo
aVv^y
p4279
aVi
asb(imorph
Morph
(dp4280
g45
(lp4281
Vl
aVe
aVd^y
p4282
aVi
asbNNNNNNtp4283
(imorph
Morph
p4284
(dp4285
g45
(lp4286
g4257
aVi
aVd
asbs((imorph
Morph
(dp4287
g45
(lp4288
Vs
aVu
aVs^y
p4289
aVi
aVd
asb(imorph
Morph
(dp4290
g45
(lp4291
Vs
aVu
aVs^y
p4292
aVi
aVd
aVa
aVm
asb(imorph
Morph
(dp4293
g45
(lp4294
Vs
aVu
aVs^y
p4295
aVi
aVd
aVo
aVv^y
p4296
aVi
asbN(imorph
Morph
(dp4297
g45
(lp4298
Vs
aVu
aVs^y
p4299
aVi
aVd
aVo
aVv^y
p4300
aVi
asbNNNNNtp4301
(imorph
Morph
p4302
(dp4303
g45
(lp4304
Vs
aVu
aVs
aVi
aVd
asbs((imorph
Morph
(dp4305
g45
(lp4306
Vm^y
p4307
aVi
aVs^y
p4308
aVa
aVt^s^y
p4309
asb(imorph
Morph
(dp4310
g45
(lp4311
Vm^y
p4312
aVi
aVs^y
p4313
aVa
aVt^s^y
p4314
aVa
aVm
asb(imorph
Morph
(dp4315
g45
(lp4316
Vm^y
p4317
aVi
aVs^y
p4318
aVa
aVt^s
p4319
aVe
aVv^y
p4320
aVi
asb(imorph
Morph
(dp4321
g45
(lp4322
Vm^y
p4323
aVi
aVs^y
p4324
aVa
aVt^s^y
p4325
aVi
asbNNNNNNtp4326
(imorph
Morph
p4327
(dp4328
g45
(lp4329
Vm^y
p4330
aVi
aVs^y
p4331
aVa
aVt^s^y
p4332
asbs((imorph
Morph
(dp4333
g45
(lp4334
Vm
aVi
aVs
aVt
asb(imorph
Morph
(dp4335
g45
(lp4336
Vm
aVo
aVs
aVt
aVa
aVm
asb(imorph
Morph
(dp4337
g45
(lp4338
Vm
aVo
aVs
aVt
aVo
aVv^y
p4339
aVi
asb(imorph
Morph
(dp4340
g45
(lp4341
Vm
aVo
aVs
aVt^y
p4342
aVi
asbNNNNNNtp4343
(imorph
Morph
p4344
(dp4345
g45
(lp4346
Vm
aVo
aVs
aVt
asbs((imorph
Morph
(dp4347
g45
(lp4348
Vr
aVi
aVw
asb(imorph
Morph
(dp4349
g45
(lp4350
Vr
aVo
aVv
aVa
aVm
asb(imorph
Morph
(dp4351
g45
(lp4352
Vr
aVo
aVv
aVo
aVv^y
p4353
aVi
asb(imorph
Morph
(dp4354
g45
(lp4355
Vr
aVo
aVv^y
p4356
aVi
asbNNNNNNtp4357
(imorph
Morph
p4358
(dp4359
g45
(lp4360
Vr
aVo
aVv
asbs((imorph
Morph
(dp4361
g45
(lp4362
Vz
aVl
aVo
aVd^y
p4363
aVi
aVy
asb(imorph
Morph
(dp4364
g45
(lp4365
Vz
aVl
aVo
aVd^y
p4366
aVi
aVy
aVa
aVm
asb(imorph
Morph
(dp4367
g45
(lp4368
Vz
aVl
aVo
aVd^y
p4369
aVi
aVy
aVe
aVv^y
p4370
aVi
asbN(imorph
Morph
(dp4371
g45
(lp4372
Vz
aVl
aVo
aVd^y
p4373
aVi
aVy
aVe
aVv^y
p4374
aVi
asbNNNNNtp4375
(imorph
Morph
p4376
(dp4377
g45
(lp4378
Vz
aVl
aVo
aVd
aVi
aVy
asbs((imorph
Morph
(dp4379
g45
(lp4380
Vh
aVo
aVl
aVu
aVb
asb(imorph
Morph
(dp4381
g45
(lp4382
Vh
aVo
aVl
aVu
aVb
aVa
aVm
asb(imorph
Morph
(dp4383
g45
(lp4384
Vh
aVo
aVl
aVu
aVb
aVo
aVv^y
p4385
aVi
asb(imorph
Morph
(dp4386
g45
(lp4387
Vh
aVo
aVl
aVu
aVb^y
p4388
aVi
asbNNNNNNtp4389
(imorph
Morph
p4390
(dp4391
g45
(lp4392
Vh
aVo
aVl
aVu
aVb
asbs((imorph
Morph
(dp4393
g45
(lp4394
Vz
aVu
aVb
asb(imorph
Morph
(dp4395
g45
(lp4396
Vz
aVu
aVb
aVa
aVm
asb(imorph
Morph
(dp4397
g45
(lp4398
Vz
aVu
aVb
aVo
aVv^y
p4399
aVi
asb(imorph
Morph
(dp4400
g45
(lp4401
Vz
aVu
aVb^y
p4402
aVi
asbNNNNNNtp4403
(imorph
Morph
p4404
(dp4405
g45
(lp4406
Vz
aVu
aVb
asbs((imorph
Morph
(dp4407
g45
(lp4408
Vk
aVo
aVr
aVo
aVv
aVa
aVy
asb(imorph
Morph
(dp4409
g45
(lp4410
Vk
aVo
aVr
aVo
aVv
aVa
aVy
aVa
aVm
asb(imorph
Morph
(dp4411
g45
(lp4412
Vk
aVo
aVr
aVo
aVv
aVa
aVy
aVe
aVv^y
p4413
aVi
asb(imorph
Morph
(dp4414
g45
(lp4415
Vk
aVo
aVr
aVo
aVv
aVa
aVy
aVi
asbNNNNNNtp4416
(imorph
Morph
p4417
(dp4418
g45
(lp4419
Vk
aVo
aVr
aVo
aVv
aVa
aVy
asbssg94
(lp4420
(imorph
Morph
p4421
(dp4422
g45
(lp4423
sba(imorph
Morph
p4424
(dp4425
g45
(lp4426
Va
aVm
asba(imorph
Morph
p4427
(dp4428
g45
(lp4429
Vo
aVv^y
p4430
aVi
asba(imorph
Morph
p4431
(dp4432
g45
(lp4433
Vi
asba(imorph
Morph
p4434
(dp4435
g45
(lp4436
Ve
ag4119
aVi
asba(imorph
Morph
p4437
(dp4438
g45
(lp4439
sba(imorph
Morph
p4440
(dp4441
g45
(lp4442
sba(imorph
Morph
p4443
(dp4444
g45
(lp4445
sba(imorph
Morph
p4446
(dp4447
g45
(lp4448
sba(imorph
Morph
p4449
(dp4450
g45
(lp4451
sbasbF46770.635907888412
tp4452
a(g6
(g7
g8
NtRp4453
(dp4454
g11
(lp4455
(irule
Rule
p4456
(dp4457
g15
(irule
Guard
p4458
(dp4459
g18
I00
sg19
(lp4460
(irule
FeatureMatrix
p4461
(dp4462
g28
(lp4463
(I01
S'tense'
tp4464
asg22
V[ +tense ]
p4465
sbasg21
I00
sg22
g4465
sg23
I00
sg24
S'L'
sbsg25
(irule
ConstantPhoneme
p4466
(dp4467
S'p'
Vw
sbsg31
(irule
Guard
p4468
(dp4469
g18
I01
sg19
(lp4470
sg21
I00
sg22
V#
sg23
I00
sg24
S'R'
sbsg35
(irule
FeatureMatrix
p4471
(dp4472
g28
(lp4473
(I01
S'continuant'
tp4474
a(I00
S'palletized'
tp4475
asg22
V[ +continuant -palletized ]
p4476
sbsg22
V[ +continuant -palletized ] ---> w / [ +tense ] _ #
p4477
sba(irule
Rule
p4478
(dp4479
g15
(irule
Guard
p4480
(dp4481
g18
I00
sg19
(lp4482
(irule
FeatureMatrix
p4483
(dp4484
g28
(lp4485
(I00
S'continuant'
tp4486
asg22
V[ -continuant ]
p4487
sbasg21
I00
sg22
g4487
sg23
I00
sg24
S'L'
sbsg25
(irule
ConstantPhoneme
p4488
(dp4489
S'p'
Vo
sbsg31
(irule
Guard
p4490
(dp4491
g18
I00
sg19
(lp4492
sg21
I00
sg22
V
sg23
I00
sg24
S'R'
sbsg35
(irule
FeatureMatrix
p4493
(dp4494
g28
(lp4495
(I00
S'high'
tp4496
a(I00
S'low'
tp4497
asg22
V[ -high -low ]
p4498
sbsg22
V[ -high -low ] ---> o / [ -continuant ] _ 
p4499
sba(irule
Rule
p4500
(dp4501
g15
(irule
Guard
p4502
(dp4503
g18
I00
sg19
(lp4504
(irule
FeatureMatrix
p4505
(dp4506
g28
(lp4507
(I01
S'palletized'
p4508
tp4509
asg22
V[ +palletized ]
p4510
sbasg21
I00
sg22
g4510
sg23
I00
sg24
S'L'
sbsg25
(irule
ConstantPhoneme
p4511
(dp4512
S'p'
Ve
sbsg31
(irule
Guard
p4513
(dp4514
g18
I00
sg19
(lp4515
(irule
FeatureMatrix
p4516
(dp4517
g28
(lp4518
(I01
S'voice'
tp4519
asg22
V[ +voice ]
p4520
sba(irule
FeatureMatrix
p4521
(dp4522
g28
(lp4523
sg22
V[  ]
p4524
sbasg21
I00
sg22
V[ +voice ] [  ]
p4525
sg23
I00
sg24
S'R'
sbsg35
(irule
FeatureMatrix
p4526
(dp4527
g28
(lp4528
sg22
V[  ]
p4529
sbsg22
V[  ] ---> e / [ +palletized ] _ [ +voice ] [  ]
p4530
sba(irule
Rule
p4531
(dp4532
g15
(irule
Guard
p4533
(dp4534
g18
I00
sg19
(lp4535
sg21
I00
sg22
V
sg23
I00
sg24
S'L'
sbsg25
(irule
FeatureMatrix
p4536
(dp4537
g28
(lp4538
(I00
S'palletized'
tp4539
asg22
V[ -palletized ]
p4540
sbsg31
(irule
Guard
p4541
(dp4542
g18
I00
sg19
(lp4543
(irule
ConstantPhoneme
p4544
(dp4545
S'p'
Ve
sbasg21
I00
sg22
Ve
sg23
I00
sg24
S'R'
sbsg35
(irule
FeatureMatrix
p4546
(dp4547
g28
(lp4548
(I00
S'glide'
tp4549
asg22
V[ -glide ]
p4550
sbsg22
V[ -glide ] ---> [ -palletized ] /  _ e
p4551
sba(irule
Rule
p4552
(dp4553
g15
(irule
Guard
p4554
(dp4555
g18
I00
sg19
(lp4556
sg21
I00
sg22
V
sg23
I00
sg24
S'L'
sbsg25
(irule
FeatureMatrix
p4557
(dp4558
g28
(lp4559
(I01
g4508
tp4560
asg22
V[ +palletized ]
p4561
sbsg31
(irule
Guard
p4562
(dp4563
g18
I00
sg19
(lp4564
(irule
ConstantPhoneme
p4565
(dp4566
S'p'
Vi
sbasg21
I00
sg22
Vi
sg23
I00
sg24
S'R'
sbsg35
(irule
FeatureMatrix
p4567
(dp4568
g28
(lp4569
sg22
V[  ]
p4570
sbsg22
V[  ] ---> [ +palletized ] /  _ i
p4571
sba(irule
Rule
p4572
(dp4573
g15
(irule
Guard
p4574
(dp4575
g18
I00
sg19
(lp4576
sg21
I00
sg22
V
sg23
I00
sg24
S'L'
sbsg25
(irule
ConstantPhoneme
p4577
(dp4578
S'p'
Vi
sbsg31
(irule
Guard
p4579
(dp4580
g18
I01
sg19
(lp4581
(irule
FeatureMatrix
p4582
(dp4583
g28
(lp4584
(I01
S'sibilant'
tp4585
asg22
V[ +sibilant ]
p4586
sba(irule
FeatureMatrix
p4587
(dp4588
g28
(lp4589
sg22
V[  ]
p4590
sbasg21
I00
sg22
V[ +sibilant ]* [  ] #
p4591
sg23
I01
sg24
S'R'
sbsg35
(irule
ConstantPhoneme
p4592
(dp4593
S'p'
Vo
sbsg22
Vo ---> i /  _ [ +sibilant ]* [  ] #
p4594
sbasg41
(lp4595
(imorph
Morph
p4596
(dp4597
g45
(lp4598
sba(imorph
Morph
p4599
(dp4600
g45
(lp4601
sba(imorph
Morph
p4602
(dp4603
g45
(lp4604
sba(imorph
Morph
p4605
(dp4606
g45
(lp4607
sba(imorph
Morph
p4608
(dp4609
g45
(lp4610
sba(imorph
Morph
p4611
(dp4612
g45
(lp4613
sba(imorph
Morph
p4614
(dp4615
g45
(lp4616
sba(imorph
Morph
p4617
(dp4618
g45
(lp4619
sba(imorph
Morph
p4620
(dp4621
g45
(lp4622
sba(imorph
Morph
p4623
(dp4624
g45
(lp4625
sbasg74
(dp4626
((imorph
Morph
(dp4627
g45
(lp4628
Vk
aVa
aVm^y
p4629
aVi
aVn^y
p4630
asb(imorph
Morph
(dp4631
g45
(lp4632
Vk
aVa
aVm
aVe
aVn^y
p4633
aVa
aVm
asb(imorph
Morph
(dp4634
g45
(lp4635
Vk
aVa
aVm
aVe
aVn
aVe
aVv^y
p4636
aVi
asb(imorph
Morph
(dp4637
g45
(lp4638
Vk
aVa
aVm
aVe
aVn^y
p4639
aVi
asbNNNNNNtp4640
(imorph
Morph
p4641
(dp4642
g45
(lp4643
Vk
aVa
aVm^y
p4644
aVi
aVn^y
p4645
asbs((imorph
Morph
(dp4646
g45
(lp4647
Vl
aVe
aVb^y
p4648
aVi
aVd^y
p4649
asb(imorph
Morph
(dp4650
g45
(lp4651
Vl
aVe
aVb
aVe
aVd^y
p4652
aVa
aVm
asb(imorph
Morph
(dp4653
g45
(lp4654
Vl
aVe
aVb
aVe
aVd
aVe
aVv^y
p4655
aVi
asb(imorph
Morph
(dp4656
g45
(lp4657
Vl
aVe
aVb
aVe
aVd^y
p4658
aVi
asbNNNNNNtp4659
(imorph
Morph
p4660
(dp4661
g45
(lp4662
Vl^y
p4663
aVw
aVb^y
p4664
aVi
aVd^y
p4665
asbs((imorph
Morph
(dp4666
g45
(lp4667
Vv
aVe
aVc\u030c
p4668
aVi
aVr
asb(imorph
Morph
(dp4669
g45
(lp4670
Vv
aVe
aVc\u030c
p4671
aVo
aVr
aVa
aVm
asb(imorph
Morph
(dp4672
g45
(lp4673
Vv
aVe
aVc\u030c
p4674
aVo
aVr
aVo
aVv^y
p4675
aVi
asb(imorph
Morph
(dp4676
g45
(lp4677
Vv
aVe
aVc\u030c
p4678
aVo
aVr^y
p4679
aVi
asbNNNNNNtp4680
(imorph
Morph
p4681
(dp4682
g45
(lp4683
Vv^y
p4684
aVe
aVc\u030c
p4685
aVl
aVr
asbs((imorph
Morph
(dp4686
g45
(lp4687
Vk
aVo
aV\u0161^y
p4688
aVi
aVl^y
p4689
asb(imorph
Morph
(dp4690
g45
(lp4691
Vk
aVo
aV\u0161
aVe
aVl^y
p4692
aVa
aVm
asb(imorph
Morph
(dp4693
g45
(lp4694
Vk
aVo
aV\u0161
aVe
aVl
aVe
aVv^y
p4695
aVi
asb(imorph
Morph
(dp4696
g45
(lp4697
Vk
aVo
aV\u0161
aVe
aVl^y
p4698
aVi
asbNNNNNNtp4699
(imorph
Morph
p4700
(dp4701
g45
(lp4702
Vk
aVo
aV\u0161^y
p4703
aVi
aVl^y
p4704
asbs((imorph
Morph
(dp4705
g45
(lp4706
Vx
aVl^y
p4707
aVi
aVw
asb(imorph
Morph
(dp4708
g45
(lp4709
Vx
aVl^y
p4710
aVi
aVv
aVa
aVm
asb(imorph
Morph
(dp4711
g45
(lp4712
Vx
aVl^y
p4713
aVi
aVv
aVo
aVv^y
p4714
aVi
asb(imorph
Morph
(dp4715
g45
(lp4716
Vx
aVl^y
p4717
aVi
aVv^y
p4718
aVi
asbNNNNNNtp4719
(imorph
Morph
p4720
(dp4721
g45
(lp4722
Vx
aVl
aVi
aVv
asbs((imorph
Morph
(dp4723
g45
(lp4724
Vs
aVv^y
p4725
aVi
aVt
asb(imorph
Morph
(dp4726
g45
(lp4727
Vs
aVv^y
p4728
aVi
aVt
aVa
aVm
asb(imorph
Morph
(dp4729
g45
(lp4730
Vs
aVv^y
p4731
aVi
aVt
aVo
aVv^y
p4732
aVi
asb(imorph
Morph
(dp4733
g45
(lp4734
Vs
aVv^y
p4735
aVi
aVt^y
p4736
aVi
asbNNNNNNtp4737
(imorph
Morph
p4738
(dp4739
g45
(lp4740
Vs
aVv^y
p4741
aVi
aVt
asbs((imorph
Morph
(dp4742
g45
(lp4743
Vd^y
p4744
aVi
aVd
asb(imorph
Morph
(dp4745
g45
(lp4746
Vd^y
p4747
aVi
aVd
aVa
aVm
asb(imorph
Morph
(dp4748
g45
(lp4749
Vd^y
p4750
aVi
aVd
aVo
aVv^y
p4751
aVi
asbN(imorph
Morph
(dp4752
g45
(lp4753
Vd^y
p4754
aVi
aVd
aVo
aVv^y
p4755
aVi
asbNNNNNtp4756
(imorph
Morph
p4757
(dp4758
g45
(lp4759
Vd
aVi
aVd
asbs((imorph
Morph
(dp4760
g45
(lp4761
Vz^y
p4762
aVa
aVt^y
p4763
asb(imorph
Morph
(dp4764
g45
(lp4765
Vz^y
p4766
aVa
aVt^y
p4767
aVa
aVm
asb(imorph
Morph
(dp4768
g45
(lp4769
Vz^y
p4770
aVa
aVt
aVe
aVv^y
p4771
aVi
asbN(imorph
Morph
(dp4772
g45
(lp4773
Vz^y
p4774
aVa
aVt
aVe
aVv^y
p4775
aVi
asbNNNNNtp4776
(imorph
Morph
p4777
(dp4778
g45
(lp4779
Vz^y
p4780
aVa
aVt^y
p4781
asbs(NNNNN(imorph
Morph
(dp4782
g45
(lp4783
Vt^y
p4784
aVi
aVl
aVo
asb(imorph
Morph
(dp4785
g45
(lp4786
Vt^y
p4787
aVi
aVl
aVa
asb(imorph
Morph
(dp4788
g45
(lp4789
Vt^y
p4790
aVi
aVl
aVu
asb(imorph
Morph
(dp4791
g45
(lp4792
Vt^y
p4793
aVi
aVl^y
p4794
aVi
asb(imorph
Morph
(dp4795
g45
(lp4796
Vt^y
p4797
aVi
aVw
asbtp4798
(imorph
Morph
p4799
(dp4800
g45
(lp4801
Vt
aVi
aVl
asbs((imorph
Morph
(dp4802
g45
(lp4803
Vl^y
p4804
aVi
aVt
asb(imorph
Morph
(dp4805
g45
(lp4806
Vl^y
p4807
aVo
aVt
aVa
aVm
asb(imorph
Morph
(dp4808
g45
(lp4809
Vl^y
p4810
aVo
aVt
aVo
aVv^y
p4811
aVi
asb(imorph
Morph
(dp4812
g45
(lp4813
Vl^y
p4814
aVo
aVt^y
p4815
aVi
asbNNNNNNtp4816
(imorph
Morph
p4817
(dp4818
g45
(lp4819
g4663
aVo
aVt
asbs((imorph
Morph
(dp4820
g45
(lp4821
Vm^y
p4822
aVi
aVd^y
p4823
asb(imorph
Morph
(dp4824
g45
(lp4825
Vm^y
p4826
aVi
aVd^y
p4827
aVa
aVm
asb(imorph
Morph
(dp4828
g45
(lp4829
Vm^y
p4830
aVi
aVd
aVe
aVv^y
p4831
aVi
asb(imorph
Morph
(dp4832
g45
(lp4833
Vm^y
p4834
aVi
aVd^y
p4835
aVi
asbNNNNNNtp4836
(imorph
Morph
p4837
(dp4838
g45
(lp4839
Vm
aVi
aVd^y
p4840
asbs((imorph
Morph
(dp4841
g45
(lp4842
Vs^y
p4843
aVi
aVn
asb(imorph
Morph
(dp4844
g45
(lp4845
Vs^y
p4846
aVi
aVn
aVa
aVm
asb(imorph
Morph
(dp4847
g45
(lp4848
Vs^y
p4849
aVi
aVn
aVo
aVv^y
p4850
aVi
asb(imorph
Morph
(dp4851
g45
(lp4852
Vs^y
p4853
aVi
aVn^y
p4854
aVi
asbNNNNNNtp4855
(imorph
Morph
p4856
(dp4857
g45
(lp4858
Vs
aVi
aVn
asbs((imorph
Morph
(dp4859
g45
(lp4860
Vc\u030c
p4861
aVo
aVl
aVo
aVv^y
p4862
aVi
aVk
asb(imorph
Morph
(dp4863
g45
(lp4864
Vc\u030c
p4865
aVo
aVl
aVo
aVv^y
p4866
aVi
aVk
aVa
aVm
asb(imorph
Morph
(dp4867
g45
(lp4868
Vc\u030c
p4869
aVo
aVl
aVo
aVv^y
p4870
aVi
aVk
aVo
aVv^y
p4871
aVi
asbN(imorph
Morph
(dp4872
g45
(lp4873
Vc\u030c
p4874
aVo
aVl
aVo
aVv^y
p4875
aVi
aVk
aVo
aVv^y
p4876
aVi
asbNNNNNtp4877
(imorph
Morph
p4878
(dp4879
g45
(lp4880
g4685
ag4684
aVl
aVo
ag4684
aVi
aVk
asbs((imorph
Morph
(dp4881
g45
(lp4882
Vb
aVi
aVl^y
p4883
asb(imorph
Morph
(dp4884
g45
(lp4885
Vb
aVo
aVl^y
p4886
aVa
aVm
asb(imorph
Morph
(dp4887
g45
(lp4888
Vb
aVo
aVl
aVe
aVv^y
p4889
aVi
asb(imorph
Morph
(dp4890
g45
(lp4891
Vb
aVo
aVl^y
p4892
aVi
asbNNNNNNtp4893
(imorph
Morph
p4894
(dp4895
g45
(lp4896
Vb
aVo
aVl^y
p4897
asbs((imorph
Morph
(dp4898
g45
(lp4899
Vs
aVt
aVi
aVw
asb(imorph
Morph
(dp4900
g45
(lp4901
Vs
aVt
aVo
aVl
aVa
aVm
asb(imorph
Morph
(dp4902
g45
(lp4903
Vs
aVt
aVo
aVl
aVo
aVv^y
p4904
aVi
asb(imorph
Morph
(dp4905
g45
(lp4906
Vs
aVt
aVo
aVl^y
p4907
aVi
asbNNNNNNtp4908
(imorph
Morph
p4909
(dp4910
g45
(lp4911
Vs
aVt
aVo
aVl
asbs((imorph
Morph
(dp4912
g45
(lp4913
Vl^y
p4914
aVi
aVd
asb(imorph
Morph
(dp4915
g45
(lp4916
Vl
aVe
aVd
aVa
aVm
asb(imorph
Morph
(dp4917
g45
(lp4918
Vl
aVe
aVd
aVo
aVv^y
p4919
aVi
asb(imorph
Morph
(dp4920
g45
(lp4921
Vl
aVe
aVd^y
p4922
aVi
asbNNNNNNtp4923
(imorph
Morph
p4924
(dp4925
g45
(lp4926
g4897
aVi
aVd
asbs((imorph
Morph
(dp4927
g45
(lp4928
Vs
aVu
aVs^y
p4929
aVi
aVd
asb(imorph
Morph
(dp4930
g45
(lp4931
Vs
aVu
aVs^y
p4932
aVi
aVd
aVa
aVm
asb(imorph
Morph
(dp4933
g45
(lp4934
Vs
aVu
aVs^y
p4935
aVi
aVd
aVo
aVv^y
p4936
aVi
asbN(imorph
Morph
(dp4937
g45
(lp4938
Vs
aVu
aVs^y
p4939
aVi
aVd
aVo
aVv^y
p4940
aVi
asbNNNNNtp4941
(imorph
Morph
p4942
(dp4943
g45
(lp4944
Vs
aVu
aVs
aVi
aVd
asbs((imorph
Morph
(dp4945
g45
(lp4946
Vm^y
p4947
aVi
aVs^y
p4948
aVa
aVt^s^y
p4949
asb(imorph
Morph
(dp4950
g45
(lp4951
Vm^y
p4952
aVi
aVs^y
p4953
aVa
aVt^s^y
p4954
aVa
aVm
asb(imorph
Morph
(dp4955
g45
(lp4956
Vm^y
p4957
aVi
aVs^y
p4958
aVa
aVt^s
p4959
aVe
aVv^y
p4960
aVi
asb(imorph
Morph
(dp4961
g45
(lp4962
Vm^y
p4963
aVi
aVs^y
p4964
aVa
aVt^s^y
p4965
aVi
asbNNNNNNtp4966
(imorph
Morph
p4967
(dp4968
g45
(lp4969
Vm^y
p4970
aVi
aVs^y
p4971
aVa
aVt^s^y
p4972
asbs((imorph
Morph
(dp4973
g45
(lp4974
Vm
aVi
aVs
aVt
asb(imorph
Morph
(dp4975
g45
(lp4976
Vm
aVo
aVs
aVt
aVa
aVm
asb(imorph
Morph
(dp4977
g45
(lp4978
Vm
aVo
aVs
aVt
aVo
aVv^y
p4979
aVi
asb(imorph
Morph
(dp4980
g45
(lp4981
Vm
aVo
aVs
aVt^y
p4982
aVi
asbNNNNNNtp4983
(imorph
Morph
p4984
(dp4985
g45
(lp4986
Vm
aVo
aVs
aVt
asbs((imorph
Morph
(dp4987
g45
(lp4988
Vr
aVi
aVw
asb(imorph
Morph
(dp4989
g45
(lp4990
Vr
aVo
aVv
aVa
aVm
asb(imorph
Morph
(dp4991
g45
(lp4992
Vr
aVo
aVv
aVo
aVv^y
p4993
aVi
asb(imorph
Morph
(dp4994
g45
(lp4995
Vr
aVo
aVv^y
p4996
aVi
asbNNNNNNtp4997
(imorph
Morph
p4998
(dp4999
g45
(lp5000
Vr
aVo
aVv
asbs((imorph
Morph
(dp5001
g45
(lp5002
Vz
aVl
aVo
aVd^y
p5003
aVi
aVy
asb(imorph
Morph
(dp5004
g45
(lp5005
Vz
aVl
aVo
aVd^y
p5006
aVi
aVy
aVa
aVm
asb(imorph
Morph
(dp5007
g45
(lp5008
Vz
aVl
aVo
aVd^y
p5009
aVi
aVy
aVe
aVv^y
p5010
aVi
asbN(imorph
Morph
(dp5011
g45
(lp5012
Vz
aVl
aVo
aVd^y
p5013
aVi
aVy
aVe
aVv^y
p5014
aVi
asbNNNNNtp5015
(imorph
Morph
p5016
(dp5017
g45
(lp5018
Vz
aVl
aVo
aVd
aVi
aVy
asbs((imorph
Morph
(dp5019
g45
(lp5020
Vh
aVo
aVl
aVu
aVb
asb(imorph
Morph
(dp5021
g45
(lp5022
Vh
aVo
aVl
aVu
aVb
aVa
aVm
asb(imorph
Morph
(dp5023
g45
(lp5024
Vh
aVo
aVl
aVu
aVb
aVo
aVv^y
p5025
aVi
asb(imorph
Morph
(dp5026
g45
(lp5027
Vh
aVo
aVl
aVu
aVb^y
p5028
aVi
asbNNNNNNtp5029
(imorph
Morph
p5030
(dp5031
g45
(lp5032
Vh
aVo
aVl
aVu
aVb
asbs((imorph
Morph
(dp5033
g45
(lp5034
Vz
aVu
aVb
asb(imorph
Morph
(dp5035
g45
(lp5036
Vz
aVu
aVb
aVa
aVm
asb(imorph
Morph
(dp5037
g45
(lp5038
Vz
aVu
aVb
aVo
aVv^y
p5039
aVi
asb(imorph
Morph
(dp5040
g45
(lp5041
Vz
aVu
aVb^y
p5042
aVi
asbNNNNNNtp5043
(imorph
Morph
p5044
(dp5045
g45
(lp5046
Vz
aVu
aVb
asbs((imorph
Morph
(dp5047
g45
(lp5048
Vk
aVo
aVr
aVo
aVv
aVa
aVy
asb(imorph
Morph
(dp5049
g45
(lp5050
Vk
aVo
aVr
aVo
aVv
aVa
aVy
aVa
aVm
asb(imorph
Morph
(dp5051
g45
(lp5052
Vk
aVo
aVr
aVo
aVv
aVa
aVy
aVe
aVv^y
p5053
aVi
asb(imorph
Morph
(dp5054
g45
(lp5055
Vk
aVo
aVr
aVo
aVv
aVa
aVy
aVi
asbNNNNNNtp5056
(imorph
Morph
p5057
(dp5058
g45
(lp5059
Vk
aVo
aVr
aVo
aVv
aVa
aVy
asbssg94
(lp5060
(imorph
Morph
p5061
(dp5062
g45
(lp5063
sba(imorph
Morph
p5064
(dp5065
g45
(lp5066
Va
aVm
asba(imorph
Morph
p5067
(dp5068
g45
(lp5069
Vo
aVv^y
p5070
aVi
asba(imorph
Morph
p5071
(dp5072
g45
(lp5073
Vi
asba(imorph
Morph
p5074
(dp5075
g45
(lp5076
Ve
ag4741
aVi
asba(imorph
Morph
p5077
(dp5078
g45
(lp5079
Vo
asba(imorph
Morph
p5080
(dp5081
g45
(lp5082
Va
asba(imorph
Morph
p5083
(dp5084
g45
(lp5085
Vu
asba(imorph
Morph
p5086
(dp5087
g45
(lp5088
Vi
asba(imorph
Morph
p5089
(dp5090
g45
(lp5091
sbasbF56613.759416103363
tp5092
a(g6
(g7
g8
NtRp5093
(dp5094
g11
(lp5095
(irule
Rule
p5096
(dp5097
g15
(irule
Guard
p5098
(dp5099
g18
I00
sg19
(lp5100
sg21
I00
sg22
V
sg23
I00
sg24
S'L'
sbsg25
(irule
ConstantPhoneme
p5101
(dp5102
S'p'
Vo
sbsg31
(irule
Guard
p5103
(dp5104
g18
I01
sg19
(lp5105
(irule
FeatureMatrix
p5106
(dp5107
g28
(lp5108
(I01
S'palletized'
p5109
tp5110
asg22
V[ +palletized ]
p5111
sba(irule
FeatureMatrix
p5112
(dp5113
g28
(lp5114
sg22
V[  ]
p5115
sbasg21
I00
sg22
V[ +palletized ]* [  ] #
p5116
sg23
I01
sg24
S'R'
sbsg35
(irule
ConstantPhoneme
p5117
(dp5118
S'p'
Ve
sbsg22
Ve ---> o /  _ [ +palletized ]* [  ] #
p5119
sba(irule
Rule
p5120
(dp5121
g15
(irule
Guard
p5122
(dp5123
g18
I00
sg19
(lp5124
(irule
FeatureMatrix
p5125
(dp5126
g28
(lp5127
(I01
S'vowel'
tp5128
asg22
V[ +vowel ]
p5129
sba(irule
FeatureMatrix
p5130
(dp5131
g28
(lp5132
(I00
g5109
tp5133
a(I00
S'sibilant'
tp5134
asg22
V[ -palletized -sibilant ]
p5135
sbasg21
I00
sg22
V[ -palletized -sibilant ] [ +vowel ]
p5136
sg23
I00
sg24
S'L'
sbsg25
(irule
ConstantPhoneme
p5137
(dp5138
S'p'
Vw
sbsg31
(irule
Guard
p5139
(dp5140
g18
I01
sg19
(lp5141
sg21
I00
sg22
V#
sg23
I00
sg24
S'R'
sbsg35
(irule
FeatureMatrix
p5142
(dp5143
g28
(lp5144
(I01
S'continuant'
tp5145
a(I00
g5109
tp5146
asg22
V[ +continuant -palletized ]
p5147
sbsg22
V[ +continuant -palletized ] ---> w / [ -palletized -sibilant ] [ +vowel ] _ #
p5148
sba(irule
Rule
p5149
(dp5150
g15
(irule
Guard
p5151
(dp5152
g18
I00
sg19
(lp5153
(irule
FeatureMatrix
p5154
(dp5155
g28
(lp5156
(I01
S'palletized'
p5157
tp5158
asg22
V[ +palletized ]
p5159
sbasg21
I00
sg22
g5159
sg23
I00
sg24
S'L'
sbsg25
(irule
ConstantPhoneme
p5160
(dp5161
S'p'
Ve
sbsg31
(irule
Guard
p5162
(dp5163
g18
I00
sg19
(lp5164
(irule
FeatureMatrix
p5165
(dp5166
g28
(lp5167
(I01
S'voice'
tp5168
asg22
V[ +voice ]
p5169
sba(irule
FeatureMatrix
p5170
(dp5171
g28
(lp5172
sg22
V[  ]
p5173
sbasg21
I00
sg22
V[ +voice ] [  ]
p5174
sg23
I00
sg24
S'R'
sbsg35
(irule
FeatureMatrix
p5175
(dp5176
g28
(lp5177
sg22
V[  ]
p5178
sbsg22
V[  ] ---> e / [ +palletized ] _ [ +voice ] [  ]
p5179
sba(irule
Rule
p5180
(dp5181
g15
(irule
Guard
p5182
(dp5183
g18
I00
sg19
(lp5184
sg21
I00
sg22
V
sg23
I00
sg24
S'L'
sbsg25
(irule
FeatureMatrix
p5185
(dp5186
g28
(lp5187
(I00
S'palletized'
tp5188
asg22
V[ -palletized ]
p5189
sbsg31
(irule
Guard
p5190
(dp5191
g18
I00
sg19
(lp5192
(irule
ConstantPhoneme
p5193
(dp5194
S'p'
Ve
sbasg21
I00
sg22
Ve
sg23
I00
sg24
S'R'
sbsg35
(irule
FeatureMatrix
p5195
(dp5196
g28
(lp5197
(I00
S'glide'
tp5198
asg22
V[ -glide ]
p5199
sbsg22
V[ -glide ] ---> [ -palletized ] /  _ e
p5200
sba(irule
Rule
p5201
(dp5202
g15
(irule
Guard
p5203
(dp5204
g18
I00
sg19
(lp5205
sg21
I00
sg22
V
sg23
I00
sg24
S'L'
sbsg25
(irule
FeatureMatrix
p5206
(dp5207
g28
(lp5208
(I01
g5157
tp5209
asg22
V[ +palletized ]
p5210
sbsg31
(irule
Guard
p5211
(dp5212
g18
I00
sg19
(lp5213
(irule
ConstantPhoneme
p5214
(dp5215
S'p'
Vi
sbasg21
I00
sg22
Vi
sg23
I00
sg24
S'R'
sbsg35
(irule
FeatureMatrix
p5216
(dp5217
g28
(lp5218
sg22
V[  ]
p5219
sbsg22
V[  ] ---> [ +palletized ] /  _ i
p5220
sba(irule
Rule
p5221
(dp5222
g15
(irule
Guard
p5223
(dp5224
g18
I00
sg19
(lp5225
sg21
I00
sg22
V
sg23
I00
sg24
S'L'
sbsg25
(irule
ConstantPhoneme
p5226
(dp5227
S'p'
Vi
sbsg31
(irule
Guard
p5228
(dp5229
g18
I01
sg19
(lp5230
(irule
FeatureMatrix
p5231
(dp5232
g28
(lp5233
(I01
S'sibilant'
tp5234
asg22
V[ +sibilant ]
p5235
sba(irule
FeatureMatrix
p5236
(dp5237
g28
(lp5238
sg22
V[  ]
p5239
sbasg21
I00
sg22
V[ +sibilant ]* [  ] #
p5240
sg23
I01
sg24
S'R'
sbsg35
(irule
ConstantPhoneme
p5241
(dp5242
S'p'
Vo
sbsg22
Vo ---> i /  _ [ +sibilant ]* [  ] #
p5243
sbasg41
(lp5244
(imorph
Morph
p5245
(dp5246
g45
(lp5247
sba(imorph
Morph
p5248
(dp5249
g45
(lp5250
sba(imorph
Morph
p5251
(dp5252
g45
(lp5253
sba(imorph
Morph
p5254
(dp5255
g45
(lp5256
sba(imorph
Morph
p5257
(dp5258
g45
(lp5259
sba(imorph
Morph
p5260
(dp5261
g45
(lp5262
sba(imorph
Morph
p5263
(dp5264
g45
(lp5265
sba(imorph
Morph
p5266
(dp5267
g45
(lp5268
sba(imorph
Morph
p5269
(dp5270
g45
(lp5271
sba(imorph
Morph
p5272
(dp5273
g45
(lp5274
sbasg74
(dp5275
((imorph
Morph
(dp5276
g45
(lp5277
Vk
aVa
aVm^y
p5278
aVi
aVn^y
p5279
asb(imorph
Morph
(dp5280
g45
(lp5281
Vk
aVa
aVm
aVe
aVn^y
p5282
aVa
aVm
asb(imorph
Morph
(dp5283
g45
(lp5284
Vk
aVa
aVm
aVe
aVn
aVe
aVv^y
p5285
aVi
asb(imorph
Morph
(dp5286
g45
(lp5287
Vk
aVa
aVm
aVe
aVn^y
p5288
aVi
asbNNNNNNtp5289
(imorph
Morph
p5290
(dp5291
g45
(lp5292
Vk
aVa
aVm^y
p5293
aVi
aVn^y
p5294
asbs((imorph
Morph
(dp5295
g45
(lp5296
Vl
aVe
aVb^y
p5297
aVi
aVd^y
p5298
asb(imorph
Morph
(dp5299
g45
(lp5300
Vl
aVe
aVb
aVe
aVd^y
p5301
aVa
aVm
asb(imorph
Morph
(dp5302
g45
(lp5303
Vl
aVe
aVb
aVe
aVd
aVe
aVv^y
p5304
aVi
asb(imorph
Morph
(dp5305
g45
(lp5306
Vl
aVe
aVb
aVe
aVd^y
p5307
aVi
asbNNNNNNtp5308
(imorph
Morph
p5309
(dp5310
g45
(lp5311
Vl^y
p5312
aVe
aVb^y
p5313
aVi
aVd^y
p5314
asbs((imorph
Morph
(dp5315
g45
(lp5316
Vv
aVe
aVc\u030c
p5317
aVi
aVr
asb(imorph
Morph
(dp5318
g45
(lp5319
Vv
aVe
aVc\u030c
p5320
aVo
aVr
aVa
aVm
asb(imorph
Morph
(dp5321
g45
(lp5322
Vv
aVe
aVc\u030c
p5323
aVo
aVr
aVo
aVv^y
p5324
aVi
asb(imorph
Morph
(dp5325
g45
(lp5326
Vv
aVe
aVc\u030c
p5327
aVo
aVr^y
p5328
aVi
asbNNNNNNtp5329
(imorph
Morph
p5330
(dp5331
g45
(lp5332
Vv
aVe
aVc\u030c
p5333
aVo
aVr
asbs((imorph
Morph
(dp5334
g45
(lp5335
Vk
aVo
aV\u0161^y
p5336
aVi
aVl^y
p5337
asb(imorph
Morph
(dp5338
g45
(lp5339
Vk
aVo
aV\u0161
aVe
aVl^y
p5340
aVa
aVm
asb(imorph
Morph
(dp5341
g45
(lp5342
Vk
aVo
aV\u0161
aVe
aVl
aVe
aVv^y
p5343
aVi
asb(imorph
Morph
(dp5344
g45
(lp5345
Vk
aVo
aV\u0161
aVe
aVl^y
p5346
aVi
asbNNNNNNtp5347
(imorph
Morph
p5348
(dp5349
g45
(lp5350
Vk
aVo
aV\u0161^y
p5351
aVi
aVl^y
p5352
asbs((imorph
Morph
(dp5353
g45
(lp5354
Vx
aVl^y
p5355
aVi
aVw
asb(imorph
Morph
(dp5356
g45
(lp5357
Vx
aVl^y
p5358
aVi
aVv
aVa
aVm
asb(imorph
Morph
(dp5359
g45
(lp5360
Vx
aVl^y
p5361
aVi
aVv
aVo
aVv^y
p5362
aVi
asb(imorph
Morph
(dp5363
g45
(lp5364
Vx
aVl^y
p5365
aVi
aVv^y
p5366
aVi
asbNNNNNNtp5367
(imorph
Morph
p5368
(dp5369
g45
(lp5370
Vx
aVl
aVi
aVv
asbs((imorph
Morph
(dp5371
g45
(lp5372
Vs
aVv^y
p5373
aVi
aVt
asb(imorph
Morph
(dp5374
g45
(lp5375
Vs
aVv^y
p5376
aVi
aVt
aVa
aVm
asb(imorph
Morph
(dp5377
g45
(lp5378
Vs
aVv^y
p5379
aVi
aVt
aVo
aVv^y
p5380
aVi
asb(imorph
Morph
(dp5381
g45
(lp5382
Vs
aVv^y
p5383
aVi
aVt^y
p5384
aVi
asbNNNNNNtp5385
(imorph
Morph
p5386
(dp5387
g45
(lp5388
Vs
aVv^y
p5389
aVi
aVt
asbs(NNNNN(imorph
Morph
(dp5390
g45
(lp5391
Vk
aVo
aVl
aVe
aVs
aVo
asb(imorph
Morph
(dp5392
g45
(lp5393
Vk
aVo
aVl
aVe
aVs
aVa
asb(imorph
Morph
(dp5394
g45
(lp5395
Vk
aVo
aVl
aVe
aVs
aVu
asb(imorph
Morph
(dp5396
g45
(lp5397
Vk
aVo
aVl
aVe
aVs^y
p5398
aVi
asb(imorph
Morph
(dp5399
g45
(lp5400
Vk
aVo
aVl^y
p5401
aVi
aVs
asbtp5402
(imorph
Morph
p5403
(dp5404
g45
(lp5405
Vk
aVo
ag5312
aVe
aVs
asbs((imorph
Morph
(dp5406
g45
(lp5407
Vd^y
p5408
aVi
aVd
asb(imorph
Morph
(dp5409
g45
(lp5410
Vd^y
p5411
aVi
aVd
aVa
aVm
asb(imorph
Morph
(dp5412
g45
(lp5413
Vd^y
p5414
aVi
aVd
aVo
aVv^y
p5415
aVi
asbN(imorph
Morph
(dp5416
g45
(lp5417
Vd^y
p5418
aVi
aVd
aVo
aVv^y
p5419
aVi
asbNNNNNtp5420
(imorph
Morph
p5421
(dp5422
g45
(lp5423
Vd
aVi
aVd
asbs((imorph
Morph
(dp5424
g45
(lp5425
Vz^y
p5426
aVa
aVt^y
p5427
asb(imorph
Morph
(dp5428
g45
(lp5429
Vz^y
p5430
aVa
aVt^y
p5431
aVa
aVm
asb(imorph
Morph
(dp5432
g45
(lp5433
Vz^y
p5434
aVa
aVt
aVe
aVv^y
p5435
aVi
asbN(imorph
Morph
(dp5436
g45
(lp5437
Vz^y
p5438
aVa
aVt
aVe
aVv^y
p5439
aVi
asbNNNNNtp5440
(imorph
Morph
p5441
(dp5442
g45
(lp5443
Vz^y
p5444
aVa
aVt^y
p5445
asbs(NNNNN(imorph
Morph
(dp5446
g45
(lp5447
Vt^y
p5448
aVi
aVl
aVo
asb(imorph
Morph
(dp5449
g45
(lp5450
Vt^y
p5451
aVi
aVl
aVa
asb(imorph
Morph
(dp5452
g45
(lp5453
Vt^y
p5454
aVi
aVl
aVu
asb(imorph
Morph
(dp5455
g45
(lp5456
Vt^y
p5457
aVi
aVl^y
p5458
aVi
asb(imorph
Morph
(dp5459
g45
(lp5460
Vt^y
p5461
aVi
aVw
asbtp5462
(imorph
Morph
p5463
(dp5464
g45
(lp5465
Vt
aVi
aVl
asbs((imorph
Morph
(dp5466
g45
(lp5467
Vl^y
p5468
aVi
aVt
asb(imorph
Morph
(dp5469
g45
(lp5470
Vl^y
p5471
aVo
aVt
aVa
aVm
asb(imorph
Morph
(dp5472
g45
(lp5473
Vl^y
p5474
aVo
aVt
aVo
aVv^y
p5475
aVi
asb(imorph
Morph
(dp5476
g45
(lp5477
Vl^y
p5478
aVo
aVt^y
p5479
aVi
asbNNNNNNtp5480
(imorph
Morph
p5481
(dp5482
g45
(lp5483
g5312
aVo
aVt
asbs((imorph
Morph
(dp5484
g45
(lp5485
Vm^y
p5486
aVi
aVd^y
p5487
asb(imorph
Morph
(dp5488
g45
(lp5489
Vm^y
p5490
aVi
aVd^y
p5491
aVa
aVm
asb(imorph
Morph
(dp5492
g45
(lp5493
Vm^y
p5494
aVi
aVd
aVe
aVv^y
p5495
aVi
asb(imorph
Morph
(dp5496
g45
(lp5497
Vm^y
p5498
aVi
aVd^y
p5499
aVi
asbNNNNNNtp5500
(imorph
Morph
p5501
(dp5502
g45
(lp5503
Vm
aVi
aVd^y
p5504
asbs((imorph
Morph
(dp5505
g45
(lp5506
Vs^y
p5507
aVi
aVn
asb(imorph
Morph
(dp5508
g45
(lp5509
Vs^y
p5510
aVi
aVn
aVa
aVm
asb(imorph
Morph
(dp5511
g45
(lp5512
Vs^y
p5513
aVi
aVn
aVo
aVv^y
p5514
aVi
asb(imorph
Morph
(dp5515
g45
(lp5516
Vs^y
p5517
aVi
aVn^y
p5518
aVi
asbNNNNNNtp5519
(imorph
Morph
p5520
(dp5521
g45
(lp5522
Vs
aVi
aVn
asbs((imorph
Morph
(dp5523
g45
(lp5524
Vc\u030c
p5525
aVo
aVl
aVo
aVv^y
p5526
aVi
aVk
asb(imorph
Morph
(dp5527
g45
(lp5528
Vc\u030c
p5529
aVo
aVl
aVo
aVv^y
p5530
aVi
aVk
aVa
aVm
asb(imorph
Morph
(dp5531
g45
(lp5532
Vc\u030c
p5533
aVo
aVl
aVo
aVv^y
p5534
aVi
aVk
aVo
aVv^y
p5535
aVi
asbN(imorph
Morph
(dp5536
g45
(lp5537
Vc\u030c
p5538
aVo
aVl
aVo
aVv^y
p5539
aVi
aVk
aVo
aVv^y
p5540
aVi
asbNNNNNtp5541
(imorph
Morph
p5542
(dp5543
g45
(lp5544
g5333
aVo
aVl
aVo
aVv^y
p5545
aVi
aVk
asbs((imorph
Morph
(dp5546
g45
(lp5547
Vb
aVi
aVl^y
p5548
asb(imorph
Morph
(dp5549
g45
(lp5550
Vb
aVo
aVl^y
p5551
aVa
aVm
asb(imorph
Morph
(dp5552
g45
(lp5553
Vb
aVo
aVl
aVe
aVv^y
p5554
aVi
asb(imorph
Morph
(dp5555
g45
(lp5556
Vb
aVo
aVl^y
p5557
aVi
asbNNNNNNtp5558
(imorph
Morph
p5559
(dp5560
g45
(lp5561
Vb
aVo
aVl^y
p5562
asbs((imorph
Morph
(dp5563
g45
(lp5564
Vs
aVt
aVi
aVw
asb(imorph
Morph
(dp5565
g45
(lp5566
Vs
aVt
aVo
aVl
aVa
aVm
asb(imorph
Morph
(dp5567
g45
(lp5568
Vs
aVt
aVo
aVl
aVo
aVv^y
p5569
aVi
asb(imorph
Morph
(dp5570
g45
(lp5571
Vs
aVt
aVo
aVl^y
p5572
aVi
asbNNNNNNtp5573
(imorph
Morph
p5574
(dp5575
g45
(lp5576
Vs
aVt
aVo
aVl
asbs((imorph
Morph
(dp5577
g45
(lp5578
Vl^y
p5579
aVi
aVd
asb(imorph
Morph
(dp5580
g45
(lp5581
Vl
aVe
aVd
aVa
aVm
asb(imorph
Morph
(dp5582
g45
(lp5583
Vl
aVe
aVd
aVo
aVv^y
p5584
aVi
asb(imorph
Morph
(dp5585
g45
(lp5586
Vl
aVe
aVd^y
p5587
aVi
asbNNNNNNtp5588
(imorph
Morph
p5589
(dp5590
g45
(lp5591
g5562
aVi
aVd
asbs((imorph
Morph
(dp5592
g45
(lp5593
Vs
aVu
aVs^y
p5594
aVi
aVd
asb(imorph
Morph
(dp5595
g45
(lp5596
Vs
aVu
aVs^y
p5597
aVi
aVd
aVa
aVm
asb(imorph
Morph
(dp5598
g45
(lp5599
Vs
aVu
aVs^y
p5600
aVi
aVd
aVo
aVv^y
p5601
aVi
asbN(imorph
Morph
(dp5602
g45
(lp5603
Vs
aVu
aVs^y
p5604
aVi
aVd
aVo
aVv^y
p5605
aVi
asbNNNNNtp5606
(imorph
Morph
p5607
(dp5608
g45
(lp5609
Vs
aVu
aVs
aVi
aVd
asbs((imorph
Morph
(dp5610
g45
(lp5611
Vm^y
p5612
aVi
aVs^y
p5613
aVa
aVt^s^y
p5614
asb(imorph
Morph
(dp5615
g45
(lp5616
Vm^y
p5617
aVi
aVs^y
p5618
aVa
aVt^s^y
p5619
aVa
aVm
asb(imorph
Morph
(dp5620
g45
(lp5621
Vm^y
p5622
aVi
aVs^y
p5623
aVa
aVt^s
p5624
aVe
aVv^y
p5625
aVi
asb(imorph
Morph
(dp5626
g45
(lp5627
Vm^y
p5628
aVi
aVs^y
p5629
aVa
aVt^s^y
p5630
aVi
asbNNNNNNtp5631
(imorph
Morph
p5632
(dp5633
g45
(lp5634
Vm^y
p5635
aVi
aVs^y
p5636
aVa
aVt^s^y
p5637
asbs((imorph
Morph
(dp5638
g45
(lp5639
Vm
aVi
aVs
aVt
asb(imorph
Morph
(dp5640
g45
(lp5641
Vm
aVo
aVs
aVt
aVa
aVm
asb(imorph
Morph
(dp5642
g45
(lp5643
Vm
aVo
aVs
aVt
aVo
aVv^y
p5644
aVi
asb(imorph
Morph
(dp5645
g45
(lp5646
Vm
aVo
aVs
aVt^y
p5647
aVi
asbNNNNNNtp5648
(imorph
Morph
p5649
(dp5650
g45
(lp5651
Vm
aVo
aVs
aVt
asbs((imorph
Morph
(dp5652
g45
(lp5653
Vr
aVi
aVw
asb(imorph
Morph
(dp5654
g45
(lp5655
Vr
aVo
aVv
aVa
aVm
asb(imorph
Morph
(dp5656
g45
(lp5657
Vr
aVo
aVv
aVo
aVv^y
p5658
aVi
asb(imorph
Morph
(dp5659
g45
(lp5660
Vr
aVo
aVv^y
p5661
aVi
asbNNNNNNtp5662
(imorph
Morph
p5663
(dp5664
g45
(lp5665
Vr
aVo
aVv
asbs((imorph
Morph
(dp5666
g45
(lp5667
Vz
aVl
aVo
aVd^y
p5668
aVi
aVy
asb(imorph
Morph
(dp5669
g45
(lp5670
Vz
aVl
aVo
aVd^y
p5671
aVi
aVy
aVa
aVm
asb(imorph
Morph
(dp5672
g45
(lp5673
Vz
aVl
aVo
aVd^y
p5674
aVi
aVy
aVe
aVv^y
p5675
aVi
asbN(imorph
Morph
(dp5676
g45
(lp5677
Vz
aVl
aVo
aVd^y
p5678
aVi
aVy
aVe
aVv^y
p5679
aVi
asbNNNNNtp5680
(imorph
Morph
p5681
(dp5682
g45
(lp5683
Vz
aVl
aVo
aVd
aVi
aVy
asbs((imorph
Morph
(dp5684
g45
(lp5685
Vh
aVo
aVl
aVu
aVb
asb(imorph
Morph
(dp5686
g45
(lp5687
Vh
aVo
aVl
aVu
aVb
aVa
aVm
asb(imorph
Morph
(dp5688
g45
(lp5689
Vh
aVo
aVl
aVu
aVb
aVo
aVv^y
p5690
aVi
asb(imorph
Morph
(dp5691
g45
(lp5692
Vh
aVo
aVl
aVu
aVb^y
p5693
aVi
asbNNNNNNtp5694
(imorph
Morph
p5695
(dp5696
g45
(lp5697
Vh
aVo
aVl
aVu
aVb
asbs((imorph
Morph
(dp5698
g45
(lp5699
Vz
aVu
aVb
asb(imorph
Morph
(dp5700
g45
(lp5701
Vz
aVu
aVb
aVa
aVm
asb(imorph
Morph
(dp5702
g45
(lp5703
Vz
aVu
aVb
aVo
aVv^y
p5704
aVi
asb(imorph
Morph
(dp5705
g45
(lp5706
Vz
aVu
aVb^y
p5707
aVi
asbNNNNNNtp5708
(imorph
Morph
p5709
(dp5710
g45
(lp5711
Vz
aVu
aVb
asbs((imorph
Morph
(dp5712
g45
(lp5713
Vk
aVo
aVr
aVo
aVv
aVa
aVy
asb(imorph
Morph
(dp5714
g45
(lp5715
Vk
aVo
aVr
aVo
aVv
aVa
aVy
aVa
aVm
asb(imorph
Morph
(dp5716
g45
(lp5717
Vk
aVo
aVr
aVo
aVv
aVa
aVy
aVe
aVv^y
p5718
aVi
asb(imorph
Morph
(dp5719
g45
(lp5720
Vk
aVo
aVr
aVo
aVv
aVa
aVy
aVi
asbNNNNNNtp5721
(imorph
Morph
p5722
(dp5723
g45
(lp5724
Vk
aVo
aVr
aVo
aVv
aVa
aVy
asbssg94
(lp5725
(imorph
Morph
p5726
(dp5727
g45
(lp5728
sba(imorph
Morph
p5729
(dp5730
g45
(lp5731
Va
aVm
asba(imorph
Morph
p5732
(dp5733
g45
(lp5734
Vo
aVv^y
p5735
aVi
asba(imorph
Morph
p5736
(dp5737
g45
(lp5738
Vi
asba(imorph
Morph
p5739
(dp5740
g45
(lp5741
Ve
ag5389
aVi
asba(imorph
Morph
p5742
(dp5743
g45
(lp5744
Vo
asba(imorph
Morph
p5745
(dp5746
g45
(lp5747
Va
asba(imorph
Morph
p5748
(dp5749
g45
(lp5750
Vu
asba(imorph
Morph
p5751
(dp5752
g45
(lp5753
Vi
asba(imorph
Morph
p5754
(dp5755
g45
(lp5756
sbasbF76046.138901948929
tp5757
a(g6
(g7
g8
NtRp5758
(dp5759
g11
(lp5760
(irule
Rule
p5761
(dp5762
g15
(irule
Guard
p5763
(dp5764
g18
I00
sg19
(lp5765
sg21
I00
sg22
V
sg23
I00
sg24
S'L'
sbsg25
(irule
ConstantPhoneme
p5766
(dp5767
S'p'
Vw
sbsg31
(irule
Guard
p5768
(dp5769
g18
I01
sg19
(lp5770
sg21
I00
sg22
V#
sg23
I00
sg24
S'R'
sbsg35
(irule
ConstantPhoneme
p5771
(dp5772
S'p'
Vv
sbsg22
Vv ---> w /  _ #
p5773
sba(irule
Rule
p5774
(dp5775
g15
(irule
Guard
p5776
(dp5777
g18
I00
sg19
(lp5778
sg21
I00
sg22
V
sg23
I00
sg24
S'L'
sbsg25
(irule
ConstantPhoneme
p5779
(dp5780
S'p'
Vo
sbsg31
(irule
Guard
p5781
(dp5782
g18
I01
sg19
(lp5783
(irule
FeatureMatrix
p5784
(dp5785
g28
(lp5786
(I01
S'palletized'
tp5787
asg22
V[ +palletized ]
p5788
sba(irule
FeatureMatrix
p5789
(dp5790
g28
(lp5791
sg22
V[  ]
p5792
sbasg21
I00
sg22
V[ +palletized ]* [  ] #
p5793
sg23
I01
sg24
S'R'
sbsg35
(irule
ConstantPhoneme
p5794
(dp5795
S'p'
Ve
sbsg22
Ve ---> o /  _ [ +palletized ]* [  ] #
p5796
sba(irule
Rule
p5797
(dp5798
g15
(irule
Guard
p5799
(dp5800
g18
I00
sg19
(lp5801
sg21
I00
sg22
V
sg23
I00
sg24
S'L'
sbsg25
(irule
ConstantPhoneme
p5802
(dp5803
S'p'
Vw
sbsg31
(irule
Guard
p5804
(dp5805
g18
I01
sg19
(lp5806
sg21
I00
sg22
V#
sg23
I00
sg24
S'R'
sbsg35
(irule
ConstantPhoneme
p5807
(dp5808
S'p'
Vl
sbsg22
Vl ---> w /  _ #
p5809
sba(irule
Rule
p5810
(dp5811
g15
(irule
Guard
p5812
(dp5813
g18
I00
sg19
(lp5814
(irule
FeatureMatrix
p5815
(dp5816
g28
(lp5817
(I01
S'palletized'
p5818
tp5819
asg22
V[ +palletized ]
p5820
sbasg21
I00
sg22
g5820
sg23
I00
sg24
S'L'
sbsg25
(irule
ConstantPhoneme
p5821
(dp5822
S'p'
Ve
sbsg31
(irule
Guard
p5823
(dp5824
g18
I00
sg19
(lp5825
(irule
FeatureMatrix
p5826
(dp5827
g28
(lp5828
(I01
S'voice'
tp5829
asg22
V[ +voice ]
p5830
sba(irule
FeatureMatrix
p5831
(dp5832
g28
(lp5833
sg22
V[  ]
p5834
sbasg21
I00
sg22
V[ +voice ] [  ]
p5835
sg23
I00
sg24
S'R'
sbsg35
(irule
FeatureMatrix
p5836
(dp5837
g28
(lp5838
sg22
V[  ]
p5839
sbsg22
V[  ] ---> e / [ +palletized ] _ [ +voice ] [  ]
p5840
sba(irule
Rule
p5841
(dp5842
g15
(irule
Guard
p5843
(dp5844
g18
I00
sg19
(lp5845
sg21
I00
sg22
V
sg23
I00
sg24
S'L'
sbsg25
(irule
FeatureMatrix
p5846
(dp5847
g28
(lp5848
(I00
S'palletized'
tp5849
asg22
V[ -palletized ]
p5850
sbsg31
(irule
Guard
p5851
(dp5852
g18
I00
sg19
(lp5853
(irule
ConstantPhoneme
p5854
(dp5855
S'p'
Ve
sbasg21
I00
sg22
Ve
sg23
I00
sg24
S'R'
sbsg35
(irule
FeatureMatrix
p5856
(dp5857
g28
(lp5858
(I00
S'glide'
tp5859
asg22
V[ -glide ]
p5860
sbsg22
V[ -glide ] ---> [ -palletized ] /  _ e
p5861
sba(irule
Rule
p5862
(dp5863
g15
(irule
Guard
p5864
(dp5865
g18
I00
sg19
(lp5866
sg21
I00
sg22
V
sg23
I00
sg24
S'L'
sbsg25
(irule
FeatureMatrix
p5867
(dp5868
g28
(lp5869
(I01
g5818
tp5870
asg22
V[ +palletized ]
p5871
sbsg31
(irule
Guard
p5872
(dp5873
g18
I00
sg19
(lp5874
(irule
ConstantPhoneme
p5875
(dp5876
S'p'
Vi
sbasg21
I00
sg22
Vi
sg23
I00
sg24
S'R'
sbsg35
(irule
FeatureMatrix
p5877
(dp5878
g28
(lp5879
sg22
V[  ]
p5880
sbsg22
V[  ] ---> [ +palletized ] /  _ i
p5881
sba(irule
Rule
p5882
(dp5883
g15
(irule
Guard
p5884
(dp5885
g18
I00
sg19
(lp5886
sg21
I00
sg22
V
sg23
I00
sg24
S'L'
sbsg25
(irule
ConstantPhoneme
p5887
(dp5888
S'p'
Vi
sbsg31
(irule
Guard
p5889
(dp5890
g18
I01
sg19
(lp5891
(irule
FeatureMatrix
p5892
(dp5893
g28
(lp5894
(I01
S'sibilant'
tp5895
asg22
V[ +sibilant ]
p5896
sba(irule
FeatureMatrix
p5897
(dp5898
g28
(lp5899
sg22
V[  ]
p5900
sbasg21
I00
sg22
V[ +sibilant ]* [  ] #
p5901
sg23
I01
sg24
S'R'
sbsg35
(irule
ConstantPhoneme
p5902
(dp5903
S'p'
Vo
sbsg22
Vo ---> i /  _ [ +sibilant ]* [  ] #
p5904
sbasg41
(lp5905
(imorph
Morph
p5906
(dp5907
g45
(lp5908
sba(imorph
Morph
p5909
(dp5910
g45
(lp5911
sba(imorph
Morph
p5912
(dp5913
g45
(lp5914
sba(imorph
Morph
p5915
(dp5916
g45
(lp5917
sba(imorph
Morph
p5918
(dp5919
g45
(lp5920
sba(imorph
Morph
p5921
(dp5922
g45
(lp5923
sba(imorph
Morph
p5924
(dp5925
g45
(lp5926
sba(imorph
Morph
p5927
(dp5928
g45
(lp5929
sba(imorph
Morph
p5930
(dp5931
g45
(lp5932
sba(imorph
Morph
p5933
(dp5934
g45
(lp5935
sbasg74
(dp5936
((imorph
Morph
(dp5937
g45
(lp5938
Vk
aVa
aVm^y
p5939
aVi
aVn^y
p5940
asb(imorph
Morph
(dp5941
g45
(lp5942
Vk
aVa
aVm
aVe
aVn^y
p5943
aVa
aVm
asb(imorph
Morph
(dp5944
g45
(lp5945
Vk
aVa
aVm
aVe
aVn
aVe
aVv^y
p5946
aVi
asb(imorph
Morph
(dp5947
g45
(lp5948
Vk
aVa
aVm
aVe
aVn^y
p5949
aVi
asbNNNNNNtp5950
(imorph
Morph
p5951
(dp5952
g45
(lp5953
Vk
aVa
aVm^y
p5954
aVi
aVn^y
p5955
asbs(NNNNN(imorph
Morph
(dp5956
g45
(lp5957
Vo
aVz
aVe
aVr
aVo
asb(imorph
Morph
(dp5958
g45
(lp5959
Vo
aVz
aVe
aVr
aVa
asb(imorph
Morph
(dp5960
g45
(lp5961
Vo
aVz
aVe
aVr
aVu
asb(imorph
Morph
(dp5962
g45
(lp5963
Vo
aVz
aVe
aVr^y
p5964
aVi
asb(imorph
Morph
(dp5965
g45
(lp5966
Vo
aVz^y
p5967
aVi
aVr
asbtp5968
(imorph
Morph
p5969
(dp5970
g45
(lp5971
Vo
aVz^y
p5972
aVe
aVr
asbs((imorph
Morph
(dp5973
g45
(lp5974
Vl
aVe
aVb^y
p5975
aVi
aVd^y
p5976
asb(imorph
Morph
(dp5977
g45
(lp5978
Vl
aVe
aVb
aVe
aVd^y
p5979
aVa
aVm
asb(imorph
Morph
(dp5980
g45
(lp5981
Vl
aVe
aVb
aVe
aVd
aVe
aVv^y
p5982
aVi
asb(imorph
Morph
(dp5983
g45
(lp5984
Vl
aVe
aVb
aVe
aVd^y
p5985
aVi
asbNNNNNNtp5986
(imorph
Morph
p5987
(dp5988
g45
(lp5989
Vl^y
p5990
aVw
aVb^y
p5991
aVi
aVd^y
p5992
asbs((imorph
Morph
(dp5993
g45
(lp5994
Vv
aVe
aVc\u030c
p5995
aVi
aVr
asb(imorph
Morph
(dp5996
g45
(lp5997
Vv
aVe
aVc\u030c
p5998
aVo
aVr
aVa
aVm
asb(imorph
Morph
(dp5999
g45
(lp6000
Vv
aVe
aVc\u030c
p6001
aVo
aVr
aVo
aVv^y
p6002
aVi
asb(imorph
Morph
(dp6003
g45
(lp6004
Vv
aVe
aVc\u030c
p6005
aVo
aVr^y
p6006
aVi
asbNNNNNNtp6007
(imorph
Morph
p6008
(dp6009
g45
(lp6010
Vv
aVe
aVc\u030c
p6011
aVo
aVr
asbs((imorph
Morph
(dp6012
g45
(lp6013
Vk
aVo
aV\u0161^y
p6014
aVi
aVl^y
p6015
asb(imorph
Morph
(dp6016
g45
(lp6017
Vk
aVo
aV\u0161
aVe
aVl^y
p6018
aVa
aVm
asb(imorph
Morph
(dp6019
g45
(lp6020
Vk
aVo
aV\u0161
aVe
aVl
aVe
aVv^y
p6021
aVi
asb(imorph
Morph
(dp6022
g45
(lp6023
Vk
aVo
aV\u0161
aVe
aVl^y
p6024
aVi
asbNNNNNNtp6025
(imorph
Morph
p6026
(dp6027
g45
(lp6028
Vk
aVo
aV\u0161^y
p6029
aVi
aVl^y
p6030
asbs((imorph
Morph
(dp6031
g45
(lp6032
Vx
aVl^y
p6033
aVi
aVw
asb(imorph
Morph
(dp6034
g45
(lp6035
Vx
aVl^y
p6036
aVi
aVv
aVa
aVm
asb(imorph
Morph
(dp6037
g45
(lp6038
Vx
aVl^y
p6039
aVi
aVv
aVo
aVv^y
p6040
aVi
asb(imorph
Morph
(dp6041
g45
(lp6042
Vx
aVl^y
p6043
aVi
aVv^y
p6044
aVi
asbNNNNNNtp6045
(imorph
Morph
p6046
(dp6047
g45
(lp6048
Vx
aVl
aVi
aVv
asbs(NNNNN(imorph
Morph
(dp6049
g45
(lp6050
Vs
aVe
aVl
aVo
asb(imorph
Morph
(dp6051
g45
(lp6052
Vs
aVe
aVl
aVa
asb(imorph
Morph
(dp6053
g45
(lp6054
Vs
aVe
aVl
aVu
asb(imorph
Morph
(dp6055
g45
(lp6056
Vs
aVe
aVl^y
p6057
aVi
asb(imorph
Morph
(dp6058
g45
(lp6059
Vs^y
p6060
aVi
aVw
asbtp6061
(imorph
Morph
p6062
(dp6063
g45
(lp6064
Vs^y
p6065
aVe
aVl
asbs(NNNNN(imorph
Morph
(dp6066
g45
(lp6067
Vk
aVo
aVl
aVe
aVs
aVo
asb(imorph
Morph
(dp6068
g45
(lp6069
Vk
aVo
aVl
aVe
aVs
aVa
asb(imorph
Morph
(dp6070
g45
(lp6071
Vk
aVo
aVl
aVe
aVs
aVu
asb(imorph
Morph
(dp6072
g45
(lp6073
Vk
aVo
aVl
aVe
aVs^y
p6074
aVi
asb(imorph
Morph
(dp6075
g45
(lp6076
Vk
aVo
aVl^y
p6077
aVi
aVs
asbtp6078
(imorph
Morph
p6079
(dp6080
g45
(lp6081
Vk
aVo
ag5990
aVe
aVs
asbs((imorph
Morph
(dp6082
g45
(lp6083
Vd^y
p6084
aVi
aVd
asb(imorph
Morph
(dp6085
g45
(lp6086
Vd^y
p6087
aVi
aVd
aVa
aVm
asb(imorph
Morph
(dp6088
g45
(lp6089
Vd^y
p6090
aVi
aVd
aVo
aVv^y
p6091
aVi
asbN(imorph
Morph
(dp6092
g45
(lp6093
Vd^y
p6094
aVi
aVd
aVo
aVv^y
p6095
aVi
asbNNNNNtp6096
(imorph
Morph
p6097
(dp6098
g45
(lp6099
Vd
aVi
aVd
asbs((imorph
Morph
(dp6100
g45
(lp6101
Vz^y
p6102
aVa
aVt^y
p6103
asb(imorph
Morph
(dp6104
g45
(lp6105
Vz^y
p6106
aVa
aVt^y
p6107
aVa
aVm
asb(imorph
Morph
(dp6108
g45
(lp6109
Vz^y
p6110
aVa
aVt
aVe
aVv^y
p6111
aVi
asbN(imorph
Morph
(dp6112
g45
(lp6113
Vz^y
p6114
aVa
aVt
aVe
aVv^y
p6115
aVi
asbNNNNNtp6116
(imorph
Morph
p6117
(dp6118
g45
(lp6119
Vz^y
p6120
aVa
aVt^y
p6121
asbs(NNNNN(imorph
Morph
(dp6122
g45
(lp6123
Vt^y
p6124
aVi
aVl
aVo
asb(imorph
Morph
(dp6125
g45
(lp6126
Vt^y
p6127
aVi
aVl
aVa
asb(imorph
Morph
(dp6128
g45
(lp6129
Vt^y
p6130
aVi
aVl
aVu
asb(imorph
Morph
(dp6131
g45
(lp6132
Vt^y
p6133
aVi
aVl^y
p6134
aVi
asb(imorph
Morph
(dp6135
g45
(lp6136
Vt^y
p6137
aVi
aVw
asbtp6138
(imorph
Morph
p6139
(dp6140
g45
(lp6141
Vt
aVi
aVl
asbs((imorph
Morph
(dp6142
g45
(lp6143
Vl^y
p6144
aVi
aVt
asb(imorph
Morph
(dp6145
g45
(lp6146
Vl^y
p6147
aVo
aVt
aVa
aVm
asb(imorph
Morph
(dp6148
g45
(lp6149
Vl^y
p6150
aVo
aVt
aVo
aVv^y
p6151
aVi
asb(imorph
Morph
(dp6152
g45
(lp6153
Vl^y
p6154
aVo
aVt^y
p6155
aVi
asbNNNNNNtp6156
(imorph
Morph
p6157
(dp6158
g45
(lp6159
Vl^y
p6160
aVo
aVt
asbs((imorph
Morph
(dp6161
g45
(lp6162
Vm^y
p6163
aVi
aVd^y
p6164
asb(imorph
Morph
(dp6165
g45
(lp6166
Vm^y
p6167
aVi
aVd^y
p6168
aVa
aVm
asb(imorph
Morph
(dp6169
g45
(lp6170
Vm^y
p6171
aVi
aVd
aVe
aVv^y
p6172
aVi
asb(imorph
Morph
(dp6173
g45
(lp6174
Vm^y
p6175
aVi
aVd^y
p6176
aVi
asbNNNNNNtp6177
(imorph
Morph
p6178
(dp6179
g45
(lp6180
Vm
aVi
aVd^y
p6181
asbs((imorph
Morph
(dp6182
g45
(lp6183
Vs^y
p6184
aVi
aVn
asb(imorph
Morph
(dp6185
g45
(lp6186
Vs^y
p6187
aVi
aVn
aVa
aVm
asb(imorph
Morph
(dp6188
g45
(lp6189
Vs^y
p6190
aVi
aVn
aVo
aVv^y
p6191
aVi
asb(imorph
Morph
(dp6192
g45
(lp6193
Vs^y
p6194
aVi
aVn^y
p6195
aVi
asbNNNNNNtp6196
(imorph
Morph
p6197
(dp6198
g45
(lp6199
Vs
aVi
aVn
asbs((imorph
Morph
(dp6200
g45
(lp6201
Vc\u030c
p6202
aVo
aVl
aVo
aVv^y
p6203
aVi
aVk
asb(imorph
Morph
(dp6204
g45
(lp6205
Vc\u030c
p6206
aVo
aVl
aVo
aVv^y
p6207
aVi
aVk
aVa
aVm
asb(imorph
Morph
(dp6208
g45
(lp6209
Vc\u030c
p6210
aVo
aVl
aVo
aVv^y
p6211
aVi
aVk
aVo
aVv^y
p6212
aVi
asbN(imorph
Morph
(dp6213
g45
(lp6214
Vc\u030c
p6215
aVo
aVl
aVo
aVv^y
p6216
aVi
aVk
aVo
aVv^y
p6217
aVi
asbNNNNNtp6218
(imorph
Morph
p6219
(dp6220
g45
(lp6221
g6011
aVo
aVl
aVo
aVv^y
p6222
aVi
aVk
asbs((imorph
Morph
(dp6223
g45
(lp6224
Vb
aVi
aVl^y
p6225
asb(imorph
Morph
(dp6226
g45
(lp6227
Vb
aVo
aVl^y
p6228
aVa
aVm
asb(imorph
Morph
(dp6229
g45
(lp6230
Vb
aVo
aVl
aVe
aVv^y
p6231
aVi
asb(imorph
Morph
(dp6232
g45
(lp6233
Vb
aVo
aVl^y
p6234
aVi
asbNNNNNNtp6235
(imorph
Morph
p6236
(dp6237
g45
(lp6238
Vb
aVo
aVl^y
p6239
asbs((imorph
Morph
(dp6240
g45
(lp6241
Vs
aVt
aVi
aVw
asb(imorph
Morph
(dp6242
g45
(lp6243
Vs
aVt
aVo
aVl
aVa
aVm
asb(imorph
Morph
(dp6244
g45
(lp6245
Vs
aVt
aVo
aVl
aVo
aVv^y
p6246
aVi
asb(imorph
Morph
(dp6247
g45
(lp6248
Vs
aVt
aVo
aVl^y
p6249
aVi
asbNNNNNNtp6250
(imorph
Morph
p6251
(dp6252
g45
(lp6253
Vs
aVt
aVo
aVl
asbs((imorph
Morph
(dp6254
g45
(lp6255
Vl^y
p6256
aVi
aVd
asb(imorph
Morph
(dp6257
g45
(lp6258
Vl
aVe
aVd
aVa
aVm
asb(imorph
Morph
(dp6259
g45
(lp6260
Vl
aVe
aVd
aVo
aVv^y
p6261
aVi
asb(imorph
Morph
(dp6262
g45
(lp6263
Vl
aVe
aVd^y
p6264
aVi
asbNNNNNNtp6265
(imorph
Morph
p6266
(dp6267
g45
(lp6268
g6239
aVi
aVd
asbs((imorph
Morph
(dp6269
g45
(lp6270
Vs
aVu
aVs^y
p6271
aVi
aVd
asb(imorph
Morph
(dp6272
g45
(lp6273
Vs
aVu
aVs^y
p6274
aVi
aVd
aVa
aVm
asb(imorph
Morph
(dp6275
g45
(lp6276
Vs
aVu
aVs^y
p6277
aVi
aVd
aVo
aVv^y
p6278
aVi
asbN(imorph
Morph
(dp6279
g45
(lp6280
Vs
aVu
aVs^y
p6281
aVi
aVd
aVo
aVv^y
p6282
aVi
asbNNNNNtp6283
(imorph
Morph
p6284
(dp6285
g45
(lp6286
Vs
aVu
aVs
aVi
aVd
asbs((imorph
Morph
(dp6287
g45
(lp6288
Vm^y
p6289
aVi
aVs^y
p6290
aVa
aVt^s^y
p6291
asb(imorph
Morph
(dp6292
g45
(lp6293
Vm^y
p6294
aVi
aVs^y
p6295
aVa
aVt^s^y
p6296
aVa
aVm
asb(imorph
Morph
(dp6297
g45
(lp6298
Vm^y
p6299
aVi
aVs^y
p6300
aVa
aVt^s
p6301
aVe
aVv^y
p6302
aVi
asb(imorph
Morph
(dp6303
g45
(lp6304
Vm^y
p6305
aVi
aVs^y
p6306
aVa
aVt^s^y
p6307
aVi
asbNNNNNNtp6308
(imorph
Morph
p6309
(dp6310
g45
(lp6311
Vm^y
p6312
aVi
aVs^y
p6313
aVa
aVt^s^y
p6314
asbs((imorph
Morph
(dp6315
g45
(lp6316
Vm
aVi
aVs
aVt
asb(imorph
Morph
(dp6317
g45
(lp6318
Vm
aVo
aVs
aVt
aVa
aVm
asb(imorph
Morph
(dp6319
g45
(lp6320
Vm
aVo
aVs
aVt
aVo
aVv^y
p6321
aVi
asb(imorph
Morph
(dp6322
g45
(lp6323
Vm
aVo
aVs
aVt^y
p6324
aVi
asbNNNNNNtp6325
(imorph
Morph
p6326
(dp6327
g45
(lp6328
Vm
aVo
aVs
aVt
asbs((imorph
Morph
(dp6329
g45
(lp6330
Vr
aVi
aVw
asb(imorph
Morph
(dp6331
g45
(lp6332
Vr
aVo
aVv
aVa
aVm
asb(imorph
Morph
(dp6333
g45
(lp6334
Vr
aVo
aVv
aVo
aVv^y
p6335
aVi
asb(imorph
Morph
(dp6336
g45
(lp6337
Vr
aVo
aVv^y
p6338
aVi
asbNNNNNNtp6339
(imorph
Morph
p6340
(dp6341
g45
(lp6342
Vr
aVo
aVv
asbs((imorph
Morph
(dp6343
g45
(lp6344
Vz
aVl
aVo
aVd^y
p6345
aVi
aVy
asb(imorph
Morph
(dp6346
g45
(lp6347
Vz
aVl
aVo
aVd^y
p6348
aVi
aVy
aVa
aVm
asb(imorph
Morph
(dp6349
g45
(lp6350
Vz
aVl
aVo
aVd^y
p6351
aVi
aVy
aVe
aVv^y
p6352
aVi
asbN(imorph
Morph
(dp6353
g45
(lp6354
Vz
aVl
aVo
aVd^y
p6355
aVi
aVy
aVe
aVv^y
p6356
aVi
asbNNNNNtp6357
(imorph
Morph
p6358
(dp6359
g45
(lp6360
Vz
aVl
aVo
aVd
aVi
aVy
asbs((imorph
Morph
(dp6361
g45
(lp6362
Vh
aVo
aVl
aVu
aVb
asb(imorph
Morph
(dp6363
g45
(lp6364
Vh
aVo
aVl
aVu
aVb
aVa
aVm
asb(imorph
Morph
(dp6365
g45
(lp6366
Vh
aVo
aVl
aVu
aVb
aVo
aVv^y
p6367
aVi
asb(imorph
Morph
(dp6368
g45
(lp6369
Vh
aVo
aVl
aVu
aVb^y
p6370
aVi
asbNNNNNNtp6371
(imorph
Morph
p6372
(dp6373
g45
(lp6374
Vh
aVo
aVl
aVu
aVb
asbs((imorph
Morph
(dp6375
g45
(lp6376
Vs
aVv^y
p6377
aVi
aVt
asb(imorph
Morph
(dp6378
g45
(lp6379
Vs
aVv^y
p6380
aVi
aVt
aVa
aVm
asb(imorph
Morph
(dp6381
g45
(lp6382
Vs
aVv^y
p6383
aVi
aVt
aVo
aVv^y
p6384
aVi
asb(imorph
Morph
(dp6385
g45
(lp6386
Vs
aVv^y
p6387
aVi
aVt^y
p6388
aVi
asbNNNNNNtp6389
(imorph
Morph
p6390
(dp6391
g45
(lp6392
Vs
aVv^y
p6393
aVi
aVt
asbs((imorph
Morph
(dp6394
g45
(lp6395
Vz
aVu
aVb
asb(imorph
Morph
(dp6396
g45
(lp6397
Vz
aVu
aVb
aVa
aVm
asb(imorph
Morph
(dp6398
g45
(lp6399
Vz
aVu
aVb
aVo
aVv^y
p6400
aVi
asb(imorph
Morph
(dp6401
g45
(lp6402
Vz
aVu
aVb^y
p6403
aVi
asbNNNNNNtp6404
(imorph
Morph
p6405
(dp6406
g45
(lp6407
Vz
aVu
aVb
asbs((imorph
Morph
(dp6408
g45
(lp6409
Vk
aVo
aVr
aVo
aVv
aVa
aVy
asb(imorph
Morph
(dp6410
g45
(lp6411
Vk
aVo
aVr
aVo
aVv
aVa
aVy
aVa
aVm
asb(imorph
Morph
(dp6412
g45
(lp6413
Vk
aVo
aVr
aVo
aVv
aVa
aVy
aVe
aVv^y
p6414
aVi
asb(imorph
Morph
(dp6415
g45
(lp6416
Vk
aVo
aVr
aVo
aVv
aVa
aVy
aVi
asbNNNNNNtp6417
(imorph
Morph
p6418
(dp6419
g45
(lp6420
Vk
aVo
aVr
aVo
aVv
aVa
aVy
asbssg94
(lp6421
(imorph
Morph
p6422
(dp6423
g45
(lp6424
sba(imorph
Morph
p6425
(dp6426
g45
(lp6427
Va
aVm
asba(imorph
Morph
p6428
(dp6429
g45
(lp6430
Vo
aVv^y
p6431
aVi
asba(imorph
Morph
p6432
(dp6433
g45
(lp6434
Vi
asba(imorph
Morph
p6435
(dp6436
g45
(lp6437
Ve
ag6393
aVi
asba(imorph
Morph
p6438
(dp6439
g45
(lp6440
Vo
asba(imorph
Morph
p6441
(dp6442
g45
(lp6443
Va
asba(imorph
Morph
p6444
(dp6445
g45
(lp6446
Vu
asba(imorph
Morph
p6447
(dp6448
g45
(lp6449
Vi
asba(imorph
Morph
p6450
(dp6451
g45
(lp6452
sbasbF85075.95316195488
tp6453
asS'problem'
p6454
S'Odden_4.2_Standard_Ukrainian'
p6455
sS'finalFrontier'
p6456
g6
(csolution
Frontier
p6457
g8
NtRp6458
(dp6459
g41
g5905
sg94
g6421
sg74
g5936
sS'frontiers'
p6460
(lp6461
(lp6462
g5761
aa(lp6463
g5774
aa(lp6464
g5797
aa(lp6465
g5810
aa(lp6466
g5841
aa(lp6467
g5862
aa(lp6468
g5882
aasbsS'parameters'
p6469
g6
(cargparse
Namespace
p6470
g8
NtRp6471
(dp6472
S'dummy'
p6473
I00
sS'task'
p6474
S'incremental'
p6475
sS'features'
p6476
S'sophisticated'
p6477
sS'resume'
p6478
I00
sS'geometry'
p6479
I01
sS'top'
p6480
I100
sS'disableClean'
p6481
I00
sS'universal'
p6482
NsS'restrict'
p6483
NsS'window'
p6484
NsS'seed'
p6485
S'0'
sS'restore'
p6486
NsS'verbosity'
p6487
I0
sS'timeout'
p6488
F24
sS'debug'
p6489
NsS'cores'
p6490
I40
sg6454
S'Odden_4.2_Standard_Ukrainian'
p6491
sS'save'
p6492
NsS'serial'
p6493
I00
sS'alignment'
p6494
I00
sS'samples'
p6495
I30
sbsb.