(iresult
Result
p1
(dp2
S'startTime'
p3
F1549832824.3128459
sS'solutionSequence'
p4
(lp5
(ccopy_reg
_reconstructor
p6
(csolution
Solution
p7
c__builtin__
object
p8
NtRp9
(dp10
S'rules'
p11
(lp12
(irule
Rule
p13
(dp14
S'leftTriggers'
p15
(irule
Guard
p16
(dp17
S'endOfString'
p18
I01
sS'specifications'
p19
(lp20
sS'optionalEnding'
p21
I00
sS'representation'
p22
NsS'starred'
p23
I00
sS'side'
p24
S'L'
sbsS'structuralChange'
p25
(irule
EmptySpecification
p26
(dp27
bsS'rightTriggers'
p28
(irule
Guard
p29
(dp30
g18
I00
sg19
(lp31
sg21
I00
sg22
Nsg23
I00
sg24
S'R'
sbsS'focus'
p32
(irule
FeatureMatrix
p33
(dp34
S'featuresAndPolarities'
p35
(lp36
(I00
S'nasal'
p37
tp38
asg22
V[ -nasal ]
p39
sbsg22
NsbasS'prefixes'
p40
(lp41
sS'underlyingForms'
p42
(dp43
(I10
tp44
(imorph
Morph
p45
(dp46
S'phonemes'
p47
(lp48
Vb
aVj\u030c
p49
aVu
asbs(I5
tp50
(imorph
Morph
p51
(dp52
g47
(lp53
V\u014b
aVa
asbs(I9
tp54
(imorph
Morph
p55
(dp56
g47
(lp57
Vr
aVg
aVu
asbs(I1
tp58
(imorph
Morph
p59
(dp60
g47
(lp61
Vg
ag49
aVi
aVg
asbs(I4
tp62
(imorph
Morph
p63
(dp64
g47
(lp65
Vb
aV\u0161
aVi
asbssS'suffixes'
p66
(lp67
sbF32.334110975265503
tp68
asS'problem'
p69
S'Odden_2.4_Tibetan'
p70
sS'finalFrontier'
p71
g6
(csolution
Frontier
p72
g8
NtRp73
(dp74
g40
g41
sg66
g67
sg42
g43
sS'frontiers'
p75
(lp76
(lp77
g13
a(irule
Rule
p78
(dp79
g15
(irule
Guard
p80
(dp81
g18
I01
sg19
(lp82
sg21
I00
sg22
Nsg23
I00
sg24
S'L'
sbsg25
(irule
EmptySpecification
p83
(dp84
bsg28
(irule
Guard
p85
(dp86
g18
I00
sg19
(lp87
(irule
FeatureMatrix
p88
(dp89
g35
(lp90
(I00
S'vowel'
p91
tp92
asg22
V[ -vowel ]
p93
sbasg21
I00
sg22
Nsg23
I00
sg24
S'R'
sbsg32
(irule
FeatureMatrix
p94
(dp95
g35
(lp96
sg22
V[  ]
p97
sbsg22
Nsba(irule
Rule
p98
(dp99
g15
(irule
Guard
p100
(dp101
g18
I01
sg19
(lp102
sg21
I00
sg22
Nsg23
I00
sg24
S'L'
sbsg25
(irule
EmptySpecification
p103
(dp104
bsg28
(irule
Guard
p105
(dp106
g18
I00
sg19
(lp107
(irule
FeatureMatrix
p108
(dp109
g35
(lp110
sg22
V[  ]
p111
sbasg21
I00
sg22
Nsg23
I00
sg24
S'R'
sbsg32
(irule
FeatureMatrix
p112
(dp113
g35
(lp114
(I00
g37
tp115
asg22
V[ -nasal ]
p116
sbsg22
Nsba(irule
Rule
p117
(dp118
g15
(irule
Guard
p119
(dp120
g18
I01
sg19
(lp121
sg21
I00
sg22
Nsg23
I00
sg24
S'L'
sbsg25
(irule
EmptySpecification
p122
(dp123
bsg28
(irule
Guard
p124
(dp125
g18
I00
sg19
(lp126
sg21
I00
sg22
Nsg23
I00
sg24
S'R'
sbsg32
(irule
FeatureMatrix
p127
(dp128
g35
(lp129
(I00
S'rounded'
p130
tp131
a(I00
g37
tp132
asg22
V[ -nasal -rounded ]
p133
sbsg22
Nsba(irule
Rule
p134
(dp135
g15
(irule
Guard
p136
(dp137
g18
I01
sg19
(lp138
sg21
I00
sg22
Nsg23
I00
sg24
S'L'
sbsg25
(irule
EmptySpecification
p139
(dp140
bsg28
(irule
Guard
p141
(dp142
g18
I00
sg19
(lp143
(irule
FeatureMatrix
p144
(dp145
g35
(lp146
(I00
S'low'
p147
tp148
asg22
V[ -low ]
p149
sbasg21
I00
sg22
Nsg23
I00
sg24
S'R'
sbsg32
(irule
FeatureMatrix
p150
(dp151
g35
(lp152
sg22
V[  ]
p153
sbsg22
Nsba(irule
Rule
p154
(dp155
g15
(irule
Guard
p156
(dp157
g18
I01
sg19
(lp158
sg21
I00
sg22
Nsg23
I00
sg24
S'L'
sbsg25
(irule
EmptySpecification
p159
(dp160
bsg28
(irule
Guard
p161
(dp162
g18
I00
sg19
(lp163
sg21
I00
sg22
Nsg23
I00
sg24
S'R'
sbsg32
(irule
FeatureMatrix
p164
(dp165
g35
(lp166
(I00
g37
tp167
a(I00
S'tense'
p168
tp169
asg22
V[ -nasal -tense ]
p170
sbsg22
Nsba(irule
Rule
p171
(dp172
g15
(irule
Guard
p173
(dp174
g18
I01
sg19
(lp175
sg21
I00
sg22
Nsg23
I00
sg24
S'L'
sbsg25
(irule
EmptySpecification
p176
(dp177
bsg28
(irule
Guard
p178
(dp179
g18
I00
sg19
(lp180
(irule
FeatureMatrix
p181
(dp182
g35
(lp183
(I00
g168
tp184
asg22
V[ -tense ]
p185
sbasg21
I00
sg22
Nsg23
I00
sg24
S'R'
sbsg32
(irule
FeatureMatrix
p186
(dp187
g35
(lp188
sg22
V[  ]
p189
sbsg22
Nsba(irule
Rule
p190
(dp191
g15
(irule
Guard
p192
(dp193
g18
I01
sg19
(lp194
sg21
I00
sg22
Nsg23
I00
sg24
S'L'
sbsg25
(irule
EmptySpecification
p195
(dp196
bsg28
(irule
Guard
p197
(dp198
g18
I00
sg19
(lp199
(irule
FeatureMatrix
p200
(dp201
g35
(lp202
(I00
S'sonorant'
p203
tp204
asg22
V[ -sonorant ]
p205
sbasg21
I00
sg22
Nsg23
I00
sg24
S'R'
sbsg32
(irule
FeatureMatrix
p206
(dp207
g35
(lp208
sg22
V[  ]
p209
sbsg22
Nsba(irule
Rule
p210
(dp211
g15
(irule
Guard
p212
(dp213
g18
I01
sg19
(lp214
sg21
I00
sg22
Nsg23
I00
sg24
S'L'
sbsg25
(irule
EmptySpecification
p215
(dp216
bsg28
(irule
Guard
p217
(dp218
g18
I00
sg19
(lp219
sg21
I00
sg22
Nsg23
I00
sg24
S'R'
sbsg32
(irule
FeatureMatrix
p220
(dp221
g35
(lp222
(I00
g37
tp223
a(I01
S'voice'
p224
tp225
asg22
V[ +voice -nasal ]
p226
sbsg22
Nsba(irule
Rule
p227
(dp228
g15
(irule
Guard
p229
(dp230
g18
I01
sg19
(lp231
sg21
I00
sg22
Nsg23
I00
sg24
S'L'
sbsg25
(irule
EmptySpecification
p232
(dp233
bsg28
(irule
Guard
p234
(dp235
g18
I00
sg19
(lp236
sg21
I00
sg22
Nsg23
I00
sg24
S'R'
sbsg32
(irule
FeatureMatrix
p237
(dp238
g35
(lp239
(I00
g37
tp240
a(I00
g91
tp241
asg22
V[ -nasal -vowel ]
p242
sbsg22
Nsba(irule
Rule
p243
(dp244
g15
(irule
Guard
p245
(dp246
g18
I01
sg19
(lp247
sg21
I00
sg22
Nsg23
I00
sg24
S'L'
sbsg25
(irule
EmptySpecification
p248
(dp249
bsg28
(irule
Guard
p250
(dp251
g18
I00
sg19
(lp252
sg21
I00
sg22
Nsg23
I00
sg24
S'R'
sbsg32
(irule
FeatureMatrix
p253
(dp254
g35
(lp255
(I00
g37
tp256
a(I00
S'sibilant'
p257
tp258
asg22
V[ -nasal -sibilant ]
p259
sbsg22
Nsba(irule
Rule
p260
(dp261
g15
(irule
Guard
p262
(dp263
g18
I01
sg19
(lp264
sg21
I00
sg22
Nsg23
I00
sg24
S'L'
sbsg25
(irule
EmptySpecification
p265
(dp266
bsg28
(irule
Guard
p267
(dp268
g18
I00
sg19
(lp269
sg21
I00
sg22
Nsg23
I00
sg24
S'R'
sbsg32
(irule
FeatureMatrix
p270
(dp271
g35
(lp272
(I00
g37
tp273
a(I00
g147
tp274
asg22
V[ -low -nasal ]
p275
sbsg22
Nsba(irule
Rule
p276
(dp277
g15
(irule
Guard
p278
(dp279
g18
I01
sg19
(lp280
sg21
I00
sg22
Nsg23
I00
sg24
S'L'
sbsg25
(irule
EmptySpecification
p281
(dp282
bsg28
(irule
Guard
p283
(dp284
g18
I00
sg19
(lp285
(irule
FeatureMatrix
p286
(dp287
g35
(lp288
(I00
g147
tp289
asg22
V[ -low ]
p290
sbasg21
I00
sg22
Nsg23
I00
sg24
S'R'
sbsg32
(irule
FeatureMatrix
p291
(dp292
g35
(lp293
(I00
g37
tp294
asg22
V[ -nasal ]
p295
sbsg22
Nsba(irule
Rule
p296
(dp297
g15
(irule
Guard
p298
(dp299
g18
I01
sg19
(lp300
sg21
I00
sg22
Nsg23
I00
sg24
S'L'
sbsg25
(irule
EmptySpecification
p301
(dp302
bsg28
(irule
Guard
p303
(dp304
g18
I00
sg19
(lp305
(irule
FeatureMatrix
p306
(dp307
g35
(lp308
(I00
g37
tp309
asg22
V[ -nasal ]
p310
sbasg21
I00
sg22
Nsg23
I00
sg24
S'R'
sbsg32
(irule
FeatureMatrix
p311
(dp312
g35
(lp313
(I00
g37
tp314
asg22
V[ -nasal ]
p315
sbsg22
Nsba(irule
Rule
p316
(dp317
g15
(irule
Guard
p318
(dp319
g18
I01
sg19
(lp320
sg21
I00
sg22
Nsg23
I00
sg24
S'L'
sbsg25
(irule
EmptySpecification
p321
(dp322
bsg28
(irule
Guard
p323
(dp324
g18
I00
sg19
(lp325
sg21
I00
sg22
Nsg23
I00
sg24
S'R'
sbsg32
(irule
FeatureMatrix
p326
(dp327
g35
(lp328
(I00
g130
tp329
a(I00
g37
tp330
a(I00
g257
tp331
asg22
V[ -nasal -rounded -sibilant ]
p332
sbsg22
Nsba(irule
Rule
p333
(dp334
g15
(irule
Guard
p335
(dp336
g18
I01
sg19
(lp337
sg21
I00
sg22
Nsg23
I00
sg24
S'L'
sbsg25
(irule
EmptySpecification
p338
(dp339
bsg28
(irule
Guard
p340
(dp341
g18
I00
sg19
(lp342
sg21
I00
sg22
Nsg23
I00
sg24
S'R'
sbsg32
(irule
FeatureMatrix
p343
(dp344
g35
(lp345
(I00
g130
tp346
a(I00
g37
tp347
a(I01
g224
tp348
asg22
V[ +voice -nasal -rounded ]
p349
sbsg22
Nsba(irule
Rule
p350
(dp351
g15
(irule
Guard
p352
(dp353
g18
I01
sg19
(lp354
sg21
I00
sg22
Nsg23
I00
sg24
S'L'
sbsg25
(irule
EmptySpecification
p355
(dp356
bsg28
(irule
Guard
p357
(dp358
g18
I00
sg19
(lp359
(irule
FeatureMatrix
p360
(dp361
g35
(lp362
(I00
S'anterior'
p363
tp364
a(I00
g91
tp365
asg22
V[ -anterior -vowel ]
p366
sbasg21
I00
sg22
Nsg23
I00
sg24
S'R'
sbsg32
(irule
FeatureMatrix
p367
(dp368
g35
(lp369
sg22
V[  ]
p370
sbsg22
Nsba(irule
Rule
p371
(dp372
g15
(irule
Guard
p373
(dp374
g18
I01
sg19
(lp375
sg21
I00
sg22
Nsg23
I00
sg24
S'L'
sbsg25
(irule
EmptySpecification
p376
(dp377
bsg28
(irule
Guard
p378
(dp379
g18
I00
sg19
(lp380
(irule
FeatureMatrix
p381
(dp382
g35
(lp383
(I00
g37
tp384
a(I00
g168
tp385
asg22
V[ -nasal -tense ]
p386
sbasg21
I00
sg22
Nsg23
I00
sg24
S'R'
sbsg32
(irule
FeatureMatrix
p387
(dp388
g35
(lp389
sg22
V[  ]
p390
sbsg22
Nsba(irule
Rule
p391
(dp392
g15
(irule
Guard
p393
(dp394
g18
I01
sg19
(lp395
sg21
I00
sg22
Nsg23
I00
sg24
S'L'
sbsg25
(irule
EmptySpecification
p396
(dp397
bsg28
(irule
Guard
p398
(dp399
g18
I00
sg19
(lp400
(irule
FeatureMatrix
p401
(dp402
g35
(lp403
(I00
g168
tp404
a(I00
g147
tp405
asg22
V[ -low -tense ]
p406
sbasg21
I00
sg22
Nsg23
I00
sg24
S'R'
sbsg32
(irule
FeatureMatrix
p407
(dp408
g35
(lp409
sg22
V[  ]
p410
sbsg22
Nsba(irule
Rule
p411
(dp412
g15
(irule
Guard
p413
(dp414
g18
I01
sg19
(lp415
sg21
I00
sg22
Nsg23
I00
sg24
S'L'
sbsg25
(irule
EmptySpecification
p416
(dp417
bsg28
(irule
Guard
p418
(dp419
g18
I00
sg19
(lp420
sg21
I00
sg22
Nsg23
I00
sg24
S'R'
sbsg32
(irule
FeatureMatrix
p421
(dp422
g35
(lp423
(I00
g130
tp424
a(I00
g37
tp425
a(I00
g91
tp426
asg22
V[ -nasal -rounded -vowel ]
p427
sbsg22
Nsba(irule
Rule
p428
(dp429
g15
(irule
Guard
p430
(dp431
g18
I01
sg19
(lp432
sg21
I00
sg22
Nsg23
I00
sg24
S'L'
sbsg25
(irule
EmptySpecification
p433
(dp434
bsg28
(irule
Guard
p435
(dp436
g18
I00
sg19
(lp437
(irule
FeatureMatrix
p438
(dp439
g35
(lp440
(I00
g130
tp441
a(I00
g147
tp442
asg22
V[ -low -rounded ]
p443
sbasg21
I00
sg22
Nsg23
I00
sg24
S'R'
sbsg32
(irule
FeatureMatrix
p444
(dp445
g35
(lp446
sg22
V[  ]
p447
sbsg22
Nsba(irule
Rule
p448
(dp449
g15
(irule
Guard
p450
(dp451
g18
I01
sg19
(lp452
sg21
I00
sg22
Nsg23
I00
sg24
S'L'
sbsg25
(irule
EmptySpecification
p453
(dp454
bsg28
(irule
Guard
p455
(dp456
g18
I00
sg19
(lp457
sg21
I00
sg22
Nsg23
I00
sg24
S'R'
sbsg32
(irule
FeatureMatrix
p458
(dp459
g35
(lp460
(I00
g37
tp461
a(I00
g91
tp462
a(I00
g257
tp463
asg22
V[ -nasal -sibilant -vowel ]
p464
sbsg22
Nsba(irule
Rule
p465
(dp466
g15
(irule
Guard
p467
(dp468
g18
I01
sg19
(lp469
sg21
I00
sg22
Nsg23
I00
sg24
S'L'
sbsg25
(irule
EmptySpecification
p470
(dp471
bsg28
(irule
Guard
p472
(dp473
g18
I00
sg19
(lp474
(irule
FeatureMatrix
p475
(dp476
g35
(lp477
(I00
S'liquid'
p478
tp479
a(I00
g203
tp480
asg22
V[ -liquid -sonorant ]
p481
sbasg21
I00
sg22
Nsg23
I00
sg24
S'R'
sbsg32
(irule
FeatureMatrix
p482
(dp483
g35
(lp484
sg22
V[  ]
p485
sbsg22
Nsba(irule
Rule
p486
(dp487
g15
(irule
Guard
p488
(dp489
g18
I01
sg19
(lp490
sg21
I00
sg22
Nsg23
I00
sg24
S'L'
sbsg25
(irule
EmptySpecification
p491
(dp492
bsg28
(irule
Guard
p493
(dp494
g18
I00
sg19
(lp495
(irule
FeatureMatrix
p496
(dp497
g35
(lp498
(I00
g91
tp499
asg22
V[ -vowel ]
p500
sbasg21
I00
sg22
Nsg23
I00
sg24
S'R'
sbsg32
(irule
FeatureMatrix
p501
(dp502
g35
(lp503
(I00
g130
tp504
asg22
V[ -rounded ]
p505
sbsg22
Nsba(irule
Rule
p506
(dp507
g15
(irule
Guard
p508
(dp509
g18
I01
sg19
(lp510
sg21
I00
sg22
Nsg23
I00
sg24
S'L'
sbsg25
(irule
EmptySpecification
p511
(dp512
bsg28
(irule
Guard
p513
(dp514
g18
I00
sg19
(lp515
(irule
FeatureMatrix
p516
(dp517
g35
(lp518
(I00
g363
tp519
a(I00
g203
tp520
asg22
V[ -anterior -sonorant ]
p521
sbasg21
I00
sg22
Nsg23
I00
sg24
S'R'
sbsg32
(irule
FeatureMatrix
p522
(dp523
g35
(lp524
sg22
V[  ]
p525
sbsg22
Nsba(irule
Rule
p526
(dp527
g15
(irule
Guard
p528
(dp529
g18
I01
sg19
(lp530
sg21
I00
sg22
Nsg23
I00
sg24
S'L'
sbsg25
(irule
EmptySpecification
p531
(dp532
bsg28
(irule
Guard
p533
(dp534
g18
I00
sg19
(lp535
sg21
I00
sg22
Nsg23
I00
sg24
S'R'
sbsg32
(irule
FeatureMatrix
p536
(dp537
g35
(lp538
(I00
g130
tp539
a(I00
g37
tp540
a(I00
g147
tp541
asg22
V[ -low -nasal -rounded ]
p542
sbsg22
Nsba(irule
Rule
p543
(dp544
g15
(irule
Guard
p545
(dp546
g18
I01
sg19
(lp547
sg21
I00
sg22
Nsg23
I00
sg24
S'L'
sbsg25
(irule
EmptySpecification
p548
(dp549
bsg28
(irule
Guard
p550
(dp551
g18
I00
sg19
(lp552
(irule
FeatureMatrix
p553
(dp554
g35
(lp555
(I00
g37
tp556
a(I00
g147
tp557
asg22
V[ -low -nasal ]
p558
sbasg21
I00
sg22
Nsg23
I00
sg24
S'R'
sbsg32
(irule
FeatureMatrix
p559
(dp560
g35
(lp561
sg22
V[  ]
p562
sbsg22
Nsba(irule
Rule
p563
(dp564
g15
(irule
Guard
p565
(dp566
g18
I01
sg19
(lp567
sg21
I00
sg22
Nsg23
I00
sg24
S'L'
sbsg25
(irule
EmptySpecification
p568
(dp569
bsg28
(irule
Guard
p570
(dp571
g18
I00
sg19
(lp572
(irule
FeatureMatrix
p573
(dp574
g35
(lp575
(I00
g363
tp576
a(I00
g147
tp577
asg22
V[ -anterior -low ]
p578
sbasg21
I00
sg22
Nsg23
I00
sg24
S'R'
sbsg32
(irule
FeatureMatrix
p579
(dp580
g35
(lp581
sg22
V[  ]
p582
sbsg22
Nsba(irule
Rule
p583
(dp584
g15
(irule
Guard
p585
(dp586
g18
I01
sg19
(lp587
sg21
I00
sg22
Nsg23
I00
sg24
S'L'
sbsg25
(irule
EmptySpecification
p588
(dp589
bsg28
(irule
Guard
p590
(dp591
g18
I00
sg19
(lp592
sg21
I00
sg22
Nsg23
I00
sg24
S'R'
sbsg32
(irule
FeatureMatrix
p593
(dp594
g35
(lp595
(I00
g37
tp596
a(I00
g257
tp597
a(I01
g224
tp598
asg22
V[ +voice -nasal -sibilant ]
p599
sbsg22
Nsba(irule
Rule
p600
(dp601
g15
(irule
Guard
p602
(dp603
g18
I01
sg19
(lp604
sg21
I00
sg22
Nsg23
I00
sg24
S'L'
sbsg25
(irule
EmptySpecification
p605
(dp606
bsg28
(irule
Guard
p607
(dp608
g18
I00
sg19
(lp609
(irule
FeatureMatrix
p610
(dp611
g35
(lp612
(I00
g363
tp613
a(I00
g168
tp614
asg22
V[ -anterior -tense ]
p615
sbasg21
I00
sg22
Nsg23
I00
sg24
S'R'
sbsg32
(irule
FeatureMatrix
p616
(dp617
g35
(lp618
sg22
V[  ]
p619
sbsg22
Nsba(irule
Rule
p620
(dp621
g15
(irule
Guard
p622
(dp623
g18
I01
sg19
(lp624
sg21
I00
sg22
Nsg23
I00
sg24
S'L'
sbsg25
(irule
EmptySpecification
p625
(dp626
bsg28
(irule
Guard
p627
(dp628
g18
I00
sg19
(lp629
(irule
FeatureMatrix
p630
(dp631
g35
(lp632
(I00
g130
tp633
a(I00
g203
tp634
asg22
V[ -rounded -sonorant ]
p635
sbasg21
I00
sg22
Nsg23
I00
sg24
S'R'
sbsg32
(irule
FeatureMatrix
p636
(dp637
g35
(lp638
sg22
V[  ]
p639
sbsg22
Nsba(irule
Rule
p640
(dp641
g15
(irule
Guard
p642
(dp643
g18
I01
sg19
(lp644
sg21
I00
sg22
Nsg23
I00
sg24
S'L'
sbsg25
(irule
EmptySpecification
p645
(dp646
bsg28
(irule
Guard
p647
(dp648
g18
I00
sg19
(lp649
(irule
FeatureMatrix
p650
(dp651
g35
(lp652
(I00
g478
tp653
a(I00
g147
tp654
asg22
V[ -liquid -low ]
p655
sbasg21
I00
sg22
Nsg23
I00
sg24
S'R'
sbsg32
(irule
FeatureMatrix
p656
(dp657
g35
(lp658
sg22
V[  ]
p659
sbsg22
Nsba(irule
Rule
p660
(dp661
g15
(irule
Guard
p662
(dp663
g18
I01
sg19
(lp664
sg21
I00
sg22
Nsg23
I00
sg24
S'L'
sbsg25
(irule
EmptySpecification
p665
(dp666
bsg28
(irule
Guard
p667
(dp668
g18
I00
sg19
(lp669
(irule
FeatureMatrix
p670
(dp671
g35
(lp672
(I00
g168
tp673
asg22
V[ -tense ]
p674
sbasg21
I00
sg22
Nsg23
I00
sg24
S'R'
sbsg32
(irule
FeatureMatrix
p675
(dp676
g35
(lp677
(I00
g37
tp678
asg22
V[ -nasal ]
p679
sbsg22
Nsba(irule
Rule
p680
(dp681
g15
(irule
Guard
p682
(dp683
g18
I01
sg19
(lp684
sg21
I00
sg22
Nsg23
I00
sg24
S'L'
sbsg25
(irule
EmptySpecification
p685
(dp686
bsg28
(irule
Guard
p687
(dp688
g18
I00
sg19
(lp689
sg21
I00
sg22
Nsg23
I00
sg24
S'R'
sbsg32
(irule
FeatureMatrix
p690
(dp691
g35
(lp692
(I00
g37
tp693
a(I00
g91
tp694
a(I01
g224
tp695
asg22
V[ +voice -nasal -vowel ]
p696
sbsg22
Nsba(irule
Rule
p697
(dp698
g15
(irule
Guard
p699
(dp700
g18
I01
sg19
(lp701
sg21
I00
sg22
Nsg23
I00
sg24
S'L'
sbsg25
(irule
EmptySpecification
p702
(dp703
bsg28
(irule
Guard
p704
(dp705
g18
I00
sg19
(lp706
sg21
I00
sg22
Nsg23
I00
sg24
S'R'
sbsg32
(irule
FeatureMatrix
p707
(dp708
g35
(lp709
(I00
g130
tp710
a(I00
g37
tp711
a(I00
g168
tp712
asg22
V[ -nasal -rounded -tense ]
p713
sbsg22
Nsba(irule
Rule
p714
(dp715
g15
(irule
Guard
p716
(dp717
g18
I01
sg19
(lp718
sg21
I00
sg22
Nsg23
I00
sg24
S'L'
sbsg25
(irule
EmptySpecification
p719
(dp720
bsg28
(irule
Guard
p721
(dp722
g18
I00
sg19
(lp723
(irule
FeatureMatrix
p724
(dp725
g35
(lp726
(I00
g147
tp727
asg22
V[ -low ]
p728
sbasg21
I00
sg22
Nsg23
I00
sg24
S'R'
sbsg32
(irule
FeatureMatrix
p729
(dp730
g35
(lp731
(I00
g130
tp732
asg22
V[ -rounded ]
p733
sbsg22
Nsba(irule
Rule
p734
(dp735
g15
(irule
Guard
p736
(dp737
g18
I01
sg19
(lp738
sg21
I00
sg22
Nsg23
I00
sg24
S'L'
sbsg25
(irule
EmptySpecification
p739
(dp740
bsg28
(irule
Guard
p741
(dp742
g18
I00
sg19
(lp743
(irule
FeatureMatrix
p744
(dp745
g35
(lp746
sg22
V[  ]
p747
sbasg21
I00
sg22
Nsg23
I00
sg24
S'R'
sbsg32
(irule
FeatureMatrix
p748
(dp749
g35
(lp750
(I00
g130
tp751
a(I00
g37
tp752
asg22
V[ -nasal -rounded ]
p753
sbsg22
Nsba(irule
Rule
p754
(dp755
g15
(irule
Guard
p756
(dp757
g18
I01
sg19
(lp758
sg21
I00
sg22
Nsg23
I00
sg24
S'L'
sbsg25
(irule
EmptySpecification
p759
(dp760
bsg28
(irule
Guard
p761
(dp762
g18
I00
sg19
(lp763
(irule
FeatureMatrix
p764
(dp765
g35
(lp766
(I00
g91
tp767
asg22
V[ -vowel ]
p768
sbasg21
I00
sg22
Nsg23
I00
sg24
S'R'
sbsg32
(irule
FeatureMatrix
p769
(dp770
g35
(lp771
(I00
g37
tp772
asg22
V[ -nasal ]
p773
sbsg22
Nsba(irule
Rule
p774
(dp775
g15
(irule
Guard
p776
(dp777
g18
I01
sg19
(lp778
sg21
I00
sg22
Nsg23
I00
sg24
S'L'
sbsg25
(irule
EmptySpecification
p779
(dp780
bsg28
(irule
Guard
p781
(dp782
g18
I00
sg19
(lp783
(irule
FeatureMatrix
p784
(dp785
g35
(lp786
(I00
g147
tp787
a(I00
g91
tp788
asg22
V[ -low -vowel ]
p789
sbasg21
I00
sg22
Nsg23
I00
sg24
S'R'
sbsg32
(irule
FeatureMatrix
p790
(dp791
g35
(lp792
sg22
V[  ]
p793
sbsg22
Nsba(irule
Rule
p794
(dp795
g15
(irule
Guard
p796
(dp797
g18
I01
sg19
(lp798
sg21
I00
sg22
Nsg23
I00
sg24
S'L'
sbsg25
(irule
EmptySpecification
p799
(dp800
bsg28
(irule
Guard
p801
(dp802
g18
I00
sg19
(lp803
(irule
FeatureMatrix
p804
(dp805
g35
(lp806
sg22
V[  ]
p807
sba(irule
FeatureMatrix
p808
(dp809
g35
(lp810
(I00
g363
tp811
asg22
V[ -anterior ]
p812
sbasg21
I00
sg22
Nsg23
I00
sg24
S'R'
sbsg32
(irule
FeatureMatrix
p813
(dp814
g35
(lp815
sg22
V[  ]
p816
sbsg22
Nsba(irule
Rule
p817
(dp818
g15
(irule
Guard
p819
(dp820
g18
I01
sg19
(lp821
sg21
I00
sg22
Nsg23
I00
sg24
S'L'
sbsg25
(irule
EmptySpecification
p822
(dp823
bsg28
(irule
Guard
p824
(dp825
g18
I00
sg19
(lp826
(irule
FeatureMatrix
p827
(dp828
g35
(lp829
sg22
V[  ]
p830
sbasg21
I00
sg22
Nsg23
I00
sg24
S'R'
sbsg32
(irule
FeatureMatrix
p831
(dp832
g35
(lp833
(I00
g37
tp834
a(I00
g257
tp835
asg22
V[ -nasal -sibilant ]
p836
sbsg22
Nsba(irule
Rule
p837
(dp838
g15
(irule
Guard
p839
(dp840
g18
I01
sg19
(lp841
sg21
I00
sg22
Nsg23
I00
sg24
S'L'
sbsg25
(irule
EmptySpecification
p842
(dp843
bsg28
(irule
Guard
p844
(dp845
g18
I00
sg19
(lp846
sg21
I00
sg22
Nsg23
I00
sg24
S'R'
sbsg32
(irule
FeatureMatrix
p847
(dp848
g35
(lp849
(I00
g37
tp850
a(I00
g147
tp851
a(I00
g257
tp852
asg22
V[ -low -nasal -sibilant ]
p853
sbsg22
Nsba(irule
Rule
p854
(dp855
g15
(irule
Guard
p856
(dp857
g18
I01
sg19
(lp858
sg21
I00
sg22
Nsg23
I00
sg24
S'L'
sbsg25
(irule
EmptySpecification
p859
(dp860
bsg28
(irule
Guard
p861
(dp862
g18
I00
sg19
(lp863
sg21
I00
sg22
Nsg23
I00
sg24
S'R'
sbsg32
(irule
FeatureMatrix
p864
(dp865
g35
(lp866
(I00
g37
tp867
a(I00
g147
tp868
a(I00
g91
tp869
asg22
V[ -low -nasal -vowel ]
p870
sbsg22
Nsba(irule
Rule
p871
(dp872
g15
(irule
Guard
p873
(dp874
g18
I01
sg19
(lp875
sg21
I00
sg22
Nsg23
I00
sg24
S'L'
sbsg25
(irule
EmptySpecification
p876
(dp877
bsg28
(irule
Guard
p878
(dp879
g18
I00
sg19
(lp880
(irule
FeatureMatrix
p881
(dp882
g35
(lp883
(I00
g37
tp884
a(I00
g203
tp885
asg22
V[ -nasal -sonorant ]
p886
sbasg21
I00
sg22
Nsg23
I00
sg24
S'R'
sbsg32
(irule
FeatureMatrix
p887
(dp888
g35
(lp889
sg22
V[  ]
p890
sbsg22
Nsba(irule
Rule
p891
(dp892
g15
(irule
Guard
p893
(dp894
g18
I01
sg19
(lp895
sg21
I00
sg22
Nsg23
I00
sg24
S'L'
sbsg25
(irule
EmptySpecification
p896
(dp897
bsg28
(irule
Guard
p898
(dp899
g18
I00
sg19
(lp900
(irule
FeatureMatrix
p901
(dp902
g35
(lp903
sg22
V[  ]
p904
sbasg21
I00
sg22
Nsg23
I00
sg24
S'R'
sbsg32
(irule
FeatureMatrix
p905
(dp906
g35
(lp907
(I00
g37
tp908
a(I01
g224
tp909
asg22
V[ +voice -nasal ]
p910
sbsg22
Nsba(irule
Rule
p911
(dp912
g15
(irule
Guard
p913
(dp914
g18
I01
sg19
(lp915
sg21
I00
sg22
Nsg23
I00
sg24
S'L'
sbsg25
(irule
EmptySpecification
p916
(dp917
bsg28
(irule
Guard
p918
(dp919
g18
I00
sg19
(lp920
sg21
I00
sg22
Nsg23
I00
sg24
S'R'
sbsg32
(irule
FeatureMatrix
p921
(dp922
g35
(lp923
(I00
g37
tp924
a(I00
g168
tp925
a(I00
g147
tp926
asg22
V[ -low -nasal -tense ]
p927
sbsg22
Nsba(irule
Rule
p928
(dp929
g15
(irule
Guard
p930
(dp931
g18
I01
sg19
(lp932
sg21
I00
sg22
Nsg23
I00
sg24
S'L'
sbsg25
(irule
EmptySpecification
p933
(dp934
bsg28
(irule
Guard
p935
(dp936
g18
I00
sg19
(lp937
(irule
FeatureMatrix
p938
(dp939
g35
(lp940
(I00
g363
tp941
asg22
V[ -anterior ]
p942
sbasg21
I00
sg22
Nsg23
I00
sg24
S'R'
sbsg32
(irule
FeatureMatrix
p943
(dp944
g35
(lp945
(I00
g37
tp946
asg22
V[ -nasal ]
p947
sbsg22
Nsba(irule
Rule
p948
(dp949
g15
(irule
Guard
p950
(dp951
g18
I01
sg19
(lp952
sg21
I00
sg22
Nsg23
I00
sg24
S'L'
sbsg25
(irule
EmptySpecification
p953
(dp954
bsg28
(irule
Guard
p955
(dp956
g18
I00
sg19
(lp957
sg21
I00
sg22
Nsg23
I00
sg24
S'R'
sbsg32
(irule
FeatureMatrix
p958
(dp959
g35
(lp960
(I00
g37
tp961
a(I00
g147
tp962
a(I01
g224
tp963
asg22
V[ +voice -low -nasal ]
p964
sbsg22
Nsba(irule
Rule
p965
(dp966
g15
(irule
Guard
p967
(dp968
g18
I01
sg19
(lp969
sg21
I00
sg22
Nsg23
I00
sg24
S'L'
sbsg25
(irule
EmptySpecification
p970
(dp971
bsg28
(irule
Guard
p972
(dp973
g18
I00
sg19
(lp974
(irule
FeatureMatrix
p975
(dp976
g35
(lp977
(I00
g91
tp978
asg22
V[ -vowel ]
p979
sba(irule
FeatureMatrix
p980
(dp981
g35
(lp982
sg22
V[  ]
p983
sbasg21
I00
sg22
Nsg23
I00
sg24
S'R'
sbsg32
(irule
FeatureMatrix
p984
(dp985
g35
(lp986
sg22
V[  ]
p987
sbsg22
Nsba(irule
Rule
p988
(dp989
g15
(irule
Guard
p990
(dp991
g18
I01
sg19
(lp992
sg21
I00
sg22
Nsg23
I00
sg24
S'L'
sbsg25
(irule
EmptySpecification
p993
(dp994
bsg28
(irule
Guard
p995
(dp996
g18
I00
sg19
(lp997
(irule
FeatureMatrix
p998
(dp999
g35
(lp1000
sg22
V[  ]
p1001
sba(irule
FeatureMatrix
p1002
(dp1003
g35
(lp1004
(I01
S'high'
p1005
tp1006
asg22
V[ +high ]
p1007
sbasg21
I00
sg22
Nsg23
I00
sg24
S'R'
sbsg32
(irule
FeatureMatrix
p1008
(dp1009
g35
(lp1010
sg22
V[  ]
p1011
sbsg22
Nsba(irule
Rule
p1012
(dp1013
g15
(irule
Guard
p1014
(dp1015
g18
I01
sg19
(lp1016
sg21
I00
sg22
Nsg23
I00
sg24
S'L'
sbsg25
(irule
EmptySpecification
p1017
(dp1018
bsg28
(irule
Guard
p1019
(dp1020
g18
I00
sg19
(lp1021
(irule
FeatureMatrix
p1022
(dp1023
g35
(lp1024
sg22
V[  ]
p1025
sba(irule
FeatureMatrix
p1026
(dp1027
g35
(lp1028
sg22
V[  ]
p1029
sbasg21
I00
sg22
Nsg23
I00
sg24
S'R'
sbsg32
(irule
FeatureMatrix
p1030
(dp1031
g35
(lp1032
(I00
g37
tp1033
asg22
V[ -nasal ]
p1034
sbsg22
Nsba(irule
Rule
p1035
(dp1036
g15
(irule
Guard
p1037
(dp1038
g18
I01
sg19
(lp1039
sg21
I00
sg22
Nsg23
I00
sg24
S'L'
sbsg25
(irule
EmptySpecification
p1040
(dp1041
bsg28
(irule
Guard
p1042
(dp1043
g18
I00
sg19
(lp1044
(irule
FeatureMatrix
p1045
(dp1046
g35
(lp1047
(I00
g478
tp1048
asg22
V[ -liquid ]
p1049
sbasg21
I00
sg22
Nsg23
I00
sg24
S'R'
sbsg32
(irule
FeatureMatrix
p1050
(dp1051
g35
(lp1052
(I00
g37
tp1053
asg22
V[ -nasal ]
p1054
sbsg22
Nsba(irule
Rule
p1055
(dp1056
g15
(irule
Guard
p1057
(dp1058
g18
I01
sg19
(lp1059
sg21
I00
sg22
Nsg23
I00
sg24
S'L'
sbsg25
(irule
EmptySpecification
p1060
(dp1061
bsg28
(irule
Guard
p1062
(dp1063
g18
I00
sg19
(lp1064
(irule
FeatureMatrix
p1065
(dp1066
g35
(lp1067
(I00
g203
tp1068
asg22
V[ -sonorant ]
p1069
sbasg21
I00
sg22
Nsg23
I00
sg24
S'R'
sbsg32
(irule
FeatureMatrix
p1070
(dp1071
g35
(lp1072
(I00
g130
tp1073
asg22
V[ -rounded ]
p1074
sbsg22
Nsba(irule
Rule
p1075
(dp1076
g15
(irule
Guard
p1077
(dp1078
g18
I01
sg19
(lp1079
sg21
I00
sg22
Nsg23
I00
sg24
S'L'
sbsg25
(irule
EmptySpecification
p1080
(dp1081
bsg28
(irule
Guard
p1082
(dp1083
g18
I00
sg19
(lp1084
(irule
FeatureMatrix
p1085
(dp1086
g35
(lp1087
(I00
g168
tp1088
a(I00
g91
tp1089
asg22
V[ -tense -vowel ]
p1090
sbasg21
I00
sg22
Nsg23
I00
sg24
S'R'
sbsg32
(irule
FeatureMatrix
p1091
(dp1092
g35
(lp1093
sg22
V[  ]
p1094
sbsg22
Nsba(irule
Rule
p1095
(dp1096
g15
(irule
Guard
p1097
(dp1098
g18
I01
sg19
(lp1099
sg21
I00
sg22
Nsg23
I00
sg24
S'L'
sbsg25
(irule
EmptySpecification
p1100
(dp1101
bsg28
(irule
Guard
p1102
(dp1103
g18
I00
sg19
(lp1104
(irule
FeatureMatrix
p1105
(dp1106
g35
(lp1107
(I00
g168
tp1108
asg22
V[ -tense ]
p1109
sbasg21
I00
sg22
Nsg23
I00
sg24
S'R'
sbsg32
(irule
FeatureMatrix
p1110
(dp1111
g35
(lp1112
(I01
g224
tp1113
asg22
V[ +voice ]
p1114
sbsg22
Nsba(irule
Rule
p1115
(dp1116
g15
(irule
Guard
p1117
(dp1118
g18
I01
sg19
(lp1119
sg21
I00
sg22
Nsg23
I00
sg24
S'L'
sbsg25
(irule
EmptySpecification
p1120
(dp1121
bsg28
(irule
Guard
p1122
(dp1123
g18
I00
sg19
(lp1124
(irule
FeatureMatrix
p1125
(dp1126
g35
(lp1127
(I00
g203
tp1128
asg22
V[ -sonorant ]
p1129
sbasg21
I00
sg22
Nsg23
I00
sg24
S'R'
sbsg32
(irule
FeatureMatrix
p1130
(dp1131
g35
(lp1132
(I00
g37
tp1133
asg22
V[ -nasal ]
p1134
sbsg22
Nsba(irule
Rule
p1135
(dp1136
g15
(irule
Guard
p1137
(dp1138
g18
I01
sg19
(lp1139
sg21
I00
sg22
Nsg23
I00
sg24
S'L'
sbsg25
(irule
EmptySpecification
p1140
(dp1141
bsg28
(irule
Guard
p1142
(dp1143
g18
I00
sg19
(lp1144
(irule
FeatureMatrix
p1145
(dp1146
g35
(lp1147
(I00
g203
tp1148
a(I00
g147
tp1149
asg22
V[ -low -sonorant ]
p1150
sbasg21
I00
sg22
Nsg23
I00
sg24
S'R'
sbsg32
(irule
FeatureMatrix
p1151
(dp1152
g35
(lp1153
sg22
V[  ]
p1154
sbsg22
Nsba(irule
Rule
p1155
(dp1156
g15
(irule
Guard
p1157
(dp1158
g18
I01
sg19
(lp1159
sg21
I00
sg22
Nsg23
I00
sg24
S'L'
sbsg25
(irule
EmptySpecification
p1160
(dp1161
bsg28
(irule
Guard
p1162
(dp1163
g18
I00
sg19
(lp1164
(irule
FeatureMatrix
p1165
(dp1166
g35
(lp1167
(I00
g203
tp1168
a(I00
g91
tp1169
asg22
V[ -sonorant -vowel ]
p1170
sbasg21
I00
sg22
Nsg23
I00
sg24
S'R'
sbsg32
(irule
FeatureMatrix
p1171
(dp1172
g35
(lp1173
sg22
V[  ]
p1174
sbsg22
Nsba(irule
Rule
p1175
(dp1176
g15
(irule
Guard
p1177
(dp1178
g18
I01
sg19
(lp1179
sg21
I00
sg22
Nsg23
I00
sg24
S'L'
sbsg25
(irule
EmptySpecification
p1180
(dp1181
bsg28
(irule
Guard
p1182
(dp1183
g18
I00
sg19
(lp1184
(irule
FeatureMatrix
p1185
(dp1186
g35
(lp1187
sg22
V[  ]
p1188
sbasg21
I00
sg22
Nsg23
I00
sg24
S'R'
sbsg32
(irule
FeatureMatrix
p1189
(dp1190
g35
(lp1191
(I00
g37
tp1192
a(I00
g91
tp1193
asg22
V[ -nasal -vowel ]
p1194
sbsg22
Nsba(irule
Rule
p1195
(dp1196
g15
(irule
Guard
p1197
(dp1198
g18
I01
sg19
(lp1199
sg21
I00
sg22
Nsg23
I00
sg24
S'L'
sbsg25
(irule
EmptySpecification
p1200
(dp1201
bsg28
(irule
Guard
p1202
(dp1203
g18
I00
sg19
(lp1204
(irule
FeatureMatrix
p1205
(dp1206
g35
(lp1207
(I00
g130
tp1208
asg22
V[ -rounded ]
p1209
sbasg21
I00
sg22
Nsg23
I00
sg24
S'R'
sbsg32
(irule
FeatureMatrix
p1210
(dp1211
g35
(lp1212
(I00
g37
tp1213
asg22
V[ -nasal ]
p1214
sbsg22
Nsba(irule
Rule
p1215
(dp1216
g15
(irule
Guard
p1217
(dp1218
g18
I01
sg19
(lp1219
sg21
I00
sg22
Nsg23
I00
sg24
S'L'
sbsg25
(irule
EmptySpecification
p1220
(dp1221
bsg28
(irule
Guard
p1222
(dp1223
g18
I00
sg19
(lp1224
(irule
FeatureMatrix
p1225
(dp1226
g35
(lp1227
(I00
g91
tp1228
asg22
V[ -vowel ]
p1229
sbasg21
I00
sg22
Nsg23
I00
sg24
S'R'
sbsg32
(irule
FeatureMatrix
p1230
(dp1231
g35
(lp1232
(I00
g257
tp1233
asg22
V[ -sibilant ]
p1234
sbsg22
Nsba(irule
Rule
p1235
(dp1236
g15
(irule
Guard
p1237
(dp1238
g18
I01
sg19
(lp1239
sg21
I00
sg22
Nsg23
I00
sg24
S'L'
sbsg25
(irule
EmptySpecification
p1240
(dp1241
bsg28
(irule
Guard
p1242
(dp1243
g18
I00
sg19
(lp1244
(irule
FeatureMatrix
p1245
(dp1246
g35
(lp1247
sg22
V[  ]
p1248
sbasg21
I00
sg22
Nsg23
I00
sg24
S'R'
sbsg32
(irule
FeatureMatrix
p1249
(dp1250
g35
(lp1251
(I00
g37
tp1252
a(I00
g147
tp1253
asg22
V[ -low -nasal ]
p1254
sbsg22
Nsba(irule
Rule
p1255
(dp1256
g15
(irule
Guard
p1257
(dp1258
g18
I01
sg19
(lp1259
sg21
I00
sg22
Nsg23
I00
sg24
S'L'
sbsg25
(irule
EmptySpecification
p1260
(dp1261
bsg28
(irule
Guard
p1262
(dp1263
g18
I00
sg19
(lp1264
(irule
FeatureMatrix
p1265
(dp1266
g35
(lp1267
(I00
g168
tp1268
asg22
V[ -tense ]
p1269
sbasg21
I00
sg22
Nsg23
I00
sg24
S'R'
sbsg32
(irule
FeatureMatrix
p1270
(dp1271
g35
(lp1272
(I00
g130
tp1273
asg22
V[ -rounded ]
p1274
sbsg22
Nsba(irule
Rule
p1275
(dp1276
g15
(irule
Guard
p1277
(dp1278
g18
I01
sg19
(lp1279
sg21
I00
sg22
Nsg23
I00
sg24
S'L'
sbsg25
(irule
EmptySpecification
p1280
(dp1281
bsg28
(irule
Guard
p1282
(dp1283
g18
I00
sg19
(lp1284
sg21
I00
sg22
Nsg23
I00
sg24
S'R'
sbsg32
(irule
FeatureMatrix
p1285
(dp1286
g35
(lp1287
(I00
g37
tp1288
a(I00
g168
tp1289
a(I00
g91
tp1290
asg22
V[ -nasal -tense -vowel ]
p1291
sbsg22
Nsba(irule
Rule
p1292
(dp1293
g15
(irule
Guard
p1294
(dp1295
g18
I01
sg19
(lp1296
sg21
I00
sg22
Nsg23
I00
sg24
S'L'
sbsg25
(irule
EmptySpecification
p1297
(dp1298
bsg28
(irule
Guard
p1299
(dp1300
g18
I00
sg19
(lp1301
(irule
FeatureMatrix
p1302
(dp1303
g35
(lp1304
(I00
g147
tp1305
asg22
V[ -low ]
p1306
sbasg21
I00
sg22
Nsg23
I00
sg24
S'R'
sbsg32
(irule
FeatureMatrix
p1307
(dp1308
g35
(lp1309
(I01
g224
tp1310
asg22
V[ +voice ]
p1311
sbsg22
Nsba(irule
Rule
p1312
(dp1313
g15
(irule
Guard
p1314
(dp1315
g18
I01
sg19
(lp1316
sg21
I00
sg22
Nsg23
I00
sg24
S'L'
sbsg25
(irule
EmptySpecification
p1317
(dp1318
bsg28
(irule
Guard
p1319
(dp1320
g18
I00
sg19
(lp1321
sg21
I00
sg22
Nsg23
I00
sg24
S'R'
sbsg32
(irule
FeatureMatrix
p1322
(dp1323
g35
(lp1324
(I00
g37
tp1325
a(I00
g168
tp1326
a(I01
g224
tp1327
asg22
V[ +voice -nasal -tense ]
p1328
sbsg22
Nsba(irule
Rule
p1329
(dp1330
g15
(irule
Guard
p1331
(dp1332
g18
I01
sg19
(lp1333
sg21
I00
sg22
Nsg23
I00
sg24
S'L'
sbsg25
(irule
EmptySpecification
p1334
(dp1335
bsg28
(irule
Guard
p1336
(dp1337
g18
I00
sg19
(lp1338
(irule
FeatureMatrix
p1339
(dp1340
g35
(lp1341
sg22
V[  ]
p1342
sba(irule
FeatureMatrix
p1343
(dp1344
g35
(lp1345
(I01
g168
tp1346
asg22
V[ +tense ]
p1347
sbasg21
I00
sg22
Nsg23
I00
sg24
S'R'
sbsg32
(irule
FeatureMatrix
p1348
(dp1349
g35
(lp1350
sg22
V[  ]
p1351
sbsg22
Nsba(irule
Rule
p1352
(dp1353
g15
(irule
Guard
p1354
(dp1355
g18
I01
sg19
(lp1356
sg21
I00
sg22
Nsg23
I00
sg24
S'L'
sbsg25
(irule
EmptySpecification
p1357
(dp1358
bsg28
(irule
Guard
p1359
(dp1360
g18
I00
sg19
(lp1361
sg21
I00
sg22
Nsg23
I00
sg24
S'R'
sbsg32
(irule
FeatureMatrix
p1362
(dp1363
g35
(lp1364
(I00
g37
tp1365
a(I00
g168
tp1366
a(I00
g257
tp1367
asg22
V[ -nasal -sibilant -tense ]
p1368
sbsg22
Nsba(irule
Rule
p1369
(dp1370
g15
(irule
Guard
p1371
(dp1372
g18
I01
sg19
(lp1373
sg21
I00
sg22
Nsg23
I00
sg24
S'L'
sbsg25
(irule
EmptySpecification
p1374
(dp1375
bsg28
(irule
Guard
p1376
(dp1377
g18
I00
sg19
(lp1378
(irule
FeatureMatrix
p1379
(dp1380
g35
(lp1381
sg22
V[  ]
p1382
sbasg21
I00
sg22
Nsg23
I00
sg24
S'R'
sbsg32
(irule
FeatureMatrix
p1383
(dp1384
g35
(lp1385
(I00
g37
tp1386
a(I00
g168
tp1387
asg22
V[ -nasal -tense ]
p1388
sbsg22
Nsba(irule
Rule
p1389
(dp1390
g15
(irule
Guard
p1391
(dp1392
g18
I01
sg19
(lp1393
sg21
I00
sg22
Nsg23
I00
sg24
S'L'
sbsg25
(irule
EmptySpecification
p1394
(dp1395
bsg28
(irule
Guard
p1396
(dp1397
g18
I00
sg19
(lp1398
(irule
FeatureMatrix
p1399
(dp1400
g35
(lp1401
(I00
g203
tp1402
a(I00
g168
tp1403
asg22
V[ -sonorant -tense ]
p1404
sbasg21
I00
sg22
Nsg23
I00
sg24
S'R'
sbsg32
(irule
FeatureMatrix
p1405
(dp1406
g35
(lp1407
sg22
V[  ]
p1408
sbsg22
Nsba(irule
Rule
p1409
(dp1410
g15
(irule
Guard
p1411
(dp1412
g18
I01
sg19
(lp1413
sg21
I00
sg22
Nsg23
I00
sg24
S'L'
sbsg25
(irule
EmptySpecification
p1414
(dp1415
bsg28
(irule
Guard
p1416
(dp1417
g18
I00
sg19
(lp1418
(irule
FeatureMatrix
p1419
(dp1420
g35
(lp1421
(I00
g478
tp1422
a(I00
g168
tp1423
asg22
V[ -liquid -tense ]
p1424
sbasg21
I00
sg22
Nsg23
I00
sg24
S'R'
sbsg32
(irule
FeatureMatrix
p1425
(dp1426
g35
(lp1427
sg22
V[  ]
p1428
sbsg22
Nsba(irule
Rule
p1429
(dp1430
g15
(irule
Guard
p1431
(dp1432
g18
I01
sg19
(lp1433
sg21
I00
sg22
Nsg23
I00
sg24
S'L'
sbsg25
(irule
EmptySpecification
p1434
(dp1435
bsg28
(irule
Guard
p1436
(dp1437
g18
I00
sg19
(lp1438
(irule
FeatureMatrix
p1439
(dp1440
g35
(lp1441
(I00
g168
tp1442
asg22
V[ -tense ]
p1443
sba(irule
FeatureMatrix
p1444
(dp1445
g35
(lp1446
sg22
V[  ]
p1447
sbasg21
I00
sg22
Nsg23
I00
sg24
S'R'
sbsg32
(irule
FeatureMatrix
p1448
(dp1449
g35
(lp1450
sg22
V[  ]
p1451
sbsg22
Nsba(irule
Rule
p1452
(dp1453
g15
(irule
Guard
p1454
(dp1455
g18
I01
sg19
(lp1456
sg21
I00
sg22
Nsg23
I00
sg24
S'L'
sbsg25
(irule
EmptySpecification
p1457
(dp1458
bsg28
(irule
Guard
p1459
(dp1460
g18
I00
sg19
(lp1461
(irule
FeatureMatrix
p1462
(dp1463
g35
(lp1464
(I00
g130
tp1465
a(I00
g91
tp1466
asg22
V[ -rounded -vowel ]
p1467
sbasg21
I00
sg22
Nsg23
I00
sg24
S'R'
sbsg32
(irule
FeatureMatrix
p1468
(dp1469
g35
(lp1470
sg22
V[  ]
p1471
sbsg22
Nsba(irule
Rule
p1472
(dp1473
g15
(irule
Guard
p1474
(dp1475
g18
I01
sg19
(lp1476
sg21
I00
sg22
Nsg23
I00
sg24
S'L'
sbsg25
(irule
EmptySpecification
p1477
(dp1478
bsg28
(irule
Guard
p1479
(dp1480
g18
I00
sg19
(lp1481
(irule
FeatureMatrix
p1482
(dp1483
g35
(lp1484
(I00
g37
tp1485
a(I00
g91
tp1486
asg22
V[ -nasal -vowel ]
p1487
sbasg21
I00
sg22
Nsg23
I00
sg24
S'R'
sbsg32
(irule
FeatureMatrix
p1488
(dp1489
g35
(lp1490
sg22
V[  ]
p1491
sbsg22
Nsba(irule
Rule
p1492
(dp1493
g15
(irule
Guard
p1494
(dp1495
g18
I01
sg19
(lp1496
sg21
I00
sg22
Nsg23
I00
sg24
S'L'
sbsg25
(irule
EmptySpecification
p1497
(dp1498
bsg28
(irule
Guard
p1499
(dp1500
g18
I00
sg19
(lp1501
(irule
FeatureMatrix
p1502
(dp1503
g35
(lp1504
(I00
g478
tp1505
a(I00
g91
tp1506
asg22
V[ -liquid -vowel ]
p1507
sbasg21
I00
sg22
Nsg23
I00
sg24
S'R'
sbsg32
(irule
FeatureMatrix
p1508
(dp1509
g35
(lp1510
sg22
V[  ]
p1511
sbsg22
Nsba(irule
Rule
p1512
(dp1513
g15
(irule
Guard
p1514
(dp1515
g18
I01
sg19
(lp1516
sg21
I00
sg22
Nsg23
I00
sg24
S'L'
sbsg25
(irule
EmptySpecification
p1517
(dp1518
bsg28
(irule
Guard
p1519
(dp1520
g18
I00
sg19
(lp1521
(irule
FeatureMatrix
p1522
(dp1523
g35
(lp1524
(I00
g91
tp1525
asg22
V[ -vowel ]
p1526
sbasg21
I00
sg22
Nsg23
I00
sg24
S'R'
sbsg32
(irule
FeatureMatrix
p1527
(dp1528
g35
(lp1529
(I01
g224
tp1530
asg22
V[ +voice ]
p1531
sbsg22
Nsba(irule
Rule
p1532
(dp1533
g15
(irule
Guard
p1534
(dp1535
g18
I01
sg19
(lp1536
sg21
I00
sg22
Nsg23
I00
sg24
S'L'
sbsg25
(irule
EmptySpecification
p1537
(dp1538
bsg28
(irule
Guard
p1539
(dp1540
g18
I00
sg19
(lp1541
(irule
FeatureMatrix
p1542
(dp1543
g35
(lp1544
(I00
g130
tp1545
a(I00
g168
tp1546
asg22
V[ -rounded -tense ]
p1547
sbasg21
I00
sg22
Nsg23
I00
sg24
S'R'
sbsg32
(irule
FeatureMatrix
p1548
(dp1549
g35
(lp1550
sg22
V[  ]
p1551
sbsg22
Nsba(irule
Rule
p1552
(dp1553
g15
(irule
Guard
p1554
(dp1555
g18
I01
sg19
(lp1556
sg21
I00
sg22
Nsg23
I00
sg24
S'L'
sbsg25
(irule
EmptySpecification
p1557
(dp1558
bsg28
(irule
Guard
p1559
(dp1560
g18
I00
sg19
(lp1561
(irule
FeatureMatrix
p1562
(dp1563
g35
(lp1564
sg22
V[  ]
p1565
sba(irule
FeatureMatrix
p1566
(dp1567
g35
(lp1568
(I01
g91
tp1569
asg22
V[ +vowel ]
p1570
sbasg21
I00
sg22
Nsg23
I00
sg24
S'R'
sbsg32
(irule
FeatureMatrix
p1571
(dp1572
g35
(lp1573
sg22
V[  ]
p1574
sbsg22
Nsba(irule
Rule
p1575
(dp1576
g15
(irule
Guard
p1577
(dp1578
g18
I01
sg19
(lp1579
sg21
I00
sg22
Nsg23
I00
sg24
S'L'
sbsg25
(irule
EmptySpecification
p1580
(dp1581
bsg28
(irule
Guard
p1582
(dp1583
g18
I00
sg19
(lp1584
(irule
FeatureMatrix
p1585
(dp1586
g35
(lp1587
sg22
V[  ]
p1588
sba(irule
FeatureMatrix
p1589
(dp1590
g35
(lp1591
(I01
g203
tp1592
asg22
V[ +sonorant ]
p1593
sbasg21
I00
sg22
Nsg23
I00
sg24
S'R'
sbsg32
(irule
FeatureMatrix
p1594
(dp1595
g35
(lp1596
sg22
V[  ]
p1597
sbsg22
Nsba(irule
Rule
p1598
(dp1599
g15
(irule
Guard
p1600
(dp1601
g18
I01
sg19
(lp1602
sg21
I00
sg22
Nsg23
I00
sg24
S'L'
sbsg25
(irule
EmptySpecification
p1603
(dp1604
bsg28
(irule
Guard
p1605
(dp1606
g18
I00
sg19
(lp1607
(irule
FeatureMatrix
p1608
(dp1609
g35
(lp1610
sg22
V[  ]
p1611
sba(irule
FeatureMatrix
p1612
(dp1613
g35
(lp1614
(I01
S'continuant'
p1615
tp1616
asg22
V[ +continuant ]
p1617
sbasg21
I00
sg22
Nsg23
I00
sg24
S'R'
sbsg32
(irule
FeatureMatrix
p1618
(dp1619
g35
(lp1620
sg22
V[  ]
p1621
sbsg22
Nsba(irule
Rule
p1622
(dp1623
g15
(irule
Guard
p1624
(dp1625
g18
I01
sg19
(lp1626
sg21
I00
sg22
Nsg23
I00
sg24
S'L'
sbsg25
(irule
EmptySpecification
p1627
(dp1628
bsg28
(irule
Guard
p1629
(dp1630
g18
I00
sg19
(lp1631
(irule
FeatureMatrix
p1632
(dp1633
g35
(lp1634
(I00
g147
tp1635
asg22
V[ -low ]
p1636
sbasg21
I00
sg22
Nsg23
I00
sg24
S'R'
sbsg32
(irule
FeatureMatrix
p1637
(dp1638
g35
(lp1639
(I00
g257
tp1640
asg22
V[ -sibilant ]
p1641
sbsg22
Nsba(irule
Rule
p1642
(dp1643
g15
(irule
Guard
p1644
(dp1645
g18
I01
sg19
(lp1646
sg21
I00
sg22
Nsg23
I00
sg24
S'L'
sbsg25
(irule
EmptySpecification
p1647
(dp1648
bsg28
(irule
Guard
p1649
(dp1650
g18
I00
sg19
(lp1651
(irule
FeatureMatrix
p1652
(dp1653
g35
(lp1654
(I00
g147
tp1655
asg22
V[ -low ]
p1656
sba(irule
FeatureMatrix
p1657
(dp1658
g35
(lp1659
sg22
V[  ]
p1660
sbasg21
I00
sg22
Nsg23
I00
sg24
S'R'
sbsg32
(irule
FeatureMatrix
p1661
(dp1662
g35
(lp1663
sg22
V[  ]
p1664
sbsg22
Nsba(irule
Rule
p1665
(dp1666
g15
(irule
Guard
p1667
(dp1668
g18
I01
sg19
(lp1669
sg21
I00
sg22
Nsg23
I00
sg24
S'L'
sbsg25
(irule
EmptySpecification
p1670
(dp1671
bsg28
(irule
Guard
p1672
(dp1673
g18
I00
sg19
(lp1674
(irule
FeatureMatrix
p1675
(dp1676
g35
(lp1677
(I00
g91
tp1678
asg22
V[ -vowel ]
p1679
sbasg21
I00
sg22
Nsg23
I00
sg24
S'R'
sbsg32
(irule
FeatureMatrix
p1680
(dp1681
g35
(lp1682
(I00
g168
tp1683
asg22
V[ -tense ]
p1684
sbsg22
Nsba(irule
Rule
p1685
(dp1686
g15
(irule
Guard
p1687
(dp1688
g18
I01
sg19
(lp1689
sg21
I00
sg22
Nsg23
I00
sg24
S'L'
sbsg25
(irule
EmptySpecification
p1690
(dp1691
bsg28
(irule
Guard
p1692
(dp1693
g18
I00
sg19
(lp1694
(irule
FeatureMatrix
p1695
(dp1696
g35
(lp1697
(I00
g147
tp1698
asg22
V[ -low ]
p1699
sbasg21
I00
sg22
Nsg23
I00
sg24
S'R'
sbsg32
(irule
FeatureMatrix
p1700
(dp1701
g35
(lp1702
(I00
g168
tp1703
asg22
V[ -tense ]
p1704
sbsg22
Nsba(irule
Rule
p1705
(dp1706
g15
(irule
Guard
p1707
(dp1708
g18
I01
sg19
(lp1709
sg21
I00
sg22
Nsg23
I00
sg24
S'L'
sbsg25
(irule
EmptySpecification
p1710
(dp1711
bsg28
(irule
Guard
p1712
(dp1713
g18
I00
sg19
(lp1714
(irule
FeatureMatrix
p1715
(dp1716
g35
(lp1717
(I00
g203
tp1718
asg22
V[ -sonorant ]
p1719
sbasg21
I00
sg22
Nsg23
I00
sg24
S'R'
sbsg32
(irule
FeatureMatrix
p1720
(dp1721
g35
(lp1722
(I00
g91
tp1723
asg22
V[ -vowel ]
p1724
sbsg22
Nsba(irule
Rule
p1725
(dp1726
g15
(irule
Guard
p1727
(dp1728
g18
I01
sg19
(lp1729
sg21
I00
sg22
Nsg23
I00
sg24
S'L'
sbsg25
(irule
EmptySpecification
p1730
(dp1731
bsg28
(irule
Guard
p1732
(dp1733
g18
I00
sg19
(lp1734
(irule
FeatureMatrix
p1735
(dp1736
g35
(lp1737
(I00
g203
tp1738
asg22
V[ -sonorant ]
p1739
sba(irule
FeatureMatrix
p1740
(dp1741
g35
(lp1742
sg22
V[  ]
p1743
sbasg21
I00
sg22
Nsg23
I00
sg24
S'R'
sbsg32
(irule
FeatureMatrix
p1744
(dp1745
g35
(lp1746
sg22
V[  ]
p1747
sbsg22
Nsba(irule
Rule
p1748
(dp1749
g15
(irule
Guard
p1750
(dp1751
g18
I01
sg19
(lp1752
sg21
I00
sg22
Nsg23
I00
sg24
S'L'
sbsg25
(irule
EmptySpecification
p1753
(dp1754
bsg28
(irule
Guard
p1755
(dp1756
g18
I00
sg19
(lp1757
(irule
FeatureMatrix
p1758
(dp1759
g35
(lp1760
(I00
g91
tp1761
asg22
V[ -vowel ]
p1762
sbasg21
I00
sg22
Nsg23
I00
sg24
S'R'
sbsg32
(irule
FeatureMatrix
p1763
(dp1764
g35
(lp1765
(I00
g91
tp1766
asg22
V[ -vowel ]
p1767
sbsg22
Nsba(irule
Rule
p1768
(dp1769
g15
(irule
Guard
p1770
(dp1771
g18
I01
sg19
(lp1772
sg21
I00
sg22
Nsg23
I00
sg24
S'L'
sbsg25
(irule
EmptySpecification
p1773
(dp1774
bsg28
(irule
Guard
p1775
(dp1776
g18
I00
sg19
(lp1777
(irule
FeatureMatrix
p1778
(dp1779
g35
(lp1780
(I00
g203
tp1781
asg22
V[ -sonorant ]
p1782
sbasg21
I00
sg22
Nsg23
I00
sg24
S'R'
sbsg32
(irule
FeatureMatrix
p1783
(dp1784
g35
(lp1785
(I01
g224
tp1786
asg22
V[ +voice ]
p1787
sbsg22
Nsba(irule
Rule
p1788
(dp1789
g15
(irule
Guard
p1790
(dp1791
g18
I01
sg19
(lp1792
sg21
I00
sg22
Nsg23
I00
sg24
S'L'
sbsg25
(irule
EmptySpecification
p1793
(dp1794
bsg28
(irule
Guard
p1795
(dp1796
g18
I00
sg19
(lp1797
(irule
FeatureMatrix
p1798
(dp1799
g35
(lp1800
(I00
g91
tp1801
asg22
V[ -vowel ]
p1802
sbasg21
I00
sg22
Nsg23
I00
sg24
S'R'
sbsg32
(irule
FeatureMatrix
p1803
(dp1804
g35
(lp1805
(I00
g147
tp1806
asg22
V[ -low ]
p1807
sbsg22
Nsba(irule
Rule
p1808
(dp1809
g15
(irule
Guard
p1810
(dp1811
g18
I01
sg19
(lp1812
sg21
I00
sg22
Nsg23
I00
sg24
S'L'
sbsg25
(irule
EmptySpecification
p1813
(dp1814
bsg28
(irule
Guard
p1815
(dp1816
g18
I00
sg19
(lp1817
(irule
FeatureMatrix
p1818
(dp1819
g35
(lp1820
(I00
g168
tp1821
asg22
V[ -tense ]
p1822
sbasg21
I00
sg22
Nsg23
I00
sg24
S'R'
sbsg32
(irule
FeatureMatrix
p1823
(dp1824
g35
(lp1825
(I00
g168
tp1826
asg22
V[ -tense ]
p1827
sbsg22
Nsba(irule
Rule
p1828
(dp1829
g15
(irule
Guard
p1830
(dp1831
g18
I01
sg19
(lp1832
sg21
I00
sg22
Nsg23
I00
sg24
S'L'
sbsg25
(irule
EmptySpecification
p1833
(dp1834
bsg28
(irule
Guard
p1835
(dp1836
g18
I00
sg19
(lp1837
(irule
FeatureMatrix
p1838
(dp1839
g35
(lp1840
(I00
g203
tp1841
asg22
V[ -sonorant ]
p1842
sbasg21
I00
sg22
Nsg23
I00
sg24
S'R'
sbsg32
(irule
FeatureMatrix
p1843
(dp1844
g35
(lp1845
(I00
g168
tp1846
asg22
V[ -tense ]
p1847
sbsg22
Nsba(irule
Rule
p1848
(dp1849
g15
(irule
Guard
p1850
(dp1851
g18
I01
sg19
(lp1852
sg21
I00
sg22
Nsg23
I00
sg24
S'L'
sbsg25
(irule
EmptySpecification
p1853
(dp1854
bsg28
(irule
Guard
p1855
(dp1856
g18
I00
sg19
(lp1857
(irule
FeatureMatrix
p1858
(dp1859
g35
(lp1860
(I00
g168
tp1861
asg22
V[ -tense ]
p1862
sbasg21
I00
sg22
Nsg23
I00
sg24
S'R'
sbsg32
(irule
FeatureMatrix
p1863
(dp1864
g35
(lp1865
(I00
g91
tp1866
asg22
V[ -vowel ]
p1867
sbsg22
Nsba(irule
Rule
p1868
(dp1869
g15
(irule
Guard
p1870
(dp1871
g18
I01
sg19
(lp1872
sg21
I00
sg22
Nsg23
I00
sg24
S'L'
sbsg25
(irule
EmptySpecification
p1873
(dp1874
bsg28
(irule
Guard
p1875
(dp1876
g18
I00
sg19
(lp1877
(irule
FeatureMatrix
p1878
(dp1879
g35
(lp1880
(I00
g147
tp1881
asg22
V[ -low ]
p1882
sbasg21
I00
sg22
Nsg23
I00
sg24
S'R'
sbsg32
(irule
FeatureMatrix
p1883
(dp1884
g35
(lp1885
(I00
g91
tp1886
asg22
V[ -vowel ]
p1887
sbsg22
Nsba(irule
Rule
p1888
(dp1889
g15
(irule
Guard
p1890
(dp1891
g18
I01
sg19
(lp1892
sg21
I00
sg22
Nsg23
I00
sg24
S'L'
sbsg25
(irule
EmptySpecification
p1893
(dp1894
bsg28
(irule
Guard
p1895
(dp1896
g18
I00
sg19
(lp1897
(irule
FeatureMatrix
p1898
(dp1899
g35
(lp1900
(I00
g147
tp1901
asg22
V[ -low ]
p1902
sbasg21
I00
sg22
Nsg23
I00
sg24
S'R'
sbsg32
(irule
FeatureMatrix
p1903
(dp1904
g35
(lp1905
(I00
g147
tp1906
asg22
V[ -low ]
p1907
sbsg22
Nsba(irule
Rule
p1908
(dp1909
g15
(irule
Guard
p1910
(dp1911
g18
I01
sg19
(lp1912
sg21
I00
sg22
Nsg23
I00
sg24
S'L'
sbsg25
(irule
EmptySpecification
p1913
(dp1914
bsg28
(irule
Guard
p1915
(dp1916
g18
I00
sg19
(lp1917
(irule
FeatureMatrix
p1918
(dp1919
g35
(lp1920
(I00
g203
tp1921
asg22
V[ -sonorant ]
p1922
sbasg21
I00
sg22
Nsg23
I00
sg24
S'R'
sbsg32
(irule
FeatureMatrix
p1923
(dp1924
g35
(lp1925
(I00
g147
tp1926
asg22
V[ -low ]
p1927
sbsg22
Nsba(irule
Rule
p1928
(dp1929
g15
(irule
Guard
p1930
(dp1931
g18
I01
sg19
(lp1932
sg21
I00
sg22
Nsg23
I00
sg24
S'L'
sbsg25
(irule
EmptySpecification
p1933
(dp1934
bsg28
(irule
Guard
p1935
(dp1936
g18
I00
sg19
(lp1937
(irule
FeatureMatrix
p1938
(dp1939
g35
(lp1940
(I00
g168
tp1941
asg22
V[ -tense ]
p1942
sbasg21
I00
sg22
Nsg23
I00
sg24
S'R'
sbsg32
(irule
FeatureMatrix
p1943
(dp1944
g35
(lp1945
(I00
g257
tp1946
asg22
V[ -sibilant ]
p1947
sbsg22
Nsba(irule
Rule
p1948
(dp1949
g15
(irule
Guard
p1950
(dp1951
g18
I01
sg19
(lp1952
sg21
I00
sg22
Nsg23
I00
sg24
S'L'
sbsg25
(irule
EmptySpecification
p1953
(dp1954
bsg28
(irule
Guard
p1955
(dp1956
g18
I00
sg19
(lp1957
(irule
FeatureMatrix
p1958
(dp1959
g35
(lp1960
(I00
g203
tp1961
asg22
V[ -sonorant ]
p1962
sbasg21
I00
sg22
Nsg23
I00
sg24
S'R'
sbsg32
(irule
FeatureMatrix
p1963
(dp1964
g35
(lp1965
(I00
g257
tp1966
asg22
V[ -sibilant ]
p1967
sbsg22
Nsba(irule
Rule
p1968
(dp1969
g15
(irule
Guard
p1970
(dp1971
g18
I01
sg19
(lp1972
sg21
I00
sg22
Nsg23
I00
sg24
S'L'
sbsg25
(irule
EmptySpecification
p1973
(dp1974
bsg28
(irule
Guard
p1975
(dp1976
g18
I00
sg19
(lp1977
(irule
FeatureMatrix
p1978
(dp1979
g35
(lp1980
(I00
g168
tp1981
asg22
V[ -tense ]
p1982
sbasg21
I00
sg22
Nsg23
I00
sg24
S'R'
sbsg32
(irule
FeatureMatrix
p1983
(dp1984
g35
(lp1985
(I00
g147
tp1986
asg22
V[ -low ]
p1987
sbsg22
Nsba(irule
Rule
p1988
(dp1989
g15
(irule
Guard
p1990
(dp1991
g18
I00
sg19
(lp1992
(irule
BoundarySpecification
p1993
(dp1994
basg21
I01
sg22
Nsg23
I00
sg24
S'L'
sbsg25
(irule
EmptySpecification
p1995
(dp1996
bsg28
(irule
Guard
p1997
(dp1998
g18
I00
sg19
(lp1999
sg21
I00
sg22
Nsg23
I00
sg24
S'R'
sbsg32
(irule
FeatureMatrix
p2000
(dp2001
g35
(lp2002
(I00
g37
tp2003
asg22
V[ -nasal ]
p2004
sbsg22
Nsba(irule
Rule
p2005
(dp2006
g15
(irule
Guard
p2007
(dp2008
g18
I01
sg19
(lp2009
sg21
I00
sg22
Nsg23
I00
sg24
S'L'
sbsg25
(irule
EmptySpecification
p2010
(dp2011
bsg28
(irule
Guard
p2012
(dp2013
g18
I00
sg19
(lp2014
(irule
FeatureMatrix
p2015
(dp2016
g35
(lp2017
sg22
V[  ]
p2018
sbasg21
I00
sg22
Nsg23
I00
sg24
S'R'
sbsg32
(irule
FeatureMatrix
p2019
(dp2020
g35
(lp2021
(I00
g130
tp2022
a(I00
g37
tp2023
a(I00
g91
tp2024
asg22
V[ -nasal -rounded -vowel ]
p2025
sbsg22
NsbaasbsS'parameters'
p2026
g6
(cargparse
Namespace
p2027
g8
NtRp2028
(dp2029
S'dummy'
p2030
I00
sS'task'
p2031
S'exact'
p2032
sS'features'
p2033
S'sophisticated'
p2034
sS'resume'
p2035
I00
sS'geometry'
p2036
I01
sS'top'
p2037
I100
sS'disableClean'
p2038
I00
sS'universal'
p2039
NsS'restrict'
p2040
NsS'window'
p2041
NsS'seed'
p2042
S'0'
sS'restore'
p2043
NsS'verbosity'
p2044
I0
sS'timeout'
p2045
F24
sS'debug'
p2046
NsS'cores'
p2047
I40
sg69
S'Odden_2.4_Tibetan'
p2048
sS'save'
p2049
NsS'serial'
p2050
I00
sS'alignment'
p2051
I00
sS'samples'
p2052
I30
sbsb.