(iresult
Result
p1
(dp2
S'startTime'
p3
F1565820283.6674211
sS'solutionSequence'
p4
(lp5
(ccopy_reg
_reconstructor
p6
(csolution
Solution
p7
c__builtin__
object
p8
NtRp9
(dp10
S'rules'
p11
(lp12
(irule
Rule
p13
(dp14
S'leftTriggers'
p15
(irule
Guard
p16
(dp17
S'endOfString'
p18
I00
sS'specifications'
p19
(lp20
sS'optionalEnding'
p21
I00
sS'representation'
p22
V
sS'starred'
p23
I00
sS'side'
p24
S'L'
sbsS'structuralChange'
p25
(irule
FeatureMatrix
p26
(dp27
S'featuresAndPolarities'
p28
(lp29
sg22
V[  ]
p30
sbsS'rightTriggers'
p31
(irule
Guard
p32
(dp33
g18
I00
sg19
(lp34
sg21
I00
sg22
V
sg23
I00
sg24
S'R'
sbsS'focus'
p35
(irule
FeatureMatrix
p36
(dp37
g28
(lp38
sg22
V[  ]
p39
sbsg22
V[  ] ---> [  ] /  _ 
p40
sbasS'prefixes'
p41
(lp42
(imorph
Morph
p43
(dp44
S'phonemes'
p45
(lp46
V\u0263
aVo
asbasS'underlyingForms'
p47
(dp48
((imorph
Morph
p49
(dp50
g45
(lp51
V\u0263
aVo
aVt
aV\u025b
aV\u014b
aV\u025b
aVr
aVa
asbtp52
(imorph
Morph
p53
(dp54
g45
(lp55
Vt
aV\u025b
aV\u014b
aV\u025b
aVr
asbs((imorph
Morph
p56
(dp57
g45
(lp58
V\u0263
aVo
aVk
aVu
aVu
aVa
asbtp59
(imorph
Morph
p60
(dp61
g45
(lp62
Vk
aVu
aVu
asbs((imorph
Morph
p63
(dp64
g45
(lp65
V\u0263
aVo
aVk
aVo
aVo
aVr
aVa
asbtp66
(imorph
Morph
p67
(dp68
g45
(lp69
Vk
aVo
aVo
aVr
asbssS'suffixes'
p70
(lp71
(imorph
Morph
p72
(dp73
g45
(lp74
Va
asbasbF18.83803391456604
tp75
a(g6
(g7
g8
NtRp76
(dp77
g11
(lp78
(irule
Rule
p79
(dp80
g15
(irule
Guard
p81
(dp82
g18
I00
sg19
(lp83
sg21
I00
sg22
V
sg23
I00
sg24
S'L'
sbsg25
(irule
ConstantPhoneme
p84
(dp85
S'p'
V\u0263
sbsg31
(irule
Guard
p86
(dp87
g18
I00
sg19
(lp88
(irule
FeatureMatrix
p89
(dp90
g28
(lp91
sg22
V[  ]
p92
sba(irule
FeatureMatrix
p93
(dp94
g28
(lp95
(I00
S'voice'
p96
tp97
asg22
V[ -voice ]
p98
sbasg21
I00
sg22
V[  ] [ -voice ]
p99
sg23
I00
sg24
S'R'
sbsg35
(irule
FeatureMatrix
p100
(dp101
g28
(lp102
sg22
V[  ]
p103
sbsg22
V[  ] ---> \u0263 /  _ [  ] [ -voice ]
p104
sbasg41
(lp105
(imorph
Morph
p106
(dp107
g45
(lp108
Vk
aVo
asbasg47
(dp109
((imorph
Morph
p110
(dp111
g45
(lp112
Vk
aVo
aVm
aV\u025b
aV\u0272
aVa
asbtp113
(imorph
Morph
p114
(dp115
g45
(lp116
Vm
aV\u025b
aV\u0272
asbs((imorph
Morph
p117
(dp118
g45
(lp119
Vk
aVo
aVr
aVu
aV\u0263
aVa
asbtp120
(imorph
Morph
p121
(dp122
g45
(lp123
Vr
aVu
aV\u0263
asbs(g49
tp124
(imorph
Morph
p125
(dp126
g45
(lp127
Vt
aV\u025b
aV\u014b
aV\u025b
aVr
asbs(g56
tp128
(imorph
Morph
p129
(dp130
g45
(lp131
Vk
aVu
aVu
asbs(g63
tp132
(imorph
Morph
p133
(dp134
g45
(lp135
Vk
aVo
aVo
aVr
asbs((imorph
Morph
p136
(dp137
g45
(lp138
Vk
aVo
aVo
aVr
aVi
aVa
asbtp139
(imorph
Morph
p140
(dp141
g45
(lp142
Vo
aVr
aVi
asbssg70
(lp143
(imorph
Morph
p144
(dp145
g45
(lp146
Va
asbasbF115.01227378845215
tp147
a(g6
(g7
g8
NtRp148
(dp149
g11
(lp150
(irule
Rule
p151
(dp152
g15
(irule
Guard
p153
(dp154
g18
I01
sg19
(lp155
sg21
I00
sg22
V#
sg23
I00
sg24
S'L'
sbsg25
(irule
ConstantPhoneme
p156
(dp157
S'p'
Vk
sbsg31
(irule
Guard
p158
(dp159
g18
I00
sg19
(lp160
(irule
FeatureMatrix
p161
(dp162
g28
(lp163
sg22
V[  ]
p164
sba(irule
FeatureMatrix
p165
(dp166
g28
(lp167
(I00
S'stop'
p168
tp169
a(I00
S'alveopalatal'
p170
tp171
asg22
V[ -alveopalatal -stop ]
p172
sbasg21
I00
sg22
V[  ] [ -alveopalatal -stop ]
p173
sg23
I00
sg24
S'R'
sbsg35
(irule
FeatureMatrix
p174
(dp175
g28
(lp176
sg22
V[  ]
p177
sbsg22
V[  ] ---> k / # _ [  ] [ -alveopalatal -stop ]
p178
sbasg41
(lp179
(imorph
Morph
p180
(dp181
g45
(lp182
V\u0263
aVo
asbasg47
(dp183
(g110
tp184
(imorph
Morph
p185
(dp186
g45
(lp187
Vm
aV\u025b
aV\u0272
asbs((imorph
Morph
(dp188
g45
(lp189
V\u0263
aVo
aVk
aVa
aVy
aVa
asbtp190
(imorph
Morph
p191
(dp192
g45
(lp193
Vk
aVa
aVy
asbs((imorph
Morph
p194
(dp195
g45
(lp196
V\u0263
aVo
aVc\u030c
p197
aVi
aVn
aVa
asbtp198
(imorph
Morph
p199
(dp200
g45
(lp201
Vc\u030c
p202
aVi
aVn
asbs(g117
tp203
(imorph
Morph
p204
(dp205
g45
(lp206
Vr
aVu
aV\u0263
asbs((imorph
Morph
p207
(dp208
g45
(lp209
Vk
aVo
aV\u0263
aVe
aVe
aVr
aVa
asbtp210
(imorph
Morph
p211
(dp212
g45
(lp213
V\u0263
aVe
aVe
aVr
asbs((imorph
Morph
p214
(dp215
g45
(lp216
Vk
aVo
aVh
aV\u0254
aVt
aVa
asbtp217
(imorph
Morph
p218
(dp219
g45
(lp220
Vh
aV\u0254
aVt
asbs(g49
tp221
(imorph
Morph
p222
(dp223
g45
(lp224
Vt
aV\u025b
aV\u014b
aV\u025b
aVr
asbs(g56
tp225
(imorph
Morph
p226
(dp227
g45
(lp228
Vk
aVu
aVu
asbs((imorph
Morph
(dp229
g45
(lp230
Vk
aVo
aVi
aVn
aVa
asbtp231
(imorph
Morph
p232
(dp233
g45
(lp234
Vi
aVn
asbs((imorph
Morph
(dp235
g45
(lp236
Vk
aVo
aV\u0263
aVa
aVy
aVa
asbtp237
(imorph
Morph
p238
(dp239
g45
(lp240
V\u0263
aVa
aVy
asbs((imorph
Morph
(dp241
g45
(lp242
V\u0263
aVo
aVc\u030c
p243
aVu
aVu
aVk
aVa
asbtp244
(imorph
Morph
p245
(dp246
g45
(lp247
g202
aVu
aVu
aVk
asbs(g63
tp248
(imorph
Morph
p249
(dp250
g45
(lp251
Vk
aVo
aVo
aVr
asbs(g136
tp252
(imorph
Morph
p253
(dp254
g45
(lp255
Vo
aVr
aVi
asbssg70
(lp256
(imorph
Morph
p257
(dp258
g45
(lp259
Va
asbasbF801.47630095481873
tp260
asS'problem'
p261
S'Odden_1.2_Kikuyu'
p262
sS'finalFrontier'
p263
g6
(csolution
Frontier
p264
g8
NtRp265
(dp266
g41
g179
sg70
g256
sg47
g183
sS'frontiers'
p267
(lp268
(lp269
g151
aasbsS'parameters'
p270
g6
(cargparse
Namespace
p271
g8
NtRp272
(dp273
S'restore'
p274
NsS'features'
p275
S'simple'
p276
sS'universal'
p277
NsS'restrict'
p278
NsS'seed'
p279
S'0'
sS'serial'
p280
I00
sS'alignment'
p281
I00
sS'top'
p282
I1
sS'maximumDepth'
p283
I3
sS'window'
p284
NsS'minimizeBits'
p285
I5
sS'samples'
p286
I30
sS'save'
p287
NsS'resume'
p288
I00
sS'disableClean'
p289
I00
sS'stemBaseline'
p290
I30
sS'dummy'
p291
I00
sS'task'
p292
S'CEGIS'
p293
sS'geometry'
p294
NsS'verbosity'
p295
I0
sS'timeout'
p296
F24
sS'debug'
p297
NsS'cores'
p298
I40
sg261
S'Odden_1.2_Kikuyu'
p299
sS'mergeFrontiers'
p300
I00
sbsb.