(iresult
Result
p1
(dp2
S'startTime'
p3
F1565820298.3247449
sS'solutionSequence'
p4
(lp5
(ccopy_reg
_reconstructor
p6
(csolution
Solution
p7
c__builtin__
object
p8
NtRp9
(dp10
S'rules'
p11
(lp12
(irule
Rule
p13
(dp14
S'leftTriggers'
p15
(irule
Guard
p16
(dp17
S'endOfString'
p18
I00
sS'specifications'
p19
(lp20
sS'optionalEnding'
p21
I00
sS'representation'
p22
V
sS'starred'
p23
I00
sS'side'
p24
S'L'
sbsS'structuralChange'
p25
(irule
FeatureMatrix
p26
(dp27
S'featuresAndPolarities'
p28
(lp29
(I01
S'voice'
p30
tp31
asg22
V[ +voice ]
p32
sbsS'rightTriggers'
p33
(irule
Guard
p34
(dp35
g18
I00
sg19
(lp36
(irule
ConstantPhoneme
p37
(dp38
S'p'
Vb
sbasg21
I00
sg22
Vb
sg23
I00
sg24
S'R'
sbsS'focus'
p39
(irule
FeatureMatrix
p40
(dp41
g28
(lp42
sg22
V[  ]
p43
sbsg22
V[  ] ---> [ +voice ] /  _ b
p44
sbasS'prefixes'
p45
(lp46
(imorph
Morph
p47
(dp48
S'phonemes'
p49
(lp50
sba(imorph
Morph
p51
(dp52
g49
(lp53
sba(imorph
Morph
p54
(dp55
g49
(lp56
sba(imorph
Morph
p57
(dp58
g49
(lp59
sbasS'underlyingForms'
p60
(dp61
((imorph
Morph
(dp62
g49
(lp63
Vs
aVa:
p64
aVy
asb(imorph
Morph
(dp65
g49
(lp66
Vs
aVa:
p67
aVy
aVb
aVa
aVn
asb(imorph
Morph
(dp68
g49
(lp69
Vs
aVa:
p70
aVy
aVt
aVo:
p71
aVl
asb(imorph
Morph
(dp72
g49
(lp73
Vs
aVa:
p74
aVy
aVn
aVa
aVk
asbtp75
(imorph
Morph
p76
(dp77
g49
(lp78
Vs
aVa:
p79
aVy
asbs((imorph
Morph
(dp80
g49
(lp81
Vl
aVa
aVk
aVa:
p82
aV\u0161
asb(imorph
Morph
(dp83
g49
(lp84
Vl
aVa
aVk
aVa:
p85
aVz\u030c
p86
aVb
aVa
aVn
asb(imorph
Morph
(dp87
g49
(lp88
Vl
aVa
aVk
aVa:
p89
aV\u0161
aVt
aVo:
p90
aVl
asb(imorph
Morph
(dp91
g49
(lp92
Vl
aVa
aVk
aVa:
p93
aV\u0161
aVn
aVa
aVk
asbtp94
(imorph
Morph
p95
(dp96
g49
(lp97
Vl
aVa
aVk
ag79
aV\u0161
asbs((imorph
Morph
(dp98
g49
(lp99
V\u0161
aVr
aVo:
p100
aVf
asb(imorph
Morph
(dp101
g49
(lp102
V\u0161
aVr
aVo:
p103
aVv
aVb
aVa
aVn
asb(imorph
Morph
(dp104
g49
(lp105
V\u0161
aVr
aVo:
p106
aVf
aVt
aVo:
p107
aVl
asb(imorph
Morph
(dp108
g49
(lp109
V\u0161
aVr
aVo:
p110
aVf
aVn
aVa
aVk
asbtp111
(imorph
Morph
p112
(dp113
g49
(lp114
V\u0161
aVr
aVo:
p115
aVf
asbs((imorph
Morph
(dp116
g49
(lp117
Vz\u030c
p118
aVa:
p119
aVk
asb(imorph
Morph
(dp120
g49
(lp121
Vz\u030c
p122
aVa:
p123
aVg
aVb
aVa
aVn
asb(imorph
Morph
(dp124
g49
(lp125
Vz\u030c
p126
aVa:
p127
aVk
aVt
aVo:
p128
aVl
asb(imorph
Morph
(dp129
g49
(lp130
Vz\u030c
p131
aVa:
p132
aVk
aVn
aVa
aVk
asbtp133
(imorph
Morph
p134
(dp135
g49
(lp136
Vz\u030c
p137
ag79
aVk
asbs((imorph
Morph
(dp138
g49
(lp139
Vf
aVa
aVl
asb(imorph
Morph
(dp140
g49
(lp141
Vf
aVa
aVl
aVb
aVa
aVn
asb(imorph
Morph
(dp142
g49
(lp143
Vf
aVa
aVl
aVt
aVo:
p144
aVl
asb(imorph
Morph
(dp145
g49
(lp146
Vf
aVa
aVl
aVn
aVa
aVk
asbtp147
(imorph
Morph
p148
(dp149
g49
(lp150
Vf
aVa
aVl
asbs((imorph
Morph
p151
(dp152
g49
(lp153
Vk
aVu:
p154
aVt
asb(imorph
Morph
p155
(dp156
g49
(lp157
Vk
aVu:
p158
aVd
aVb
aVa
aVn
asb(imorph
Morph
p159
(dp160
g49
(lp161
Vk
aVu:
p162
aVt
aVt
aVo:
p163
aVl
asb(imorph
Morph
p164
(dp165
g49
(lp166
Vk
aVu:
p167
aVt
aVn
aVa
aVk
asbtp168
(imorph
Morph
p169
(dp170
g49
(lp171
Vk
aVu:
p172
aVt
asbs((imorph
Morph
(dp173
g49
(lp174
Vt
aVo
aVr
aVo
aVn\u0303
p175
asb(imorph
Morph
(dp176
g49
(lp177
Vt
aVo
aVr
aVo
aVn\u0303
p178
aVb
aVa
aVn
asb(imorph
Morph
(dp179
g49
(lp180
Vt
aVo
aVr
aVo
aVn\u0303
p181
aVt
aVo:
p182
aVl
asb(imorph
Morph
(dp183
g49
(lp184
Vt
aVo
aVr
aVo
aVn\u0303
p185
aVn
aVa
aVk
asbtp186
(imorph
Morph
p187
(dp188
g49
(lp189
Vt
aVo
aVr
aVo
aVn\u0303
p190
asbs((imorph
Morph
p191
(dp192
g49
(lp193
Vk
aVa
aVl
aVa
aVp
asb(imorph
Morph
p194
(dp195
g49
(lp196
Vk
aVa
aVl
aVa
aVb
aVb
aVa
aVn
asb(imorph
Morph
p197
(dp198
g49
(lp199
Vk
aVa
aVl
aVa
aVp
aVt
aVo:
p200
aVl
asb(imorph
Morph
p201
(dp202
g49
(lp203
Vk
aVa
aVl
aVa
aVp
aVn
aVa
aVk
asbtp204
(imorph
Morph
p205
(dp206
g49
(lp207
Vk
aVa
aVl
aVa
aVp
asbssS'suffixes'
p208
(lp209
(imorph
Morph
p210
(dp211
g49
(lp212
sba(imorph
Morph
p213
(dp214
g49
(lp215
Vb
aVa
aVn
asba(imorph
Morph
p216
(dp217
g49
(lp218
Vt
ag115
aVl
asba(imorph
Morph
p219
(dp220
g49
(lp221
Vn
aVa
aVk
asbasbF146.92749905586243
tp222
asS'problem'
p223
S'Odden_2.1_Hungarian'
p224
sS'finalFrontier'
p225
g6
(csolution
Frontier
p226
g8
NtRp227
(dp228
g45
g46
sg208
g209
sg60
g61
sS'frontiers'
p229
(lp230
(lp231
g13
aasbsS'parameters'
p232
g6
(cargparse
Namespace
p233
g8
NtRp234
(dp235
S'restore'
p236
NsS'features'
p237
S'simple'
p238
sS'universal'
p239
NsS'restrict'
p240
NsS'seed'
p241
S'0'
sS'serial'
p242
I00
sS'alignment'
p243
I00
sS'top'
p244
I1
sS'maximumDepth'
p245
I3
sS'window'
p246
NsS'minimizeBits'
p247
I5
sS'samples'
p248
I30
sS'save'
p249
NsS'resume'
p250
I00
sS'disableClean'
p251
I00
sS'stemBaseline'
p252
I30
sS'dummy'
p253
I00
sS'task'
p254
S'CEGIS'
p255
sS'geometry'
p256
NsS'verbosity'
p257
I0
sS'timeout'
p258
F24
sS'debug'
p259
NsS'cores'
p260
I40
sg223
S'Odden_2.1_Hungarian'
p261
sS'mergeFrontiers'
p262
I00
sbsb.