(iresult
Result
p1
(dp2
S'startTime'
p3
F1591191704.002028
sS'solutionSequence'
p4
(lp5
(ccopy_reg
_reconstructor
p6
(csolution
Solution
p7
c__builtin__
object
p8
NtRp9
(dp10
S'rules'
p11
(lp12
(irule
Rule
p13
(dp14
S'leftTriggers'
p15
(irule
Guard
p16
(dp17
S'endOfString'
p18
I00
sS'specifications'
p19
(lp20
(irule
FeatureMatrix
p21
(dp22
S'featuresAndPolarities'
p23
(lp24
sS'representation'
p25
V[  ]
p26
sba(irule
ConstantPhoneme
p27
(dp28
S'p'
Vt
sbasS'optionalEnding'
p29
I00
sg25
Vt [  ]
p30
sS'starred'
p31
I00
sS'side'
p32
S'L'
sbsS'structuralChange'
p33
(irule
ConstantPhoneme
p34
(dp35
S'p'
Vi
sbsS'rightTriggers'
p36
(irule
Guard
p37
(dp38
g18
I00
sg19
(lp39
sg29
I00
sg25
V
sg31
I00
sg32
S'R'
sbsS'focus'
p40
(irule
ConstantPhoneme
p41
(dp42
S'p'
Vu
sbsg25
Vu ---> i / t [  ] _ 
p43
sba(irule
Rule
p44
(dp45
g15
(irule
Guard
p46
(dp47
g18
I00
sg19
(lp48
(irule
ConstantPhoneme
p49
(dp50
S'p'
Vx
sbasg29
I00
sg25
Vx
sg31
I00
sg32
S'L'
sbsg33
(irule
ConstantPhoneme
p51
(dp52
S'p'
Va
sbsg36
(irule
Guard
p53
(dp54
g18
I00
sg19
(lp55
sg29
I00
sg25
V
sg31
I00
sg32
S'R'
sbsg40
(irule
FeatureMatrix
p56
(dp57
g23
(lp58
sg25
V[  ]
p59
sbsg25
V[  ] ---> a / x _ 
p60
sbasS'prefixes'
p61
(lp62
(imorph
Morph
p63
(dp64
S'phonemes'
p65
(lp66
sba(imorph
Morph
p67
(dp68
g65
(lp69
sba(imorph
Morph
p70
(dp71
g65
(lp72
sba(imorph
Morph
p73
(dp74
g65
(lp75
sbasS'underlyingForms'
p76
(dp77
((imorph
Morph
p78
(dp79
g65
(lp80
Vd
aVu
aVb
aVh
aVu
aVn
asb(imorph
Morph
p81
(dp82
g65
(lp83
Vd
aVu
aVb
aVk
aVa
asb(imorph
Morph
p84
(dp85
g65
(lp86
Vd
aVu
aVb
aVa
aVl
asb(imorph
Morph
p87
(dp88
g65
(lp89
Vd
aVu
aVb
aVu
aVt
asbtp90
(imorph
Morph
p91
(dp92
g65
(lp93
Vd
aVu
aVb
asbs((imorph
Morph
p94
(dp95
g65
(lp96
Vx
aVa
aVt
aVh
aVi
aVn
asb(imorph
Morph
p97
(dp98
g65
(lp99
Vx
aVa
aVt
aVk
aVa
asb(imorph
Morph
p100
(dp101
g65
(lp102
Vx
aVa
aVt
aVa
aVl
asb(imorph
Morph
p103
(dp104
g65
(lp105
Vx
aVa
aVt
aVi
aVt
asbtp106
(imorph
Morph
p107
(dp108
g65
(lp109
Vx
aVt
aVt
asbssS'suffixes'
p110
(lp111
(imorph
Morph
p112
(dp113
g65
(lp114
Vh
aVu
aVn
asba(imorph
Morph
p115
(dp116
g65
(lp117
Vk
aVa
asba(imorph
Morph
p118
(dp119
g65
(lp120
Va
aVl
asba(imorph
Morph
p121
(dp122
g65
(lp123
Vu
aVt
asbasbF555.08158802986145
tp124
a(g6
(g7
g8
NtRp125
(dp126
g11
(lp127
(irule
Rule
p128
(dp129
g15
(irule
Guard
p130
(dp131
g18
I00
sg19
(lp132
(irule
FeatureMatrix
p133
(dp134
g23
(lp135
sg25
V[  ]
p136
sba(irule
ConstantPhoneme
p137
(dp138
S'p'
Vb
sbasg29
I00
sg25
Vb [  ]
p139
sg31
I00
sg32
S'L'
sbsg33
(irule
ConstantPhoneme
p140
(dp141
S'p'
Vu
sbsg36
(irule
Guard
p142
(dp143
g18
I00
sg19
(lp144
sg29
I00
sg25
V
sg31
I00
sg32
S'R'
sbsg40
(irule
ConstantPhoneme
p145
(dp146
S'p'
Vi
sbsg25
Vi ---> u / b [  ] _ 
p147
sba(irule
Rule
p148
(dp149
g15
(irule
Guard
p150
(dp151
g18
I00
sg19
(lp152
(irule
ConstantPhoneme
p153
(dp154
S'p'
Vd
sbasg29
I00
sg25
Vd
sg31
I00
sg32
S'L'
sbsg33
(irule
ConstantPhoneme
p155
(dp156
S'p'
Vu
sbsg36
(irule
Guard
p157
(dp158
g18
I00
sg19
(lp159
sg29
I00
sg25
V
sg31
I00
sg32
S'R'
sbsg40
(irule
FeatureMatrix
p160
(dp161
g23
(lp162
sg25
V[  ]
p163
sbsg25
V[  ] ---> u / d _ 
p164
sbasg61
(lp165
(imorph
Morph
p166
(dp167
g65
(lp168
sba(imorph
Morph
p169
(dp170
g65
(lp171
sba(imorph
Morph
p172
(dp173
g65
(lp174
sba(imorph
Morph
p175
(dp176
g65
(lp177
sbasg76
(dp178
(g78
g81
g84
g87
tp179
(imorph
Morph
p180
(dp181
g65
(lp182
Vd
aVb
aVb
asbs((imorph
Morph
p183
(dp184
g65
(lp185
Vx
aVi
aVl
aVh
aVi
aVn
asb(imorph
Morph
p186
(dp187
g65
(lp188
Vx
aVi
aVl
aVk
aVa
asb(imorph
Morph
p189
(dp190
g65
(lp191
Vx
aVi
aVl
aVa
aVl
asb(imorph
Morph
p192
(dp193
g65
(lp194
Vx
aVi
aVl
aVi
aVt
asbtp195
(imorph
Morph
p196
(dp197
g65
(lp198
Vx
aVi
aVl
asbs(g94
g97
g100
g103
tp199
(imorph
Morph
p200
(dp201
g65
(lp202
Vx
aVa
aVt
asbssg110
(lp203
(imorph
Morph
p204
(dp205
g65
(lp206
Vh
aVi
aVn
asba(imorph
Morph
p207
(dp208
g65
(lp209
Vk
aVa
asba(imorph
Morph
p210
(dp211
g65
(lp212
Va
aVl
asba(imorph
Morph
p213
(dp214
g65
(lp215
Vi
aVt
asbasbF1184.7771580219269
tp216
asS'problem'
p217
S'Odden_170_Yawelmani'
p218
sS'finalFrontier'
p219
g6
(csolution
Frontier
p220
g8
NtRp221
(dp222
g61
g165
sg110
g203
sg76
g178
sS'frontiers'
p223
(lp224
(lp225
g128
aa(lp226
g148
aasbsS'parameters'
p227
g6
(cargparse
Namespace
p228
g8
NtRp229
(dp230
S'restore'
p231
NsS'features'
p232
S'none'
p233
sS'universal'
p234
NsS'restrict'
p235
NsS'seed'
p236
NsS'serial'
p237
I00
sS'cv'
p238
I00
sS'alignment'
p239
I00
sS'top'
p240
I1
sS'maximumDepth'
p241
I3
sS'window'
p242
NsS'minimizeBits'
p243
I5
sS'samples'
p244
I30
sS'save'
p245
NsS'resume'
p246
I00
sS'disableClean'
p247
I01
sS'stemBaseline'
p248
I30
sS'dummy'
p249
I00
sS'task'
p250
S'CEGIS'
p251
sS'geometry'
p252
NsS'verbosity'
p253
I0
sS'noConstant'
p254
I00
sS'timeout'
p255
F24
sS'debug'
p256
NsS'cores'
p257
I40
sg217
S'Odden_170_Yawelmani'
p258
sS'mergeFrontiers'
p259
I00
sbsb.