(iresult
Result
p1
(dp2
S'startTime'
p3
F1549480176.7349579
sS'problem'
p4
S'Odden_105_Bukusu'
p5
sS'solutionSequence'
p6
(lp7
(ccopy_reg
_reconstructor
p8
(csolution
Solution
p9
c__builtin__
object
p10
NtRp11
(dp12
S'rules'
p13
(lp14
(irule
Rule
p15
(dp16
S'leftTriggers'
p17
(irule
Guard
p18
(dp19
S'endOfString'
p20
I00
sS'specifications'
p21
(lp22
sS'optionalEnding'
p23
I00
sS'representation'
p24
V
sS'starred'
p25
I00
sS'side'
p26
S'L'
sbsS'structuralChange'
p27
(irule
FeatureMatrix
p28
(dp29
S'featuresAndPolarities'
p30
(lp31
sg24
V[  ]
p32
sbsS'rightTriggers'
p33
(irule
Guard
p34
(dp35
g20
I00
sg21
(lp36
sg23
I00
sg24
V
sg25
I00
sg26
S'R'
sbsS'focus'
p37
(irule
FeatureMatrix
p38
(dp39
g30
(lp40
sg24
V[  ]
p41
sbsg24
V[  ] ---> [  ] /  _ 
p42
sbasS'prefixes'
p43
(lp44
(imorph
Morph
p45
(dp46
S'phonemes'
p47
(lp48
Vc\u030c
p49
asba(imorph
Morph
p50
(dp51
g47
(lp52
V\u03b2
aVa
ag49
asba(imorph
Morph
p53
(dp54
g47
(lp55
Vn\u0303
p56
aVj\u030c
p57
asbasS'underlyingForms'
p58
(dp59
((imorph
Morph
(dp60
g47
(lp61
Vc\u030c
p62
aVa
asb(imorph
Morph
(dp63
g47
(lp64
V\u03b2
aVa
aVc\u030c
p65
aVa
asb(imorph
Morph
(dp66
g47
(lp67
Vn\u0303
p68
aVj\u030c
p69
aVa
asbtp70
(imorph
Morph
p71
(dp72
g47
(lp73
sbs((imorph
Morph
(dp74
g47
(lp75
Vc\u030c
p76
aVu
aVc\u030c
p77
aVu
aVu
aV\u014b
aVg
aVa
asb(imorph
Morph
(dp78
g47
(lp79
V\u03b2
aVa
aVc\u030c
p80
aVu
aVc\u030c
p81
aVu
aVu
aV\u014b
aVg
aVa
asb(imorph
Morph
(dp82
g47
(lp83
Vn\u0303
p84
aVj\u030c
p85
aVu
aVc\u030c
p86
aVu
aVu
aV\u014b
aVg
aVa
asbtp87
(imorph
Morph
p88
(dp89
g47
(lp90
Vu
ag49
aVu
aVu
aV\u014b
aVg
asbs((imorph
Morph
(dp91
g47
(lp92
Vc\u030c
p93
aVe
aVx
aVa
asb(imorph
Morph
(dp94
g47
(lp95
V\u03b2
aVa
aVc\u030c
p96
aVe
aVx
aVa
asb(imorph
Morph
(dp97
g47
(lp98
Vn\u0303
p99
aVj\u030c
p100
aVe
aVx
aVa
asbtp101
(imorph
Morph
p102
(dp103
g47
(lp104
Ve
aVx
asbssS'suffixes'
p105
(lp106
(imorph
Morph
p107
(dp108
g47
(lp109
Va
asba(imorph
Morph
p110
(dp111
g47
(lp112
Va
asba(imorph
Morph
p113
(dp114
g47
(lp115
Va
asbasbF30.620591163635254
tp116
a(g8
(g9
g10
NtRp117
(dp118
g13
(lp119
(irule
Rule
p120
(dp121
g17
(irule
Guard
p122
(dp123
g20
I00
sg21
(lp124
(irule
FeatureMatrix
p125
(dp126
g30
(lp127
(I01
S'nasal'
p128
tp129
asg24
V[ +nasal ]
p130
sbasg23
I00
sg24
g130
sg25
I00
sg26
S'L'
sbsg27
(irule
FeatureMatrix
p131
(dp132
g30
(lp133
(I01
S'voice'
tp134
asg24
V[ +voice ]
p135
sbsg33
(irule
Guard
p136
(dp137
g20
I00
sg21
(lp138
sg23
I00
sg24
V
sg25
I00
sg26
S'R'
sbsg37
(irule
FeatureMatrix
p139
(dp140
g30
(lp141
sg24
V[  ]
p142
sbsg24
V[  ] ---> [ +voice ] / [ +nasal ] _ 
p143
sba(irule
Rule
p144
(dp145
g17
(irule
Guard
p146
(dp147
g20
I00
sg21
(lp148
sg23
I00
sg24
V
sg25
I00
sg26
S'L'
sbsg27
(irule
PlaceSpecification
p149
(dp150
S'offset'
p151
I1
sbsg33
(irule
Guard
p152
(dp153
g20
I00
sg21
(lp154
sg23
I00
sg24
V
sg25
I00
sg26
S'R'
sbsg37
(irule
FeatureMatrix
p155
(dp156
g30
(lp157
(I01
g128
tp158
asg24
V[ +nasal ]
p159
sbsg24
V[ +nasal ] ---> place1 /  _ 
p160
sbasg43
(lp161
(imorph
Morph
p162
(dp163
g47
(lp164
sba(imorph
Morph
p165
(dp166
g47
(lp167
V\u03b2
aVa
asba(imorph
Morph
p168
(dp169
g47
(lp170
Vn
asbasg58
(dp171
((imorph
Morph
(dp172
g47
(lp173
Vc\u030c
p174
aVa
asb(imorph
Morph
(dp175
g47
(lp176
V\u03b2
aVa
aVc\u030c
p177
aVa
asb(imorph
Morph
(dp178
g47
(lp179
Vn\u0303
p180
aVj\u030c
p181
aVa
asbtp182
(imorph
Morph
p183
(dp184
g47
(lp185
Vc\u030c
p186
asbs((imorph
Morph
(dp187
g47
(lp188
Vt
aVe
aVe
aVx
aVa
asb(imorph
Morph
(dp189
g47
(lp190
V\u03b2
aVa
aVt
aVe
aVe
aVx
aVa
asb(imorph
Morph
(dp191
g47
(lp192
Vn
aVd
aVe
aVe
aVx
aVa
asbtp193
(imorph
Morph
p194
(dp195
g47
(lp196
Vt
aVe
aVe
aVx
asbs((imorph
Morph
(dp197
g47
(lp198
Vt
aVi
aVi
aVr
aVa
asb(imorph
Morph
(dp199
g47
(lp200
V\u03b2
aVa
aVt
aVi
aVi
aVr
aVa
asb(imorph
Morph
(dp201
g47
(lp202
Vn
aVd
aVi
aVi
aVr
aVa
asbtp203
(imorph
Morph
p204
(dp205
g47
(lp206
Vt
aVi
aVi
aVr
asbs((imorph
Morph
(dp207
g47
(lp208
Vc\u030c
p209
aVu
aVc\u030c
p210
aVu
aVu
aV\u014b
aVg
aVa
asb(imorph
Morph
(dp211
g47
(lp212
V\u03b2
aVa
aVc\u030c
p213
aVu
aVc\u030c
p214
aVu
aVu
aV\u014b
aVg
aVa
asb(imorph
Morph
(dp215
g47
(lp216
Vn\u0303
p217
aVj\u030c
p218
aVu
aVc\u030c
p219
aVu
aVu
aV\u014b
aVg
aVa
asbtp220
(imorph
Morph
p221
(dp222
g47
(lp223
g186
aVu
ag186
aVu
aVu
aV\u014b
aVg
asbs((imorph
Morph
(dp224
g47
(lp225
Vc\u030c
p226
aVe
aVx
aVa
asb(imorph
Morph
(dp227
g47
(lp228
V\u03b2
aVa
aVc\u030c
p229
aVe
aVx
aVa
asb(imorph
Morph
(dp230
g47
(lp231
Vn\u0303
p232
aVj\u030c
p233
aVe
aVx
aVa
asbtp234
(imorph
Morph
p235
(dp236
g47
(lp237
g186
aVe
aVx
asbs((imorph
Morph
(dp238
g47
(lp239
Vt
aVa
aVl
aVa
aVa
aVn
aVd
aVa
asb(imorph
Morph
(dp240
g47
(lp241
V\u03b2
aVa
aVt
aVa
aVl
aVa
aVa
aVn
aVd
aVa
asb(imorph
Morph
(dp242
g47
(lp243
Vn
aVd
aVa
aVl
aVa
aVa
aVn
aVd
aVa
asbtp244
(imorph
Morph
p245
(dp246
g47
(lp247
Vt
aVa
aVl
aVa
aVa
aVn
aVd
asbssg105
(lp248
(imorph
Morph
p249
(dp250
g47
(lp251
Va
asba(imorph
Morph
p252
(dp253
g47
(lp254
Va
asba(imorph
Morph
p255
(dp256
g47
(lp257
Va
asbasbF1422.0416829586029
tp258
a(g8
(g9
g10
NtRp259
(dp260
g13
(lp261
(irule
Rule
p262
(dp263
g17
(irule
Guard
p264
(dp265
g20
I00
sg21
(lp266
(irule
FeatureMatrix
p267
(dp268
g30
(lp269
(I01
S'nasal'
tp270
asg24
V[ +nasal ]
p271
sbasg23
I00
sg24
g271
sg25
I00
sg26
S'L'
sbsg27
(irule
FeatureMatrix
p272
(dp273
g30
(lp274
(I01
S'voice'
tp275
asg24
V[ +voice ]
p276
sbsg33
(irule
Guard
p277
(dp278
g20
I00
sg21
(lp279
sg23
I00
sg24
V
sg25
I00
sg26
S'R'
sbsg37
(irule
FeatureMatrix
p280
(dp281
g30
(lp282
sg24
V[  ]
p283
sbsg24
V[  ] ---> [ +voice ] / [ +nasal ] _ 
p284
sba(irule
Rule
p285
(dp286
g17
(irule
Guard
p287
(dp288
g20
I00
sg21
(lp289
sg23
I00
sg24
V
sg25
I00
sg26
S'L'
sbsg27
(irule
PlaceSpecification
p290
(dp291
g151
I1
sbsg33
(irule
Guard
p292
(dp293
g20
I00
sg21
(lp294
sg23
I00
sg24
V
sg25
I00
sg26
S'R'
sbsg37
(irule
ConstantPhoneme
p295
(dp296
S'p'
Vn\u0303
p297
sbsg24
Vn\u0303 ---> place1 /  _ 
p298
sbasg43
(lp299
(imorph
Morph
p300
(dp301
g47
(lp302
sba(imorph
Morph
p303
(dp304
g47
(lp305
V\u03b2
aVa
asba(imorph
Morph
p306
(dp307
g47
(lp308
g297
asbasg58
(dp309
((imorph
Morph
(dp310
g47
(lp311
Vc\u030c
p312
aVa
asb(imorph
Morph
(dp313
g47
(lp314
V\u03b2
aVa
aVc\u030c
p315
aVa
asb(imorph
Morph
(dp316
g47
(lp317
Vn\u0303
p318
aVj\u030c
p319
aVa
asbtp320
(imorph
Morph
p321
(dp322
g47
(lp323
Vc\u030c
p324
asbs((imorph
Morph
(dp325
g47
(lp326
Vp
aVa
aVk
aVa
aVl
aVa
asb(imorph
Morph
(dp327
g47
(lp328
V\u03b2
aVa
aVp
aVa
aVk
aVa
aVl
aVa
asb(imorph
Morph
(dp329
g47
(lp330
Vm
aVb
aVa
aVk
aVa
aVl
aVa
asbtp331
(imorph
Morph
p332
(dp333
g47
(lp334
Vp
aVa
aVk
aVa
aVl
asbs((imorph
Morph
(dp335
g47
(lp336
Vt
aVe
aVe
aVx
aVa
asb(imorph
Morph
(dp337
g47
(lp338
V\u03b2
aVa
aVt
aVe
aVe
aVx
aVa
asb(imorph
Morph
(dp339
g47
(lp340
Vn
aVd
aVe
aVe
aVx
aVa
asbtp341
(imorph
Morph
p342
(dp343
g47
(lp344
Vt
aVe
aVe
aVx
asbs((imorph
Morph
(dp345
g47
(lp346
Vt
aVi
aVi
aVr
aVa
asb(imorph
Morph
(dp347
g47
(lp348
V\u03b2
aVa
aVt
aVi
aVi
aVr
aVa
asb(imorph
Morph
(dp349
g47
(lp350
Vn
aVd
aVi
aVi
aVr
aVa
asbtp351
(imorph
Morph
p352
(dp353
g47
(lp354
Vt
aVi
aVi
aVr
asbs((imorph
Morph
(dp355
g47
(lp356
Vc\u030c
p357
aVu
aVc\u030c
p358
aVu
aVu
aV\u014b
aVg
aVa
asb(imorph
Morph
(dp359
g47
(lp360
V\u03b2
aVa
aVc\u030c
p361
aVu
aVc\u030c
p362
aVu
aVu
aV\u014b
aVg
aVa
asb(imorph
Morph
(dp363
g47
(lp364
Vn\u0303
p365
aVj\u030c
p366
aVu
aVc\u030c
p367
aVu
aVu
aV\u014b
aVg
aVa
asbtp368
(imorph
Morph
p369
(dp370
g47
(lp371
g324
aVu
ag324
aVu
aVu
aV\u014b
aVg
asbs((imorph
Morph
(dp372
g47
(lp373
Vt
aVa
aVl
aVa
aVa
aVn
aVd
aVa
asb(imorph
Morph
(dp374
g47
(lp375
V\u03b2
aVa
aVt
aVa
aVl
aVa
aVa
aVn
aVd
aVa
asb(imorph
Morph
(dp376
g47
(lp377
Vn
aVd
aVa
aVl
aVa
aVa
aVn
aVd
aVa
asbtp378
(imorph
Morph
p379
(dp380
g47
(lp381
Vt
aVa
aVl
aVa
aVa
aVn
aVd
asbs((imorph
Morph
(dp382
g47
(lp383
Vc\u030c
p384
aVe
aVx
aVa
asb(imorph
Morph
(dp385
g47
(lp386
V\u03b2
aVa
aVc\u030c
p387
aVe
aVx
aVa
asb(imorph
Morph
(dp388
g47
(lp389
Vn\u0303
p390
aVj\u030c
p391
aVe
aVx
aVa
asbtp392
(imorph
Morph
p393
(dp394
g47
(lp395
g324
aVe
aVx
asbs((imorph
Morph
(dp396
g47
(lp397
Vk
aVe
aVt
aVu
aVl
aVu
aVl
aVa
asb(imorph
Morph
(dp398
g47
(lp399
V\u03b2
aVa
aVk
aVe
aVt
aVu
aVl
aVu
aVl
aVa
asb(imorph
Morph
(dp400
g47
(lp401
V\u014b
aVg
aVe
aVt
aVu
aVl
aVu
aVl
aVa
asbtp402
(imorph
Morph
p403
(dp404
g47
(lp405
Vk
aVe
aVt
aVu
aVl
aVu
aVl
asbs((imorph
Morph
(dp406
g47
(lp407
Vp
aVi
aVi
aVm
aVa
asb(imorph
Morph
(dp408
g47
(lp409
V\u03b2
aVa
aVp
aVi
aVi
aVm
aVa
asb(imorph
Morph
(dp410
g47
(lp411
Vm
aVb
aVi
aVi
aVm
aVa
asbtp412
(imorph
Morph
p413
(dp414
g47
(lp415
Vp
aVi
aVi
aVm
asbssg105
(lp416
(imorph
Morph
p417
(dp418
g47
(lp419
Va
asba(imorph
Morph
p420
(dp421
g47
(lp422
Va
asba(imorph
Morph
p423
(dp424
g47
(lp425
Va
asbasbF4235.9962069988251
tp426
asS'finalFrontier'
p427
g8
(csolution
Frontier
p428
g10
NtRp429
(dp430
g43
g299
sg105
g416
sg58
(dp431
((imorph
Morph
(dp432
g47
(lp433
Vc\u030c
p434
aVa
asb(imorph
Morph
(dp435
g47
(lp436
V\u03b2
aVa
aVc\u030c
p437
aVa
asb(imorph
Morph
(dp438
g47
(lp439
Vn\u0303
p440
aVj\u030c
p441
aVa
asbtp442
(imorph
Morph
p443
(dp444
g47
(lp445
Vc\u030c
p446
asbs((imorph
Morph
(dp447
g47
(lp448
Vp
aVa
aVk
aVa
aVl
aVa
asb(imorph
Morph
(dp449
g47
(lp450
V\u03b2
aVa
aVp
aVa
aVk
aVa
aVl
aVa
asb(imorph
Morph
(dp451
g47
(lp452
Vm
aVb
aVa
aVk
aVa
aVl
aVa
asbtp453
(imorph
Morph
p454
(dp455
g47
(lp456
Vp
aVa
aVk
aVa
aVl
asbs((imorph
Morph
(dp457
g47
(lp458
Vk
aVu
aVl
aVa
asb(imorph
Morph
(dp459
g47
(lp460
V\u03b2
aVa
aVk
aVu
aVl
aVa
asb(imorph
Morph
(dp461
g47
(lp462
V\u014b
aVg
aVu
aVl
aVa
asbtp463
(imorph
Morph
p464
(dp465
g47
(lp466
Vk
aVu
aVl
asbs((imorph
Morph
(dp467
g47
(lp468
Vt
aVe
aVe
aVx
aVa
asb(imorph
Morph
(dp469
g47
(lp470
V\u03b2
aVa
aVt
aVe
aVe
aVx
aVa
asb(imorph
Morph
(dp471
g47
(lp472
Vn
aVd
aVe
aVe
aVx
aVa
asbtp473
(imorph
Morph
p474
(dp475
g47
(lp476
Vt
aVe
aVe
aVx
asbs((imorph
Morph
(dp477
g47
(lp478
Vt
aVi
aVi
aVr
aVa
asb(imorph
Morph
(dp479
g47
(lp480
V\u03b2
aVa
aVt
aVi
aVi
aVr
aVa
asb(imorph
Morph
(dp481
g47
(lp482
Vn
aVd
aVi
aVi
aVr
aVa
asbtp483
(imorph
Morph
p484
(dp485
g47
(lp486
Vt
aVi
aVi
aVr
asbs((imorph
Morph
(dp487
g47
(lp488
Vc\u030c
p489
aVu
aVc\u030c
p490
aVu
aVu
aV\u014b
aVg
aVa
asb(imorph
Morph
(dp491
g47
(lp492
V\u03b2
aVa
aVc\u030c
p493
aVu
aVc\u030c
p494
aVu
aVu
aV\u014b
aVg
aVa
asb(imorph
Morph
(dp495
g47
(lp496
Vn\u0303
p497
aVj\u030c
p498
aVu
aVc\u030c
p499
aVu
aVu
aV\u014b
aVg
aVa
asbtp500
(imorph
Morph
p501
(dp502
g47
(lp503
g446
aVu
ag446
aVu
aVu
aV\u014b
aVg
asbs((imorph
Morph
(dp504
g47
(lp505
Vt
aVa
aVl
aVa
aVa
aVn
aVd
aVa
asb(imorph
Morph
(dp506
g47
(lp507
V\u03b2
aVa
aVt
aVa
aVl
aVa
aVa
aVn
aVd
aVa
asb(imorph
Morph
(dp508
g47
(lp509
Vn
aVd
aVa
aVl
aVa
aVa
aVn
aVd
aVa
asbtp510
(imorph
Morph
p511
(dp512
g47
(lp513
Vt
aVa
aVl
aVa
aVa
aVn
aVd
asbs((imorph
Morph
(dp514
g47
(lp515
Vc\u030c
p516
aVe
aVx
aVa
asb(imorph
Morph
(dp517
g47
(lp518
V\u03b2
aVa
aVc\u030c
p519
aVe
aVx
aVa
asb(imorph
Morph
(dp520
g47
(lp521
Vn\u0303
p522
aVj\u030c
p523
aVe
aVx
aVa
asbtp524
(imorph
Morph
p525
(dp526
g47
(lp527
g446
aVe
aVx
asbs((imorph
Morph
(dp528
g47
(lp529
Vk
aVo
aVn
aVa
asb(imorph
Morph
(dp530
g47
(lp531
V\u03b2
aVa
aVk
aVo
aVn
aVa
asb(imorph
Morph
(dp532
g47
(lp533
V\u014b
aVg
aVo
aVn
aVa
asbtp534
(imorph
Morph
p535
(dp536
g47
(lp537
Vk
aVo
aVn
asbs((imorph
Morph
(dp538
g47
(lp539
Vk
aVe
aVt
aVu
aVl
aVu
aVl
aVa
asb(imorph
Morph
(dp540
g47
(lp541
V\u03b2
aVa
aVk
aVe
aVt
aVu
aVl
aVu
aVl
aVa
asb(imorph
Morph
(dp542
g47
(lp543
V\u014b
aVg
aVe
aVt
aVu
aVl
aVu
aVl
aVa
asbtp544
(imorph
Morph
p545
(dp546
g47
(lp547
Vk
aVe
aVt
aVu
aVl
aVu
aVl
asbs((imorph
Morph
(dp548
g47
(lp549
Vp
aVi
aVi
aVm
aVa
asb(imorph
Morph
(dp550
g47
(lp551
V\u03b2
aVa
aVp
aVi
aVi
aVm
aVa
asb(imorph
Morph
(dp552
g47
(lp553
Vm
aVb
aVi
aVi
aVm
aVa
asbtp554
(imorph
Morph
p555
(dp556
g47
(lp557
Vp
aVi
aVi
aVm
asbs((imorph
Morph
(dp558
g47
(lp559
Vk
aVw
aVa
asb(imorph
Morph
(dp560
g47
(lp561
V\u03b2
aVa
aVk
aVw
aVa
asb(imorph
Morph
(dp562
g47
(lp563
V\u014b
aVg
aVw
aVa
asbtp564
(imorph
Morph
p565
(dp566
g47
(lp567
Vk
aVw
asbssS'frontiers'
p568
(lp569
(lp570
(irule
Rule
p571
(dp572
g17
(irule
Guard
p573
(dp574
g20
I00
sg21
(lp575
(irule
FeatureMatrix
p576
(dp577
g30
(lp578
(I01
S'nasal'
tp579
asg24
V[ +nasal ]
p580
sbasg23
I00
sg24
g580
sg25
I00
sg26
S'L'
sbsg27
(irule
FeatureMatrix
p581
(dp582
g30
(lp583
(I01
S'voice'
tp584
asg24
V[ +voice ]
p585
sbsg33
(irule
Guard
p586
(dp587
g20
I00
sg21
(lp588
sg23
I00
sg24
V
sg25
I00
sg26
S'R'
sbsg37
(irule
FeatureMatrix
p589
(dp590
g30
(lp591
sg24
V[  ]
p592
sbsg24
V[  ] ---> [ +voice ] / [ +nasal ] _ 
p593
sba(irule
Rule
p594
(dp595
g17
(irule
Guard
p596
(dp597
g20
I00
sg21
(lp598
(irule
FeatureMatrix
p599
(dp600
g30
(lp601
(I00
S'continuant'
p602
tp603
asg24
V[ -continuant ]
p604
sbasg23
I00
sg24
g604
sg25
I00
sg26
S'L'
sbsg27
(irule
FeatureMatrix
p605
(dp606
g30
(lp607
(I01
S'voice'
p608
tp609
asg24
V[ +voice ]
p610
sbsg33
(irule
Guard
p611
(dp612
g20
I00
sg21
(lp613
sg23
I00
sg24
V
sg25
I00
sg26
S'R'
sbsg37
(irule
FeatureMatrix
p614
(dp615
g30
(lp616
sg24
V[  ]
p617
sbsg24
V[  ] ---> [ +voice ] / [ -continuant ] _ 
p618
sba(irule
Rule
p619
(dp620
g17
(irule
Guard
p621
(dp622
g20
I00
sg21
(lp623
(irule
FeatureMatrix
p624
(dp625
g30
(lp626
(I00
S'tense'
p627
tp628
asg24
V[ -tense ]
p629
sbasg23
I00
sg24
g629
sg25
I00
sg26
S'L'
sbsg27
(irule
FeatureMatrix
p630
(dp631
g30
(lp632
(I01
g608
tp633
asg24
V[ +voice ]
p634
sbsg33
(irule
Guard
p635
(dp636
g20
I00
sg21
(lp637
sg23
I00
sg24
V
sg25
I00
sg26
S'R'
sbsg37
(irule
FeatureMatrix
p638
(dp639
g30
(lp640
sg24
V[  ]
p641
sbsg24
V[  ] ---> [ +voice ] / [ -tense ] _ 
p642
sba(irule
Rule
p643
(dp644
g17
(irule
Guard
p645
(dp646
g20
I00
sg21
(lp647
(irule
FeatureMatrix
p648
(dp649
g30
(lp650
(I00
S'vowel'
p651
tp652
asg24
V[ -vowel ]
p653
sbasg23
I00
sg24
g653
sg25
I00
sg26
S'L'
sbsg27
(irule
FeatureMatrix
p654
(dp655
g30
(lp656
(I01
g608
tp657
asg24
V[ +voice ]
p658
sbsg33
(irule
Guard
p659
(dp660
g20
I00
sg21
(lp661
sg23
I00
sg24
V
sg25
I00
sg26
S'R'
sbsg37
(irule
FeatureMatrix
p662
(dp663
g30
(lp664
sg24
V[  ]
p665
sbsg24
V[  ] ---> [ +voice ] / [ -vowel ] _ 
p666
sba(irule
Rule
p667
(dp668
g17
(irule
Guard
p669
(dp670
g20
I01
sg21
(lp671
(irule
FeatureMatrix
p672
(dp673
g30
(lp674
sg24
V[  ]
p675
sbasg23
I00
sg24
V# [  ]
p676
sg25
I00
sg26
S'L'
sbsg27
(irule
FeatureMatrix
p677
(dp678
g30
(lp679
(I01
g608
tp680
asg24
V[ +voice ]
p681
sbsg33
(irule
Guard
p682
(dp683
g20
I00
sg21
(lp684
sg23
I00
sg24
V
sg25
I00
sg26
S'R'
sbsg37
(irule
FeatureMatrix
p685
(dp686
g30
(lp687
sg24
V[  ]
p688
sbsg24
V[  ] ---> [ +voice ] / # [  ] _ 
p689
sba(irule
Rule
p690
(dp691
g17
(irule
Guard
p692
(dp693
g20
I00
sg21
(lp694
(irule
ConstantPhoneme
p695
(dp696
S'p'
Vn\u0303
p697
sbasg23
I00
sg24
g697
sg25
I00
sg26
S'L'
sbsg27
(irule
FeatureMatrix
p698
(dp699
g30
(lp700
(I01
g608
tp701
asg24
V[ +voice ]
p702
sbsg33
(irule
Guard
p703
(dp704
g20
I00
sg21
(lp705
sg23
I00
sg24
V
sg25
I00
sg26
S'R'
sbsg37
(irule
FeatureMatrix
p706
(dp707
g30
(lp708
sg24
V[  ]
p709
sbsg24
V[  ] ---> [ +voice ] / n\u0303 _ 
p710
sba(irule
Rule
p711
(dp712
g17
(irule
Guard
p713
(dp714
g20
I00
sg21
(lp715
(irule
FeatureMatrix
p716
(dp717
g30
(lp718
(I01
S'coronal'
p719
tp720
asg24
V[ +coronal ]
p721
sbasg23
I00
sg24
g721
sg25
I00
sg26
S'L'
sbsg27
(irule
FeatureMatrix
p722
(dp723
g30
(lp724
(I01
g608
tp725
asg24
V[ +voice ]
p726
sbsg33
(irule
Guard
p727
(dp728
g20
I00
sg21
(lp729
sg23
I00
sg24
V
sg25
I00
sg26
S'R'
sbsg37
(irule
FeatureMatrix
p730
(dp731
g30
(lp732
sg24
V[  ]
p733
sbsg24
V[  ] ---> [ +voice ] / [ +coronal ] _ 
p734
sba(irule
Rule
p735
(dp736
g17
(irule
Guard
p737
(dp738
g20
I00
sg21
(lp739
(irule
FeatureMatrix
p740
(dp741
g30
(lp742
(I01
S'nasal'
p743
tp744
asg24
V[ +nasal ]
p745
sbasg23
I00
sg24
g745
sg25
I00
sg26
S'L'
sbsg27
(irule
FeatureMatrix
p746
(dp747
g30
(lp748
(I01
g608
tp749
asg24
V[ +voice ]
p750
sbsg33
(irule
Guard
p751
(dp752
g20
I00
sg21
(lp753
sg23
I00
sg24
V
sg25
I00
sg26
S'R'
sbsg37
(irule
FeatureMatrix
p754
(dp755
g30
(lp756
(I00
g608
tp757
asg24
V[ -voice ]
p758
sbsg24
V[ -voice ] ---> [ +voice ] / [ +nasal ] _ 
p759
sba(irule
Rule
p760
(dp761
g17
(irule
Guard
p762
(dp763
g20
I00
sg21
(lp764
(irule
FeatureMatrix
p765
(dp766
g30
(lp767
(I00
g627
tp768
a(I01
g608
tp769
asg24
V[ +voice -tense ]
p770
sbasg23
I00
sg24
g770
sg25
I00
sg26
S'L'
sbsg27
(irule
FeatureMatrix
p771
(dp772
g30
(lp773
(I01
g608
tp774
asg24
V[ +voice ]
p775
sbsg33
(irule
Guard
p776
(dp777
g20
I00
sg21
(lp778
sg23
I00
sg24
V
sg25
I00
sg26
S'R'
sbsg37
(irule
FeatureMatrix
p779
(dp780
g30
(lp781
sg24
V[  ]
p782
sbsg24
V[  ] ---> [ +voice ] / [ +voice -tense ] _ 
p783
sba(irule
Rule
p784
(dp785
g17
(irule
Guard
p786
(dp787
g20
I01
sg21
(lp788
(irule
FeatureMatrix
p789
(dp790
g30
(lp791
sg24
V[  ]
p792
sbasg23
I00
sg24
V# [  ]
p793
sg25
I00
sg26
S'L'
sbsg27
(irule
FeatureMatrix
p794
(dp795
g30
(lp796
(I01
g608
tp797
asg24
V[ +voice ]
p798
sbsg33
(irule
Guard
p799
(dp800
g20
I00
sg21
(lp801
sg23
I00
sg24
V
sg25
I00
sg26
S'R'
sbsg37
(irule
FeatureMatrix
p802
(dp803
g30
(lp804
(I00
g608
tp805
asg24
V[ -voice ]
p806
sbsg24
V[ -voice ] ---> [ +voice ] / # [  ] _ 
p807
sba(irule
Rule
p808
(dp809
g17
(irule
Guard
p810
(dp811
g20
I00
sg21
(lp812
(irule
FeatureMatrix
p813
(dp814
g30
(lp815
(I01
g743
tp816
asg24
V[ +nasal ]
p817
sbasg23
I00
sg24
g817
sg25
I00
sg26
S'L'
sbsg27
(irule
FeatureMatrix
p818
(dp819
g30
(lp820
(I00
S'glide'
p821
tp822
a(I01
g608
tp823
asg24
V[ +voice -glide ]
p824
sbsg33
(irule
Guard
p825
(dp826
g20
I00
sg21
(lp827
sg23
I00
sg24
V
sg25
I00
sg26
S'R'
sbsg37
(irule
FeatureMatrix
p828
(dp829
g30
(lp830
sg24
V[  ]
p831
sbsg24
V[  ] ---> [ +voice -glide ] / [ +nasal ] _ 
p832
sba(irule
Rule
p833
(dp834
g17
(irule
Guard
p835
(dp836
g20
I01
sg21
(lp837
(irule
FeatureMatrix
p838
(dp839
g30
(lp840
(I00
S'rounded'
p841
tp842
asg24
V[ -rounded ]
p843
sbasg23
I00
sg24
V# [ -rounded ]
p844
sg25
I00
sg26
S'L'
sbsg27
(irule
FeatureMatrix
p845
(dp846
g30
(lp847
(I01
g608
tp848
asg24
V[ +voice ]
p849
sbsg33
(irule
Guard
p850
(dp851
g20
I00
sg21
(lp852
sg23
I00
sg24
V
sg25
I00
sg26
S'R'
sbsg37
(irule
FeatureMatrix
p853
(dp854
g30
(lp855
sg24
V[  ]
p856
sbsg24
V[  ] ---> [ +voice ] / # [ -rounded ] _ 
p857
sba(irule
Rule
p858
(dp859
g17
(irule
Guard
p860
(dp861
g20
I00
sg21
(lp862
(irule
FeatureMatrix
p863
(dp864
g30
(lp865
(I00
S'back'
p866
tp867
a(I01
g719
tp868
asg24
V[ +coronal -back ]
p869
sbasg23
I00
sg24
g869
sg25
I00
sg26
S'L'
sbsg27
(irule
FeatureMatrix
p870
(dp871
g30
(lp872
(I01
g608
tp873
asg24
V[ +voice ]
p874
sbsg33
(irule
Guard
p875
(dp876
g20
I00
sg21
(lp877
sg23
I00
sg24
V
sg25
I00
sg26
S'R'
sbsg37
(irule
FeatureMatrix
p878
(dp879
g30
(lp880
sg24
V[  ]
p881
sbsg24
V[  ] ---> [ +voice ] / [ +coronal -back ] _ 
p882
sba(irule
Rule
p883
(dp884
g17
(irule
Guard
p885
(dp886
g20
I00
sg21
(lp887
(irule
FeatureMatrix
p888
(dp889
g30
(lp890
(I01
g743
tp891
asg24
V[ +nasal ]
p892
sbasg23
I00
sg24
g892
sg25
I00
sg26
S'L'
sbsg27
(irule
FeatureMatrix
p893
(dp894
g30
(lp895
(I01
g608
tp896
asg24
V[ +voice ]
p897
sbsg33
(irule
Guard
p898
(dp899
g20
I00
sg21
(lp900
sg23
I00
sg24
V
sg25
I00
sg26
S'R'
sbsg37
(irule
FeatureMatrix
p901
(dp902
g30
(lp903
(I00
g602
tp904
asg24
V[ -continuant ]
p905
sbsg24
V[ -continuant ] ---> [ +voice ] / [ +nasal ] _ 
p906
sba(irule
Rule
p907
(dp908
g17
(irule
Guard
p909
(dp910
g20
I00
sg21
(lp911
(irule
FeatureMatrix
p912
(dp913
g30
(lp914
(I01
g743
tp915
asg24
V[ +nasal ]
p916
sbasg23
I00
sg24
g916
sg25
I00
sg26
S'L'
sbsg27
(irule
FeatureMatrix
p917
(dp918
g30
(lp919
(I00
g743
tp920
a(I01
g608
tp921
asg24
V[ +voice -nasal ]
p922
sbsg33
(irule
Guard
p923
(dp924
g20
I00
sg21
(lp925
sg23
I00
sg24
V
sg25
I00
sg26
S'R'
sbsg37
(irule
FeatureMatrix
p926
(dp927
g30
(lp928
sg24
V[  ]
p929
sbsg24
V[  ] ---> [ +voice -nasal ] / [ +nasal ] _ 
p930
sba(irule
Rule
p931
(dp932
g17
(irule
Guard
p933
(dp934
g20
I00
sg21
(lp935
(irule
FeatureMatrix
p936
(dp937
g30
(lp938
(I00
g602
tp939
asg24
V[ -continuant ]
p940
sbasg23
I00
sg24
g940
sg25
I00
sg26
S'L'
sbsg27
(irule
FeatureMatrix
p941
(dp942
g30
(lp943
(I01
g608
tp944
asg24
V[ +voice ]
p945
sbsg33
(irule
Guard
p946
(dp947
g20
I00
sg21
(lp948
sg23
I00
sg24
V
sg25
I00
sg26
S'R'
sbsg37
(irule
FeatureMatrix
p949
(dp950
g30
(lp951
(I00
g841
tp952
asg24
V[ -rounded ]
p953
sbsg24
V[ -rounded ] ---> [ +voice ] / [ -continuant ] _ 
p954
sba(irule
Rule
p955
(dp956
g17
(irule
Guard
p957
(dp958
g20
I01
sg21
(lp959
(irule
FeatureMatrix
p960
(dp961
g30
(lp962
(I00
S'anterior'
p963
tp964
asg24
V[ -anterior ]
p965
sbasg23
I00
sg24
V# [ -anterior ]
p966
sg25
I00
sg26
S'L'
sbsg27
(irule
FeatureMatrix
p967
(dp968
g30
(lp969
(I01
g608
tp970
asg24
V[ +voice ]
p971
sbsg33
(irule
Guard
p972
(dp973
g20
I00
sg21
(lp974
sg23
I00
sg24
V
sg25
I00
sg26
S'R'
sbsg37
(irule
FeatureMatrix
p975
(dp976
g30
(lp977
sg24
V[  ]
p978
sbsg24
V[  ] ---> [ +voice ] / # [ -anterior ] _ 
p979
sba(irule
Rule
p980
(dp981
g17
(irule
Guard
p982
(dp983
g20
I01
sg21
(lp984
(irule
FeatureMatrix
p985
(dp986
g30
(lp987
sg24
V[  ]
p988
sbasg23
I00
sg24
V# [  ]
p989
sg25
I00
sg26
S'L'
sbsg27
(irule
FeatureMatrix
p990
(dp991
g30
(lp992
(I01
g608
tp993
asg24
V[ +voice ]
p994
sbsg33
(irule
Guard
p995
(dp996
g20
I00
sg21
(lp997
(irule
FeatureMatrix
p998
(dp999
g30
(lp1000
sg24
V[  ]
p1001
sbasg23
I00
sg24
g1001
sg25
I00
sg26
S'R'
sbsg37
(irule
FeatureMatrix
p1002
(dp1003
g30
(lp1004
sg24
V[  ]
p1005
sbsg24
V[  ] ---> [ +voice ] / # [  ] _ [  ]
p1006
sba(irule
Rule
p1007
(dp1008
g17
(irule
Guard
p1009
(dp1010
g20
I00
sg21
(lp1011
(irule
FeatureMatrix
p1012
(dp1013
g30
(lp1014
(I01
g743
tp1015
asg24
V[ +nasal ]
p1016
sbasg23
I00
sg24
g1016
sg25
I00
sg26
S'L'
sbsg27
(irule
FeatureMatrix
p1017
(dp1018
g30
(lp1019
(I01
g608
tp1020
asg24
V[ +voice ]
p1021
sbsg33
(irule
Guard
p1022
(dp1023
g20
I00
sg21
(lp1024
sg23
I00
sg24
V
sg25
I00
sg26
S'R'
sbsg37
(irule
FeatureMatrix
p1025
(dp1026
g30
(lp1027
(I00
g627
tp1028
asg24
V[ -tense ]
p1029
sbsg24
V[ -tense ] ---> [ +voice ] / [ +nasal ] _ 
p1030
sba(irule
Rule
p1031
(dp1032
g17
(irule
Guard
p1033
(dp1034
g20
I00
sg21
(lp1035
(irule
FeatureMatrix
p1036
(dp1037
g30
(lp1038
(I00
g651
tp1039
asg24
V[ -vowel ]
p1040
sbasg23
I00
sg24
g1040
sg25
I00
sg26
S'L'
sbsg27
(irule
FeatureMatrix
p1041
(dp1042
g30
(lp1043
(I00
g743
tp1044
a(I01
g608
tp1045
asg24
V[ +voice -nasal ]
p1046
sbsg33
(irule
Guard
p1047
(dp1048
g20
I00
sg21
(lp1049
sg23
I00
sg24
V
sg25
I00
sg26
S'R'
sbsg37
(irule
FeatureMatrix
p1050
(dp1051
g30
(lp1052
sg24
V[  ]
p1053
sbsg24
V[  ] ---> [ +voice -nasal ] / [ -vowel ] _ 
p1054
sba(irule
Rule
p1055
(dp1056
g17
(irule
Guard
p1057
(dp1058
g20
I00
sg21
(lp1059
(irule
FeatureMatrix
p1060
(dp1061
g30
(lp1062
(I00
g963
tp1063
a(I00
g627
tp1064
asg24
V[ -anterior -tense ]
p1065
sbasg23
I00
sg24
g1065
sg25
I00
sg26
S'L'
sbsg27
(irule
FeatureMatrix
p1066
(dp1067
g30
(lp1068
(I01
g608
tp1069
asg24
V[ +voice ]
p1070
sbsg33
(irule
Guard
p1071
(dp1072
g20
I00
sg21
(lp1073
sg23
I00
sg24
V
sg25
I00
sg26
S'R'
sbsg37
(irule
FeatureMatrix
p1074
(dp1075
g30
(lp1076
sg24
V[  ]
p1077
sbsg24
V[  ] ---> [ +voice ] / [ -anterior -tense ] _ 
p1078
sba(irule
Rule
p1079
(dp1080
g17
(irule
Guard
p1081
(dp1082
g20
I00
sg21
(lp1083
(irule
FeatureMatrix
p1084
(dp1085
g30
(lp1086
(I00
g602
tp1087
asg24
V[ -continuant ]
p1088
sbasg23
I00
sg24
g1088
sg25
I00
sg26
S'L'
sbsg27
(irule
FeatureMatrix
p1089
(dp1090
g30
(lp1091
(I01
g608
tp1092
asg24
V[ +voice ]
p1093
sbsg33
(irule
Guard
p1094
(dp1095
g20
I00
sg21
(lp1096
sg23
I00
sg24
V
sg25
I00
sg26
S'R'
sbsg37
(irule
FeatureMatrix
p1097
(dp1098
g30
(lp1099
(I00
g627
tp1100
asg24
V[ -tense ]
p1101
sbsg24
V[ -tense ] ---> [ +voice ] / [ -continuant ] _ 
p1102
sba(irule
Rule
p1103
(dp1104
g17
(irule
Guard
p1105
(dp1106
g20
I00
sg21
(lp1107
(irule
FeatureMatrix
p1108
(dp1109
g30
(lp1110
(I00
S'low'
p1111
tp1112
a(I00
g651
tp1113
asg24
V[ -low -vowel ]
p1114
sbasg23
I00
sg24
g1114
sg25
I00
sg26
S'L'
sbsg27
(irule
FeatureMatrix
p1115
(dp1116
g30
(lp1117
(I01
g608
tp1118
asg24
V[ +voice ]
p1119
sbsg33
(irule
Guard
p1120
(dp1121
g20
I00
sg21
(lp1122
sg23
I00
sg24
V
sg25
I00
sg26
S'R'
sbsg37
(irule
FeatureMatrix
p1123
(dp1124
g30
(lp1125
sg24
V[  ]
p1126
sbsg24
V[  ] ---> [ +voice ] / [ -low -vowel ] _ 
p1127
sba(irule
Rule
p1128
(dp1129
g17
(irule
Guard
p1130
(dp1131
g20
I00
sg21
(lp1132
(irule
FeatureMatrix
p1133
(dp1134
g30
(lp1135
(I00
g866
tp1136
a(I00
g627
tp1137
asg24
V[ -back -tense ]
p1138
sbasg23
I00
sg24
g1138
sg25
I00
sg26
S'L'
sbsg27
(irule
FeatureMatrix
p1139
(dp1140
g30
(lp1141
(I01
g608
tp1142
asg24
V[ +voice ]
p1143
sbsg33
(irule
Guard
p1144
(dp1145
g20
I00
sg21
(lp1146
sg23
I00
sg24
V
sg25
I00
sg26
S'R'
sbsg37
(irule
FeatureMatrix
p1147
(dp1148
g30
(lp1149
sg24
V[  ]
p1150
sbsg24
V[  ] ---> [ +voice ] / [ -back -tense ] _ 
p1151
sba(irule
Rule
p1152
(dp1153
g17
(irule
Guard
p1154
(dp1155
g20
I00
sg21
(lp1156
(irule
FeatureMatrix
p1157
(dp1158
g30
(lp1159
(I00
g602
tp1160
asg24
V[ -continuant ]
p1161
sbasg23
I00
sg24
g1161
sg25
I00
sg26
S'L'
sbsg27
(irule
FeatureMatrix
p1162
(dp1163
g30
(lp1164
(I00
g743
tp1165
a(I01
g608
tp1166
asg24
V[ +voice -nasal ]
p1167
sbsg33
(irule
Guard
p1168
(dp1169
g20
I00
sg21
(lp1170
sg23
I00
sg24
V
sg25
I00
sg26
S'R'
sbsg37
(irule
FeatureMatrix
p1171
(dp1172
g30
(lp1173
sg24
V[  ]
p1174
sbsg24
V[  ] ---> [ +voice -nasal ] / [ -continuant ] _ 
p1175
sba(irule
Rule
p1176
(dp1177
g17
(irule
Guard
p1178
(dp1179
g20
I00
sg21
(lp1180
(irule
FeatureMatrix
p1181
(dp1182
g30
(lp1183
(I00
g651
tp1184
asg24
V[ -vowel ]
p1185
sbasg23
I00
sg24
g1185
sg25
I00
sg26
S'L'
sbsg27
(irule
FeatureMatrix
p1186
(dp1187
g30
(lp1188
(I01
g608
tp1189
asg24
V[ +voice ]
p1190
sbsg33
(irule
Guard
p1191
(dp1192
g20
I00
sg21
(lp1193
(irule
FeatureMatrix
p1194
(dp1195
g30
(lp1196
sg24
V[  ]
p1197
sbasg23
I00
sg24
g1197
sg25
I00
sg26
S'R'
sbsg37
(irule
FeatureMatrix
p1198
(dp1199
g30
(lp1200
sg24
V[  ]
p1201
sbsg24
V[  ] ---> [ +voice ] / [ -vowel ] _ [  ]
p1202
sba(irule
Rule
p1203
(dp1204
g17
(irule
Guard
p1205
(dp1206
g20
I00
sg21
(lp1207
(irule
FeatureMatrix
p1208
(dp1209
g30
(lp1210
(I01
g743
tp1211
asg24
V[ +nasal ]
p1212
sbasg23
I00
sg24
g1212
sg25
I00
sg26
S'L'
sbsg27
(irule
FeatureMatrix
p1213
(dp1214
g30
(lp1215
(I00
S'lateral'
p1216
tp1217
a(I01
g608
tp1218
asg24
V[ +voice -lateral ]
p1219
sbsg33
(irule
Guard
p1220
(dp1221
g20
I00
sg21
(lp1222
sg23
I00
sg24
V
sg25
I00
sg26
S'R'
sbsg37
(irule
FeatureMatrix
p1223
(dp1224
g30
(lp1225
sg24
V[  ]
p1226
sbsg24
V[  ] ---> [ +voice -lateral ] / [ +nasal ] _ 
p1227
sba(irule
Rule
p1228
(dp1229
g17
(irule
Guard
p1230
(dp1231
g20
I00
sg21
(lp1232
(irule
FeatureMatrix
p1233
(dp1234
g30
(lp1235
(I01
g743
tp1236
asg24
V[ +nasal ]
p1237
sbasg23
I00
sg24
g1237
sg25
I00
sg26
S'L'
sbsg27
(irule
FeatureMatrix
p1238
(dp1239
g30
(lp1240
(I01
g608
tp1241
asg24
V[ +voice ]
p1242
sbsg33
(irule
Guard
p1243
(dp1244
g20
I00
sg21
(lp1245
(irule
FeatureMatrix
p1246
(dp1247
g30
(lp1248
sg24
V[  ]
p1249
sbasg23
I00
sg24
g1249
sg25
I00
sg26
S'R'
sbsg37
(irule
FeatureMatrix
p1250
(dp1251
g30
(lp1252
sg24
V[  ]
p1253
sbsg24
V[  ] ---> [ +voice ] / [ +nasal ] _ [  ]
p1254
sba(irule
Rule
p1255
(dp1256
g17
(irule
Guard
p1257
(dp1258
g20
I01
sg21
(lp1259
(irule
FeatureMatrix
p1260
(dp1261
g30
(lp1262
sg24
V[  ]
p1263
sbasg23
I00
sg24
V# [  ]
p1264
sg25
I00
sg26
S'L'
sbsg27
(irule
FeatureMatrix
p1265
(dp1266
g30
(lp1267
(I00
g743
tp1268
a(I01
g608
tp1269
asg24
V[ +voice -nasal ]
p1270
sbsg33
(irule
Guard
p1271
(dp1272
g20
I00
sg21
(lp1273
sg23
I00
sg24
V
sg25
I00
sg26
S'R'
sbsg37
(irule
FeatureMatrix
p1274
(dp1275
g30
(lp1276
sg24
V[  ]
p1277
sbsg24
V[  ] ---> [ +voice -nasal ] / # [  ] _ 
p1278
sba(irule
Rule
p1279
(dp1280
g17
(irule
Guard
p1281
(dp1282
g20
I00
sg21
(lp1283
(irule
FeatureMatrix
p1284
(dp1285
g30
(lp1286
(I01
g743
tp1287
a(I00
g1111
tp1288
asg24
V[ +nasal -low ]
p1289
sbasg23
I00
sg24
g1289
sg25
I00
sg26
S'L'
sbsg27
(irule
FeatureMatrix
p1290
(dp1291
g30
(lp1292
(I01
g608
tp1293
asg24
V[ +voice ]
p1294
sbsg33
(irule
Guard
p1295
(dp1296
g20
I00
sg21
(lp1297
sg23
I00
sg24
V
sg25
I00
sg26
S'R'
sbsg37
(irule
FeatureMatrix
p1298
(dp1299
g30
(lp1300
sg24
V[  ]
p1301
sbsg24
V[  ] ---> [ +voice ] / [ +nasal -low ] _ 
p1302
sba(irule
Rule
p1303
(dp1304
g17
(irule
Guard
p1305
(dp1306
g20
I01
sg21
(lp1307
(irule
FeatureMatrix
p1308
(dp1309
g30
(lp1310
(I00
g821
tp1311
asg24
V[ -glide ]
p1312
sbasg23
I00
sg24
V# [ -glide ]
p1313
sg25
I00
sg26
S'L'
sbsg27
(irule
FeatureMatrix
p1314
(dp1315
g30
(lp1316
(I01
g608
tp1317
asg24
V[ +voice ]
p1318
sbsg33
(irule
Guard
p1319
(dp1320
g20
I00
sg21
(lp1321
sg23
I00
sg24
V
sg25
I00
sg26
S'R'
sbsg37
(irule
FeatureMatrix
p1322
(dp1323
g30
(lp1324
sg24
V[  ]
p1325
sbsg24
V[  ] ---> [ +voice ] / # [ -glide ] _ 
p1326
sba(irule
Rule
p1327
(dp1328
g17
(irule
Guard
p1329
(dp1330
g20
I00
sg21
(lp1331
(irule
FeatureMatrix
p1332
(dp1333
g30
(lp1334
(I00
g627
tp1335
asg24
V[ -tense ]
p1336
sbasg23
I00
sg24
g1336
sg25
I00
sg26
S'L'
sbsg27
(irule
FeatureMatrix
p1337
(dp1338
g30
(lp1339
(I00
g743
tp1340
a(I01
g608
tp1341
asg24
V[ +voice -nasal ]
p1342
sbsg33
(irule
Guard
p1343
(dp1344
g20
I00
sg21
(lp1345
sg23
I00
sg24
V
sg25
I00
sg26
S'R'
sbsg37
(irule
FeatureMatrix
p1346
(dp1347
g30
(lp1348
sg24
V[  ]
p1349
sbsg24
V[  ] ---> [ +voice -nasal ] / [ -tense ] _ 
p1350
sba(irule
Rule
p1351
(dp1352
g17
(irule
Guard
p1353
(dp1354
g20
I00
sg21
(lp1355
(irule
FeatureMatrix
p1356
(dp1357
g30
(lp1358
(I00
g651
tp1359
asg24
V[ -vowel ]
p1360
sbasg23
I00
sg24
g1360
sg25
I00
sg26
S'L'
sbsg27
(irule
FeatureMatrix
p1361
(dp1362
g30
(lp1363
(I01
g608
tp1364
asg24
V[ +voice ]
p1365
sbsg33
(irule
Guard
p1366
(dp1367
g20
I00
sg21
(lp1368
sg23
I00
sg24
V
sg25
I00
sg26
S'R'
sbsg37
(irule
FeatureMatrix
p1369
(dp1370
g30
(lp1371
(I00
g602
tp1372
asg24
V[ -continuant ]
p1373
sbsg24
V[ -continuant ] ---> [ +voice ] / [ -vowel ] _ 
p1374
sba(irule
Rule
p1375
(dp1376
g17
(irule
Guard
p1377
(dp1378
g20
I00
sg21
(lp1379
(irule
FeatureMatrix
p1380
(dp1381
g30
(lp1382
(I00
g1111
tp1383
a(I00
g627
tp1384
asg24
V[ -low -tense ]
p1385
sbasg23
I00
sg24
g1385
sg25
I00
sg26
S'L'
sbsg27
(irule
FeatureMatrix
p1386
(dp1387
g30
(lp1388
(I01
g608
tp1389
asg24
V[ +voice ]
p1390
sbsg33
(irule
Guard
p1391
(dp1392
g20
I00
sg21
(lp1393
sg23
I00
sg24
V
sg25
I00
sg26
S'R'
sbsg37
(irule
FeatureMatrix
p1394
(dp1395
g30
(lp1396
sg24
V[  ]
p1397
sbsg24
V[  ] ---> [ +voice ] / [ -low -tense ] _ 
p1398
sba(irule
Rule
p1399
(dp1400
g17
(irule
Guard
p1401
(dp1402
g20
I00
sg21
(lp1403
(irule
FeatureMatrix
p1404
(dp1405
g30
(lp1406
(I01
g743
tp1407
a(I01
g608
tp1408
asg24
V[ +nasal +voice ]
p1409
sbasg23
I00
sg24
g1409
sg25
I00
sg26
S'L'
sbsg27
(irule
FeatureMatrix
p1410
(dp1411
g30
(lp1412
(I01
g608
tp1413
asg24
V[ +voice ]
p1414
sbsg33
(irule
Guard
p1415
(dp1416
g20
I00
sg21
(lp1417
sg23
I00
sg24
V
sg25
I00
sg26
S'R'
sbsg37
(irule
FeatureMatrix
p1418
(dp1419
g30
(lp1420
sg24
V[  ]
p1421
sbsg24
V[  ] ---> [ +voice ] / [ +nasal +voice ] _ 
p1422
sba(irule
Rule
p1423
(dp1424
g17
(irule
Guard
p1425
(dp1426
g20
I00
sg21
(lp1427
(irule
FeatureMatrix
p1428
(dp1429
g30
(lp1430
(I00
g651
tp1431
a(I01
g608
tp1432
asg24
V[ +voice -vowel ]
p1433
sbasg23
I00
sg24
g1433
sg25
I00
sg26
S'L'
sbsg27
(irule
FeatureMatrix
p1434
(dp1435
g30
(lp1436
(I01
g608
tp1437
asg24
V[ +voice ]
p1438
sbsg33
(irule
Guard
p1439
(dp1440
g20
I00
sg21
(lp1441
sg23
I00
sg24
V
sg25
I00
sg26
S'R'
sbsg37
(irule
FeatureMatrix
p1442
(dp1443
g30
(lp1444
sg24
V[  ]
p1445
sbsg24
V[  ] ---> [ +voice ] / [ +voice -vowel ] _ 
p1446
sba(irule
Rule
p1447
(dp1448
g17
(irule
Guard
p1449
(dp1450
g20
I01
sg21
(lp1451
(irule
FeatureMatrix
p1452
(dp1453
g30
(lp1454
sg24
V[  ]
p1455
sbasg23
I00
sg24
V# [  ]
p1456
sg25
I00
sg26
S'L'
sbsg27
(irule
FeatureMatrix
p1457
(dp1458
g30
(lp1459
(I01
g608
tp1460
asg24
V[ +voice ]
p1461
sbsg33
(irule
Guard
p1462
(dp1463
g20
I00
sg21
(lp1464
sg23
I00
sg24
V
sg25
I00
sg26
S'R'
sbsg37
(irule
FeatureMatrix
p1465
(dp1466
g30
(lp1467
(I00
g627
tp1468
asg24
V[ -tense ]
p1469
sbsg24
V[ -tense ] ---> [ +voice ] / # [  ] _ 
p1470
sba(irule
Rule
p1471
(dp1472
g17
(irule
Guard
p1473
(dp1474
g20
I00
sg21
(lp1475
(irule
FeatureMatrix
p1476
(dp1477
g30
(lp1478
(I00
g627
tp1479
asg24
V[ -tense ]
p1480
sbasg23
I00
sg24
g1480
sg25
I00
sg26
S'L'
sbsg27
(irule
FeatureMatrix
p1481
(dp1482
g30
(lp1483
(I01
g608
tp1484
asg24
V[ +voice ]
p1485
sbsg33
(irule
Guard
p1486
(dp1487
g20
I00
sg21
(lp1488
(irule
FeatureMatrix
p1489
(dp1490
g30
(lp1491
sg24
V[  ]
p1492
sbasg23
I00
sg24
g1492
sg25
I00
sg26
S'R'
sbsg37
(irule
FeatureMatrix
p1493
(dp1494
g30
(lp1495
sg24
V[  ]
p1496
sbsg24
V[  ] ---> [ +voice ] / [ -tense ] _ [  ]
p1497
sba(irule
Rule
p1498
(dp1499
g17
(irule
Guard
p1500
(dp1501
g20
I00
sg21
(lp1502
(irule
FeatureMatrix
p1503
(dp1504
g30
(lp1505
(I00
g602
tp1506
asg24
V[ -continuant ]
p1507
sbasg23
I00
sg24
g1507
sg25
I00
sg26
S'L'
sbsg27
(irule
FeatureMatrix
p1508
(dp1509
g30
(lp1510
(I01
g608
tp1511
asg24
V[ +voice ]
p1512
sbsg33
(irule
Guard
p1513
(dp1514
g20
I00
sg21
(lp1515
sg23
I00
sg24
V
sg25
I00
sg26
S'R'
sbsg37
(irule
FeatureMatrix
p1516
(dp1517
g30
(lp1518
(I00
g602
tp1519
asg24
V[ -continuant ]
p1520
sbsg24
V[ -continuant ] ---> [ +voice ] / [ -continuant ] _ 
p1521
sba(irule
Rule
p1522
(dp1523
g17
(irule
Guard
p1524
(dp1525
g20
I00
sg21
(lp1526
(irule
FeatureMatrix
p1527
(dp1528
g30
(lp1529
(I00
g627
tp1530
asg24
V[ -tense ]
p1531
sbasg23
I00
sg24
g1531
sg25
I00
sg26
S'L'
sbsg27
(irule
FeatureMatrix
p1532
(dp1533
g30
(lp1534
(I01
g608
tp1535
asg24
V[ +voice ]
p1536
sbsg33
(irule
Guard
p1537
(dp1538
g20
I00
sg21
(lp1539
sg23
I00
sg24
V
sg25
I00
sg26
S'R'
sbsg37
(irule
FeatureMatrix
p1540
(dp1541
g30
(lp1542
(I00
g608
tp1543
asg24
V[ -voice ]
p1544
sbsg24
V[ -voice ] ---> [ +voice ] / [ -tense ] _ 
p1545
sba(irule
Rule
p1546
(dp1547
g17
(irule
Guard
p1548
(dp1549
g20
I00
sg21
(lp1550
(irule
FeatureMatrix
p1551
(dp1552
g30
(lp1553
(I00
g602
tp1554
asg24
V[ -continuant ]
p1555
sbasg23
I00
sg24
g1555
sg25
I00
sg26
S'L'
sbsg27
(irule
FeatureMatrix
p1556
(dp1557
g30
(lp1558
(I00
S'liquid'
p1559
tp1560
a(I01
g608
tp1561
asg24
V[ +voice -liquid ]
p1562
sbsg33
(irule
Guard
p1563
(dp1564
g20
I00
sg21
(lp1565
sg23
I00
sg24
V
sg25
I00
sg26
S'R'
sbsg37
(irule
FeatureMatrix
p1566
(dp1567
g30
(lp1568
sg24
V[  ]
p1569
sbsg24
V[  ] ---> [ +voice -liquid ] / [ -continuant ] _ 
p1570
sba(irule
Rule
p1571
(dp1572
g17
(irule
Guard
p1573
(dp1574
g20
I00
sg21
(lp1575
(irule
FeatureMatrix
p1576
(dp1577
g30
(lp1578
(I01
g743
tp1579
asg24
V[ +nasal ]
p1580
sbasg23
I00
sg24
g1580
sg25
I00
sg26
S'L'
sbsg27
(irule
FeatureMatrix
p1581
(dp1582
g30
(lp1583
(I00
g1559
tp1584
a(I01
g608
tp1585
asg24
V[ +voice -liquid ]
p1586
sbsg33
(irule
Guard
p1587
(dp1588
g20
I00
sg21
(lp1589
sg23
I00
sg24
V
sg25
I00
sg26
S'R'
sbsg37
(irule
FeatureMatrix
p1590
(dp1591
g30
(lp1592
sg24
V[  ]
p1593
sbsg24
V[  ] ---> [ +voice -liquid ] / [ +nasal ] _ 
p1594
sba(irule
Rule
p1595
(dp1596
g17
(irule
Guard
p1597
(dp1598
g20
I00
sg21
(lp1599
(irule
FeatureMatrix
p1600
(dp1601
g30
(lp1602
(I01
S'sonorant'
p1603
tp1604
a(I00
g651
tp1605
asg24
V[ +sonorant -vowel ]
p1606
sbasg23
I00
sg24
g1606
sg25
I00
sg26
S'L'
sbsg27
(irule
FeatureMatrix
p1607
(dp1608
g30
(lp1609
(I01
g608
tp1610
asg24
V[ +voice ]
p1611
sbsg33
(irule
Guard
p1612
(dp1613
g20
I00
sg21
(lp1614
sg23
I00
sg24
V
sg25
I00
sg26
S'R'
sbsg37
(irule
FeatureMatrix
p1615
(dp1616
g30
(lp1617
sg24
V[  ]
p1618
sbsg24
V[  ] ---> [ +voice ] / [ +sonorant -vowel ] _ 
p1619
sba(irule
Rule
p1620
(dp1621
g17
(irule
Guard
p1622
(dp1623
g20
I01
sg21
(lp1624
(irule
FeatureMatrix
p1625
(dp1626
g30
(lp1627
sg24
V[  ]
p1628
sbasg23
I00
sg24
V# [  ]
p1629
sg25
I00
sg26
S'L'
sbsg27
(irule
FeatureMatrix
p1630
(dp1631
g30
(lp1632
(I01
g608
tp1633
asg24
V[ +voice ]
p1634
sbsg33
(irule
Guard
p1635
(dp1636
g20
I00
sg21
(lp1637
sg23
I00
sg24
V
sg25
I00
sg26
S'R'
sbsg37
(irule
FeatureMatrix
p1638
(dp1639
g30
(lp1640
(I00
g602
tp1641
asg24
V[ -continuant ]
p1642
sbsg24
V[ -continuant ] ---> [ +voice ] / # [  ] _ 
p1643
sba(irule
Rule
p1644
(dp1645
g17
(irule
Guard
p1646
(dp1647
g20
I00
sg21
(lp1648
(irule
FeatureMatrix
p1649
(dp1650
g30
(lp1651
(I00
g651
tp1652
a(I00
g627
tp1653
asg24
V[ -tense -vowel ]
p1654
sbasg23
I00
sg24
g1654
sg25
I00
sg26
S'L'
sbsg27
(irule
FeatureMatrix
p1655
(dp1656
g30
(lp1657
(I01
g608
tp1658
asg24
V[ +voice ]
p1659
sbsg33
(irule
Guard
p1660
(dp1661
g20
I00
sg21
(lp1662
sg23
I00
sg24
V
sg25
I00
sg26
S'R'
sbsg37
(irule
FeatureMatrix
p1663
(dp1664
g30
(lp1665
sg24
V[  ]
p1666
sbsg24
V[  ] ---> [ +voice ] / [ -tense -vowel ] _ 
p1667
sba(irule
Rule
p1668
(dp1669
g17
(irule
Guard
p1670
(dp1671
g20
I00
sg21
(lp1672
(irule
FeatureMatrix
p1673
(dp1674
g30
(lp1675
(I00
g651
tp1676
asg24
V[ -vowel ]
p1677
sbasg23
I00
sg24
g1677
sg25
I00
sg26
S'L'
sbsg27
(irule
FeatureMatrix
p1678
(dp1679
g30
(lp1680
(I00
g1216
tp1681
a(I01
g608
tp1682
asg24
V[ +voice -lateral ]
p1683
sbsg33
(irule
Guard
p1684
(dp1685
g20
I00
sg21
(lp1686
sg23
I00
sg24
V
sg25
I00
sg26
S'R'
sbsg37
(irule
FeatureMatrix
p1687
(dp1688
g30
(lp1689
sg24
V[  ]
p1690
sbsg24
V[  ] ---> [ +voice -lateral ] / [ -vowel ] _ 
p1691
sba(irule
Rule
p1692
(dp1693
g17
(irule
Guard
p1694
(dp1695
g20
I00
sg21
(lp1696
(irule
FeatureMatrix
p1697
(dp1698
g30
(lp1699
(I00
g651
tp1700
asg24
V[ -vowel ]
p1701
sbasg23
I00
sg24
g1701
sg25
I00
sg26
S'L'
sbsg27
(irule
FeatureMatrix
p1702
(dp1703
g30
(lp1704
(I00
g1559
tp1705
a(I01
g608
tp1706
asg24
V[ +voice -liquid ]
p1707
sbsg33
(irule
Guard
p1708
(dp1709
g20
I00
sg21
(lp1710
sg23
I00
sg24
V
sg25
I00
sg26
S'R'
sbsg37
(irule
FeatureMatrix
p1711
(dp1712
g30
(lp1713
sg24
V[  ]
p1714
sbsg24
V[  ] ---> [ +voice -liquid ] / [ -vowel ] _ 
p1715
sba(irule
Rule
p1716
(dp1717
g17
(irule
Guard
p1718
(dp1719
g20
I00
sg21
(lp1720
(irule
FeatureMatrix
p1721
(dp1722
g30
(lp1723
(I00
g602
tp1724
a(I01
g608
tp1725
asg24
V[ +voice -continuant ]
p1726
sbasg23
I00
sg24
g1726
sg25
I00
sg26
S'L'
sbsg27
(irule
FeatureMatrix
p1727
(dp1728
g30
(lp1729
(I01
g608
tp1730
asg24
V[ +voice ]
p1731
sbsg33
(irule
Guard
p1732
(dp1733
g20
I00
sg21
(lp1734
sg23
I00
sg24
V
sg25
I00
sg26
S'R'
sbsg37
(irule
FeatureMatrix
p1735
(dp1736
g30
(lp1737
sg24
V[  ]
p1738
sbsg24
V[  ] ---> [ +voice ] / [ +voice -continuant ] _ 
p1739
sba(irule
Rule
p1740
(dp1741
g17
(irule
Guard
p1742
(dp1743
g20
I01
sg21
(lp1744
(irule
FeatureMatrix
p1745
(dp1746
g30
(lp1747
(I01
g608
tp1748
asg24
V[ +voice ]
p1749
sbasg23
I00
sg24
V# [ +voice ]
p1750
sg25
I00
sg26
S'L'
sbsg27
(irule
FeatureMatrix
p1751
(dp1752
g30
(lp1753
(I01
g608
tp1754
asg24
V[ +voice ]
p1755
sbsg33
(irule
Guard
p1756
(dp1757
g20
I00
sg21
(lp1758
sg23
I00
sg24
V
sg25
I00
sg26
S'R'
sbsg37
(irule
FeatureMatrix
p1759
(dp1760
g30
(lp1761
sg24
V[  ]
p1762
sbsg24
V[  ] ---> [ +voice ] / # [ +voice ] _ 
p1763
sba(irule
Rule
p1764
(dp1765
g17
(irule
Guard
p1766
(dp1767
g20
I00
sg21
(lp1768
(irule
FeatureMatrix
p1769
(dp1770
g30
(lp1771
(I01
g719
tp1772
asg24
V[ +coronal ]
p1773
sbasg23
I00
sg24
g1773
sg25
I00
sg26
S'L'
sbsg27
(irule
FeatureMatrix
p1774
(dp1775
g30
(lp1776
(I01
g608
tp1777
asg24
V[ +voice ]
p1778
sbsg33
(irule
Guard
p1779
(dp1780
g20
I00
sg21
(lp1781
(irule
FeatureMatrix
p1782
(dp1783
g30
(lp1784
sg24
V[  ]
p1785
sbasg23
I00
sg24
g1785
sg25
I00
sg26
S'R'
sbsg37
(irule
FeatureMatrix
p1786
(dp1787
g30
(lp1788
sg24
V[  ]
p1789
sbsg24
V[  ] ---> [ +voice ] / [ +coronal ] _ [  ]
p1790
sba(irule
Rule
p1791
(dp1792
g17
(irule
Guard
p1793
(dp1794
g20
I00
sg21
(lp1795
(irule
FeatureMatrix
p1796
(dp1797
g30
(lp1798
(I00
g602
tp1799
a(I00
g1111
tp1800
asg24
V[ -continuant -low ]
p1801
sbasg23
I00
sg24
g1801
sg25
I00
sg26
S'L'
sbsg27
(irule
FeatureMatrix
p1802
(dp1803
g30
(lp1804
(I01
g608
tp1805
asg24
V[ +voice ]
p1806
sbsg33
(irule
Guard
p1807
(dp1808
g20
I00
sg21
(lp1809
sg23
I00
sg24
V
sg25
I00
sg26
S'R'
sbsg37
(irule
FeatureMatrix
p1810
(dp1811
g30
(lp1812
sg24
V[  ]
p1813
sbsg24
V[  ] ---> [ +voice ] / [ -continuant -low ] _ 
p1814
sba(irule
Rule
p1815
(dp1816
g17
(irule
Guard
p1817
(dp1818
g20
I00
sg21
(lp1819
(irule
FeatureMatrix
p1820
(dp1821
g30
(lp1822
(I00
g602
tp1823
asg24
V[ -continuant ]
p1824
sbasg23
I00
sg24
g1824
sg25
I00
sg26
S'L'
sbsg27
(irule
FeatureMatrix
p1825
(dp1826
g30
(lp1827
(I01
g608
tp1828
asg24
V[ +voice ]
p1829
sbsg33
(irule
Guard
p1830
(dp1831
g20
I00
sg21
(lp1832
(irule
FeatureMatrix
p1833
(dp1834
g30
(lp1835
sg24
V[  ]
p1836
sbasg23
I00
sg24
g1836
sg25
I00
sg26
S'R'
sbsg37
(irule
FeatureMatrix
p1837
(dp1838
g30
(lp1839
sg24
V[  ]
p1840
sbsg24
V[  ] ---> [ +voice ] / [ -continuant ] _ [  ]
p1841
sba(irule
Rule
p1842
(dp1843
g17
(irule
Guard
p1844
(dp1845
g20
I00
sg21
(lp1846
(irule
FeatureMatrix
p1847
(dp1848
g30
(lp1849
(I00
g627
tp1850
asg24
V[ -tense ]
p1851
sbasg23
I00
sg24
g1851
sg25
I00
sg26
S'L'
sbsg27
(irule
FeatureMatrix
p1852
(dp1853
g30
(lp1854
(I01
g608
tp1855
asg24
V[ +voice ]
p1856
sbsg33
(irule
Guard
p1857
(dp1858
g20
I00
sg21
(lp1859
sg23
I00
sg24
V
sg25
I00
sg26
S'R'
sbsg37
(irule
FeatureMatrix
p1860
(dp1861
g30
(lp1862
(I00
g602
tp1863
asg24
V[ -continuant ]
p1864
sbsg24
V[ -continuant ] ---> [ +voice ] / [ -tense ] _ 
p1865
sba(irule
Rule
p1866
(dp1867
g17
(irule
Guard
p1868
(dp1869
g20
I00
sg21
(lp1870
(irule
FeatureMatrix
p1871
(dp1872
g30
(lp1873
(I00
g651
tp1874
asg24
V[ -vowel ]
p1875
sbasg23
I00
sg24
g1875
sg25
I00
sg26
S'L'
sbsg27
(irule
FeatureMatrix
p1876
(dp1877
g30
(lp1878
(I01
g608
tp1879
asg24
V[ +voice ]
p1880
sbsg33
(irule
Guard
p1881
(dp1882
g20
I00
sg21
(lp1883
sg23
I00
sg24
V
sg25
I00
sg26
S'R'
sbsg37
(irule
FeatureMatrix
p1884
(dp1885
g30
(lp1886
(I00
g608
tp1887
asg24
V[ -voice ]
p1888
sbsg24
V[ -voice ] ---> [ +voice ] / [ -vowel ] _ 
p1889
sba(irule
Rule
p1890
(dp1891
g17
(irule
Guard
p1892
(dp1893
g20
I01
sg21
(lp1894
(irule
FeatureMatrix
p1895
(dp1896
g30
(lp1897
sg24
V[  ]
p1898
sbasg23
I00
sg24
V# [  ]
p1899
sg25
I00
sg26
S'L'
sbsg27
(irule
FeatureMatrix
p1900
(dp1901
g30
(lp1902
(I00
g1559
tp1903
a(I01
g608
tp1904
asg24
V[ +voice -liquid ]
p1905
sbsg33
(irule
Guard
p1906
(dp1907
g20
I00
sg21
(lp1908
sg23
I00
sg24
V
sg25
I00
sg26
S'R'
sbsg37
(irule
FeatureMatrix
p1909
(dp1910
g30
(lp1911
sg24
V[  ]
p1912
sbsg24
V[  ] ---> [ +voice -liquid ] / # [  ] _ 
p1913
sba(irule
Rule
p1914
(dp1915
g17
(irule
Guard
p1916
(dp1917
g20
I01
sg21
(lp1918
(irule
FeatureMatrix
p1919
(dp1920
g30
(lp1921
sg24
V[  ]
p1922
sbasg23
I00
sg24
V# [  ]
p1923
sg25
I00
sg26
S'L'
sbsg27
(irule
FeatureMatrix
p1924
(dp1925
g30
(lp1926
(I01
g608
tp1927
asg24
V[ +voice ]
p1928
sbsg33
(irule
Guard
p1929
(dp1930
g20
I00
sg21
(lp1931
sg23
I00
sg24
V
sg25
I00
sg26
S'R'
sbsg37
(irule
FeatureMatrix
p1932
(dp1933
g30
(lp1934
(I00
g651
tp1935
asg24
V[ -vowel ]
p1936
sbsg24
V[ -vowel ] ---> [ +voice ] / # [  ] _ 
p1937
sba(irule
Rule
p1938
(dp1939
g17
(irule
Guard
p1940
(dp1941
g20
I00
sg21
(lp1942
(irule
FeatureMatrix
p1943
(dp1944
g30
(lp1945
(I01
g719
tp1946
asg24
V[ +coronal ]
p1947
sbasg23
I00
sg24
g1947
sg25
I00
sg26
S'L'
sbsg27
(irule
FeatureMatrix
p1948
(dp1949
g30
(lp1950
(I01
g608
tp1951
asg24
V[ +voice ]
p1952
sbsg33
(irule
Guard
p1953
(dp1954
g20
I00
sg21
(lp1955
sg23
I00
sg24
V
sg25
I00
sg26
S'R'
sbsg37
(irule
FeatureMatrix
p1956
(dp1957
g30
(lp1958
(I00
g627
tp1959
asg24
V[ -tense ]
p1960
sbsg24
V[ -tense ] ---> [ +voice ] / [ +coronal ] _ 
p1961
sba(irule
Rule
p1962
(dp1963
g17
(irule
Guard
p1964
(dp1965
g20
I00
sg21
(lp1966
(irule
FeatureMatrix
p1967
(dp1968
g30
(lp1969
(I00
g627
tp1970
asg24
V[ -tense ]
p1971
sbasg23
I00
sg24
g1971
sg25
I00
sg26
S'L'
sbsg27
(irule
FeatureMatrix
p1972
(dp1973
g30
(lp1974
(I00
g1559
tp1975
a(I01
g608
tp1976
asg24
V[ +voice -liquid ]
p1977
sbsg33
(irule
Guard
p1978
(dp1979
g20
I00
sg21
(lp1980
sg23
I00
sg24
V
sg25
I00
sg26
S'R'
sbsg37
(irule
FeatureMatrix
p1981
(dp1982
g30
(lp1983
sg24
V[  ]
p1984
sbsg24
V[  ] ---> [ +voice -liquid ] / [ -tense ] _ 
p1985
sba(irule
Rule
p1986
(dp1987
g17
(irule
Guard
p1988
(dp1989
g20
I01
sg21
(lp1990
(irule
FeatureMatrix
p1991
(dp1992
g30
(lp1993
(I01
g1603
tp1994
asg24
V[ +sonorant ]
p1995
sbasg23
I00
sg24
V# [ +sonorant ]
p1996
sg25
I00
sg26
S'L'
sbsg27
(irule
FeatureMatrix
p1997
(dp1998
g30
(lp1999
(I01
g608
tp2000
asg24
V[ +voice ]
p2001
sbsg33
(irule
Guard
p2002
(dp2003
g20
I00
sg21
(lp2004
sg23
I00
sg24
V
sg25
I00
sg26
S'R'
sbsg37
(irule
FeatureMatrix
p2005
(dp2006
g30
(lp2007
sg24
V[  ]
p2008
sbsg24
V[  ] ---> [ +voice ] / # [ +sonorant ] _ 
p2009
sba(irule
Rule
p2010
(dp2011
g17
(irule
Guard
p2012
(dp2013
g20
I00
sg21
(lp2014
(irule
FeatureMatrix
p2015
(dp2016
g30
(lp2017
(I00
S'sibilant'
p2018
tp2019
a(I00
g651
tp2020
asg24
V[ -sibilant -vowel ]
p2021
sbasg23
I00
sg24
g2021
sg25
I00
sg26
S'L'
sbsg27
(irule
FeatureMatrix
p2022
(dp2023
g30
(lp2024
(I01
g608
tp2025
asg24
V[ +voice ]
p2026
sbsg33
(irule
Guard
p2027
(dp2028
g20
I00
sg21
(lp2029
sg23
I00
sg24
V
sg25
I00
sg26
S'R'
sbsg37
(irule
FeatureMatrix
p2030
(dp2031
g30
(lp2032
sg24
V[  ]
p2033
sbsg24
V[  ] ---> [ +voice ] / [ -sibilant -vowel ] _ 
p2034
sba(irule
Rule
p2035
(dp2036
g17
(irule
Guard
p2037
(dp2038
g20
I00
sg21
(lp2039
(irule
FeatureMatrix
p2040
(dp2041
g30
(lp2042
(I01
g743
tp2043
a(I00
g627
tp2044
asg24
V[ +nasal -tense ]
p2045
sbasg23
I00
sg24
g2045
sg25
I00
sg26
S'L'
sbsg27
(irule
FeatureMatrix
p2046
(dp2047
g30
(lp2048
(I01
g608
tp2049
asg24
V[ +voice ]
p2050
sbsg33
(irule
Guard
p2051
(dp2052
g20
I00
sg21
(lp2053
sg23
I00
sg24
V
sg25
I00
sg26
S'R'
sbsg37
(irule
FeatureMatrix
p2054
(dp2055
g30
(lp2056
sg24
V[  ]
p2057
sbsg24
V[  ] ---> [ +voice ] / [ +nasal -tense ] _ 
p2058
sba(irule
Rule
p2059
(dp2060
g17
(irule
Guard
p2061
(dp2062
g20
I00
sg21
(lp2063
(irule
FeatureMatrix
p2064
(dp2065
g30
(lp2066
(I01
g743
tp2067
asg24
V[ +nasal ]
p2068
sbasg23
I00
sg24
g2068
sg25
I00
sg26
S'L'
sbsg27
(irule
FeatureMatrix
p2069
(dp2070
g30
(lp2071
(I01
g608
tp2072
asg24
V[ +voice ]
p2073
sbsg33
(irule
Guard
p2074
(dp2075
g20
I00
sg21
(lp2076
sg23
I00
sg24
V
sg25
I00
sg26
S'R'
sbsg37
(irule
FeatureMatrix
p2077
(dp2078
g30
(lp2079
(I00
g743
tp2080
asg24
V[ -nasal ]
p2081
sbsg24
V[ -nasal ] ---> [ +voice ] / [ +nasal ] _ 
p2082
sba(irule
Rule
p2083
(dp2084
g17
(irule
Guard
p2085
(dp2086
g20
I01
sg21
(lp2087
(irule
FeatureMatrix
p2088
(dp2089
g30
(lp2090
sg24
V[  ]
p2091
sbasg23
I00
sg24
V# [  ]
p2092
sg25
I00
sg26
S'L'
sbsg27
(irule
FeatureMatrix
p2093
(dp2094
g30
(lp2095
(I00
g1216
tp2096
a(I01
g608
tp2097
asg24
V[ +voice -lateral ]
p2098
sbsg33
(irule
Guard
p2099
(dp2100
g20
I00
sg21
(lp2101
sg23
I00
sg24
V
sg25
I00
sg26
S'R'
sbsg37
(irule
FeatureMatrix
p2102
(dp2103
g30
(lp2104
sg24
V[  ]
p2105
sbsg24
V[  ] ---> [ +voice -lateral ] / # [  ] _ 
p2106
sba(irule
Rule
p2107
(dp2108
g17
(irule
Guard
p2109
(dp2110
g20
I00
sg21
(lp2111
(irule
FeatureMatrix
p2112
(dp2113
g30
(lp2114
(I00
g651
tp2115
asg24
V[ -vowel ]
p2116
sbasg23
I00
sg24
g2116
sg25
I00
sg26
S'L'
sbsg27
(irule
FeatureMatrix
p2117
(dp2118
g30
(lp2119
(I01
g608
tp2120
asg24
V[ +voice ]
p2121
sbsg33
(irule
Guard
p2122
(dp2123
g20
I00
sg21
(lp2124
sg23
I00
sg24
V
sg25
I00
sg26
S'R'
sbsg37
(irule
FeatureMatrix
p2125
(dp2126
g30
(lp2127
(I00
g1111
tp2128
asg24
V[ -low ]
p2129
sbsg24
V[ -low ] ---> [ +voice ] / [ -vowel ] _ 
p2130
sba(irule
Rule
p2131
(dp2132
g17
(irule
Guard
p2133
(dp2134
g20
I01
sg21
(lp2135
(irule
FeatureMatrix
p2136
(dp2137
g30
(lp2138
(I00
g651
tp2139
asg24
V[ -vowel ]
p2140
sbasg23
I00
sg24
V# [ -vowel ]
p2141
sg25
I00
sg26
S'L'
sbsg27
(irule
FeatureMatrix
p2142
(dp2143
g30
(lp2144
(I01
g608
tp2145
asg24
V[ +voice ]
p2146
sbsg33
(irule
Guard
p2147
(dp2148
g20
I00
sg21
(lp2149
sg23
I00
sg24
V
sg25
I00
sg26
S'R'
sbsg37
(irule
FeatureMatrix
p2150
(dp2151
g30
(lp2152
sg24
V[  ]
p2153
sbsg24
V[  ] ---> [ +voice ] / # [ -vowel ] _ 
p2154
sba(irule
Rule
p2155
(dp2156
g17
(irule
Guard
p2157
(dp2158
g20
I00
sg21
(lp2159
(irule
FeatureMatrix
p2160
(dp2161
g30
(lp2162
(I00
g627
tp2163
asg24
V[ -tense ]
p2164
sbasg23
I00
sg24
g2164
sg25
I00
sg26
S'L'
sbsg27
(irule
FeatureMatrix
p2165
(dp2166
g30
(lp2167
(I01
g608
tp2168
asg24
V[ +voice ]
p2169
sbsg33
(irule
Guard
p2170
(dp2171
g20
I00
sg21
(lp2172
sg23
I00
sg24
V
sg25
I00
sg26
S'R'
sbsg37
(irule
FeatureMatrix
p2173
(dp2174
g30
(lp2175
(I00
g627
tp2176
asg24
V[ -tense ]
p2177
sbsg24
V[ -tense ] ---> [ +voice ] / [ -tense ] _ 
p2178
sba(irule
Rule
p2179
(dp2180
g17
(irule
Guard
p2181
(dp2182
g20
I00
sg21
(lp2183
(irule
FeatureMatrix
p2184
(dp2185
g30
(lp2186
(I00
g602
tp2187
asg24
V[ -continuant ]
p2188
sbasg23
I00
sg24
g2188
sg25
I00
sg26
S'L'
sbsg27
(irule
FeatureMatrix
p2189
(dp2190
g30
(lp2191
(I00
g1216
tp2192
a(I01
g608
tp2193
asg24
V[ +voice -lateral ]
p2194
sbsg33
(irule
Guard
p2195
(dp2196
g20
I00
sg21
(lp2197
sg23
I00
sg24
V
sg25
I00
sg26
S'R'
sbsg37
(irule
FeatureMatrix
p2198
(dp2199
g30
(lp2200
sg24
V[  ]
p2201
sbsg24
V[  ] ---> [ +voice -lateral ] / [ -continuant ] _ 
p2202
sba(irule
Rule
p2203
(dp2204
g17
(irule
Guard
p2205
(dp2206
g20
I00
sg21
(lp2207
(irule
FeatureMatrix
p2208
(dp2209
g30
(lp2210
(I01
g719
tp2211
asg24
V[ +coronal ]
p2212
sbasg23
I00
sg24
g2212
sg25
I00
sg26
S'L'
sbsg27
(irule
FeatureMatrix
p2213
(dp2214
g30
(lp2215
(I00
g743
tp2216
a(I01
g608
tp2217
asg24
V[ +voice -nasal ]
p2218
sbsg33
(irule
Guard
p2219
(dp2220
g20
I00
sg21
(lp2221
sg23
I00
sg24
V
sg25
I00
sg26
S'R'
sbsg37
(irule
FeatureMatrix
p2222
(dp2223
g30
(lp2224
sg24
V[  ]
p2225
sbsg24
V[  ] ---> [ +voice -nasal ] / [ +coronal ] _ 
p2226
sba(irule
Rule
p2227
(dp2228
g17
(irule
Guard
p2229
(dp2230
g20
I00
sg21
(lp2231
(irule
FeatureMatrix
p2232
(dp2233
g30
(lp2234
(I01
g719
tp2235
asg24
V[ +coronal ]
p2236
sbasg23
I00
sg24
g2236
sg25
I00
sg26
S'L'
sbsg27
(irule
FeatureMatrix
p2237
(dp2238
g30
(lp2239
(I00
g821
tp2240
a(I01
g608
tp2241
asg24
V[ +voice -glide ]
p2242
sbsg33
(irule
Guard
p2243
(dp2244
g20
I00
sg21
(lp2245
sg23
I00
sg24
V
sg25
I00
sg26
S'R'
sbsg37
(irule
FeatureMatrix
p2246
(dp2247
g30
(lp2248
sg24
V[  ]
p2249
sbsg24
V[  ] ---> [ +voice -glide ] / [ +coronal ] _ 
p2250
sba(irule
Rule
p2251
(dp2252
g17
(irule
Guard
p2253
(dp2254
g20
I00
sg21
(lp2255
(irule
ConstantPhoneme
p2256
(dp2257
S'p'
g697
sbasg23
I00
sg24
g697
sg25
I00
sg26
S'L'
sbsg27
(irule
FeatureMatrix
p2258
(dp2259
g30
(lp2260
(I01
g608
tp2261
asg24
V[ +voice ]
p2262
sbsg33
(irule
Guard
p2263
(dp2264
g20
I00
sg21
(lp2265
(irule
FeatureMatrix
p2266
(dp2267
g30
(lp2268
sg24
V[  ]
p2269
sbasg23
I00
sg24
g2269
sg25
I00
sg26
S'R'
sbsg37
(irule
FeatureMatrix
p2270
(dp2271
g30
(lp2272
sg24
V[  ]
p2273
sbsg24
V[  ] ---> [ +voice ] / n\u0303 _ [  ]
p2274
sba(irule
Rule
p2275
(dp2276
g17
(irule
Guard
p2277
(dp2278
g20
I00
sg21
(lp2279
(irule
FeatureMatrix
p2280
(dp2281
g30
(lp2282
(I01
g743
tp2283
a(I01
g1603
tp2284
asg24
V[ +nasal +sonorant ]
p2285
sbasg23
I00
sg24
g2285
sg25
I00
sg26
S'L'
sbsg27
(irule
FeatureMatrix
p2286
(dp2287
g30
(lp2288
(I01
g608
tp2289
asg24
V[ +voice ]
p2290
sbsg33
(irule
Guard
p2291
(dp2292
g20
I00
sg21
(lp2293
sg23
I00
sg24
V
sg25
I00
sg26
S'R'
sbsg37
(irule
FeatureMatrix
p2294
(dp2295
g30
(lp2296
sg24
V[  ]
p2297
sbsg24
V[  ] ---> [ +voice ] / [ +nasal +sonorant ] _ 
p2298
sba(irule
Rule
p2299
(dp2300
g17
(irule
Guard
p2301
(dp2302
g20
I01
sg21
(lp2303
(irule
FeatureMatrix
p2304
(dp2305
g30
(lp2306
sg24
V[  ]
p2307
sbasg23
I00
sg24
V# [  ]
p2308
sg25
I00
sg26
S'L'
sbsg27
(irule
FeatureMatrix
p2309
(dp2310
g30
(lp2311
(I01
g608
tp2312
asg24
V[ +voice ]
p2313
sbsg33
(irule
Guard
p2314
(dp2315
g20
I00
sg21
(lp2316
sg23
I00
sg24
V
sg25
I00
sg26
S'R'
sbsg37
(irule
FeatureMatrix
p2317
(dp2318
g30
(lp2319
(I00
g841
tp2320
asg24
V[ -rounded ]
p2321
sbsg24
V[ -rounded ] ---> [ +voice ] / # [  ] _ 
p2322
sba(irule
Rule
p2323
(dp2324
g17
(irule
Guard
p2325
(dp2326
g20
I00
sg21
(lp2327
(irule
FeatureMatrix
p2328
(dp2329
g30
(lp2330
(I00
g627
tp2331
asg24
V[ -tense ]
p2332
sbasg23
I00
sg24
g2332
sg25
I00
sg26
S'L'
sbsg27
(irule
FeatureMatrix
p2333
(dp2334
g30
(lp2335
(I00
g1216
tp2336
a(I01
g608
tp2337
asg24
V[ +voice -lateral ]
p2338
sbsg33
(irule
Guard
p2339
(dp2340
g20
I00
sg21
(lp2341
sg23
I00
sg24
V
sg25
I00
sg26
S'R'
sbsg37
(irule
FeatureMatrix
p2342
(dp2343
g30
(lp2344
sg24
V[  ]
p2345
sbsg24
V[  ] ---> [ +voice -lateral ] / [ -tense ] _ 
p2346
sba(irule
Rule
p2347
(dp2348
g17
(irule
Guard
p2349
(dp2350
g20
I00
sg21
(lp2351
(irule
FeatureMatrix
p2352
(dp2353
g30
(lp2354
(I00
S'high'
tp2355
a(I00
g651
tp2356
asg24
V[ -high -vowel ]
p2357
sbasg23
I00
sg24
g2357
sg25
I00
sg26
S'L'
sbsg27
(irule
FeatureMatrix
p2358
(dp2359
g30
(lp2360
(I01
g608
tp2361
asg24
V[ +voice ]
p2362
sbsg33
(irule
Guard
p2363
(dp2364
g20
I00
sg21
(lp2365
sg23
I00
sg24
V
sg25
I00
sg26
S'R'
sbsg37
(irule
FeatureMatrix
p2366
(dp2367
g30
(lp2368
sg24
V[  ]
p2369
sbsg24
V[  ] ---> [ +voice ] / [ -high -vowel ] _ 
p2370
sba(irule
Rule
p2371
(dp2372
g17
(irule
Guard
p2373
(dp2374
g20
I00
sg21
(lp2375
(irule
FeatureMatrix
p2376
(dp2377
g30
(lp2378
(I00
g963
tp2379
a(I00
g651
tp2380
asg24
V[ -anterior -vowel ]
p2381
sbasg23
I00
sg24
g2381
sg25
I00
sg26
S'L'
sbsg27
(irule
FeatureMatrix
p2382
(dp2383
g30
(lp2384
(I01
g608
tp2385
asg24
V[ +voice ]
p2386
sbsg33
(irule
Guard
p2387
(dp2388
g20
I00
sg21
(lp2389
sg23
I00
sg24
V
sg25
I00
sg26
S'R'
sbsg37
(irule
FeatureMatrix
p2390
(dp2391
g30
(lp2392
sg24
V[  ]
p2393
sbsg24
V[  ] ---> [ +voice ] / [ -anterior -vowel ] _ 
p2394
sba(irule
Rule
p2395
(dp2396
g17
(irule
Guard
p2397
(dp2398
g20
I00
sg21
(lp2399
(irule
FeatureMatrix
p2400
(dp2401
g30
(lp2402
(I01
g743
tp2403
asg24
V[ +nasal ]
p2404
sbasg23
I00
sg24
g2404
sg25
I00
sg26
S'L'
sbsg27
(irule
FeatureMatrix
p2405
(dp2406
g30
(lp2407
(I00
g841
tp2408
a(I01
g608
tp2409
asg24
V[ +voice -rounded ]
p2410
sbsg33
(irule
Guard
p2411
(dp2412
g20
I00
sg21
(lp2413
sg23
I00
sg24
V
sg25
I00
sg26
S'R'
sbsg37
(irule
FeatureMatrix
p2414
(dp2415
g30
(lp2416
sg24
V[  ]
p2417
sbsg24
V[  ] ---> [ +voice -rounded ] / [ +nasal ] _ 
p2418
sba(irule
Rule
p2419
(dp2420
g17
(irule
Guard
p2421
(dp2422
g20
I00
sg21
(lp2423
(irule
FeatureMatrix
p2424
(dp2425
g30
(lp2426
(I01
g719
tp2427
asg24
V[ +coronal ]
p2428
sbasg23
I00
sg24
g2428
sg25
I00
sg26
S'L'
sbsg27
(irule
FeatureMatrix
p2429
(dp2430
g30
(lp2431
(I00
g1559
tp2432
a(I01
g608
tp2433
asg24
V[ +voice -liquid ]
p2434
sbsg33
(irule
Guard
p2435
(dp2436
g20
I00
sg21
(lp2437
sg23
I00
sg24
V
sg25
I00
sg26
S'R'
sbsg37
(irule
FeatureMatrix
p2438
(dp2439
g30
(lp2440
sg24
V[  ]
p2441
sbsg24
V[  ] ---> [ +voice -liquid ] / [ +coronal ] _ 
p2442
sba(irule
Rule
p2443
(dp2444
g17
(irule
Guard
p2445
(dp2446
g20
I01
sg21
(lp2447
(irule
FeatureMatrix
p2448
(dp2449
g30
(lp2450
sg24
V[  ]
p2451
sbasg23
I00
sg24
V# [  ]
p2452
sg25
I00
sg26
S'L'
sbsg27
(irule
FeatureMatrix
p2453
(dp2454
g30
(lp2455
(I01
g608
tp2456
asg24
V[ +voice ]
p2457
sbsg33
(irule
Guard
p2458
(dp2459
g20
I00
sg21
(lp2460
sg23
I00
sg24
V
sg25
I00
sg26
S'R'
sbsg37
(irule
FeatureMatrix
p2461
(dp2462
g30
(lp2463
(I00
g743
tp2464
asg24
V[ -nasal ]
p2465
sbsg24
V[ -nasal ] ---> [ +voice ] / # [  ] _ 
p2466
sba(irule
Rule
p2467
(dp2468
g17
(irule
Guard
p2469
(dp2470
g20
I00
sg21
(lp2471
(irule
FeatureMatrix
p2472
(dp2473
g30
(lp2474
(I00
g627
tp2475
asg24
V[ -tense ]
p2476
sbasg23
I00
sg24
g2476
sg25
I00
sg26
S'L'
sbsg27
(irule
FeatureMatrix
p2477
(dp2478
g30
(lp2479
(I01
g608
tp2480
asg24
V[ +voice ]
p2481
sbsg33
(irule
Guard
p2482
(dp2483
g20
I00
sg21
(lp2484
sg23
I00
sg24
V
sg25
I00
sg26
S'R'
sbsg37
(irule
FeatureMatrix
p2485
(dp2486
g30
(lp2487
(I00
g743
tp2488
asg24
V[ -nasal ]
p2489
sbsg24
V[ -nasal ] ---> [ +voice ] / [ -tense ] _ 
p2490
sba(irule
Rule
p2491
(dp2492
g17
(irule
Guard
p2493
(dp2494
g20
I00
sg21
(lp2495
(irule
FeatureMatrix
p2496
(dp2497
g30
(lp2498
(I01
g743
tp2499
asg24
V[ +nasal ]
p2500
sbasg23
I00
sg24
g2500
sg25
I00
sg26
S'L'
sbsg27
(irule
FeatureMatrix
p2501
(dp2502
g30
(lp2503
(I01
g608
tp2504
asg24
V[ +voice ]
p2505
sbsg33
(irule
Guard
p2506
(dp2507
g20
I00
sg21
(lp2508
sg23
I00
sg24
V
sg25
I00
sg26
S'R'
sbsg37
(irule
FeatureMatrix
p2509
(dp2510
g30
(lp2511
(I00
g651
tp2512
asg24
V[ -vowel ]
p2513
sbsg24
V[ -vowel ] ---> [ +voice ] / [ +nasal ] _ 
p2514
sba(irule
Rule
p2515
(dp2516
g17
(irule
Guard
p2517
(dp2518
g20
I00
sg21
(lp2519
(irule
FeatureMatrix
p2520
(dp2521
g30
(lp2522
(I01
g719
tp2523
asg24
V[ +coronal ]
p2524
sbasg23
I00
sg24
g2524
sg25
I00
sg26
S'L'
sbsg27
(irule
FeatureMatrix
p2525
(dp2526
g30
(lp2527
(I00
g1216
tp2528
a(I01
g608
tp2529
asg24
V[ +voice -lateral ]
p2530
sbsg33
(irule
Guard
p2531
(dp2532
g20
I00
sg21
(lp2533
sg23
I00
sg24
V
sg25
I00
sg26
S'R'
sbsg37
(irule
FeatureMatrix
p2534
(dp2535
g30
(lp2536
sg24
V[  ]
p2537
sbsg24
V[  ] ---> [ +voice -lateral ] / [ +coronal ] _ 
p2538
sba(irule
Rule
p2539
(dp2540
g17
(irule
Guard
p2541
(dp2542
g20
I00
sg21
(lp2543
(irule
FeatureMatrix
p2544
(dp2545
g30
(lp2546
(I00
g651
tp2547
asg24
V[ -vowel ]
p2548
sbasg23
I00
sg24
g2548
sg25
I00
sg26
S'L'
sbsg27
(irule
FeatureMatrix
p2549
(dp2550
g30
(lp2551
(I01
g608
tp2552
asg24
V[ +voice ]
p2553
sbsg33
(irule
Guard
p2554
(dp2555
g20
I00
sg21
(lp2556
sg23
I00
sg24
V
sg25
I00
sg26
S'R'
sbsg37
(irule
FeatureMatrix
p2557
(dp2558
g30
(lp2559
(I00
g627
tp2560
asg24
V[ -tense ]
p2561
sbsg24
V[ -tense ] ---> [ +voice ] / [ -vowel ] _ 
p2562
sba(irule
Rule
p2563
(dp2564
g17
(irule
Guard
p2565
(dp2566
g20
I00
sg21
(lp2567
(irule
ConstantPhoneme
p2568
(dp2569
S'p'
g697
sbasg23
I00
sg24
g697
sg25
I00
sg26
S'L'
sbsg27
(irule
FeatureMatrix
p2570
(dp2571
g30
(lp2572
(I01
g608
tp2573
asg24
V[ +voice ]
p2574
sbsg33
(irule
Guard
p2575
(dp2576
g20
I00
sg21
(lp2577
sg23
I00
sg24
V
sg25
I00
sg26
S'R'
sbsg37
(irule
FeatureMatrix
p2578
(dp2579
g30
(lp2580
(I00
g627
tp2581
asg24
V[ -tense ]
p2582
sbsg24
V[ -tense ] ---> [ +voice ] / n\u0303 _ 
p2583
sba(irule
Rule
p2584
(dp2585
g17
(irule
Guard
p2586
(dp2587
g20
I00
sg21
(lp2588
(irule
FeatureMatrix
p2589
(dp2590
g30
(lp2591
(I01
g719
tp2592
asg24
V[ +coronal ]
p2593
sbasg23
I00
sg24
g2593
sg25
I00
sg26
S'L'
sbsg27
(irule
FeatureMatrix
p2594
(dp2595
g30
(lp2596
(I01
g608
tp2597
asg24
V[ +voice ]
p2598
sbsg33
(irule
Guard
p2599
(dp2600
g20
I00
sg21
(lp2601
sg23
I00
sg24
V
sg25
I00
sg26
S'R'
sbsg37
(irule
FeatureMatrix
p2602
(dp2603
g30
(lp2604
(I00
g608
tp2605
asg24
V[ -voice ]
p2606
sbsg24
V[ -voice ] ---> [ +voice ] / [ +coronal ] _ 
p2607
sba(irule
Rule
p2608
(dp2609
g17
(irule
Guard
p2610
(dp2611
g20
I00
sg21
(lp2612
(irule
ConstantPhoneme
p2613
(dp2614
S'p'
g697
sbasg23
I00
sg24
g697
sg25
I00
sg26
S'L'
sbsg27
(irule
FeatureMatrix
p2615
(dp2616
g30
(lp2617
(I00
g1603
tp2618
a(I01
g608
tp2619
asg24
V[ +voice -sonorant ]
p2620
sbsg33
(irule
Guard
p2621
(dp2622
g20
I00
sg21
(lp2623
sg23
I00
sg24
V
sg25
I00
sg26
S'R'
sbsg37
(irule
FeatureMatrix
p2624
(dp2625
g30
(lp2626
sg24
V[  ]
p2627
sbsg24
V[  ] ---> [ +voice -sonorant ] / n\u0303 _ 
p2628
sba(irule
Rule
p2629
(dp2630
g17
(irule
Guard
p2631
(dp2632
g20
I01
sg21
(lp2633
(irule
FeatureMatrix
p2634
(dp2635
g30
(lp2636
(I01
g743
tp2637
asg24
V[ +nasal ]
p2638
sbasg23
I00
sg24
V# [ +nasal ]
p2639
sg25
I00
sg26
S'L'
sbsg27
(irule
FeatureMatrix
p2640
(dp2641
g30
(lp2642
(I01
g608
tp2643
asg24
V[ +voice ]
p2644
sbsg33
(irule
Guard
p2645
(dp2646
g20
I00
sg21
(lp2647
sg23
I00
sg24
V
sg25
I00
sg26
S'R'
sbsg37
(irule
FeatureMatrix
p2648
(dp2649
g30
(lp2650
sg24
V[  ]
p2651
sbsg24
V[  ] ---> [ +voice ] / # [ +nasal ] _ 
p2652
sba(irule
Rule
p2653
(dp2654
g17
(irule
Guard
p2655
(dp2656
g20
I00
sg21
(lp2657
(irule
ConstantPhoneme
p2658
(dp2659
S'p'
g697
sbasg23
I00
sg24
g697
sg25
I00
sg26
S'L'
sbsg27
(irule
FeatureMatrix
p2660
(dp2661
g30
(lp2662
(I00
g627
tp2663
a(I01
g608
tp2664
asg24
V[ +voice -tense ]
p2665
sbsg33
(irule
Guard
p2666
(dp2667
g20
I00
sg21
(lp2668
sg23
I00
sg24
V
sg25
I00
sg26
S'R'
sbsg37
(irule
FeatureMatrix
p2669
(dp2670
g30
(lp2671
sg24
V[  ]
p2672
sbsg24
V[  ] ---> [ +voice -tense ] / n\u0303 _ 
p2673
sba(irule
Rule
p2674
(dp2675
g17
(irule
Guard
p2676
(dp2677
g20
I01
sg21
(lp2678
(irule
FeatureMatrix
p2679
(dp2680
g30
(lp2681
(I00
g1559
tp2682
asg24
V[ -liquid ]
p2683
sbasg23
I00
sg24
V# [ -liquid ]
p2684
sg25
I00
sg26
S'L'
sbsg27
(irule
FeatureMatrix
p2685
(dp2686
g30
(lp2687
(I01
g608
tp2688
asg24
V[ +voice ]
p2689
sbsg33
(irule
Guard
p2690
(dp2691
g20
I00
sg21
(lp2692
sg23
I00
sg24
V
sg25
I00
sg26
S'R'
sbsg37
(irule
FeatureMatrix
p2693
(dp2694
g30
(lp2695
sg24
V[  ]
p2696
sbsg24
V[  ] ---> [ +voice ] / # [ -liquid ] _ 
p2697
sba(irule
Rule
p2698
(dp2699
g17
(irule
Guard
p2700
(dp2701
g20
I00
sg21
(lp2702
(irule
FeatureMatrix
p2703
(dp2704
g30
(lp2705
(I00
g963
tp2706
a(I01
g719
tp2707
asg24
V[ +coronal -anterior ]
p2708
sbasg23
I00
sg24
g2708
sg25
I00
sg26
S'L'
sbsg27
(irule
FeatureMatrix
p2709
(dp2710
g30
(lp2711
(I01
g608
tp2712
asg24
V[ +voice ]
p2713
sbsg33
(irule
Guard
p2714
(dp2715
g20
I00
sg21
(lp2716
sg23
I00
sg24
V
sg25
I00
sg26
S'R'
sbsg37
(irule
FeatureMatrix
p2717
(dp2718
g30
(lp2719
sg24
V[  ]
p2720
sbsg24
V[  ] ---> [ +voice ] / [ +coronal -anterior ] _ 
p2721
sba(irule
Rule
p2722
(dp2723
g17
(irule
Guard
p2724
(dp2725
g20
I00
sg21
(lp2726
(irule
FeatureMatrix
p2727
(dp2728
g30
(lp2729
(I00
g602
tp2730
asg24
V[ -continuant ]
p2731
sbasg23
I00
sg24
g2731
sg25
I00
sg26
S'L'
sbsg27
(irule
FeatureMatrix
p2732
(dp2733
g30
(lp2734
(I01
g608
tp2735
asg24
V[ +voice ]
p2736
sbsg33
(irule
Guard
p2737
(dp2738
g20
I00
sg21
(lp2739
sg23
I00
sg24
V
sg25
I00
sg26
S'R'
sbsg37
(irule
FeatureMatrix
p2740
(dp2741
g30
(lp2742
(I00
g1111
tp2743
asg24
V[ -low ]
p2744
sbsg24
V[ -low ] ---> [ +voice ] / [ -continuant ] _ 
p2745
sba(irule
Rule
p2746
(dp2747
g17
(irule
Guard
p2748
(dp2749
g20
I00
sg21
(lp2750
(irule
FeatureMatrix
p2751
(dp2752
g30
(lp2753
(I01
g743
tp2754
a(I00
g2018
tp2755
asg24
V[ +nasal -sibilant ]
p2756
sbasg23
I00
sg24
g2756
sg25
I00
sg26
S'L'
sbsg27
(irule
FeatureMatrix
p2757
(dp2758
g30
(lp2759
(I01
g608
tp2760
asg24
V[ +voice ]
p2761
sbsg33
(irule
Guard
p2762
(dp2763
g20
I00
sg21
(lp2764
sg23
I00
sg24
V
sg25
I00
sg26
S'R'
sbsg37
(irule
FeatureMatrix
p2765
(dp2766
g30
(lp2767
sg24
V[  ]
p2768
sbsg24
V[  ] ---> [ +voice ] / [ +nasal -sibilant ] _ 
p2769
sba(irule
Rule
p2770
(dp2771
g17
(irule
Guard
p2772
(dp2773
g20
I00
sg21
(lp2774
(irule
FeatureMatrix
p2775
(dp2776
g30
(lp2777
(I01
g743
tp2778
a(I00
g866
tp2779
asg24
V[ +nasal -back ]
p2780
sbasg23
I00
sg24
g2780
sg25
I00
sg26
S'L'
sbsg27
(irule
FeatureMatrix
p2781
(dp2782
g30
(lp2783
(I01
g608
tp2784
asg24
V[ +voice ]
p2785
sbsg33
(irule
Guard
p2786
(dp2787
g20
I00
sg21
(lp2788
sg23
I00
sg24
V
sg25
I00
sg26
S'R'
sbsg37
(irule
FeatureMatrix
p2789
(dp2790
g30
(lp2791
sg24
V[  ]
p2792
sbsg24
V[  ] ---> [ +voice ] / [ +nasal -back ] _ 
p2793
sba(irule
Rule
p2794
(dp2795
g17
(irule
Guard
p2796
(dp2797
g20
I00
sg21
(lp2798
(irule
FeatureMatrix
p2799
(dp2800
g30
(lp2801
(I01
g719
tp2802
a(I00
g651
tp2803
asg24
V[ +coronal -vowel ]
p2804
sbasg23
I00
sg24
g2804
sg25
I00
sg26
S'L'
sbsg27
(irule
FeatureMatrix
p2805
(dp2806
g30
(lp2807
(I01
g608
tp2808
asg24
V[ +voice ]
p2809
sbsg33
(irule
Guard
p2810
(dp2811
g20
I00
sg21
(lp2812
sg23
I00
sg24
V
sg25
I00
sg26
S'R'
sbsg37
(irule
FeatureMatrix
p2813
(dp2814
g30
(lp2815
sg24
V[  ]
p2816
sbsg24
V[  ] ---> [ +voice ] / [ +coronal -vowel ] _ 
p2817
sba(irule
Rule
p2818
(dp2819
g17
(irule
Guard
p2820
(dp2821
g20
I00
sg21
(lp2822
(irule
FeatureMatrix
p2823
(dp2824
g30
(lp2825
(I01
g743
tp2826
a(I00
g651
tp2827
asg24
V[ +nasal -vowel ]
p2828
sbasg23
I00
sg24
g2828
sg25
I00
sg26
S'L'
sbsg27
(irule
FeatureMatrix
p2829
(dp2830
g30
(lp2831
(I01
g608
tp2832
asg24
V[ +voice ]
p2833
sbsg33
(irule
Guard
p2834
(dp2835
g20
I00
sg21
(lp2836
sg23
I00
sg24
V
sg25
I00
sg26
S'R'
sbsg37
(irule
FeatureMatrix
p2837
(dp2838
g30
(lp2839
sg24
V[  ]
p2840
sbsg24
V[  ] ---> [ +voice ] / [ +nasal -vowel ] _ 
p2841
sba(irule
Rule
p2842
(dp2843
g17
(irule
Guard
p2844
(dp2845
g20
I00
sg21
(lp2846
(irule
ConstantPhoneme
p2847
(dp2848
S'p'
g697
sbasg23
I00
sg24
g697
sg25
I00
sg26
S'L'
sbsg27
(irule
FeatureMatrix
p2849
(dp2850
g30
(lp2851
(I00
g1111
tp2852
a(I01
g608
tp2853
asg24
V[ +voice -low ]
p2854
sbsg33
(irule
Guard
p2855
(dp2856
g20
I00
sg21
(lp2857
sg23
I00
sg24
V
sg25
I00
sg26
S'R'
sbsg37
(irule
FeatureMatrix
p2858
(dp2859
g30
(lp2860
sg24
V[  ]
p2861
sbsg24
V[  ] ---> [ +voice -low ] / n\u0303 _ 
p2862
sba(irule
Rule
p2863
(dp2864
g17
(irule
Guard
p2865
(dp2866
g20
I00
sg21
(lp2867
(irule
FeatureMatrix
p2868
(dp2869
g30
(lp2870
(I01
g719
tp2871
a(I01
g608
tp2872
asg24
V[ +coronal +voice ]
p2873
sbasg23
I00
sg24
g2873
sg25
I00
sg26
S'L'
sbsg27
(irule
FeatureMatrix
p2874
(dp2875
g30
(lp2876
(I01
g608
tp2877
asg24
V[ +voice ]
p2878
sbsg33
(irule
Guard
p2879
(dp2880
g20
I00
sg21
(lp2881
sg23
I00
sg24
V
sg25
I00
sg26
S'R'
sbsg37
(irule
FeatureMatrix
p2882
(dp2883
g30
(lp2884
sg24
V[  ]
p2885
sbsg24
V[  ] ---> [ +voice ] / [ +coronal +voice ] _ 
p2886
sba(irule
Rule
p2887
(dp2888
g17
(irule
Guard
p2889
(dp2890
g20
I00
sg21
(lp2891
(irule
FeatureMatrix
p2892
(dp2893
g30
(lp2894
(I00
g627
tp2895
asg24
V[ -tense ]
p2896
sbasg23
I00
sg24
g2896
sg25
I00
sg26
S'L'
sbsg27
(irule
FeatureMatrix
p2897
(dp2898
g30
(lp2899
(I01
g608
tp2900
asg24
V[ +voice ]
p2901
sbsg33
(irule
Guard
p2902
(dp2903
g20
I00
sg21
(lp2904
sg23
I00
sg24
V
sg25
I00
sg26
S'R'
sbsg37
(irule
FeatureMatrix
p2905
(dp2906
g30
(lp2907
(I00
g841
tp2908
asg24
V[ -rounded ]
p2909
sbsg24
V[ -rounded ] ---> [ +voice ] / [ -tense ] _ 
p2910
sba(irule
Rule
p2911
(dp2912
g17
(irule
Guard
p2913
(dp2914
g20
I00
sg21
(lp2915
(irule
FeatureMatrix
p2916
(dp2917
g30
(lp2918
(I00
g602
tp2919
asg24
V[ -continuant ]
p2920
sbasg23
I00
sg24
g2920
sg25
I00
sg26
S'L'
sbsg27
(irule
FeatureMatrix
p2921
(dp2922
g30
(lp2923
(I01
g608
tp2924
asg24
V[ +voice ]
p2925
sbsg33
(irule
Guard
p2926
(dp2927
g20
I00
sg21
(lp2928
sg23
I00
sg24
V
sg25
I00
sg26
S'R'
sbsg37
(irule
FeatureMatrix
p2929
(dp2930
g30
(lp2931
(I00
g608
tp2932
asg24
V[ -voice ]
p2933
sbsg24
V[ -voice ] ---> [ +voice ] / [ -continuant ] _ 
p2934
sba(irule
Rule
p2935
(dp2936
g17
(irule
Guard
p2937
(dp2938
g20
I00
sg21
(lp2939
(irule
FeatureMatrix
p2940
(dp2941
g30
(lp2942
(I01
g743
tp2943
asg24
V[ +nasal ]
p2944
sbasg23
I00
sg24
g2944
sg25
I00
sg26
S'L'
sbsg27
(irule
FeatureMatrix
p2945
(dp2946
g30
(lp2947
(I01
g608
tp2948
asg24
V[ +voice ]
p2949
sbsg33
(irule
Guard
p2950
(dp2951
g20
I00
sg21
(lp2952
sg23
I00
sg24
V
sg25
I00
sg26
S'R'
sbsg37
(irule
FeatureMatrix
p2953
(dp2954
g30
(lp2955
(I00
g1603
tp2956
asg24
V[ -sonorant ]
p2957
sbsg24
V[ -sonorant ] ---> [ +voice ] / [ +nasal ] _ 
p2958
sba(irule
Rule
p2959
(dp2960
g17
(irule
Guard
p2961
(dp2962
g20
I00
sg21
(lp2963
(irule
FeatureMatrix
p2964
(dp2965
g30
(lp2966
(I00
g651
tp2967
asg24
V[ -vowel ]
p2968
sbasg23
I00
sg24
g2968
sg25
I00
sg26
S'L'
sbsg27
(irule
FeatureMatrix
p2969
(dp2970
g30
(lp2971
(I01
g608
tp2972
asg24
V[ +voice ]
p2973
sbsg33
(irule
Guard
p2974
(dp2975
g20
I00
sg21
(lp2976
sg23
I00
sg24
V
sg25
I00
sg26
S'R'
sbsg37
(irule
FeatureMatrix
p2977
(dp2978
g30
(lp2979
(I00
g651
tp2980
asg24
V[ -vowel ]
p2981
sbsg24
V[ -vowel ] ---> [ +voice ] / [ -vowel ] _ 
p2982
sbaa(lp2983
(irule
Rule
p2984
(dp2985
g17
(irule
Guard
p2986
(dp2987
g20
I00
sg21
(lp2988
sg23
I00
sg24
V
sg25
I00
sg26
S'L'
sbsg27
(irule
PlaceSpecification
p2989
(dp2990
g151
I1
sbsg33
(irule
Guard
p2991
(dp2992
g20
I00
sg21
(lp2993
sg23
I00
sg24
V
sg25
I00
sg26
S'R'
sbsg37
(irule
ConstantPhoneme
p2994
(dp2995
S'p'
Vn\u0303
p2996
sbsg24
Vn\u0303 ---> place1 /  _ 
p2997
sba(irule
Rule
p2998
(dp2999
g17
(irule
Guard
p3000
(dp3001
g20
I00
sg21
(lp3002
sg23
I00
sg24
V
sg25
I00
sg26
S'L'
sbsg27
(irule
PlaceSpecification
p3003
(dp3004
g151
I1
sbsg33
(irule
Guard
p3005
(dp3006
g20
I00
sg21
(lp3007
sg23
I00
sg24
V
sg25
I00
sg26
S'R'
sbsg37
(irule
FeatureMatrix
p3008
(dp3009
g30
(lp3010
(I00
S'anterior'
p3011
tp3012
a(I01
S'nasal'
p3013
tp3014
asg24
V[ +nasal -anterior ]
p3015
sbsg24
V[ +nasal -anterior ] ---> place1 /  _ 
p3016
sba(irule
Rule
p3017
(dp3018
g17
(irule
Guard
p3019
(dp3020
g20
I00
sg21
(lp3021
sg23
I00
sg24
V
sg25
I00
sg26
S'L'
sbsg27
(irule
PlaceSpecification
p3022
(dp3023
g151
I1
sbsg33
(irule
Guard
p3024
(dp3025
g20
I00
sg21
(lp3026
(irule
FeatureMatrix
p3027
(dp3028
g30
(lp3029
sg24
V[  ]
p3030
sbasg23
I00
sg24
g3030
sg25
I00
sg26
S'R'
sbsg37
(irule
ConstantPhoneme
p3031
(dp3032
S'p'
Vn\u0303
p3033
sbsg24
Vn\u0303 ---> place1 /  _ [  ]
p3034
sba(irule
Rule
p3035
(dp3036
g17
(irule
Guard
p3037
(dp3038
g20
I01
sg21
(lp3039
sg23
I00
sg24
V#
sg25
I00
sg26
S'L'
sbsg27
(irule
PlaceSpecification
p3040
(dp3041
g151
I1
sbsg33
(irule
Guard
p3042
(dp3043
g20
I00
sg21
(lp3044
sg23
I00
sg24
V
sg25
I00
sg26
S'R'
sbsg37
(irule
FeatureMatrix
p3045
(dp3046
g30
(lp3047
(I01
S'sonorant'
p3048
tp3049
asg24
V[ +sonorant ]
p3050
sbsg24
V[ +sonorant ] ---> place1 / # _ 
p3051
sba(irule
Rule
p3052
(dp3053
g17
(irule
Guard
p3054
(dp3055
g20
I01
sg21
(lp3056
sg23
I00
sg24
V#
sg25
I00
sg26
S'L'
sbsg27
(irule
PlaceSpecification
p3057
(dp3058
g151
I1
sbsg33
(irule
Guard
p3059
(dp3060
g20
I00
sg21
(lp3061
sg23
I00
sg24
V
sg25
I00
sg26
S'R'
sbsg37
(irule
ConstantPhoneme
p3062
(dp3063
S'p'
g3033
sbsg24
Vn\u0303 ---> place1 / # _ 
p3064
sba(irule
Rule
p3065
(dp3066
g17
(irule
Guard
p3067
(dp3068
g20
I01
sg21
(lp3069
sg23
I00
sg24
V#
sg25
I00
sg26
S'L'
sbsg27
(irule
PlaceSpecification
p3070
(dp3071
g151
I1
sbsg33
(irule
Guard
p3072
(dp3073
g20
I00
sg21
(lp3074
sg23
I00
sg24
V
sg25
I00
sg26
S'R'
sbsg37
(irule
FeatureMatrix
p3075
(dp3076
g30
(lp3077
(I01
g3013
tp3078
asg24
V[ +nasal ]
p3079
sbsg24
V[ +nasal ] ---> place1 / # _ 
p3080
sba(irule
Rule
p3081
(dp3082
g17
(irule
Guard
p3083
(dp3084
g20
I00
sg21
(lp3085
sg23
I00
sg24
V
sg25
I00
sg26
S'L'
sbsg27
(irule
PlaceSpecification
p3086
(dp3087
g151
I1
sbsg33
(irule
Guard
p3088
(dp3089
g20
I00
sg21
(lp3090
sg23
I00
sg24
V
sg25
I00
sg26
S'R'
sbsg37
(irule
FeatureMatrix
p3091
(dp3092
g30
(lp3093
(I00
g3011
tp3094
a(I00
S'continuant'
p3095
tp3096
a(I01
g3048
tp3097
asg24
V[ +sonorant -anterior -continuant ]
p3098
sbsg24
V[ +sonorant -anterior -continuant ] ---> place1 /  _ 
p3099
sba(irule
Rule
p3100
(dp3101
g17
(irule
Guard
p3102
(dp3103
g20
I00
sg21
(lp3104
sg23
I00
sg24
V
sg25
I00
sg26
S'L'
sbsg27
(irule
PlaceSpecification
p3105
(dp3106
g151
I1
sbsg33
(irule
Guard
p3107
(dp3108
g20
I00
sg21
(lp3109
(irule
FeatureMatrix
p3110
(dp3111
g30
(lp3112
sg24
V[  ]
p3113
sba(irule
FeatureMatrix
p3114
(dp3115
g30
(lp3116
sg24
V[  ]
p3117
sbasg23
I00
sg24
V[  ] [  ]
p3118
sg25
I00
sg26
S'R'
sbsg37
(irule
ConstantPhoneme
p3119
(dp3120
S'p'
g3033
sbsg24
Vn\u0303 ---> place1 /  _ [  ] [  ]
p3121
sba(irule
Rule
p3122
(dp3123
g17
(irule
Guard
p3124
(dp3125
g20
I01
sg21
(lp3126
sg23
I00
sg24
V#
sg25
I00
sg26
S'L'
sbsg27
(irule
PlaceSpecification
p3127
(dp3128
g151
I1
sbsg33
(irule
Guard
p3129
(dp3130
g20
I00
sg21
(lp3131
(irule
FeatureMatrix
p3132
(dp3133
g30
(lp3134
(I00
g3048
tp3135
asg24
V[ -sonorant ]
p3136
sbasg23
I00
sg24
g3136
sg25
I00
sg26
S'R'
sbsg37
(irule
FeatureMatrix
p3137
(dp3138
g30
(lp3139
sg24
V[  ]
p3140
sbsg24
V[  ] ---> place1 / # _ [ -sonorant ]
p3141
sba(irule
Rule
p3142
(dp3143
g17
(irule
Guard
p3144
(dp3145
g20
I00
sg21
(lp3146
sg23
I00
sg24
V
sg25
I00
sg26
S'L'
sbsg27
(irule
PlaceSpecification
p3147
(dp3148
g151
I1
sbsg33
(irule
Guard
p3149
(dp3150
g20
I00
sg21
(lp3151
(irule
FeatureMatrix
p3152
(dp3153
g30
(lp3154
(I01
S'voice'
p3155
tp3156
asg24
V[ +voice ]
p3157
sbasg23
I00
sg24
g3157
sg25
I00
sg26
S'R'
sbsg37
(irule
ConstantPhoneme
p3158
(dp3159
S'p'
g3033
sbsg24
Vn\u0303 ---> place1 /  _ [ +voice ]
p3160
sba(irule
Rule
p3161
(dp3162
g17
(irule
Guard
p3163
(dp3164
g20
I00
sg21
(lp3165
sg23
I00
sg24
V
sg25
I00
sg26
S'L'
sbsg27
(irule
PlaceSpecification
p3166
(dp3167
g151
I1
sbsg33
(irule
Guard
p3168
(dp3169
g20
I00
sg21
(lp3170
(irule
FeatureMatrix
p3171
(dp3172
g30
(lp3173
sg24
V[  ]
p3174
sba(irule
FeatureMatrix
p3175
(dp3176
g30
(lp3177
sg24
V[  ]
p3178
sbasg23
I00
sg24
V[  ] [  ]
p3179
sg25
I00
sg26
S'R'
sbsg37
(irule
FeatureMatrix
p3180
(dp3181
g30
(lp3182
(I01
g3013
tp3183
asg24
V[ +nasal ]
p3184
sbsg24
V[ +nasal ] ---> place1 /  _ [  ] [  ]
p3185
sba(irule
Rule
p3186
(dp3187
g17
(irule
Guard
p3188
(dp3189
g20
I00
sg21
(lp3190
sg23
I00
sg24
V
sg25
I00
sg26
S'L'
sbsg27
(irule
PlaceSpecification
p3191
(dp3192
g151
I1
sbsg33
(irule
Guard
p3193
(dp3194
g20
I00
sg21
(lp3195
(irule
FeatureMatrix
p3196
(dp3197
g30
(lp3198
(I00
g3048
tp3199
a(I01
g3155
tp3200
asg24
V[ +voice -sonorant ]
p3201
sbasg23
I00
sg24
g3201
sg25
I00
sg26
S'R'
sbsg37
(irule
FeatureMatrix
p3202
(dp3203
g30
(lp3204
sg24
V[  ]
p3205
sbsg24
V[  ] ---> place1 /  _ [ +voice -sonorant ]
p3206
sba(irule
Rule
p3207
(dp3208
g17
(irule
Guard
p3209
(dp3210
g20
I00
sg21
(lp3211
sg23
I00
sg24
V
sg25
I00
sg26
S'L'
sbsg27
(irule
PlaceSpecification
p3212
(dp3213
g151
I1
sbsg33
(irule
Guard
p3214
(dp3215
g20
I00
sg21
(lp3216
(irule
FeatureMatrix
p3217
(dp3218
g30
(lp3219
(I00
S'tense'
p3220
tp3221
asg24
V[ -tense ]
p3222
sbasg23
I00
sg24
g3222
sg25
I00
sg26
S'R'
sbsg37
(irule
ConstantPhoneme
p3223
(dp3224
S'p'
g3033
sbsg24
Vn\u0303 ---> place1 /  _ [ -tense ]
p3225
sba(irule
Rule
p3226
(dp3227
g17
(irule
Guard
p3228
(dp3229
g20
I01
sg21
(lp3230
sg23
I00
sg24
V#
sg25
I00
sg26
S'L'
sbsg27
(irule
PlaceSpecification
p3231
(dp3232
g151
I1
sbsg33
(irule
Guard
p3233
(dp3234
g20
I00
sg21
(lp3235
(irule
FeatureMatrix
p3236
(dp3237
g30
(lp3238
(I00
g3095
tp3239
asg24
V[ -continuant ]
p3240
sbasg23
I00
sg24
g3240
sg25
I00
sg26
S'R'
sbsg37
(irule
FeatureMatrix
p3241
(dp3242
g30
(lp3243
sg24
V[  ]
p3244
sbsg24
V[  ] ---> place1 / # _ [ -continuant ]
p3245
sba(irule
Rule
p3246
(dp3247
g17
(irule
Guard
p3248
(dp3249
g20
I00
sg21
(lp3250
sg23
I00
sg24
V
sg25
I00
sg26
S'L'
sbsg27
(irule
PlaceSpecification
p3251
(dp3252
g151
I1
sbsg33
(irule
Guard
p3253
(dp3254
g20
I00
sg21
(lp3255
(irule
FeatureMatrix
p3256
(dp3257
g30
(lp3258
(I00
S'vowel'
p3259
tp3260
asg24
V[ -vowel ]
p3261
sbasg23
I00
sg24
g3261
sg25
I00
sg26
S'R'
sbsg37
(irule
ConstantPhoneme
p3262
(dp3263
S'p'
g3033
sbsg24
Vn\u0303 ---> place1 /  _ [ -vowel ]
p3264
sba(irule
Rule
p3265
(dp3266
g17
(irule
Guard
p3267
(dp3268
g20
I00
sg21
(lp3269
sg23
I00
sg24
V
sg25
I00
sg26
S'L'
sbsg27
(irule
PlaceSpecification
p3270
(dp3271
g151
I1
sbsg33
(irule
Guard
p3272
(dp3273
g20
I00
sg21
(lp3274
(irule
FeatureMatrix
p3275
(dp3276
g30
(lp3277
(I00
g3095
tp3278
asg24
V[ -continuant ]
p3279
sbasg23
I00
sg24
g3279
sg25
I00
sg26
S'R'
sbsg37
(irule
FeatureMatrix
p3280
(dp3281
g30
(lp3282
(I01
g3013
tp3283
asg24
V[ +nasal ]
p3284
sbsg24
V[ +nasal ] ---> place1 /  _ [ -continuant ]
p3285
sba(irule
Rule
p3286
(dp3287
g17
(irule
Guard
p3288
(dp3289
g20
I01
sg21
(lp3290
sg23
I00
sg24
V#
sg25
I00
sg26
S'L'
sbsg27
(irule
PlaceSpecification
p3291
(dp3292
g151
I1
sbsg33
(irule
Guard
p3293
(dp3294
g20
I00
sg21
(lp3295
sg23
I00
sg24
V
sg25
I00
sg26
S'R'
sbsg37
(irule
FeatureMatrix
p3296
(dp3297
g30
(lp3298
(I00
g3011
tp3299
a(I01
g3155
tp3300
asg24
V[ +voice -anterior ]
p3301
sbsg24
V[ +voice -anterior ] ---> place1 / # _ 
p3302
sba(irule
Rule
p3303
(dp3304
g17
(irule
Guard
p3305
(dp3306
g20
I01
sg21
(lp3307
sg23
I00
sg24
V#
sg25
I00
sg26
S'L'
sbsg27
(irule
PlaceSpecification
p3308
(dp3309
g151
I1
sbsg33
(irule
Guard
p3310
(dp3311
g20
I00
sg21
(lp3312
(irule
FeatureMatrix
p3313
(dp3314
g30
(lp3315
sg24
V[  ]
p3316
sbasg23
I00
sg24
g3316
sg25
I00
sg26
S'R'
sbsg37
(irule
FeatureMatrix
p3317
(dp3318
g30
(lp3319
(I01
g3048
tp3320
asg24
V[ +sonorant ]
p3321
sbsg24
V[ +sonorant ] ---> place1 / # _ [  ]
p3322
sba(irule
Rule
p3323
(dp3324
g17
(irule
Guard
p3325
(dp3326
g20
I00
sg21
(lp3327
sg23
I00
sg24
V
sg25
I00
sg26
S'L'
sbsg27
(irule
PlaceSpecification
p3328
(dp3329
g151
I1
sbsg33
(irule
Guard
p3330
(dp3331
g20
I00
sg21
(lp3332
(irule
FeatureMatrix
p3333
(dp3334
g30
(lp3335
(I00
S'low'
p3336
tp3337
asg24
V[ -low ]
p3338
sbasg23
I00
sg24
g3338
sg25
I00
sg26
S'R'
sbsg37
(irule
ConstantPhoneme
p3339
(dp3340
S'p'
g3033
sbsg24
Vn\u0303 ---> place1 /  _ [ -low ]
p3341
sba(irule
Rule
p3342
(dp3343
g17
(irule
Guard
p3344
(dp3345
g20
I00
sg21
(lp3346
sg23
I00
sg24
V
sg25
I00
sg26
S'L'
sbsg27
(irule
PlaceSpecification
p3347
(dp3348
g151
I1
sbsg33
(irule
Guard
p3349
(dp3350
g20
I00
sg21
(lp3351
(irule
FeatureMatrix
p3352
(dp3353
g30
(lp3354
(I00
g3336
tp3355
asg24
V[ -low ]
p3356
sbasg23
I00
sg24
g3356
sg25
I00
sg26
S'R'
sbsg37
(irule
FeatureMatrix
p3357
(dp3358
g30
(lp3359
(I01
g3013
tp3360
asg24
V[ +nasal ]
p3361
sbsg24
V[ +nasal ] ---> place1 /  _ [ -low ]
p3362
sba(irule
Rule
p3363
(dp3364
g17
(irule
Guard
p3365
(dp3366
g20
I00
sg21
(lp3367
sg23
I00
sg24
V
sg25
I00
sg26
S'L'
sbsg27
(irule
PlaceSpecification
p3368
(dp3369
g151
I1
sbsg33
(irule
Guard
p3370
(dp3371
g20
I00
sg21
(lp3372
(irule
FeatureMatrix
p3373
(dp3374
g30
(lp3375
(I00
g3220
tp3376
asg24
V[ -tense ]
p3377
sbasg23
I00
sg24
g3377
sg25
I00
sg26
S'R'
sbsg37
(irule
FeatureMatrix
p3378
(dp3379
g30
(lp3380
(I01
g3013
tp3381
asg24
V[ +nasal ]
p3382
sbsg24
V[ +nasal ] ---> place1 /  _ [ -tense ]
p3383
sba(irule
Rule
p3384
(dp3385
g17
(irule
Guard
p3386
(dp3387
g20
I00
sg21
(lp3388
sg23
I00
sg24
V
sg25
I00
sg26
S'L'
sbsg27
(irule
PlaceSpecification
p3389
(dp3390
g151
I1
sbsg33
(irule
Guard
p3391
(dp3392
g20
I00
sg21
(lp3393
(irule
FeatureMatrix
p3394
(dp3395
g30
(lp3396
(I00
S'sibilant'
p3397
tp3398
asg24
V[ -sibilant ]
p3399
sbasg23
I00
sg24
g3399
sg25
I00
sg26
S'R'
sbsg37
(irule
ConstantPhoneme
p3400
(dp3401
S'p'
g3033
sbsg24
Vn\u0303 ---> place1 /  _ [ -sibilant ]
p3402
sba(irule
Rule
p3403
(dp3404
g17
(irule
Guard
p3405
(dp3406
g20
I00
sg21
(lp3407
sg23
I00
sg24
V
sg25
I00
sg26
S'L'
sbsg27
(irule
PlaceSpecification
p3408
(dp3409
g151
I1
sbsg33
(irule
Guard
p3410
(dp3411
g20
I00
sg21
(lp3412
(irule
FeatureMatrix
p3413
(dp3414
g30
(lp3415
(I00
g3013
tp3416
asg24
V[ -nasal ]
p3417
sbasg23
I00
sg24
g3417
sg25
I00
sg26
S'R'
sbsg37
(irule
ConstantPhoneme
p3418
(dp3419
S'p'
g3033
sbsg24
Vn\u0303 ---> place1 /  _ [ -nasal ]
p3420
sba(irule
Rule
p3421
(dp3422
g17
(irule
Guard
p3423
(dp3424
g20
I01
sg21
(lp3425
sg23
I00
sg24
V#
sg25
I00
sg26
S'L'
sbsg27
(irule
PlaceSpecification
p3426
(dp3427
g151
I1
sbsg33
(irule
Guard
p3428
(dp3429
g20
I00
sg21
(lp3430
(irule
FeatureMatrix
p3431
(dp3432
g30
(lp3433
sg24
V[  ]
p3434
sbasg23
I00
sg24
g3434
sg25
I00
sg26
S'R'
sbsg37
(irule
ConstantPhoneme
p3435
(dp3436
S'p'
g3033
sbsg24
Vn\u0303 ---> place1 / # _ [  ]
p3437
sba(irule
Rule
p3438
(dp3439
g17
(irule
Guard
p3440
(dp3441
g20
I00
sg21
(lp3442
sg23
I00
sg24
V
sg25
I00
sg26
S'L'
sbsg27
(irule
PlaceSpecification
p3443
(dp3444
g151
I1
sbsg33
(irule
Guard
p3445
(dp3446
g20
I00
sg21
(lp3447
(irule
FeatureMatrix
p3448
(dp3449
g30
(lp3450
sg24
V[  ]
p3451
sbasg23
I00
sg24
g3451
sg25
I00
sg26
S'R'
sbsg37
(irule
FeatureMatrix
p3452
(dp3453
g30
(lp3454
(I00
g3011
tp3455
a(I01
g3013
tp3456
asg24
V[ +nasal -anterior ]
p3457
sbsg24
V[ +nasal -anterior ] ---> place1 /  _ [  ]
p3458
sba(irule
Rule
p3459
(dp3460
g17
(irule
Guard
p3461
(dp3462
g20
I01
sg21
(lp3463
sg23
I00
sg24
V#
sg25
I00
sg26
S'L'
sbsg27
(irule
PlaceSpecification
p3464
(dp3465
g151
I1
sbsg33
(irule
Guard
p3466
(dp3467
g20
I00
sg21
(lp3468
sg23
I00
sg24
V
sg25
I00
sg26
S'R'
sbsg37
(irule
FeatureMatrix
p3469
(dp3470
g30
(lp3471
(I00
g3011
tp3472
a(I01
g3013
tp3473
asg24
V[ +nasal -anterior ]
p3474
sbsg24
V[ +nasal -anterior ] ---> place1 / # _ 
p3475
sba(irule
Rule
p3476
(dp3477
g17
(irule
Guard
p3478
(dp3479
g20
I01
sg21
(lp3480
sg23
I00
sg24
V#
sg25
I00
sg26
S'L'
sbsg27
(irule
PlaceSpecification
p3481
(dp3482
g151
I1
sbsg33
(irule
Guard
p3483
(dp3484
g20
I00
sg21
(lp3485
sg23
I00
sg24
V
sg25
I00
sg26
S'R'
sbsg37
(irule
FeatureMatrix
p3486
(dp3487
g30
(lp3488
(I00
S'rounded'
p3489
tp3490
a(I01
g3013
tp3491
asg24
V[ +nasal -rounded ]
p3492
sbsg24
V[ +nasal -rounded ] ---> place1 / # _ 
p3493
sba(irule
Rule
p3494
(dp3495
g17
(irule
Guard
p3496
(dp3497
g20
I00
sg21
(lp3498
sg23
I00
sg24
V
sg25
I00
sg26
S'L'
sbsg27
(irule
PlaceSpecification
p3499
(dp3500
g151
I1
sbsg33
(irule
Guard
p3501
(dp3502
g20
I00
sg21
(lp3503
(irule
FeatureMatrix
p3504
(dp3505
g30
(lp3506
(I00
g3259
tp3507
asg24
V[ -vowel ]
p3508
sbasg23
I00
sg24
g3508
sg25
I00
sg26
S'R'
sbsg37
(irule
FeatureMatrix
p3509
(dp3510
g30
(lp3511
(I01
g3013
tp3512
asg24
V[ +nasal ]
p3513
sbsg24
V[ +nasal ] ---> place1 /  _ [ -vowel ]
p3514
sba(irule
Rule
p3515
(dp3516
g17
(irule
Guard
p3517
(dp3518
g20
I00
sg21
(lp3519
sg23
I00
sg24
V
sg25
I00
sg26
S'L'
sbsg27
(irule
PlaceSpecification
p3520
(dp3521
g151
I1
sbsg33
(irule
Guard
p3522
(dp3523
g20
I00
sg21
(lp3524
(irule
FeatureMatrix
p3525
(dp3526
g30
(lp3527
(I00
g3048
tp3528
asg24
V[ -sonorant ]
p3529
sbasg23
I00
sg24
g3529
sg25
I00
sg26
S'R'
sbsg37
(irule
FeatureMatrix
p3530
(dp3531
g30
(lp3532
(I00
g3095
tp3533
asg24
V[ -continuant ]
p3534
sbsg24
V[ -continuant ] ---> place1 /  _ [ -sonorant ]
p3535
sba(irule
Rule
p3536
(dp3537
g17
(irule
Guard
p3538
(dp3539
g20
I00
sg21
(lp3540
sg23
I00
sg24
V
sg25
I00
sg26
S'L'
sbsg27
(irule
PlaceSpecification
p3541
(dp3542
g151
I1
sbsg33
(irule
Guard
p3543
(dp3544
g20
I00
sg21
(lp3545
(irule
FeatureMatrix
p3546
(dp3547
g30
(lp3548
(I00
g3220
tp3549
asg24
V[ -tense ]
p3550
sbasg23
I00
sg24
g3550
sg25
I00
sg26
S'R'
sbsg37
(irule
FeatureMatrix
p3551
(dp3552
g30
(lp3553
(I01
S'coronal'
p3554
tp3555
asg24
V[ +coronal ]
p3556
sbsg24
V[ +coronal ] ---> place1 /  _ [ -tense ]
p3557
sba(irule
Rule
p3558
(dp3559
g17
(irule
Guard
p3560
(dp3561
g20
I01
sg21
(lp3562
sg23
I00
sg24
V#
sg25
I00
sg26
S'L'
sbsg27
(irule
PlaceSpecification
p3563
(dp3564
g151
I1
sbsg33
(irule
Guard
p3565
(dp3566
g20
I00
sg21
(lp3567
(irule
FeatureMatrix
p3568
(dp3569
g30
(lp3570
sg24
V[  ]
p3571
sbasg23
I00
sg24
g3571
sg25
I00
sg26
S'R'
sbsg37
(irule
FeatureMatrix
p3572
(dp3573
g30
(lp3574
(I01
g3013
tp3575
asg24
V[ +nasal ]
p3576
sbsg24
V[ +nasal ] ---> place1 / # _ [  ]
p3577
sba(irule
Rule
p3578
(dp3579
g17
(irule
Guard
p3580
(dp3581
g20
I00
sg21
(lp3582
sg23
I00
sg24
V
sg25
I00
sg26
S'L'
sbsg27
(irule
PlaceSpecification
p3583
(dp3584
g151
I1
sbsg33
(irule
Guard
p3585
(dp3586
g20
I00
sg21
(lp3587
(irule
FeatureMatrix
p3588
(dp3589
g30
(lp3590
(I00
g3259
tp3591
asg24
V[ -vowel ]
p3592
sbasg23
I00
sg24
g3592
sg25
I00
sg26
S'R'
sbsg37
(irule
FeatureMatrix
p3593
(dp3594
g30
(lp3595
(I01
g3554
tp3596
asg24
V[ +coronal ]
p3597
sbsg24
V[ +coronal ] ---> place1 /  _ [ -vowel ]
p3598
sba(irule
Rule
p3599
(dp3600
g17
(irule
Guard
p3601
(dp3602
g20
I00
sg21
(lp3603
sg23
I00
sg24
V
sg25
I00
sg26
S'L'
sbsg27
(irule
PlaceSpecification
p3604
(dp3605
g151
I1
sbsg33
(irule
Guard
p3606
(dp3607
g20
I00
sg21
(lp3608
(irule
FeatureMatrix
p3609
(dp3610
g30
(lp3611
(I00
g3048
tp3612
asg24
V[ -sonorant ]
p3613
sbasg23
I00
sg24
g3613
sg25
I00
sg26
S'R'
sbsg37
(irule
FeatureMatrix
p3614
(dp3615
g30
(lp3616
(I01
g3554
tp3617
asg24
V[ +coronal ]
p3618
sbsg24
V[ +coronal ] ---> place1 /  _ [ -sonorant ]
p3619
sba(irule
Rule
p3620
(dp3621
g17
(irule
Guard
p3622
(dp3623
g20
I00
sg21
(lp3624
sg23
I00
sg24
V
sg25
I00
sg26
S'L'
sbsg27
(irule
PlaceSpecification
p3625
(dp3626
g151
I1
sbsg33
(irule
Guard
p3627
(dp3628
g20
I00
sg21
(lp3629
(irule
FeatureMatrix
p3630
(dp3631
g30
(lp3632
(I00
g3048
tp3633
asg24
V[ -sonorant ]
p3634
sbasg23
I00
sg24
g3634
sg25
I00
sg26
S'R'
sbsg37
(irule
FeatureMatrix
p3635
(dp3636
g30
(lp3637
(I00
g3220
tp3638
asg24
V[ -tense ]
p3639
sbsg24
V[ -tense ] ---> place1 /  _ [ -sonorant ]
p3640
sba(irule
Rule
p3641
(dp3642
g17
(irule
Guard
p3643
(dp3644
g20
I00
sg21
(lp3645
sg23
I00
sg24
V
sg25
I00
sg26
S'L'
sbsg27
(irule
PlaceSpecification
p3646
(dp3647
g151
I1
sbsg33
(irule
Guard
p3648
(dp3649
g20
I00
sg21
(lp3650
(irule
FeatureMatrix
p3651
(dp3652
g30
(lp3653
(I00
S'lateral'
p3654
tp3655
asg24
V[ -lateral ]
p3656
sbasg23
I00
sg24
g3656
sg25
I00
sg26
S'R'
sbsg37
(irule
ConstantPhoneme
p3657
(dp3658
S'p'
g3033
sbsg24
Vn\u0303 ---> place1 /  _ [ -lateral ]
p3659
sba(irule
Rule
p3660
(dp3661
g17
(irule
Guard
p3662
(dp3663
g20
I00
sg21
(lp3664
sg23
I00
sg24
V
sg25
I00
sg26
S'L'
sbsg27
(irule
PlaceSpecification
p3665
(dp3666
g151
I1
sbsg33
(irule
Guard
p3667
(dp3668
g20
I00
sg21
(lp3669
sg23
I00
sg24
V
sg25
I00
sg26
S'R'
sbsg37
(irule
FeatureMatrix
p3670
(dp3671
g30
(lp3672
(I00
g3011
tp3673
a(I00
g3489
tp3674
a(I01
g3013
tp3675
asg24
V[ +nasal -anterior -rounded ]
p3676
sbsg24
V[ +nasal -anterior -rounded ] ---> place1 /  _ 
p3677
sba(irule
Rule
p3678
(dp3679
g17
(irule
Guard
p3680
(dp3681
g20
I00
sg21
(lp3682
sg23
I00
sg24
V
sg25
I00
sg26
S'L'
sbsg27
(irule
PlaceSpecification
p3683
(dp3684
g151
I1
sbsg33
(irule
Guard
p3685
(dp3686
g20
I00
sg21
(lp3687
sg23
I00
sg24
V
sg25
I00
sg26
S'R'
sbsg37
(irule
FeatureMatrix
p3688
(dp3689
g30
(lp3690
(I00
g3011
tp3691
a(I01
g3013
tp3692
a(I01
g3155
tp3693
asg24
V[ +nasal +voice -anterior ]
p3694
sbsg24
V[ +nasal +voice -anterior ] ---> place1 /  _ 
p3695
sba(irule
Rule
p3696
(dp3697
g17
(irule
Guard
p3698
(dp3699
g20
I00
sg21
(lp3700
sg23
I00
sg24
V
sg25
I00
sg26
S'L'
sbsg27
(irule
PlaceSpecification
p3701
(dp3702
g151
I1
sbsg33
(irule
Guard
p3703
(dp3704
g20
I00
sg21
(lp3705
(irule
FeatureMatrix
p3706
(dp3707
g30
(lp3708
(I00
g3048
tp3709
asg24
V[ -sonorant ]
p3710
sbasg23
I00
sg24
g3710
sg25
I00
sg26
S'R'
sbsg37
(irule
FeatureMatrix
p3711
(dp3712
g30
(lp3713
(I01
g3013
tp3714
asg24
V[ +nasal ]
p3715
sbsg24
V[ +nasal ] ---> place1 /  _ [ -sonorant ]
p3716
sba(irule
Rule
p3717
(dp3718
g17
(irule
Guard
p3719
(dp3720
g20
I00
sg21
(lp3721
sg23
I00
sg24
V
sg25
I00
sg26
S'L'
sbsg27
(irule
PlaceSpecification
p3722
(dp3723
g151
I1
sbsg33
(irule
Guard
p3724
(dp3725
g20
I00
sg21
(lp3726
(irule
FeatureMatrix
p3727
(dp3728
g30
(lp3729
(I00
S'liquid'
p3730
tp3731
asg24
V[ -liquid ]
p3732
sbasg23
I00
sg24
g3732
sg25
I00
sg26
S'R'
sbsg37
(irule
ConstantPhoneme
p3733
(dp3734
S'p'
g3033
sbsg24
Vn\u0303 ---> place1 /  _ [ -liquid ]
p3735
sba(irule
Rule
p3736
(dp3737
g17
(irule
Guard
p3738
(dp3739
g20
I00
sg21
(lp3740
sg23
I00
sg24
V
sg25
I00
sg26
S'L'
sbsg27
(irule
PlaceSpecification
p3741
(dp3742
g151
I1
sbsg33
(irule
Guard
p3743
(dp3744
g20
I00
sg21
(lp3745
sg23
I00
sg24
V
sg25
I00
sg26
S'R'
sbsg37
(irule
FeatureMatrix
p3746
(dp3747
g30
(lp3748
(I00
g3011
tp3749
a(I00
S'glide'
p3750
tp3751
a(I01
g3013
tp3752
asg24
V[ +nasal -anterior -glide ]
p3753
sbsg24
V[ +nasal -anterior -glide ] ---> place1 /  _ 
p3754
sba(irule
Rule
p3755
(dp3756
g17
(irule
Guard
p3757
(dp3758
g20
I00
sg21
(lp3759
sg23
I00
sg24
V
sg25
I00
sg26
S'L'
sbsg27
(irule
PlaceSpecification
p3760
(dp3761
g151
I1
sbsg33
(irule
Guard
p3762
(dp3763
g20
I00
sg21
(lp3764
(irule
FeatureMatrix
p3765
(dp3766
g30
(lp3767
(I00
g3048
tp3768
asg24
V[ -sonorant ]
p3769
sbasg23
I00
sg24
g3769
sg25
I00
sg26
S'R'
sbsg37
(irule
ConstantPhoneme
p3770
(dp3771
S'p'
g3033
sbsg24
Vn\u0303 ---> place1 /  _ [ -sonorant ]
p3772
sba(irule
Rule
p3773
(dp3774
g17
(irule
Guard
p3775
(dp3776
g20
I00
sg21
(lp3777
sg23
I00
sg24
V
sg25
I00
sg26
S'L'
sbsg27
(irule
PlaceSpecification
p3778
(dp3779
g151
I1
sbsg33
(irule
Guard
p3780
(dp3781
g20
I00
sg21
(lp3782
(irule
FeatureMatrix
p3783
(dp3784
g30
(lp3785
(I00
g3095
tp3786
asg24
V[ -continuant ]
p3787
sbasg23
I00
sg24
g3787
sg25
I00
sg26
S'R'
sbsg37
(irule
ConstantPhoneme
p3788
(dp3789
S'p'
g3033
sbsg24
Vn\u0303 ---> place1 /  _ [ -continuant ]
p3790
sba(irule
Rule
p3791
(dp3792
g17
(irule
Guard
p3793
(dp3794
g20
I01
sg21
(lp3795
sg23
I00
sg24
V#
sg25
I00
sg26
S'L'
sbsg27
(irule
PlaceSpecification
p3796
(dp3797
g151
I1
sbsg33
(irule
Guard
p3798
(dp3799
g20
I00
sg21
(lp3800
sg23
I00
sg24
V
sg25
I00
sg26
S'R'
sbsg37
(irule
FeatureMatrix
p3801
(dp3802
g30
(lp3803
(I01
g3048
tp3804
a(I00
g3397
tp3805
asg24
V[ +sonorant -sibilant ]
p3806
sbsg24
V[ +sonorant -sibilant ] ---> place1 / # _ 
p3807
sba(irule
Rule
p3808
(dp3809
g17
(irule
Guard
p3810
(dp3811
g20
I00
sg21
(lp3812
sg23
I00
sg24
V
sg25
I00
sg26
S'L'
sbsg27
(irule
PlaceSpecification
p3813
(dp3814
g151
I1
sbsg33
(irule
Guard
p3815
(dp3816
g20
I00
sg21
(lp3817
(irule
FeatureMatrix
p3818
(dp3819
g30
(lp3820
(I00
g3048
tp3821
asg24
V[ -sonorant ]
p3822
sbasg23
I00
sg24
g3822
sg25
I00
sg26
S'R'
sbsg37
(irule
FeatureMatrix
p3823
(dp3824
g30
(lp3825
(I00
g3259
tp3826
asg24
V[ -vowel ]
p3827
sbsg24
V[ -vowel ] ---> place1 /  _ [ -sonorant ]
p3828
sba(irule
Rule
p3829
(dp3830
g17
(irule
Guard
p3831
(dp3832
g20
I00
sg21
(lp3833
sg23
I00
sg24
V
sg25
I00
sg26
S'L'
sbsg27
(irule
PlaceSpecification
p3834
(dp3835
g151
I1
sbsg33
(irule
Guard
p3836
(dp3837
g20
I00
sg21
(lp3838
(irule
FeatureMatrix
p3839
(dp3840
g30
(lp3841
(I00
g3095
tp3842
asg24
V[ -continuant ]
p3843
sbasg23
I00
sg24
g3843
sg25
I00
sg26
S'R'
sbsg37
(irule
FeatureMatrix
p3844
(dp3845
g30
(lp3846
(I00
g3095
tp3847
asg24
V[ -continuant ]
p3848
sbsg24
V[ -continuant ] ---> place1 /  _ [ -continuant ]
p3849
sba(irule
Rule
p3850
(dp3851
g17
(irule
Guard
p3852
(dp3853
g20
I00
sg21
(lp3854
sg23
I00
sg24
V
sg25
I00
sg26
S'L'
sbsg27
(irule
PlaceSpecification
p3855
(dp3856
g151
I1
sbsg33
(irule
Guard
p3857
(dp3858
g20
I00
sg21
(lp3859
(irule
FeatureMatrix
p3860
(dp3861
g30
(lp3862
(I00
g3095
tp3863
asg24
V[ -continuant ]
p3864
sbasg23
I00
sg24
g3864
sg25
I00
sg26
S'R'
sbsg37
(irule
FeatureMatrix
p3865
(dp3866
g30
(lp3867
(I00
g3220
tp3868
asg24
V[ -tense ]
p3869
sbsg24
V[ -tense ] ---> place1 /  _ [ -continuant ]
p3870
sba(irule
Rule
p3871
(dp3872
g17
(irule
Guard
p3873
(dp3874
g20
I00
sg21
(lp3875
sg23
I00
sg24
V
sg25
I00
sg26
S'L'
sbsg27
(irule
PlaceSpecification
p3876
(dp3877
g151
I1
sbsg33
(irule
Guard
p3878
(dp3879
g20
I00
sg21
(lp3880
sg23
I00
sg24
V
sg25
I00
sg26
S'R'
sbsg37
(irule
FeatureMatrix
p3881
(dp3882
g30
(lp3883
(I00
g3011
tp3884
a(I00
g3654
tp3885
a(I01
g3013
tp3886
asg24
V[ +nasal -anterior -lateral ]
p3887
sbsg24
V[ +nasal -anterior -lateral ] ---> place1 /  _ 
p3888
sba(irule
Rule
p3889
(dp3890
g17
(irule
Guard
p3891
(dp3892
g20
I00
sg21
(lp3893
sg23
I00
sg24
V
sg25
I00
sg26
S'L'
sbsg27
(irule
PlaceSpecification
p3894
(dp3895
g151
I1
sbsg33
(irule
Guard
p3896
(dp3897
g20
I00
sg21
(lp3898
(irule
FeatureMatrix
p3899
(dp3900
g30
(lp3901
(I00
g3095
tp3902
asg24
V[ -continuant ]
p3903
sbasg23
I00
sg24
g3903
sg25
I00
sg26
S'R'
sbsg37
(irule
FeatureMatrix
p3904
(dp3905
g30
(lp3906
(I00
g3259
tp3907
asg24
V[ -vowel ]
p3908
sbsg24
V[ -vowel ] ---> place1 /  _ [ -continuant ]
p3909
sba(irule
Rule
p3910
(dp3911
g17
(irule
Guard
p3912
(dp3913
g20
I01
sg21
(lp3914
sg23
I00
sg24
V#
sg25
I00
sg26
S'L'
sbsg27
(irule
PlaceSpecification
p3915
(dp3916
g151
I1
sbsg33
(irule
Guard
p3917
(dp3918
g20
I00
sg21
(lp3919
sg23
I00
sg24
V
sg25
I00
sg26
S'R'
sbsg37
(irule
FeatureMatrix
p3920
(dp3921
g30
(lp3922
(I01
g3554
tp3923
a(I01
g3155
tp3924
asg24
V[ +coronal +voice ]
p3925
sbsg24
V[ +coronal +voice ] ---> place1 / # _ 
p3926
sba(irule
Rule
p3927
(dp3928
g17
(irule
Guard
p3929
(dp3930
g20
I00
sg21
(lp3931
sg23
I00
sg24
V
sg25
I00
sg26
S'L'
sbsg27
(irule
PlaceSpecification
p3932
(dp3933
g151
I1
sbsg33
(irule
Guard
p3934
(dp3935
g20
I00
sg21
(lp3936
(irule
FeatureMatrix
p3937
(dp3938
g30
(lp3939
(I00
g3489
tp3940
asg24
V[ -rounded ]
p3941
sbasg23
I00
sg24
g3941
sg25
I00
sg26
S'R'
sbsg37
(irule
ConstantPhoneme
p3942
(dp3943
S'p'
g3033
sbsg24
Vn\u0303 ---> place1 /  _ [ -rounded ]
p3944
sba(irule
Rule
p3945
(dp3946
g17
(irule
Guard
p3947
(dp3948
g20
I00
sg21
(lp3949
sg23
I00
sg24
V
sg25
I00
sg26
S'L'
sbsg27
(irule
PlaceSpecification
p3950
(dp3951
g151
I1
sbsg33
(irule
Guard
p3952
(dp3953
g20
I00
sg21
(lp3954
(irule
FeatureMatrix
p3955
(dp3956
g30
(lp3957
(I00
g3750
tp3958
asg24
V[ -glide ]
p3959
sbasg23
I00
sg24
g3959
sg25
I00
sg26
S'R'
sbsg37
(irule
ConstantPhoneme
p3960
(dp3961
S'p'
g3033
sbsg24
Vn\u0303 ---> place1 /  _ [ -glide ]
p3962
sba(irule
Rule
p3963
(dp3964
g17
(irule
Guard
p3965
(dp3966
g20
I00
sg21
(lp3967
sg23
I00
sg24
V
sg25
I00
sg26
S'L'
sbsg27
(irule
PlaceSpecification
p3968
(dp3969
g151
I1
sbsg33
(irule
Guard
p3970
(dp3971
g20
I00
sg21
(lp3972
sg23
I00
sg24
V
sg25
I00
sg26
S'R'
sbsg37
(irule
FeatureMatrix
p3973
(dp3974
g30
(lp3975
(I00
g3011
tp3976
a(I00
g3095
tp3977
a(I01
g3013
tp3978
asg24
V[ +nasal -anterior -continuant ]
p3979
sbsg24
V[ +nasal -anterior -continuant ] ---> place1 /  _ 
p3980
sba(irule
Rule
p3981
(dp3982
g17
(irule
Guard
p3983
(dp3984
g20
I00
sg21
(lp3985
sg23
I00
sg24
V
sg25
I00
sg26
S'L'
sbsg27
(irule
PlaceSpecification
p3986
(dp3987
g151
I1
sbsg33
(irule
Guard
p3988
(dp3989
g20
I00
sg21
(lp3990
(irule
FeatureMatrix
p3991
(dp3992
g30
(lp3993
(I00
g3095
tp3994
asg24
V[ -continuant ]
p3995
sbasg23
I00
sg24
g3995
sg25
I00
sg26
S'R'
sbsg37
(irule
FeatureMatrix
p3996
(dp3997
g30
(lp3998
(I01
g3554
tp3999
asg24
V[ +coronal ]
p4000
sbsg24
V[ +coronal ] ---> place1 /  _ [ -continuant ]
p4001
sba(irule
Rule
p4002
(dp4003
g17
(irule
Guard
p4004
(dp4005
g20
I01
sg21
(lp4006
sg23
I00
sg24
V#
sg25
I00
sg26
S'L'
sbsg27
(irule
PlaceSpecification
p4007
(dp4008
g151
I1
sbsg33
(irule
Guard
p4009
(dp4010
g20
I00
sg21
(lp4011
sg23
I00
sg24
V
sg25
I00
sg26
S'R'
sbsg37
(irule
FeatureMatrix
p4012
(dp4013
g30
(lp4014
(I00
g3095
tp4015
a(I01
g3155
tp4016
asg24
V[ +voice -continuant ]
p4017
sbsg24
V[ +voice -continuant ] ---> place1 / # _ 
p4018
sba(irule
Rule
p4019
(dp4020
g17
(irule
Guard
p4021
(dp4022
g20
I01
sg21
(lp4023
sg23
I00
sg24
V#
sg25
I00
sg26
S'L'
sbsg27
(irule
PlaceSpecification
p4024
(dp4025
g151
I1
sbsg33
(irule
Guard
p4026
(dp4027
g20
I00
sg21
(lp4028
sg23
I00
sg24
V
sg25
I00
sg26
S'R'
sbsg37
(irule
FeatureMatrix
p4029
(dp4030
g30
(lp4031
(I01
g3048
tp4032
a(I00
S'high'
p4033
tp4034
asg24
V[ +sonorant -high ]
p4035
sbsg24
V[ +sonorant -high ] ---> place1 / # _ 
p4036
sba(irule
Rule
p4037
(dp4038
g17
(irule
Guard
p4039
(dp4040
g20
I01
sg21
(lp4041
sg23
I00
sg24
V#
sg25
I00
sg26
S'L'
sbsg27
(irule
PlaceSpecification
p4042
(dp4043
g151
I1
sbsg33
(irule
Guard
p4044
(dp4045
g20
I00
sg21
(lp4046
sg23
I00
sg24
V
sg25
I00
sg26
S'R'
sbsg37
(irule
FeatureMatrix
p4047
(dp4048
g30
(lp4049
(I00
S'back'
p4050
tp4051
a(I01
g3048
tp4052
asg24
V[ +sonorant -back ]
p4053
sbsg24
V[ +sonorant -back ] ---> place1 / # _ 
p4054
sba(irule
Rule
p4055
(dp4056
g17
(irule
Guard
p4057
(dp4058
g20
I01
sg21
(lp4059
sg23
I00
sg24
V#
sg25
I00
sg26
S'L'
sbsg27
(irule
PlaceSpecification
p4060
(dp4061
g151
I1
sbsg33
(irule
Guard
p4062
(dp4063
g20
I00
sg21
(lp4064
sg23
I00
sg24
V
sg25
I00
sg26
S'R'
sbsg37
(irule
FeatureMatrix
p4065
(dp4066
g30
(lp4067
(I01
g3048
tp4068
a(I00
g3336
tp4069
asg24
V[ +sonorant -low ]
p4070
sbsg24
V[ +sonorant -low ] ---> place1 / # _ 
p4071
sba(irule
Rule
p4072
(dp4073
g17
(irule
Guard
p4074
(dp4075
g20
I00
sg21
(lp4076
sg23
I00
sg24
V
sg25
I00
sg26
S'L'
sbsg27
(irule
PlaceSpecification
p4077
(dp4078
g151
I1
sbsg33
(irule
Guard
p4079
(dp4080
g20
I00
sg21
(lp4081
sg23
I00
sg24
V
sg25
I00
sg26
S'R'
sbsg37
(irule
FeatureMatrix
p4082
(dp4083
g30
(lp4084
(I00
g3011
tp4085
a(I00
g3730
tp4086
a(I01
g3013
tp4087
asg24
V[ +nasal -anterior -liquid ]
p4088
sbsg24
V[ +nasal -anterior -liquid ] ---> place1 /  _ 
p4089
sba(irule
Rule
p4090
(dp4091
g17
(irule
Guard
p4092
(dp4093
g20
I01
sg21
(lp4094
sg23
I00
sg24
V#
sg25
I00
sg26
S'L'
sbsg27
(irule
PlaceSpecification
p4095
(dp4096
g151
I1
sbsg33
(irule
Guard
p4097
(dp4098
g20
I00
sg21
(lp4099
sg23
I00
sg24
V
sg25
I00
sg26
S'R'
sbsg37
(irule
FeatureMatrix
p4100
(dp4101
g30
(lp4102
(I00
g3750
tp4103
a(I01
g3013
tp4104
asg24
V[ +nasal -glide ]
p4105
sbsg24
V[ +nasal -glide ] ---> place1 / # _ 
p4106
sba(irule
Rule
p4107
(dp4108
g17
(irule
Guard
p4109
(dp4110
g20
I00
sg21
(lp4111
sg23
I00
sg24
V
sg25
I00
sg26
S'L'
sbsg27
(irule
PlaceSpecification
p4112
(dp4113
g151
I1
sbsg33
(irule
Guard
p4114
(dp4115
g20
I00
sg21
(lp4116
sg23
I00
sg24
V
sg25
I00
sg26
S'R'
sbsg37
(irule
FeatureMatrix
p4117
(dp4118
g30
(lp4119
(I00
g3011
tp4120
a(I01
g3013
tp4121
a(I00
g3336
tp4122
asg24
V[ +nasal -anterior -low ]
p4123
sbsg24
V[ +nasal -anterior -low ] ---> place1 /  _ 
p4124
sba(irule
Rule
p4125
(dp4126
g17
(irule
Guard
p4127
(dp4128
g20
I00
sg21
(lp4129
sg23
I00
sg24
V
sg25
I00
sg26
S'L'
sbsg27
(irule
PlaceSpecification
p4130
(dp4131
g151
I1
sbsg33
(irule
Guard
p4132
(dp4133
g20
I00
sg21
(lp4134
sg23
I00
sg24
V
sg25
I00
sg26
S'R'
sbsg37
(irule
FeatureMatrix
p4135
(dp4136
g30
(lp4137
(I00
g3011
tp4138
a(I01
g3013
tp4139
a(I00
g4033
tp4140
asg24
V[ +nasal -anterior -high ]
p4141
sbsg24
V[ +nasal -anterior -high ] ---> place1 /  _ 
p4142
sba(irule
Rule
p4143
(dp4144
g17
(irule
Guard
p4145
(dp4146
g20
I00
sg21
(lp4147
sg23
I00
sg24
V
sg25
I00
sg26
S'L'
sbsg27
(irule
PlaceSpecification
p4148
(dp4149
g151
I1
sbsg33
(irule
Guard
p4150
(dp4151
g20
I00
sg21
(lp4152
sg23
I00
sg24
V
sg25
I00
sg26
S'R'
sbsg37
(irule
FeatureMatrix
p4153
(dp4154
g30
(lp4155
(I00
g3011
tp4156
a(I01
g3013
tp4157
a(I01
g3048
tp4158
asg24
V[ +nasal +sonorant -anterior ]
p4159
sbsg24
V[ +nasal +sonorant -anterior ] ---> place1 /  _ 
p4160
sba(irule
Rule
p4161
(dp4162
g17
(irule
Guard
p4163
(dp4164
g20
I01
sg21
(lp4165
sg23
I00
sg24
V#
sg25
I00
sg26
S'L'
sbsg27
(irule
PlaceSpecification
p4166
(dp4167
g151
I1
sbsg33
(irule
Guard
p4168
(dp4169
g20
I00
sg21
(lp4170
sg23
I00
sg24
V
sg25
I00
sg26
S'R'
sbsg37
(irule
FeatureMatrix
p4171
(dp4172
g30
(lp4173
(I00
g3654
tp4174
a(I01
g3048
tp4175
asg24
V[ +sonorant -lateral ]
p4176
sbsg24
V[ +sonorant -lateral ] ---> place1 / # _ 
p4177
sba(irule
Rule
p4178
(dp4179
g17
(irule
Guard
p4180
(dp4181
g20
I01
sg21
(lp4182
sg23
I00
sg24
V#
sg25
I00
sg26
S'L'
sbsg27
(irule
PlaceSpecification
p4183
(dp4184
g151
I1
sbsg33
(irule
Guard
p4185
(dp4186
g20
I00
sg21
(lp4187
sg23
I00
sg24
V
sg25
I00
sg26
S'R'
sbsg37
(irule
FeatureMatrix
p4188
(dp4189
g30
(lp4190
(I01
g3048
tp4191
a(I01
g3155
tp4192
asg24
V[ +sonorant +voice ]
p4193
sbsg24
V[ +sonorant +voice ] ---> place1 / # _ 
p4194
sba(irule
Rule
p4195
(dp4196
g17
(irule
Guard
p4197
(dp4198
g20
I01
sg21
(lp4199
sg23
I00
sg24
V#
sg25
I00
sg26
S'L'
sbsg27
(irule
PlaceSpecification
p4200
(dp4201
g151
I1
sbsg33
(irule
Guard
p4202
(dp4203
g20
I00
sg21
(lp4204
sg23
I00
sg24
V
sg25
I00
sg26
S'R'
sbsg37
(irule
FeatureMatrix
p4205
(dp4206
g30
(lp4207
(I00
g3011
tp4208
a(I01
g3048
tp4209
asg24
V[ +sonorant -anterior ]
p4210
sbsg24
V[ +sonorant -anterior ] ---> place1 / # _ 
p4211
sba(irule
Rule
p4212
(dp4213
g17
(irule
Guard
p4214
(dp4215
g20
I00
sg21
(lp4216
sg23
I00
sg24
V
sg25
I00
sg26
S'L'
sbsg27
(irule
PlaceSpecification
p4217
(dp4218
g151
I1
sbsg33
(irule
Guard
p4219
(dp4220
g20
I00
sg21
(lp4221
sg23
I00
sg24
V
sg25
I00
sg26
S'R'
sbsg37
(irule
FeatureMatrix
p4222
(dp4223
g30
(lp4224
(I00
g3011
tp4225
a(I01
g3013
tp4226
a(I00
g4050
tp4227
asg24
V[ +nasal -anterior -back ]
p4228
sbsg24
V[ +nasal -anterior -back ] ---> place1 /  _ 
p4229
sba(irule
Rule
p4230
(dp4231
g17
(irule
Guard
p4232
(dp4233
g20
I00
sg21
(lp4234
sg23
I00
sg24
V
sg25
I00
sg26
S'L'
sbsg27
(irule
PlaceSpecification
p4235
(dp4236
g151
I1
sbsg33
(irule
Guard
p4237
(dp4238
g20
I00
sg21
(lp4239
sg23
I00
sg24
V
sg25
I00
sg26
S'R'
sbsg37
(irule
FeatureMatrix
p4240
(dp4241
g30
(lp4242
(I00
g3011
tp4243
a(I01
g3013
tp4244
a(I00
g3259
tp4245
asg24
V[ +nasal -anterior -vowel ]
p4246
sbsg24
V[ +nasal -anterior -vowel ] ---> place1 /  _ 
p4247
sba(irule
Rule
p4248
(dp4249
g17
(irule
Guard
p4250
(dp4251
g20
I01
sg21
(lp4252
sg23
I00
sg24
V#
sg25
I00
sg26
S'L'
sbsg27
(irule
PlaceSpecification
p4253
(dp4254
g151
I1
sbsg33
(irule
Guard
p4255
(dp4256
g20
I00
sg21
(lp4257
sg23
I00
sg24
V
sg25
I00
sg26
S'R'
sbsg37
(irule
FeatureMatrix
p4258
(dp4259
g30
(lp4260
(I00
g3654
tp4261
a(I01
g3013
tp4262
asg24
V[ +nasal -lateral ]
p4263
sbsg24
V[ +nasal -lateral ] ---> place1 / # _ 
p4264
sba(irule
Rule
p4265
(dp4266
g17
(irule
Guard
p4267
(dp4268
g20
I00
sg21
(lp4269
sg23
I00
sg24
V
sg25
I00
sg26
S'L'
sbsg27
(irule
PlaceSpecification
p4270
(dp4271
g151
I1
sbsg33
(irule
Guard
p4272
(dp4273
g20
I00
sg21
(lp4274
sg23
I00
sg24
V
sg25
I00
sg26
S'R'
sbsg37
(irule
FeatureMatrix
p4275
(dp4276
g30
(lp4277
(I00
g3011
tp4278
a(I01
g3013
tp4279
a(I00
g3397
tp4280
asg24
V[ +nasal -anterior -sibilant ]
p4281
sbsg24
V[ +nasal -anterior -sibilant ] ---> place1 /  _ 
p4282
sba(irule
Rule
p4283
(dp4284
g17
(irule
Guard
p4285
(dp4286
g20
I01
sg21
(lp4287
sg23
I00
sg24
V#
sg25
I00
sg26
S'L'
sbsg27
(irule
PlaceSpecification
p4288
(dp4289
g151
I1
sbsg33
(irule
Guard
p4290
(dp4291
g20
I00
sg21
(lp4292
sg23
I00
sg24
V
sg25
I00
sg26
S'R'
sbsg37
(irule
FeatureMatrix
p4293
(dp4294
g30
(lp4295
(I01
g3013
tp4296
a(I00
g3220
tp4297
asg24
V[ +nasal -tense ]
p4298
sbsg24
V[ +nasal -tense ] ---> place1 / # _ 
p4299
sba(irule
Rule
p4300
(dp4301
g17
(irule
Guard
p4302
(dp4303
g20
I01
sg21
(lp4304
sg23
I00
sg24
V#
sg25
I00
sg26
S'L'
sbsg27
(irule
PlaceSpecification
p4305
(dp4306
g151
I1
sbsg33
(irule
Guard
p4307
(dp4308
g20
I00
sg21
(lp4309
sg23
I00
sg24
V
sg25
I00
sg26
S'R'
sbsg37
(irule
FeatureMatrix
p4310
(dp4311
g30
(lp4312
(I00
g3730
tp4313
a(I01
g3048
tp4314
asg24
V[ +sonorant -liquid ]
p4315
sbsg24
V[ +sonorant -liquid ] ---> place1 / # _ 
p4316
sba(irule
Rule
p4317
(dp4318
g17
(irule
Guard
p4319
(dp4320
g20
I01
sg21
(lp4321
sg23
I00
sg24
V#
sg25
I00
sg26
S'L'
sbsg27
(irule
PlaceSpecification
p4322
(dp4323
g151
I1
sbsg33
(irule
Guard
p4324
(dp4325
g20
I00
sg21
(lp4326
sg23
I00
sg24
V
sg25
I00
sg26
S'R'
sbsg37
(irule
FeatureMatrix
p4327
(dp4328
g30
(lp4329
(I00
g3489
tp4330
a(I01
g3048
tp4331
asg24
V[ +sonorant -rounded ]
p4332
sbsg24
V[ +sonorant -rounded ] ---> place1 / # _ 
p4333
sba(irule
Rule
p4334
(dp4335
g17
(irule
Guard
p4336
(dp4337
g20
I00
sg21
(lp4338
sg23
I00
sg24
V
sg25
I00
sg26
S'L'
sbsg27
(irule
PlaceSpecification
p4339
(dp4340
g151
I1
sbsg33
(irule
Guard
p4341
(dp4342
g20
I00
sg21
(lp4343
sg23
I00
sg24
V
sg25
I00
sg26
S'R'
sbsg37
(irule
FeatureMatrix
p4344
(dp4345
g30
(lp4346
(I00
g3011
tp4347
a(I01
g3013
tp4348
a(I01
g3554
tp4349
asg24
V[ +coronal +nasal -anterior ]
p4350
sbsg24
V[ +coronal +nasal -anterior ] ---> place1 /  _ 
p4351
sba(irule
Rule
p4352
(dp4353
g17
(irule
Guard
p4354
(dp4355
g20
I00
sg21
(lp4356
sg23
I00
sg24
V
sg25
I00
sg26
S'L'
sbsg27
(irule
PlaceSpecification
p4357
(dp4358
g151
I1
sbsg33
(irule
Guard
p4359
(dp4360
g20
I00
sg21
(lp4361
sg23
I00
sg24
V
sg25
I00
sg26
S'R'
sbsg37
(irule
FeatureMatrix
p4362
(dp4363
g30
(lp4364
(I00
g3011
tp4365
a(I01
g3013
tp4366
a(I00
g3220
tp4367
asg24
V[ +nasal -anterior -tense ]
p4368
sbsg24
V[ +nasal -anterior -tense ] ---> place1 /  _ 
p4369
sba(irule
Rule
p4370
(dp4371
g17
(irule
Guard
p4372
(dp4373
g20
I01
sg21
(lp4374
sg23
I00
sg24
V#
sg25
I00
sg26
S'L'
sbsg27
(irule
PlaceSpecification
p4375
(dp4376
g151
I1
sbsg33
(irule
Guard
p4377
(dp4378
g20
I00
sg21
(lp4379
sg23
I00
sg24
V
sg25
I00
sg26
S'R'
sbsg37
(irule
FeatureMatrix
p4380
(dp4381
g30
(lp4382
(I01
g3048
tp4383
a(I01
g3554
tp4384
asg24
V[ +coronal +sonorant ]
p4385
sbsg24
V[ +coronal +sonorant ] ---> place1 / # _ 
p4386
sba(irule
Rule
p4387
(dp4388
g17
(irule
Guard
p4389
(dp4390
g20
I01
sg21
(lp4391
sg23
I00
sg24
V#
sg25
I00
sg26
S'L'
sbsg27
(irule
PlaceSpecification
p4392
(dp4393
g151
I1
sbsg33
(irule
Guard
p4394
(dp4395
g20
I00
sg21
(lp4396
sg23
I00
sg24
V
sg25
I00
sg26
S'R'
sbsg37
(irule
FeatureMatrix
p4397
(dp4398
g30
(lp4399
(I01
g3048
tp4400
a(I00
g3220
tp4401
asg24
V[ +sonorant -tense ]
p4402
sbsg24
V[ +sonorant -tense ] ---> place1 / # _ 
p4403
sba(irule
Rule
p4404
(dp4405
g17
(irule
Guard
p4406
(dp4407
g20
I01
sg21
(lp4408
sg23
I00
sg24
V#
sg25
I00
sg26
S'L'
sbsg27
(irule
PlaceSpecification
p4409
(dp4410
g151
I1
sbsg33
(irule
Guard
p4411
(dp4412
g20
I00
sg21
(lp4413
sg23
I00
sg24
V
sg25
I00
sg26
S'R'
sbsg37
(irule
FeatureMatrix
p4414
(dp4415
g30
(lp4416
(I01
g3013
tp4417
a(I01
g3155
tp4418
asg24
V[ +nasal +voice ]
p4419
sbsg24
V[ +nasal +voice ] ---> place1 / # _ 
p4420
sba(irule
Rule
p4421
(dp4422
g17
(irule
Guard
p4423
(dp4424
g20
I01
sg21
(lp4425
sg23
I00
sg24
V#
sg25
I00
sg26
S'L'
sbsg27
(irule
PlaceSpecification
p4426
(dp4427
g151
I1
sbsg33
(irule
Guard
p4428
(dp4429
g20
I00
sg21
(lp4430
sg23
I00
sg24
V
sg25
I00
sg26
S'R'
sbsg37
(irule
FeatureMatrix
p4431
(dp4432
g30
(lp4433
(I01
g3013
tp4434
a(I00
g3259
tp4435
asg24
V[ +nasal -vowel ]
p4436
sbsg24
V[ +nasal -vowel ] ---> place1 / # _ 
p4437
sba(irule
Rule
p4438
(dp4439
g17
(irule
Guard
p4440
(dp4441
g20
I01
sg21
(lp4442
sg23
I00
sg24
V#
sg25
I00
sg26
S'L'
sbsg27
(irule
PlaceSpecification
p4443
(dp4444
g151
I1
sbsg33
(irule
Guard
p4445
(dp4446
g20
I00
sg21
(lp4447
sg23
I00
sg24
V
sg25
I00
sg26
S'R'
sbsg37
(irule
FeatureMatrix
p4448
(dp4449
g30
(lp4450
(I01
g3048
tp4451
a(I00
g3259
tp4452
asg24
V[ +sonorant -vowel ]
p4453
sbsg24
V[ +sonorant -vowel ] ---> place1 / # _ 
p4454
sba(irule
Rule
p4455
(dp4456
g17
(irule
Guard
p4457
(dp4458
g20
I01
sg21
(lp4459
sg23
I00
sg24
V#
sg25
I00
sg26
S'L'
sbsg27
(irule
PlaceSpecification
p4460
(dp4461
g151
I1
sbsg33
(irule
Guard
p4462
(dp4463
g20
I00
sg21
(lp4464
sg23
I00
sg24
V
sg25
I00
sg26
S'R'
sbsg37
(irule
FeatureMatrix
p4465
(dp4466
g30
(lp4467
(I01
g3013
tp4468
a(I00
g3336
tp4469
asg24
V[ +nasal -low ]
p4470
sbsg24
V[ +nasal -low ] ---> place1 / # _ 
p4471
sba(irule
Rule
p4472
(dp4473
g17
(irule
Guard
p4474
(dp4475
g20
I01
sg21
(lp4476
sg23
I00
sg24
V#
sg25
I00
sg26
S'L'
sbsg27
(irule
PlaceSpecification
p4477
(dp4478
g151
I1
sbsg33
(irule
Guard
p4479
(dp4480
g20
I00
sg21
(lp4481
sg23
I00
sg24
V
sg25
I00
sg26
S'R'
sbsg37
(irule
FeatureMatrix
p4482
(dp4483
g30
(lp4484
(I00
g3095
tp4485
a(I01
g3048
tp4486
asg24
V[ +sonorant -continuant ]
p4487
sbsg24
V[ +sonorant -continuant ] ---> place1 / # _ 
p4488
sba(irule
Rule
p4489
(dp4490
g17
(irule
Guard
p4491
(dp4492
g20
I01
sg21
(lp4493
sg23
I00
sg24
V#
sg25
I00
sg26
S'L'
sbsg27
(irule
PlaceSpecification
p4494
(dp4495
g151
I1
sbsg33
(irule
Guard
p4496
(dp4497
g20
I00
sg21
(lp4498
sg23
I00
sg24
V
sg25
I00
sg26
S'R'
sbsg37
(irule
FeatureMatrix
p4499
(dp4500
g30
(lp4501
(I01
g3013
tp4502
a(I00
g4033
tp4503
asg24
V[ +nasal -high ]
p4504
sbsg24
V[ +nasal -high ] ---> place1 / # _ 
p4505
sba(irule
Rule
p4506
(dp4507
g17
(irule
Guard
p4508
(dp4509
g20
I01
sg21
(lp4510
sg23
I00
sg24
V#
sg25
I00
sg26
S'L'
sbsg27
(irule
PlaceSpecification
p4511
(dp4512
g151
I1
sbsg33
(irule
Guard
p4513
(dp4514
g20
I00
sg21
(lp4515
sg23
I00
sg24
V
sg25
I00
sg26
S'R'
sbsg37
(irule
FeatureMatrix
p4516
(dp4517
g30
(lp4518
(I00
g3730
tp4519
a(I01
g3013
tp4520
asg24
V[ +nasal -liquid ]
p4521
sbsg24
V[ +nasal -liquid ] ---> place1 / # _ 
p4522
sba(irule
Rule
p4523
(dp4524
g17
(irule
Guard
p4525
(dp4526
g20
I01
sg21
(lp4527
sg23
I00
sg24
V#
sg25
I00
sg26
S'L'
sbsg27
(irule
PlaceSpecification
p4528
(dp4529
g151
I1
sbsg33
(irule
Guard
p4530
(dp4531
g20
I00
sg21
(lp4532
sg23
I00
sg24
V
sg25
I00
sg26
S'R'
sbsg37
(irule
FeatureMatrix
p4533
(dp4534
g30
(lp4535
(I00
g3095
tp4536
a(I01
g3013
tp4537
asg24
V[ +nasal -continuant ]
p4538
sbsg24
V[ +nasal -continuant ] ---> place1 / # _ 
p4539
sba(irule
Rule
p4540
(dp4541
g17
(irule
Guard
p4542
(dp4543
g20
I01
sg21
(lp4544
sg23
I00
sg24
V#
sg25
I00
sg26
S'L'
sbsg27
(irule
PlaceSpecification
p4545
(dp4546
g151
I1
sbsg33
(irule
Guard
p4547
(dp4548
g20
I00
sg21
(lp4549
sg23
I00
sg24
V
sg25
I00
sg26
S'R'
sbsg37
(irule
FeatureMatrix
p4550
(dp4551
g30
(lp4552
(I00
g3750
tp4553
a(I01
g3048
tp4554
asg24
V[ +sonorant -glide ]
p4555
sbsg24
V[ +sonorant -glide ] ---> place1 / # _ 
p4556
sba(irule
Rule
p4557
(dp4558
g17
(irule
Guard
p4559
(dp4560
g20
I01
sg21
(lp4561
sg23
I00
sg24
V#
sg25
I00
sg26
S'L'
sbsg27
(irule
PlaceSpecification
p4562
(dp4563
g151
I1
sbsg33
(irule
Guard
p4564
(dp4565
g20
I00
sg21
(lp4566
sg23
I00
sg24
V
sg25
I00
sg26
S'R'
sbsg37
(irule
FeatureMatrix
p4567
(dp4568
g30
(lp4569
(I01
g3013
tp4570
a(I00
g4050
tp4571
asg24
V[ +nasal -back ]
p4572
sbsg24
V[ +nasal -back ] ---> place1 / # _ 
p4573
sba(irule
Rule
p4574
(dp4575
g17
(irule
Guard
p4576
(dp4577
g20
I01
sg21
(lp4578
sg23
I00
sg24
V#
sg25
I00
sg26
S'L'
sbsg27
(irule
PlaceSpecification
p4579
(dp4580
g151
I1
sbsg33
(irule
Guard
p4581
(dp4582
g20
I00
sg21
(lp4583
sg23
I00
sg24
V
sg25
I00
sg26
S'R'
sbsg37
(irule
FeatureMatrix
p4584
(dp4585
g30
(lp4586
(I01
g3013
tp4587
a(I00
g3397
tp4588
asg24
V[ +nasal -sibilant ]
p4589
sbsg24
V[ +nasal -sibilant ] ---> place1 / # _ 
p4590
sba(irule
Rule
p4591
(dp4592
g17
(irule
Guard
p4593
(dp4594
g20
I01
sg21
(lp4595
sg23
I00
sg24
V#
sg25
I00
sg26
S'L'
sbsg27
(irule
PlaceSpecification
p4596
(dp4597
g151
I1
sbsg33
(irule
Guard
p4598
(dp4599
g20
I00
sg21
(lp4600
sg23
I00
sg24
V
sg25
I00
sg26
S'R'
sbsg37
(irule
FeatureMatrix
p4601
(dp4602
g30
(lp4603
(I01
g3013
tp4604
a(I01
g3048
tp4605
asg24
V[ +nasal +sonorant ]
p4606
sbsg24
V[ +nasal +sonorant ] ---> place1 / # _ 
p4607
sba(irule
Rule
p4608
(dp4609
g17
(irule
Guard
p4610
(dp4611
g20
I01
sg21
(lp4612
sg23
I00
sg24
V#
sg25
I00
sg26
S'L'
sbsg27
(irule
PlaceSpecification
p4613
(dp4614
g151
I1
sbsg33
(irule
Guard
p4615
(dp4616
g20
I00
sg21
(lp4617
sg23
I00
sg24
V
sg25
I00
sg26
S'R'
sbsg37
(irule
FeatureMatrix
p4618
(dp4619
g30
(lp4620
(I01
g3013
tp4621
a(I01
g3554
tp4622
asg24
V[ +coronal +nasal ]
p4623
sbsg24
V[ +coronal +nasal ] ---> place1 / # _ 
p4624
sba(irule
Rule
p4625
(dp4626
g17
(irule
Guard
p4627
(dp4628
g20
I00
sg21
(lp4629
sg23
I00
sg24
V
sg25
I00
sg26
S'L'
sbsg27
(irule
PlaceSpecification
p4630
(dp4631
g151
I1
sbsg33
(irule
Guard
p4632
(dp4633
g20
I00
sg21
(lp4634
(irule
FeatureMatrix
p4635
(dp4636
g30
(lp4637
sg24
V[  ]
p4638
sba(irule
FeatureMatrix
p4639
(dp4640
g30
(lp4641
sg24
V[  ]
p4642
sbasg23
I00
sg24
V[  ]* [  ]
p4643
sg25
I01
sg26
S'R'
sbsg37
(irule
ConstantPhoneme
p4644
(dp4645
S'p'
g3033
sbsg24
Vn\u0303 ---> place1 /  _ [  ]* [  ]
p4646
sba(irule
Rule
p4647
(dp4648
g17
(irule
Guard
p4649
(dp4650
g20
I01
sg21
(lp4651
sg23
I00
sg24
V#
sg25
I00
sg26
S'L'
sbsg27
(irule
PlaceSpecification
p4652
(dp4653
g151
I1
sbsg33
(irule
Guard
p4654
(dp4655
g20
I00
sg21
(lp4656
(irule
FeatureMatrix
p4657
(dp4658
g30
(lp4659
(I00
g3095
tp4660
asg24
V[ -continuant ]
p4661
sba(irule
FeatureMatrix
p4662
(dp4663
g30
(lp4664
sg24
V[  ]
p4665
sbasg23
I00
sg24
V[ -continuant ] [  ]
p4666
sg25
I00
sg26
S'R'
sbsg37
(irule
FeatureMatrix
p4667
(dp4668
g30
(lp4669
sg24
V[  ]
p4670
sbsg24
V[  ] ---> place1 / # _ [ -continuant ] [  ]
p4671
sba(irule
Rule
p4672
(dp4673
g17
(irule
Guard
p4674
(dp4675
g20
I01
sg21
(lp4676
sg23
I00
sg24
V#
sg25
I00
sg26
S'L'
sbsg27
(irule
PlaceSpecification
p4677
(dp4678
g151
I1
sbsg33
(irule
Guard
p4679
(dp4680
g20
I00
sg21
(lp4681
(irule
FeatureMatrix
p4682
(dp4683
g30
(lp4684
sg24
V[  ]
p4685
sba(irule
FeatureMatrix
p4686
(dp4687
g30
(lp4688
sg24
V[  ]
p4689
sbasg23
I00
sg24
V[  ] [  ]
p4690
sg25
I00
sg26
S'R'
sbsg37
(irule
FeatureMatrix
p4691
(dp4692
g30
(lp4693
(I01
g3013
tp4694
asg24
V[ +nasal ]
p4695
sbsg24
V[ +nasal ] ---> place1 / # _ [  ] [  ]
p4696
sba(irule
Rule
p4697
(dp4698
g17
(irule
Guard
p4699
(dp4700
g20
I00
sg21
(lp4701
sg23
I00
sg24
V
sg25
I00
sg26
S'L'
sbsg27
(irule
PlaceSpecification
p4702
(dp4703
g151
I1
sbsg33
(irule
Guard
p4704
(dp4705
g20
I00
sg21
(lp4706
(irule
FeatureMatrix
p4707
(dp4708
g30
(lp4709
sg24
V[  ]
p4710
sba(irule
FeatureMatrix
p4711
(dp4712
g30
(lp4713
(I01
g3095
tp4714
asg24
V[ +continuant ]
p4715
sbasg23
I00
sg24
V[  ] [ +continuant ]
p4716
sg25
I00
sg26
S'R'
sbsg37
(irule
ConstantPhoneme
p4717
(dp4718
S'p'
g3033
sbsg24
Vn\u0303 ---> place1 /  _ [  ] [ +continuant ]
p4719
sba(irule
Rule
p4720
(dp4721
g17
(irule
Guard
p4722
(dp4723
g20
I00
sg21
(lp4724
sg23
I00
sg24
V
sg25
I00
sg26
S'L'
sbsg27
(irule
PlaceSpecification
p4725
(dp4726
g151
I1
sbsg33
(irule
Guard
p4727
(dp4728
g20
I00
sg21
(lp4729
(irule
FeatureMatrix
p4730
(dp4731
g30
(lp4732
sg24
V[  ]
p4733
sba(irule
FeatureMatrix
p4734
(dp4735
g30
(lp4736
(I01
g3048
tp4737
asg24
V[ +sonorant ]
p4738
sbasg23
I00
sg24
V[  ] [ +sonorant ]
p4739
sg25
I00
sg26
S'R'
sbsg37
(irule
ConstantPhoneme
p4740
(dp4741
S'p'
g3033
sbsg24
Vn\u0303 ---> place1 /  _ [  ] [ +sonorant ]
p4742
sba(irule
Rule
p4743
(dp4744
g17
(irule
Guard
p4745
(dp4746
g20
I00
sg21
(lp4747
sg23
I00
sg24
V
sg25
I00
sg26
S'L'
sbsg27
(irule
PlaceSpecification
p4748
(dp4749
g151
I1
sbsg33
(irule
Guard
p4750
(dp4751
g20
I00
sg21
(lp4752
(irule
FeatureMatrix
p4753
(dp4754
g30
(lp4755
(I00
g3048
tp4756
a(I01
g3155
tp4757
asg24
V[ +voice -sonorant ]
p4758
sba(irule
FeatureMatrix
p4759
(dp4760
g30
(lp4761
sg24
V[  ]
p4762
sbasg23
I00
sg24
V[ +voice -sonorant ] [  ]
p4763
sg25
I00
sg26
S'R'
sbsg37
(irule
FeatureMatrix
p4764
(dp4765
g30
(lp4766
sg24
V[  ]
p4767
sbsg24
V[  ] ---> place1 /  _ [ +voice -sonorant ] [  ]
p4768
sba(irule
Rule
p4769
(dp4770
g17
(irule
Guard
p4771
(dp4772
g20
I00
sg21
(lp4773
sg23
I00
sg24
V
sg25
I00
sg26
S'L'
sbsg27
(irule
PlaceSpecification
p4774
(dp4775
g151
I1
sbsg33
(irule
Guard
p4776
(dp4777
g20
I00
sg21
(lp4778
(irule
FeatureMatrix
p4779
(dp4780
g30
(lp4781
sg24
V[  ]
p4782
sba(irule
FeatureMatrix
p4783
(dp4784
g30
(lp4785
sg24
V[  ]
p4786
sbasg23
I00
sg24
V[  ] [  ]
p4787
sg25
I00
sg26
S'R'
sbsg37
(irule
FeatureMatrix
p4788
(dp4789
g30
(lp4790
(I01
g3013
tp4791
a(I00
g4033
tp4792
asg24
V[ +nasal -high ]
p4793
sbsg24
V[ +nasal -high ] ---> place1 /  _ [  ] [  ]
p4794
sba(irule
Rule
p4795
(dp4796
g17
(irule
Guard
p4797
(dp4798
g20
I00
sg21
(lp4799
sg23
I00
sg24
V
sg25
I00
sg26
S'L'
sbsg27
(irule
PlaceSpecification
p4800
(dp4801
g151
I1
sbsg33
(irule
Guard
p4802
(dp4803
g20
I00
sg21
(lp4804
(irule
FeatureMatrix
p4805
(dp4806
g30
(lp4807
sg24
V[  ]
p4808
sba(irule
FeatureMatrix
p4809
(dp4810
g30
(lp4811
(I00
g3730
tp4812
asg24
V[ -liquid ]
p4813
sbasg23
I00
sg24
V[  ] [ -liquid ]
p4814
sg25
I00
sg26
S'R'
sbsg37
(irule
ConstantPhoneme
p4815
(dp4816
S'p'
g3033
sbsg24
Vn\u0303 ---> place1 /  _ [  ] [ -liquid ]
p4817
sba(irule
Rule
p4818
(dp4819
g17
(irule
Guard
p4820
(dp4821
g20
I00
sg21
(lp4822
sg23
I00
sg24
V
sg25
I00
sg26
S'L'
sbsg27
(irule
PlaceSpecification
p4823
(dp4824
g151
I1
sbsg33
(irule
Guard
p4825
(dp4826
g20
I00
sg21
(lp4827
(irule
FeatureMatrix
p4828
(dp4829
g30
(lp4830
sg24
V[  ]
p4831
sba(irule
FeatureMatrix
p4832
(dp4833
g30
(lp4834
sg24
V[  ]
p4835
sbasg23
I00
sg24
V[  ] [  ]
p4836
sg25
I00
sg26
S'R'
sbsg37
(irule
FeatureMatrix
p4837
(dp4838
g30
(lp4839
(I01
g3013
tp4840
a(I00
g3397
tp4841
asg24
V[ +nasal -sibilant ]
p4842
sbsg24
V[ +nasal -sibilant ] ---> place1 /  _ [  ] [  ]
p4843
sba(irule
Rule
p4844
(dp4845
g17
(irule
Guard
p4846
(dp4847
g20
I00
sg21
(lp4848
sg23
I00
sg24
V
sg25
I00
sg26
S'L'
sbsg27
(irule
PlaceSpecification
p4849
(dp4850
g151
I1
sbsg33
(irule
Guard
p4851
(dp4852
g20
I00
sg21
(lp4853
(irule
FeatureMatrix
p4854
(dp4855
g30
(lp4856
sg24
V[  ]
p4857
sba(irule
FeatureMatrix
p4858
(dp4859
g30
(lp4860
(I00
g3011
tp4861
asg24
V[ -anterior ]
p4862
sbasg23
I00
sg24
V[  ] [ -anterior ]
p4863
sg25
I00
sg26
S'R'
sbsg37
(irule
ConstantPhoneme
p4864
(dp4865
S'p'
g3033
sbsg24
Vn\u0303 ---> place1 /  _ [  ] [ -anterior ]
p4866
sba(irule
Rule
p4867
(dp4868
g17
(irule
Guard
p4869
(dp4870
g20
I00
sg21
(lp4871
sg23
I00
sg24
V
sg25
I00
sg26
S'L'
sbsg27
(irule
PlaceSpecification
p4872
(dp4873
g151
I1
sbsg33
(irule
Guard
p4874
(dp4875
g20
I00
sg21
(lp4876
(irule
FeatureMatrix
p4877
(dp4878
g30
(lp4879
sg24
V[  ]
p4880
sba(irule
FeatureMatrix
p4881
(dp4882
g30
(lp4883
sg24
V[  ]
p4884
sbasg23
I00
sg24
V[  ] [  ]
p4885
sg25
I00
sg26
S'R'
sbsg37
(irule
FeatureMatrix
p4886
(dp4887
g30
(lp4888
(I00
g3011
tp4889
a(I01
g3013
tp4890
asg24
V[ +nasal -anterior ]
p4891
sbsg24
V[ +nasal -anterior ] ---> place1 /  _ [  ] [  ]
p4892
sbaasbsS'parameters'
p4893
g8
(cargparse
Namespace
p4894
g10
NtRp4895
(dp4896
S'dummy'
p4897
I00
sS'task'
p4898
S'incremental'
p4899
sS'features'
p4900
S'sophisticated'
p4901
sS'resume'
p4902
I00
sS'geometry'
p4903
I01
sS'top'
p4904
I1
sS'disableClean'
p4905
I00
sS'universal'
p4906
NsS'restrict'
p4907
NsS'window'
p4908
NsS'seed'
p4909
S'0'
sS'restore'
p4910
NsS'serial'
p4911
I00
sS'timeout'
p4912
NsS'debug'
p4913
NsS'cores'
p4914
I40
sg4
S'Odden_105_Bukusu'
p4915
sS'save'
p4916
NsS'verbosity'
p4917
I0
sS'alignment'
p4918
I00
sS'samples'
p4919
I30
sbsb.