(iresult
Result
p1
(dp2
S'startTime'
p3
F1555271026.928525
sS'solutionSequence'
p4
(lp5
(ccopy_reg
_reconstructor
p6
(csolution
Solution
p7
c__builtin__
object
p8
NtRp9
(dp10
S'rules'
p11
(lp12
(irule
Rule
p13
(dp14
S'leftTriggers'
p15
(irule
Guard
p16
(dp17
S'endOfString'
p18
I00
sS'specifications'
p19
(lp20
sS'optionalEnding'
p21
I00
sS'representation'
p22
V
sS'starred'
p23
I00
sS'side'
p24
S'L'
sbsS'structuralChange'
p25
(irule
FeatureMatrix
p26
(dp27
S'featuresAndPolarities'
p28
(lp29
(I01
S'voice'
p30
tp31
asg22
V[ +voice ]
p32
sbsS'rightTriggers'
p33
(irule
Guard
p34
(dp35
g18
I00
sg19
(lp36
(irule
ConstantPhoneme
p37
(dp38
S'p'
Vb
sbasg21
I00
sg22
Vb
sg23
I00
sg24
S'R'
sbsS'focus'
p39
(irule
FeatureMatrix
p40
(dp41
g28
(lp42
sg22
V[  ]
p43
sbsg22
V[  ] ---> [ +voice ] /  _ b
p44
sbasS'prefixes'
p45
(lp46
(imorph
Morph
p47
(dp48
S'phonemes'
p49
(lp50
sba(imorph
Morph
p51
(dp52
g49
(lp53
sba(imorph
Morph
p54
(dp55
g49
(lp56
sba(imorph
Morph
p57
(dp58
g49
(lp59
sbasS'underlyingForms'
p60
(dp61
((imorph
Morph
p62
(dp63
g49
(lp64
Vk
aVa
aVl
aVa
aVp
asb(imorph
Morph
p65
(dp66
g49
(lp67
Vk
aVa
aVl
aVa
aVb
aVb
aVa
aVn
asb(imorph
Morph
p68
(dp69
g49
(lp70
Vk
aVa
aVl
aVa
aVp
aVt
aVo:
p71
aVl
asb(imorph
Morph
p72
(dp73
g49
(lp74
Vk
aVa
aVl
aVa
aVp
aVn
aVa
aVk
asbtp75
(imorph
Morph
p76
(dp77
g49
(lp78
Vk
aVa
aVl
aVa
aVp
asbs((imorph
Morph
p79
(dp80
g49
(lp81
Vk
aVu:
p82
aVt
asb(imorph
Morph
p83
(dp84
g49
(lp85
Vk
aVu:
p86
aVd
aVb
aVa
aVn
asb(imorph
Morph
p87
(dp88
g49
(lp89
Vk
aVu:
p90
aVt
aVt
aVo:
p91
aVl
asb(imorph
Morph
p92
(dp93
g49
(lp94
Vk
aVu:
p95
aVt
aVn
aVa
aVk
asbtp96
(imorph
Morph
p97
(dp98
g49
(lp99
Vk
aVu:
p100
aVt
asbssS'suffixes'
p101
(lp102
(imorph
Morph
p103
(dp104
g49
(lp105
sba(imorph
Morph
p106
(dp107
g49
(lp108
Vb
aVa
aVn
asba(imorph
Morph
p109
(dp110
g49
(lp111
Vt
aVo:
p112
aVl
asba(imorph
Morph
p113
(dp114
g49
(lp115
Vn
aVa
aVk
asbasbF158.04034900665283
tp116
a(g6
(g7
g8
NtRp117
(dp118
g11
(lp119
(irule
Rule
p120
(dp121
g15
(irule
Guard
p122
(dp123
g18
I00
sg19
(lp124
sg21
I00
sg22
V
sg23
I00
sg24
S'L'
sbsg25
(irule
FeatureMatrix
p125
(dp126
g28
(lp127
(I01
g30
tp128
asg22
V[ +voice ]
p129
sbsg33
(irule
Guard
p130
(dp131
g18
I00
sg19
(lp132
(irule
ConstantPhoneme
p133
(dp134
S'p'
Vb
sbasg21
I00
sg22
Vb
sg23
I00
sg24
S'R'
sbsg39
(irule
FeatureMatrix
p135
(dp136
g28
(lp137
sg22
V[  ]
p138
sbsg22
V[  ] ---> [ +voice ] /  _ b
p139
sba(irule
Rule
p140
(dp141
g15
(irule
Guard
p142
(dp143
g18
I00
sg19
(lp144
(irule
FeatureMatrix
p145
(dp146
g28
(lp147
sg22
V[  ]
p148
sba(irule
FeatureMatrix
p149
(dp150
g28
(lp151
(I01
S'sibilant'
p152
tp153
asg22
V[ +sibilant ]
p154
sbasg21
I00
sg22
V[ +sibilant ] [  ]
p155
sg23
I00
sg24
S'L'
sbsg25
(irule
FeatureMatrix
p156
(dp157
g28
(lp158
(I00
S'back'
p159
tp160
a(I00
S'low'
p161
tp162
asg22
V[ -back -low ]
p163
sbsg33
(irule
Guard
p164
(dp165
g18
I00
sg19
(lp166
sg21
I00
sg22
V
sg23
I00
sg24
S'R'
sbsg39
(irule
FeatureMatrix
p167
(dp168
g28
(lp169
sg22
V[  ]
p170
sbsg22
V[  ] ---> [ -back -low ] / [ +sibilant ] [  ] _ 
p171
sbasg45
(lp172
(imorph
Morph
p173
(dp174
g49
(lp175
sba(imorph
Morph
p176
(dp177
g49
(lp178
sba(imorph
Morph
p179
(dp180
g49
(lp181
sba(imorph
Morph
p182
(dp183
g49
(lp184
sbasg60
(dp185
((imorph
Morph
p186
(dp187
g49
(lp188
Vr
aVe:
p189
aVs
asb(imorph
Morph
p190
(dp191
g49
(lp192
Vr
aVe:
p193
aVz
aVb
aVe
aVn
asb(imorph
Morph
p194
(dp195
g49
(lp196
Vr
aVe:
p197
aVs
aVt
aVo\u0308:
p198
aVl
asb(imorph
Morph
p199
(dp200
g49
(lp201
Vr
aVe:
p202
aVs
aVn
aVe
aVk
asbtp203
(imorph
Morph
p204
(dp205
g49
(lp206
Vr
aVe:
p207
aVs
asbs(g62
g65
g68
g72
tp208
(imorph
Morph
p209
(dp210
g49
(lp211
Vk
aVa
aVl
aVa
aVp
asbs(g79
g83
g87
g92
tp212
(imorph
Morph
p213
(dp214
g49
(lp215
Vk
ag100
aVt
asbssg101
(lp216
(imorph
Morph
p217
(dp218
g49
(lp219
sba(imorph
Morph
p220
(dp221
g49
(lp222
Vb
aVa
aVn
asba(imorph
Morph
p223
(dp224
g49
(lp225
Vt
ag112
aVl
asba(imorph
Morph
p226
(dp227
g49
(lp228
Vn
aVa
aVk
asbasbF2003.6950850486755
tp229
a(g6
(g7
g8
NtRp230
(dp231
g11
(lp232
(irule
Rule
p233
(dp234
g15
(irule
Guard
p235
(dp236
g18
I00
sg19
(lp237
(irule
FeatureMatrix
p238
(dp239
g28
(lp240
sg22
V[  ]
p241
sba(irule
ConstantPhoneme
p242
(dp243
S'p'
Vs
sbasg21
I00
sg22
Vs [  ]
p244
sg23
I00
sg24
S'L'
sbsg25
(irule
FeatureMatrix
p245
(dp246
g28
(lp247
(I00
g159
tp248
a(I00
g161
tp249
asg22
V[ -back -low ]
p250
sbsg33
(irule
Guard
p251
(dp252
g18
I00
sg19
(lp253
sg21
I00
sg22
V
sg23
I00
sg24
S'R'
sbsg39
(irule
FeatureMatrix
p254
(dp255
g28
(lp256
sg22
V[  ]
p257
sbsg22
V[  ] ---> [ -back -low ] / s [  ] _ 
p258
sba(irule
Rule
p259
(dp260
g15
(irule
Guard
p261
(dp262
g18
I00
sg19
(lp263
sg21
I00
sg22
V
sg23
I00
sg24
S'L'
sbsg25
(irule
FeatureMatrix
p264
(dp265
g28
(lp266
(I01
g30
tp267
asg22
V[ +voice ]
p268
sbsg33
(irule
Guard
p269
(dp270
g18
I00
sg19
(lp271
(irule
ConstantPhoneme
p272
(dp273
S'p'
Vb
sbasg21
I00
sg22
Vb
sg23
I00
sg24
S'R'
sbsg39
(irule
FeatureMatrix
p274
(dp275
g28
(lp276
sg22
V[  ]
p277
sbsg22
V[  ] ---> [ +voice ] /  _ b
p278
sbasg45
(lp279
(imorph
Morph
p280
(dp281
g49
(lp282
sba(imorph
Morph
p283
(dp284
g49
(lp285
sba(imorph
Morph
p286
(dp287
g49
(lp288
sba(imorph
Morph
p289
(dp290
g49
(lp291
sbasg60
(dp292
((imorph
Morph
p293
(dp294
g49
(lp295
Vz\u030c
p296
aVa:
p297
aVk
asb(imorph
Morph
p298
(dp299
g49
(lp300
Vz\u030c
p301
aVa:
p302
aVg
aVb
aVa
aVn
asb(imorph
Morph
p303
(dp304
g49
(lp305
Vz\u030c
p306
aVa:
p307
aVk
aVt
aVo:
p308
aVl
asb(imorph
Morph
p309
(dp310
g49
(lp311
Vz\u030c
p312
aVa:
p313
aVk
aVn
aVa
aVk
asbtp314
(imorph
Morph
p315
(dp316
g49
(lp317
Vz\u030c
p318
aVa:
p319
aVk
asbs(g186
g190
g194
g199
tp320
(imorph
Morph
p321
(dp322
g49
(lp323
Vr
ag207
aVs
asbs(g62
g65
g68
g72
tp324
(imorph
Morph
p325
(dp326
g49
(lp327
Vk
aVa
aVl
aVa
aVp
asbs(g79
g83
g87
g92
tp328
(imorph
Morph
p329
(dp330
g49
(lp331
Vk
ag100
aVt
asbssg101
(lp332
(imorph
Morph
p333
(dp334
g49
(lp335
sba(imorph
Morph
p336
(dp337
g49
(lp338
Vb
aVa
aVn
asba(imorph
Morph
p339
(dp340
g49
(lp341
Vt
ag112
aVl
asba(imorph
Morph
p342
(dp343
g49
(lp344
Vn
aVa
aVk
asbasbF4030.0088770389557
tp345
a(g6
(g7
g8
NtRp346
(dp347
g11
(lp348
(irule
Rule
p349
(dp350
g15
(irule
Guard
p351
(dp352
g18
I00
sg19
(lp353
(irule
FeatureMatrix
p354
(dp355
g28
(lp356
sg22
V[  ]
p357
sba(irule
ConstantPhoneme
p358
(dp359
S'p'
Vr
sbasg21
I00
sg22
Vr [  ]*
p360
sg23
I01
sg24
S'L'
sbsg25
(irule
FeatureMatrix
p361
(dp362
g28
(lp363
(I00
g159
tp364
a(I00
g161
tp365
asg22
V[ -back -low ]
p366
sbsg33
(irule
Guard
p367
(dp368
g18
I00
sg19
(lp369
(irule
FeatureMatrix
p370
(dp371
g28
(lp372
sg22
V[  ]
p373
sbasg21
I00
sg22
g373
sg23
I00
sg24
S'R'
sbsg39
(irule
FeatureMatrix
p374
(dp375
g28
(lp376
sg22
V[  ]
p377
sbsg22
V[  ] ---> [ -back -low ] / r [  ]* _ [  ]
p378
sba(irule
Rule
p379
(dp380
g15
(irule
Guard
p381
(dp382
g18
I00
sg19
(lp383
sg21
I00
sg22
V
sg23
I00
sg24
S'L'
sbsg25
(irule
FeatureMatrix
p384
(dp385
g28
(lp386
(I01
g30
tp387
asg22
V[ +voice ]
p388
sbsg33
(irule
Guard
p389
(dp390
g18
I00
sg19
(lp391
(irule
ConstantPhoneme
p392
(dp393
S'p'
Vb
sbasg21
I00
sg22
Vb
sg23
I00
sg24
S'R'
sbsg39
(irule
FeatureMatrix
p394
(dp395
g28
(lp396
sg22
V[  ]
p397
sbsg22
V[  ] ---> [ +voice ] /  _ b
p398
sbasg45
(lp399
(imorph
Morph
p400
(dp401
g49
(lp402
sba(imorph
Morph
p403
(dp404
g49
(lp405
sba(imorph
Morph
p406
(dp407
g49
(lp408
sba(imorph
Morph
p409
(dp410
g49
(lp411
sbasg60
(dp412
((imorph
Morph
p413
(dp414
g49
(lp415
Vk
aVe
aVt
aVr
aVe
aVt^s
p416
asb(imorph
Morph
p417
(dp418
g49
(lp419
Vk
aVe
aVt
aVr
aVe
aVd^z
p420
aVb
aVe
aVn
asb(imorph
Morph
p421
(dp422
g49
(lp423
Vk
aVe
aVt
aVr
aVe
aVt^s
p424
aVt
aVo\u0308:
p425
aVl
asb(imorph
Morph
p426
(dp427
g49
(lp428
Vk
aVe
aVt
aVr
aVe
aVt^s
p429
aVn
aVe
aVk
asbtp430
(imorph
Morph
p431
(dp432
g49
(lp433
Vk
aVe
aVt
aVr
aVe
aVt^s
p434
asbs(g293
g298
g303
g309
tp435
(imorph
Morph
p436
(dp437
g49
(lp438
g318
ag319
aVk
asbs(g186
g190
g194
g199
tp439
(imorph
Morph
p440
(dp441
g49
(lp442
Vr
ag207
aVs
asbs(g62
g65
g68
g72
tp443
(imorph
Morph
p444
(dp445
g49
(lp446
Vk
aVa
aVl
aVa
aVp
asbs(g79
g83
g87
g92
tp447
(imorph
Morph
p448
(dp449
g49
(lp450
Vk
ag100
aVt
asbssg101
(lp451
(imorph
Morph
p452
(dp453
g49
(lp454
sba(imorph
Morph
p455
(dp456
g49
(lp457
Vb
aVa
aVn
asba(imorph
Morph
p458
(dp459
g49
(lp460
Vt
ag112
aVl
asba(imorph
Morph
p461
(dp462
g49
(lp463
Vn
aVa
aVk
asbasbF7646.7558169364929
tp464
a(g6
(g7
g8
NtRp465
(dp466
g11
(lp467
(irule
Rule
p468
(dp469
g15
(irule
Guard
p470
(dp471
g18
I00
sg19
(lp472
sg21
I00
sg22
V
sg23
I00
sg24
S'L'
sbsg25
(irule
FeatureMatrix
p473
(dp474
g28
(lp475
(I01
g30
tp476
asg22
V[ +voice ]
p477
sbsg33
(irule
Guard
p478
(dp479
g18
I00
sg19
(lp480
(irule
ConstantPhoneme
p481
(dp482
S'p'
Vb
sbasg21
I00
sg22
Vb
sg23
I00
sg24
S'R'
sbsg39
(irule
FeatureMatrix
p483
(dp484
g28
(lp485
sg22
V[  ]
p486
sbsg22
V[  ] ---> [ +voice ] /  _ b
p487
sba(irule
Rule
p488
(dp489
g15
(irule
Guard
p490
(dp491
g18
I00
sg19
(lp492
(irule
FeatureMatrix
p493
(dp494
g28
(lp495
sg22
V[  ]
p496
sba(irule
FeatureMatrix
p497
(dp498
g28
(lp499
(I00
g159
tp500
a(I01
S'tense'
p501
tp502
asg22
V[ +tense -back ]
p503
sbasg21
I00
sg22
V[ +tense -back ] [  ]*
p504
sg23
I01
sg24
S'L'
sbsg25
(irule
FeatureMatrix
p505
(dp506
g28
(lp507
(I00
g159
tp508
a(I00
g161
tp509
asg22
V[ -back -low ]
p510
sbsg33
(irule
Guard
p511
(dp512
g18
I00
sg19
(lp513
sg21
I00
sg22
V
sg23
I00
sg24
S'R'
sbsg39
(irule
FeatureMatrix
p514
(dp515
g28
(lp516
(I01
S'continuant'
p517
tp518
asg22
V[ +continuant ]
p519
sbsg22
V[ +continuant ] ---> [ -back -low ] / [ +tense -back ] [  ]* _ 
p520
sbasg45
(lp521
(imorph
Morph
p522
(dp523
g49
(lp524
sba(imorph
Morph
p525
(dp526
g49
(lp527
sba(imorph
Morph
p528
(dp529
g49
(lp530
sba(imorph
Morph
p531
(dp532
g49
(lp533
sbasg60
(dp534
(g186
g190
g194
g199
tp535
(imorph
Morph
p536
(dp537
g49
(lp538
Vr
ag207
aVs
asbs((imorph
Morph
(dp539
g49
(lp540
Vl
aVa
aVk
aVa:
p541
aV\u0161
asb(imorph
Morph
(dp542
g49
(lp543
Vl
aVa
aVk
aVa:
p544
aVz\u030c
p545
aVb
aVa
aVn
asb(imorph
Morph
(dp546
g49
(lp547
Vl
aVa
aVk
aVa:
p548
aV\u0161
aVt
aVo:
p549
aVl
asb(imorph
Morph
(dp550
g49
(lp551
Vl
aVa
aVk
aVa:
p552
aV\u0161
aVn
aVa
aVk
asbtp553
(imorph
Morph
p554
(dp555
g49
(lp556
Vl
aVa
aVk
ag319
aV\u0161
asbs((imorph
Morph
p557
(dp558
g49
(lp559
V\u0161
aVr
aVo:
p560
aVf
asb(imorph
Morph
p561
(dp562
g49
(lp563
V\u0161
aVr
aVo:
p564
aVv
aVb
aVa
aVn
asb(imorph
Morph
p565
(dp566
g49
(lp567
V\u0161
aVr
aVo:
p568
aVf
aVt
aVo:
p569
aVl
asb(imorph
Morph
p570
(dp571
g49
(lp572
V\u0161
aVr
aVo:
p573
aVf
aVn
aVa
aVk
asbtp574
(imorph
Morph
p575
(dp576
g49
(lp577
V\u0161
aVr
ag112
aVf
asbs((imorph
Morph
(dp578
g49
(lp579
Vb
aVu\u0308
p580
aVn
asb(imorph
Morph
(dp581
g49
(lp582
Vb
aVu\u0308
p583
aVn
aVb
aVe
aVn
asb(imorph
Morph
(dp584
g49
(lp585
Vb
aVu\u0308
p586
aVn
aVt
aVo\u0308:
p587
aVl
asb(imorph
Morph
(dp588
g49
(lp589
Vb
aVu\u0308
p590
aVn
aVn
aVe
aVk
asbtp591
(imorph
Morph
p592
(dp593
g49
(lp594
Vb
aVu\u0308
p595
aVn
asbs((imorph
Morph
(dp596
g49
(lp597
Vt
aVo
aVr
aVo
aVn\u0303
p598
asb(imorph
Morph
(dp599
g49
(lp600
Vt
aVo
aVr
aVo
aVn\u0303
p601
aVb
aVa
aVn
asb(imorph
Morph
(dp602
g49
(lp603
Vt
aVo
aVr
aVo
aVn\u0303
p604
aVt
aVo:
p605
aVl
asb(imorph
Morph
(dp606
g49
(lp607
Vt
aVo
aVr
aVo
aVn\u0303
p608
aVn
aVa
aVk
asbtp609
(imorph
Morph
p610
(dp611
g49
(lp612
Vt
aVo
aVr
aVo
aVn\u0303
p613
asbs(g79
g83
g87
g92
tp614
(imorph
Morph
p615
(dp616
g49
(lp617
Vk
ag100
aVt
asbs((imorph
Morph
(dp618
g49
(lp619
Vf
aVa
aVl
asb(imorph
Morph
(dp620
g49
(lp621
Vf
aVa
aVl
aVb
aVa
aVn
asb(imorph
Morph
(dp622
g49
(lp623
Vf
aVa
aVl
aVt
aVo:
p624
aVl
asb(imorph
Morph
(dp625
g49
(lp626
Vf
aVa
aVl
aVn
aVa
aVk
asbtp627
(imorph
Morph
p628
(dp629
g49
(lp630
Vf
aVa
aVl
asbs(g62
g65
g68
g72
tp631
(imorph
Morph
p632
(dp633
g49
(lp634
Vk
aVa
aVl
aVa
aVp
asbs((imorph
Morph
(dp635
g49
(lp636
Vs
aVe
aVm
asb(imorph
Morph
(dp637
g49
(lp638
Vs
aVe
aVm
aVb
aVe
aVn
asb(imorph
Morph
(dp639
g49
(lp640
Vs
aVe
aVm
aVt
aVo\u0308:
p641
aVl
asb(imorph
Morph
(dp642
g49
(lp643
Vs
aVe
aVm
aVn
aVe
aVk
asbtp644
(imorph
Morph
p645
(dp646
g49
(lp647
Vs
aVe
aVm
asbs(g293
g298
g303
g309
tp648
(imorph
Morph
p649
(dp650
g49
(lp651
g318
ag319
aVk
asbs((imorph
Morph
(dp652
g49
(lp653
Vo\u0308:
p654
aVr
asb(imorph
Morph
(dp655
g49
(lp656
Vo\u0308:
p657
aVr
aVb
aVe
aVn
asb(imorph
Morph
(dp658
g49
(lp659
Vo\u0308:
p660
aVr
aVt
aVo\u0308:
p661
aVl
asb(imorph
Morph
(dp662
g49
(lp663
Vo\u0308:
p664
aVr
aVn
aVe
aVk
asbtp665
(imorph
Morph
p666
(dp667
g49
(lp668
Vo\u0308:
p669
aVr
asbs((imorph
Morph
(dp670
g49
(lp671
Vs
aVa:
p672
aVy
asb(imorph
Morph
(dp673
g49
(lp674
Vs
aVa:
p675
aVy
aVb
aVa
aVn
asb(imorph
Morph
(dp676
g49
(lp677
Vs
aVa:
p678
aVy
aVt
aVo:
p679
aVl
asb(imorph
Morph
(dp680
g49
(lp681
Vs
aVa:
p682
aVy
aVn
aVa
aVk
asbtp683
(imorph
Morph
p684
(dp685
g49
(lp686
Vs
ag319
aVy
asbs(g413
g417
g421
g426
tp687
(imorph
Morph
p688
(dp689
g49
(lp690
Vk
aVe
aVt
aVr
aVa
ag434
asbssg101
(lp691
(imorph
Morph
p692
(dp693
g49
(lp694
sba(imorph
Morph
p695
(dp696
g49
(lp697
Vb
aVa
aVn
asba(imorph
Morph
p698
(dp699
g49
(lp700
Vt
ag112
aVl
asba(imorph
Morph
p701
(dp702
g49
(lp703
Vn
aVa
aVk
asbasbF11535.403520107269
tp704
asS'problem'
p705
S'Odden_2.1_Hungarian'
p706
sS'finalFrontier'
p707
g6
(csolution
Frontier
p708
g8
NtRp709
(dp710
g45
g521
sg101
g691
sg60
g534
sS'frontiers'
p711
(lp712
(lp713
(irule
Rule
p714
(dp715
g15
(irule
Guard
p716
(dp717
g18
I00
sg19
(lp718
sg21
I00
sg22
V
sg23
I00
sg24
S'L'
sbsg25
(irule
FeatureMatrix
p719
(dp720
g28
(lp721
(I01
S'voice'
tp722
asg22
V[ +voice ]
p723
sbsg33
(irule
Guard
p724
(dp725
g18
I00
sg19
(lp726
(irule
ConstantPhoneme
p727
(dp728
S'p'
Vb
sbasg21
I00
sg22
Vb
sg23
I00
sg24
S'R'
sbsg39
(irule
FeatureMatrix
p729
(dp730
g28
(lp731
sg22
V[  ]
p732
sbsg22
V[  ] ---> [ +voice ] /  _ b
p733
sba(irule
Rule
p734
(dp735
g15
(irule
Guard
p736
(dp737
g18
I00
sg19
(lp738
sg21
I00
sg22
Nsg23
I00
sg24
S'L'
sbsg25
(irule
FeatureMatrix
p739
(dp740
g28
(lp741
(I01
S'voice'
p742
tp743
a(I00
S'low'
p744
tp745
asg22
Nsbsg33
(irule
Guard
p746
(dp747
g18
I00
sg19
(lp748
(irule
ConstantPhoneme
p749
(dp750
S'p'
Vb
sbasg21
I00
sg22
Nsg23
I00
sg24
S'R'
sbsg39
(irule
FeatureMatrix
p751
(dp752
g28
(lp753
sg22
Nsbsg22
Nsba(irule
Rule
p754
(dp755
g15
(irule
Guard
p756
(dp757
g18
I00
sg19
(lp758
sg21
I00
sg22
Nsg23
I00
sg24
S'L'
sbsg25
(irule
FeatureMatrix
p759
(dp760
g28
(lp761
(I01
g742
tp762
asg22
Nsbsg33
(irule
Guard
p763
(dp764
g18
I00
sg19
(lp765
(irule
FeatureMatrix
p766
(dp767
g28
(lp768
(I00
S'sonorant'
p769
tp770
a(I01
g742
tp771
asg22
Nsbasg21
I00
sg22
Nsg23
I00
sg24
S'R'
sbsg39
(irule
FeatureMatrix
p772
(dp773
g28
(lp774
sg22
Nsbsg22
Nsba(irule
Rule
p775
(dp776
g15
(irule
Guard
p777
(dp778
g18
I00
sg19
(lp779
sg21
I00
sg22
Nsg23
I00
sg24
S'L'
sbsg25
(irule
FeatureMatrix
p780
(dp781
g28
(lp782
(I01
g742
tp783
asg22
Nsbsg33
(irule
Guard
p784
(dp785
g18
I00
sg19
(lp786
(irule
ConstantPhoneme
p787
(dp788
S'p'
Vb
sba(irule
FeatureMatrix
p789
(dp790
g28
(lp791
sg22
Nsbasg21
I00
sg22
Nsg23
I00
sg24
S'R'
sbsg39
(irule
FeatureMatrix
p792
(dp793
g28
(lp794
sg22
Nsbsg22
Nsba(irule
Rule
p795
(dp796
g15
(irule
Guard
p797
(dp798
g18
I00
sg19
(lp799
sg21
I00
sg22
Nsg23
I00
sg24
S'L'
sbsg25
(irule
FeatureMatrix
p800
(dp801
g28
(lp802
(I01
g742
tp803
asg22
Nsbsg33
(irule
Guard
p804
(dp805
g18
I00
sg19
(lp806
(irule
FeatureMatrix
p807
(dp808
g28
(lp809
(I00
S'coronal'
p810
tp811
a(I00
S'vowel'
p812
tp813
asg22
Nsbasg21
I00
sg22
Nsg23
I00
sg24
S'R'
sbsg39
(irule
FeatureMatrix
p814
(dp815
g28
(lp816
sg22
Nsbsg22
Nsba(irule
Rule
p817
(dp818
g15
(irule
Guard
p819
(dp820
g18
I00
sg19
(lp821
sg21
I00
sg22
Nsg23
I00
sg24
S'L'
sbsg25
(irule
FeatureMatrix
p822
(dp823
g28
(lp824
(I01
g742
tp825
asg22
Nsbsg33
(irule
Guard
p826
(dp827
g18
I00
sg19
(lp828
(irule
ConstantPhoneme
p829
(dp830
S'p'
Vb
sbasg21
I00
sg22
Nsg23
I00
sg24
S'R'
sbsg39
(irule
FeatureMatrix
p831
(dp832
g28
(lp833
(I00
g744
tp834
asg22
Nsbsg22
Nsba(irule
Rule
p835
(dp836
g15
(irule
Guard
p837
(dp838
g18
I00
sg19
(lp839
(irule
FeatureMatrix
p840
(dp841
g28
(lp842
sg22
Nsbasg21
I00
sg22
Nsg23
I00
sg24
S'L'
sbsg25
(irule
FeatureMatrix
p843
(dp844
g28
(lp845
(I01
g742
tp846
asg22
Nsbsg33
(irule
Guard
p847
(dp848
g18
I00
sg19
(lp849
(irule
ConstantPhoneme
p850
(dp851
S'p'
Vb
sbasg21
I00
sg22
Nsg23
I00
sg24
S'R'
sbsg39
(irule
FeatureMatrix
p852
(dp853
g28
(lp854
sg22
Nsbsg22
Nsba(irule
Rule
p855
(dp856
g15
(irule
Guard
p857
(dp858
g18
I00
sg19
(lp859
sg21
I00
sg22
Nsg23
I00
sg24
S'L'
sbsg25
(irule
FeatureMatrix
p860
(dp861
g28
(lp862
(I01
g742
tp863
asg22
Nsbsg33
(irule
Guard
p864
(dp865
g18
I00
sg19
(lp866
(irule
FeatureMatrix
p867
(dp868
g28
(lp869
(I00
S'continuant'
p870
tp871
a(I00
g810
tp872
asg22
Nsbasg21
I00
sg22
Nsg23
I00
sg24
S'R'
sbsg39
(irule
FeatureMatrix
p873
(dp874
g28
(lp875
sg22
Nsbsg22
Nsba(irule
Rule
p876
(dp877
g15
(irule
Guard
p878
(dp879
g18
I00
sg19
(lp880
sg21
I00
sg22
Nsg23
I00
sg24
S'L'
sbsg25
(irule
FeatureMatrix
p881
(dp882
g28
(lp883
(I00
S'tense'
p884
tp885
a(I01
g742
tp886
asg22
Nsbsg33
(irule
Guard
p887
(dp888
g18
I00
sg19
(lp889
(irule
ConstantPhoneme
p890
(dp891
S'p'
Vb
sbasg21
I00
sg22
Nsg23
I00
sg24
S'R'
sbsg39
(irule
FeatureMatrix
p892
(dp893
g28
(lp894
sg22
Nsbsg22
Nsba(irule
Rule
p895
(dp896
g15
(irule
Guard
p897
(dp898
g18
I00
sg19
(lp899
sg21
I00
sg22
Nsg23
I00
sg24
S'L'
sbsg25
(irule
FeatureMatrix
p900
(dp901
g28
(lp902
(I01
g742
tp903
asg22
Nsbsg33
(irule
Guard
p904
(dp905
g18
I00
sg19
(lp906
(irule
FeatureMatrix
p907
(dp908
g28
(lp909
(I00
g810
tp910
a(I00
g884
tp911
asg22
Nsbasg21
I00
sg22
Nsg23
I00
sg24
S'R'
sbsg39
(irule
FeatureMatrix
p912
(dp913
g28
(lp914
sg22
Nsbsg22
Nsba(irule
Rule
p915
(dp916
g15
(irule
Guard
p917
(dp918
g18
I00
sg19
(lp919
sg21
I00
sg22
Nsg23
I00
sg24
S'L'
sbsg25
(irule
FeatureMatrix
p920
(dp921
g28
(lp922
(I01
g742
tp923
asg22
Nsbsg33
(irule
Guard
p924
(dp925
g18
I00
sg19
(lp926
(irule
FeatureMatrix
p927
(dp928
g28
(lp929
(I01
S'anterior'
p930
tp931
a(I00
g810
tp932
asg22
Nsbasg21
I00
sg22
Nsg23
I00
sg24
S'R'
sbsg39
(irule
FeatureMatrix
p933
(dp934
g28
(lp935
sg22
Nsbsg22
Nsba(irule
Rule
p936
(dp937
g15
(irule
Guard
p938
(dp939
g18
I00
sg19
(lp940
sg21
I00
sg22
Nsg23
I00
sg24
S'L'
sbsg25
(irule
FeatureMatrix
p941
(dp942
g28
(lp943
(I00
g812
tp944
a(I01
g742
tp945
asg22
Nsbsg33
(irule
Guard
p946
(dp947
g18
I00
sg19
(lp948
(irule
ConstantPhoneme
p949
(dp950
S'p'
Vb
sbasg21
I00
sg22
Nsg23
I00
sg24
S'R'
sbsg39
(irule
FeatureMatrix
p951
(dp952
g28
(lp953
sg22
Nsbsg22
Nsba(irule
Rule
p954
(dp955
g15
(irule
Guard
p956
(dp957
g18
I00
sg19
(lp958
sg21
I00
sg22
Nsg23
I00
sg24
S'L'
sbsg25
(irule
FeatureMatrix
p959
(dp960
g28
(lp961
(I01
g742
tp962
asg22
Nsbsg33
(irule
Guard
p963
(dp964
g18
I00
sg19
(lp965
(irule
FeatureMatrix
p966
(dp967
g28
(lp968
(I00
g769
tp969
a(I00
g810
tp970
asg22
Nsbasg21
I00
sg22
Nsg23
I00
sg24
S'R'
sbsg39
(irule
FeatureMatrix
p971
(dp972
g28
(lp973
sg22
Nsbsg22
Nsba(irule
Rule
p974
(dp975
g15
(irule
Guard
p976
(dp977
g18
I00
sg19
(lp978
sg21
I00
sg22
Nsg23
I00
sg24
S'L'
sbsg25
(irule
FeatureMatrix
p979
(dp980
g28
(lp981
(I01
g742
tp982
asg22
Nsbsg33
(irule
Guard
p983
(dp984
g18
I00
sg19
(lp985
(irule
ConstantPhoneme
p986
(dp987
S'p'
Vb
sbasg21
I00
sg22
Nsg23
I00
sg24
S'R'
sbsg39
(irule
FeatureMatrix
p988
(dp989
g28
(lp990
(I00
g742
tp991
asg22
Nsbsg22
Nsba(irule
Rule
p992
(dp993
g15
(irule
Guard
p994
(dp995
g18
I00
sg19
(lp996
sg21
I00
sg22
Nsg23
I00
sg24
S'L'
sbsg25
(irule
FeatureMatrix
p997
(dp998
g28
(lp999
(I01
g742
tp1000
asg22
Nsbsg33
(irule
Guard
p1001
(dp1002
g18
I00
sg19
(lp1003
(irule
ConstantPhoneme
p1004
(dp1005
S'p'
Vb
sbasg21
I00
sg22
Nsg23
I00
sg24
S'R'
sbsg39
(irule
FeatureMatrix
p1006
(dp1007
g28
(lp1008
(I00
S'rounded'
p1009
tp1010
asg22
Nsbsg22
Nsba(irule
Rule
p1011
(dp1012
g15
(irule
Guard
p1013
(dp1014
g18
I00
sg19
(lp1015
sg21
I00
sg22
Nsg23
I00
sg24
S'L'
sbsg25
(irule
FeatureMatrix
p1016
(dp1017
g28
(lp1018
(I00
g1009
tp1019
a(I01
g742
tp1020
asg22
Nsbsg33
(irule
Guard
p1021
(dp1022
g18
I00
sg19
(lp1023
(irule
ConstantPhoneme
p1024
(dp1025
S'p'
Vb
sbasg21
I00
sg22
Nsg23
I00
sg24
S'R'
sbsg39
(irule
FeatureMatrix
p1026
(dp1027
g28
(lp1028
sg22
Nsbsg22
Nsba(irule
Rule
p1029
(dp1030
g15
(irule
Guard
p1031
(dp1032
g18
I00
sg19
(lp1033
sg21
I00
sg22
Nsg23
I00
sg24
S'L'
sbsg25
(irule
FeatureMatrix
p1034
(dp1035
g28
(lp1036
(I01
g742
tp1037
asg22
Nsbsg33
(irule
Guard
p1038
(dp1039
g18
I00
sg19
(lp1040
(irule
ConstantPhoneme
p1041
(dp1042
S'p'
Vb
sbasg21
I00
sg22
Nsg23
I00
sg24
S'R'
sbsg39
(irule
FeatureMatrix
p1043
(dp1044
g28
(lp1045
(I00
g812
tp1046
asg22
Nsbsg22
Nsba(irule
Rule
p1047
(dp1048
g15
(irule
Guard
p1049
(dp1050
g18
I00
sg19
(lp1051
sg21
I00
sg22
Nsg23
I00
sg24
S'L'
sbsg25
(irule
FeatureMatrix
p1052
(dp1053
g28
(lp1054
(I01
g742
tp1055
asg22
Nsbsg33
(irule
Guard
p1056
(dp1057
g18
I00
sg19
(lp1058
(irule
ConstantPhoneme
p1059
(dp1060
S'p'
Vb
sbasg21
I00
sg22
Nsg23
I00
sg24
S'R'
sbsg39
(irule
FeatureMatrix
p1061
(dp1062
g28
(lp1063
(I00
S'long'
p1064
tp1065
asg22
Nsbsg22
Nsba(irule
Rule
p1066
(dp1067
g15
(irule
Guard
p1068
(dp1069
g18
I00
sg19
(lp1070
sg21
I00
sg22
Nsg23
I00
sg24
S'L'
sbsg25
(irule
FeatureMatrix
p1071
(dp1072
g28
(lp1073
(I00
g1064
tp1074
a(I01
g742
tp1075
asg22
Nsbsg33
(irule
Guard
p1076
(dp1077
g18
I00
sg19
(lp1078
(irule
ConstantPhoneme
p1079
(dp1080
S'p'
Vb
sbasg21
I00
sg22
Nsg23
I00
sg24
S'R'
sbsg39
(irule
FeatureMatrix
p1081
(dp1082
g28
(lp1083
sg22
Nsbsg22
Nsba(irule
Rule
p1084
(dp1085
g15
(irule
Guard
p1086
(dp1087
g18
I00
sg19
(lp1088
sg21
I00
sg22
Nsg23
I00
sg24
S'L'
sbsg25
(irule
FeatureMatrix
p1089
(dp1090
g28
(lp1091
(I01
g742
tp1092
asg22
Nsbsg33
(irule
Guard
p1093
(dp1094
g18
I00
sg19
(lp1095
(irule
ConstantPhoneme
p1096
(dp1097
S'p'
Vb
sbasg21
I00
sg22
Nsg23
I00
sg24
S'R'
sbsg39
(irule
FeatureMatrix
p1098
(dp1099
g28
(lp1100
(I00
g884
tp1101
asg22
Nsbsg22
Nsba(irule
Rule
p1102
(dp1103
g15
(irule
Guard
p1104
(dp1105
g18
I00
sg19
(lp1106
sg21
I00
sg22
Nsg23
I00
sg24
S'L'
sbsg25
(irule
FeatureMatrix
p1107
(dp1108
g28
(lp1109
(I01
g742
tp1110
asg22
Nsbsg33
(irule
Guard
p1111
(dp1112
g18
I00
sg19
(lp1113
(irule
ConstantPhoneme
p1114
(dp1115
S'p'
Vb
sbasg21
I00
sg22
Nsg23
I00
sg24
S'R'
sbsg39
(irule
FeatureMatrix
p1116
(dp1117
g28
(lp1118
(I00
S'palletized'
p1119
tp1120
asg22
Nsbsg22
Nsba(irule
Rule
p1121
(dp1122
g15
(irule
Guard
p1123
(dp1124
g18
I00
sg19
(lp1125
sg21
I00
sg22
Nsg23
I00
sg24
S'L'
sbsg25
(irule
FeatureMatrix
p1126
(dp1127
g28
(lp1128
(I01
g742
tp1129
asg22
Nsbsg33
(irule
Guard
p1130
(dp1131
g18
I00
sg19
(lp1132
(irule
ConstantPhoneme
p1133
(dp1134
S'p'
Vb
sbasg21
I00
sg22
Nsg23
I00
sg24
S'R'
sbsg39
(irule
FeatureMatrix
p1135
(dp1136
g28
(lp1137
(I00
S'lateral'
tp1138
asg22
Nsbsg22
Nsba(irule
Rule
p1139
(dp1140
g15
(irule
Guard
p1141
(dp1142
g18
I00
sg19
(lp1143
sg21
I00
sg22
Nsg23
I00
sg24
S'L'
sbsg25
(irule
FeatureMatrix
p1144
(dp1145
g28
(lp1146
(I01
g742
tp1147
asg22
Nsbsg33
(irule
Guard
p1148
(dp1149
g18
I00
sg19
(lp1150
(irule
ConstantPhoneme
p1151
(dp1152
S'p'
Vb
sbasg21
I00
sg22
Nsg23
I00
sg24
S'R'
sbsg39
(irule
FeatureMatrix
p1153
(dp1154
g28
(lp1155
(I00
g769
tp1156
asg22
Nsbsg22
Nsba(irule
Rule
p1157
(dp1158
g15
(irule
Guard
p1159
(dp1160
g18
I00
sg19
(lp1161
sg21
I00
sg22
Nsg23
I00
sg24
S'L'
sbsg25
(irule
FeatureMatrix
p1162
(dp1163
g28
(lp1164
(I01
g742
tp1165
asg22
Nsbsg33
(irule
Guard
p1166
(dp1167
g18
I00
sg19
(lp1168
(irule
ConstantPhoneme
p1169
(dp1170
S'p'
Vb
sbasg21
I00
sg22
Nsg23
I00
sg24
S'R'
sbsg39
(irule
FeatureMatrix
p1171
(dp1172
g28
(lp1173
(I00
S'nasal'
p1174
tp1175
asg22
Nsbsg22
Nsba(irule
Rule
p1176
(dp1177
g15
(irule
Guard
p1178
(dp1179
g18
I00
sg19
(lp1180
sg21
I00
sg22
Nsg23
I00
sg24
S'L'
sbsg25
(irule
FeatureMatrix
p1181
(dp1182
g28
(lp1183
(I01
g742
tp1184
asg22
Nsbsg33
(irule
Guard
p1185
(dp1186
g18
I00
sg19
(lp1187
(irule
ConstantPhoneme
p1188
(dp1189
S'p'
Vb
sbasg21
I00
sg22
Nsg23
I00
sg24
S'R'
sbsg39
(irule
FeatureMatrix
p1190
(dp1191
g28
(lp1192
(I00
S'glide'
p1193
tp1194
asg22
Nsbsg22
Nsba(irule
Rule
p1195
(dp1196
g15
(irule
Guard
p1197
(dp1198
g18
I00
sg19
(lp1199
sg21
I00
sg22
Nsg23
I00
sg24
S'L'
sbsg25
(irule
FeatureMatrix
p1200
(dp1201
g28
(lp1202
(I01
g742
tp1203
asg22
Nsbsg33
(irule
Guard
p1204
(dp1205
g18
I00
sg19
(lp1206
(irule
ConstantPhoneme
p1207
(dp1208
S'p'
Vb
sbasg21
I00
sg22
Nsg23
I00
sg24
S'R'
sbsg39
(irule
FeatureMatrix
p1209
(dp1210
g28
(lp1211
(I00
S'liquid'
p1212
tp1213
asg22
Nsbsg22
Nsba(irule
Rule
p1214
(dp1215
g15
(irule
Guard
p1216
(dp1217
g18
I00
sg19
(lp1218
sg21
I00
sg22
Nsg23
I00
sg24
S'L'
sbsg25
(irule
FeatureMatrix
p1219
(dp1220
g28
(lp1221
(I01
g742
tp1222
asg22
Nsbsg33
(irule
Guard
p1223
(dp1224
g18
I00
sg19
(lp1225
(irule
FeatureMatrix
p1226
(dp1227
g28
(lp1228
(I00
g810
tp1229
a(I00
g884
tp1230
asg22
Nsbasg21
I00
sg22
Nsg23
I00
sg24
S'R'
sbsg39
(irule
FeatureMatrix
p1231
(dp1232
g28
(lp1233
(I00
g769
tp1234
asg22
Nsbsg22
Nsba(irule
Rule
p1235
(dp1236
g15
(irule
Guard
p1237
(dp1238
g18
I00
sg19
(lp1239
sg21
I00
sg22
Nsg23
I00
sg24
S'L'
sbsg25
(irule
FeatureMatrix
p1240
(dp1241
g28
(lp1242
(I00
g812
tp1243
a(I01
g742
tp1244
asg22
Nsbsg33
(irule
Guard
p1245
(dp1246
g18
I00
sg19
(lp1247
(irule
FeatureMatrix
p1248
(dp1249
g28
(lp1250
(I00
g769
tp1251
a(I01
g742
tp1252
asg22
Nsbasg21
I00
sg22
Nsg23
I00
sg24
S'R'
sbsg39
(irule
FeatureMatrix
p1253
(dp1254
g28
(lp1255
sg22
Nsbsg22
Nsba(irule
Rule
p1256
(dp1257
g15
(irule
Guard
p1258
(dp1259
g18
I00
sg19
(lp1260
sg21
I00
sg22
Nsg23
I00
sg24
S'L'
sbsg25
(irule
FeatureMatrix
p1261
(dp1262
g28
(lp1263
(I01
g742
tp1264
asg22
Nsbsg33
(irule
Guard
p1265
(dp1266
g18
I00
sg19
(lp1267
(irule
FeatureMatrix
p1268
(dp1269
g28
(lp1270
(I00
g769
tp1271
a(I01
g742
tp1272
asg22
Nsbasg21
I00
sg22
Nsg23
I00
sg24
S'R'
sbsg39
(irule
FeatureMatrix
p1273
(dp1274
g28
(lp1275
(I00
g1119
tp1276
asg22
Nsbsg22
Nsba(irule
Rule
p1277
(dp1278
g15
(irule
Guard
p1279
(dp1280
g18
I00
sg19
(lp1281
sg21
I00
sg22
Nsg23
I00
sg24
S'L'
sbsg25
(irule
FeatureMatrix
p1282
(dp1283
g28
(lp1284
(I01
g742
tp1285
a(I00
g744
tp1286
asg22
Nsbsg33
(irule
Guard
p1287
(dp1288
g18
I00
sg19
(lp1289
(irule
FeatureMatrix
p1290
(dp1291
g28
(lp1292
(I00
g769
tp1293
a(I01
g742
tp1294
asg22
Nsbasg21
I00
sg22
Nsg23
I00
sg24
S'R'
sbsg39
(irule
FeatureMatrix
p1295
(dp1296
g28
(lp1297
sg22
Nsbsg22
Nsba(irule
Rule
p1298
(dp1299
g15
(irule
Guard
p1300
(dp1301
g18
I00
sg19
(lp1302
(irule
FeatureMatrix
p1303
(dp1304
g28
(lp1305
sg22
Nsbasg21
I00
sg22
Nsg23
I00
sg24
S'L'
sbsg25
(irule
FeatureMatrix
p1306
(dp1307
g28
(lp1308
(I01
g742
tp1309
asg22
Nsbsg33
(irule
Guard
p1310
(dp1311
g18
I00
sg19
(lp1312
(irule
FeatureMatrix
p1313
(dp1314
g28
(lp1315
(I00
g769
tp1316
a(I01
g742
tp1317
asg22
Nsbasg21
I00
sg22
Nsg23
I00
sg24
S'R'
sbsg39
(irule
FeatureMatrix
p1318
(dp1319
g28
(lp1320
sg22
Nsbsg22
Nsba(irule
Rule
p1321
(dp1322
g15
(irule
Guard
p1323
(dp1324
g18
I00
sg19
(lp1325
sg21
I00
sg22
Nsg23
I00
sg24
S'L'
sbsg25
(irule
FeatureMatrix
p1326
(dp1327
g28
(lp1328
(I01
g742
tp1329
asg22
Nsbsg33
(irule
Guard
p1330
(dp1331
g18
I00
sg19
(lp1332
(irule
ConstantPhoneme
p1333
(dp1334
S'p'
Vb
sbasg21
I00
sg22
Nsg23
I00
sg24
S'R'
sbsg39
(irule
FeatureMatrix
p1335
(dp1336
g28
(lp1337
(I00
g1009
tp1338
a(I00
g1193
tp1339
asg22
Nsbsg22
Nsba(irule
Rule
p1340
(dp1341
g15
(irule
Guard
p1342
(dp1343
g18
I00
sg19
(lp1344
sg21
I00
sg22
Nsg23
I00
sg24
S'L'
sbsg25
(irule
FeatureMatrix
p1345
(dp1346
g28
(lp1347
(I01
g742
tp1348
asg22
Nsbsg33
(irule
Guard
p1349
(dp1350
g18
I00
sg19
(lp1351
(irule
ConstantPhoneme
p1352
(dp1353
S'p'
Vb
sbasg21
I00
sg22
Nsg23
I00
sg24
S'R'
sbsg39
(irule
FeatureMatrix
p1354
(dp1355
g28
(lp1356
(I00
g1009
tp1357
a(I00
g1212
tp1358
asg22
Nsbsg22
Nsba(irule
Rule
p1359
(dp1360
g15
(irule
Guard
p1361
(dp1362
g18
I00
sg19
(lp1363
sg21
I00
sg22
Nsg23
I00
sg24
S'L'
sbsg25
(irule
FeatureMatrix
p1364
(dp1365
g28
(lp1366
(I01
g742
tp1367
asg22
Nsbsg33
(irule
Guard
p1368
(dp1369
g18
I00
sg19
(lp1370
(irule
ConstantPhoneme
p1371
(dp1372
S'p'
Vb
sbasg21
I00
sg22
Nsg23
I00
sg24
S'R'
sbsg39
(irule
FeatureMatrix
p1373
(dp1374
g28
(lp1375
(I00
g1009
tp1376
a(I00
g769
tp1377
asg22
Nsbsg22
Nsba(irule
Rule
p1378
(dp1379
g15
(irule
Guard
p1380
(dp1381
g18
I00
sg19
(lp1382
sg21
I00
sg22
Nsg23
I00
sg24
S'L'
sbsg25
(irule
FeatureMatrix
p1383
(dp1384
g28
(lp1385
(I01
g742
tp1386
asg22
Nsbsg33
(irule
Guard
p1387
(dp1388
g18
I00
sg19
(lp1389
(irule
FeatureMatrix
p1390
(dp1391
g28
(lp1392
(I00
g870
tp1393
a(I00
g810
tp1394
asg22
Nsbasg21
I00
sg22
Nsg23
I00
sg24
S'R'
sbsg39
(irule
FeatureMatrix
p1395
(dp1396
g28
(lp1397
(I00
g742
tp1398
asg22
Nsbsg22
Nsba(irule
Rule
p1399
(dp1400
g15
(irule
Guard
p1401
(dp1402
g18
I00
sg19
(lp1403
sg21
I00
sg22
Nsg23
I00
sg24
S'L'
sbsg25
(irule
FeatureMatrix
p1404
(dp1405
g28
(lp1406
(I01
g742
tp1407
asg22
Nsbsg33
(irule
Guard
p1408
(dp1409
g18
I00
sg19
(lp1410
(irule
FeatureMatrix
p1411
(dp1412
g28
(lp1413
(I00
S'back'
p1414
tp1415
a(I00
g810
tp1416
a(I00
g884
tp1417
asg22
Nsbasg21
I00
sg22
Nsg23
I00
sg24
S'R'
sbsg39
(irule
FeatureMatrix
p1418
(dp1419
g28
(lp1420
sg22
Nsbsg22
Nsba(irule
Rule
p1421
(dp1422
g15
(irule
Guard
p1423
(dp1424
g18
I00
sg19
(lp1425
sg21
I00
sg22
Nsg23
I00
sg24
S'L'
sbsg25
(irule
FeatureMatrix
p1426
(dp1427
g28
(lp1428
(I01
g742
tp1429
asg22
Nsbsg33
(irule
Guard
p1430
(dp1431
g18
I00
sg19
(lp1432
(irule
ConstantPhoneme
p1433
(dp1434
S'p'
Vb
sbasg21
I00
sg22
Nsg23
I00
sg24
S'R'
sbsg39
(irule
FeatureMatrix
p1435
(dp1436
g28
(lp1437
(I00
g769
tp1438
a(I00
g742
tp1439
asg22
Nsbsg22
Nsba(irule
Rule
p1440
(dp1441
g15
(irule
Guard
p1442
(dp1443
g18
I00
sg19
(lp1444
sg21
I00
sg22
Nsg23
I00
sg24
S'L'
sbsg25
(irule
FeatureMatrix
p1445
(dp1446
g28
(lp1447
(I01
g742
tp1448
asg22
Nsbsg33
(irule
Guard
p1449
(dp1450
g18
I00
sg19
(lp1451
(irule
FeatureMatrix
p1452
(dp1453
g28
(lp1454
(I00
g1414
tp1455
a(I00
g769
tp1456
a(I01
g742
tp1457
asg22
Nsbasg21
I00
sg22
Nsg23
I00
sg24
S'R'
sbsg39
(irule
FeatureMatrix
p1458
(dp1459
g28
(lp1460
sg22
Nsbsg22
Nsba(irule
Rule
p1461
(dp1462
g15
(irule
Guard
p1463
(dp1464
g18
I00
sg19
(lp1465
sg21
I00
sg22
Nsg23
I00
sg24
S'L'
sbsg25
(irule
FeatureMatrix
p1466
(dp1467
g28
(lp1468
(I01
g742
tp1469
asg22
Nsbsg33
(irule
Guard
p1470
(dp1471
g18
I00
sg19
(lp1472
(irule
FeatureMatrix
p1473
(dp1474
g28
(lp1475
(I00
g769
tp1476
asg22
Nsba(irule
ConstantPhoneme
p1477
(dp1478
S'p'
Va
sbasg21
I00
sg22
Nsg23
I00
sg24
S'R'
sbsg39
(irule
FeatureMatrix
p1479
(dp1480
g28
(lp1481
sg22
Nsbsg22
Nsba(irule
Rule
p1482
(dp1483
g15
(irule
Guard
p1484
(dp1485
g18
I00
sg19
(lp1486
sg21
I00
sg22
Nsg23
I00
sg24
S'L'
sbsg25
(irule
FeatureMatrix
p1487
(dp1488
g28
(lp1489
(I00
g1009
tp1490
a(I01
g742
tp1491
a(I00
g744
tp1492
asg22
Nsbsg33
(irule
Guard
p1493
(dp1494
g18
I00
sg19
(lp1495
(irule
ConstantPhoneme
p1496
(dp1497
S'p'
Vb
sbasg21
I00
sg22
Nsg23
I00
sg24
S'R'
sbsg39
(irule
FeatureMatrix
p1498
(dp1499
g28
(lp1500
sg22
Nsbsg22
Nsba(irule
Rule
p1501
(dp1502
g15
(irule
Guard
p1503
(dp1504
g18
I00
sg19
(lp1505
sg21
I00
sg22
Nsg23
I00
sg24
S'L'
sbsg25
(irule
FeatureMatrix
p1506
(dp1507
g28
(lp1508
(I00
g1009
tp1509
a(I00
g884
tp1510
a(I01
g742
tp1511
asg22
Nsbsg33
(irule
Guard
p1512
(dp1513
g18
I00
sg19
(lp1514
(irule
ConstantPhoneme
p1515
(dp1516
S'p'
Vb
sbasg21
I00
sg22
Nsg23
I00
sg24
S'R'
sbsg39
(irule
FeatureMatrix
p1517
(dp1518
g28
(lp1519
sg22
Nsbsg22
Nsba(irule
Rule
p1520
(dp1521
g15
(irule
Guard
p1522
(dp1523
g18
I00
sg19
(lp1524
(irule
FeatureMatrix
p1525
(dp1526
g28
(lp1527
sg22
Nsbasg21
I00
sg22
Nsg23
I00
sg24
S'L'
sbsg25
(irule
FeatureMatrix
p1528
(dp1529
g28
(lp1530
(I00
g1009
tp1531
a(I01
g742
tp1532
asg22
Nsbsg33
(irule
Guard
p1533
(dp1534
g18
I00
sg19
(lp1535
(irule
ConstantPhoneme
p1536
(dp1537
S'p'
Vb
sbasg21
I00
sg22
Nsg23
I00
sg24
S'R'
sbsg39
(irule
FeatureMatrix
p1538
(dp1539
g28
(lp1540
sg22
Nsbsg22
Nsba(irule
Rule
p1541
(dp1542
g15
(irule
Guard
p1543
(dp1544
g18
I00
sg19
(lp1545
sg21
I00
sg22
Nsg23
I00
sg24
S'L'
sbsg25
(irule
FeatureMatrix
p1546
(dp1547
g28
(lp1548
(I00
g884
tp1549
a(I01
g742
tp1550
asg22
Nsbsg33
(irule
Guard
p1551
(dp1552
g18
I00
sg19
(lp1553
(irule
ConstantPhoneme
p1554
(dp1555
S'p'
Vb
sba(irule
FeatureMatrix
p1556
(dp1557
g28
(lp1558
sg22
Nsbasg21
I00
sg22
Nsg23
I00
sg24
S'R'
sbsg39
(irule
FeatureMatrix
p1559
(dp1560
g28
(lp1561
sg22
Nsbsg22
Nsba(irule
Rule
p1562
(dp1563
g15
(irule
Guard
p1564
(dp1565
g18
I00
sg19
(lp1566
sg21
I00
sg22
Nsg23
I00
sg24
S'L'
sbsg25
(irule
FeatureMatrix
p1567
(dp1568
g28
(lp1569
(I01
g742
tp1570
a(I00
g744
tp1571
asg22
Nsbsg33
(irule
Guard
p1572
(dp1573
g18
I00
sg19
(lp1574
(irule
ConstantPhoneme
p1575
(dp1576
S'p'
Vb
sba(irule
FeatureMatrix
p1577
(dp1578
g28
(lp1579
sg22
Nsbasg21
I00
sg22
Nsg23
I00
sg24
S'R'
sbsg39
(irule
FeatureMatrix
p1580
(dp1581
g28
(lp1582
sg22
Nsbsg22
Nsba(irule
Rule
p1583
(dp1584
g15
(irule
Guard
p1585
(dp1586
g18
I00
sg19
(lp1587
sg21
I00
sg22
Nsg23
I00
sg24
S'L'
sbsg25
(irule
FeatureMatrix
p1588
(dp1589
g28
(lp1590
(I00
g1009
tp1591
a(I00
g812
tp1592
a(I01
g742
tp1593
asg22
Nsbsg33
(irule
Guard
p1594
(dp1595
g18
I00
sg19
(lp1596
(irule
ConstantPhoneme
p1597
(dp1598
S'p'
Vb
sbasg21
I00
sg22
Nsg23
I00
sg24
S'R'
sbsg39
(irule
FeatureMatrix
p1599
(dp1600
g28
(lp1601
sg22
Nsbsg22
Nsba(irule
Rule
p1602
(dp1603
g15
(irule
Guard
p1604
(dp1605
g18
I00
sg19
(lp1606
sg21
I00
sg22
Nsg23
I00
sg24
S'L'
sbsg25
(irule
FeatureMatrix
p1607
(dp1608
g28
(lp1609
(I01
g742
tp1610
asg22
Nsbsg33
(irule
Guard
p1611
(dp1612
g18
I00
sg19
(lp1613
(irule
FeatureMatrix
p1614
(dp1615
g28
(lp1616
(I00
g810
tp1617
asg22
Nsba(irule
FeatureMatrix
p1618
(dp1619
g28
(lp1620
(I01
g884
tp1621
asg22
Nsbasg21
I00
sg22
Nsg23
I00
sg24
S'R'
sbsg39
(irule
FeatureMatrix
p1622
(dp1623
g28
(lp1624
sg22
Nsbsg22
Nsba(irule
Rule
p1625
(dp1626
g15
(irule
Guard
p1627
(dp1628
g18
I00
sg19
(lp1629
(irule
FeatureMatrix
p1630
(dp1631
g28
(lp1632
sg22
Nsbasg21
I00
sg22
Nsg23
I00
sg24
S'L'
sbsg25
(irule
FeatureMatrix
p1633
(dp1634
g28
(lp1635
(I00
g884
tp1636
a(I01
g742
tp1637
asg22
Nsbsg33
(irule
Guard
p1638
(dp1639
g18
I00
sg19
(lp1640
(irule
ConstantPhoneme
p1641
(dp1642
S'p'
Vb
sbasg21
I00
sg22
Nsg23
I00
sg24
S'R'
sbsg39
(irule
FeatureMatrix
p1643
(dp1644
g28
(lp1645
sg22
Nsbsg22
Nsba(irule
Rule
p1646
(dp1647
g15
(irule
Guard
p1648
(dp1649
g18
I00
sg19
(lp1650
sg21
I00
sg22
Nsg23
I00
sg24
S'L'
sbsg25
(irule
FeatureMatrix
p1651
(dp1652
g28
(lp1653
(I00
g1064
tp1654
a(I01
g742
tp1655
asg22
Nsbsg33
(irule
Guard
p1656
(dp1657
g18
I00
sg19
(lp1658
(irule
FeatureMatrix
p1659
(dp1660
g28
(lp1661
(I00
g769
tp1662
a(I01
g742
tp1663
asg22
Nsbasg21
I00
sg22
Nsg23
I00
sg24
S'R'
sbsg39
(irule
FeatureMatrix
p1664
(dp1665
g28
(lp1666
sg22
Nsbsg22
Nsba(irule
Rule
p1667
(dp1668
g15
(irule
Guard
p1669
(dp1670
g18
I00
sg19
(lp1671
sg21
I00
sg22
Nsg23
I00
sg24
S'L'
sbsg25
(irule
FeatureMatrix
p1672
(dp1673
g28
(lp1674
(I00
g1009
tp1675
a(I01
g742
tp1676
asg22
Nsbsg33
(irule
Guard
p1677
(dp1678
g18
I00
sg19
(lp1679
(irule
FeatureMatrix
p1680
(dp1681
g28
(lp1682
(I00
g870
tp1683
a(I00
g810
tp1684
asg22
Nsbasg21
I00
sg22
Nsg23
I00
sg24
S'R'
sbsg39
(irule
FeatureMatrix
p1685
(dp1686
g28
(lp1687
sg22
Nsbsg22
Nsba(irule
Rule
p1688
(dp1689
g15
(irule
Guard
p1690
(dp1691
g18
I00
sg19
(lp1692
sg21
I00
sg22
Nsg23
I00
sg24
S'L'
sbsg25
(irule
FeatureMatrix
p1693
(dp1694
g28
(lp1695
(I01
g742
tp1696
asg22
Nsbsg33
(irule
Guard
p1697
(dp1698
g18
I00
sg19
(lp1699
(irule
FeatureMatrix
p1700
(dp1701
g28
(lp1702
(I00
g769
tp1703
asg22
Nsba(irule
FeatureMatrix
p1704
(dp1705
g28
(lp1706
(I00
g1064
tp1707
asg22
Nsbasg21
I00
sg22
Nsg23
I00
sg24
S'R'
sbsg39
(irule
FeatureMatrix
p1708
(dp1709
g28
(lp1710
sg22
Nsbsg22
Nsba(irule
Rule
p1711
(dp1712
g15
(irule
Guard
p1713
(dp1714
g18
I00
sg19
(lp1715
sg21
I00
sg22
Nsg23
I00
sg24
S'L'
sbsg25
(irule
FeatureMatrix
p1716
(dp1717
g28
(lp1718
(I01
g742
tp1719
asg22
Nsbsg33
(irule
Guard
p1720
(dp1721
g18
I00
sg19
(lp1722
(irule
FeatureMatrix
p1723
(dp1724
g28
(lp1725
(I00
g810
tp1726
a(I00
g812
tp1727
asg22
Nsba(irule
FeatureMatrix
p1728
(dp1729
g28
(lp1730
sg22
Nsbasg21
I00
sg22
Nsg23
I00
sg24
S'R'
sbsg39
(irule
FeatureMatrix
p1731
(dp1732
g28
(lp1733
sg22
Nsbsg22
Nsba(irule
Rule
p1734
(dp1735
g15
(irule
Guard
p1736
(dp1737
g18
I00
sg19
(lp1738
sg21
I00
sg22
Nsg23
I00
sg24
S'L'
sbsg25
(irule
FeatureMatrix
p1739
(dp1740
g28
(lp1741
(I00
g812
tp1742
a(I01
g742
tp1743
asg22
Nsbsg33
(irule
Guard
p1744
(dp1745
g18
I00
sg19
(lp1746
(irule
ConstantPhoneme
p1747
(dp1748
S'p'
Vb
sbasg21
I00
sg22
Nsg23
I00
sg24
S'R'
sbsg39
(irule
FeatureMatrix
p1749
(dp1750
g28
(lp1751
(I00
g742
tp1752
asg22
Nsbsg22
Nsba(irule
Rule
p1753
(dp1754
g15
(irule
Guard
p1755
(dp1756
g18
I00
sg19
(lp1757
sg21
I00
sg22
Nsg23
I00
sg24
S'L'
sbsg25
(irule
FeatureMatrix
p1758
(dp1759
g28
(lp1760
(I01
g742
tp1761
asg22
Nsbsg33
(irule
Guard
p1762
(dp1763
g18
I00
sg19
(lp1764
(irule
FeatureMatrix
p1765
(dp1766
g28
(lp1767
(I00
g769
tp1768
asg22
Nsba(irule
FeatureMatrix
p1769
(dp1770
g28
(lp1771
(I00
g1009
tp1772
asg22
Nsbasg21
I00
sg22
Nsg23
I00
sg24
S'R'
sbsg39
(irule
FeatureMatrix
p1773
(dp1774
g28
(lp1775
sg22
Nsbsg22
Nsba(irule
Rule
p1776
(dp1777
g15
(irule
Guard
p1778
(dp1779
g18
I00
sg19
(lp1780
sg21
I00
sg22
Nsg23
I00
sg24
S'L'
sbsg25
(irule
FeatureMatrix
p1781
(dp1782
g28
(lp1783
(I00
g884
tp1784
a(I01
g742
tp1785
asg22
Nsbsg33
(irule
Guard
p1786
(dp1787
g18
I00
sg19
(lp1788
(irule
FeatureMatrix
p1789
(dp1790
g28
(lp1791
(I00
g769
tp1792
a(I01
g742
tp1793
asg22
Nsbasg21
I00
sg22
Nsg23
I00
sg24
S'R'
sbsg39
(irule
FeatureMatrix
p1794
(dp1795
g28
(lp1796
sg22
Nsbsg22
Nsba(irule
Rule
p1797
(dp1798
g15
(irule
Guard
p1799
(dp1800
g18
I00
sg19
(lp1801
sg21
I00
sg22
Nsg23
I00
sg24
S'L'
sbsg25
(irule
FeatureMatrix
p1802
(dp1803
g28
(lp1804
(I01
g742
tp1805
asg22
Nsbsg33
(irule
Guard
p1806
(dp1807
g18
I00
sg19
(lp1808
(irule
FeatureMatrix
p1809
(dp1810
g28
(lp1811
(I00
g810
tp1812
a(I00
g812
tp1813
asg22
Nsbasg21
I00
sg22
Nsg23
I00
sg24
S'R'
sbsg39
(irule
FeatureMatrix
p1814
(dp1815
g28
(lp1816
(I00
g769
tp1817
asg22
Nsbsg22
Nsba(irule
Rule
p1818
(dp1819
g15
(irule
Guard
p1820
(dp1821
g18
I00
sg19
(lp1822
sg21
I00
sg22
Nsg23
I00
sg24
S'L'
sbsg25
(irule
FeatureMatrix
p1823
(dp1824
g28
(lp1825
(I01
g742
tp1826
asg22
Nsbsg33
(irule
Guard
p1827
(dp1828
g18
I00
sg19
(lp1829
(irule
FeatureMatrix
p1830
(dp1831
g28
(lp1832
(I00
g810
tp1833
asg22
Nsba(irule
ConstantPhoneme
p1834
(dp1835
S'p'
Va
sbasg21
I00
sg22
Nsg23
I00
sg24
S'R'
sbsg39
(irule
FeatureMatrix
p1836
(dp1837
g28
(lp1838
sg22
Nsbsg22
Nsba(irule
Rule
p1839
(dp1840
g15
(irule
Guard
p1841
(dp1842
g18
I00
sg19
(lp1843
sg21
I00
sg22
Nsg23
I00
sg24
S'L'
sbsg25
(irule
FeatureMatrix
p1844
(dp1845
g28
(lp1846
(I01
g742
tp1847
asg22
Nsbsg33
(irule
Guard
p1848
(dp1849
g18
I00
sg19
(lp1850
(irule
ConstantPhoneme
p1851
(dp1852
S'p'
Vb
sba(irule
FeatureMatrix
p1853
(dp1854
g28
(lp1855
sg22
Nsbasg21
I00
sg22
Nsg23
I00
sg24
S'R'
sbsg39
(irule
FeatureMatrix
p1856
(dp1857
g28
(lp1858
(I00
g742
tp1859
asg22
Nsbsg22
Nsba(irule
Rule
p1860
(dp1861
g15
(irule
Guard
p1862
(dp1863
g18
I00
sg19
(lp1864
(irule
FeatureMatrix
p1865
(dp1866
g28
(lp1867
sg22
Nsba(irule
FeatureMatrix
p1868
(dp1869
g28
(lp1870
sg22
Nsbasg21
I00
sg22
Nsg23
I00
sg24
S'L'
sbsg25
(irule
FeatureMatrix
p1871
(dp1872
g28
(lp1873
(I01
g742
tp1874
asg22
Nsbsg33
(irule
Guard
p1875
(dp1876
g18
I00
sg19
(lp1877
(irule
ConstantPhoneme
p1878
(dp1879
S'p'
Vb
sbasg21
I00
sg22
Nsg23
I00
sg24
S'R'
sbsg39
(irule
FeatureMatrix
p1880
(dp1881
g28
(lp1882
sg22
Nsbsg22
Nsba(irule
Rule
p1883
(dp1884
g15
(irule
Guard
p1885
(dp1886
g18
I00
sg19
(lp1887
sg21
I00
sg22
Nsg23
I00
sg24
S'L'
sbsg25
(irule
FeatureMatrix
p1888
(dp1889
g28
(lp1890
(I00
g812
tp1891
a(I01
g742
tp1892
asg22
Nsbsg33
(irule
Guard
p1893
(dp1894
g18
I00
sg19
(lp1895
(irule
ConstantPhoneme
p1896
(dp1897
S'p'
Vb
sbasg21
I00
sg22
Nsg23
I00
sg24
S'R'
sbsg39
(irule
FeatureMatrix
p1898
(dp1899
g28
(lp1900
(I00
g744
tp1901
asg22
Nsbsg22
Nsba(irule
Rule
p1902
(dp1903
g15
(irule
Guard
p1904
(dp1905
g18
I00
sg19
(lp1906
sg21
I00
sg22
Nsg23
I00
sg24
S'L'
sbsg25
(irule
FeatureMatrix
p1907
(dp1908
g28
(lp1909
(I01
g742
tp1910
asg22
Nsbsg33
(irule
Guard
p1911
(dp1912
g18
I00
sg19
(lp1913
(irule
FeatureMatrix
p1914
(dp1915
g28
(lp1916
(I00
S'delayedRelease'
p1917
tp1918
a(I00
g810
tp1919
a(I00
g884
tp1920
asg22
Nsbasg21
I00
sg22
Nsg23
I00
sg24
S'R'
sbsg39
(irule
FeatureMatrix
p1921
(dp1922
g28
(lp1923
sg22
Nsbsg22
Nsba(irule
Rule
p1924
(dp1925
g15
(irule
Guard
p1926
(dp1927
g18
I00
sg19
(lp1928
(irule
FeatureMatrix
p1929
(dp1930
g28
(lp1931
sg22
Nsbasg21
I00
sg22
Nsg23
I00
sg24
S'L'
sbsg25
(irule
FeatureMatrix
p1932
(dp1933
g28
(lp1934
(I01
g742
tp1935
asg22
Nsbsg33
(irule
Guard
p1936
(dp1937
g18
I00
sg19
(lp1938
(irule
FeatureMatrix
p1939
(dp1940
g28
(lp1941
(I01
g930
tp1942
a(I00
g810
tp1943
asg22
Nsbasg21
I00
sg22
Nsg23
I00
sg24
S'R'
sbsg39
(irule
FeatureMatrix
p1944
(dp1945
g28
(lp1946
sg22
Nsbsg22
Nsba(irule
Rule
p1947
(dp1948
g15
(irule
Guard
p1949
(dp1950
g18
I00
sg19
(lp1951
sg21
I00
sg22
Nsg23
I00
sg24
S'L'
sbsg25
(irule
FeatureMatrix
p1952
(dp1953
g28
(lp1954
(I01
g742
tp1955
asg22
Nsbsg33
(irule
Guard
p1956
(dp1957
g18
I00
sg19
(lp1958
(irule
FeatureMatrix
p1959
(dp1960
g28
(lp1961
(I00
g769
tp1962
a(I01
g742
tp1963
a(I00
g744
tp1964
asg22
Nsbasg21
I00
sg22
Nsg23
I00
sg24
S'R'
sbsg39
(irule
FeatureMatrix
p1965
(dp1966
g28
(lp1967
sg22
Nsbsg22
Nsba(irule
Rule
p1968
(dp1969
g15
(irule
Guard
p1970
(dp1971
g18
I00
sg19
(lp1972
sg21
I00
sg22
Nsg23
I00
sg24
S'L'
sbsg25
(irule
FeatureMatrix
p1973
(dp1974
g28
(lp1975
(I00
g1009
tp1976
a(I00
g1064
tp1977
a(I01
g742
tp1978
asg22
Nsbsg33
(irule
Guard
p1979
(dp1980
g18
I00
sg19
(lp1981
(irule
ConstantPhoneme
p1982
(dp1983
S'p'
Vb
sbasg21
I00
sg22
Nsg23
I00
sg24
S'R'
sbsg39
(irule
FeatureMatrix
p1984
(dp1985
g28
(lp1986
sg22
Nsbsg22
Nsba(irule
Rule
p1987
(dp1988
g15
(irule
Guard
p1989
(dp1990
g18
I00
sg19
(lp1991
sg21
I00
sg22
Nsg23
I00
sg24
S'L'
sbsg25
(irule
FeatureMatrix
p1992
(dp1993
g28
(lp1994
(I00
g1009
tp1995
a(I01
g742
tp1996
asg22
Nsbsg33
(irule
Guard
p1997
(dp1998
g18
I00
sg19
(lp1999
(irule
FeatureMatrix
p2000
(dp2001
g28
(lp2002
(I00
g769
tp2003
a(I01
g742
tp2004
asg22
Nsbasg21
I00
sg22
Nsg23
I00
sg24
S'R'
sbsg39
(irule
FeatureMatrix
p2005
(dp2006
g28
(lp2007
sg22
Nsbsg22
Nsba(irule
Rule
p2008
(dp2009
g15
(irule
Guard
p2010
(dp2011
g18
I00
sg19
(lp2012
sg21
I00
sg22
Nsg23
I00
sg24
S'L'
sbsg25
(irule
FeatureMatrix
p2013
(dp2014
g28
(lp2015
(I00
g812
tp2016
a(I01
g742
tp2017
asg22
Nsbsg33
(irule
Guard
p2018
(dp2019
g18
I00
sg19
(lp2020
(irule
ConstantPhoneme
p2021
(dp2022
S'p'
Vb
sbasg21
I00
sg22
Nsg23
I00
sg24
S'R'
sbsg39
(irule
FeatureMatrix
p2023
(dp2024
g28
(lp2025
(I00
g1009
tp2026
asg22
Nsbsg22
Nsba(irule
Rule
p2027
(dp2028
g15
(irule
Guard
p2029
(dp2030
g18
I00
sg19
(lp2031
sg21
I00
sg22
Nsg23
I00
sg24
S'L'
sbsg25
(irule
FeatureMatrix
p2032
(dp2033
g28
(lp2034
(I00
g884
tp2035
a(I01
g742
tp2036
asg22
Nsbsg33
(irule
Guard
p2037
(dp2038
g18
I00
sg19
(lp2039
(irule
ConstantPhoneme
p2040
(dp2041
S'p'
Vb
sbasg21
I00
sg22
Nsg23
I00
sg24
S'R'
sbsg39
(irule
FeatureMatrix
p2042
(dp2043
g28
(lp2044
(I00
g1009
tp2045
asg22
Nsbsg22
Nsba(irule
Rule
p2046
(dp2047
g15
(irule
Guard
p2048
(dp2049
g18
I00
sg19
(lp2050
sg21
I00
sg22
Nsg23
I00
sg24
S'L'
sbsg25
(irule
FeatureMatrix
p2051
(dp2052
g28
(lp2053
(I01
g742
tp2054
asg22
Nsbsg33
(irule
Guard
p2055
(dp2056
g18
I00
sg19
(lp2057
(irule
FeatureMatrix
p2058
(dp2059
g28
(lp2060
(I00
g870
tp2061
a(I00
g810
tp2062
asg22
Nsbasg21
I00
sg22
Nsg23
I00
sg24
S'R'
sbsg39
(irule
FeatureMatrix
p2063
(dp2064
g28
(lp2065
(I00
g769
tp2066
asg22
Nsbsg22
Nsba(irule
Rule
p2067
(dp2068
g15
(irule
Guard
p2069
(dp2070
g18
I00
sg19
(lp2071
sg21
I00
sg22
Nsg23
I00
sg24
S'L'
sbsg25
(irule
FeatureMatrix
p2072
(dp2073
g28
(lp2074
(I00
g1009
tp2075
a(I01
g742
tp2076
asg22
Nsbsg33
(irule
Guard
p2077
(dp2078
g18
I00
sg19
(lp2079
(irule
ConstantPhoneme
p2080
(dp2081
S'p'
Vb
sbasg21
I00
sg22
Nsg23
I00
sg24
S'R'
sbsg39
(irule
FeatureMatrix
p2082
(dp2083
g28
(lp2084
(I00
g1174
tp2085
asg22
Nsbsg22
Nsba(irule
Rule
p2086
(dp2087
g15
(irule
Guard
p2088
(dp2089
g18
I00
sg19
(lp2090
sg21
I00
sg22
Nsg23
I00
sg24
S'L'
sbsg25
(irule
FeatureMatrix
p2091
(dp2092
g28
(lp2093
(I00
g1009
tp2094
a(I01
g742
tp2095
asg22
Nsbsg33
(irule
Guard
p2096
(dp2097
g18
I00
sg19
(lp2098
(irule
ConstantPhoneme
p2099
(dp2100
S'p'
Vb
sba(irule
FeatureMatrix
p2101
(dp2102
g28
(lp2103
sg22
Nsbasg21
I00
sg22
Nsg23
I00
sg24
S'R'
sbsg39
(irule
FeatureMatrix
p2104
(dp2105
g28
(lp2106
sg22
Nsbsg22
Nsba(irule
Rule
p2107
(dp2108
g15
(irule
Guard
p2109
(dp2110
g18
I00
sg19
(lp2111
sg21
I00
sg22
Nsg23
I00
sg24
S'L'
sbsg25
(irule
FeatureMatrix
p2112
(dp2113
g28
(lp2114
(I01
g742
tp2115
asg22
Nsbsg33
(irule
Guard
p2116
(dp2117
g18
I00
sg19
(lp2118
(irule
ConstantPhoneme
p2119
(dp2120
S'p'
Vb
sba(irule
ConstantPhoneme
p2121
(dp2122
S'p'
Va
sbasg21
I00
sg22
Nsg23
I00
sg24
S'R'
sbsg39
(irule
FeatureMatrix
p2123
(dp2124
g28
(lp2125
sg22
Nsbsg22
Nsba(irule
Rule
p2126
(dp2127
g15
(irule
Guard
p2128
(dp2129
g18
I00
sg19
(lp2130
sg21
I00
sg22
Nsg23
I00
sg24
S'L'
sbsg25
(irule
FeatureMatrix
p2131
(dp2132
g28
(lp2133
(I01
g742
tp2134
asg22
Nsbsg33
(irule
Guard
p2135
(dp2136
g18
I00
sg19
(lp2137
(irule
FeatureMatrix
p2138
(dp2139
g28
(lp2140
(I00
g810
tp2141
a(I00
g884
tp2142
a(I01
g742
tp2143
asg22
Nsbasg21
I00
sg22
Nsg23
I00
sg24
S'R'
sbsg39
(irule
FeatureMatrix
p2144
(dp2145
g28
(lp2146
sg22
Nsbsg22
Nsba(irule
Rule
p2147
(dp2148
g15
(irule
Guard
p2149
(dp2150
g18
I00
sg19
(lp2151
(irule
FeatureMatrix
p2152
(dp2153
g28
(lp2154
sg22
Nsbasg21
I00
sg22
Nsg23
I00
sg24
S'L'
sbsg25
(irule
FeatureMatrix
p2155
(dp2156
g28
(lp2157
(I01
g742
tp2158
asg22
Nsbsg33
(irule
Guard
p2159
(dp2160
g18
I00
sg19
(lp2161
(irule
FeatureMatrix
p2162
(dp2163
g28
(lp2164
(I00
g810
tp2165
a(I00
g744
tp2166
asg22
Nsbasg21
I00
sg22
Nsg23
I00
sg24
S'R'
sbsg39
(irule
FeatureMatrix
p2167
(dp2168
g28
(lp2169
sg22
Nsbsg22
Nsba(irule
Rule
p2170
(dp2171
g15
(irule
Guard
p2172
(dp2173
g18
I00
sg19
(lp2174
sg21
I00
sg22
Nsg23
I00
sg24
S'L'
sbsg25
(irule
FeatureMatrix
p2175
(dp2176
g28
(lp2177
(I01
g742
tp2178
asg22
Nsbsg33
(irule
Guard
p2179
(dp2180
g18
I00
sg19
(lp2181
(irule
FeatureMatrix
p2182
(dp2183
g28
(lp2184
(I00
g1414
tp2185
a(I00
g810
tp2186
a(I00
g812
tp2187
asg22
Nsbasg21
I00
sg22
Nsg23
I00
sg24
S'R'
sbsg39
(irule
FeatureMatrix
p2188
(dp2189
g28
(lp2190
sg22
Nsbsg22
Nsba(irule
Rule
p2191
(dp2192
g15
(irule
Guard
p2193
(dp2194
g18
I00
sg19
(lp2195
sg21
I00
sg22
Nsg23
I00
sg24
S'L'
sbsg25
(irule
FeatureMatrix
p2196
(dp2197
g28
(lp2198
(I01
g742
tp2199
asg22
Nsbsg33
(irule
Guard
p2200
(dp2201
g18
I00
sg19
(lp2202
(irule
FeatureMatrix
p2203
(dp2204
g28
(lp2205
(I00
g810
tp2206
asg22
Nsba(irule
FeatureMatrix
p2207
(dp2208
g28
(lp2209
(I01
g1414
tp2210
asg22
Nsbasg21
I00
sg22
Nsg23
I00
sg24
S'R'
sbsg39
(irule
FeatureMatrix
p2211
(dp2212
g28
(lp2213
sg22
Nsbsg22
Nsba(irule
Rule
p2214
(dp2215
g15
(irule
Guard
p2216
(dp2217
g18
I00
sg19
(lp2218
sg21
I00
sg22
Nsg23
I00
sg24
S'L'
sbsg25
(irule
FeatureMatrix
p2219
(dp2220
g28
(lp2221
(I01
g742
tp2222
asg22
Nsbsg33
(irule
Guard
p2223
(dp2224
g18
I00
sg19
(lp2225
(irule
FeatureMatrix
p2226
(dp2227
g28
(lp2228
(I00
g810
tp2229
asg22
Nsba(irule
FeatureMatrix
p2230
(dp2231
g28
(lp2232
(I01
g744
tp2233
asg22
Nsbasg21
I00
sg22
Nsg23
I00
sg24
S'R'
sbsg39
(irule
FeatureMatrix
p2234
(dp2235
g28
(lp2236
sg22
Nsbsg22
Nsba(irule
Rule
p2237
(dp2238
g15
(irule
Guard
p2239
(dp2240
g18
I00
sg19
(lp2241
sg21
I00
sg22
Nsg23
I00
sg24
S'L'
sbsg25
(irule
FeatureMatrix
p2242
(dp2243
g28
(lp2244
(I01
g742
tp2245
asg22
Nsbsg33
(irule
Guard
p2246
(dp2247
g18
I00
sg19
(lp2248
(irule
FeatureMatrix
p2249
(dp2250
g28
(lp2251
(I00
g1917
tp2252
a(I00
g870
tp2253
a(I00
g810
tp2254
asg22
Nsbasg21
I00
sg22
Nsg23
I00
sg24
S'R'
sbsg39
(irule
FeatureMatrix
p2255
(dp2256
g28
(lp2257
sg22
Nsbsg22
Nsba(irule
Rule
p2258
(dp2259
g15
(irule
Guard
p2260
(dp2261
g18
I00
sg19
(lp2262
sg21
I00
sg22
Nsg23
I00
sg24
S'L'
sbsg25
(irule
FeatureMatrix
p2263
(dp2264
g28
(lp2265
(I01
g742
tp2266
asg22
Nsbsg33
(irule
Guard
p2267
(dp2268
g18
I00
sg19
(lp2269
(irule
FeatureMatrix
p2270
(dp2271
g28
(lp2272
(I00
g1414
tp2273
a(I00
g769
tp2274
a(I00
g810
tp2275
asg22
Nsbasg21
I00
sg22
Nsg23
I00
sg24
S'R'
sbsg39
(irule
FeatureMatrix
p2276
(dp2277
g28
(lp2278
sg22
Nsbsg22
Nsba(irule
Rule
p2279
(dp2280
g15
(irule
Guard
p2281
(dp2282
g18
I00
sg19
(lp2283
sg21
I00
sg22
Nsg23
I00
sg24
S'L'
sbsg25
(irule
FeatureMatrix
p2284
(dp2285
g28
(lp2286
(I01
g742
tp2287
asg22
Nsbsg33
(irule
Guard
p2288
(dp2289
g18
I00
sg19
(lp2290
(irule
FeatureMatrix
p2291
(dp2292
g28
(lp2293
(I00
g769
tp2294
a(I00
g810
tp2295
asg22
Nsbasg21
I00
sg22
Nsg23
I00
sg24
S'R'
sbsg39
(irule
FeatureMatrix
p2296
(dp2297
g28
(lp2298
(I00
g742
tp2299
asg22
Nsbsg22
Nsba(irule
Rule
p2300
(dp2301
g15
(irule
Guard
p2302
(dp2303
g18
I00
sg19
(lp2304
sg21
I00
sg22
Nsg23
I00
sg24
S'L'
sbsg25
(irule
FeatureMatrix
p2305
(dp2306
g28
(lp2307
(I01
g742
tp2308
asg22
Nsbsg33
(irule
Guard
p2309
(dp2310
g18
I00
sg19
(lp2311
(irule
ConstantPhoneme
p2312
(dp2313
S'p'
Vb
sbasg21
I00
sg22
Nsg23
I00
sg24
S'R'
sbsg39
(irule
FeatureMatrix
p2314
(dp2315
g28
(lp2316
(I00
g1119
tp2317
a(I00
g744
tp2318
asg22
Nsbsg22
Nsba(irule
Rule
p2319
(dp2320
g15
(irule
Guard
p2321
(dp2322
g18
I00
sg19
(lp2323
sg21
I00
sg22
Nsg23
I00
sg24
S'L'
sbsg25
(irule
FeatureMatrix
p2324
(dp2325
g28
(lp2326
(I01
g742
tp2327
asg22
Nsbsg33
(irule
Guard
p2328
(dp2329
g18
I00
sg19
(lp2330
(irule
ConstantPhoneme
p2331
(dp2332
S'p'
Vb
sba(irule
FeatureMatrix
p2333
(dp2334
g28
(lp2335
sg22
Nsbasg21
I00
sg22
Nsg23
I00
sg24
S'R'
sbsg39
(irule
FeatureMatrix
p2336
(dp2337
g28
(lp2338
(I00
g1009
tp2339
asg22
Nsbsg22
Nsba(irule
Rule
p2340
(dp2341
g15
(irule
Guard
p2342
(dp2343
g18
I00
sg19
(lp2344
(irule
FeatureMatrix
p2345
(dp2346
g28
(lp2347
sg22
Nsbasg21
I00
sg22
Nsg23
I00
sg24
S'L'
sbsg25
(irule
FeatureMatrix
p2348
(dp2349
g28
(lp2350
(I01
g742
tp2351
asg22
Nsbsg33
(irule
Guard
p2352
(dp2353
g18
I00
sg19
(lp2354
(irule
FeatureMatrix
p2355
(dp2356
g28
(lp2357
(I00
g870
tp2358
a(I00
g810
tp2359
asg22
Nsbasg21
I00
sg22
Nsg23
I00
sg24
S'R'
sbsg39
(irule
FeatureMatrix
p2360
(dp2361
g28
(lp2362
sg22
Nsbsg22
Nsba(irule
Rule
p2363
(dp2364
g15
(irule
Guard
p2365
(dp2366
g18
I00
sg19
(lp2367
sg21
I00
sg22
Nsg23
I00
sg24
S'L'
sbsg25
(irule
FeatureMatrix
p2368
(dp2369
g28
(lp2370
(I01
g742
tp2371
asg22
Nsbsg33
(irule
Guard
p2372
(dp2373
g18
I00
sg19
(lp2374
(irule
FeatureMatrix
p2375
(dp2376
g28
(lp2377
(I00
g810
tp2378
a(I00
g884
tp2379
a(I00
S'sibilant'
tp2380
asg22
Nsbasg21
I00
sg22
Nsg23
I00
sg24
S'R'
sbsg39
(irule
FeatureMatrix
p2381
(dp2382
g28
(lp2383
sg22
Nsbsg22
Nsba(irule
Rule
p2384
(dp2385
g15
(irule
Guard
p2386
(dp2387
g18
I00
sg19
(lp2388
sg21
I00
sg22
Nsg23
I00
sg24
S'L'
sbsg25
(irule
FeatureMatrix
p2389
(dp2390
g28
(lp2391
(I00
g884
tp2392
a(I00
g812
tp2393
a(I01
g742
tp2394
asg22
Nsbsg33
(irule
Guard
p2395
(dp2396
g18
I00
sg19
(lp2397
(irule
ConstantPhoneme
p2398
(dp2399
S'p'
Vb
sbasg21
I00
sg22
Nsg23
I00
sg24
S'R'
sbsg39
(irule
FeatureMatrix
p2400
(dp2401
g28
(lp2402
sg22
Nsbsg22
Nsba(irule
Rule
p2403
(dp2404
g15
(irule
Guard
p2405
(dp2406
g18
I00
sg19
(lp2407
sg21
I00
sg22
Nsg23
I00
sg24
S'L'
sbsg25
(irule
FeatureMatrix
p2408
(dp2409
g28
(lp2410
(I00
g812
tp2411
a(I01
g742
tp2412
a(I00
g744
tp2413
asg22
Nsbsg33
(irule
Guard
p2414
(dp2415
g18
I00
sg19
(lp2416
(irule
ConstantPhoneme
p2417
(dp2418
S'p'
Vb
sbasg21
I00
sg22
Nsg23
I00
sg24
S'R'
sbsg39
(irule
FeatureMatrix
p2419
(dp2420
g28
(lp2421
sg22
Nsbsg22
Nsba(irule
Rule
p2422
(dp2423
g15
(irule
Guard
p2424
(dp2425
g18
I00
sg19
(lp2426
sg21
I00
sg22
Nsg23
I00
sg24
S'L'
sbsg25
(irule
FeatureMatrix
p2427
(dp2428
g28
(lp2429
(I00
g884
tp2430
a(I01
g742
tp2431
a(I00
g744
tp2432
asg22
Nsbsg33
(irule
Guard
p2433
(dp2434
g18
I00
sg19
(lp2435
(irule
ConstantPhoneme
p2436
(dp2437
S'p'
Vb
sbasg21
I00
sg22
Nsg23
I00
sg24
S'R'
sbsg39
(irule
FeatureMatrix
p2438
(dp2439
g28
(lp2440
sg22
Nsbsg22
Nsba(irule
Rule
p2441
(dp2442
g15
(irule
Guard
p2443
(dp2444
g18
I00
sg19
(lp2445
sg21
I00
sg22
Nsg23
I00
sg24
S'L'
sbsg25
(irule
FeatureMatrix
p2446
(dp2447
g28
(lp2448
(I00
g1064
tp2449
a(I01
g742
tp2450
a(I00
g744
tp2451
asg22
Nsbsg33
(irule
Guard
p2452
(dp2453
g18
I00
sg19
(lp2454
(irule
ConstantPhoneme
p2455
(dp2456
S'p'
Vb
sbasg21
I00
sg22
Nsg23
I00
sg24
S'R'
sbsg39
(irule
FeatureMatrix
p2457
(dp2458
g28
(lp2459
sg22
Nsbsg22
Nsba(irule
Rule
p2460
(dp2461
g15
(irule
Guard
p2462
(dp2463
g18
I00
sg19
(lp2464
sg21
I00
sg22
Nsg23
I00
sg24
S'L'
sbsg25
(irule
FeatureMatrix
p2465
(dp2466
g28
(lp2467
(I01
g742
tp2468
asg22
Nsbsg33
(irule
Guard
p2469
(dp2470
g18
I00
sg19
(lp2471
(irule
FeatureMatrix
p2472
(dp2473
g28
(lp2474
(I00
g810
tp2475
a(I00
g884
tp2476
asg22
Nsbasg21
I00
sg22
Nsg23
I00
sg24
S'R'
sbsg39
(irule
FeatureMatrix
p2477
(dp2478
g28
(lp2479
(I00
g884
tp2480
asg22
Nsbsg22
Nsba(irule
Rule
p2481
(dp2482
g15
(irule
Guard
p2483
(dp2484
g18
I00
sg19
(lp2485
sg21
I00
sg22
Nsg23
I00
sg24
S'L'
sbsg25
(irule
FeatureMatrix
p2486
(dp2487
g28
(lp2488
(I00
g1064
tp2489
a(I00
g812
tp2490
a(I01
g742
tp2491
asg22
Nsbsg33
(irule
Guard
p2492
(dp2493
g18
I00
sg19
(lp2494
(irule
ConstantPhoneme
p2495
(dp2496
S'p'
Vb
sbasg21
I00
sg22
Nsg23
I00
sg24
S'R'
sbsg39
(irule
FeatureMatrix
p2497
(dp2498
g28
(lp2499
sg22
Nsbsg22
Nsba(irule
Rule
p2500
(dp2501
g15
(irule
Guard
p2502
(dp2503
g18
I00
sg19
(lp2504
sg21
I00
sg22
Nsg23
I00
sg24
S'L'
sbsg25
(irule
FeatureMatrix
p2505
(dp2506
g28
(lp2507
(I01
g742
tp2508
asg22
Nsbsg33
(irule
Guard
p2509
(dp2510
g18
I00
sg19
(lp2511
(irule
FeatureMatrix
p2512
(dp2513
g28
(lp2514
(I01
g930
tp2515
a(I00
g810
tp2516
asg22
Nsbasg21
I00
sg22
Nsg23
I00
sg24
S'R'
sbsg39
(irule
FeatureMatrix
p2517
(dp2518
g28
(lp2519
(I00
g769
tp2520
asg22
Nsbsg22
Nsba(irule
Rule
p2521
(dp2522
g15
(irule
Guard
p2523
(dp2524
g18
I00
sg19
(lp2525
sg21
I00
sg22
Nsg23
I00
sg24
S'L'
sbsg25
(irule
FeatureMatrix
p2526
(dp2527
g28
(lp2528
(I01
g742
tp2529
asg22
Nsbsg33
(irule
Guard
p2530
(dp2531
g18
I00
sg19
(lp2532
(irule
FeatureMatrix
p2533
(dp2534
g28
(lp2535
(I00
g769
tp2536
a(I01
g742
tp2537
asg22
Nsbasg21
I00
sg22
Nsg23
I00
sg24
S'R'
sbsg39
(irule
FeatureMatrix
p2538
(dp2539
g28
(lp2540
(I00
g742
tp2541
asg22
Nsbsg22
Nsba(irule
Rule
p2542
(dp2543
g15
(irule
Guard
p2544
(dp2545
g18
I00
sg19
(lp2546
sg21
I00
sg22
Nsg23
I00
sg24
S'L'
sbsg25
(irule
FeatureMatrix
p2547
(dp2548
g28
(lp2549
(I00
g884
tp2550
a(I00
g1064
tp2551
a(I01
g742
tp2552
asg22
Nsbsg33
(irule
Guard
p2553
(dp2554
g18
I00
sg19
(lp2555
(irule
ConstantPhoneme
p2556
(dp2557
S'p'
Vb
sbasg21
I00
sg22
Nsg23
I00
sg24
S'R'
sbsg39
(irule
FeatureMatrix
p2558
(dp2559
g28
(lp2560
sg22
Nsbsg22
Nsba(irule
Rule
p2561
(dp2562
g15
(irule
Guard
p2563
(dp2564
g18
I00
sg19
(lp2565
(irule
FeatureMatrix
p2566
(dp2567
g28
(lp2568
sg22
Nsbasg21
I00
sg22
Nsg23
I00
sg24
S'L'
sbsg25
(irule
FeatureMatrix
p2569
(dp2570
g28
(lp2571
(I00
g812
tp2572
a(I01
g742
tp2573
asg22
Nsbsg33
(irule
Guard
p2574
(dp2575
g18
I00
sg19
(lp2576
(irule
ConstantPhoneme
p2577
(dp2578
S'p'
Vb
sbasg21
I00
sg22
Nsg23
I00
sg24
S'R'
sbsg39
(irule
FeatureMatrix
p2579
(dp2580
g28
(lp2581
sg22
Nsbsg22
Nsba(irule
Rule
p2582
(dp2583
g15
(irule
Guard
p2584
(dp2585
g18
I00
sg19
(lp2586
sg21
I00
sg22
Nsg23
I00
sg24
S'L'
sbsg25
(irule
FeatureMatrix
p2587
(dp2588
g28
(lp2589
(I01
g742
tp2590
asg22
Nsbsg33
(irule
Guard
p2591
(dp2592
g18
I00
sg19
(lp2593
(irule
FeatureMatrix
p2594
(dp2595
g28
(lp2596
(I00
g870
tp2597
a(I00
g810
tp2598
asg22
Nsba(irule
FeatureMatrix
p2599
(dp2600
g28
(lp2601
sg22
Nsbasg21
I00
sg22
Nsg23
I00
sg24
S'R'
sbsg39
(irule
FeatureMatrix
p2602
(dp2603
g28
(lp2604
sg22
Nsbsg22
Nsba(irule
Rule
p2605
(dp2606
g15
(irule
Guard
p2607
(dp2608
g18
I00
sg19
(lp2609
sg21
I00
sg22
Nsg23
I00
sg24
S'L'
sbsg25
(irule
FeatureMatrix
p2610
(dp2611
g28
(lp2612
(I01
g742
tp2613
asg22
Nsbsg33
(irule
Guard
p2614
(dp2615
g18
I00
sg19
(lp2616
(irule
FeatureMatrix
p2617
(dp2618
g28
(lp2619
(I00
g870
tp2620
a(I00
g810
tp2621
asg22
Nsbasg21
I00
sg22
Nsg23
I00
sg24
S'R'
sbsg39
(irule
FeatureMatrix
p2622
(dp2623
g28
(lp2624
(I00
g1212
tp2625
asg22
Nsbsg22
Nsba(irule
Rule
p2626
(dp2627
g15
(irule
Guard
p2628
(dp2629
g18
I00
sg19
(lp2630
sg21
I00
sg22
Nsg23
I00
sg24
S'L'
sbsg25
(irule
FeatureMatrix
p2631
(dp2632
g28
(lp2633
(I00
g812
tp2634
a(I01
g742
tp2635
asg22
Nsbsg33
(irule
Guard
p2636
(dp2637
g18
I00
sg19
(lp2638
(irule
ConstantPhoneme
p2639
(dp2640
S'p'
Vb
sba(irule
FeatureMatrix
p2641
(dp2642
g28
(lp2643
sg22
Nsbasg21
I00
sg22
Nsg23
I00
sg24
S'R'
sbsg39
(irule
FeatureMatrix
p2644
(dp2645
g28
(lp2646
sg22
Nsbsg22
Nsba(irule
Rule
p2647
(dp2648
g15
(irule
Guard
p2649
(dp2650
g18
I00
sg19
(lp2651
(irule
FeatureMatrix
p2652
(dp2653
g28
(lp2654
sg22
Nsbasg21
I00
sg22
Nsg23
I00
sg24
S'L'
sbsg25
(irule
FeatureMatrix
p2655
(dp2656
g28
(lp2657
(I01
g742
tp2658
asg22
Nsbsg33
(irule
Guard
p2659
(dp2660
g18
I00
sg19
(lp2661
(irule
ConstantPhoneme
p2662
(dp2663
S'p'
Vb
sba(irule
FeatureMatrix
p2664
(dp2665
g28
(lp2666
sg22
Nsbasg21
I00
sg22
Nsg23
I00
sg24
S'R'
sbsg39
(irule
FeatureMatrix
p2667
(dp2668
g28
(lp2669
sg22
Nsbsg22
Nsba(irule
Rule
p2670
(dp2671
g15
(irule
Guard
p2672
(dp2673
g18
I00
sg19
(lp2674
sg21
I00
sg22
Nsg23
I00
sg24
S'L'
sbsg25
(irule
FeatureMatrix
p2675
(dp2676
g28
(lp2677
(I00
g1193
tp2678
a(I01
g742
tp2679
asg22
Nsbsg33
(irule
Guard
p2680
(dp2681
g18
I00
sg19
(lp2682
(irule
ConstantPhoneme
p2683
(dp2684
S'p'
Vb
sbasg21
I00
sg22
Nsg23
I00
sg24
S'R'
sbsg39
(irule
FeatureMatrix
p2685
(dp2686
g28
(lp2687
(I00
g742
tp2688
asg22
Nsbsg22
Nsba(irule
Rule
p2689
(dp2690
g15
(irule
Guard
p2691
(dp2692
g18
I00
sg19
(lp2693
(irule
FeatureMatrix
p2694
(dp2695
g28
(lp2696
sg22
Nsbasg21
I00
sg22
Nsg23
I00
sg24
S'L'
sbsg25
(irule
FeatureMatrix
p2697
(dp2698
g28
(lp2699
(I01
g742
tp2700
asg22
Nsbsg33
(irule
Guard
p2701
(dp2702
g18
I00
sg19
(lp2703
(irule
FeatureMatrix
p2704
(dp2705
g28
(lp2706
(I00
g810
tp2707
a(I00
g812
tp2708
asg22
Nsbasg21
I00
sg22
Nsg23
I00
sg24
S'R'
sbsg39
(irule
FeatureMatrix
p2709
(dp2710
g28
(lp2711
sg22
Nsbsg22
Nsba(irule
Rule
p2712
(dp2713
g15
(irule
Guard
p2714
(dp2715
g18
I00
sg19
(lp2716
(irule
FeatureMatrix
p2717
(dp2718
g28
(lp2719
sg22
Nsbasg21
I00
sg22
Nsg23
I00
sg24
S'L'
sbsg25
(irule
FeatureMatrix
p2720
(dp2721
g28
(lp2722
(I01
g742
tp2723
asg22
Nsbsg33
(irule
Guard
p2724
(dp2725
g18
I00
sg19
(lp2726
(irule
FeatureMatrix
p2727
(dp2728
g28
(lp2729
(I00
g810
tp2730
a(I00
g884
tp2731
asg22
Nsbasg21
I00
sg22
Nsg23
I00
sg24
S'R'
sbsg39
(irule
FeatureMatrix
p2732
(dp2733
g28
(lp2734
sg22
Nsbsg22
Nsba(irule
Rule
p2735
(dp2736
g15
(irule
Guard
p2737
(dp2738
g18
I00
sg19
(lp2739
sg21
I00
sg22
Nsg23
I00
sg24
S'L'
sbsg25
(irule
FeatureMatrix
p2740
(dp2741
g28
(lp2742
(I00
g884
tp2743
a(I01
g742
tp2744
asg22
Nsbsg33
(irule
Guard
p2745
(dp2746
g18
I00
sg19
(lp2747
(irule
ConstantPhoneme
p2748
(dp2749
S'p'
Vb
sbasg21
I00
sg22
Nsg23
I00
sg24
S'R'
sbsg39
(irule
FeatureMatrix
p2750
(dp2751
g28
(lp2752
(I00
g1119
tp2753
asg22
Nsbsg22
Nsbaa(lp2754
(irule
Rule
p2755
(dp2756
g15
(irule
Guard
p2757
(dp2758
g18
I00
sg19
(lp2759
(irule
FeatureMatrix
p2760
(dp2761
g28
(lp2762
sg22
V[  ]
p2763
sba(irule
FeatureMatrix
p2764
(dp2765
g28
(lp2766
(I00
S'back'
p2767
tp2768
a(I01
S'tense'
tp2769
asg22
V[ +tense -back ]
p2770
sbasg21
I00
sg22
V[ +tense -back ] [  ]*
p2771
sg23
I01
sg24
S'L'
sbsg25
(irule
FeatureMatrix
p2772
(dp2773
g28
(lp2774
(I00
g2767
tp2775
a(I00
S'low'
tp2776
asg22
V[ -back -low ]
p2777
sbsg33
(irule
Guard
p2778
(dp2779
g18
I00
sg19
(lp2780
sg21
I00
sg22
V
sg23
I00
sg24
S'R'
sbsg39
(irule
FeatureMatrix
p2781
(dp2782
g28
(lp2783
(I01
S'continuant'
tp2784
asg22
V[ +continuant ]
p2785
sbsg22
V[ +continuant ] ---> [ -back -low ] / [ +tense -back ] [  ]* _ 
p2786
sba(irule
Rule
p2787
(dp2788
g15
(irule
Guard
p2789
(dp2790
g18
I00
sg19
(lp2791
(irule
FeatureMatrix
p2792
(dp2793
g28
(lp2794
sg22
Nsba(irule
FeatureMatrix
p2795
(dp2796
g28
(lp2797
(I00
S'back'
p2798
tp2799
a(I01
S'tense'
p2800
tp2801
asg22
Nsbasg21
I00
sg22
Nsg23
I01
sg24
S'L'
sbsg25
(irule
FeatureMatrix
p2802
(dp2803
g28
(lp2804
(I00
g2798
tp2805
a(I00
S'low'
p2806
tp2807
asg22
Nsbsg33
(irule
Guard
p2808
(dp2809
g18
I00
sg19
(lp2810
(irule
FeatureMatrix
p2811
(dp2812
g28
(lp2813
sg22
Nsbasg21
I00
sg22
Nsg23
I00
sg24
S'R'
sbsg39
(irule
FeatureMatrix
p2814
(dp2815
g28
(lp2816
sg22
Nsbsg22
Nsba(irule
Rule
p2817
(dp2818
g15
(irule
Guard
p2819
(dp2820
g18
I00
sg19
(lp2821
(irule
FeatureMatrix
p2822
(dp2823
g28
(lp2824
sg22
Nsba(irule
FeatureMatrix
p2825
(dp2826
g28
(lp2827
(I00
g2798
tp2828
a(I01
S'vowel'
p2829
tp2830
asg22
Nsbasg21
I00
sg22
Nsg23
I01
sg24
S'L'
sbsg25
(irule
FeatureMatrix
p2831
(dp2832
g28
(lp2833
(I00
g2798
tp2834
a(I00
g2806
tp2835
asg22
Nsbsg33
(irule
Guard
p2836
(dp2837
g18
I00
sg19
(lp2838
(irule
FeatureMatrix
p2839
(dp2840
g28
(lp2841
sg22
Nsbasg21
I00
sg22
Nsg23
I00
sg24
S'R'
sbsg39
(irule
FeatureMatrix
p2842
(dp2843
g28
(lp2844
sg22
Nsbsg22
Nsba(irule
Rule
p2845
(dp2846
g15
(irule
Guard
p2847
(dp2848
g18
I00
sg19
(lp2849
(irule
FeatureMatrix
p2850
(dp2851
g28
(lp2852
sg22
Nsba(irule
FeatureMatrix
p2853
(dp2854
g28
(lp2855
(I00
g2798
tp2856
a(I01
g2800
tp2857
asg22
Nsbasg21
I00
sg22
Nsg23
I01
sg24
S'L'
sbsg25
(irule
FeatureMatrix
p2858
(dp2859
g28
(lp2860
(I00
g2798
tp2861
a(I00
g2806
tp2862
asg22
Nsbsg33
(irule
Guard
p2863
(dp2864
g18
I00
sg19
(lp2865
sg21
I00
sg22
Nsg23
I00
sg24
S'R'
sbsg39
(irule
FeatureMatrix
p2866
(dp2867
g28
(lp2868
(I01
g2806
tp2869
asg22
Nsbsg22
Nsba(irule
Rule
p2870
(dp2871
g15
(irule
Guard
p2872
(dp2873
g18
I00
sg19
(lp2874
(irule
FeatureMatrix
p2875
(dp2876
g28
(lp2877
sg22
Nsba(irule
FeatureMatrix
p2878
(dp2879
g28
(lp2880
(I00
g2798
tp2881
a(I01
g2829
tp2882
asg22
Nsbasg21
I00
sg22
Nsg23
I01
sg24
S'L'
sbsg25
(irule
FeatureMatrix
p2883
(dp2884
g28
(lp2885
(I00
g2798
tp2886
a(I00
g2806
tp2887
asg22
Nsbsg33
(irule
Guard
p2888
(dp2889
g18
I00
sg19
(lp2890
sg21
I00
sg22
Nsg23
I00
sg24
S'R'
sbsg39
(irule
FeatureMatrix
p2891
(dp2892
g28
(lp2893
(I01
S'sonorant'
p2894
tp2895
asg22
Nsbsg22
Nsba(irule
Rule
p2896
(dp2897
g15
(irule
Guard
p2898
(dp2899
g18
I00
sg19
(lp2900
(irule
FeatureMatrix
p2901
(dp2902
g28
(lp2903
sg22
Nsba(irule
FeatureMatrix
p2904
(dp2905
g28
(lp2906
(I00
g2798
tp2907
a(I01
g2829
tp2908
asg22
Nsbasg21
I00
sg22
Nsg23
I01
sg24
S'L'
sbsg25
(irule
FeatureMatrix
p2909
(dp2910
g28
(lp2911
(I00
g2798
tp2912
a(I00
g2806
tp2913
asg22
Nsbsg33
(irule
Guard
p2914
(dp2915
g18
I00
sg19
(lp2916
sg21
I00
sg22
Nsg23
I00
sg24
S'R'
sbsg39
(irule
FeatureMatrix
p2917
(dp2918
g28
(lp2919
(I01
g2806
tp2920
asg22
Nsbsg22
Nsba(irule
Rule
p2921
(dp2922
g15
(irule
Guard
p2923
(dp2924
g18
I00
sg19
(lp2925
(irule
FeatureMatrix
p2926
(dp2927
g28
(lp2928
sg22
Nsba(irule
FeatureMatrix
p2929
(dp2930
g28
(lp2931
(I00
g2798
tp2932
a(I01
g2800
tp2933
asg22
Nsbasg21
I00
sg22
Nsg23
I01
sg24
S'L'
sbsg25
(irule
FeatureMatrix
p2934
(dp2935
g28
(lp2936
(I00
g2798
tp2937
a(I00
g2806
tp2938
asg22
Nsbsg33
(irule
Guard
p2939
(dp2940
g18
I00
sg19
(lp2941
sg21
I00
sg22
Nsg23
I00
sg24
S'R'
sbsg39
(irule
FeatureMatrix
p2942
(dp2943
g28
(lp2944
(I01
S'voice'
p2945
tp2946
asg22
Nsbsg22
Nsba(irule
Rule
p2947
(dp2948
g15
(irule
Guard
p2949
(dp2950
g18
I00
sg19
(lp2951
(irule
FeatureMatrix
p2952
(dp2953
g28
(lp2954
sg22
Nsba(irule
FeatureMatrix
p2955
(dp2956
g28
(lp2957
(I00
g2798
tp2958
a(I01
g2800
tp2959
asg22
Nsbasg21
I00
sg22
Nsg23
I01
sg24
S'L'
sbsg25
(irule
FeatureMatrix
p2960
(dp2961
g28
(lp2962
(I00
g2798
tp2963
a(I00
g2806
tp2964
asg22
Nsbsg33
(irule
Guard
p2965
(dp2966
g18
I00
sg19
(lp2967
sg21
I00
sg22
Nsg23
I00
sg24
S'R'
sbsg39
(irule
FeatureMatrix
p2968
(dp2969
g28
(lp2970
(I01
g2800
tp2971
asg22
Nsbsg22
Nsba(irule
Rule
p2972
(dp2973
g15
(irule
Guard
p2974
(dp2975
g18
I00
sg19
(lp2976
(irule
FeatureMatrix
p2977
(dp2978
g28
(lp2979
sg22
Nsba(irule
FeatureMatrix
p2980
(dp2981
g28
(lp2982
(I00
g2798
tp2983
a(I01
g2800
tp2984
asg22
Nsbasg21
I00
sg22
Nsg23
I01
sg24
S'L'
sbsg25
(irule
FeatureMatrix
p2985
(dp2986
g28
(lp2987
(I00
g2798
tp2988
a(I00
g2806
tp2989
asg22
Nsbsg33
(irule
Guard
p2990
(dp2991
g18
I00
sg19
(lp2992
sg21
I00
sg22
Nsg23
I00
sg24
S'R'
sbsg39
(irule
FeatureMatrix
p2993
(dp2994
g28
(lp2995
(I00
S'high'
p2996
tp2997
asg22
Nsbsg22
Nsba(irule
Rule
p2998
(dp2999
g15
(irule
Guard
p3000
(dp3001
g18
I00
sg19
(lp3002
(irule
FeatureMatrix
p3003
(dp3004
g28
(lp3005
sg22
Nsba(irule
FeatureMatrix
p3006
(dp3007
g28
(lp3008
(I00
g2798
tp3009
a(I01
g2829
tp3010
asg22
Nsbasg21
I00
sg22
Nsg23
I01
sg24
S'L'
sbsg25
(irule
FeatureMatrix
p3011
(dp3012
g28
(lp3013
(I00
g2798
tp3014
a(I00
g2806
tp3015
asg22
Nsbsg33
(irule
Guard
p3016
(dp3017
g18
I00
sg19
(lp3018
sg21
I00
sg22
Nsg23
I00
sg24
S'R'
sbsg39
(irule
FeatureMatrix
p3019
(dp3020
g28
(lp3021
(I01
g2945
tp3022
asg22
Nsbsg22
Nsba(irule
Rule
p3023
(dp3024
g15
(irule
Guard
p3025
(dp3026
g18
I00
sg19
(lp3027
(irule
FeatureMatrix
p3028
(dp3029
g28
(lp3030
sg22
Nsba(irule
FeatureMatrix
p3031
(dp3032
g28
(lp3033
(I00
g2798
tp3034
a(I01
g2800
tp3035
asg22
Nsbasg21
I00
sg22
Nsg23
I01
sg24
S'L'
sbsg25
(irule
FeatureMatrix
p3036
(dp3037
g28
(lp3038
(I00
g2798
tp3039
a(I00
g2806
tp3040
asg22
Nsbsg33
(irule
Guard
p3041
(dp3042
g18
I00
sg19
(lp3043
sg21
I00
sg22
Nsg23
I00
sg24
S'R'
sbsg39
(irule
FeatureMatrix
p3044
(dp3045
g28
(lp3046
(I01
g2829
tp3047
asg22
Nsbsg22
Nsba(irule
Rule
p3048
(dp3049
g15
(irule
Guard
p3050
(dp3051
g18
I00
sg19
(lp3052
(irule
FeatureMatrix
p3053
(dp3054
g28
(lp3055
sg22
Nsba(irule
FeatureMatrix
p3056
(dp3057
g28
(lp3058
(I00
g2798
tp3059
a(I01
g2800
tp3060
asg22
Nsbasg21
I00
sg22
Nsg23
I01
sg24
S'L'
sbsg25
(irule
FeatureMatrix
p3061
(dp3062
g28
(lp3063
(I00
g2798
tp3064
a(I00
g2806
tp3065
asg22
Nsbsg33
(irule
Guard
p3066
(dp3067
g18
I00
sg19
(lp3068
sg21
I00
sg22
Nsg23
I00
sg24
S'R'
sbsg39
(irule
FeatureMatrix
p3069
(dp3070
g28
(lp3071
(I01
g2894
tp3072
asg22
Nsbsg22
Nsba(irule
Rule
p3073
(dp3074
g15
(irule
Guard
p3075
(dp3076
g18
I00
sg19
(lp3077
(irule
FeatureMatrix
p3078
(dp3079
g28
(lp3080
sg22
Nsba(irule
FeatureMatrix
p3081
(dp3082
g28
(lp3083
(I00
g2798
tp3084
a(I01
g2829
tp3085
asg22
Nsbasg21
I00
sg22
Nsg23
I01
sg24
S'L'
sbsg25
(irule
FeatureMatrix
p3086
(dp3087
g28
(lp3088
(I00
g2798
tp3089
a(I00
g2806
tp3090
asg22
Nsbsg33
(irule
Guard
p3091
(dp3092
g18
I00
sg19
(lp3093
sg21
I00
sg22
Nsg23
I00
sg24
S'R'
sbsg39
(irule
FeatureMatrix
p3094
(dp3095
g28
(lp3096
(I01
g2829
tp3097
asg22
Nsbsg22
Nsba(irule
Rule
p3098
(dp3099
g15
(irule
Guard
p3100
(dp3101
g18
I00
sg19
(lp3102
(irule
FeatureMatrix
p3103
(dp3104
g28
(lp3105
sg22
Nsba(irule
FeatureMatrix
p3106
(dp3107
g28
(lp3108
(I00
g2798
tp3109
a(I01
g2829
tp3110
asg22
Nsbasg21
I00
sg22
Nsg23
I01
sg24
S'L'
sbsg25
(irule
FeatureMatrix
p3111
(dp3112
g28
(lp3113
(I00
g2798
tp3114
a(I00
g2806
tp3115
asg22
Nsbsg33
(irule
Guard
p3116
(dp3117
g18
I00
sg19
(lp3118
sg21
I00
sg22
Nsg23
I00
sg24
S'R'
sbsg39
(irule
FeatureMatrix
p3119
(dp3120
g28
(lp3121
(I01
S'continuant'
p3122
tp3123
asg22
Nsbsg22
Nsba(irule
Rule
p3124
(dp3125
g15
(irule
Guard
p3126
(dp3127
g18
I00
sg19
(lp3128
(irule
FeatureMatrix
p3129
(dp3130
g28
(lp3131
sg22
Nsba(irule
FeatureMatrix
p3132
(dp3133
g28
(lp3134
(I00
g2798
tp3135
a(I01
g2829
tp3136
asg22
Nsbasg21
I00
sg22
Nsg23
I01
sg24
S'L'
sbsg25
(irule
FeatureMatrix
p3137
(dp3138
g28
(lp3139
(I00
g2798
tp3140
a(I00
g2806
tp3141
asg22
Nsbsg33
(irule
Guard
p3142
(dp3143
g18
I00
sg19
(lp3144
sg21
I00
sg22
Nsg23
I00
sg24
S'R'
sbsg39
(irule
FeatureMatrix
p3145
(dp3146
g28
(lp3147
(I01
g2800
tp3148
asg22
Nsbsg22
Nsba(irule
Rule
p3149
(dp3150
g15
(irule
Guard
p3151
(dp3152
g18
I00
sg19
(lp3153
(irule
FeatureMatrix
p3154
(dp3155
g28
(lp3156
sg22
Nsba(irule
FeatureMatrix
p3157
(dp3158
g28
(lp3159
(I00
g2798
tp3160
a(I01
g2829
tp3161
asg22
Nsbasg21
I00
sg22
Nsg23
I01
sg24
S'L'
sbsg25
(irule
FeatureMatrix
p3162
(dp3163
g28
(lp3164
(I00
g2798
tp3165
a(I00
g2806
tp3166
asg22
Nsbsg33
(irule
Guard
p3167
(dp3168
g18
I00
sg19
(lp3169
sg21
I00
sg22
Nsg23
I00
sg24
S'R'
sbsg39
(irule
FeatureMatrix
p3170
(dp3171
g28
(lp3172
(I00
g2996
tp3173
asg22
Nsbsg22
Nsba(irule
Rule
p3174
(dp3175
g15
(irule
Guard
p3176
(dp3177
g18
I00
sg19
(lp3178
(irule
FeatureMatrix
p3179
(dp3180
g28
(lp3181
sg22
Nsba(irule
FeatureMatrix
p3182
(dp3183
g28
(lp3184
(I00
S'nasal'
p3185
tp3186
a(I00
g2798
tp3187
a(I01
g2829
tp3188
asg22
Nsbasg21
I00
sg22
Nsg23
I01
sg24
S'L'
sbsg25
(irule
FeatureMatrix
p3189
(dp3190
g28
(lp3191
(I00
g2798
tp3192
a(I00
g2806
tp3193
asg22
Nsbsg33
(irule
Guard
p3194
(dp3195
g18
I00
sg19
(lp3196
sg21
I00
sg22
Nsg23
I00
sg24
S'R'
sbsg39
(irule
FeatureMatrix
p3197
(dp3198
g28
(lp3199
(I01
g3122
tp3200
asg22
Nsbsg22
Nsba(irule
Rule
p3201
(dp3202
g15
(irule
Guard
p3203
(dp3204
g18
I00
sg19
(lp3205
(irule
FeatureMatrix
p3206
(dp3207
g28
(lp3208
sg22
Nsba(irule
FeatureMatrix
p3209
(dp3210
g28
(lp3211
(I00
S'anterior'
p3212
tp3213
a(I00
g2798
tp3214
a(I01
g2829
tp3215
asg22
Nsbasg21
I00
sg22
Nsg23
I01
sg24
S'L'
sbsg25
(irule
FeatureMatrix
p3216
(dp3217
g28
(lp3218
(I00
g2798
tp3219
a(I00
g2806
tp3220
asg22
Nsbsg33
(irule
Guard
p3221
(dp3222
g18
I00
sg19
(lp3223
(irule
FeatureMatrix
p3224
(dp3225
g28
(lp3226
sg22
Nsbasg21
I00
sg22
Nsg23
I00
sg24
S'R'
sbsg39
(irule
FeatureMatrix
p3227
(dp3228
g28
(lp3229
sg22
Nsbsg22
Nsba(irule
Rule
p3230
(dp3231
g15
(irule
Guard
p3232
(dp3233
g18
I00
sg19
(lp3234
(irule
FeatureMatrix
p3235
(dp3236
g28
(lp3237
sg22
Nsba(irule
FeatureMatrix
p3238
(dp3239
g28
(lp3240
(I00
S'delayedRelease'
p3241
tp3242
a(I00
g2798
tp3243
a(I01
g2829
tp3244
asg22
Nsbasg21
I00
sg22
Nsg23
I01
sg24
S'L'
sbsg25
(irule
FeatureMatrix
p3245
(dp3246
g28
(lp3247
(I00
g2798
tp3248
a(I00
g2806
tp3249
asg22
Nsbsg33
(irule
Guard
p3250
(dp3251
g18
I00
sg19
(lp3252
(irule
FeatureMatrix
p3253
(dp3254
g28
(lp3255
sg22
Nsbasg21
I00
sg22
Nsg23
I00
sg24
S'R'
sbsg39
(irule
FeatureMatrix
p3256
(dp3257
g28
(lp3258
sg22
Nsbsg22
Nsba(irule
Rule
p3259
(dp3260
g15
(irule
Guard
p3261
(dp3262
g18
I00
sg19
(lp3263
(irule
FeatureMatrix
p3264
(dp3265
g28
(lp3266
sg22
Nsba(irule
FeatureMatrix
p3267
(dp3268
g28
(lp3269
(I00
g2798
tp3270
a(I01
g2800
tp3271
asg22
Nsbasg21
I00
sg22
Nsg23
I01
sg24
S'L'
sbsg25
(irule
FeatureMatrix
p3272
(dp3273
g28
(lp3274
(I00
g3241
tp3275
a(I00
g2798
tp3276
a(I00
g2806
tp3277
asg22
Nsbsg33
(irule
Guard
p3278
(dp3279
g18
I00
sg19
(lp3280
sg21
I00
sg22
Nsg23
I00
sg24
S'R'
sbsg39
(irule
FeatureMatrix
p3281
(dp3282
g28
(lp3283
(I01
g3122
tp3284
asg22
Nsbsg22
Nsba(irule
Rule
p3285
(dp3286
g15
(irule
Guard
p3287
(dp3288
g18
I00
sg19
(lp3289
(irule
FeatureMatrix
p3290
(dp3291
g28
(lp3292
sg22
Nsba(irule
FeatureMatrix
p3293
(dp3294
g28
(lp3295
(I00
S'liquid'
p3296
tp3297
a(I00
g2798
tp3298
a(I01
g2829
tp3299
asg22
Nsbasg21
I00
sg22
Nsg23
I01
sg24
S'L'
sbsg25
(irule
FeatureMatrix
p3300
(dp3301
g28
(lp3302
(I00
g2798
tp3303
a(I00
g2806
tp3304
asg22
Nsbsg33
(irule
Guard
p3305
(dp3306
g18
I00
sg19
(lp3307
(irule
FeatureMatrix
p3308
(dp3309
g28
(lp3310
sg22
Nsbasg21
I00
sg22
Nsg23
I00
sg24
S'R'
sbsg39
(irule
FeatureMatrix
p3311
(dp3312
g28
(lp3313
sg22
Nsbsg22
Nsba(irule
Rule
p3314
(dp3315
g15
(irule
Guard
p3316
(dp3317
g18
I00
sg19
(lp3318
(irule
FeatureMatrix
p3319
(dp3320
g28
(lp3321
sg22
Nsba(irule
FeatureMatrix
p3322
(dp3323
g28
(lp3324
(I00
g3296
tp3325
a(I00
g2798
tp3326
a(I01
g2800
tp3327
asg22
Nsbasg21
I00
sg22
Nsg23
I01
sg24
S'L'
sbsg25
(irule
FeatureMatrix
p3328
(dp3329
g28
(lp3330
(I00
g2798
tp3331
a(I00
g2806
tp3332
asg22
Nsbsg33
(irule
Guard
p3333
(dp3334
g18
I00
sg19
(lp3335
(irule
FeatureMatrix
p3336
(dp3337
g28
(lp3338
sg22
Nsbasg21
I00
sg22
Nsg23
I00
sg24
S'R'
sbsg39
(irule
FeatureMatrix
p3339
(dp3340
g28
(lp3341
sg22
Nsbsg22
Nsba(irule
Rule
p3342
(dp3343
g15
(irule
Guard
p3344
(dp3345
g18
I00
sg19
(lp3346
(irule
FeatureMatrix
p3347
(dp3348
g28
(lp3349
sg22
Nsba(irule
FeatureMatrix
p3350
(dp3351
g28
(lp3352
(I00
g2798
tp3353
a(I01
g2800
tp3354
a(I01
g2945
tp3355
asg22
Nsbasg21
I00
sg22
Nsg23
I01
sg24
S'L'
sbsg25
(irule
FeatureMatrix
p3356
(dp3357
g28
(lp3358
(I00
g2798
tp3359
a(I00
g2806
tp3360
asg22
Nsbsg33
(irule
Guard
p3361
(dp3362
g18
I00
sg19
(lp3363
(irule
FeatureMatrix
p3364
(dp3365
g28
(lp3366
sg22
Nsbasg21
I00
sg22
Nsg23
I00
sg24
S'R'
sbsg39
(irule
FeatureMatrix
p3367
(dp3368
g28
(lp3369
sg22
Nsbsg22
Nsba(irule
Rule
p3370
(dp3371
g15
(irule
Guard
p3372
(dp3373
g18
I00
sg19
(lp3374
(irule
FeatureMatrix
p3375
(dp3376
g28
(lp3377
sg22
Nsba(irule
FeatureMatrix
p3378
(dp3379
g28
(lp3380
(I00
g2798
tp3381
a(I01
g2829
tp3382
asg22
Nsbasg21
I00
sg22
Nsg23
I01
sg24
S'L'
sbsg25
(irule
FeatureMatrix
p3383
(dp3384
g28
(lp3385
(I00
g2798
tp3386
a(I00
g2806
tp3387
asg22
Nsbsg33
(irule
Guard
p3388
(dp3389
g18
I00
sg19
(lp3390
(irule
FeatureMatrix
p3391
(dp3392
g28
(lp3393
sg22
Nsbasg21
I00
sg22
Nsg23
I00
sg24
S'R'
sbsg39
(irule
FeatureMatrix
p3394
(dp3395
g28
(lp3396
(I01
g3122
tp3397
asg22
Nsbsg22
Nsba(irule
Rule
p3398
(dp3399
g15
(irule
Guard
p3400
(dp3401
g18
I00
sg19
(lp3402
(irule
FeatureMatrix
p3403
(dp3404
g28
(lp3405
sg22
Nsba(irule
FeatureMatrix
p3406
(dp3407
g28
(lp3408
(I00
S'glide'
p3409
tp3410
a(I00
g2798
tp3411
a(I01
g2829
tp3412
asg22
Nsbasg21
I00
sg22
Nsg23
I01
sg24
S'L'
sbsg25
(irule
FeatureMatrix
p3413
(dp3414
g28
(lp3415
(I00
g2798
tp3416
a(I00
g2806
tp3417
asg22
Nsbsg33
(irule
Guard
p3418
(dp3419
g18
I00
sg19
(lp3420
(irule
FeatureMatrix
p3421
(dp3422
g28
(lp3423
sg22
Nsbasg21
I00
sg22
Nsg23
I00
sg24
S'R'
sbsg39
(irule
FeatureMatrix
p3424
(dp3425
g28
(lp3426
sg22
Nsbsg22
Nsba(irule
Rule
p3427
(dp3428
g15
(irule
Guard
p3429
(dp3430
g18
I00
sg19
(lp3431
(irule
FeatureMatrix
p3432
(dp3433
g28
(lp3434
sg22
Nsba(irule
FeatureMatrix
p3435
(dp3436
g28
(lp3437
(I01
g3122
tp3438
a(I00
g2798
tp3439
a(I01
g2829
tp3440
asg22
Nsbasg21
I00
sg22
Nsg23
I01
sg24
S'L'
sbsg25
(irule
FeatureMatrix
p3441
(dp3442
g28
(lp3443
(I00
g2798
tp3444
a(I00
g2806
tp3445
asg22
Nsbsg33
(irule
Guard
p3446
(dp3447
g18
I00
sg19
(lp3448
(irule
FeatureMatrix
p3449
(dp3450
g28
(lp3451
sg22
Nsbasg21
I00
sg22
Nsg23
I00
sg24
S'R'
sbsg39
(irule
FeatureMatrix
p3452
(dp3453
g28
(lp3454
sg22
Nsbsg22
Nsba(irule
Rule
p3455
(dp3456
g15
(irule
Guard
p3457
(dp3458
g18
I00
sg19
(lp3459
(irule
FeatureMatrix
p3460
(dp3461
g28
(lp3462
sg22
Nsba(irule
FeatureMatrix
p3463
(dp3464
g28
(lp3465
(I00
g3409
tp3466
a(I00
g2798
tp3467
a(I01
g2800
tp3468
asg22
Nsbasg21
I00
sg22
Nsg23
I01
sg24
S'L'
sbsg25
(irule
FeatureMatrix
p3469
(dp3470
g28
(lp3471
(I00
g2798
tp3472
a(I00
g2806
tp3473
asg22
Nsbsg33
(irule
Guard
p3474
(dp3475
g18
I00
sg19
(lp3476
(irule
FeatureMatrix
p3477
(dp3478
g28
(lp3479
sg22
Nsbasg21
I00
sg22
Nsg23
I00
sg24
S'R'
sbsg39
(irule
FeatureMatrix
p3480
(dp3481
g28
(lp3482
sg22
Nsbsg22
Nsba(irule
Rule
p3483
(dp3484
g15
(irule
Guard
p3485
(dp3486
g18
I00
sg19
(lp3487
(irule
FeatureMatrix
p3488
(dp3489
g28
(lp3490
sg22
Nsba(irule
FeatureMatrix
p3491
(dp3492
g28
(lp3493
(I00
g2798
tp3494
a(I01
g2829
tp3495
asg22
Nsbasg21
I00
sg22
Nsg23
I01
sg24
S'L'
sbsg25
(irule
FeatureMatrix
p3496
(dp3497
g28
(lp3498
(I00
g2798
tp3499
a(I00
g2806
tp3500
asg22
Nsbsg33
(irule
Guard
p3501
(dp3502
g18
I00
sg19
(lp3503
(irule
FeatureMatrix
p3504
(dp3505
g28
(lp3506
(I00
g2800
tp3507
asg22
Nsbasg21
I00
sg22
Nsg23
I00
sg24
S'R'
sbsg39
(irule
FeatureMatrix
p3508
(dp3509
g28
(lp3510
sg22
Nsbsg22
Nsba(irule
Rule
p3511
(dp3512
g15
(irule
Guard
p3513
(dp3514
g18
I00
sg19
(lp3515
(irule
FeatureMatrix
p3516
(dp3517
g28
(lp3518
sg22
Nsba(irule
FeatureMatrix
p3519
(dp3520
g28
(lp3521
(I00
g2798
tp3522
a(I01
g2829
tp3523
a(I00
g2806
tp3524
asg22
Nsbasg21
I00
sg22
Nsg23
I01
sg24
S'L'
sbsg25
(irule
FeatureMatrix
p3525
(dp3526
g28
(lp3527
(I00
g2798
tp3528
a(I00
g2806
tp3529
asg22
Nsbsg33
(irule
Guard
p3530
(dp3531
g18
I00
sg19
(lp3532
(irule
FeatureMatrix
p3533
(dp3534
g28
(lp3535
sg22
Nsbasg21
I00
sg22
Nsg23
I00
sg24
S'R'
sbsg39
(irule
FeatureMatrix
p3536
(dp3537
g28
(lp3538
sg22
Nsbsg22
Nsba(irule
Rule
p3539
(dp3540
g15
(irule
Guard
p3541
(dp3542
g18
I00
sg19
(lp3543
(irule
FeatureMatrix
p3544
(dp3545
g28
(lp3546
sg22
Nsba(irule
FeatureMatrix
p3547
(dp3548
g28
(lp3549
(I00
g3241
tp3550
a(I00
g2798
tp3551
a(I01
g2800
tp3552
asg22
Nsbasg21
I00
sg22
Nsg23
I01
sg24
S'L'
sbsg25
(irule
FeatureMatrix
p3553
(dp3554
g28
(lp3555
(I00
g2798
tp3556
a(I00
g2806
tp3557
asg22
Nsbsg33
(irule
Guard
p3558
(dp3559
g18
I00
sg19
(lp3560
(irule
FeatureMatrix
p3561
(dp3562
g28
(lp3563
sg22
Nsbasg21
I00
sg22
Nsg23
I00
sg24
S'R'
sbsg39
(irule
FeatureMatrix
p3564
(dp3565
g28
(lp3566
sg22
Nsbsg22
Nsba(irule
Rule
p3567
(dp3568
g15
(irule
Guard
p3569
(dp3570
g18
I00
sg19
(lp3571
(irule
FeatureMatrix
p3572
(dp3573
g28
(lp3574
sg22
Nsba(irule
FeatureMatrix
p3575
(dp3576
g28
(lp3577
(I00
g2798
tp3578
a(I01
g2894
tp3579
a(I01
g2800
tp3580
asg22
Nsbasg21
I00
sg22
Nsg23
I01
sg24
S'L'
sbsg25
(irule
FeatureMatrix
p3581
(dp3582
g28
(lp3583
(I00
g2798
tp3584
a(I00
g2806
tp3585
asg22
Nsbsg33
(irule
Guard
p3586
(dp3587
g18
I00
sg19
(lp3588
sg21
I00
sg22
Nsg23
I00
sg24
S'R'
sbsg39
(irule
FeatureMatrix
p3589
(dp3590
g28
(lp3591
(I00
g2996
tp3592
asg22
Nsbsg22
Nsba(irule
Rule
p3593
(dp3594
g15
(irule
Guard
p3595
(dp3596
g18
I00
sg19
(lp3597
(irule
FeatureMatrix
p3598
(dp3599
g28
(lp3600
sg22
Nsba(irule
FeatureMatrix
p3601
(dp3602
g28
(lp3603
(I00
g2798
tp3604
a(I01
g2829
tp3605
asg22
Nsbasg21
I00
sg22
Nsg23
I01
sg24
S'L'
sbsg25
(irule
FeatureMatrix
p3606
(dp3607
g28
(lp3608
(I00
g2798
tp3609
a(I00
g2806
tp3610
asg22
Nsbsg33
(irule
Guard
p3611
(dp3612
g18
I00
sg19
(lp3613
(irule
FeatureMatrix
p3614
(dp3615
g28
(lp3616
sg22
Nsbasg21
I00
sg22
Nsg23
I00
sg24
S'R'
sbsg39
(irule
FeatureMatrix
p3617
(dp3618
g28
(lp3619
(I01
g2806
tp3620
asg22
Nsbsg22
Nsba(irule
Rule
p3621
(dp3622
g15
(irule
Guard
p3623
(dp3624
g18
I00
sg19
(lp3625
(irule
FeatureMatrix
p3626
(dp3627
g28
(lp3628
sg22
Nsba(irule
FeatureMatrix
p3629
(dp3630
g28
(lp3631
(I00
g2798
tp3632
a(I01
g2894
tp3633
a(I01
g2829
tp3634
asg22
Nsbasg21
I00
sg22
Nsg23
I01
sg24
S'L'
sbsg25
(irule
FeatureMatrix
p3635
(dp3636
g28
(lp3637
(I00
g2798
tp3638
a(I00
g2806
tp3639
asg22
Nsbsg33
(irule
Guard
p3640
(dp3641
g18
I00
sg19
(lp3642
(irule
FeatureMatrix
p3643
(dp3644
g28
(lp3645
sg22
Nsbasg21
I00
sg22
Nsg23
I00
sg24
S'R'
sbsg39
(irule
FeatureMatrix
p3646
(dp3647
g28
(lp3648
sg22
Nsbsg22
Nsba(irule
Rule
p3649
(dp3650
g15
(irule
Guard
p3651
(dp3652
g18
I00
sg19
(lp3653
(irule
FeatureMatrix
p3654
(dp3655
g28
(lp3656
(I00
S'long'
p3657
tp3658
asg22
Nsba(irule
FeatureMatrix
p3659
(dp3660
g28
(lp3661
(I00
g2798
tp3662
a(I01
g2800
tp3663
asg22
Nsbasg21
I00
sg22
Nsg23
I01
sg24
S'L'
sbsg25
(irule
FeatureMatrix
p3664
(dp3665
g28
(lp3666
(I00
g2798
tp3667
a(I00
g2806
tp3668
asg22
Nsbsg33
(irule
Guard
p3669
(dp3670
g18
I00
sg19
(lp3671
(irule
FeatureMatrix
p3672
(dp3673
g28
(lp3674
sg22
Nsbasg21
I00
sg22
Nsg23
I00
sg24
S'R'
sbsg39
(irule
FeatureMatrix
p3675
(dp3676
g28
(lp3677
sg22
Nsbsg22
Nsba(irule
Rule
p3678
(dp3679
g15
(irule
Guard
p3680
(dp3681
g18
I00
sg19
(lp3682
(irule
FeatureMatrix
p3683
(dp3684
g28
(lp3685
sg22
Nsba(irule
FeatureMatrix
p3686
(dp3687
g28
(lp3688
(I00
g3212
tp3689
a(I00
g2798
tp3690
a(I01
g2800
tp3691
asg22
Nsbasg21
I00
sg22
Nsg23
I01
sg24
S'L'
sbsg25
(irule
FeatureMatrix
p3692
(dp3693
g28
(lp3694
(I00
g2798
tp3695
a(I00
g2806
tp3696
asg22
Nsbsg33
(irule
Guard
p3697
(dp3698
g18
I00
sg19
(lp3699
(irule
FeatureMatrix
p3700
(dp3701
g28
(lp3702
sg22
Nsbasg21
I00
sg22
Nsg23
I00
sg24
S'R'
sbsg39
(irule
FeatureMatrix
p3703
(dp3704
g28
(lp3705
sg22
Nsbsg22
Nsba(irule
Rule
p3706
(dp3707
g15
(irule
Guard
p3708
(dp3709
g18
I00
sg19
(lp3710
(irule
FeatureMatrix
p3711
(dp3712
g28
(lp3713
sg22
Nsba(irule
FeatureMatrix
p3714
(dp3715
g28
(lp3716
(I00
g3212
tp3717
a(I00
g2798
tp3718
a(I01
g2800
tp3719
asg22
Nsbasg21
I00
sg22
Nsg23
I01
sg24
S'L'
sbsg25
(irule
FeatureMatrix
p3720
(dp3721
g28
(lp3722
(I00
g2798
tp3723
a(I00
g2806
tp3724
asg22
Nsbsg33
(irule
Guard
p3725
(dp3726
g18
I00
sg19
(lp3727
sg21
I00
sg22
Nsg23
I00
sg24
S'R'
sbsg39
(irule
FeatureMatrix
p3728
(dp3729
g28
(lp3730
(I01
g2894
tp3731
asg22
Nsbsg22
Nsba(irule
Rule
p3732
(dp3733
g15
(irule
Guard
p3734
(dp3735
g18
I00
sg19
(lp3736
(irule
FeatureMatrix
p3737
(dp3738
g28
(lp3739
sg22
Nsba(irule
FeatureMatrix
p3740
(dp3741
g28
(lp3742
(I00
g2798
tp3743
a(I01
g2829
tp3744
asg22
Nsbasg21
I00
sg22
Nsg23
I01
sg24
S'L'
sbsg25
(irule
FeatureMatrix
p3745
(dp3746
g28
(lp3747
(I00
g2798
tp3748
a(I00
g2806
tp3749
asg22
Nsbsg33
(irule
Guard
p3750
(dp3751
g18
I00
sg19
(lp3752
(irule
FeatureMatrix
p3753
(dp3754
g28
(lp3755
(I00
g2806
tp3756
asg22
Nsbasg21
I00
sg22
Nsg23
I00
sg24
S'R'
sbsg39
(irule
FeatureMatrix
p3757
(dp3758
g28
(lp3759
sg22
Nsbsg22
Nsba(irule
Rule
p3760
(dp3761
g15
(irule
Guard
p3762
(dp3763
g18
I00
sg19
(lp3764
(irule
FeatureMatrix
p3765
(dp3766
g28
(lp3767
sg22
Nsba(irule
FeatureMatrix
p3768
(dp3769
g28
(lp3770
(I00
g3212
tp3771
a(I00
g2798
tp3772
a(I01
g2829
tp3773
asg22
Nsbasg21
I00
sg22
Nsg23
I01
sg24
S'L'
sbsg25
(irule
FeatureMatrix
p3774
(dp3775
g28
(lp3776
(I00
g2798
tp3777
a(I00
g2806
tp3778
asg22
Nsbsg33
(irule
Guard
p3779
(dp3780
g18
I00
sg19
(lp3781
sg21
I00
sg22
Nsg23
I00
sg24
S'R'
sbsg39
(irule
FeatureMatrix
p3782
(dp3783
g28
(lp3784
(I01
g2806
tp3785
asg22
Nsbsg22
Nsba(irule
Rule
p3786
(dp3787
g15
(irule
Guard
p3788
(dp3789
g18
I00
sg19
(lp3790
(irule
FeatureMatrix
p3791
(dp3792
g28
(lp3793
sg22
Nsba(irule
FeatureMatrix
p3794
(dp3795
g28
(lp3796
(I00
g2798
tp3797
a(I01
g2829
tp3798
asg22
Nsbasg21
I00
sg22
Nsg23
I01
sg24
S'L'
sbsg25
(irule
FeatureMatrix
p3799
(dp3800
g28
(lp3801
(I00
g2798
tp3802
a(I00
g2806
tp3803
asg22
Nsbsg33
(irule
Guard
p3804
(dp3805
g18
I00
sg19
(lp3806
(irule
FeatureMatrix
p3807
(dp3808
g28
(lp3809
sg22
Nsbasg21
I00
sg22
Nsg23
I00
sg24
S'R'
sbsg39
(irule
FeatureMatrix
p3810
(dp3811
g28
(lp3812
(I00
g2996
tp3813
asg22
Nsbsg22
Nsba(irule
Rule
p3814
(dp3815
g15
(irule
Guard
p3816
(dp3817
g18
I00
sg19
(lp3818
(irule
FeatureMatrix
p3819
(dp3820
g28
(lp3821
sg22
Nsba(irule
FeatureMatrix
p3822
(dp3823
g28
(lp3824
(I00
g3296
tp3825
a(I00
g2798
tp3826
a(I01
g2829
tp3827
asg22
Nsbasg21
I00
sg22
Nsg23
I01
sg24
S'L'
sbsg25
(irule
FeatureMatrix
p3828
(dp3829
g28
(lp3830
(I00
g2798
tp3831
a(I00
g2806
tp3832
asg22
Nsbsg33
(irule
Guard
p3833
(dp3834
g18
I00
sg19
(lp3835
sg21
I00
sg22
Nsg23
I00
sg24
S'R'
sbsg39
(irule
FeatureMatrix
p3836
(dp3837
g28
(lp3838
(I01
g3122
tp3839
asg22
Nsbsg22
Nsba(irule
Rule
p3840
(dp3841
g15
(irule
Guard
p3842
(dp3843
g18
I00
sg19
(lp3844
(irule
FeatureMatrix
p3845
(dp3846
g28
(lp3847
sg22
Nsba(irule
FeatureMatrix
p3848
(dp3849
g28
(lp3850
(I00
g3409
tp3851
a(I00
g2798
tp3852
a(I01
g2800
tp3853
asg22
Nsbasg21
I00
sg22
Nsg23
I01
sg24
S'L'
sbsg25
(irule
FeatureMatrix
p3854
(dp3855
g28
(lp3856
(I00
g2798
tp3857
a(I00
g2806
tp3858
asg22
Nsbsg33
(irule
Guard
p3859
(dp3860
g18
I00
sg19
(lp3861
sg21
I00
sg22
Nsg23
I00
sg24
S'R'
sbsg39
(irule
FeatureMatrix
p3862
(dp3863
g28
(lp3864
(I00
g2996
tp3865
asg22
Nsbsg22
Nsba(irule
Rule
p3866
(dp3867
g15
(irule
Guard
p3868
(dp3869
g18
I00
sg19
(lp3870
(irule
FeatureMatrix
p3871
(dp3872
g28
(lp3873
sg22
Nsba(irule
FeatureMatrix
p3874
(dp3875
g28
(lp3876
(I00
g2798
tp3877
a(I00
S'coronal'
p3878
tp3879
a(I01
g2829
tp3880
asg22
Nsbasg21
I00
sg22
Nsg23
I01
sg24
S'L'
sbsg25
(irule
FeatureMatrix
p3881
(dp3882
g28
(lp3883
(I00
g2798
tp3884
a(I00
g2806
tp3885
asg22
Nsbsg33
(irule
Guard
p3886
(dp3887
g18
I00
sg19
(lp3888
(irule
FeatureMatrix
p3889
(dp3890
g28
(lp3891
sg22
Nsbasg21
I00
sg22
Nsg23
I00
sg24
S'R'
sbsg39
(irule
FeatureMatrix
p3892
(dp3893
g28
(lp3894
sg22
Nsbsg22
Nsba(irule
Rule
p3895
(dp3896
g15
(irule
Guard
p3897
(dp3898
g18
I00
sg19
(lp3899
(irule
FeatureMatrix
p3900
(dp3901
g28
(lp3902
sg22
Nsba(irule
FeatureMatrix
p3903
(dp3904
g28
(lp3905
(I00
S'lateral'
p3906
tp3907
a(I00
g2798
tp3908
a(I01
g2829
tp3909
asg22
Nsbasg21
I00
sg22
Nsg23
I01
sg24
S'L'
sbsg25
(irule
FeatureMatrix
p3910
(dp3911
g28
(lp3912
(I00
g2798
tp3913
a(I00
g2806
tp3914
asg22
Nsbsg33
(irule
Guard
p3915
(dp3916
g18
I00
sg19
(lp3917
(irule
FeatureMatrix
p3918
(dp3919
g28
(lp3920
sg22
Nsbasg21
I00
sg22
Nsg23
I00
sg24
S'R'
sbsg39
(irule
FeatureMatrix
p3921
(dp3922
g28
(lp3923
sg22
Nsbsg22
Nsba(irule
Rule
p3924
(dp3925
g15
(irule
Guard
p3926
(dp3927
g18
I00
sg19
(lp3928
(irule
FeatureMatrix
p3929
(dp3930
g28
(lp3931
sg22
Nsba(irule
FeatureMatrix
p3932
(dp3933
g28
(lp3934
(I01
g3122
tp3935
a(I00
g2798
tp3936
a(I01
g2800
tp3937
asg22
Nsbasg21
I00
sg22
Nsg23
I01
sg24
S'L'
sbsg25
(irule
FeatureMatrix
p3938
(dp3939
g28
(lp3940
(I00
g2798
tp3941
a(I00
g2806
tp3942
asg22
Nsbsg33
(irule
Guard
p3943
(dp3944
g18
I00
sg19
(lp3945
(irule
FeatureMatrix
p3946
(dp3947
g28
(lp3948
sg22
Nsbasg21
I00
sg22
Nsg23
I00
sg24
S'R'
sbsg39
(irule
FeatureMatrix
p3949
(dp3950
g28
(lp3951
sg22
Nsbsg22
Nsba(irule
Rule
p3952
(dp3953
g15
(irule
Guard
p3954
(dp3955
g18
I00
sg19
(lp3956
(irule
FeatureMatrix
p3957
(dp3958
g28
(lp3959
sg22
Nsba(irule
FeatureMatrix
p3960
(dp3961
g28
(lp3962
(I00
g2798
tp3963
a(I01
g2894
tp3964
a(I01
g2829
tp3965
asg22
Nsbasg21
I00
sg22
Nsg23
I01
sg24
S'L'
sbsg25
(irule
FeatureMatrix
p3966
(dp3967
g28
(lp3968
(I00
g2798
tp3969
a(I00
g2806
tp3970
asg22
Nsbsg33
(irule
Guard
p3971
(dp3972
g18
I00
sg19
(lp3973
sg21
I00
sg22
Nsg23
I00
sg24
S'R'
sbsg39
(irule
FeatureMatrix
p3974
(dp3975
g28
(lp3976
(I01
g3122
tp3977
asg22
Nsbsg22
Nsba(irule
Rule
p3978
(dp3979
g15
(irule
Guard
p3980
(dp3981
g18
I00
sg19
(lp3982
(irule
FeatureMatrix
p3983
(dp3984
g28
(lp3985
sg22
Nsba(irule
FeatureMatrix
p3986
(dp3987
g28
(lp3988
(I00
g2798
tp3989
a(I01
g2894
tp3990
a(I01
g2800
tp3991
asg22
Nsbasg21
I00
sg22
Nsg23
I01
sg24
S'L'
sbsg25
(irule
FeatureMatrix
p3992
(dp3993
g28
(lp3994
(I00
g2798
tp3995
a(I00
g2806
tp3996
asg22
Nsbsg33
(irule
Guard
p3997
(dp3998
g18
I00
sg19
(lp3999
(irule
FeatureMatrix
p4000
(dp4001
g28
(lp4002
sg22
Nsbasg21
I00
sg22
Nsg23
I00
sg24
S'R'
sbsg39
(irule
FeatureMatrix
p4003
(dp4004
g28
(lp4005
sg22
Nsbsg22
Nsba(irule
Rule
p4006
(dp4007
g15
(irule
Guard
p4008
(dp4009
g18
I00
sg19
(lp4010
(irule
FeatureMatrix
p4011
(dp4012
g28
(lp4013
sg22
Nsba(irule
FeatureMatrix
p4014
(dp4015
g28
(lp4016
(I00
g3296
tp4017
a(I00
g2798
tp4018
a(I01
g2829
tp4019
asg22
Nsbasg21
I00
sg22
Nsg23
I01
sg24
S'L'
sbsg25
(irule
FeatureMatrix
p4020
(dp4021
g28
(lp4022
(I00
g2798
tp4023
a(I00
g2806
tp4024
asg22
Nsbsg33
(irule
Guard
p4025
(dp4026
g18
I00
sg19
(lp4027
sg21
I00
sg22
Nsg23
I00
sg24
S'R'
sbsg39
(irule
FeatureMatrix
p4028
(dp4029
g28
(lp4030
(I01
g2945
tp4031
asg22
Nsbsg22
Nsba(irule
Rule
p4032
(dp4033
g15
(irule
Guard
p4034
(dp4035
g18
I00
sg19
(lp4036
(irule
FeatureMatrix
p4037
(dp4038
g28
(lp4039
sg22
Nsba(irule
FeatureMatrix
p4040
(dp4041
g28
(lp4042
(I00
g2798
tp4043
a(I01
g2829
tp4044
asg22
Nsbasg21
I00
sg22
Nsg23
I01
sg24
S'L'
sbsg25
(irule
FeatureMatrix
p4045
(dp4046
g28
(lp4047
(I00
g3241
tp4048
a(I00
g2798
tp4049
a(I00
g2806
tp4050
asg22
Nsbsg33
(irule
Guard
p4051
(dp4052
g18
I00
sg19
(lp4053
sg21
I00
sg22
Nsg23
I00
sg24
S'R'
sbsg39
(irule
FeatureMatrix
p4054
(dp4055
g28
(lp4056
(I01
g3122
tp4057
asg22
Nsbsg22
Nsba(irule
Rule
p4058
(dp4059
g15
(irule
Guard
p4060
(dp4061
g18
I00
sg19
(lp4062
(irule
FeatureMatrix
p4063
(dp4064
g28
(lp4065
sg22
Nsba(irule
FeatureMatrix
p4066
(dp4067
g28
(lp4068
(I00
g2798
tp4069
a(I01
g2829
tp4070
asg22
Nsbasg21
I00
sg22
Nsg23
I01
sg24
S'L'
sbsg25
(irule
FeatureMatrix
p4071
(dp4072
g28
(lp4073
(I00
g2798
tp4074
a(I00
g2806
tp4075
asg22
Nsbsg33
(irule
Guard
p4076
(dp4077
g18
I00
sg19
(lp4078
(irule
FeatureMatrix
p4079
(dp4080
g28
(lp4081
sg22
Nsbasg21
I00
sg22
Nsg23
I00
sg24
S'R'
sbsg39
(irule
FeatureMatrix
p4082
(dp4083
g28
(lp4084
(I01
g2945
tp4085
asg22
Nsbsg22
Nsba(irule
Rule
p4086
(dp4087
g15
(irule
Guard
p4088
(dp4089
g18
I00
sg19
(lp4090
(irule
FeatureMatrix
p4091
(dp4092
g28
(lp4093
sg22
Nsba(irule
FeatureMatrix
p4094
(dp4095
g28
(lp4096
(I00
g2798
tp4097
a(I00
S'palletized'
p4098
tp4099
a(I01
g2800
tp4100
asg22
Nsbasg21
I00
sg22
Nsg23
I01
sg24
S'L'
sbsg25
(irule
FeatureMatrix
p4101
(dp4102
g28
(lp4103
(I00
g2798
tp4104
a(I00
g2806
tp4105
asg22
Nsbsg33
(irule
Guard
p4106
(dp4107
g18
I00
sg19
(lp4108
(irule
FeatureMatrix
p4109
(dp4110
g28
(lp4111
sg22
Nsbasg21
I00
sg22
Nsg23
I00
sg24
S'R'
sbsg39
(irule
FeatureMatrix
p4112
(dp4113
g28
(lp4114
sg22
Nsbsg22
Nsba(irule
Rule
p4115
(dp4116
g15
(irule
Guard
p4117
(dp4118
g18
I00
sg19
(lp4119
(irule
FeatureMatrix
p4120
(dp4121
g28
(lp4122
sg22
Nsba(irule
FeatureMatrix
p4123
(dp4124
g28
(lp4125
(I00
g2798
tp4126
a(I01
g2829
tp4127
asg22
Nsbasg21
I00
sg22
Nsg23
I01
sg24
S'L'
sbsg25
(irule
FeatureMatrix
p4128
(dp4129
g28
(lp4130
(I00
g2798
tp4131
a(I00
g2806
tp4132
asg22
Nsbsg33
(irule
Guard
p4133
(dp4134
g18
I00
sg19
(lp4135
(irule
FeatureMatrix
p4136
(dp4137
g28
(lp4138
(I00
g2829
tp4139
asg22
Nsbasg21
I00
sg22
Nsg23
I00
sg24
S'R'
sbsg39
(irule
FeatureMatrix
p4140
(dp4141
g28
(lp4142
sg22
Nsbsg22
Nsba(irule
Rule
p4143
(dp4144
g15
(irule
Guard
p4145
(dp4146
g18
I00
sg19
(lp4147
(irule
FeatureMatrix
p4148
(dp4149
g28
(lp4150
sg22
Nsba(irule
FeatureMatrix
p4151
(dp4152
g28
(lp4153
(I00
g3212
tp4154
a(I00
g2798
tp4155
a(I01
g2829
tp4156
asg22
Nsbasg21
I00
sg22
Nsg23
I01
sg24
S'L'
sbsg25
(irule
FeatureMatrix
p4157
(dp4158
g28
(lp4159
(I00
g2798
tp4160
a(I00
g2806
tp4161
asg22
Nsbsg33
(irule
Guard
p4162
(dp4163
g18
I00
sg19
(lp4164
sg21
I00
sg22
Nsg23
I00
sg24
S'R'
sbsg39
(irule
FeatureMatrix
p4165
(dp4166
g28
(lp4167
(I00
g2996
tp4168
asg22
Nsbsg22
Nsba(irule
Rule
p4169
(dp4170
g15
(irule
Guard
p4171
(dp4172
g18
I00
sg19
(lp4173
(irule
FeatureMatrix
p4174
(dp4175
g28
(lp4176
sg22
Nsba(irule
FeatureMatrix
p4177
(dp4178
g28
(lp4179
(I00
g2798
tp4180
a(I01
g2894
tp4181
a(I01
g2829
tp4182
asg22
Nsbasg21
I00
sg22
Nsg23
I01
sg24
S'L'
sbsg25
(irule
FeatureMatrix
p4183
(dp4184
g28
(lp4185
(I00
g2798
tp4186
a(I00
g2806
tp4187
asg22
Nsbsg33
(irule
Guard
p4188
(dp4189
g18
I00
sg19
(lp4190
sg21
I00
sg22
Nsg23
I00
sg24
S'R'
sbsg39
(irule
FeatureMatrix
p4191
(dp4192
g28
(lp4193
(I00
g2996
tp4194
asg22
Nsbsg22
Nsba(irule
Rule
p4195
(dp4196
g15
(irule
Guard
p4197
(dp4198
g18
I00
sg19
(lp4199
(irule
FeatureMatrix
p4200
(dp4201
g28
(lp4202
sg22
Nsba(irule
FeatureMatrix
p4203
(dp4204
g28
(lp4205
(I00
g2798
tp4206
a(I01
g2894
tp4207
a(I01
g2829
tp4208
asg22
Nsbasg21
I00
sg22
Nsg23
I01
sg24
S'L'
sbsg25
(irule
FeatureMatrix
p4209
(dp4210
g28
(lp4211
(I00
g2798
tp4212
a(I00
g2806
tp4213
asg22
Nsbsg33
(irule
Guard
p4214
(dp4215
g18
I00
sg19
(lp4216
sg21
I00
sg22
Nsg23
I00
sg24
S'R'
sbsg39
(irule
FeatureMatrix
p4217
(dp4218
g28
(lp4219
(I01
g2894
tp4220
asg22
Nsbsg22
Nsba(irule
Rule
p4221
(dp4222
g15
(irule
Guard
p4223
(dp4224
g18
I00
sg19
(lp4225
(irule
FeatureMatrix
p4226
(dp4227
g28
(lp4228
sg22
Nsba(irule
FeatureMatrix
p4229
(dp4230
g28
(lp4231
(I00
g3296
tp4232
a(I00
g2798
tp4233
a(I01
g2829
tp4234
asg22
Nsbasg21
I00
sg22
Nsg23
I01
sg24
S'L'
sbsg25
(irule
FeatureMatrix
p4235
(dp4236
g28
(lp4237
(I00
g2798
tp4238
a(I00
g2806
tp4239
asg22
Nsbsg33
(irule
Guard
p4240
(dp4241
g18
I00
sg19
(lp4242
sg21
I00
sg22
Nsg23
I00
sg24
S'R'
sbsg39
(irule
FeatureMatrix
p4243
(dp4244
g28
(lp4245
(I01
g2894
tp4246
asg22
Nsbsg22
Nsba(irule
Rule
p4247
(dp4248
g15
(irule
Guard
p4249
(dp4250
g18
I00
sg19
(lp4251
(irule
FeatureMatrix
p4252
(dp4253
g28
(lp4254
sg22
Nsba(irule
FeatureMatrix
p4255
(dp4256
g28
(lp4257
(I00
g2798
tp4258
a(I01
g2800
tp4259
asg22
Nsbasg21
I00
sg22
Nsg23
I01
sg24
S'L'
sbsg25
(irule
FeatureMatrix
p4260
(dp4261
g28
(lp4262
(I00
g2798
tp4263
a(I00
g2806
tp4264
asg22
Nsbsg33
(irule
Guard
p4265
(dp4266
g18
I00
sg19
(lp4267
(irule
FeatureMatrix
p4268
(dp4269
g28
(lp4270
(I00
g2800
tp4271
asg22
Nsbasg21
I00
sg22
Nsg23
I00
sg24
S'R'
sbsg39
(irule
FeatureMatrix
p4272
(dp4273
g28
(lp4274
sg22
Nsbsg22
Nsba(irule
Rule
p4275
(dp4276
g15
(irule
Guard
p4277
(dp4278
g18
I00
sg19
(lp4279
(irule
FeatureMatrix
p4280
(dp4281
g28
(lp4282
sg22
Nsba(irule
FeatureMatrix
p4283
(dp4284
g28
(lp4285
(I00
g2798
tp4286
a(I01
g2894
tp4287
a(I01
g2800
tp4288
asg22
Nsbasg21
I00
sg22
Nsg23
I01
sg24
S'L'
sbsg25
(irule
FeatureMatrix
p4289
(dp4290
g28
(lp4291
(I00
g2798
tp4292
a(I00
g2806
tp4293
asg22
Nsbsg33
(irule
Guard
p4294
(dp4295
g18
I00
sg19
(lp4296
sg21
I00
sg22
Nsg23
I00
sg24
S'R'
sbsg39
(irule
FeatureMatrix
p4297
(dp4298
g28
(lp4299
(I01
g3122
tp4300
asg22
Nsbsg22
Nsba(irule
Rule
p4301
(dp4302
g15
(irule
Guard
p4303
(dp4304
g18
I00
sg19
(lp4305
(irule
FeatureMatrix
p4306
(dp4307
g28
(lp4308
sg22
Nsba(irule
FeatureMatrix
p4309
(dp4310
g28
(lp4311
(I00
g2798
tp4312
a(I01
g2800
tp4313
asg22
Nsbasg21
I00
sg22
Nsg23
I01
sg24
S'L'
sbsg25
(irule
FeatureMatrix
p4314
(dp4315
g28
(lp4316
(I00
g2798
tp4317
a(I00
g2806
tp4318
asg22
Nsbsg33
(irule
Guard
p4319
(dp4320
g18
I00
sg19
(lp4321
(irule
FeatureMatrix
p4322
(dp4323
g28
(lp4324
(I00
S'rounded'
p4325
tp4326
asg22
Nsbasg21
I00
sg22
Nsg23
I00
sg24
S'R'
sbsg39
(irule
FeatureMatrix
p4327
(dp4328
g28
(lp4329
sg22
Nsbsg22
Nsba(irule
Rule
p4330
(dp4331
g15
(irule
Guard
p4332
(dp4333
g18
I00
sg19
(lp4334
(irule
FeatureMatrix
p4335
(dp4336
g28
(lp4337
sg22
Nsba(irule
FeatureMatrix
p4338
(dp4339
g28
(lp4340
(I00
g3185
tp4341
a(I00
g2798
tp4342
a(I01
g2829
tp4343
asg22
Nsbasg21
I00
sg22
Nsg23
I01
sg24
S'L'
sbsg25
(irule
FeatureMatrix
p4344
(dp4345
g28
(lp4346
(I00
g2798
tp4347
a(I00
g2806
tp4348
asg22
Nsbsg33
(irule
Guard
p4349
(dp4350
g18
I00
sg19
(lp4351
(irule
FeatureMatrix
p4352
(dp4353
g28
(lp4354
sg22
Nsbasg21
I00
sg22
Nsg23
I00
sg24
S'R'
sbsg39
(irule
FeatureMatrix
p4355
(dp4356
g28
(lp4357
sg22
Nsbsg22
Nsba(irule
Rule
p4358
(dp4359
g15
(irule
Guard
p4360
(dp4361
g18
I00
sg19
(lp4362
(irule
FeatureMatrix
p4363
(dp4364
g28
(lp4365
sg22
Nsba(irule
FeatureMatrix
p4366
(dp4367
g28
(lp4368
(I00
g2798
tp4369
a(I01
g2800
tp4370
asg22
Nsbasg21
I00
sg22
Nsg23
I01
sg24
S'L'
sbsg25
(irule
FeatureMatrix
p4371
(dp4372
g28
(lp4373
(I00
g2798
tp4374
a(I00
g2806
tp4375
asg22
Nsbsg33
(irule
Guard
p4376
(dp4377
g18
I00
sg19
(lp4378
(irule
FeatureMatrix
p4379
(dp4380
g28
(lp4381
sg22
Nsbasg21
I00
sg22
Nsg23
I00
sg24
S'R'
sbsg39
(irule
FeatureMatrix
p4382
(dp4383
g28
(lp4384
(I01
g3122
tp4385
asg22
Nsbsg22
Nsba(irule
Rule
p4386
(dp4387
g15
(irule
Guard
p4388
(dp4389
g18
I00
sg19
(lp4390
(irule
FeatureMatrix
p4391
(dp4392
g28
(lp4393
sg22
Nsba(irule
FeatureMatrix
p4394
(dp4395
g28
(lp4396
(I00
g2798
tp4397
a(I01
g2800
tp4398
a(I00
g2806
tp4399
asg22
Nsbasg21
I00
sg22
Nsg23
I01
sg24
S'L'
sbsg25
(irule
FeatureMatrix
p4400
(dp4401
g28
(lp4402
(I00
g2798
tp4403
a(I00
g2806
tp4404
asg22
Nsbsg33
(irule
Guard
p4405
(dp4406
g18
I00
sg19
(lp4407
(irule
FeatureMatrix
p4408
(dp4409
g28
(lp4410
sg22
Nsbasg21
I00
sg22
Nsg23
I00
sg24
S'R'
sbsg39
(irule
FeatureMatrix
p4411
(dp4412
g28
(lp4413
sg22
Nsbsg22
Nsba(irule
Rule
p4414
(dp4415
g15
(irule
Guard
p4416
(dp4417
g18
I00
sg19
(lp4418
(irule
FeatureMatrix
p4419
(dp4420
g28
(lp4421
sg22
Nsba(irule
FeatureMatrix
p4422
(dp4423
g28
(lp4424
(I00
g2798
tp4425
a(I01
g2894
tp4426
a(I01
g2800
tp4427
asg22
Nsbasg21
I00
sg22
Nsg23
I01
sg24
S'L'
sbsg25
(irule
FeatureMatrix
p4428
(dp4429
g28
(lp4430
(I00
g2798
tp4431
a(I00
g2806
tp4432
asg22
Nsbsg33
(irule
Guard
p4433
(dp4434
g18
I00
sg19
(lp4435
sg21
I00
sg22
Nsg23
I00
sg24
S'R'
sbsg39
(irule
FeatureMatrix
p4436
(dp4437
g28
(lp4438
(I01
g2894
tp4439
asg22
Nsbsg22
Nsba(irule
Rule
p4440
(dp4441
g15
(irule
Guard
p4442
(dp4443
g18
I00
sg19
(lp4444
(irule
FeatureMatrix
p4445
(dp4446
g28
(lp4447
(I00
g4325
tp4448
asg22
Nsba(irule
FeatureMatrix
p4449
(dp4450
g28
(lp4451
(I00
g2798
tp4452
a(I01
g2829
tp4453
asg22
Nsbasg21
I00
sg22
Nsg23
I01
sg24
S'L'
sbsg25
(irule
FeatureMatrix
p4454
(dp4455
g28
(lp4456
(I00
g2798
tp4457
a(I00
g2806
tp4458
asg22
Nsbsg33
(irule
Guard
p4459
(dp4460
g18
I00
sg19
(lp4461
(irule
FeatureMatrix
p4462
(dp4463
g28
(lp4464
sg22
Nsbasg21
I00
sg22
Nsg23
I00
sg24
S'R'
sbsg39
(irule
FeatureMatrix
p4465
(dp4466
g28
(lp4467
sg22
Nsbsg22
Nsba(irule
Rule
p4468
(dp4469
g15
(irule
Guard
p4470
(dp4471
g18
I00
sg19
(lp4472
(irule
FeatureMatrix
p4473
(dp4474
g28
(lp4475
(I00
g3657
tp4476
asg22
Nsba(irule
FeatureMatrix
p4477
(dp4478
g28
(lp4479
(I00
g2798
tp4480
a(I01
g2829
tp4481
asg22
Nsbasg21
I00
sg22
Nsg23
I01
sg24
S'L'
sbsg25
(irule
FeatureMatrix
p4482
(dp4483
g28
(lp4484
(I00
g2798
tp4485
a(I00
g2806
tp4486
asg22
Nsbsg33
(irule
Guard
p4487
(dp4488
g18
I00
sg19
(lp4489
(irule
FeatureMatrix
p4490
(dp4491
g28
(lp4492
sg22
Nsbasg21
I00
sg22
Nsg23
I00
sg24
S'R'
sbsg39
(irule
FeatureMatrix
p4493
(dp4494
g28
(lp4495
sg22
Nsbsg22
Nsba(irule
Rule
p4496
(dp4497
g15
(irule
Guard
p4498
(dp4499
g18
I00
sg19
(lp4500
(irule
FeatureMatrix
p4501
(dp4502
g28
(lp4503
sg22
Nsba(irule
FeatureMatrix
p4504
(dp4505
g28
(lp4506
(I00
g2798
tp4507
a(I01
g2829
tp4508
a(I01
g2945
tp4509
asg22
Nsbasg21
I00
sg22
Nsg23
I01
sg24
S'L'
sbsg25
(irule
FeatureMatrix
p4510
(dp4511
g28
(lp4512
(I00
g2798
tp4513
a(I00
g2806
tp4514
asg22
Nsbsg33
(irule
Guard
p4515
(dp4516
g18
I00
sg19
(lp4517
(irule
FeatureMatrix
p4518
(dp4519
g28
(lp4520
sg22
Nsbasg21
I00
sg22
Nsg23
I00
sg24
S'R'
sbsg39
(irule
FeatureMatrix
p4521
(dp4522
g28
(lp4523
sg22
Nsbsg22
Nsba(irule
Rule
p4524
(dp4525
g15
(irule
Guard
p4526
(dp4527
g18
I00
sg19
(lp4528
(irule
FeatureMatrix
p4529
(dp4530
g28
(lp4531
sg22
Nsba(irule
FeatureMatrix
p4532
(dp4533
g28
(lp4534
(I00
g2798
tp4535
a(I01
g2800
tp4536
a(I00
S'sibilant'
p4537
tp4538
asg22
Nsbasg21
I00
sg22
Nsg23
I01
sg24
S'L'
sbsg25
(irule
FeatureMatrix
p4539
(dp4540
g28
(lp4541
(I00
g2798
tp4542
a(I00
g2806
tp4543
asg22
Nsbsg33
(irule
Guard
p4544
(dp4545
g18
I00
sg19
(lp4546
(irule
FeatureMatrix
p4547
(dp4548
g28
(lp4549
sg22
Nsbasg21
I00
sg22
Nsg23
I00
sg24
S'R'
sbsg39
(irule
FeatureMatrix
p4550
(dp4551
g28
(lp4552
sg22
Nsbsg22
Nsba(irule
Rule
p4553
(dp4554
g15
(irule
Guard
p4555
(dp4556
g18
I00
sg19
(lp4557
(irule
FeatureMatrix
p4558
(dp4559
g28
(lp4560
sg22
Nsba(irule
FeatureMatrix
p4561
(dp4562
g28
(lp4563
(I00
g2798
tp4564
a(I01
g2829
tp4565
asg22
Nsbasg21
I00
sg22
Nsg23
I01
sg24
S'L'
sbsg25
(irule
FeatureMatrix
p4566
(dp4567
g28
(lp4568
(I00
g2798
tp4569
a(I00
g2806
tp4570
asg22
Nsbsg33
(irule
Guard
p4571
(dp4572
g18
I00
sg19
(lp4573
(irule
FeatureMatrix
p4574
(dp4575
g28
(lp4576
(I00
g4325
tp4577
asg22
Nsbasg21
I00
sg22
Nsg23
I00
sg24
S'R'
sbsg39
(irule
FeatureMatrix
p4578
(dp4579
g28
(lp4580
sg22
Nsbsg22
Nsba(irule
Rule
p4581
(dp4582
g15
(irule
Guard
p4583
(dp4584
g18
I00
sg19
(lp4585
(irule
FeatureMatrix
p4586
(dp4587
g28
(lp4588
sg22
Nsba(irule
FeatureMatrix
p4589
(dp4590
g28
(lp4591
(I00
g2798
tp4592
a(I01
g2829
tp4593
a(I01
g2945
tp4594
asg22
Nsbasg21
I00
sg22
Nsg23
I01
sg24
S'L'
sbsg25
(irule
FeatureMatrix
p4595
(dp4596
g28
(lp4597
(I00
g2798
tp4598
a(I00
g2806
tp4599
asg22
Nsbsg33
(irule
Guard
p4600
(dp4601
g18
I00
sg19
(lp4602
sg21
I00
sg22
Nsg23
I00
sg24
S'R'
sbsg39
(irule
FeatureMatrix
p4603
(dp4604
g28
(lp4605
(I01
g3122
tp4606
asg22
Nsbsg22
Nsba(irule
Rule
p4607
(dp4608
g15
(irule
Guard
p4609
(dp4610
g18
I00
sg19
(lp4611
(irule
FeatureMatrix
p4612
(dp4613
g28
(lp4614
sg22
Nsba(irule
FeatureMatrix
p4615
(dp4616
g28
(lp4617
(I00
g2798
tp4618
a(I01
g2829
tp4619
asg22
Nsbasg21
I00
sg22
Nsg23
I01
sg24
S'L'
sbsg25
(irule
FeatureMatrix
p4620
(dp4621
g28
(lp4622
(I00
g3409
tp4623
a(I00
g2798
tp4624
a(I00
g2806
tp4625
asg22
Nsbsg33
(irule
Guard
p4626
(dp4627
g18
I00
sg19
(lp4628
sg21
I00
sg22
Nsg23
I00
sg24
S'R'
sbsg39
(irule
FeatureMatrix
p4629
(dp4630
g28
(lp4631
(I01
g3122
tp4632
asg22
Nsbsg22
Nsba(irule
Rule
p4633
(dp4634
g15
(irule
Guard
p4635
(dp4636
g18
I00
sg19
(lp4637
(irule
FeatureMatrix
p4638
(dp4639
g28
(lp4640
sg22
Nsba(irule
FeatureMatrix
p4641
(dp4642
g28
(lp4643
(I00
g2798
tp4644
a(I01
g2894
tp4645
a(I01
g2800
tp4646
asg22
Nsbasg21
I00
sg22
Nsg23
I01
sg24
S'L'
sbsg25
(irule
FeatureMatrix
p4647
(dp4648
g28
(lp4649
(I00
g2798
tp4650
a(I00
g2806
tp4651
asg22
Nsbsg33
(irule
Guard
p4652
(dp4653
g18
I00
sg19
(lp4654
sg21
I00
sg22
Nsg23
I00
sg24
S'R'
sbsg39
(irule
FeatureMatrix
p4655
(dp4656
g28
(lp4657
(I01
g2800
tp4658
asg22
Nsbsg22
Nsba(irule
Rule
p4659
(dp4660
g15
(irule
Guard
p4661
(dp4662
g18
I00
sg19
(lp4663
(irule
FeatureMatrix
p4664
(dp4665
g28
(lp4666
sg22
Nsba(irule
FeatureMatrix
p4667
(dp4668
g28
(lp4669
(I00
g2798
tp4670
a(I01
g2894
tp4671
a(I01
g2800
tp4672
asg22
Nsbasg21
I00
sg22
Nsg23
I01
sg24
S'L'
sbsg25
(irule
FeatureMatrix
p4673
(dp4674
g28
(lp4675
(I00
g2798
tp4676
a(I00
g2806
tp4677
asg22
Nsbsg33
(irule
Guard
p4678
(dp4679
g18
I00
sg19
(lp4680
sg21
I00
sg22
Nsg23
I00
sg24
S'R'
sbsg39
(irule
FeatureMatrix
p4681
(dp4682
g28
(lp4683
(I01
g2945
tp4684
asg22
Nsbsg22
Nsba(irule
Rule
p4685
(dp4686
g15
(irule
Guard
p4687
(dp4688
g18
I00
sg19
(lp4689
(irule
FeatureMatrix
p4690
(dp4691
g28
(lp4692
sg22
Nsba(irule
FeatureMatrix
p4693
(dp4694
g28
(lp4695
(I00
g2798
tp4696
a(I01
g2829
tp4697
a(I00
g2806
tp4698
asg22
Nsbasg21
I00
sg22
Nsg23
I01
sg24
S'L'
sbsg25
(irule
FeatureMatrix
p4699
(dp4700
g28
(lp4701
(I00
g2798
tp4702
a(I00
g2806
tp4703
asg22
Nsbsg33
(irule
Guard
p4704
(dp4705
g18
I00
sg19
(lp4706
sg21
I00
sg22
Nsg23
I00
sg24
S'R'
sbsg39
(irule
FeatureMatrix
p4707
(dp4708
g28
(lp4709
(I01
g2800
tp4710
asg22
Nsbsg22
Nsba(irule
Rule
p4711
(dp4712
g15
(irule
Guard
p4713
(dp4714
g18
I00
sg19
(lp4715
(irule
FeatureMatrix
p4716
(dp4717
g28
(lp4718
sg22
Nsba(irule
FeatureMatrix
p4719
(dp4720
g28
(lp4721
(I00
g3296
tp4722
a(I00
g2798
tp4723
a(I01
g2800
tp4724
asg22
Nsbasg21
I00
sg22
Nsg23
I01
sg24
S'L'
sbsg25
(irule
FeatureMatrix
p4725
(dp4726
g28
(lp4727
(I00
g2798
tp4728
a(I00
g2806
tp4729
asg22
Nsbsg33
(irule
Guard
p4730
(dp4731
g18
I00
sg19
(lp4732
sg21
I00
sg22
Nsg23
I00
sg24
S'R'
sbsg39
(irule
FeatureMatrix
p4733
(dp4734
g28
(lp4735
(I01
g3122
tp4736
asg22
Nsbsg22
Nsba(irule
Rule
p4737
(dp4738
g15
(irule
Guard
p4739
(dp4740
g18
I00
sg19
(lp4741
(irule
FeatureMatrix
p4742
(dp4743
g28
(lp4744
sg22
Nsba(irule
FeatureMatrix
p4745
(dp4746
g28
(lp4747
(I00
g2798
tp4748
a(I00
g4098
tp4749
a(I01
g2829
tp4750
asg22
Nsbasg21
I00
sg22
Nsg23
I01
sg24
S'L'
sbsg25
(irule
FeatureMatrix
p4751
(dp4752
g28
(lp4753
(I00
g2798
tp4754
a(I00
g2806
tp4755
asg22
Nsbsg33
(irule
Guard
p4756
(dp4757
g18
I00
sg19
(lp4758
(irule
FeatureMatrix
p4759
(dp4760
g28
(lp4761
sg22
Nsbasg21
I00
sg22
Nsg23
I00
sg24
S'R'
sbsg39
(irule
FeatureMatrix
p4762
(dp4763
g28
(lp4764
sg22
Nsbsg22
Nsba(irule
Rule
p4765
(dp4766
g15
(irule
Guard
p4767
(dp4768
g18
I00
sg19
(lp4769
(irule
FeatureMatrix
p4770
(dp4771
g28
(lp4772
sg22
Nsba(irule
FeatureMatrix
p4773
(dp4774
g28
(lp4775
(I00
g2798
tp4776
a(I00
g3878
tp4777
a(I01
g2800
tp4778
asg22
Nsbasg21
I00
sg22
Nsg23
I01
sg24
S'L'
sbsg25
(irule
FeatureMatrix
p4779
(dp4780
g28
(lp4781
(I00
g2798
tp4782
a(I00
g2806
tp4783
asg22
Nsbsg33
(irule
Guard
p4784
(dp4785
g18
I00
sg19
(lp4786
(irule
FeatureMatrix
p4787
(dp4788
g28
(lp4789
sg22
Nsbasg21
I00
sg22
Nsg23
I00
sg24
S'R'
sbsg39
(irule
FeatureMatrix
p4790
(dp4791
g28
(lp4792
sg22
Nsbsg22
Nsba(irule
Rule
p4793
(dp4794
g15
(irule
Guard
p4795
(dp4796
g18
I00
sg19
(lp4797
(irule
FeatureMatrix
p4798
(dp4799
g28
(lp4800
sg22
Nsba(irule
FeatureMatrix
p4801
(dp4802
g28
(lp4803
(I00
g3241
tp4804
a(I00
g2798
tp4805
a(I01
g2800
tp4806
asg22
Nsbasg21
I00
sg22
Nsg23
I01
sg24
S'L'
sbsg25
(irule
FeatureMatrix
p4807
(dp4808
g28
(lp4809
(I00
g2798
tp4810
a(I00
g2806
tp4811
asg22
Nsbsg33
(irule
Guard
p4812
(dp4813
g18
I00
sg19
(lp4814
sg21
I00
sg22
Nsg23
I00
sg24
S'R'
sbsg39
(irule
FeatureMatrix
p4815
(dp4816
g28
(lp4817
(I01
g3122
tp4818
asg22
Nsbsg22
Nsba(irule
Rule
p4819
(dp4820
g15
(irule
Guard
p4821
(dp4822
g18
I00
sg19
(lp4823
(irule
FeatureMatrix
p4824
(dp4825
g28
(lp4826
sg22
Nsba(irule
FeatureMatrix
p4827
(dp4828
g28
(lp4829
(I00
g3906
tp4830
a(I00
g2798
tp4831
a(I01
g2800
tp4832
asg22
Nsbasg21
I00
sg22
Nsg23
I01
sg24
S'L'
sbsg25
(irule
FeatureMatrix
p4833
(dp4834
g28
(lp4835
(I00
g2798
tp4836
a(I00
g2806
tp4837
asg22
Nsbsg33
(irule
Guard
p4838
(dp4839
g18
I00
sg19
(lp4840
(irule
FeatureMatrix
p4841
(dp4842
g28
(lp4843
sg22
Nsbasg21
I00
sg22
Nsg23
I00
sg24
S'R'
sbsg39
(irule
FeatureMatrix
p4844
(dp4845
g28
(lp4846
sg22
Nsbsg22
Nsba(irule
Rule
p4847
(dp4848
g15
(irule
Guard
p4849
(dp4850
g18
I00
sg19
(lp4851
(irule
FeatureMatrix
p4852
(dp4853
g28
(lp4854
sg22
Nsba(irule
FeatureMatrix
p4855
(dp4856
g28
(lp4857
(I00
g2798
tp4858
a(I01
g2800
tp4859
asg22
Nsbasg21
I00
sg22
Nsg23
I01
sg24
S'L'
sbsg25
(irule
FeatureMatrix
p4860
(dp4861
g28
(lp4862
(I00
g2798
tp4863
a(I00
g2806
tp4864
asg22
Nsbsg33
(irule
Guard
p4865
(dp4866
g18
I00
sg19
(lp4867
sg21
I00
sg22
Nsg23
I00
sg24
S'R'
sbsg39
(irule
FeatureMatrix
p4868
(dp4869
g28
(lp4870
(I01
g3122
tp4871
a(I00
g2996
tp4872
asg22
Nsbsg22
Nsba(irule
Rule
p4873
(dp4874
g15
(irule
Guard
p4875
(dp4876
g18
I00
sg19
(lp4877
(irule
FeatureMatrix
p4878
(dp4879
g28
(lp4880
sg22
Nsba(irule
FeatureMatrix
p4881
(dp4882
g28
(lp4883
(I00
g3185
tp4884
a(I00
g2798
tp4885
a(I01
g2800
tp4886
asg22
Nsbasg21
I00
sg22
Nsg23
I01
sg24
S'L'
sbsg25
(irule
FeatureMatrix
p4887
(dp4888
g28
(lp4889
(I00
g2798
tp4890
a(I00
g2806
tp4891
asg22
Nsbsg33
(irule
Guard
p4892
(dp4893
g18
I00
sg19
(lp4894
(irule
FeatureMatrix
p4895
(dp4896
g28
(lp4897
sg22
Nsbasg21
I00
sg22
Nsg23
I00
sg24
S'R'
sbsg39
(irule
FeatureMatrix
p4898
(dp4899
g28
(lp4900
sg22
Nsbsg22
Nsba(irule
Rule
p4901
(dp4902
g15
(irule
Guard
p4903
(dp4904
g18
I00
sg19
(lp4905
(irule
FeatureMatrix
p4906
(dp4907
g28
(lp4908
sg22
Nsba(irule
FeatureMatrix
p4909
(dp4910
g28
(lp4911
(I00
g2798
tp4912
a(I01
g2800
tp4913
asg22
Nsbasg21
I00
sg22
Nsg23
I01
sg24
S'L'
sbsg25
(irule
FeatureMatrix
p4914
(dp4915
g28
(lp4916
(I00
g2798
tp4917
a(I00
g2806
tp4918
asg22
Nsbsg33
(irule
Guard
p4919
(dp4920
g18
I00
sg19
(lp4921
(irule
FeatureMatrix
p4922
(dp4923
g28
(lp4924
sg22
Nsbasg21
I00
sg22
Nsg23
I00
sg24
S'R'
sbsg39
(irule
FeatureMatrix
p4925
(dp4926
g28
(lp4927
(I00
g3296
tp4928
asg22
Nsbsg22
Nsba(irule
Rule
p4929
(dp4930
g15
(irule
Guard
p4931
(dp4932
g18
I00
sg19
(lp4933
(irule
FeatureMatrix
p4934
(dp4935
g28
(lp4936
sg22
Nsba(irule
FeatureMatrix
p4937
(dp4938
g28
(lp4939
(I00
g2798
tp4940
a(I01
g2829
tp4941
asg22
Nsbasg21
I00
sg22
Nsg23
I01
sg24
S'L'
sbsg25
(irule
FeatureMatrix
p4942
(dp4943
g28
(lp4944
(I00
g3241
tp4945
a(I00
g2798
tp4946
a(I00
g2806
tp4947
asg22
Nsbsg33
(irule
Guard
p4948
(dp4949
g18
I00
sg19
(lp4950
sg21
I00
sg22
Nsg23
I00
sg24
S'R'
sbsg39
(irule
FeatureMatrix
p4951
(dp4952
g28
(lp4953
(I01
g2829
tp4954
asg22
Nsbsg22
Nsba(irule
Rule
p4955
(dp4956
g15
(irule
Guard
p4957
(dp4958
g18
I00
sg19
(lp4959
(irule
FeatureMatrix
p4960
(dp4961
g28
(lp4962
sg22
Nsba(irule
FeatureMatrix
p4963
(dp4964
g28
(lp4965
(I00
g2798
tp4966
a(I01
g2829
tp4967
a(I00
g4537
tp4968
asg22
Nsbasg21
I00
sg22
Nsg23
I01
sg24
S'L'
sbsg25
(irule
FeatureMatrix
p4969
(dp4970
g28
(lp4971
(I00
g2798
tp4972
a(I00
g2806
tp4973
asg22
Nsbsg33
(irule
Guard
p4974
(dp4975
g18
I00
sg19
(lp4976
(irule
FeatureMatrix
p4977
(dp4978
g28
(lp4979
sg22
Nsbasg21
I00
sg22
Nsg23
I00
sg24
S'R'
sbsg39
(irule
FeatureMatrix
p4980
(dp4981
g28
(lp4982
sg22
Nsbsg22
Nsba(irule
Rule
p4983
(dp4984
g15
(irule
Guard
p4985
(dp4986
g18
I00
sg19
(lp4987
(irule
FeatureMatrix
p4988
(dp4989
g28
(lp4990
sg22
Nsba(irule
FeatureMatrix
p4991
(dp4992
g28
(lp4993
(I00
g2798
tp4994
a(I01
g2829
tp4995
asg22
Nsbasg21
I00
sg22
Nsg23
I01
sg24
S'L'
sbsg25
(irule
FeatureMatrix
p4996
(dp4997
g28
(lp4998
(I00
g2798
tp4999
a(I00
g2806
tp5000
asg22
Nsbsg33
(irule
Guard
p5001
(dp5002
g18
I00
sg19
(lp5003
(irule
FeatureMatrix
p5004
(dp5005
g28
(lp5006
(I00
g3409
tp5007
asg22
Nsbasg21
I00
sg22
Nsg23
I00
sg24
S'R'
sbsg39
(irule
FeatureMatrix
p5008
(dp5009
g28
(lp5010
sg22
Nsbsg22
Nsba(irule
Rule
p5011
(dp5012
g15
(irule
Guard
p5013
(dp5014
g18
I00
sg19
(lp5015
(irule
FeatureMatrix
p5016
(dp5017
g28
(lp5018
sg22
Nsba(irule
FeatureMatrix
p5019
(dp5020
g28
(lp5021
(I00
g3212
tp5022
a(I00
g2798
tp5023
a(I01
g2800
tp5024
asg22
Nsbasg21
I00
sg22
Nsg23
I01
sg24
S'L'
sbsg25
(irule
FeatureMatrix
p5025
(dp5026
g28
(lp5027
(I00
g2798
tp5028
a(I00
g2806
tp5029
asg22
Nsbsg33
(irule
Guard
p5030
(dp5031
g18
I00
sg19
(lp5032
sg21
I00
sg22
Nsg23
I00
sg24
S'R'
sbsg39
(irule
FeatureMatrix
p5033
(dp5034
g28
(lp5035
(I01
g3122
tp5036
asg22
Nsbsg22
Nsba(irule
Rule
p5037
(dp5038
g15
(irule
Guard
p5039
(dp5040
g18
I00
sg19
(lp5041
(irule
FeatureMatrix
p5042
(dp5043
g28
(lp5044
sg22
Nsba(irule
FeatureMatrix
p5045
(dp5046
g28
(lp5047
(I00
g3296
tp5048
a(I00
g2798
tp5049
a(I01
g2829
tp5050
asg22
Nsbasg21
I00
sg22
Nsg23
I01
sg24
S'L'
sbsg25
(irule
FeatureMatrix
p5051
(dp5052
g28
(lp5053
(I00
g2798
tp5054
a(I00
g2806
tp5055
asg22
Nsbsg33
(irule
Guard
p5056
(dp5057
g18
I00
sg19
(lp5058
sg21
I00
sg22
Nsg23
I00
sg24
S'R'
sbsg39
(irule
FeatureMatrix
p5059
(dp5060
g28
(lp5061
(I00
g2996
tp5062
asg22
Nsbsg22
Nsba(irule
Rule
p5063
(dp5064
g15
(irule
Guard
p5065
(dp5066
g18
I00
sg19
(lp5067
(irule
FeatureMatrix
p5068
(dp5069
g28
(lp5070
sg22
Nsba(irule
FeatureMatrix
p5071
(dp5072
g28
(lp5073
(I00
g2798
tp5074
a(I01
g2800
tp5075
asg22
Nsbasg21
I00
sg22
Nsg23
I01
sg24
S'L'
sbsg25
(irule
FeatureMatrix
p5076
(dp5077
g28
(lp5078
(I00
g2798
tp5079
a(I00
g2806
tp5080
asg22
Nsbsg33
(irule
Guard
p5081
(dp5082
g18
I00
sg19
(lp5083
(irule
FeatureMatrix
p5084
(dp5085
g28
(lp5086
(I00
g3409
tp5087
asg22
Nsbasg21
I00
sg22
Nsg23
I00
sg24
S'R'
sbsg39
(irule
FeatureMatrix
p5088
(dp5089
g28
(lp5090
sg22
Nsbsg22
Nsba(irule
Rule
p5091
(dp5092
g15
(irule
Guard
p5093
(dp5094
g18
I00
sg19
(lp5095
(irule
FeatureMatrix
p5096
(dp5097
g28
(lp5098
sg22
Nsba(irule
FeatureMatrix
p5099
(dp5100
g28
(lp5101
(I00
g2798
tp5102
a(I01
g2829
tp5103
asg22
Nsbasg21
I00
sg22
Nsg23
I01
sg24
S'L'
sbsg25
(irule
FeatureMatrix
p5104
(dp5105
g28
(lp5106
(I00
g2798
tp5107
a(I00
g2806
tp5108
asg22
Nsbsg33
(irule
Guard
p5109
(dp5110
g18
I00
sg19
(lp5111
(irule
FeatureMatrix
p5112
(dp5113
g28
(lp5114
sg22
Nsbasg21
I00
sg22
Nsg23
I00
sg24
S'R'
sbsg39
(irule
FeatureMatrix
p5115
(dp5116
g28
(lp5117
(I01
g2798
tp5118
asg22
Nsbsg22
Nsba(irule
Rule
p5119
(dp5120
g15
(irule
Guard
p5121
(dp5122
g18
I00
sg19
(lp5123
(irule
FeatureMatrix
p5124
(dp5125
g28
(lp5126
sg22
Nsba(irule
FeatureMatrix
p5127
(dp5128
g28
(lp5129
(I00
g2798
tp5130
a(I01
g2800
tp5131
asg22
Nsbasg21
I00
sg22
Nsg23
I01
sg24
S'L'
sbsg25
(irule
FeatureMatrix
p5132
(dp5133
g28
(lp5134
(I00
g2798
tp5135
a(I00
g2806
tp5136
asg22
Nsbsg33
(irule
Guard
p5137
(dp5138
g18
I00
sg19
(lp5139
(irule
FeatureMatrix
p5140
(dp5141
g28
(lp5142
sg22
Nsbasg21
I00
sg22
Nsg23
I00
sg24
S'R'
sbsg39
(irule
FeatureMatrix
p5143
(dp5144
g28
(lp5145
(I01
g2798
tp5146
asg22
Nsbsg22
Nsba(irule
Rule
p5147
(dp5148
g15
(irule
Guard
p5149
(dp5150
g18
I00
sg19
(lp5151
(irule
FeatureMatrix
p5152
(dp5153
g28
(lp5154
sg22
Nsba(irule
FeatureMatrix
p5155
(dp5156
g28
(lp5157
(I00
g2798
tp5158
a(I01
g2829
tp5159
asg22
Nsbasg21
I00
sg22
Nsg23
I01
sg24
S'L'
sbsg25
(irule
FeatureMatrix
p5160
(dp5161
g28
(lp5162
(I00
g2798
tp5163
a(I00
g2806
tp5164
asg22
Nsbsg33
(irule
Guard
p5165
(dp5166
g18
I00
sg19
(lp5167
(irule
FeatureMatrix
p5168
(dp5169
g28
(lp5170
(I00
g4098
tp5171
asg22
Nsbasg21
I00
sg22
Nsg23
I00
sg24
S'R'
sbsg39
(irule
FeatureMatrix
p5172
(dp5173
g28
(lp5174
sg22
Nsbsg22
Nsba(irule
Rule
p5175
(dp5176
g15
(irule
Guard
p5177
(dp5178
g18
I00
sg19
(lp5179
(irule
FeatureMatrix
p5180
(dp5181
g28
(lp5182
sg22
Nsba(irule
FeatureMatrix
p5183
(dp5184
g28
(lp5185
(I00
g2798
tp5186
a(I01
g2800
tp5187
asg22
Nsbasg21
I00
sg22
Nsg23
I01
sg24
S'L'
sbsg25
(irule
FeatureMatrix
p5188
(dp5189
g28
(lp5190
(I00
g2798
tp5191
a(I00
g2806
tp5192
asg22
Nsbsg33
(irule
Guard
p5193
(dp5194
g18
I00
sg19
(lp5195
(irule
FeatureMatrix
p5196
(dp5197
g28
(lp5198
(I00
g4098
tp5199
asg22
Nsbasg21
I00
sg22
Nsg23
I00
sg24
S'R'
sbsg39
(irule
FeatureMatrix
p5200
(dp5201
g28
(lp5202
sg22
Nsbsg22
Nsba(irule
Rule
p5203
(dp5204
g15
(irule
Guard
p5205
(dp5206
g18
I00
sg19
(lp5207
(irule
FeatureMatrix
p5208
(dp5209
g28
(lp5210
sg22
Nsba(irule
FeatureMatrix
p5211
(dp5212
g28
(lp5213
(I00
g2798
tp5214
a(I01
g2829
tp5215
asg22
Nsbasg21
I00
sg22
Nsg23
I01
sg24
S'L'
sbsg25
(irule
FeatureMatrix
p5216
(dp5217
g28
(lp5218
(I00
g2798
tp5219
a(I00
g2806
tp5220
asg22
Nsbsg33
(irule
Guard
p5221
(dp5222
g18
I00
sg19
(lp5223
(irule
FeatureMatrix
p5224
(dp5225
g28
(lp5226
sg22
Nsbasg21
I00
sg22
Nsg23
I00
sg24
S'R'
sbsg39
(irule
FeatureMatrix
p5227
(dp5228
g28
(lp5229
(I00
g3296
tp5230
asg22
Nsbsg22
Nsba(irule
Rule
p5231
(dp5232
g15
(irule
Guard
p5233
(dp5234
g18
I00
sg19
(lp5235
(irule
FeatureMatrix
p5236
(dp5237
g28
(lp5238
(I00
g4325
tp5239
asg22
Nsba(irule
FeatureMatrix
p5240
(dp5241
g28
(lp5242
(I00
g2798
tp5243
a(I01
g2800
tp5244
asg22
Nsbasg21
I00
sg22
Nsg23
I01
sg24
S'L'
sbsg25
(irule
FeatureMatrix
p5245
(dp5246
g28
(lp5247
(I00
g2798
tp5248
a(I00
g2806
tp5249
asg22
Nsbsg33
(irule
Guard
p5250
(dp5251
g18
I00
sg19
(lp5252
(irule
FeatureMatrix
p5253
(dp5254
g28
(lp5255
sg22
Nsbasg21
I00
sg22
Nsg23
I00
sg24
S'R'
sbsg39
(irule
FeatureMatrix
p5256
(dp5257
g28
(lp5258
sg22
Nsbsg22
Nsba(irule
Rule
p5259
(dp5260
g15
(irule
Guard
p5261
(dp5262
g18
I00
sg19
(lp5263
(irule
FeatureMatrix
p5264
(dp5265
g28
(lp5266
(I00
g3409
tp5267
asg22
Nsba(irule
FeatureMatrix
p5268
(dp5269
g28
(lp5270
(I00
g2798
tp5271
a(I01
g2800
tp5272
asg22
Nsbasg21
I00
sg22
Nsg23
I01
sg24
S'L'
sbsg25
(irule
FeatureMatrix
p5273
(dp5274
g28
(lp5275
(I00
g2798
tp5276
a(I00
g2806
tp5277
asg22
Nsbsg33
(irule
Guard
p5278
(dp5279
g18
I00
sg19
(lp5280
(irule
FeatureMatrix
p5281
(dp5282
g28
(lp5283
sg22
Nsbasg21
I00
sg22
Nsg23
I00
sg24
S'R'
sbsg39
(irule
FeatureMatrix
p5284
(dp5285
g28
(lp5286
sg22
Nsbsg22
Nsba(irule
Rule
p5287
(dp5288
g15
(irule
Guard
p5289
(dp5290
g18
I00
sg19
(lp5291
(irule
FeatureMatrix
p5292
(dp5293
g28
(lp5294
sg22
Nsba(irule
FeatureMatrix
p5295
(dp5296
g28
(lp5297
(I00
g2798
tp5298
a(I01
g2800
tp5299
asg22
Nsbasg21
I00
sg22
Nsg23
I01
sg24
S'L'
sbsg25
(irule
FeatureMatrix
p5300
(dp5301
g28
(lp5302
(I00
g2798
tp5303
a(I00
g2806
tp5304
asg22
Nsbsg33
(irule
Guard
p5305
(dp5306
g18
I00
sg19
(lp5307
(irule
FeatureMatrix
p5308
(dp5309
g28
(lp5310
(I00
g2829
tp5311
asg22
Nsbasg21
I00
sg22
Nsg23
I00
sg24
S'R'
sbsg39
(irule
FeatureMatrix
p5312
(dp5313
g28
(lp5314
sg22
Nsbsg22
Nsba(irule
Rule
p5315
(dp5316
g15
(irule
Guard
p5317
(dp5318
g18
I00
sg19
(lp5319
(irule
FeatureMatrix
p5320
(dp5321
g28
(lp5322
sg22
Nsba(irule
FeatureMatrix
p5323
(dp5324
g28
(lp5325
(I00
g3212
tp5326
a(I00
g2798
tp5327
a(I01
g2829
tp5328
asg22
Nsbasg21
I00
sg22
Nsg23
I01
sg24
S'L'
sbsg25
(irule
FeatureMatrix
p5329
(dp5330
g28
(lp5331
(I00
g2798
tp5332
a(I00
g2806
tp5333
asg22
Nsbsg33
(irule
Guard
p5334
(dp5335
g18
I00
sg19
(lp5336
sg21
I00
sg22
Nsg23
I00
sg24
S'R'
sbsg39
(irule
FeatureMatrix
p5337
(dp5338
g28
(lp5339
(I01
g3122
tp5340
asg22
Nsbsg22
Nsba(irule
Rule
p5341
(dp5342
g15
(irule
Guard
p5343
(dp5344
g18
I00
sg19
(lp5345
(irule
FeatureMatrix
p5346
(dp5347
g28
(lp5348
sg22
Nsba(irule
FeatureMatrix
p5349
(dp5350
g28
(lp5351
(I00
g3212
tp5352
a(I00
g2798
tp5353
a(I01
g2829
tp5354
asg22
Nsbasg21
I00
sg22
Nsg23
I01
sg24
S'L'
sbsg25
(irule
FeatureMatrix
p5355
(dp5356
g28
(lp5357
(I00
g2798
tp5358
a(I00
g2806
tp5359
asg22
Nsbsg33
(irule
Guard
p5360
(dp5361
g18
I00
sg19
(lp5362
sg21
I00
sg22
Nsg23
I00
sg24
S'R'
sbsg39
(irule
FeatureMatrix
p5363
(dp5364
g28
(lp5365
(I01
g2894
tp5366
asg22
Nsbsg22
Nsba(irule
Rule
p5367
(dp5368
g15
(irule
Guard
p5369
(dp5370
g18
I00
sg19
(lp5371
(irule
FeatureMatrix
p5372
(dp5373
g28
(lp5374
sg22
Nsba(irule
FeatureMatrix
p5375
(dp5376
g28
(lp5377
(I01
g3122
tp5378
a(I00
g2798
tp5379
a(I01
g2800
tp5380
asg22
Nsbasg21
I00
sg22
Nsg23
I01
sg24
S'L'
sbsg25
(irule
FeatureMatrix
p5381
(dp5382
g28
(lp5383
(I00
g2798
tp5384
a(I00
g2806
tp5385
asg22
Nsbsg33
(irule
Guard
p5386
(dp5387
g18
I00
sg19
(lp5388
sg21
I00
sg22
Nsg23
I00
sg24
S'R'
sbsg39
(irule
FeatureMatrix
p5389
(dp5390
g28
(lp5391
(I01
g3122
tp5392
asg22
Nsbsg22
Nsba(irule
Rule
p5393
(dp5394
g15
(irule
Guard
p5395
(dp5396
g18
I00
sg19
(lp5397
(irule
FeatureMatrix
p5398
(dp5399
g28
(lp5400
sg22
Nsba(irule
FeatureMatrix
p5401
(dp5402
g28
(lp5403
(I00
g3241
tp5404
a(I00
g2798
tp5405
a(I01
g2829
tp5406
asg22
Nsbasg21
I00
sg22
Nsg23
I01
sg24
S'L'
sbsg25
(irule
FeatureMatrix
p5407
(dp5408
g28
(lp5409
(I00
g2798
tp5410
a(I00
g2806
tp5411
asg22
Nsbsg33
(irule
Guard
p5412
(dp5413
g18
I00
sg19
(lp5414
sg21
I00
sg22
Nsg23
I00
sg24
S'R'
sbsg39
(irule
FeatureMatrix
p5415
(dp5416
g28
(lp5417
(I01
g3122
tp5418
asg22
Nsbsg22
Nsba(irule
Rule
p5419
(dp5420
g15
(irule
Guard
p5421
(dp5422
g18
I00
sg19
(lp5423
(irule
FeatureMatrix
p5424
(dp5425
g28
(lp5426
sg22
Nsba(irule
FeatureMatrix
p5427
(dp5428
g28
(lp5429
(I00
g2798
tp5430
a(I01
g2829
tp5431
a(I01
g2945
tp5432
asg22
Nsbasg21
I00
sg22
Nsg23
I01
sg24
S'L'
sbsg25
(irule
FeatureMatrix
p5433
(dp5434
g28
(lp5435
(I00
g2798
tp5436
a(I00
g2806
tp5437
asg22
Nsbsg33
(irule
Guard
p5438
(dp5439
g18
I00
sg19
(lp5440
sg21
I00
sg22
Nsg23
I00
sg24
S'R'
sbsg39
(irule
FeatureMatrix
p5441
(dp5442
g28
(lp5443
(I00
g2996
tp5444
asg22
Nsbsg22
Nsba(irule
Rule
p5445
(dp5446
g15
(irule
Guard
p5447
(dp5448
g18
I00
sg19
(lp5449
(irule
FeatureMatrix
p5450
(dp5451
g28
(lp5452
sg22
Nsba(irule
FeatureMatrix
p5453
(dp5454
g28
(lp5455
(I00
g2798
tp5456
a(I01
g2800
tp5457
asg22
Nsbasg21
I00
sg22
Nsg23
I01
sg24
S'L'
sbsg25
(irule
FeatureMatrix
p5458
(dp5459
g28
(lp5460
(I00
g2798
tp5461
a(I00
g2806
tp5462
asg22
Nsbsg33
(irule
Guard
p5463
(dp5464
g18
I00
sg19
(lp5465
(irule
FeatureMatrix
p5466
(dp5467
g28
(lp5468
(I00
g3657
tp5469
asg22
Nsbasg21
I00
sg22
Nsg23
I00
sg24
S'R'
sbsg39
(irule
FeatureMatrix
p5470
(dp5471
g28
(lp5472
sg22
Nsbsg22
NsbaasbsS'parameters'
p5473
g6
(cargparse
Namespace
p5474
g8
NtRp5475
(dp5476
S'dummy'
p5477
I00
sS'task'
p5478
S'CEGIS'
p5479
sS'features'
p5480
S'sophisticated'
p5481
sS'resume'
p5482
I00
sS'geometry'
p5483
I01
sS'top'
p5484
I100
sS'disableClean'
p5485
I00
sS'universal'
p5486
NsS'restrict'
p5487
NsS'window'
p5488
NsS'seed'
p5489
S'0'
sS'restore'
p5490
NsS'verbosity'
p5491
I0
sS'timeout'
p5492
F24
sS'debug'
p5493
NsS'cores'
p5494
I40
sg705
S'Odden_2.1_Hungarian'
p5495
sS'save'
p5496
NsS'serial'
p5497
I00
sS'alignment'
p5498
I00
sS'samples'
p5499
I30
sbsb.