(iresult
Result
p1
(dp2
S'startTime'
p3
F1563910428.4637201
sS'solutionSequence'
p4
(lp5
(ccopy_reg
_reconstructor
p6
(csolution
Solution
p7
c__builtin__
object
p8
NtRp9
(dp10
S'rules'
p11
(lp12
(irule
Rule
p13
(dp14
S'leftTriggers'
p15
(irule
Guard
p16
(dp17
S'endOfString'
p18
I00
sS'specifications'
p19
(lp20
sS'optionalEnding'
p21
I00
sS'representation'
p22
V
sS'starred'
p23
I00
sS'side'
p24
S'L'
sbsS'structuralChange'
p25
(irule
FeatureMatrix
p26
(dp27
S'featuresAndPolarities'
p28
(lp29
sg22
V[  ]
p30
sbsS'rightTriggers'
p31
(irule
Guard
p32
(dp33
g18
I00
sg19
(lp34
sg21
I00
sg22
V
sg23
I00
sg24
S'R'
sbsS'focus'
p35
(irule
FeatureMatrix
p36
(dp37
g28
(lp38
sg22
V[  ]
p39
sbsg22
V[  ] ---> [  ] /  _ 
p40
sbasS'prefixes'
p41
(lp42
(imorph
Morph
p43
(dp44
S'phonemes'
p45
(lp46
Vk
asbasS'underlyingForms'
p47
(dp48
((imorph
Morph
p49
(dp50
g45
(lp51
Vk
aVe
aVr
aVt^h
p52
aVa
aVm
asbtp53
(imorph
Morph
p54
(dp55
g45
(lp56
Ve
aVr
aVt^h
p57
aVa
asbs((imorph
Morph
p58
(dp59
g45
(lp60
Vk
aVa
aVs
aVi
aVe
aVm
asbtp61
(imorph
Morph
p62
(dp63
g45
(lp64
Va
aVs
aVi
aVe
asbs((imorph
Morph
p65
(dp66
g45
(lp67
Vk
aVa
aVn
aVi
aVe
aVm
asbtp68
(imorph
Morph
p69
(dp70
g45
(lp71
Va
aVn
aVi
aVe
asbssS'suffixes'
p72
(lp73
(imorph
Morph
p74
(dp75
g45
(lp76
Vm
asbasbF14.369840860366821
tp77
a(g6
(g7
g8
NtRp78
(dp79
g11
(lp80
(irule
Rule
p81
(dp82
g15
(irule
Guard
p83
(dp84
g18
I00
sg19
(lp85
sg21
I00
sg22
V
sg23
I00
sg24
S'L'
sbsg25
(irule
FeatureMatrix
p86
(dp87
g28
(lp88
sg22
V[  ]
p89
sbsg31
(irule
Guard
p90
(dp91
g18
I00
sg19
(lp92
sg21
I00
sg22
V
sg23
I00
sg24
S'R'
sbsg35
(irule
FeatureMatrix
p93
(dp94
g28
(lp95
sg22
V[  ]
p96
sbsg22
V[  ] ---> [  ] /  _ 
p97
sbasg41
(lp98
(imorph
Morph
p99
(dp100
g45
(lp101
sbasg47
(dp102
(g58
tp103
(imorph
Morph
p104
(dp105
g45
(lp106
Vk
aVa
aVs
aVi
aVe
asbs((imorph
Morph
(dp107
g45
(lp108
Vk
aVu
aVr
aVr
aVi
aVe
aVm
asbtp109
(imorph
Morph
p110
(dp111
g45
(lp112
Vk
aVu
aVr
aVr
aVi
aVe
asbs((imorph
Morph
(dp113
g45
(lp114
Vk
aVo
aVx
aVn
aVi
aVe
aVm
asbtp115
(imorph
Morph
p116
(dp117
g45
(lp118
Vk
aVo
aVx
aVn
aVi
aVe
asbs((imorph
Morph
p119
(dp120
g45
(lp121
Vg
aV\u0259
aVb
aV\u0259
aVz
aVz
aVa
aVm
asbtp122
(imorph
Morph
p123
(dp124
g45
(lp125
Vg
aV\u0259
aVb
aV\u0259
aVz
aVz
aVa
asbs((imorph
Morph
(dp126
g45
(lp127
Vk
aV\u0259
aVk
aVi
aVe
aVn
aVa
aVm
asbtp128
(imorph
Morph
p129
(dp130
g45
(lp131
Vk
aV\u0259
aVk
aVi
aVe
aVn
aVa
asbs(g65
tp132
(imorph
Morph
p133
(dp134
g45
(lp135
Vk
aVa
aVn
aVi
aVe
asbs((imorph
Morph
(dp136
g45
(lp137
Vg^h
p138
aV\u0259
aVb^h
p139
aVi
aVe
aVr\u030c
p140
aVi
aVe
aVm
asbtp141
(imorph
Morph
p142
(dp143
g45
(lp144
Vg^h
p145
aV\u0259
aVb^h
p146
aVi
aVe
aVr\u030c
p147
aVi
aVe
asbs((imorph
Morph
(dp148
g45
(lp149
Vk^h
p150
aV\u0259
aVt^h
p151
aVu
aVo
aVy
aVn
aVi
aVe
aVm
asbtp152
(imorph
Morph
p153
(dp154
g45
(lp155
Vk^h
p156
aV\u0259
ag57
aVu
aVo
aVy
aVn
aVi
aVe
asbs((imorph
Morph
p157
(dp158
g45
(lp159
Vg
aV\u0259
aVl
aVa
aVm
asbtp160
(imorph
Morph
p161
(dp162
g45
(lp163
Vg
aV\u0259
aVl
aVa
asbs((imorph
Morph
(dp164
g45
(lp165
Vg^h
p166
aV\u0259
aVd^z^h
p167
aVi
aVe
aVv
aVi
aVe
aVm
asbtp168
(imorph
Morph
p169
(dp170
g45
(lp171
g145
aV\u0259
aVd^z^h
p172
aVi
aVe
aVv
aVi
aVe
asbs((imorph
Morph
(dp173
g45
(lp174
Vk
aVa
aVk
aVa
aVn
aVi
aVe
aVm
asbtp175
(imorph
Morph
p176
(dp177
g45
(lp178
Vk
aVa
aVk
aVa
aVn
aVi
aVe
asbs((imorph
Morph
(dp179
g45
(lp180
Vg^h
p181
aV\u0259
aVg^h
p182
aVu
aVo
aVm
asbtp183
(imorph
Morph
p184
(dp185
g45
(lp186
g145
aV\u0259
ag145
aVu
aVo
asbs((imorph
Morph
(dp187
g45
(lp188
Vk^h
p189
aV\u0259
aVc\u030c^h
p190
aVa
aVp^h
p191
aVi
aVe
aVm
asbtp192
(imorph
Morph
p193
(dp194
g45
(lp195
g156
aV\u0259
aVc\u030c^h
p196
aVa
aVp^h
p197
aVi
aVe
asbs(g49
tp198
(imorph
Morph
p199
(dp200
g45
(lp201
Vk
aVe
aVr
ag57
aVa
asbs((imorph
Morph
p202
(dp203
g45
(lp204
Vg
aV\u0259
aVz
aV\u0259
aVr
aVa
aVm
asbtp205
(imorph
Morph
p206
(dp207
g45
(lp208
Vg
aV\u0259
aVz
aV\u0259
aVr
aVa
asbs((imorph
Morph
(dp209
g45
(lp210
Vk
aV\u0259
aVt
aVa
aVm
asbtp211
(imorph
Morph
p212
(dp213
g45
(lp214
Vk
aV\u0259
aVt
aVa
asbssg72
(lp215
(imorph
Morph
p216
(dp217
g45
(lp218
Vm
asbasbF82.557761907577515
tp219
asS'problem'
p220
S'Odden_116_Armenian'
p221
sS'finalFrontier'
p222
g6
(csolution
Frontier
p223
g8
NtRp224
(dp225
g41
g98
sg72
g215
sg47
g102
sS'frontiers'
p226
(lp227
(lp228
g81
aasbsS'parameters'
p229
g6
(cargparse
Namespace
p230
g8
NtRp231
(dp232
S'restore'
p233
NsS'features'
p234
S'sophisticated'
p235
sS'universal'
p236
NsS'restrict'
p237
NsS'seed'
p238
S'0'
sS'serial'
p239
I00
sS'alignment'
p240
I00
sS'top'
p241
I1
sS'maximumDepth'
p242
I3
sS'window'
p243
NsS'minimizeBits'
p244
I5
sS'samples'
p245
I30
sS'save'
p246
NsS'resume'
p247
I00
sS'disableClean'
p248
I00
sS'stemBaseline'
p249
I30
sS'dummy'
p250
I00
sS'task'
p251
S'CEGIS'
p252
sS'geometry'
p253
I01
sS'verbosity'
p254
I0
sS'timeout'
p255
NsS'debug'
p256
NsS'cores'
p257
I12
sg220
S'Odden_116_Armenian'
p258
sS'mergeFrontiers'
p259
I00
sbsb.