(iresult
Result
p1
(dp2
S'startTime'
p3
F1559660828.961545
sS'solutionSequence'
p4
(lp5
(ccopy_reg
_reconstructor
p6
(csolution
Solution
p7
c__builtin__
object
p8
NtRp9
(dp10
S'rules'
p11
(lp12
(irule
Rule
p13
(dp14
S'leftTriggers'
p15
(irule
Guard
p16
(dp17
S'endOfString'
p18
I00
sS'specifications'
p19
(lp20
sS'optionalEnding'
p21
I00
sS'representation'
p22
V
sS'starred'
p23
I00
sS'side'
p24
S'L'
sbsS'structuralChange'
p25
(irule
FeatureMatrix
p26
(dp27
S'featuresAndPolarities'
p28
(lp29
sg22
V[  ]
p30
sbsS'rightTriggers'
p31
(irule
Guard
p32
(dp33
g18
I00
sg19
(lp34
sg21
I00
sg22
V
sg23
I00
sg24
S'R'
sbsS'focus'
p35
(irule
FeatureMatrix
p36
(dp37
g28
(lp38
sg22
V[  ]
p39
sbsg22
V[  ] ---> [  ] /  _ 
p40
sbasS'prefixes'
p41
(lp42
(imorph
Morph
p43
(dp44
S'phonemes'
p45
(lp46
Va
aVt
asba(imorph
Morph
p47
(dp48
g45
(lp49
sbasS'underlyingForms'
p50
(dp51
((imorph
Morph
p52
(dp53
g45
(lp54
Va
aVt
aVi
aVm
aVt
aVi
asbNtp55
(imorph
Morph
p56
(dp57
g45
(lp58
Vi
aVm
asbs((imorph
Morph
p59
(dp60
g45
(lp61
Va
aVt
aVe
aVi
aVt
aVi
asbNtp62
(imorph
Morph
p63
(dp64
g45
(lp65
Ve
aVi
asbssS'suffixes'
p66
(lp67
(imorph
Morph
p68
(dp69
g45
(lp70
Vt
aVi
asba(imorph
Morph
p71
(dp72
g45
(lp73
sbasbF13.431538105010986
tp74
a(g6
(g7
g8
NtRp75
(dp76
g11
(lp77
(irule
Rule
p78
(dp79
g15
(irule
Guard
p80
(dp81
g18
I00
sg19
(lp82
sg21
I00
sg22
V
sg23
I00
sg24
S'L'
sbsg25
(irule
FeatureMatrix
p83
(dp84
g28
(lp85
sg22
V[  ]
p86
sbsg31
(irule
Guard
p87
(dp88
g18
I00
sg19
(lp89
sg21
I00
sg22
V
sg23
I00
sg24
S'R'
sbsg35
(irule
FeatureMatrix
p90
(dp91
g28
(lp92
sg22
V[  ]
p93
sbsg22
V[  ] ---> [  ] /  _ 
p94
sbasg41
(lp95
(imorph
Morph
p96
(dp97
g45
(lp98
Va
asba(imorph
Morph
p99
(dp100
g45
(lp101
sbasg50
(dp102
((imorph
Morph
(dp103
g45
(lp104
Va
aVt
aVl
aVe
aVi
aVs
aVt
aVi
asbNtp105
(imorph
Morph
p106
(dp107
g45
(lp108
Vt
aVl
aVe
aVi
aVs
asbs(N(imorph
Morph
(dp109
g45
(lp110
Va
aVp
aVe
aVi
aVt
aVi
asbtp111
(imorph
Morph
p112
(dp113
g45
(lp114
Va
aVp
aVe
aVi
aVt
aVi
asbs((imorph
Morph
(dp115
g45
(lp116
Va
aVt
aVl
aVi
aVk
aVt
aVi
asbNtp117
(imorph
Morph
p118
(dp119
g45
(lp120
Vt
aVl
aVi
aVk
asbs(N(imorph
Morph
(dp121
g45
(lp122
Va
aVp
aVm
aVo:
p123
aVk
aVi:
p124
aVt
aVi
asbtp125
(imorph
Morph
p126
(dp127
g45
(lp128
Va
aVp
aVm
aVo:
p129
aVk
aVi:
p130
aVt
aVi
asbs((imorph
Morph
(dp131
g45
(lp132
Va
aVt
aVk
aVu
aVr
aVt
aVi
asbNtp133
(imorph
Morph
p134
(dp135
g45
(lp136
Vt
aVk
aVu
aVr
asbs(g59
Ntp137
(imorph
Morph
p138
(dp139
g45
(lp140
Vt
aVe
aVi
asbs(N(imorph
Morph
(dp141
g45
(lp142
Va
aVb
aVd
aVa
aVu
aVz\u030c
p143
aVi:
p144
aVt
aVi
asbtp145
(imorph
Morph
p146
(dp147
g45
(lp148
Va
aVb
aVd
aVa
aVu
aVz\u030c
p149
ag130
aVt
aVi
asbs((imorph
Morph
(dp150
g45
(lp151
Va
aVd
aVg
aVi
aVm
aVt
aVi
asbNtp152
(imorph
Morph
p153
(dp154
g45
(lp155
Vd
aVg
aVi
aVm
asbs(g52
Ntp156
(imorph
Morph
p157
(dp158
g45
(lp159
Vt
aVi
aVm
asbs(N(imorph
Morph
(dp160
g45
(lp161
Va
aVp
aVa
aVk
aVt
aVi
asbtp162
(imorph
Morph
p163
(dp164
g45
(lp165
Va
aVp
aVa
aVk
aVt
aVi
asbs(N(imorph
Morph
(dp166
g45
(lp167
Va
aVb
aVg
aVa
aVu
aVt
aVi
asbtp168
(imorph
Morph
p169
(dp170
g45
(lp171
Va
aVb
aVg
aVa
aVu
aVt
aVi
asbs((imorph
Morph
(dp172
g45
(lp173
Va
aVt
aVn
aVe
aV\u0161
aVt
aVi
asbNtp174
(imorph
Morph
p175
(dp176
g45
(lp177
Vt
aVn
aVe
aV\u0161
asbs(N(imorph
Morph
(dp178
g45
(lp179
Va
aVb
aVz\u030c
p180
aVe
aVl
aVt
aVi
asbtp181
(imorph
Morph
p182
(dp183
g45
(lp184
Va
aVb
ag149
aVe
aVl
aVt
aVi
asbs((imorph
Morph
(dp185
g45
(lp186
Va
aVt
aVk
aVo:
p187
aVp
aVt
aVi
asbNtp188
(imorph
Morph
p189
(dp190
g45
(lp191
Vt
aVk
ag129
aVp
asbs((imorph
Morph
(dp192
g45
(lp193
Va
aVd
aVb
aVu
aVk
aVt
aVi
asbNtp194
(imorph
Morph
p195
(dp196
g45
(lp197
Vd
aVb
aVu
aVk
asbs(N(imorph
Morph
(dp198
g45
(lp199
Va
aVb
aVz\u030c^y
p200
aVu
aVr
aVe
aVt
aVi
asbtp201
(imorph
Morph
p202
(dp203
g45
(lp204
Va
aVb
aVz\u030c^y
p205
aVu
aVr
aVe
aVt
aVi
asbs(N(imorph
Morph
(dp206
g45
(lp207
Va
aVb
aVd
aVr
aVa
aVs
aVk
aVi:
p208
aVt
aVi
asbtp209
(imorph
Morph
p210
(dp211
g45
(lp212
Va
aVb
aVd
aVr
aVa
aVs
aVk
ag130
aVt
aVi
asbs((imorph
Morph
p213
(dp214
g45
(lp215
Va
aVd
aVb
aVe
aVk
aVt
aVi
asbNtp216
(imorph
Morph
p217
(dp218
g45
(lp219
Vd
aVb
aVe
aVk
asbs(N(imorph
Morph
(dp220
g45
(lp221
Va
aVp
aV\u0161
aVa
aVu
aVk
aVt
aVi
asbtp222
(imorph
Morph
p223
(dp224
g45
(lp225
Va
aVp
aV\u0161
aVa
aVu
aVk
aVt
aVi
asbs((imorph
Morph
(dp226
g45
(lp227
Va
aVd
aVg
aVa
aVu
aVt
aVi
asbNtp228
(imorph
Morph
p229
(dp230
g45
(lp231
Vd
aVg
aVa
aVu
asbs(N(imorph
Morph
(dp232
g45
(lp233
Va
aVp
aVi
aVe
aV\u0161
aVk
aVo:
p234
aVt
aVi
asbtp235
(imorph
Morph
p236
(dp237
g45
(lp238
Va
aVp
aVi
aVe
aV\u0161
aVk
ag129
aVt
aVi
asbs(N(imorph
Morph
(dp239
g45
(lp240
Va
aVp
aVt
aVe
aVm
aVd
aVi:
p241
aVt
aVi
asbtp242
(imorph
Morph
p243
(dp244
g45
(lp245
Va
aVp
aVt
aVe
aVm
aVd
ag130
aVt
aVi
asbs((imorph
Morph
(dp246
g45
(lp247
Va
aVt
aVp
aVr
aVa
aV\u0161
aVi:
p248
aVt
aVi
asbNtp249
(imorph
Morph
p250
(dp251
g45
(lp252
Vt
aVp
aVr
aVa
aV\u0161
ag130
asbssg66
(lp253
(imorph
Morph
p254
(dp255
g45
(lp256
Vt
aVi
asba(imorph
Morph
p257
(dp258
g45
(lp259
sbasbF198.5501561164856
tp260
asS'problem'
p261
S'Odden_114_Lithuanian'
p262
sS'finalFrontier'
p263
g6
(csolution
Frontier
p264
g8
NtRp265
(dp266
g41
g95
sg66
g253
sg50
g102
sS'frontiers'
p267
(lp268
(lp269
g78
aasbsS'parameters'
p270
g6
(cargparse
Namespace
p271
g8
NtRp272
(dp273
S'restore'
p274
NsS'features'
p275
S'none'
p276
sS'universal'
p277
NsS'restrict'
p278
NsS'seed'
p279
S'0'
sS'serial'
p280
I00
sS'alignment'
p281
I00
sS'top'
p282
I1
sS'maximumDepth'
p283
I3
sS'window'
p284
NsS'minimizeBits'
p285
I5
sS'samples'
p286
I30
sS'save'
p287
NsS'resume'
p288
I00
sS'disableClean'
p289
I01
sS'stemBaseline'
p290
I30
sS'dummy'
p291
I00
sS'task'
p292
S'CEGIS'
p293
sS'geometry'
p294
NsS'verbosity'
p295
I0
sS'timeout'
p296
F24
sS'debug'
p297
NsS'cores'
p298
I64
sg261
S'Odden_114_Lithuanian'
p299
sS'mergeFrontiers'
p300
I00
sbsb.