(iresult
Result
p1
(dp2
S'startTime'
p3
F1559660703.7726121
sS'solutionSequence'
p4
(lp5
(ccopy_reg
_reconstructor
p6
(csolution
Solution
p7
c__builtin__
object
p8
NtRp9
(dp10
S'rules'
p11
(lp12
(irule
Rule
p13
(dp14
S'leftTriggers'
p15
(irule
Guard
p16
(dp17
S'endOfString'
p18
I00
sS'specifications'
p19
(lp20
sS'optionalEnding'
p21
I00
sS'representation'
p22
V
sS'starred'
p23
I00
sS'side'
p24
S'L'
sbsS'structuralChange'
p25
(irule
ConstantPhoneme
p26
(dp27
S'p'
Vg
sbsS'rightTriggers'
p28
(irule
Guard
p29
(dp30
g18
I00
sg19
(lp31
(irule
FeatureMatrix
p32
(dp33
S'featuresAndPolarities'
p34
(lp35
sg22
V[  ]
p36
sba(irule
ConstantPhoneme
p37
(dp38
S'p'
Vy
sbasg21
I00
sg22
V[  ] y
p39
sg23
I00
sg24
S'R'
sbsS'focus'
p40
(irule
FeatureMatrix
p41
(dp42
g34
(lp43
sg22
V[  ]
p44
sbsg22
V[  ] ---> g /  _ [  ] y
p45
sbasS'prefixes'
p46
(lp47
(imorph
Morph
p48
(dp49
S'phonemes'
p50
(lp51
Vk
aVu
aVb
aVa
asba(imorph
Morph
p52
(dp53
g50
(lp54
Vk
aVu
aVb
aVa
asba(imorph
Morph
p55
(dp56
g50
(lp57
Vk
aVu
aVb
aVa
asba(imorph
Morph
p58
(dp59
g50
(lp60
Vk
aVu
aVb
aVa
asba(imorph
Morph
p61
(dp62
g50
(lp63
Vk
aVu
aVt
aVu\u0301
p64
aVb
aVa\u0301
p65
asba(imorph
Morph
p66
(dp67
g50
(lp68
Vk
aVu
aVk
aVi\u0301
p69
aVb
ag65
asba(imorph
Morph
p70
(dp71
g50
(lp72
Vk
aVu
aVt
ag64
aVb
ag65
asba(imorph
Morph
p73
(dp74
g50
(lp75
Vk
aVu
aVk
ag69
aVt
ag64
aVb
aVa
asbasS'underlyingForms'
p76
(dp77
((imorph
Morph
p78
(dp79
g50
(lp80
Vk
aVu
aVb
aVa
aVl
aVa
asb(imorph
Morph
p81
(dp82
g50
(lp83
Vk
aVu
aVb
aVa
aVl
aVa
aVn
aVa
asb(imorph
Morph
p84
(dp85
g50
(lp86
Vk
aVu
aVb
aVa
aVl
aVi
aVl
aVa
asb(imorph
Morph
p87
(dp88
g50
(lp89
Vk
aVu
aVb
aVa
aVl
aVi
aVl
aVa
aVn
aVa
asb(imorph
Morph
p90
(dp91
g50
(lp92
Vk
aVu
aVt
aVu\u0301
p93
aVb
aVa\u0301
p94
aVl
aVa
asb(imorph
Morph
p95
(dp96
g50
(lp97
Vk
aVu
aVk
aVi\u0301
p98
aVb
aVa\u0301
p99
aVl
aVa
asb(imorph
Morph
p100
(dp101
g50
(lp102
Vk
aVu
aVt
aVu\u0301
p103
aVb
aVa\u0301
p104
aVl
aVi
aVl
aVa
asb(imorph
Morph
p105
(dp106
g50
(lp107
Vk
aVu
aVk
aVi\u0301
p108
aVt
aVu\u0301
p109
aVb
aVa
aVl
aVi
aVl
aVa
asbtp110
(imorph
Morph
p111
(dp112
g50
(lp113
Vl
asbs((imorph
Morph
p114
(dp115
g50
(lp116
Vk
aVu
aVg
aVa
aVy
aVa
asb(imorph
Morph
p117
(dp118
g50
(lp119
Vk
aVu
aVg
aVa
aVy
aVa
aVn
aVa
asb(imorph
Morph
p120
(dp121
g50
(lp122
Vk
aVu
aVg
aVa
aVy
aVi
aVl
aVa
asb(imorph
Morph
p123
(dp124
g50
(lp125
Vk
aVu
aVg
aVa
aVy
aVi
aVl
aVa
aVn
aVa
asb(imorph
Morph
p126
(dp127
g50
(lp128
Vk
aVu
aVt
aVu\u0301
p129
aVg
aVa\u0301
p130
aVy
aVa
asb(imorph
Morph
p131
(dp132
g50
(lp133
Vk
aVu
aVk
aVi\u0301
p134
aVg
aVa\u0301
p135
aVy
aVa
asb(imorph
Morph
p136
(dp137
g50
(lp138
Vk
aVu
aVt
aVu\u0301
p139
aVg
aVa\u0301
p140
aVy
aVi
aVl
aVa
asb(imorph
Morph
p141
(dp142
g50
(lp143
Vk
aVu
aVk
aVi\u0301
p144
aVt
aVu\u0301
p145
aVg
aVa
aVy
aVi
aVl
aVa
asbtp146
(imorph
Morph
p147
(dp148
g50
(lp149
Vy
asbssS'suffixes'
p150
(lp151
(imorph
Morph
p152
(dp153
g50
(lp154
Va
asba(imorph
Morph
p155
(dp156
g50
(lp157
Va
aVn
aVa
asba(imorph
Morph
p158
(dp159
g50
(lp160
Vi
aVl
aVa
asba(imorph
Morph
p161
(dp162
g50
(lp163
Vi
aVl
aVa
aVn
aVa
asba(imorph
Morph
p164
(dp165
g50
(lp166
Va
asba(imorph
Morph
p167
(dp168
g50
(lp169
Va
asba(imorph
Morph
p170
(dp171
g50
(lp172
Vi
aVl
aVa
asba(imorph
Morph
p173
(dp174
g50
(lp175
Vi
aVl
aVa
asbasbF155.06552791595459
tp176
asS'problem'
p177
S'Odden_3.1_Kerewe'
p178
sS'finalFrontier'
p179
g6
(csolution
Frontier
p180
g8
NtRp181
(dp182
g46
g47
sg150
g151
sg76
g77
sS'frontiers'
p183
(lp184
(lp185
g13
aasbsS'parameters'
p186
g6
(cargparse
Namespace
p187
g8
NtRp188
(dp189
S'restore'
p190
NsS'features'
p191
S'none'
p192
sS'universal'
p193
NsS'restrict'
p194
NsS'seed'
p195
S'0'
sS'serial'
p196
I00
sS'alignment'
p197
I00
sS'top'
p198
I1
sS'maximumDepth'
p199
I3
sS'window'
p200
NsS'minimizeBits'
p201
I5
sS'samples'
p202
I30
sS'save'
p203
NsS'resume'
p204
I00
sS'disableClean'
p205
I01
sS'stemBaseline'
p206
I30
sS'dummy'
p207
I00
sS'task'
p208
S'CEGIS'
p209
sS'geometry'
p210
NsS'verbosity'
p211
I0
sS'timeout'
p212
F24
sS'debug'
p213
NsS'cores'
p214
I64
sg177
S'Odden_3.1_Kerewe'
p215
sS'mergeFrontiers'
p216
I00
sbsb.