(iresult
Result
p1
(dp2
S'startTime'
p3
F1566059024.25015
sS'solutionSequence'
p4
(lp5
(ccopy_reg
_reconstructor
p6
(csolution
Solution
p7
c__builtin__
object
p8
NtRp9
(dp10
S'rules'
p11
(lp12
(irule
Rule
p13
(dp14
S'leftTriggers'
p15
(irule
Guard
p16
(dp17
S'endOfString'
p18
I00
sS'specifications'
p19
(lp20
sS'optionalEnding'
p21
I00
sS'representation'
p22
V
sS'starred'
p23
I00
sS'side'
p24
S'L'
sbsS'structuralChange'
p25
(irule
FeatureMatrix
p26
(dp27
S'featuresAndPolarities'
p28
(lp29
sg22
V[  ]
p30
sbsS'rightTriggers'
p31
(irule
Guard
p32
(dp33
g18
I00
sg19
(lp34
sg21
I00
sg22
V
sg23
I00
sg24
S'R'
sbsS'focus'
p35
(irule
FeatureMatrix
p36
(dp37
g28
(lp38
sg22
V[  ]
p39
sbsg22
V[  ] ---> [  ] /  _ 
p40
sbasS'prefixes'
p41
(lp42
(imorph
Morph
p43
(dp44
S'phonemes'
p45
(lp46
sba(imorph
Morph
p47
(dp48
g45
(lp49
sba(imorph
Morph
p50
(dp51
g45
(lp52
sba(imorph
Morph
p53
(dp54
g45
(lp55
sba(imorph
Morph
p56
(dp57
g45
(lp58
sba(imorph
Morph
p59
(dp60
g45
(lp61
sba(imorph
Morph
p62
(dp63
g45
(lp64
sba(imorph
Morph
p65
(dp66
g45
(lp67
sbasS'underlyingForms'
p68
(dp69
((imorph
Morph
p70
(dp71
g45
(lp72
Vs
aVu
aVn
aVc\u030c
p73
aVa
aVn
asb(imorph
Morph
p74
(dp75
g45
(lp76
Vs
aVu
aVn
aVc\u030c
p77
aVa
aVn
aVa
asb(imorph
Morph
p78
(dp79
g45
(lp80
Vs
aVu
aVn
aVc\u030c
p81
aVa
aVn
aVo
asb(imorph
Morph
p82
(dp83
g45
(lp84
Vs
aVu
aVn
aVc\u030c
p85
aVa
aVn
aVi
asbNNNNtp86
(imorph
Morph
p87
(dp88
g45
(lp89
Vs
aVu
aVn
aVc\u030c
p90
aVa
aVn
asbs((imorph
Morph
p91
(dp92
g45
(lp93
Vs
aVv
aVe
aVc\u030c
p94
aVa
aVn
asb(imorph
Morph
p95
(dp96
g45
(lp97
Vs
aVv
aVe
aVc\u030c
p98
aVa
aVn
aVa
asb(imorph
Morph
p99
(dp100
g45
(lp101
Vs
aVv
aVe
aVc\u030c
p102
aVa
aVn
aVo
asb(imorph
Morph
p103
(dp104
g45
(lp105
Vs
aVv
aVe
aVc\u030c
p106
aVa
aVn
aVi
asbNNNNtp107
(imorph
Morph
p108
(dp109
g45
(lp110
Vs
aVv
aVe
ag90
aVa
aVn
asbs((imorph
Morph
p111
(dp112
g45
(lp113
Vk
aVr
aVi
aVz\u030c
p114
aVa
aVn
asb(imorph
Morph
p115
(dp116
g45
(lp117
Vk
aVr
aVi
aVz\u030c
p118
aVa
aVn
aVa
asb(imorph
Morph
p119
(dp120
g45
(lp121
Vk
aVr
aVi
aVz\u030c
p122
aVa
aVn
aVo
asb(imorph
Morph
p123
(dp124
g45
(lp125
Vk
aVr
aVi
aVz\u030c
p126
aVa
aVn
aVi
asbNNNNtp127
(imorph
Morph
p128
(dp129
g45
(lp130
Vk
aVr
aVi
aVz\u030c
p131
aVa
aVn
asbssS'suffixes'
p132
(lp133
(imorph
Morph
p134
(dp135
g45
(lp136
sba(imorph
Morph
p137
(dp138
g45
(lp139
Va
asba(imorph
Morph
p140
(dp141
g45
(lp142
Vo
asba(imorph
Morph
p143
(dp144
g45
(lp145
Vi
asba(imorph
Morph
p146
(dp147
g45
(lp148
sba(imorph
Morph
p149
(dp150
g45
(lp151
sba(imorph
Morph
p152
(dp153
g45
(lp154
sba(imorph
Morph
p155
(dp156
g45
(lp157
sbasbF57.820550918579102
tp158
a(g6
(g7
g8
NtRp159
(dp160
g11
(lp161
(irule
Rule
p162
(dp163
g15
(irule
Guard
p164
(dp165
g18
I00
sg19
(lp166
sg21
I00
sg22
V
sg23
I00
sg24
S'L'
sbsg25
(irule
FeatureMatrix
p167
(dp168
g28
(lp169
(I00
S'highTone'
p170
tp171
asg22
V[ -highTone ]
p172
sbsg31
(irule
Guard
p173
(dp174
g18
I00
sg19
(lp175
(irule
FeatureMatrix
p176
(dp177
g28
(lp178
sg22
V[  ]
p179
sba(irule
FeatureMatrix
p180
(dp181
g28
(lp182
sg22
V[  ]
p183
sbasg21
I00
sg22
V[  ] [  ]
p184
sg23
I00
sg24
S'R'
sbsg35
(irule
FeatureMatrix
p185
(dp186
g28
(lp187
sg22
V[  ]
p188
sbsg22
V[  ] ---> [ -highTone ] /  _ [  ] [  ]
p189
sba(irule
Rule
p190
(dp191
g15
(irule
Guard
p192
(dp193
g18
I00
sg19
(lp194
(irule
FeatureMatrix
p195
(dp196
g28
(lp197
(I01
S'nasal'
p198
tp199
asg22
V[ +nasal ]
p200
sbasg21
I00
sg22
g200
sg23
I00
sg24
S'L'
sbsg25
(irule
FeatureMatrix
p201
(dp202
g28
(lp203
(I00
g170
tp204
asg22
V[ -highTone ]
p205
sbsg31
(irule
Guard
p206
(dp207
g18
I00
sg19
(lp208
sg21
I00
sg22
V
sg23
I00
sg24
S'R'
sbsg35
(irule
FeatureMatrix
p209
(dp210
g28
(lp211
sg22
V[  ]
p212
sbsg22
V[  ] ---> [ -highTone ] / [ +nasal ] _ 
p213
sbasg41
(lp214
(imorph
Morph
p215
(dp216
g45
(lp217
sba(imorph
Morph
p218
(dp219
g45
(lp220
sba(imorph
Morph
p221
(dp222
g45
(lp223
sba(imorph
Morph
p224
(dp225
g45
(lp226
sba(imorph
Morph
p227
(dp228
g45
(lp229
sba(imorph
Morph
p230
(dp231
g45
(lp232
sba(imorph
Morph
p233
(dp234
g45
(lp235
sba(imorph
Morph
p236
(dp237
g45
(lp238
sbasg68
(dp239
(g70
g74
g78
g82
NNNNtp240
(imorph
Morph
p241
(dp242
g45
(lp243
Vs
aVu
aVn
ag90
aVa
aVn
asbs(g91
g95
g99
g103
NNNNtp244
(imorph
Morph
p245
(dp246
g45
(lp247
Vs
aVv
aVe
ag90
aVa
aVn
asbs((imorph
Morph
p248
(dp249
g45
(lp250
Vm
aVl
aVa\u0301
p251
aVd
asb(imorph
Morph
p252
(dp253
g45
(lp254
Vm
aVl
aVa
aVd
aVa\u0301
p255
asb(imorph
Morph
p256
(dp257
g45
(lp258
Vm
aVl
aVa
aVd
aVo\u0301
p259
asb(imorph
Morph
p260
(dp261
g45
(lp262
Vm
aVl
aVa
aVd
aVi\u0301
p263
asbNNNNtp264
(imorph
Morph
p265
(dp266
g45
(lp267
Vm
aVl
aVa\u0301
p268
aVd
asbs(g111
g115
g119
g123
NNNNtp269
(imorph
Morph
p270
(dp271
g45
(lp272
Vk
aVr
aVi
ag131
aVa
aVn
asbssg132
(lp273
(imorph
Morph
p274
(dp275
g45
(lp276
sba(imorph
Morph
p277
(dp278
g45
(lp279
g268
asba(imorph
Morph
p280
(dp281
g45
(lp282
Vo\u0301
p283
asba(imorph
Morph
p284
(dp285
g45
(lp286
Vi\u0301
p287
asba(imorph
Morph
p288
(dp289
g45
(lp290
sba(imorph
Morph
p291
(dp292
g45
(lp293
sba(imorph
Morph
p294
(dp295
g45
(lp296
sba(imorph
Morph
p297
(dp298
g45
(lp299
sbasbF977.97894906997681
tp300
a(g6
(g7
g8
NtRp301
(dp302
g11
(lp303
(irule
Rule
p304
(dp305
g15
(irule
Guard
p306
(dp307
g18
I00
sg19
(lp308
sg21
I00
sg22
V
sg23
I00
sg24
S'L'
sbsg25
(irule
FeatureMatrix
p309
(dp310
g28
(lp311
(I00
g170
tp312
asg22
V[ -highTone ]
p313
sbsg31
(irule
Guard
p314
(dp315
g18
I00
sg19
(lp316
(irule
FeatureMatrix
p317
(dp318
g28
(lp319
sg22
V[  ]
p320
sba(irule
FeatureMatrix
p321
(dp322
g28
(lp323
sg22
V[  ]
p324
sbasg21
I00
sg22
V[  ] [  ]
p325
sg23
I00
sg24
S'R'
sbsg35
(irule
FeatureMatrix
p326
(dp327
g28
(lp328
sg22
V[  ]
p329
sbsg22
V[  ] ---> [ -highTone ] /  _ [  ] [  ]
p330
sba(irule
Rule
p331
(dp332
g15
(irule
Guard
p333
(dp334
g18
I00
sg19
(lp335
(irule
ConstantPhoneme
p336
(dp337
S'p'
Vd
sbasg21
I00
sg22
Vd
sg23
I00
sg24
S'L'
sbsg25
(irule
FeatureMatrix
p338
(dp339
g28
(lp340
(I01
g170
tp341
asg22
V[ +highTone ]
p342
sbsg31
(irule
Guard
p343
(dp344
g18
I00
sg19
(lp345
sg21
I00
sg22
V
sg23
I00
sg24
S'R'
sbsg35
(irule
FeatureMatrix
p346
(dp347
g28
(lp348
sg22
V[  ]
p349
sbsg22
V[  ] ---> [ +highTone ] / d _ 
p350
sbasg41
(lp351
(imorph
Morph
p352
(dp353
g45
(lp354
sba(imorph
Morph
p355
(dp356
g45
(lp357
sba(imorph
Morph
p358
(dp359
g45
(lp360
sba(imorph
Morph
p361
(dp362
g45
(lp363
sba(imorph
Morph
p364
(dp365
g45
(lp366
sba(imorph
Morph
p367
(dp368
g45
(lp369
sba(imorph
Morph
p370
(dp371
g45
(lp372
sba(imorph
Morph
p373
(dp374
g45
(lp375
sbasg68
(dp376
((imorph
Morph
p377
(dp378
g45
(lp379
Vb
aVo
aVg
aVa
aVt
asb(imorph
Morph
p380
(dp381
g45
(lp382
Vb
aVo
aVg
aVa
aVt
aVa
asb(imorph
Morph
p383
(dp384
g45
(lp385
Vb
aVo
aVg
aVa
aVt
aVo
asb(imorph
Morph
p386
(dp387
g45
(lp388
Vb
aVo
aVg
aVa
aVt
aVi
asbNNNNtp389
(imorph
Morph
p390
(dp391
g45
(lp392
Vb
aVo
aVg
aVa
aVt
asbs(g70
g74
g78
g82
NNNNtp393
(imorph
Morph
p394
(dp395
g45
(lp396
Vs
aVu
aVn
ag90
aVa
aVn
asbs(g91
g95
g99
g103
NNNNtp397
(imorph
Morph
p398
(dp399
g45
(lp400
Vs
aVv
aVe
ag90
aVa
aVn
asbs(g248
g252
g256
g260
NNNNtp401
(imorph
Morph
p402
(dp403
g45
(lp404
Vm
aVl
ag268
aVd
asbs(g111
g115
g119
g123
NNNNtp405
(imorph
Morph
p406
(dp407
g45
(lp408
Vk
aVr
aVi
ag131
aVa
aVn
asbssg132
(lp409
(imorph
Morph
p410
(dp411
g45
(lp412
sba(imorph
Morph
p413
(dp414
g45
(lp415
Va
asba(imorph
Morph
p416
(dp417
g45
(lp418
Vo
asba(imorph
Morph
p419
(dp420
g45
(lp421
Vi
asba(imorph
Morph
p422
(dp423
g45
(lp424
sba(imorph
Morph
p425
(dp426
g45
(lp427
sba(imorph
Morph
p428
(dp429
g45
(lp430
sba(imorph
Morph
p431
(dp432
g45
(lp433
sbasbF2667.8685050010681
tp434
a(g6
(g7
g8
NtRp435
(dp436
g11
(lp437
(irule
Rule
p438
(dp439
g15
(irule
Guard
p440
(dp441
g18
I00
sg19
(lp442
(irule
FeatureMatrix
p443
(dp444
g28
(lp445
sg22
V[  ]
p446
sba(irule
ConstantPhoneme
p447
(dp448
S'p'
Va
sbasg21
I00
sg22
Va [  ]
p449
sg23
I00
sg24
S'L'
sbsg25
(irule
FeatureMatrix
p450
(dp451
g28
(lp452
(I00
g170
tp453
asg22
V[ -highTone ]
p454
sbsg31
(irule
Guard
p455
(dp456
g18
I00
sg19
(lp457
sg21
I00
sg22
V
sg23
I00
sg24
S'R'
sbsg35
(irule
FeatureMatrix
p458
(dp459
g28
(lp460
sg22
V[  ]
p461
sbsg22
V[  ] ---> [ -highTone ] / a [  ] _ 
p462
sba(irule
Rule
p463
(dp464
g15
(irule
Guard
p465
(dp466
g18
I00
sg19
(lp467
sg21
I00
sg22
V
sg23
I00
sg24
S'L'
sbsg25
(irule
FeatureMatrix
p468
(dp469
g28
(lp470
(I00
g170
tp471
asg22
V[ -highTone ]
p472
sbsg31
(irule
Guard
p473
(dp474
g18
I00
sg19
(lp475
(irule
FeatureMatrix
p476
(dp477
g28
(lp478
sg22
V[  ]
p479
sba(irule
FeatureMatrix
p480
(dp481
g28
(lp482
sg22
V[  ]
p483
sbasg21
I00
sg22
V[  ] [  ]
p484
sg23
I00
sg24
S'R'
sbsg35
(irule
FeatureMatrix
p485
(dp486
g28
(lp487
sg22
V[  ]
p488
sbsg22
V[  ] ---> [ -highTone ] /  _ [  ] [  ]
p489
sbasg41
(lp490
(imorph
Morph
p491
(dp492
g45
(lp493
sba(imorph
Morph
p494
(dp495
g45
(lp496
sba(imorph
Morph
p497
(dp498
g45
(lp499
sba(imorph
Morph
p500
(dp501
g45
(lp502
sba(imorph
Morph
p503
(dp504
g45
(lp505
sba(imorph
Morph
p506
(dp507
g45
(lp508
sba(imorph
Morph
p509
(dp510
g45
(lp511
sba(imorph
Morph
p512
(dp513
g45
(lp514
sbasg68
(dp515
(g91
g95
g99
g103
NNNNtp516
(imorph
Morph
p517
(dp518
g45
(lp519
Vs
aVv
aVe
ag90
aVa
aVn
asbs(g248
g252
g256
g260
NNNNtp520
(imorph
Morph
p521
(dp522
g45
(lp523
Vm
aVl
ag268
aVd
asbs(g377
g380
g383
g386
NNNNtp524
(imorph
Morph
p525
(dp526
g45
(lp527
Vb
aVo
aVg
aVa
aVt
asbs(g70
g74
g78
g82
NNNNtp528
(imorph
Morph
p529
(dp530
g45
(lp531
Vs
aVu
aVn
ag90
aVa
aVn
asbs((imorph
Morph
p532
(dp533
g45
(lp534
Vt
aVu\u0301
p535
aVp
asb(imorph
Morph
p536
(dp537
g45
(lp538
Vt
aVu
aVp
aVa\u0301
p539
asb(imorph
Morph
p540
(dp541
g45
(lp542
Vt
aVu
aVp
aVo\u0301
p543
asb(imorph
Morph
p544
(dp545
g45
(lp546
Vt
aVu
aVp
aVi\u0301
p547
asbNNNNtp548
(imorph
Morph
p549
(dp550
g45
(lp551
Vt
aVu\u0301
p552
aVp
asbs(g111
g115
g119
g123
NNNNtp553
(imorph
Morph
p554
(dp555
g45
(lp556
Vk
aVr
aVi
ag131
aVa
aVn
asbssg132
(lp557
(imorph
Morph
p558
(dp559
g45
(lp560
sba(imorph
Morph
p561
(dp562
g45
(lp563
g268
asba(imorph
Morph
p564
(dp565
g45
(lp566
g283
asba(imorph
Morph
p567
(dp568
g45
(lp569
g287
asba(imorph
Morph
p570
(dp571
g45
(lp572
sba(imorph
Morph
p573
(dp574
g45
(lp575
sba(imorph
Morph
p576
(dp577
g45
(lp578
sba(imorph
Morph
p579
(dp580
g45
(lp581
sbasbF3946.5255579948425
tp582
a(g6
(g7
g8
NtRp583
(dp584
g11
(lp585
(irule
Rule
p586
(dp587
g15
(irule
Guard
p588
(dp589
g18
I00
sg19
(lp590
sg21
I00
sg22
V
sg23
I00
sg24
S'L'
sbsg25
(irule
ConstantPhoneme
p591
(dp592
S'p'
Vl
sbsg31
(irule
Guard
p593
(dp594
g18
I00
sg19
(lp595
(irule
FeatureMatrix
p596
(dp597
g28
(lp598
sg22
V[  ]
p599
sbasg21
I00
sg22
g599
sg23
I00
sg24
S'R'
sbsg35
(irule
ConstantPhoneme
p600
(dp601
S'p'
Vo
sbsg22
Vo ---> l /  _ [  ]
p602
sba(irule
Rule
p603
(dp604
g15
(irule
Guard
p605
(dp606
g18
I00
sg19
(lp607
(irule
FeatureMatrix
p608
(dp609
g28
(lp610
sg22
V[  ]
p611
sba(irule
ConstantPhoneme
p612
(dp613
S'p'
Va
sbasg21
I00
sg22
Va [  ]
p614
sg23
I00
sg24
S'L'
sbsg25
(irule
FeatureMatrix
p615
(dp616
g28
(lp617
(I00
g170
tp618
asg22
V[ -highTone ]
p619
sbsg31
(irule
Guard
p620
(dp621
g18
I00
sg19
(lp622
sg21
I00
sg22
V
sg23
I00
sg24
S'R'
sbsg35
(irule
FeatureMatrix
p623
(dp624
g28
(lp625
sg22
V[  ]
p626
sbsg22
V[  ] ---> [ -highTone ] / a [  ] _ 
p627
sba(irule
Rule
p628
(dp629
g15
(irule
Guard
p630
(dp631
g18
I00
sg19
(lp632
sg21
I00
sg22
V
sg23
I00
sg24
S'L'
sbsg25
(irule
FeatureMatrix
p633
(dp634
g28
(lp635
(I00
g170
tp636
asg22
V[ -highTone ]
p637
sbsg31
(irule
Guard
p638
(dp639
g18
I00
sg19
(lp640
(irule
FeatureMatrix
p641
(dp642
g28
(lp643
sg22
V[  ]
p644
sba(irule
FeatureMatrix
p645
(dp646
g28
(lp647
sg22
V[  ]
p648
sbasg21
I00
sg22
V[  ] [  ]
p649
sg23
I00
sg24
S'R'
sbsg35
(irule
FeatureMatrix
p650
(dp651
g28
(lp652
sg22
V[  ]
p653
sbsg22
V[  ] ---> [ -highTone ] /  _ [  ] [  ]
p654
sbasg41
(lp655
(imorph
Morph
p656
(dp657
g45
(lp658
sba(imorph
Morph
p659
(dp660
g45
(lp661
sba(imorph
Morph
p662
(dp663
g45
(lp664
sba(imorph
Morph
p665
(dp666
g45
(lp667
sba(imorph
Morph
p668
(dp669
g45
(lp670
sba(imorph
Morph
p671
(dp672
g45
(lp673
sba(imorph
Morph
p674
(dp675
g45
(lp676
sba(imorph
Morph
p677
(dp678
g45
(lp679
sbasg68
(dp680
((imorph
Morph
(dp681
g45
(lp682
Vk
aVr
aVa
aVd
aVe\u0301
p683
aVn
asb(imorph
Morph
(dp684
g45
(lp685
Vk
aVr
aVa
aVd
aVe
aVn
aVa\u0301
p686
asb(imorph
Morph
(dp687
g45
(lp688
Vk
aVr
aVa
aVd
aVe
aVn
aVo\u0301
p689
asb(imorph
Morph
(dp690
g45
(lp691
Vk
aVr
aVa
aVd
aVe
aVn
aVi\u0301
p692
asbNNNNtp693
(imorph
Morph
p694
(dp695
g45
(lp696
Vk
aVr
ag268
aVd
aVe\u0301
p697
aVn
asbs((imorph
Morph
p698
(dp699
g45
(lp700
Vb
aVe\u0301
p701
aVo
asb(imorph
Morph
p702
(dp703
g45
(lp704
Vb
aVe
aVl
aVa\u0301
p705
asb(imorph
Morph
p706
(dp707
g45
(lp708
Vb
aVe
aVl
aVo\u0301
p709
asb(imorph
Morph
p710
(dp711
g45
(lp712
Vb
aVe
aVl
aVi\u0301
p713
asbNNNNtp714
(imorph
Morph
p715
(dp716
g45
(lp717
Vb
ag697
aVo
asbs((imorph
Morph
(dp718
g45
(lp719
Vr
aVa
aVp
aVa
aVv
asb(imorph
Morph
(dp720
g45
(lp721
Vr
aVa
aVp
aVa
aVv
aVa
asb(imorph
Morph
(dp722
g45
(lp723
Vr
aVa
aVp
aVa
aVv
aVo
asb(imorph
Morph
(dp724
g45
(lp725
Vr
aVa
aVp
aVa
aVv
aVi
asbNNNNtp726
(imorph
Morph
p727
(dp728
g45
(lp729
Vr
aVa
aVp
aVa
aVv
asbs((imorph
Morph
(dp730
g45
(lp731
Vz
aVe
aVl
aVe\u0301
p732
aVn
asb(imorph
Morph
(dp733
g45
(lp734
Vz
aVe
aVl
aVe
aVn
aVa\u0301
p735
asb(imorph
Morph
(dp736
g45
(lp737
Vz
aVe
aVl
aVe
aVn
aVo\u0301
p738
asb(imorph
Morph
(dp739
g45
(lp740
Vz
aVe
aVl
aVe
aVn
aVi\u0301
p741
asbNNNNtp742
(imorph
Morph
p743
(dp744
g45
(lp745
Vz
aVe
aVl
ag697
aVn
asbs((imorph
Morph
(dp746
g45
(lp747
Vd
aVa
aVl
aVe\u0301
p748
aVk
asb(imorph
Morph
(dp749
g45
(lp750
Vd
aVa
aVl
aVe
aVk
aVa\u0301
p751
asb(imorph
Morph
(dp752
g45
(lp753
Vd
aVa
aVl
aVe
aVk
aVo\u0301
p754
asb(imorph
Morph
(dp755
g45
(lp756
Vd
aVa
aVl
aVe
aVk
aVi\u0301
p757
asbNNNNtp758
(imorph
Morph
p759
(dp760
g45
(lp761
Vd
ag268
aVl
ag697
aVk
asbs(g91
g95
g99
g103
NNNNtp762
(imorph
Morph
p763
(dp764
g45
(lp765
Vs
aVv
aVe
ag90
aVa
aVn
asbs((imorph
Morph
(dp766
g45
(lp767
Vd
aVe
aVb
aVe\u0301
p768
aVo
asb(imorph
Morph
(dp769
g45
(lp770
Vd
aVe
aVb
aVe
aVl
aVa\u0301
p771
asb(imorph
Morph
(dp772
g45
(lp773
Vd
aVe
aVb
aVe
aVl
aVo\u0301
p774
asb(imorph
Morph
(dp775
g45
(lp776
Vd
aVe
aVb
aVe
aVl
aVi\u0301
p777
asbNNNNtp778
(imorph
Morph
p779
(dp780
g45
(lp781
Vd
aVe
aVb
ag697
aVo
asbs(g248
g252
g256
g260
NNNNtp782
(imorph
Morph
p783
(dp784
g45
(lp785
Vm
aVl
ag268
aVd
asbs((imorph
Morph
(dp786
g45
(lp787
Vm
aVi\u0301
p788
aVo
asb(imorph
Morph
(dp789
g45
(lp790
Vm
aVi
aVl
aVa\u0301
p791
asb(imorph
Morph
(dp792
g45
(lp793
Vm
aVi
aVl
aVo\u0301
p794
asb(imorph
Morph
(dp795
g45
(lp796
Vm
aVi
aVl
aVi\u0301
p797
asbNNNNtp798
(imorph
Morph
p799
(dp800
g45
(lp801
Vm
ag287
aVo
asbs((imorph
Morph
(dp802
g45
(lp803
Vb
aVl
aVa\u0301
p804
aVg
asb(imorph
Morph
(dp805
g45
(lp806
Vb
aVl
aVa
aVg
aVa\u0301
p807
asb(imorph
Morph
(dp808
g45
(lp809
Vb
aVl
aVa
aVg
aVo\u0301
p810
asb(imorph
Morph
(dp811
g45
(lp812
Vb
aVl
aVa
aVg
aVi\u0301
p813
asbNNNNtp814
(imorph
Morph
p815
(dp816
g45
(lp817
Vb
aVl
ag268
aVg
asbs((imorph
Morph
(dp818
g45
(lp819
Vd
aVu
aVb
aVo\u0301
p820
aVk
asb(imorph
Morph
(dp821
g45
(lp822
Vd
aVu
aVb
aVo
aVk
aVa\u0301
p823
asb(imorph
Morph
(dp824
g45
(lp825
Vd
aVu
aVb
aVo
aVk
aVo\u0301
p826
asb(imorph
Morph
(dp827
g45
(lp828
Vd
aVu
aVb
aVo
aVk
aVi\u0301
p829
asbNNNNtp830
(imorph
Morph
p831
(dp832
g45
(lp833
Vd
aVu
aVb
ag283
aVk
asbs(g377
g380
g383
g386
NNNNtp834
(imorph
Morph
p835
(dp836
g45
(lp837
Vb
ag283
aVg
aVa
aVt
asbs((imorph
Morph
(dp838
g45
(lp839
Vv
aVi
aVs
aVo\u0301
p840
aVk
asb(imorph
Morph
(dp841
g45
(lp842
Vv
aVi
aVs
aVo
aVk
aVa\u0301
p843
asb(imorph
Morph
(dp844
g45
(lp845
Vv
aVi
aVs
aVo
aVk
aVo\u0301
p846
asb(imorph
Morph
(dp847
g45
(lp848
Vv
aVi
aVs
aVo
aVk
aVi\u0301
p849
asbNNNNtp850
(imorph
Morph
p851
(dp852
g45
(lp853
Vv
aVi
aVs
ag283
aVk
asbs((imorph
Morph
(dp854
g45
(lp855
Vg
aVr
aVu\u0301
p856
aVb
asb(imorph
Morph
(dp857
g45
(lp858
Vg
aVr
aVu
aVb
aVa\u0301
p859
asb(imorph
Morph
(dp860
g45
(lp861
Vg
aVr
aVu
aVb
aVo\u0301
p862
asb(imorph
Morph
(dp863
g45
(lp864
Vg
aVr
aVu
aVb
aVi\u0301
p865
asbNNNNtp866
(imorph
Morph
p867
(dp868
g45
(lp869
Vg
aVr
ag552
aVb
asbs(g70
g74
g78
g82
NNNNtp870
(imorph
Morph
p871
(dp872
g45
(lp873
Vs
aVu
aVn
ag90
aVa
aVn
asbs((imorph
Morph
(dp874
g45
(lp875
Vu
aVs
aVt
aVa
aVo
asb(imorph
Morph
(dp876
g45
(lp877
Vu
aVs
aVt
aVa
aVl
aVa
asb(imorph
Morph
(dp878
g45
(lp879
Vu
aVs
aVt
aVa
aVl
aVo
asb(imorph
Morph
(dp880
g45
(lp881
Vu
aVs
aVt
aVa
aVl
aVi
asbNNNNtp882
(imorph
Morph
p883
(dp884
g45
(lp885
Vu
aVs
aVt
aVa
aVo
asbs(g532
g536
g540
g544
NNNNtp886
(imorph
Morph
p887
(dp888
g45
(lp889
Vt
ag552
aVp
asbs(g111
g115
g119
g123
NNNNtp890
(imorph
Morph
p891
(dp892
g45
(lp893
Vk
aVr
aVi
ag131
aVa
aVn
asbssg132
(lp894
(imorph
Morph
p895
(dp896
g45
(lp897
sba(imorph
Morph
p898
(dp899
g45
(lp900
g268
asba(imorph
Morph
p901
(dp902
g45
(lp903
g283
asba(imorph
Morph
p904
(dp905
g45
(lp906
g287
asba(imorph
Morph
p907
(dp908
g45
(lp909
sba(imorph
Morph
p910
(dp911
g45
(lp912
sba(imorph
Morph
p913
(dp914
g45
(lp915
sba(imorph
Morph
p916
(dp917
g45
(lp918
sbasbF45047.471097946167
tp919
asS'problem'
p920
S'Odden_4.1_Serbo_Croatian'
p921
sS'finalFrontier'
p922
g6
(csolution
Frontier
p923
g8
NtRp924
(dp925
g41
g655
sg132
g894
sg68
g680
sS'frontiers'
p926
(lp927
(lp928
(irule
Rule
p929
(dp930
g15
(irule
Guard
p931
(dp932
g18
I00
sg19
(lp933
sg21
I00
sg22
V
sg23
I00
sg24
S'L'
sbsg25
(irule
ConstantPhoneme
p934
(dp935
S'p'
Vl
sbsg31
(irule
Guard
p936
(dp937
g18
I00
sg19
(lp938
(irule
FeatureMatrix
p939
(dp940
g28
(lp941
sg22
V[  ]
p942
sbasg21
I00
sg22
g942
sg23
I00
sg24
S'R'
sbsg35
(irule
ConstantPhoneme
p943
(dp944
S'p'
Vo
sbsg22
Vo ---> l /  _ [  ]
p945
sba(irule
Rule
p946
(dp947
g15
(irule
Guard
p948
(dp949
g18
I00
sg19
(lp950
sg21
I00
sg22
Nsg23
I00
sg24
S'L'
sbsg25
(irule
ConstantPhoneme
p951
(dp952
S'p'
Vl
sbsg31
(irule
Guard
p953
(dp954
g18
I00
sg19
(lp955
(irule
FeatureMatrix
p956
(dp957
g28
(lp958
(I01
S'highTone'
p959
tp960
asg22
Nsbasg21
I00
sg22
Nsg23
I00
sg24
S'R'
sbsg35
(irule
FeatureMatrix
p961
(dp962
g28
(lp963
(I01
S'vowel'
p964
tp965
asg22
Nsbsg22
Nsba(irule
Rule
p966
(dp967
g15
(irule
Guard
p968
(dp969
g18
I00
sg19
(lp970
sg21
I00
sg22
Nsg23
I00
sg24
S'L'
sbsg25
(irule
ConstantPhoneme
p971
(dp972
S'p'
Vl
sbsg31
(irule
Guard
p973
(dp974
g18
I00
sg19
(lp975
(irule
FeatureMatrix
p976
(dp977
g28
(lp978
(I01
g959
tp979
asg22
Nsbasg21
I00
sg22
Nsg23
I00
sg24
S'R'
sbsg35
(irule
FeatureMatrix
p980
(dp981
g28
(lp982
(I01
S'tense'
p983
tp984
asg22
Nsbsg22
Nsba(irule
Rule
p985
(dp986
g15
(irule
Guard
p987
(dp988
g18
I00
sg19
(lp989
sg21
I00
sg22
Nsg23
I00
sg24
S'L'
sbsg25
(irule
ConstantPhoneme
p990
(dp991
S'p'
Vl
sbsg31
(irule
Guard
p992
(dp993
g18
I00
sg19
(lp994
(irule
FeatureMatrix
p995
(dp996
g28
(lp997
(I01
S'voice'
p998
tp999
asg22
Nsbasg21
I00
sg22
Nsg23
I00
sg24
S'R'
sbsg35
(irule
ConstantPhoneme
p1000
(dp1001
S'p'
Vo
sbsg22
Nsba(irule
Rule
p1002
(dp1003
g15
(irule
Guard
p1004
(dp1005
g18
I00
sg19
(lp1006
sg21
I00
sg22
Nsg23
I00
sg24
S'L'
sbsg25
(irule
ConstantPhoneme
p1007
(dp1008
S'p'
Vl
sbsg31
(irule
Guard
p1009
(dp1010
g18
I00
sg19
(lp1011
(irule
FeatureMatrix
p1012
(dp1013
g28
(lp1014
(I00
S'sibilant'
p1015
tp1016
asg22
Nsbasg21
I00
sg22
Nsg23
I00
sg24
S'R'
sbsg35
(irule
ConstantPhoneme
p1017
(dp1018
S'p'
Vo
sbsg22
Nsba(irule
Rule
p1019
(dp1020
g15
(irule
Guard
p1021
(dp1022
g18
I00
sg19
(lp1023
sg21
I00
sg22
Nsg23
I00
sg24
S'L'
sbsg25
(irule
ConstantPhoneme
p1024
(dp1025
S'p'
Vl
sbsg31
(irule
Guard
p1026
(dp1027
g18
I00
sg19
(lp1028
(irule
FeatureMatrix
p1029
(dp1030
g28
(lp1031
(I00
S'palletized'
p1032
tp1033
asg22
Nsbasg21
I00
sg22
Nsg23
I00
sg24
S'R'
sbsg35
(irule
ConstantPhoneme
p1034
(dp1035
S'p'
Vo
sbsg22
Nsba(irule
Rule
p1036
(dp1037
g15
(irule
Guard
p1038
(dp1039
g18
I00
sg19
(lp1040
sg21
I00
sg22
Nsg23
I00
sg24
S'L'
sbsg25
(irule
ConstantPhoneme
p1041
(dp1042
S'p'
Vl
sbsg31
(irule
Guard
p1043
(dp1044
g18
I00
sg19
(lp1045
(irule
FeatureMatrix
p1046
(dp1047
g28
(lp1048
(I01
g964
tp1049
asg22
Nsbasg21
I00
sg22
Nsg23
I00
sg24
S'R'
sbsg35
(irule
ConstantPhoneme
p1050
(dp1051
S'p'
Vo
sbsg22
Nsba(irule
Rule
p1052
(dp1053
g15
(irule
Guard
p1054
(dp1055
g18
I00
sg19
(lp1056
sg21
I00
sg22
Nsg23
I00
sg24
S'L'
sbsg25
(irule
ConstantPhoneme
p1057
(dp1058
S'p'
Vl
sbsg31
(irule
Guard
p1059
(dp1060
g18
I00
sg19
(lp1061
(irule
FeatureMatrix
p1062
(dp1063
g28
(lp1064
(I00
S'coronal'
p1065
tp1066
asg22
Nsbasg21
I00
sg22
Nsg23
I00
sg24
S'R'
sbsg35
(irule
ConstantPhoneme
p1067
(dp1068
S'p'
Vo
sbsg22
Nsba(irule
Rule
p1069
(dp1070
g15
(irule
Guard
p1071
(dp1072
g18
I00
sg19
(lp1073
sg21
I00
sg22
Nsg23
I00
sg24
S'L'
sbsg25
(irule
ConstantPhoneme
p1074
(dp1075
S'p'
Vl
sbsg31
(irule
Guard
p1076
(dp1077
g18
I01
sg19
(lp1078
(irule
FeatureMatrix
p1079
(dp1080
g28
(lp1081
sg22
Nsbasg21
I00
sg22
Nsg23
I00
sg24
S'R'
sbsg35
(irule
ConstantPhoneme
p1082
(dp1083
S'p'
Vo
sbsg22
Nsba(irule
Rule
p1084
(dp1085
g15
(irule
Guard
p1086
(dp1087
g18
I00
sg19
(lp1088
sg21
I00
sg22
Nsg23
I00
sg24
S'L'
sbsg25
(irule
ConstantPhoneme
p1089
(dp1090
S'p'
Vl
sbsg31
(irule
Guard
p1091
(dp1092
g18
I00
sg19
(lp1093
(irule
FeatureMatrix
p1094
(dp1095
g28
(lp1096
(I01
g959
tp1097
asg22
Nsbasg21
I00
sg22
Nsg23
I00
sg24
S'R'
sbsg35
(irule
ConstantPhoneme
p1098
(dp1099
S'p'
Vo
sbsg22
Nsba(irule
Rule
p1100
(dp1101
g15
(irule
Guard
p1102
(dp1103
g18
I00
sg19
(lp1104
sg21
I00
sg22
Nsg23
I00
sg24
S'L'
sbsg25
(irule
ConstantPhoneme
p1105
(dp1106
S'p'
Vl
sbsg31
(irule
Guard
p1107
(dp1108
g18
I00
sg19
(lp1109
(irule
FeatureMatrix
p1110
(dp1111
g28
(lp1112
(I01
g964
tp1113
asg22
Nsbasg21
I00
sg22
Nsg23
I00
sg24
S'R'
sbsg35
(irule
FeatureMatrix
p1114
(dp1115
g28
(lp1116
(I01
S'rounded'
p1117
tp1118
asg22
Nsbsg22
Nsba(irule
Rule
p1119
(dp1120
g15
(irule
Guard
p1121
(dp1122
g18
I00
sg19
(lp1123
sg21
I00
sg22
Nsg23
I00
sg24
S'L'
sbsg25
(irule
ConstantPhoneme
p1124
(dp1125
S'p'
Vl
sbsg31
(irule
Guard
p1126
(dp1127
g18
I00
sg19
(lp1128
(irule
FeatureMatrix
p1129
(dp1130
g28
(lp1131
(I00
S'anterior'
p1132
tp1133
asg22
Nsbasg21
I00
sg22
Nsg23
I00
sg24
S'R'
sbsg35
(irule
ConstantPhoneme
p1134
(dp1135
S'p'
Vo
sbsg22
Nsba(irule
Rule
p1136
(dp1137
g15
(irule
Guard
p1138
(dp1139
g18
I00
sg19
(lp1140
sg21
I00
sg22
Nsg23
I00
sg24
S'L'
sbsg25
(irule
ConstantPhoneme
p1141
(dp1142
S'p'
Vl
sbsg31
(irule
Guard
p1143
(dp1144
g18
I00
sg19
(lp1145
(irule
FeatureMatrix
p1146
(dp1147
g28
(lp1148
(I00
S'glide'
p1149
tp1150
asg22
Nsbasg21
I00
sg22
Nsg23
I00
sg24
S'R'
sbsg35
(irule
ConstantPhoneme
p1151
(dp1152
S'p'
Vo
sbsg22
Nsba(irule
Rule
p1153
(dp1154
g15
(irule
Guard
p1155
(dp1156
g18
I00
sg19
(lp1157
sg21
I00
sg22
Nsg23
I00
sg24
S'L'
sbsg25
(irule
ConstantPhoneme
p1158
(dp1159
S'p'
Vl
sbsg31
(irule
Guard
p1160
(dp1161
g18
I00
sg19
(lp1162
(irule
FeatureMatrix
p1163
(dp1164
g28
(lp1165
(I00
S'lateral'
p1166
tp1167
asg22
Nsbasg21
I00
sg22
Nsg23
I00
sg24
S'R'
sbsg35
(irule
ConstantPhoneme
p1168
(dp1169
S'p'
Vo
sbsg22
Nsba(irule
Rule
p1170
(dp1171
g15
(irule
Guard
p1172
(dp1173
g18
I00
sg19
(lp1174
sg21
I00
sg22
Nsg23
I00
sg24
S'L'
sbsg25
(irule
ConstantPhoneme
p1175
(dp1176
S'p'
Vl
sbsg31
(irule
Guard
p1177
(dp1178
g18
I00
sg19
(lp1179
(irule
FeatureMatrix
p1180
(dp1181
g28
(lp1182
(I01
S'sonorant'
p1183
tp1184
asg22
Nsbasg21
I00
sg22
Nsg23
I00
sg24
S'R'
sbsg35
(irule
ConstantPhoneme
p1185
(dp1186
S'p'
Vo
sbsg22
Nsba(irule
Rule
p1187
(dp1188
g15
(irule
Guard
p1189
(dp1190
g18
I00
sg19
(lp1191
sg21
I00
sg22
Nsg23
I00
sg24
S'L'
sbsg25
(irule
ConstantPhoneme
p1192
(dp1193
S'p'
Vl
sbsg31
(irule
Guard
p1194
(dp1195
g18
I00
sg19
(lp1196
(irule
FeatureMatrix
p1197
(dp1198
g28
(lp1199
(I01
g959
tp1200
asg22
Nsbasg21
I00
sg22
Nsg23
I00
sg24
S'R'
sbsg35
(irule
FeatureMatrix
p1201
(dp1202
g28
(lp1203
(I01
S'low'
p1204
tp1205
asg22
Nsbsg22
Nsba(irule
Rule
p1206
(dp1207
g15
(irule
Guard
p1208
(dp1209
g18
I00
sg19
(lp1210
sg21
I00
sg22
Nsg23
I00
sg24
S'L'
sbsg25
(irule
ConstantPhoneme
p1211
(dp1212
S'p'
Vl
sbsg31
(irule
Guard
p1213
(dp1214
g18
I00
sg19
(lp1215
(irule
FeatureMatrix
p1216
(dp1217
g28
(lp1218
(I01
g983
tp1219
asg22
Nsbasg21
I00
sg22
Nsg23
I00
sg24
S'R'
sbsg35
(irule
ConstantPhoneme
p1220
(dp1221
S'p'
Vo
sbsg22
Nsba(irule
Rule
p1222
(dp1223
g15
(irule
Guard
p1224
(dp1225
g18
I00
sg19
(lp1226
sg21
I00
sg22
Nsg23
I00
sg24
S'L'
sbsg25
(irule
ConstantPhoneme
p1227
(dp1228
S'p'
Vl
sbsg31
(irule
Guard
p1229
(dp1230
g18
I00
sg19
(lp1231
(irule
FeatureMatrix
p1232
(dp1233
g28
(lp1234
(I00
S'nasal'
p1235
tp1236
asg22
Nsbasg21
I00
sg22
Nsg23
I00
sg24
S'R'
sbsg35
(irule
ConstantPhoneme
p1237
(dp1238
S'p'
Vo
sbsg22
Nsba(irule
Rule
p1239
(dp1240
g15
(irule
Guard
p1241
(dp1242
g18
I00
sg19
(lp1243
sg21
I00
sg22
Nsg23
I00
sg24
S'L'
sbsg25
(irule
ConstantPhoneme
p1244
(dp1245
S'p'
Vl
sbsg31
(irule
Guard
p1246
(dp1247
g18
I00
sg19
(lp1248
(irule
FeatureMatrix
p1249
(dp1250
g28
(lp1251
(I00
S'liquid'
p1252
tp1253
asg22
Nsbasg21
I00
sg22
Nsg23
I00
sg24
S'R'
sbsg35
(irule
ConstantPhoneme
p1254
(dp1255
S'p'
Vo
sbsg22
Nsba(irule
Rule
p1256
(dp1257
g15
(irule
Guard
p1258
(dp1259
g18
I00
sg19
(lp1260
sg21
I00
sg22
Nsg23
I00
sg24
S'L'
sbsg25
(irule
ConstantPhoneme
p1261
(dp1262
S'p'
Vl
sbsg31
(irule
Guard
p1263
(dp1264
g18
I00
sg19
(lp1265
(irule
FeatureMatrix
p1266
(dp1267
g28
(lp1268
(I01
S'continuant'
p1269
tp1270
asg22
Nsbasg21
I00
sg22
Nsg23
I00
sg24
S'R'
sbsg35
(irule
ConstantPhoneme
p1271
(dp1272
S'p'
Vo
sbsg22
Nsba(irule
Rule
p1273
(dp1274
g15
(irule
Guard
p1275
(dp1276
g18
I00
sg19
(lp1277
(irule
FeatureMatrix
p1278
(dp1279
g28
(lp1280
sg22
Nsbasg21
I00
sg22
Nsg23
I00
sg24
S'L'
sbsg25
(irule
ConstantPhoneme
p1281
(dp1282
S'p'
Vl
sbsg31
(irule
Guard
p1283
(dp1284
g18
I00
sg19
(lp1285
(irule
FeatureMatrix
p1286
(dp1287
g28
(lp1288
sg22
Nsbasg21
I00
sg22
Nsg23
I00
sg24
S'R'
sbsg35
(irule
ConstantPhoneme
p1289
(dp1290
S'p'
Vo
sbsg22
Nsba(irule
Rule
p1291
(dp1292
g15
(irule
Guard
p1293
(dp1294
g18
I00
sg19
(lp1295
sg21
I00
sg22
Nsg23
I00
sg24
S'L'
sbsg25
(irule
ConstantPhoneme
p1296
(dp1297
S'p'
Vl
sbsg31
(irule
Guard
p1298
(dp1299
g18
I00
sg19
(lp1300
(irule
FeatureMatrix
p1301
(dp1302
g28
(lp1303
(I01
g983
tp1304
asg22
Nsbasg21
I00
sg22
Nsg23
I00
sg24
S'R'
sbsg35
(irule
FeatureMatrix
p1305
(dp1306
g28
(lp1307
(I01
g1117
tp1308
asg22
Nsbsg22
Nsba(irule
Rule
p1309
(dp1310
g15
(irule
Guard
p1311
(dp1312
g18
I00
sg19
(lp1313
sg21
I00
sg22
Nsg23
I00
sg24
S'L'
sbsg25
(irule
ConstantPhoneme
p1314
(dp1315
S'p'
Vl
sbsg31
(irule
Guard
p1316
(dp1317
g18
I00
sg19
(lp1318
(irule
FeatureMatrix
p1319
(dp1320
g28
(lp1321
(I01
g959
tp1322
asg22
Nsbasg21
I00
sg22
Nsg23
I00
sg24
S'R'
sbsg35
(irule
FeatureMatrix
p1323
(dp1324
g28
(lp1325
(I01
g1117
tp1326
asg22
Nsbsg22
Nsba(irule
Rule
p1327
(dp1328
g15
(irule
Guard
p1329
(dp1330
g18
I00
sg19
(lp1331
sg21
I00
sg22
Nsg23
I00
sg24
S'L'
sbsg25
(irule
ConstantPhoneme
p1332
(dp1333
S'p'
Vl
sbsg31
(irule
Guard
p1334
(dp1335
g18
I00
sg19
(lp1336
(irule
FeatureMatrix
p1337
(dp1338
g28
(lp1339
sg22
Nsba(irule
FeatureMatrix
p1340
(dp1341
g28
(lp1342
sg22
Nsbasg21
I00
sg22
Nsg23
I01
sg24
S'R'
sbsg35
(irule
ConstantPhoneme
p1343
(dp1344
S'p'
Vo
sbsg22
Nsba(irule
Rule
p1345
(dp1346
g15
(irule
Guard
p1347
(dp1348
g18
I00
sg19
(lp1349
sg21
I00
sg22
Nsg23
I00
sg24
S'L'
sbsg25
(irule
ConstantPhoneme
p1350
(dp1351
S'p'
Vl
sbsg31
(irule
Guard
p1352
(dp1353
g18
I00
sg19
(lp1354
(irule
FeatureMatrix
p1355
(dp1356
g28
(lp1357
(I00
g1015
tp1358
a(I01
g998
tp1359
asg22
Nsbasg21
I00
sg22
Nsg23
I00
sg24
S'R'
sbsg35
(irule
ConstantPhoneme
p1360
(dp1361
S'p'
Vo
sbsg22
Nsba(irule
Rule
p1362
(dp1363
g15
(irule
Guard
p1364
(dp1365
g18
I00
sg19
(lp1366
sg21
I00
sg22
Nsg23
I00
sg24
S'L'
sbsg25
(irule
ConstantPhoneme
p1367
(dp1368
S'p'
Vl
sbsg31
(irule
Guard
p1369
(dp1370
g18
I00
sg19
(lp1371
(irule
FeatureMatrix
p1372
(dp1373
g28
(lp1374
(I00
g1235
tp1375
a(I00
g1032
tp1376
asg22
Nsbasg21
I00
sg22
Nsg23
I00
sg24
S'R'
sbsg35
(irule
ConstantPhoneme
p1377
(dp1378
S'p'
Vo
sbsg22
Nsba(irule
Rule
p1379
(dp1380
g15
(irule
Guard
p1381
(dp1382
g18
I00
sg19
(lp1383
sg21
I00
sg22
Nsg23
I00
sg24
S'L'
sbsg25
(irule
ConstantPhoneme
p1384
(dp1385
S'p'
Vl
sbsg31
(irule
Guard
p1386
(dp1387
g18
I00
sg19
(lp1388
(irule
FeatureMatrix
p1389
(dp1390
g28
(lp1391
(I01
g964
tp1392
a(I00
g1015
tp1393
asg22
Nsbasg21
I00
sg22
Nsg23
I00
sg24
S'R'
sbsg35
(irule
ConstantPhoneme
p1394
(dp1395
S'p'
Vo
sbsg22
Nsba(irule
Rule
p1396
(dp1397
g15
(irule
Guard
p1398
(dp1399
g18
I00
sg19
(lp1400
sg21
I00
sg22
Nsg23
I00
sg24
S'L'
sbsg25
(irule
ConstantPhoneme
p1401
(dp1402
S'p'
Vl
sbsg31
(irule
Guard
p1403
(dp1404
g18
I01
sg19
(lp1405
(irule
FeatureMatrix
p1406
(dp1407
g28
(lp1408
(I01
g998
tp1409
asg22
Nsbasg21
I00
sg22
Nsg23
I00
sg24
S'R'
sbsg35
(irule
ConstantPhoneme
p1410
(dp1411
S'p'
Vo
sbsg22
Nsba(irule
Rule
p1412
(dp1413
g15
(irule
Guard
p1414
(dp1415
g18
I00
sg19
(lp1416
sg21
I00
sg22
Nsg23
I00
sg24
S'L'
sbsg25
(irule
ConstantPhoneme
p1417
(dp1418
S'p'
Vl
sbsg31
(irule
Guard
p1419
(dp1420
g18
I00
sg19
(lp1421
(irule
FeatureMatrix
p1422
(dp1423
g28
(lp1424
(I00
g1132
tp1425
a(I01
g998
tp1426
asg22
Nsbasg21
I00
sg22
Nsg23
I00
sg24
S'R'
sbsg35
(irule
ConstantPhoneme
p1427
(dp1428
S'p'
Vo
sbsg22
Nsba(irule
Rule
p1429
(dp1430
g15
(irule
Guard
p1431
(dp1432
g18
I00
sg19
(lp1433
sg21
I00
sg22
Nsg23
I00
sg24
S'L'
sbsg25
(irule
ConstantPhoneme
p1434
(dp1435
S'p'
Vl
sbsg31
(irule
Guard
p1436
(dp1437
g18
I00
sg19
(lp1438
(irule
FeatureMatrix
p1439
(dp1440
g28
(lp1441
(I01
g1269
tp1442
a(I01
g959
tp1443
asg22
Nsbasg21
I00
sg22
Nsg23
I00
sg24
S'R'
sbsg35
(irule
ConstantPhoneme
p1444
(dp1445
S'p'
Vo
sbsg22
Nsba(irule
Rule
p1446
(dp1447
g15
(irule
Guard
p1448
(dp1449
g18
I00
sg19
(lp1450
sg21
I00
sg22
Nsg23
I00
sg24
S'L'
sbsg25
(irule
ConstantPhoneme
p1451
(dp1452
S'p'
Vl
sbsg31
(irule
Guard
p1453
(dp1454
g18
I00
sg19
(lp1455
(irule
FeatureMatrix
p1456
(dp1457
g28
(lp1458
(I00
g1149
tp1459
a(I00
g1166
tp1460
asg22
Nsbasg21
I00
sg22
Nsg23
I00
sg24
S'R'
sbsg35
(irule
ConstantPhoneme
p1461
(dp1462
S'p'
Vo
sbsg22
Nsba(irule
Rule
p1463
(dp1464
g15
(irule
Guard
p1465
(dp1466
g18
I00
sg19
(lp1467
sg21
I00
sg22
Nsg23
I00
sg24
S'L'
sbsg25
(irule
ConstantPhoneme
p1468
(dp1469
S'p'
Vl
sbsg31
(irule
Guard
p1470
(dp1471
g18
I01
sg19
(lp1472
(irule
FeatureMatrix
p1473
(dp1474
g28
(lp1475
(I01
g983
tp1476
asg22
Nsbasg21
I00
sg22
Nsg23
I00
sg24
S'R'
sbsg35
(irule
ConstantPhoneme
p1477
(dp1478
S'p'
Vo
sbsg22
Nsba(irule
Rule
p1479
(dp1480
g15
(irule
Guard
p1481
(dp1482
g18
I00
sg19
(lp1483
sg21
I00
sg22
Nsg23
I00
sg24
S'L'
sbsg25
(irule
ConstantPhoneme
p1484
(dp1485
S'p'
Vl
sbsg31
(irule
Guard
p1486
(dp1487
g18
I01
sg19
(lp1488
(irule
FeatureMatrix
p1489
(dp1490
g28
(lp1491
(I00
g1015
tp1492
asg22
Nsbasg21
I00
sg22
Nsg23
I00
sg24
S'R'
sbsg35
(irule
ConstantPhoneme
p1493
(dp1494
S'p'
Vo
sbsg22
Nsba(irule
Rule
p1495
(dp1496
g15
(irule
Guard
p1497
(dp1498
g18
I00
sg19
(lp1499
sg21
I00
sg22
Nsg23
I00
sg24
S'L'
sbsg25
(irule
ConstantPhoneme
p1500
(dp1501
S'p'
Vl
sbsg31
(irule
Guard
p1502
(dp1503
g18
I00
sg19
(lp1504
(irule
FeatureMatrix
p1505
(dp1506
g28
(lp1507
(I01
g983
tp1508
a(I01
g964
tp1509
asg22
Nsbasg21
I00
sg22
Nsg23
I00
sg24
S'R'
sbsg35
(irule
ConstantPhoneme
p1510
(dp1511
S'p'
Vo
sbsg22
Nsba(irule
Rule
p1512
(dp1513
g15
(irule
Guard
p1514
(dp1515
g18
I00
sg19
(lp1516
(irule
FeatureMatrix
p1517
(dp1518
g28
(lp1519
(I00
g1015
tp1520
asg22
Nsbasg21
I00
sg22
Nsg23
I00
sg24
S'L'
sbsg25
(irule
ConstantPhoneme
p1521
(dp1522
S'p'
Vl
sbsg31
(irule
Guard
p1523
(dp1524
g18
I00
sg19
(lp1525
(irule
FeatureMatrix
p1526
(dp1527
g28
(lp1528
sg22
Nsbasg21
I00
sg22
Nsg23
I00
sg24
S'R'
sbsg35
(irule
ConstantPhoneme
p1529
(dp1530
S'p'
Vo
sbsg22
Nsba(irule
Rule
p1531
(dp1532
g15
(irule
Guard
p1533
(dp1534
g18
I00
sg19
(lp1535
sg21
I00
sg22
Nsg23
I00
sg24
S'L'
sbsg25
(irule
ConstantPhoneme
p1536
(dp1537
S'p'
Vl
sbsg31
(irule
Guard
p1538
(dp1539
g18
I01
sg19
(lp1540
(irule
FeatureMatrix
p1541
(dp1542
g28
(lp1543
(I00
g1032
tp1544
asg22
Nsbasg21
I00
sg22
Nsg23
I00
sg24
S'R'
sbsg35
(irule
ConstantPhoneme
p1545
(dp1546
S'p'
Vo
sbsg22
Nsba(irule
Rule
p1547
(dp1548
g15
(irule
Guard
p1549
(dp1550
g18
I00
sg19
(lp1551
sg21
I00
sg22
Nsg23
I00
sg24
S'L'
sbsg25
(irule
ConstantPhoneme
p1552
(dp1553
S'p'
Vl
sbsg31
(irule
Guard
p1554
(dp1555
g18
I00
sg19
(lp1556
(irule
FeatureMatrix
p1557
(dp1558
g28
(lp1559
(I01
g964
tp1560
a(I01
g998
tp1561
asg22
Nsbasg21
I00
sg22
Nsg23
I00
sg24
S'R'
sbsg35
(irule
ConstantPhoneme
p1562
(dp1563
S'p'
Vo
sbsg22
Nsba(irule
Rule
p1564
(dp1565
g15
(irule
Guard
p1566
(dp1567
g18
I00
sg19
(lp1568
sg21
I00
sg22
Nsg23
I00
sg24
S'L'
sbsg25
(irule
ConstantPhoneme
p1569
(dp1570
S'p'
Vl
sbsg31
(irule
Guard
p1571
(dp1572
g18
I00
sg19
(lp1573
(irule
FeatureMatrix
p1574
(dp1575
g28
(lp1576
sg22
Nsbasg21
I00
sg22
Nsg23
I00
sg24
S'R'
sbsg35
(irule
FeatureMatrix
p1577
(dp1578
g28
(lp1579
(I01
g1117
tp1580
a(I00
g959
tp1581
a(I00
S'high'
p1582
tp1583
asg22
Nsbsg22
Nsba(irule
Rule
p1584
(dp1585
g15
(irule
Guard
p1586
(dp1587
g18
I00
sg19
(lp1588
sg21
I00
sg22
Nsg23
I00
sg24
S'L'
sbsg25
(irule
ConstantPhoneme
p1589
(dp1590
S'p'
Vl
sbsg31
(irule
Guard
p1591
(dp1592
g18
I01
sg19
(lp1593
(irule
FeatureMatrix
p1594
(dp1595
g28
(lp1596
sg22
Nsbasg21
I00
sg22
Nsg23
I00
sg24
S'R'
sbsg35
(irule
FeatureMatrix
p1597
(dp1598
g28
(lp1599
(I01
g1117
tp1600
a(I00
g959
tp1601
asg22
Nsbsg22
Nsba(irule
Rule
p1602
(dp1603
g15
(irule
Guard
p1604
(dp1605
g18
I00
sg19
(lp1606
sg21
I00
sg22
Nsg23
I00
sg24
S'L'
sbsg25
(irule
ConstantPhoneme
p1607
(dp1608
S'p'
Vl
sbsg31
(irule
Guard
p1609
(dp1610
g18
I00
sg19
(lp1611
(irule
FeatureMatrix
p1612
(dp1613
g28
(lp1614
(I00
g1032
tp1615
a(I00
g1065
tp1616
asg22
Nsbasg21
I00
sg22
Nsg23
I00
sg24
S'R'
sbsg35
(irule
ConstantPhoneme
p1617
(dp1618
S'p'
Vo
sbsg22
Nsba(irule
Rule
p1619
(dp1620
g15
(irule
Guard
p1621
(dp1622
g18
I00
sg19
(lp1623
sg21
I00
sg22
Nsg23
I00
sg24
S'L'
sbsg25
(irule
ConstantPhoneme
p1624
(dp1625
S'p'
Vl
sbsg31
(irule
Guard
p1626
(dp1627
g18
I00
sg19
(lp1628
(irule
FeatureMatrix
p1629
(dp1630
g28
(lp1631
sg22
Nsbasg21
I00
sg22
Nsg23
I00
sg24
S'R'
sbsg35
(irule
FeatureMatrix
p1632
(dp1633
g28
(lp1634
(I01
g1117
tp1635
a(I00
g959
tp1636
a(I01
g1204
tp1637
asg22
Nsbsg22
Nsba(irule
Rule
p1638
(dp1639
g15
(irule
Guard
p1640
(dp1641
g18
I00
sg19
(lp1642
(irule
FeatureMatrix
p1643
(dp1644
g28
(lp1645
(I01
g998
tp1646
asg22
Nsbasg21
I00
sg22
Nsg23
I00
sg24
S'L'
sbsg25
(irule
ConstantPhoneme
p1647
(dp1648
S'p'
Vl
sbsg31
(irule
Guard
p1649
(dp1650
g18
I00
sg19
(lp1651
(irule
FeatureMatrix
p1652
(dp1653
g28
(lp1654
sg22
Nsbasg21
I00
sg22
Nsg23
I00
sg24
S'R'
sbsg35
(irule
ConstantPhoneme
p1655
(dp1656
S'p'
Vo
sbsg22
Nsba(irule
Rule
p1657
(dp1658
g15
(irule
Guard
p1659
(dp1660
g18
I00
sg19
(lp1661
sg21
I00
sg22
Nsg23
I00
sg24
S'L'
sbsg25
(irule
ConstantPhoneme
p1662
(dp1663
S'p'
Vl
sbsg31
(irule
Guard
p1664
(dp1665
g18
I00
sg19
(lp1666
(irule
FeatureMatrix
p1667
(dp1668
g28
(lp1669
(I00
g1065
tp1670
a(I00
g1015
tp1671
asg22
Nsbasg21
I00
sg22
Nsg23
I00
sg24
S'R'
sbsg35
(irule
ConstantPhoneme
p1672
(dp1673
S'p'
Vo
sbsg22
Nsba(irule
Rule
p1674
(dp1675
g15
(irule
Guard
p1676
(dp1677
g18
I00
sg19
(lp1678
sg21
I00
sg22
Nsg23
I00
sg24
S'L'
sbsg25
(irule
ConstantPhoneme
p1679
(dp1680
S'p'
Vl
sbsg31
(irule
Guard
p1681
(dp1682
g18
I01
sg19
(lp1683
(irule
FeatureMatrix
p1684
(dp1685
g28
(lp1686
(I00
g1065
tp1687
asg22
Nsbasg21
I00
sg22
Nsg23
I00
sg24
S'R'
sbsg35
(irule
ConstantPhoneme
p1688
(dp1689
S'p'
Vo
sbsg22
Nsba(irule
Rule
p1690
(dp1691
g15
(irule
Guard
p1692
(dp1693
g18
I00
sg19
(lp1694
sg21
I00
sg22
Nsg23
I00
sg24
S'L'
sbsg25
(irule
ConstantPhoneme
p1695
(dp1696
S'p'
Vl
sbsg31
(irule
Guard
p1697
(dp1698
g18
I00
sg19
(lp1699
(irule
FeatureMatrix
p1700
(dp1701
g28
(lp1702
(I00
g1132
tp1703
a(I01
g959
tp1704
asg22
Nsbasg21
I00
sg22
Nsg23
I00
sg24
S'R'
sbsg35
(irule
ConstantPhoneme
p1705
(dp1706
S'p'
Vo
sbsg22
Nsba(irule
Rule
p1707
(dp1708
g15
(irule
Guard
p1709
(dp1710
g18
I00
sg19
(lp1711
sg21
I00
sg22
Nsg23
I00
sg24
S'L'
sbsg25
(irule
ConstantPhoneme
p1712
(dp1713
S'p'
Vl
sbsg31
(irule
Guard
p1714
(dp1715
g18
I00
sg19
(lp1716
(irule
FeatureMatrix
p1717
(dp1718
g28
(lp1719
(I00
g1032
tp1720
a(I01
g964
tp1721
asg22
Nsbasg21
I00
sg22
Nsg23
I00
sg24
S'R'
sbsg35
(irule
ConstantPhoneme
p1722
(dp1723
S'p'
Vo
sbsg22
Nsba(irule
Rule
p1724
(dp1725
g15
(irule
Guard
p1726
(dp1727
g18
I00
sg19
(lp1728
sg21
I00
sg22
Nsg23
I00
sg24
S'L'
sbsg25
(irule
ConstantPhoneme
p1729
(dp1730
S'p'
Vl
sbsg31
(irule
Guard
p1731
(dp1732
g18
I00
sg19
(lp1733
(irule
FeatureMatrix
p1734
(dp1735
g28
(lp1736
(I00
g1065
tp1737
a(I01
g964
tp1738
asg22
Nsbasg21
I00
sg22
Nsg23
I00
sg24
S'R'
sbsg35
(irule
ConstantPhoneme
p1739
(dp1740
S'p'
Vo
sbsg22
Nsba(irule
Rule
p1741
(dp1742
g15
(irule
Guard
p1743
(dp1744
g18
I00
sg19
(lp1745
(irule
FeatureMatrix
p1746
(dp1747
g28
(lp1748
sg22
Nsbasg21
I00
sg22
Nsg23
I00
sg24
S'L'
sbsg25
(irule
ConstantPhoneme
p1749
(dp1750
S'p'
Vl
sbsg31
(irule
Guard
p1751
(dp1752
g18
I00
sg19
(lp1753
(irule
FeatureMatrix
p1754
(dp1755
g28
(lp1756
(I01
g998
tp1757
asg22
Nsbasg21
I00
sg22
Nsg23
I00
sg24
S'R'
sbsg35
(irule
ConstantPhoneme
p1758
(dp1759
S'p'
Vo
sbsg22
Nsba(irule
Rule
p1760
(dp1761
g15
(irule
Guard
p1762
(dp1763
g18
I00
sg19
(lp1764
sg21
I00
sg22
Nsg23
I00
sg24
S'L'
sbsg25
(irule
ConstantPhoneme
p1765
(dp1766
S'p'
Vl
sbsg31
(irule
Guard
p1767
(dp1768
g18
I00
sg19
(lp1769
(irule
FeatureMatrix
p1770
(dp1771
g28
(lp1772
(I00
g1065
tp1773
a(I01
g998
tp1774
asg22
Nsbasg21
I00
sg22
Nsg23
I00
sg24
S'R'
sbsg35
(irule
ConstantPhoneme
p1775
(dp1776
S'p'
Vo
sbsg22
Nsba(irule
Rule
p1777
(dp1778
g15
(irule
Guard
p1779
(dp1780
g18
I00
sg19
(lp1781
sg21
I00
sg22
Nsg23
I00
sg24
S'L'
sbsg25
(irule
ConstantPhoneme
p1782
(dp1783
S'p'
Vl
sbsg31
(irule
Guard
p1784
(dp1785
g18
I00
sg19
(lp1786
(irule
FeatureMatrix
p1787
(dp1788
g28
(lp1789
(I00
g1065
tp1790
a(I01
g964
tp1791
asg22
Nsbasg21
I00
sg22
Nsg23
I00
sg24
S'R'
sbsg35
(irule
FeatureMatrix
p1792
(dp1793
g28
(lp1794
(I01
g1117
tp1795
asg22
Nsbsg22
Nsba(irule
Rule
p1796
(dp1797
g15
(irule
Guard
p1798
(dp1799
g18
I00
sg19
(lp1800
(irule
FeatureMatrix
p1801
(dp1802
g28
(lp1803
sg22
Nsbasg21
I00
sg22
Nsg23
I00
sg24
S'L'
sbsg25
(irule
ConstantPhoneme
p1804
(dp1805
S'p'
Vl
sbsg31
(irule
Guard
p1806
(dp1807
g18
I01
sg19
(lp1808
(irule
FeatureMatrix
p1809
(dp1810
g28
(lp1811
sg22
Nsbasg21
I00
sg22
Nsg23
I00
sg24
S'R'
sbsg35
(irule
ConstantPhoneme
p1812
(dp1813
S'p'
Vo
sbsg22
Nsba(irule
Rule
p1814
(dp1815
g15
(irule
Guard
p1816
(dp1817
g18
I00
sg19
(lp1818
sg21
I00
sg22
Nsg23
I00
sg24
S'L'
sbsg25
(irule
ConstantPhoneme
p1819
(dp1820
S'p'
Vl
sbsg31
(irule
Guard
p1821
(dp1822
g18
I00
sg19
(lp1823
(irule
FeatureMatrix
p1824
(dp1825
g28
(lp1826
(I00
g1235
tp1827
a(I00
g1166
tp1828
asg22
Nsbasg21
I00
sg22
Nsg23
I00
sg24
S'R'
sbsg35
(irule
ConstantPhoneme
p1829
(dp1830
S'p'
Vo
sbsg22
Nsba(irule
Rule
p1831
(dp1832
g15
(irule
Guard
p1833
(dp1834
g18
I00
sg19
(lp1835
sg21
I00
sg22
Nsg23
I00
sg24
S'L'
sbsg25
(irule
ConstantPhoneme
p1836
(dp1837
S'p'
Vl
sbsg31
(irule
Guard
p1838
(dp1839
g18
I00
sg19
(lp1840
(irule
FeatureMatrix
p1841
(dp1842
g28
(lp1843
(I00
g1065
tp1844
a(I01
g983
tp1845
asg22
Nsbasg21
I00
sg22
Nsg23
I00
sg24
S'R'
sbsg35
(irule
ConstantPhoneme
p1846
(dp1847
S'p'
Vo
sbsg22
Nsba(irule
Rule
p1848
(dp1849
g15
(irule
Guard
p1850
(dp1851
g18
I00
sg19
(lp1852
(irule
FeatureMatrix
p1853
(dp1854
g28
(lp1855
sg22
Nsbasg21
I00
sg22
Nsg23
I00
sg24
S'L'
sbsg25
(irule
ConstantPhoneme
p1856
(dp1857
S'p'
Vl
sbsg31
(irule
Guard
p1858
(dp1859
g18
I00
sg19
(lp1860
(irule
FeatureMatrix
p1861
(dp1862
g28
(lp1863
(I00
g1166
tp1864
asg22
Nsbasg21
I00
sg22
Nsg23
I00
sg24
S'R'
sbsg35
(irule
ConstantPhoneme
p1865
(dp1866
S'p'
Vo
sbsg22
Nsba(irule
Rule
p1867
(dp1868
g15
(irule
Guard
p1869
(dp1870
g18
I00
sg19
(lp1871
sg21
I00
sg22
Nsg23
I00
sg24
S'L'
sbsg25
(irule
ConstantPhoneme
p1872
(dp1873
S'p'
Vl
sbsg31
(irule
Guard
p1874
(dp1875
g18
I00
sg19
(lp1876
(irule
FeatureMatrix
p1877
(dp1878
g28
(lp1879
(I00
g1149
tp1880
a(I00
g1235
tp1881
asg22
Nsbasg21
I00
sg22
Nsg23
I00
sg24
S'R'
sbsg35
(irule
ConstantPhoneme
p1882
(dp1883
S'p'
Vo
sbsg22
Nsba(irule
Rule
p1884
(dp1885
g15
(irule
Guard
p1886
(dp1887
g18
I00
sg19
(lp1888
(irule
FeatureMatrix
p1889
(dp1890
g28
(lp1891
(I00
g1065
tp1892
asg22
Nsbasg21
I00
sg22
Nsg23
I00
sg24
S'L'
sbsg25
(irule
ConstantPhoneme
p1893
(dp1894
S'p'
Vl
sbsg31
(irule
Guard
p1895
(dp1896
g18
I00
sg19
(lp1897
(irule
FeatureMatrix
p1898
(dp1899
g28
(lp1900
sg22
Nsbasg21
I00
sg22
Nsg23
I00
sg24
S'R'
sbsg35
(irule
ConstantPhoneme
p1901
(dp1902
S'p'
Vo
sbsg22
Nsba(irule
Rule
p1903
(dp1904
g15
(irule
Guard
p1905
(dp1906
g18
I00
sg19
(lp1907
sg21
I00
sg22
Nsg23
I00
sg24
S'L'
sbsg25
(irule
ConstantPhoneme
p1908
(dp1909
S'p'
Vl
sbsg31
(irule
Guard
p1910
(dp1911
g18
I00
sg19
(lp1912
(irule
FeatureMatrix
p1913
(dp1914
g28
(lp1915
(I01
g983
tp1916
a(I01
g998
tp1917
asg22
Nsbasg21
I00
sg22
Nsg23
I00
sg24
S'R'
sbsg35
(irule
ConstantPhoneme
p1918
(dp1919
S'p'
Vo
sbsg22
Nsba(irule
Rule
p1920
(dp1921
g15
(irule
Guard
p1922
(dp1923
g18
I00
sg19
(lp1924
sg21
I00
sg22
Nsg23
I00
sg24
S'L'
sbsg25
(irule
ConstantPhoneme
p1925
(dp1926
S'p'
Vl
sbsg31
(irule
Guard
p1927
(dp1928
g18
I01
sg19
(lp1929
(irule
FeatureMatrix
p1930
(dp1931
g28
(lp1932
(I01
g964
tp1933
asg22
Nsbasg21
I00
sg22
Nsg23
I00
sg24
S'R'
sbsg35
(irule
ConstantPhoneme
p1934
(dp1935
S'p'
Vo
sbsg22
Nsba(irule
Rule
p1936
(dp1937
g15
(irule
Guard
p1938
(dp1939
g18
I00
sg19
(lp1940
(irule
FeatureMatrix
p1941
(dp1942
g28
(lp1943
(I01
g1269
tp1944
asg22
Nsbasg21
I00
sg22
Nsg23
I00
sg24
S'L'
sbsg25
(irule
ConstantPhoneme
p1945
(dp1946
S'p'
Vl
sbsg31
(irule
Guard
p1947
(dp1948
g18
I00
sg19
(lp1949
(irule
FeatureMatrix
p1950
(dp1951
g28
(lp1952
sg22
Nsbasg21
I00
sg22
Nsg23
I00
sg24
S'R'
sbsg35
(irule
ConstantPhoneme
p1953
(dp1954
S'p'
Vo
sbsg22
Nsba(irule
Rule
p1955
(dp1956
g15
(irule
Guard
p1957
(dp1958
g18
I00
sg19
(lp1959
(irule
FeatureMatrix
p1960
(dp1961
g28
(lp1962
(I00
g1166
tp1963
asg22
Nsbasg21
I00
sg22
Nsg23
I00
sg24
S'L'
sbsg25
(irule
ConstantPhoneme
p1964
(dp1965
S'p'
Vl
sbsg31
(irule
Guard
p1966
(dp1967
g18
I00
sg19
(lp1968
(irule
FeatureMatrix
p1969
(dp1970
g28
(lp1971
sg22
Nsbasg21
I00
sg22
Nsg23
I00
sg24
S'R'
sbsg35
(irule
ConstantPhoneme
p1972
(dp1973
S'p'
Vo
sbsg22
Nsba(irule
Rule
p1974
(dp1975
g15
(irule
Guard
p1976
(dp1977
g18
I00
sg19
(lp1978
sg21
I00
sg22
Nsg23
I00
sg24
S'L'
sbsg25
(irule
ConstantPhoneme
p1979
(dp1980
S'p'
Vl
sbsg31
(irule
Guard
p1981
(dp1982
g18
I00
sg19
(lp1983
(irule
FeatureMatrix
p1984
(dp1985
g28
(lp1986
(I00
g1032
tp1987
a(I00
g1015
tp1988
asg22
Nsbasg21
I00
sg22
Nsg23
I00
sg24
S'R'
sbsg35
(irule
ConstantPhoneme
p1989
(dp1990
S'p'
Vo
sbsg22
Nsba(irule
Rule
p1991
(dp1992
g15
(irule
Guard
p1993
(dp1994
g18
I00
sg19
(lp1995
sg21
I00
sg22
Nsg23
I00
sg24
S'L'
sbsg25
(irule
ConstantPhoneme
p1996
(dp1997
S'p'
Vl
sbsg31
(irule
Guard
p1998
(dp1999
g18
I00
sg19
(lp2000
(irule
FeatureMatrix
p2001
(dp2002
g28
(lp2003
(I00
g1166
tp2004
a(I01
g998
tp2005
asg22
Nsbasg21
I00
sg22
Nsg23
I00
sg24
S'R'
sbsg35
(irule
ConstantPhoneme
p2006
(dp2007
S'p'
Vo
sbsg22
Nsba(irule
Rule
p2008
(dp2009
g15
(irule
Guard
p2010
(dp2011
g18
I00
sg19
(lp2012
sg21
I00
sg22
Nsg23
I00
sg24
S'L'
sbsg25
(irule
ConstantPhoneme
p2013
(dp2014
S'p'
Vl
sbsg31
(irule
Guard
p2015
(dp2016
g18
I00
sg19
(lp2017
(irule
FeatureMatrix
p2018
(dp2019
g28
(lp2020
(I01
g983
tp2021
a(I00
g1015
tp2022
asg22
Nsbasg21
I00
sg22
Nsg23
I00
sg24
S'R'
sbsg35
(irule
ConstantPhoneme
p2023
(dp2024
S'p'
Vo
sbsg22
Nsba(irule
Rule
p2025
(dp2026
g15
(irule
Guard
p2027
(dp2028
g18
I00
sg19
(lp2029
sg21
I00
sg22
Nsg23
I00
sg24
S'L'
sbsg25
(irule
ConstantPhoneme
p2030
(dp2031
S'p'
Vl
sbsg31
(irule
Guard
p2032
(dp2033
g18
I00
sg19
(lp2034
(irule
FeatureMatrix
p2035
(dp2036
g28
(lp2037
(I00
g1166
tp2038
a(I00
g1032
tp2039
asg22
Nsbasg21
I00
sg22
Nsg23
I00
sg24
S'R'
sbsg35
(irule
ConstantPhoneme
p2040
(dp2041
S'p'
Vo
sbsg22
Nsba(irule
Rule
p2042
(dp2043
g15
(irule
Guard
p2044
(dp2045
g18
I00
sg19
(lp2046
sg21
I00
sg22
Nsg23
I00
sg24
S'L'
sbsg25
(irule
ConstantPhoneme
p2047
(dp2048
S'p'
Vl
sbsg31
(irule
Guard
p2049
(dp2050
g18
I00
sg19
(lp2051
(irule
FeatureMatrix
p2052
(dp2053
g28
(lp2054
(I01
g1269
tp2055
a(I00
g1166
tp2056
asg22
Nsbasg21
I00
sg22
Nsg23
I00
sg24
S'R'
sbsg35
(irule
ConstantPhoneme
p2057
(dp2058
S'p'
Vo
sbsg22
Nsba(irule
Rule
p2059
(dp2060
g15
(irule
Guard
p2061
(dp2062
g18
I00
sg19
(lp2063
sg21
I00
sg22
Nsg23
I00
sg24
S'L'
sbsg25
(irule
ConstantPhoneme
p2064
(dp2065
S'p'
Vl
sbsg31
(irule
Guard
p2066
(dp2067
g18
I00
sg19
(lp2068
(irule
FeatureMatrix
p2069
(dp2070
g28
(lp2071
(I01
g964
tp2072
asg22
Nsbasg21
I00
sg22
Nsg23
I00
sg24
S'R'
sbsg35
(irule
FeatureMatrix
p2073
(dp2074
g28
(lp2075
(I01
g1117
tp2076
a(I00
g1582
tp2077
asg22
Nsbsg22
Nsba(irule
Rule
p2078
(dp2079
g15
(irule
Guard
p2080
(dp2081
g18
I00
sg19
(lp2082
sg21
I00
sg22
Nsg23
I00
sg24
S'L'
sbsg25
(irule
ConstantPhoneme
p2083
(dp2084
S'p'
Vl
sbsg31
(irule
Guard
p2085
(dp2086
g18
I00
sg19
(lp2087
(irule
FeatureMatrix
p2088
(dp2089
g28
(lp2090
(I01
g964
tp2091
a(I00
g1015
tp2092
asg22
Nsbasg21
I00
sg22
Nsg23
I00
sg24
S'R'
sbsg35
(irule
FeatureMatrix
p2093
(dp2094
g28
(lp2095
(I01
g1117
tp2096
asg22
Nsbsg22
Nsba(irule
Rule
p2097
(dp2098
g15
(irule
Guard
p2099
(dp2100
g18
I00
sg19
(lp2101
(irule
FeatureMatrix
p2102
(dp2103
g28
(lp2104
(I00
g1032
tp2105
asg22
Nsbasg21
I00
sg22
Nsg23
I00
sg24
S'L'
sbsg25
(irule
ConstantPhoneme
p2106
(dp2107
S'p'
Vl
sbsg31
(irule
Guard
p2108
(dp2109
g18
I00
sg19
(lp2110
(irule
FeatureMatrix
p2111
(dp2112
g28
(lp2113
sg22
Nsbasg21
I00
sg22
Nsg23
I00
sg24
S'R'
sbsg35
(irule
ConstantPhoneme
p2114
(dp2115
S'p'
Vo
sbsg22
Nsba(irule
Rule
p2116
(dp2117
g15
(irule
Guard
p2118
(dp2119
g18
I00
sg19
(lp2120
sg21
I00
sg22
Nsg23
I00
sg24
S'L'
sbsg25
(irule
ConstantPhoneme
p2121
(dp2122
S'p'
Vl
sbsg31
(irule
Guard
p2123
(dp2124
g18
I00
sg19
(lp2125
(irule
FeatureMatrix
p2126
(dp2127
g28
(lp2128
(I00
g1032
tp2129
a(I01
g998
tp2130
asg22
Nsbasg21
I00
sg22
Nsg23
I00
sg24
S'R'
sbsg35
(irule
ConstantPhoneme
p2131
(dp2132
S'p'
Vo
sbsg22
Nsba(irule
Rule
p2133
(dp2134
g15
(irule
Guard
p2135
(dp2136
g18
I00
sg19
(lp2137
sg21
I00
sg22
Nsg23
I00
sg24
S'L'
sbsg25
(irule
ConstantPhoneme
p2138
(dp2139
S'p'
Vl
sbsg31
(irule
Guard
p2140
(dp2141
g18
I00
sg19
(lp2142
(irule
FeatureMatrix
p2143
(dp2144
g28
(lp2145
(I01
g964
tp2146
asg22
Nsbasg21
I00
sg22
Nsg23
I00
sg24
S'R'
sbsg35
(irule
FeatureMatrix
p2147
(dp2148
g28
(lp2149
(I01
g1117
tp2150
a(I00
g959
tp2151
asg22
Nsbsg22
Nsba(irule
Rule
p2152
(dp2153
g15
(irule
Guard
p2154
(dp2155
g18
I00
sg19
(lp2156
sg21
I00
sg22
Nsg23
I00
sg24
S'L'
sbsg25
(irule
ConstantPhoneme
p2157
(dp2158
S'p'
Vl
sbsg31
(irule
Guard
p2159
(dp2160
g18
I00
sg19
(lp2161
(irule
FeatureMatrix
p2162
(dp2163
g28
(lp2164
(I00
g1132
tp2165
a(I00
g1235
tp2166
asg22
Nsbasg21
I00
sg22
Nsg23
I00
sg24
S'R'
sbsg35
(irule
ConstantPhoneme
p2167
(dp2168
S'p'
Vo
sbsg22
Nsba(irule
Rule
p2169
(dp2170
g15
(irule
Guard
p2171
(dp2172
g18
I00
sg19
(lp2173
sg21
I00
sg22
Nsg23
I00
sg24
S'L'
sbsg25
(irule
ConstantPhoneme
p2174
(dp2175
S'p'
Vl
sbsg31
(irule
Guard
p2176
(dp2177
g18
I00
sg19
(lp2178
(irule
FeatureMatrix
p2179
(dp2180
g28
(lp2181
(I00
g1235
tp2182
a(I00
g1065
tp2183
asg22
Nsbasg21
I00
sg22
Nsg23
I00
sg24
S'R'
sbsg35
(irule
ConstantPhoneme
p2184
(dp2185
S'p'
Vo
sbsg22
Nsba(irule
Rule
p2186
(dp2187
g15
(irule
Guard
p2188
(dp2189
g18
I00
sg19
(lp2190
sg21
I00
sg22
Nsg23
I00
sg24
S'L'
sbsg25
(irule
ConstantPhoneme
p2191
(dp2192
S'p'
Vl
sbsg31
(irule
Guard
p2193
(dp2194
g18
I00
sg19
(lp2195
(irule
FeatureMatrix
p2196
(dp2197
g28
(lp2198
(I00
g1166
tp2199
a(I01
g964
tp2200
asg22
Nsbasg21
I00
sg22
Nsg23
I00
sg24
S'R'
sbsg35
(irule
ConstantPhoneme
p2201
(dp2202
S'p'
Vo
sbsg22
Nsba(irule
Rule
p2203
(dp2204
g15
(irule
Guard
p2205
(dp2206
g18
I00
sg19
(lp2207
sg21
I00
sg22
Nsg23
I00
sg24
S'L'
sbsg25
(irule
ConstantPhoneme
p2208
(dp2209
S'p'
Vl
sbsg31
(irule
Guard
p2210
(dp2211
g18
I00
sg19
(lp2212
(irule
FeatureMatrix
p2213
(dp2214
g28
(lp2215
(I00
g1149
tp2216
a(I00
g1032
tp2217
asg22
Nsbasg21
I00
sg22
Nsg23
I00
sg24
S'R'
sbsg35
(irule
ConstantPhoneme
p2218
(dp2219
S'p'
Vo
sbsg22
Nsba(irule
Rule
p2220
(dp2221
g15
(irule
Guard
p2222
(dp2223
g18
I00
sg19
(lp2224
sg21
I00
sg22
Nsg23
I00
sg24
S'L'
sbsg25
(irule
ConstantPhoneme
p2225
(dp2226
S'p'
Vl
sbsg31
(irule
Guard
p2227
(dp2228
g18
I00
sg19
(lp2229
(irule
FeatureMatrix
p2230
(dp2231
g28
(lp2232
(I01
g964
tp2233
asg22
Nsbasg21
I00
sg22
Nsg23
I00
sg24
S'R'
sbsg35
(irule
FeatureMatrix
p2234
(dp2235
g28
(lp2236
(I01
g1117
tp2237
a(I00
g1149
tp2238
asg22
Nsbsg22
Nsba(irule
Rule
p2239
(dp2240
g15
(irule
Guard
p2241
(dp2242
g18
I00
sg19
(lp2243
(irule
FeatureMatrix
p2244
(dp2245
g28
(lp2246
sg22
Nsbasg21
I00
sg22
Nsg23
I00
sg24
S'L'
sbsg25
(irule
ConstantPhoneme
p2247
(dp2248
S'p'
Vl
sbsg31
(irule
Guard
p2249
(dp2250
g18
I00
sg19
(lp2251
(irule
FeatureMatrix
p2252
(dp2253
g28
(lp2254
(I00
g1015
tp2255
asg22
Nsbasg21
I00
sg22
Nsg23
I00
sg24
S'R'
sbsg35
(irule
ConstantPhoneme
p2256
(dp2257
S'p'
Vo
sbsg22
Nsba(irule
Rule
p2258
(dp2259
g15
(irule
Guard
p2260
(dp2261
g18
I00
sg19
(lp2262
sg21
I00
sg22
Nsg23
I00
sg24
S'L'
sbsg25
(irule
ConstantPhoneme
p2263
(dp2264
S'p'
Vl
sbsg31
(irule
Guard
p2265
(dp2266
g18
I00
sg19
(lp2267
(irule
FeatureMatrix
p2268
(dp2269
g28
(lp2270
(I00
g1166
tp2271
a(I00
g1065
tp2272
asg22
Nsbasg21
I00
sg22
Nsg23
I00
sg24
S'R'
sbsg35
(irule
ConstantPhoneme
p2273
(dp2274
S'p'
Vo
sbsg22
Nsba(irule
Rule
p2275
(dp2276
g15
(irule
Guard
p2277
(dp2278
g18
I00
sg19
(lp2279
sg21
I00
sg22
Nsg23
I00
sg24
S'L'
sbsg25
(irule
ConstantPhoneme
p2280
(dp2281
S'p'
Vl
sbsg31
(irule
Guard
p2282
(dp2283
g18
I00
sg19
(lp2284
(irule
FeatureMatrix
p2285
(dp2286
g28
(lp2287
(I00
g1252
tp2288
a(I00
g1149
tp2289
asg22
Nsbasg21
I00
sg22
Nsg23
I00
sg24
S'R'
sbsg35
(irule
ConstantPhoneme
p2290
(dp2291
S'p'
Vo
sbsg22
Nsba(irule
Rule
p2292
(dp2293
g15
(irule
Guard
p2294
(dp2295
g18
I00
sg19
(lp2296
sg21
I00
sg22
Nsg23
I00
sg24
S'L'
sbsg25
(irule
ConstantPhoneme
p2297
(dp2298
S'p'
Vl
sbsg31
(irule
Guard
p2299
(dp2300
g18
I00
sg19
(lp2301
(irule
FeatureMatrix
p2302
(dp2303
g28
(lp2304
(I01
g964
tp2305
asg22
Nsbasg21
I00
sg22
Nsg23
I00
sg24
S'R'
sbsg35
(irule
FeatureMatrix
p2306
(dp2307
g28
(lp2308
(I01
g1117
tp2309
a(I00
g1252
tp2310
asg22
Nsbsg22
Nsba(irule
Rule
p2311
(dp2312
g15
(irule
Guard
p2313
(dp2314
g18
I00
sg19
(lp2315
(irule
FeatureMatrix
p2316
(dp2317
g28
(lp2318
(I01
g964
tp2319
asg22
Nsbasg21
I00
sg22
Nsg23
I00
sg24
S'L'
sbsg25
(irule
ConstantPhoneme
p2320
(dp2321
S'p'
Vl
sbsg31
(irule
Guard
p2322
(dp2323
g18
I00
sg19
(lp2324
(irule
FeatureMatrix
p2325
(dp2326
g28
(lp2327
sg22
Nsbasg21
I00
sg22
Nsg23
I00
sg24
S'R'
sbsg35
(irule
ConstantPhoneme
p2328
(dp2329
S'p'
Vo
sbsg22
Nsba(irule
Rule
p2330
(dp2331
g15
(irule
Guard
p2332
(dp2333
g18
I00
sg19
(lp2334
(irule
FeatureMatrix
p2335
(dp2336
g28
(lp2337
(I01
g983
tp2338
asg22
Nsbasg21
I00
sg22
Nsg23
I00
sg24
S'L'
sbsg25
(irule
ConstantPhoneme
p2339
(dp2340
S'p'
Vl
sbsg31
(irule
Guard
p2341
(dp2342
g18
I00
sg19
(lp2343
(irule
FeatureMatrix
p2344
(dp2345
g28
(lp2346
sg22
Nsbasg21
I00
sg22
Nsg23
I00
sg24
S'R'
sbsg35
(irule
ConstantPhoneme
p2347
(dp2348
S'p'
Vo
sbsg22
Nsba(irule
Rule
p2349
(dp2350
g15
(irule
Guard
p2351
(dp2352
g18
I00
sg19
(lp2353
(irule
FeatureMatrix
p2354
(dp2355
g28
(lp2356
sg22
Nsba(irule
FeatureMatrix
p2357
(dp2358
g28
(lp2359
sg22
Nsbasg21
I00
sg22
Nsg23
I00
sg24
S'L'
sbsg25
(irule
ConstantPhoneme
p2360
(dp2361
S'p'
Vl
sbsg31
(irule
Guard
p2362
(dp2363
g18
I00
sg19
(lp2364
(irule
FeatureMatrix
p2365
(dp2366
g28
(lp2367
sg22
Nsbasg21
I00
sg22
Nsg23
I00
sg24
S'R'
sbsg35
(irule
ConstantPhoneme
p2368
(dp2369
S'p'
Vo
sbsg22
Nsba(irule
Rule
p2370
(dp2371
g15
(irule
Guard
p2372
(dp2373
g18
I00
sg19
(lp2374
sg21
I00
sg22
Nsg23
I00
sg24
S'L'
sbsg25
(irule
ConstantPhoneme
p2375
(dp2376
S'p'
Vl
sbsg31
(irule
Guard
p2377
(dp2378
g18
I01
sg19
(lp2379
(irule
FeatureMatrix
p2380
(dp2381
g28
(lp2382
(I01
g1183
tp2383
asg22
Nsbasg21
I00
sg22
Nsg23
I00
sg24
S'R'
sbsg35
(irule
ConstantPhoneme
p2384
(dp2385
S'p'
Vo
sbsg22
Nsba(irule
Rule
p2386
(dp2387
g15
(irule
Guard
p2388
(dp2389
g18
I00
sg19
(lp2390
sg21
I00
sg22
Nsg23
I00
sg24
S'L'
sbsg25
(irule
ConstantPhoneme
p2391
(dp2392
S'p'
Vl
sbsg31
(irule
Guard
p2393
(dp2394
g18
I00
sg19
(lp2395
(irule
FeatureMatrix
p2396
(dp2397
g28
(lp2398
(I00
g1149
tp2399
a(I00
g1065
tp2400
asg22
Nsbasg21
I00
sg22
Nsg23
I00
sg24
S'R'
sbsg35
(irule
ConstantPhoneme
p2401
(dp2402
S'p'
Vo
sbsg22
Nsba(irule
Rule
p2403
(dp2404
g15
(irule
Guard
p2405
(dp2406
g18
I00
sg19
(lp2407
sg21
I00
sg22
Nsg23
I00
sg24
S'L'
sbsg25
(irule
ConstantPhoneme
p2408
(dp2409
S'p'
Vl
sbsg31
(irule
Guard
p2410
(dp2411
g18
I00
sg19
(lp2412
(irule
FeatureMatrix
p2413
(dp2414
g28
(lp2415
(I01
g1183
tp2416
a(I00
g1032
tp2417
asg22
Nsbasg21
I00
sg22
Nsg23
I00
sg24
S'R'
sbsg35
(irule
ConstantPhoneme
p2418
(dp2419
S'p'
Vo
sbsg22
Nsba(irule
Rule
p2420
(dp2421
g15
(irule
Guard
p2422
(dp2423
g18
I00
sg19
(lp2424
sg21
I00
sg22
Nsg23
I00
sg24
S'L'
sbsg25
(irule
ConstantPhoneme
p2425
(dp2426
S'p'
Vl
sbsg31
(irule
Guard
p2427
(dp2428
g18
I01
sg19
(lp2429
(irule
FeatureMatrix
p2430
(dp2431
g28
(lp2432
(I01
g983
tp2433
asg22
Nsbasg21
I00
sg22
Nsg23
I00
sg24
S'R'
sbsg35
(irule
FeatureMatrix
p2434
(dp2435
g28
(lp2436
(I01
g1117
tp2437
asg22
Nsbsg22
Nsba(irule
Rule
p2438
(dp2439
g15
(irule
Guard
p2440
(dp2441
g18
I00
sg19
(lp2442
sg21
I00
sg22
Nsg23
I00
sg24
S'L'
sbsg25
(irule
ConstantPhoneme
p2443
(dp2444
S'p'
Vl
sbsg31
(irule
Guard
p2445
(dp2446
g18
I00
sg19
(lp2447
(irule
FeatureMatrix
p2448
(dp2449
g28
(lp2450
(I01
g1183
tp2451
a(I01
g998
tp2452
asg22
Nsbasg21
I00
sg22
Nsg23
I00
sg24
S'R'
sbsg35
(irule
ConstantPhoneme
p2453
(dp2454
S'p'
Vo
sbsg22
Nsba(irule
Rule
p2455
(dp2456
g15
(irule
Guard
p2457
(dp2458
g18
I00
sg19
(lp2459
(irule
FeatureMatrix
p2460
(dp2461
g28
(lp2462
sg22
Nsbasg21
I00
sg22
Nsg23
I00
sg24
S'L'
sbsg25
(irule
ConstantPhoneme
p2463
(dp2464
S'p'
Vl
sbsg31
(irule
Guard
p2465
(dp2466
g18
I00
sg19
(lp2467
(irule
FeatureMatrix
p2468
(dp2469
g28
(lp2470
(I00
g1132
tp2471
asg22
Nsbasg21
I00
sg22
Nsg23
I00
sg24
S'R'
sbsg35
(irule
ConstantPhoneme
p2472
(dp2473
S'p'
Vo
sbsg22
Nsba(irule
Rule
p2474
(dp2475
g15
(irule
Guard
p2476
(dp2477
g18
I00
sg19
(lp2478
sg21
I00
sg22
Nsg23
I00
sg24
S'L'
sbsg25
(irule
ConstantPhoneme
p2479
(dp2480
S'p'
Vl
sbsg31
(irule
Guard
p2481
(dp2482
g18
I01
sg19
(lp2483
(irule
FeatureMatrix
p2484
(dp2485
g28
(lp2486
(I00
g1166
tp2487
asg22
Nsbasg21
I00
sg22
Nsg23
I00
sg24
S'R'
sbsg35
(irule
ConstantPhoneme
p2488
(dp2489
S'p'
Vo
sbsg22
Nsba(irule
Rule
p2490
(dp2491
g15
(irule
Guard
p2492
(dp2493
g18
I00
sg19
(lp2494
(irule
FeatureMatrix
p2495
(dp2496
g28
(lp2497
(I01
g964
tp2498
asg22
Nsbasg21
I00
sg22
Nsg23
I00
sg24
S'L'
sbsg25
(irule
ConstantPhoneme
p2499
(dp2500
S'p'
Vl
sbsg31
(irule
Guard
p2501
(dp2502
g18
I00
sg19
(lp2503
(irule
FeatureMatrix
p2504
(dp2505
g28
(lp2506
sg22
Nsbasg21
I00
sg22
Nsg23
I00
sg24
S'R'
sbsg35
(irule
FeatureMatrix
p2507
(dp2508
g28
(lp2509
(I01
g964
tp2510
asg22
Nsbsg22
Nsba(irule
Rule
p2511
(dp2512
g15
(irule
Guard
p2513
(dp2514
g18
I00
sg19
(lp2515
sg21
I00
sg22
Nsg23
I00
sg24
S'L'
sbsg25
(irule
ConstantPhoneme
p2516
(dp2517
S'p'
Vl
sbsg31
(irule
Guard
p2518
(dp2519
g18
I00
sg19
(lp2520
(irule
FeatureMatrix
p2521
(dp2522
g28
(lp2523
(I00
g1132
tp2524
a(I00
g1166
tp2525
asg22
Nsbasg21
I00
sg22
Nsg23
I00
sg24
S'R'
sbsg35
(irule
ConstantPhoneme
p2526
(dp2527
S'p'
Vo
sbsg22
Nsba(irule
Rule
p2528
(dp2529
g15
(irule
Guard
p2530
(dp2531
g18
I00
sg19
(lp2532
sg21
I00
sg22
Nsg23
I00
sg24
S'L'
sbsg25
(irule
ConstantPhoneme
p2533
(dp2534
S'p'
Vl
sbsg31
(irule
Guard
p2535
(dp2536
g18
I01
sg19
(lp2537
(irule
FeatureMatrix
p2538
(dp2539
g28
(lp2540
(I00
g1235
tp2541
asg22
Nsbasg21
I00
sg22
Nsg23
I00
sg24
S'R'
sbsg35
(irule
ConstantPhoneme
p2542
(dp2543
S'p'
Vo
sbsg22
Nsba(irule
Rule
p2544
(dp2545
g15
(irule
Guard
p2546
(dp2547
g18
I00
sg19
(lp2548
(irule
FeatureMatrix
p2549
(dp2550
g28
(lp2551
sg22
Nsbasg21
I00
sg22
Nsg23
I00
sg24
S'L'
sbsg25
(irule
ConstantPhoneme
p2552
(dp2553
S'p'
Vl
sbsg31
(irule
Guard
p2554
(dp2555
g18
I00
sg19
(lp2556
(irule
FeatureMatrix
p2557
(dp2558
g28
(lp2559
(I01
g983
tp2560
asg22
Nsbasg21
I00
sg22
Nsg23
I00
sg24
S'R'
sbsg35
(irule
ConstantPhoneme
p2561
(dp2562
S'p'
Vo
sbsg22
Nsba(irule
Rule
p2563
(dp2564
g15
(irule
Guard
p2565
(dp2566
g18
I00
sg19
(lp2567
sg21
I00
sg22
Nsg23
I00
sg24
S'L'
sbsg25
(irule
ConstantPhoneme
p2568
(dp2569
S'p'
Vl
sbsg31
(irule
Guard
p2570
(dp2571
g18
I00
sg19
(lp2572
(irule
FeatureMatrix
p2573
(dp2574
g28
(lp2575
(I00
g1032
tp2576
a(I01
g983
tp2577
asg22
Nsbasg21
I00
sg22
Nsg23
I00
sg24
S'R'
sbsg35
(irule
ConstantPhoneme
p2578
(dp2579
S'p'
Vo
sbsg22
Nsba(irule
Rule
p2580
(dp2581
g15
(irule
Guard
p2582
(dp2583
g18
I00
sg19
(lp2584
sg21
I00
sg22
Nsg23
I00
sg24
S'L'
sbsg25
(irule
ConstantPhoneme
p2585
(dp2586
S'p'
Vl
sbsg31
(irule
Guard
p2587
(dp2588
g18
I00
sg19
(lp2589
(irule
FeatureMatrix
p2590
(dp2591
g28
(lp2592
(I00
g1132
tp2593
a(I00
g1252
tp2594
asg22
Nsbasg21
I00
sg22
Nsg23
I00
sg24
S'R'
sbsg35
(irule
ConstantPhoneme
p2595
(dp2596
S'p'
Vo
sbsg22
Nsba(irule
Rule
p2597
(dp2598
g15
(irule
Guard
p2599
(dp2600
g18
I00
sg19
(lp2601
sg21
I00
sg22
Nsg23
I00
sg24
S'L'
sbsg25
(irule
ConstantPhoneme
p2602
(dp2603
S'p'
Vl
sbsg31
(irule
Guard
p2604
(dp2605
g18
I00
sg19
(lp2606
(irule
FeatureMatrix
p2607
(dp2608
g28
(lp2609
(I00
g1252
tp2610
a(I00
g1235
tp2611
asg22
Nsbasg21
I00
sg22
Nsg23
I00
sg24
S'R'
sbsg35
(irule
ConstantPhoneme
p2612
(dp2613
S'p'
Vo
sbsg22
Nsba(irule
Rule
p2614
(dp2615
g15
(irule
Guard
p2616
(dp2617
g18
I00
sg19
(lp2618
(irule
FeatureMatrix
p2619
(dp2620
g28
(lp2621
(I00
g1117
tp2622
asg22
Nsbasg21
I00
sg22
Nsg23
I00
sg24
S'L'
sbsg25
(irule
ConstantPhoneme
p2623
(dp2624
S'p'
Vl
sbsg31
(irule
Guard
p2625
(dp2626
g18
I00
sg19
(lp2627
(irule
FeatureMatrix
p2628
(dp2629
g28
(lp2630
sg22
Nsbasg21
I00
sg22
Nsg23
I00
sg24
S'R'
sbsg35
(irule
ConstantPhoneme
p2631
(dp2632
S'p'
Vo
sbsg22
Nsba(irule
Rule
p2633
(dp2634
g15
(irule
Guard
p2635
(dp2636
g18
I00
sg19
(lp2637
sg21
I00
sg22
Nsg23
I00
sg24
S'L'
sbsg25
(irule
ConstantPhoneme
p2638
(dp2639
S'p'
Vl
sbsg31
(irule
Guard
p2640
(dp2641
g18
I00
sg19
(lp2642
(irule
FeatureMatrix
p2643
(dp2644
g28
(lp2645
(I01
g959
tp2646
a(I01
g998
tp2647
asg22
Nsbasg21
I00
sg22
Nsg23
I00
sg24
S'R'
sbsg35
(irule
ConstantPhoneme
p2648
(dp2649
S'p'
Vo
sbsg22
Nsba(irule
Rule
p2650
(dp2651
g15
(irule
Guard
p2652
(dp2653
g18
I00
sg19
(lp2654
sg21
I00
sg22
Nsg23
I00
sg24
S'L'
sbsg25
(irule
ConstantPhoneme
p2655
(dp2656
S'p'
Vl
sbsg31
(irule
Guard
p2657
(dp2658
g18
I00
sg19
(lp2659
(irule
FeatureMatrix
p2660
(dp2661
g28
(lp2662
(I00
g1132
tp2663
a(I00
g1149
tp2664
asg22
Nsbasg21
I00
sg22
Nsg23
I00
sg24
S'R'
sbsg35
(irule
ConstantPhoneme
p2665
(dp2666
S'p'
Vo
sbsg22
Nsba(irule
Rule
p2667
(dp2668
g15
(irule
Guard
p2669
(dp2670
g18
I00
sg19
(lp2671
sg21
I00
sg22
Nsg23
I00
sg24
S'L'
sbsg25
(irule
ConstantPhoneme
p2672
(dp2673
S'p'
Vl
sbsg31
(irule
Guard
p2674
(dp2675
g18
I00
sg19
(lp2676
(irule
FeatureMatrix
p2677
(dp2678
g28
(lp2679
(I00
g1235
tp2680
a(I01
g964
tp2681
asg22
Nsbasg21
I00
sg22
Nsg23
I00
sg24
S'R'
sbsg35
(irule
ConstantPhoneme
p2682
(dp2683
S'p'
Vo
sbsg22
Nsbaa(lp2684
(irule
Rule
p2685
(dp2686
g15
(irule
Guard
p2687
(dp2688
g18
I00
sg19
(lp2689
(irule
FeatureMatrix
p2690
(dp2691
g28
(lp2692
sg22
V[  ]
p2693
sba(irule
ConstantPhoneme
p2694
(dp2695
S'p'
Va
sbasg21
I00
sg22
Va [  ]
p2696
sg23
I00
sg24
S'L'
sbsg25
(irule
FeatureMatrix
p2697
(dp2698
g28
(lp2699
(I00
S'highTone'
p2700
tp2701
asg22
V[ -highTone ]
p2702
sbsg31
(irule
Guard
p2703
(dp2704
g18
I00
sg19
(lp2705
sg21
I00
sg22
V
sg23
I00
sg24
S'R'
sbsg35
(irule
FeatureMatrix
p2706
(dp2707
g28
(lp2708
sg22
V[  ]
p2709
sbsg22
V[  ] ---> [ -highTone ] / a [  ] _ 
p2710
sba(irule
Rule
p2711
(dp2712
g15
(irule
Guard
p2713
(dp2714
g18
I00
sg19
(lp2715
(irule
FeatureMatrix
p2716
(dp2717
g28
(lp2718
(I00
S'sibilant'
p2719
tp2720
asg22
Nsba(irule
ConstantPhoneme
p2721
(dp2722
S'p'
Va
sbasg21
I00
sg22
Nsg23
I00
sg24
S'L'
sbsg25
(irule
FeatureMatrix
p2723
(dp2724
g28
(lp2725
(I00
g2700
tp2726
asg22
Nsbsg31
(irule
Guard
p2727
(dp2728
g18
I00
sg19
(lp2729
sg21
I00
sg22
Nsg23
I00
sg24
S'R'
sbsg35
(irule
FeatureMatrix
p2730
(dp2731
g28
(lp2732
sg22
Nsbsg22
Nsba(irule
Rule
p2733
(dp2734
g15
(irule
Guard
p2735
(dp2736
g18
I00
sg19
(lp2737
(irule
FeatureMatrix
p2738
(dp2739
g28
(lp2740
(I00
S'glide'
p2741
tp2742
asg22
Nsba(irule
ConstantPhoneme
p2743
(dp2744
S'p'
Va
sbasg21
I00
sg22
Nsg23
I00
sg24
S'L'
sbsg25
(irule
FeatureMatrix
p2745
(dp2746
g28
(lp2747
(I00
g2700
tp2748
asg22
Nsbsg31
(irule
Guard
p2749
(dp2750
g18
I00
sg19
(lp2751
sg21
I00
sg22
Nsg23
I00
sg24
S'R'
sbsg35
(irule
FeatureMatrix
p2752
(dp2753
g28
(lp2754
sg22
Nsbsg22
Nsba(irule
Rule
p2755
(dp2756
g15
(irule
Guard
p2757
(dp2758
g18
I00
sg19
(lp2759
(irule
FeatureMatrix
p2760
(dp2761
g28
(lp2762
sg22
Nsba(irule
ConstantPhoneme
p2763
(dp2764
S'p'
Va
sbasg21
I00
sg22
Nsg23
I00
sg24
S'L'
sbsg25
(irule
FeatureMatrix
p2765
(dp2766
g28
(lp2767
(I00
g2700
tp2768
a(I01
S'voice'
p2769
tp2770
asg22
Nsbsg31
(irule
Guard
p2771
(dp2772
g18
I00
sg19
(lp2773
sg21
I00
sg22
Nsg23
I00
sg24
S'R'
sbsg35
(irule
FeatureMatrix
p2774
(dp2775
g28
(lp2776
sg22
Nsbsg22
Nsba(irule
Rule
p2777
(dp2778
g15
(irule
Guard
p2779
(dp2780
g18
I00
sg19
(lp2781
(irule
FeatureMatrix
p2782
(dp2783
g28
(lp2784
sg22
Nsba(irule
ConstantPhoneme
p2785
(dp2786
S'p'
Va
sbasg21
I00
sg22
Nsg23
I00
sg24
S'L'
sbsg25
(irule
FeatureMatrix
p2787
(dp2788
g28
(lp2789
(I00
g2700
tp2790
a(I00
S'palletized'
p2791
tp2792
asg22
Nsbsg31
(irule
Guard
p2793
(dp2794
g18
I00
sg19
(lp2795
sg21
I00
sg22
Nsg23
I00
sg24
S'R'
sbsg35
(irule
FeatureMatrix
p2796
(dp2797
g28
(lp2798
sg22
Nsbsg22
Nsba(irule
Rule
p2799
(dp2800
g15
(irule
Guard
p2801
(dp2802
g18
I00
sg19
(lp2803
(irule
FeatureMatrix
p2804
(dp2805
g28
(lp2806
sg22
Nsba(irule
FeatureMatrix
p2807
(dp2808
g28
(lp2809
(I00
g2700
tp2810
asg22
Nsbasg21
I00
sg22
Nsg23
I00
sg24
S'L'
sbsg25
(irule
FeatureMatrix
p2811
(dp2812
g28
(lp2813
(I00
g2700
tp2814
asg22
Nsbsg31
(irule
Guard
p2815
(dp2816
g18
I01
sg19
(lp2817
sg21
I00
sg22
Nsg23
I00
sg24
S'R'
sbsg35
(irule
FeatureMatrix
p2818
(dp2819
g28
(lp2820
sg22
Nsbsg22
Nsba(irule
Rule
p2821
(dp2822
g15
(irule
Guard
p2823
(dp2824
g18
I00
sg19
(lp2825
(irule
FeatureMatrix
p2826
(dp2827
g28
(lp2828
sg22
Nsba(irule
FeatureMatrix
p2829
(dp2830
g28
(lp2831
(I00
g2700
tp2832
a(I01
S'low'
p2833
tp2834
asg22
Nsbasg21
I00
sg22
Nsg23
I00
sg24
S'L'
sbsg25
(irule
FeatureMatrix
p2835
(dp2836
g28
(lp2837
(I00
g2700
tp2838
asg22
Nsbsg31
(irule
Guard
p2839
(dp2840
g18
I00
sg19
(lp2841
sg21
I00
sg22
Nsg23
I00
sg24
S'R'
sbsg35
(irule
FeatureMatrix
p2842
(dp2843
g28
(lp2844
sg22
Nsbsg22
Nsba(irule
Rule
p2845
(dp2846
g15
(irule
Guard
p2847
(dp2848
g18
I00
sg19
(lp2849
(irule
FeatureMatrix
p2850
(dp2851
g28
(lp2852
(I00
S'high'
p2853
tp2854
asg22
Nsba(irule
ConstantPhoneme
p2855
(dp2856
S'p'
Va
sbasg21
I00
sg22
Nsg23
I00
sg24
S'L'
sbsg25
(irule
FeatureMatrix
p2857
(dp2858
g28
(lp2859
(I00
g2700
tp2860
asg22
Nsbsg31
(irule
Guard
p2861
(dp2862
g18
I00
sg19
(lp2863
sg21
I00
sg22
Nsg23
I00
sg24
S'R'
sbsg35
(irule
FeatureMatrix
p2864
(dp2865
g28
(lp2866
sg22
Nsbsg22
Nsba(irule
Rule
p2867
(dp2868
g15
(irule
Guard
p2869
(dp2870
g18
I00
sg19
(lp2871
(irule
FeatureMatrix
p2872
(dp2873
g28
(lp2874
sg22
Nsba(irule
ConstantPhoneme
p2875
(dp2876
S'p'
Va
sbasg21
I00
sg22
Nsg23
I00
sg24
S'L'
sbsg25
(irule
FeatureMatrix
p2877
(dp2878
g28
(lp2879
(I00
g2700
tp2880
asg22
Nsbsg31
(irule
Guard
p2881
(dp2882
g18
I01
sg19
(lp2883
sg21
I00
sg22
Nsg23
I00
sg24
S'R'
sbsg35
(irule
FeatureMatrix
p2884
(dp2885
g28
(lp2886
sg22
Nsbsg22
Nsba(irule
Rule
p2887
(dp2888
g15
(irule
Guard
p2889
(dp2890
g18
I00
sg19
(lp2891
(irule
FeatureMatrix
p2892
(dp2893
g28
(lp2894
(I00
g2833
tp2895
asg22
Nsba(irule
ConstantPhoneme
p2896
(dp2897
S'p'
Va
sbasg21
I00
sg22
Nsg23
I00
sg24
S'L'
sbsg25
(irule
FeatureMatrix
p2898
(dp2899
g28
(lp2900
(I00
g2700
tp2901
asg22
Nsbsg31
(irule
Guard
p2902
(dp2903
g18
I00
sg19
(lp2904
sg21
I00
sg22
Nsg23
I00
sg24
S'R'
sbsg35
(irule
FeatureMatrix
p2905
(dp2906
g28
(lp2907
sg22
Nsbsg22
Nsba(irule
Rule
p2908
(dp2909
g15
(irule
Guard
p2910
(dp2911
g18
I00
sg19
(lp2912
(irule
FeatureMatrix
p2913
(dp2914
g28
(lp2915
sg22
Nsba(irule
ConstantPhoneme
p2916
(dp2917
S'p'
Va
sbasg21
I00
sg22
Nsg23
I00
sg24
S'L'
sbsg25
(irule
FeatureMatrix
p2918
(dp2919
g28
(lp2920
(I00
S'anterior'
p2921
tp2922
a(I00
g2700
tp2923
asg22
Nsbsg31
(irule
Guard
p2924
(dp2925
g18
I00
sg19
(lp2926
sg21
I00
sg22
Nsg23
I00
sg24
S'R'
sbsg35
(irule
FeatureMatrix
p2927
(dp2928
g28
(lp2929
sg22
Nsbsg22
Nsba(irule
Rule
p2930
(dp2931
g15
(irule
Guard
p2932
(dp2933
g18
I00
sg19
(lp2934
(irule
FeatureMatrix
p2935
(dp2936
g28
(lp2937
sg22
Nsba(irule
ConstantPhoneme
p2938
(dp2939
S'p'
Va
sbasg21
I00
sg22
Nsg23
I00
sg24
S'L'
sbsg25
(irule
FeatureMatrix
p2940
(dp2941
g28
(lp2942
(I00
g2700
tp2943
asg22
Nsbsg31
(irule
Guard
p2944
(dp2945
g18
I00
sg19
(lp2946
sg21
I00
sg22
Nsg23
I00
sg24
S'R'
sbsg35
(irule
FeatureMatrix
p2947
(dp2948
g28
(lp2949
(I01
g2769
tp2950
asg22
Nsbsg22
Nsba(irule
Rule
p2951
(dp2952
g15
(irule
Guard
p2953
(dp2954
g18
I00
sg19
(lp2955
(irule
FeatureMatrix
p2956
(dp2957
g28
(lp2958
sg22
Nsba(irule
ConstantPhoneme
p2959
(dp2960
S'p'
Va
sbasg21
I00
sg22
Nsg23
I00
sg24
S'L'
sbsg25
(irule
FeatureMatrix
p2961
(dp2962
g28
(lp2963
(I00
g2700
tp2964
a(I00
g2719
tp2965
asg22
Nsbsg31
(irule
Guard
p2966
(dp2967
g18
I00
sg19
(lp2968
sg21
I00
sg22
Nsg23
I00
sg24
S'R'
sbsg35
(irule
FeatureMatrix
p2969
(dp2970
g28
(lp2971
sg22
Nsbsg22
Nsba(irule
Rule
p2972
(dp2973
g15
(irule
Guard
p2974
(dp2975
g18
I00
sg19
(lp2976
(irule
FeatureMatrix
p2977
(dp2978
g28
(lp2979
sg22
Nsba(irule
ConstantPhoneme
p2980
(dp2981
S'p'
Va
sbasg21
I00
sg22
Nsg23
I00
sg24
S'L'
sbsg25
(irule
FeatureMatrix
p2982
(dp2983
g28
(lp2984
(I00
g2700
tp2985
asg22
Nsbsg31
(irule
Guard
p2986
(dp2987
g18
I00
sg19
(lp2988
sg21
I00
sg22
Nsg23
I00
sg24
S'R'
sbsg35
(irule
FeatureMatrix
p2989
(dp2990
g28
(lp2991
(I00
g2719
tp2992
asg22
Nsbsg22
Nsba(irule
Rule
p2993
(dp2994
g15
(irule
Guard
p2995
(dp2996
g18
I00
sg19
(lp2997
(irule
FeatureMatrix
p2998
(dp2999
g28
(lp3000
sg22
Nsba(irule
ConstantPhoneme
p3001
(dp3002
S'p'
Va
sbasg21
I00
sg22
Nsg23
I01
sg24
S'L'
sbsg25
(irule
FeatureMatrix
p3003
(dp3004
g28
(lp3005
(I00
g2700
tp3006
asg22
Nsbsg31
(irule
Guard
p3007
(dp3008
g18
I00
sg19
(lp3009
sg21
I00
sg22
Nsg23
I00
sg24
S'R'
sbsg35
(irule
FeatureMatrix
p3010
(dp3011
g28
(lp3012
sg22
Nsbsg22
Nsba(irule
Rule
p3013
(dp3014
g15
(irule
Guard
p3015
(dp3016
g18
I00
sg19
(lp3017
(irule
FeatureMatrix
p3018
(dp3019
g28
(lp3020
(I00
S'vowel'
p3021
tp3022
asg22
Nsba(irule
ConstantPhoneme
p3023
(dp3024
S'p'
Va
sbasg21
I00
sg22
Nsg23
I00
sg24
S'L'
sbsg25
(irule
FeatureMatrix
p3025
(dp3026
g28
(lp3027
(I00
g2700
tp3028
asg22
Nsbsg31
(irule
Guard
p3029
(dp3030
g18
I00
sg19
(lp3031
sg21
I00
sg22
Nsg23
I00
sg24
S'R'
sbsg35
(irule
FeatureMatrix
p3032
(dp3033
g28
(lp3034
sg22
Nsbsg22
Nsba(irule
Rule
p3035
(dp3036
g15
(irule
Guard
p3037
(dp3038
g18
I00
sg19
(lp3039
(irule
FeatureMatrix
p3040
(dp3041
g28
(lp3042
sg22
Nsba(irule
ConstantPhoneme
p3043
(dp3044
S'p'
Va
sbasg21
I00
sg22
Nsg23
I00
sg24
S'L'
sbsg25
(irule
FeatureMatrix
p3045
(dp3046
g28
(lp3047
(I00
g2700
tp3048
a(I01
g3021
tp3049
asg22
Nsbsg31
(irule
Guard
p3050
(dp3051
g18
I00
sg19
(lp3052
sg21
I00
sg22
Nsg23
I00
sg24
S'R'
sbsg35
(irule
FeatureMatrix
p3053
(dp3054
g28
(lp3055
sg22
Nsbsg22
Nsba(irule
Rule
p3056
(dp3057
g15
(irule
Guard
p3058
(dp3059
g18
I00
sg19
(lp3060
(irule
FeatureMatrix
p3061
(dp3062
g28
(lp3063
(I00
S'tense'
p3064
tp3065
asg22
Nsba(irule
ConstantPhoneme
p3066
(dp3067
S'p'
Va
sbasg21
I00
sg22
Nsg23
I00
sg24
S'L'
sbsg25
(irule
FeatureMatrix
p3068
(dp3069
g28
(lp3070
(I00
g2700
tp3071
asg22
Nsbsg31
(irule
Guard
p3072
(dp3073
g18
I00
sg19
(lp3074
sg21
I00
sg22
Nsg23
I00
sg24
S'R'
sbsg35
(irule
FeatureMatrix
p3075
(dp3076
g28
(lp3077
sg22
Nsbsg22
Nsba(irule
Rule
p3078
(dp3079
g15
(irule
Guard
p3080
(dp3081
g18
I00
sg19
(lp3082
(irule
FeatureMatrix
p3083
(dp3084
g28
(lp3085
sg22
Nsba(irule
ConstantPhoneme
p3086
(dp3087
S'p'
Va
sbasg21
I00
sg22
Nsg23
I00
sg24
S'L'
sbsg25
(irule
FeatureMatrix
p3088
(dp3089
g28
(lp3090
(I00
g2700
tp3091
a(I01
g3064
tp3092
asg22
Nsbsg31
(irule
Guard
p3093
(dp3094
g18
I00
sg19
(lp3095
sg21
I00
sg22
Nsg23
I00
sg24
S'R'
sbsg35
(irule
FeatureMatrix
p3096
(dp3097
g28
(lp3098
sg22
Nsbsg22
Nsba(irule
Rule
p3099
(dp3100
g15
(irule
Guard
p3101
(dp3102
g18
I00
sg19
(lp3103
(irule
FeatureMatrix
p3104
(dp3105
g28
(lp3106
sg22
Nsba(irule
ConstantPhoneme
p3107
(dp3108
S'p'
Va
sbasg21
I00
sg22
Nsg23
I00
sg24
S'L'
sbsg25
(irule
FeatureMatrix
p3109
(dp3110
g28
(lp3111
(I00
g2700
tp3112
asg22
Nsbsg31
(irule
Guard
p3113
(dp3114
g18
I00
sg19
(lp3115
sg21
I00
sg22
Nsg23
I00
sg24
S'R'
sbsg35
(irule
FeatureMatrix
p3116
(dp3117
g28
(lp3118
(I00
g2741
tp3119
asg22
Nsbsg22
Nsba(irule
Rule
p3120
(dp3121
g15
(irule
Guard
p3122
(dp3123
g18
I00
sg19
(lp3124
(irule
FeatureMatrix
p3125
(dp3126
g28
(lp3127
(I00
g2791
tp3128
asg22
Nsba(irule
ConstantPhoneme
p3129
(dp3130
S'p'
Va
sbasg21
I00
sg22
Nsg23
I00
sg24
S'L'
sbsg25
(irule
FeatureMatrix
p3131
(dp3132
g28
(lp3133
(I00
g2700
tp3134
asg22
Nsbsg31
(irule
Guard
p3135
(dp3136
g18
I00
sg19
(lp3137
sg21
I00
sg22
Nsg23
I00
sg24
S'R'
sbsg35
(irule
FeatureMatrix
p3138
(dp3139
g28
(lp3140
sg22
Nsbsg22
Nsba(irule
Rule
p3141
(dp3142
g15
(irule
Guard
p3143
(dp3144
g18
I00
sg19
(lp3145
(irule
FeatureMatrix
p3146
(dp3147
g28
(lp3148
sg22
Nsba(irule
ConstantPhoneme
p3149
(dp3150
S'p'
Va
sbasg21
I00
sg22
Nsg23
I00
sg24
S'L'
sbsg25
(irule
FeatureMatrix
p3151
(dp3152
g28
(lp3153
(I00
g2700
tp3154
asg22
Nsbsg31
(irule
Guard
p3155
(dp3156
g18
I00
sg19
(lp3157
sg21
I00
sg22
Nsg23
I00
sg24
S'R'
sbsg35
(irule
FeatureMatrix
p3158
(dp3159
g28
(lp3160
(I01
g3064
tp3161
asg22
Nsbsg22
Nsba(irule
Rule
p3162
(dp3163
g15
(irule
Guard
p3164
(dp3165
g18
I00
sg19
(lp3166
(irule
FeatureMatrix
p3167
(dp3168
g28
(lp3169
sg22
Nsba(irule
ConstantPhoneme
p3170
(dp3171
S'p'
Va
sbasg21
I00
sg22
Nsg23
I00
sg24
S'L'
sbsg25
(irule
FeatureMatrix
p3172
(dp3173
g28
(lp3174
(I00
g2700
tp3175
a(I00
S'coronal'
p3176
tp3177
asg22
Nsbsg31
(irule
Guard
p3178
(dp3179
g18
I00
sg19
(lp3180
sg21
I00
sg22
Nsg23
I00
sg24
S'R'
sbsg35
(irule
FeatureMatrix
p3181
(dp3182
g28
(lp3183
sg22
Nsbsg22
Nsba(irule
Rule
p3184
(dp3185
g15
(irule
Guard
p3186
(dp3187
g18
I00
sg19
(lp3188
(irule
FeatureMatrix
p3189
(dp3190
g28
(lp3191
sg22
Nsba(irule
ConstantPhoneme
p3192
(dp3193
S'p'
Va
sbasg21
I00
sg22
Nsg23
I00
sg24
S'L'
sbsg25
(irule
FeatureMatrix
p3194
(dp3195
g28
(lp3196
(I00
g2700
tp3197
asg22
Nsbsg31
(irule
Guard
p3198
(dp3199
g18
I00
sg19
(lp3200
sg21
I00
sg22
Nsg23
I00
sg24
S'R'
sbsg35
(irule
FeatureMatrix
p3201
(dp3202
g28
(lp3203
(I01
g2700
tp3204
asg22
Nsbsg22
Nsba(irule
Rule
p3205
(dp3206
g15
(irule
Guard
p3207
(dp3208
g18
I00
sg19
(lp3209
(irule
FeatureMatrix
p3210
(dp3211
g28
(lp3212
(I00
S'back'
tp3213
asg22
Nsba(irule
ConstantPhoneme
p3214
(dp3215
S'p'
Va
sbasg21
I00
sg22
Nsg23
I00
sg24
S'L'
sbsg25
(irule
FeatureMatrix
p3216
(dp3217
g28
(lp3218
(I00
g2700
tp3219
asg22
Nsbsg31
(irule
Guard
p3220
(dp3221
g18
I00
sg19
(lp3222
sg21
I00
sg22
Nsg23
I00
sg24
S'R'
sbsg35
(irule
FeatureMatrix
p3223
(dp3224
g28
(lp3225
sg22
Nsbsg22
Nsba(irule
Rule
p3226
(dp3227
g15
(irule
Guard
p3228
(dp3229
g18
I00
sg19
(lp3230
(irule
FeatureMatrix
p3231
(dp3232
g28
(lp3233
sg22
Nsba(irule
ConstantPhoneme
p3234
(dp3235
S'p'
Va
sbasg21
I00
sg22
Nsg23
I00
sg24
S'L'
sbsg25
(irule
FeatureMatrix
p3236
(dp3237
g28
(lp3238
(I00
S'lateral'
p3239
tp3240
a(I00
g2700
tp3241
asg22
Nsbsg31
(irule
Guard
p3242
(dp3243
g18
I00
sg19
(lp3244
sg21
I00
sg22
Nsg23
I00
sg24
S'R'
sbsg35
(irule
FeatureMatrix
p3245
(dp3246
g28
(lp3247
sg22
Nsbsg22
Nsba(irule
Rule
p3248
(dp3249
g15
(irule
Guard
p3250
(dp3251
g18
I00
sg19
(lp3252
(irule
FeatureMatrix
p3253
(dp3254
g28
(lp3255
(I00
g2700
tp3256
asg22
Nsba(irule
ConstantPhoneme
p3257
(dp3258
S'p'
Va
sbasg21
I00
sg22
Nsg23
I00
sg24
S'L'
sbsg25
(irule
FeatureMatrix
p3259
(dp3260
g28
(lp3261
(I00
g2700
tp3262
asg22
Nsbsg31
(irule
Guard
p3263
(dp3264
g18
I00
sg19
(lp3265
sg21
I00
sg22
Nsg23
I00
sg24
S'R'
sbsg35
(irule
FeatureMatrix
p3266
(dp3267
g28
(lp3268
sg22
Nsbsg22
Nsba(irule
Rule
p3269
(dp3270
g15
(irule
Guard
p3271
(dp3272
g18
I00
sg19
(lp3273
(irule
FeatureMatrix
p3274
(dp3275
g28
(lp3276
sg22
Nsba(irule
ConstantPhoneme
p3277
(dp3278
S'p'
Va
sbasg21
I00
sg22
Nsg23
I00
sg24
S'L'
sbsg25
(irule
FeatureMatrix
p3279
(dp3280
g28
(lp3281
(I00
S'nasal'
p3282
tp3283
a(I00
g2700
tp3284
asg22
Nsbsg31
(irule
Guard
p3285
(dp3286
g18
I00
sg19
(lp3287
sg21
I00
sg22
Nsg23
I00
sg24
S'R'
sbsg35
(irule
FeatureMatrix
p3288
(dp3289
g28
(lp3290
sg22
Nsbsg22
Nsba(irule
Rule
p3291
(dp3292
g15
(irule
Guard
p3293
(dp3294
g18
I00
sg19
(lp3295
(irule
FeatureMatrix
p3296
(dp3297
g28
(lp3298
(I00
S'rounded'
p3299
tp3300
asg22
Nsba(irule
ConstantPhoneme
p3301
(dp3302
S'p'
Va
sbasg21
I00
sg22
Nsg23
I00
sg24
S'L'
sbsg25
(irule
FeatureMatrix
p3303
(dp3304
g28
(lp3305
(I00
g2700
tp3306
asg22
Nsbsg31
(irule
Guard
p3307
(dp3308
g18
I00
sg19
(lp3309
sg21
I00
sg22
Nsg23
I00
sg24
S'R'
sbsg35
(irule
FeatureMatrix
p3310
(dp3311
g28
(lp3312
sg22
Nsbsg22
Nsba(irule
Rule
p3313
(dp3314
g15
(irule
Guard
p3315
(dp3316
g18
I00
sg19
(lp3317
(irule
FeatureMatrix
p3318
(dp3319
g28
(lp3320
sg22
Nsba(irule
ConstantPhoneme
p3321
(dp3322
S'p'
Va
sbasg21
I00
sg22
Nsg23
I00
sg24
S'L'
sbsg25
(irule
FeatureMatrix
p3323
(dp3324
g28
(lp3325
(I00
g2700
tp3326
asg22
Nsbsg31
(irule
Guard
p3327
(dp3328
g18
I00
sg19
(lp3329
sg21
I00
sg22
Nsg23
I00
sg24
S'R'
sbsg35
(irule
FeatureMatrix
p3330
(dp3331
g28
(lp3332
(I00
g3176
tp3333
asg22
Nsbsg22
Nsba(irule
Rule
p3334
(dp3335
g15
(irule
Guard
p3336
(dp3337
g18
I00
sg19
(lp3338
(irule
FeatureMatrix
p3339
(dp3340
g28
(lp3341
sg22
Nsba(irule
ConstantPhoneme
p3342
(dp3343
S'p'
Va
sbasg21
I00
sg22
Nsg23
I00
sg24
S'L'
sbsg25
(irule
FeatureMatrix
p3344
(dp3345
g28
(lp3346
(I00
g2700
tp3347
a(I01
S'sonorant'
p3348
tp3349
asg22
Nsbsg31
(irule
Guard
p3350
(dp3351
g18
I00
sg19
(lp3352
sg21
I00
sg22
Nsg23
I00
sg24
S'R'
sbsg35
(irule
FeatureMatrix
p3353
(dp3354
g28
(lp3355
sg22
Nsbsg22
Nsba(irule
Rule
p3356
(dp3357
g15
(irule
Guard
p3358
(dp3359
g18
I00
sg19
(lp3360
(irule
FeatureMatrix
p3361
(dp3362
g28
(lp3363
sg22
Nsba(irule
ConstantPhoneme
p3364
(dp3365
S'p'
Va
sbasg21
I00
sg22
Nsg23
I00
sg24
S'L'
sbsg25
(irule
FeatureMatrix
p3366
(dp3367
g28
(lp3368
(I00
g2700
tp3369
asg22
Nsbsg31
(irule
Guard
p3370
(dp3371
g18
I00
sg19
(lp3372
sg21
I00
sg22
Nsg23
I00
sg24
S'R'
sbsg35
(irule
FeatureMatrix
p3373
(dp3374
g28
(lp3375
(I01
g3021
tp3376
asg22
Nsbsg22
Nsba(irule
Rule
p3377
(dp3378
g15
(irule
Guard
p3379
(dp3380
g18
I00
sg19
(lp3381
(irule
FeatureMatrix
p3382
(dp3383
g28
(lp3384
sg22
Nsba(irule
ConstantPhoneme
p3385
(dp3386
S'p'
Va
sbasg21
I00
sg22
Nsg23
I00
sg24
S'L'
sbsg25
(irule
FeatureMatrix
p3387
(dp3388
g28
(lp3389
(I00
g2700
tp3390
asg22
Nsbsg31
(irule
Guard
p3391
(dp3392
g18
I00
sg19
(lp3393
sg21
I00
sg22
Nsg23
I00
sg24
S'R'
sbsg35
(irule
FeatureMatrix
p3394
(dp3395
g28
(lp3396
(I01
g3348
tp3397
asg22
Nsbsg22
Nsba(irule
Rule
p3398
(dp3399
g15
(irule
Guard
p3400
(dp3401
g18
I00
sg19
(lp3402
(irule
FeatureMatrix
p3403
(dp3404
g28
(lp3405
sg22
Nsba(irule
ConstantPhoneme
p3406
(dp3407
S'p'
Va
sbasg21
I00
sg22
Nsg23
I00
sg24
S'L'
sbsg25
(irule
FeatureMatrix
p3408
(dp3409
g28
(lp3410
(I00
g2700
tp3411
asg22
Nsbsg31
(irule
Guard
p3412
(dp3413
g18
I00
sg19
(lp3414
sg21
I00
sg22
Nsg23
I00
sg24
S'R'
sbsg35
(irule
FeatureMatrix
p3415
(dp3416
g28
(lp3417
(I00
g2791
tp3418
asg22
Nsbsg22
Nsba(irule
Rule
p3419
(dp3420
g15
(irule
Guard
p3421
(dp3422
g18
I00
sg19
(lp3423
(irule
FeatureMatrix
p3424
(dp3425
g28
(lp3426
sg22
Nsba(irule
ConstantPhoneme
p3427
(dp3428
S'p'
Va
sbasg21
I00
sg22
Nsg23
I00
sg24
S'L'
sbsg25
(irule
FeatureMatrix
p3429
(dp3430
g28
(lp3431
(I01
S'continuant'
p3432
tp3433
a(I00
g2700
tp3434
asg22
Nsbsg31
(irule
Guard
p3435
(dp3436
g18
I00
sg19
(lp3437
sg21
I00
sg22
Nsg23
I00
sg24
S'R'
sbsg35
(irule
FeatureMatrix
p3438
(dp3439
g28
(lp3440
sg22
Nsbsg22
Nsba(irule
Rule
p3441
(dp3442
g15
(irule
Guard
p3443
(dp3444
g18
I00
sg19
(lp3445
(irule
FeatureMatrix
p3446
(dp3447
g28
(lp3448
sg22
Nsba(irule
ConstantPhoneme
p3449
(dp3450
S'p'
Va
sbasg21
I00
sg22
Nsg23
I00
sg24
S'L'
sbsg25
(irule
FeatureMatrix
p3451
(dp3452
g28
(lp3453
(I00
g2700
tp3454
asg22
Nsbsg31
(irule
Guard
p3455
(dp3456
g18
I00
sg19
(lp3457
sg21
I00
sg22
Nsg23
I00
sg24
S'R'
sbsg35
(irule
FeatureMatrix
p3458
(dp3459
g28
(lp3460
(I00
g3239
tp3461
asg22
Nsbsg22
Nsba(irule
Rule
p3462
(dp3463
g15
(irule
Guard
p3464
(dp3465
g18
I00
sg19
(lp3466
(irule
FeatureMatrix
p3467
(dp3468
g28
(lp3469
sg22
Nsba(irule
ConstantPhoneme
p3470
(dp3471
S'p'
Va
sbasg21
I00
sg22
Nsg23
I00
sg24
S'L'
sbsg25
(irule
FeatureMatrix
p3472
(dp3473
g28
(lp3474
(I00
g2700
tp3475
asg22
Nsbsg31
(irule
Guard
p3476
(dp3477
g18
I00
sg19
(lp3478
sg21
I00
sg22
Nsg23
I00
sg24
S'R'
sbsg35
(irule
FeatureMatrix
p3479
(dp3480
g28
(lp3481
(I00
g3282
tp3482
asg22
Nsbsg22
Nsba(irule
Rule
p3483
(dp3484
g15
(irule
Guard
p3485
(dp3486
g18
I00
sg19
(lp3487
(irule
FeatureMatrix
p3488
(dp3489
g28
(lp3490
sg22
Nsba(irule
ConstantPhoneme
p3491
(dp3492
S'p'
Va
sbasg21
I00
sg22
Nsg23
I00
sg24
S'L'
sbsg25
(irule
FeatureMatrix
p3493
(dp3494
g28
(lp3495
(I00
g2741
tp3496
a(I00
g2700
tp3497
asg22
Nsbsg31
(irule
Guard
p3498
(dp3499
g18
I00
sg19
(lp3500
sg21
I00
sg22
Nsg23
I00
sg24
S'R'
sbsg35
(irule
FeatureMatrix
p3501
(dp3502
g28
(lp3503
sg22
Nsbsg22
Nsba(irule
Rule
p3504
(dp3505
g15
(irule
Guard
p3506
(dp3507
g18
I00
sg19
(lp3508
(irule
FeatureMatrix
p3509
(dp3510
g28
(lp3511
sg22
Nsba(irule
ConstantPhoneme
p3512
(dp3513
S'p'
Va
sbasg21
I00
sg22
Nsg23
I00
sg24
S'L'
sbsg25
(irule
FeatureMatrix
p3514
(dp3515
g28
(lp3516
(I00
g2700
tp3517
asg22
Nsbsg31
(irule
Guard
p3518
(dp3519
g18
I00
sg19
(lp3520
sg21
I00
sg22
Nsg23
I00
sg24
S'R'
sbsg35
(irule
FeatureMatrix
p3521
(dp3522
g28
(lp3523
(I00
S'liquid'
p3524
tp3525
asg22
Nsbsg22
Nsba(irule
Rule
p3526
(dp3527
g15
(irule
Guard
p3528
(dp3529
g18
I00
sg19
(lp3530
(irule
FeatureMatrix
p3531
(dp3532
g28
(lp3533
sg22
Nsba(irule
ConstantPhoneme
p3534
(dp3535
S'p'
Va
sbasg21
I00
sg22
Nsg23
I00
sg24
S'L'
sbsg25
(irule
FeatureMatrix
p3536
(dp3537
g28
(lp3538
(I00
g3524
tp3539
a(I00
g2700
tp3540
asg22
Nsbsg31
(irule
Guard
p3541
(dp3542
g18
I00
sg19
(lp3543
sg21
I00
sg22
Nsg23
I00
sg24
S'R'
sbsg35
(irule
FeatureMatrix
p3544
(dp3545
g28
(lp3546
sg22
Nsbsg22
Nsba(irule
Rule
p3547
(dp3548
g15
(irule
Guard
p3549
(dp3550
g18
I00
sg19
(lp3551
(irule
FeatureMatrix
p3552
(dp3553
g28
(lp3554
sg22
Nsba(irule
ConstantPhoneme
p3555
(dp3556
S'p'
Va
sbasg21
I00
sg22
Nsg23
I00
sg24
S'L'
sbsg25
(irule
FeatureMatrix
p3557
(dp3558
g28
(lp3559
(I00
g2700
tp3560
asg22
Nsbsg31
(irule
Guard
p3561
(dp3562
g18
I00
sg19
(lp3563
sg21
I00
sg22
Nsg23
I00
sg24
S'R'
sbsg35
(irule
FeatureMatrix
p3564
(dp3565
g28
(lp3566
(I01
g3432
tp3567
asg22
Nsbsg22
Nsba(irule
Rule
p3568
(dp3569
g15
(irule
Guard
p3570
(dp3571
g18
I00
sg19
(lp3572
(irule
FeatureMatrix
p3573
(dp3574
g28
(lp3575
sg22
Nsba(irule
ConstantPhoneme
p3576
(dp3577
S'p'
Va
sbasg21
I00
sg22
Nsg23
I00
sg24
S'L'
sbsg25
(irule
FeatureMatrix
p3578
(dp3579
g28
(lp3580
(I00
g2700
tp3581
asg22
Nsbsg31
(irule
Guard
p3582
(dp3583
g18
I00
sg19
(lp3584
sg21
I00
sg22
Nsg23
I00
sg24
S'R'
sbsg35
(irule
FeatureMatrix
p3585
(dp3586
g28
(lp3587
(I00
g2921
tp3588
asg22
Nsbsg22
Nsba(irule
Rule
p3589
(dp3590
g15
(irule
Guard
p3591
(dp3592
g18
I00
sg19
(lp3593
(irule
FeatureMatrix
p3594
(dp3595
g28
(lp3596
sg22
Nsba(irule
FeatureMatrix
p3597
(dp3598
g28
(lp3599
(I00
g2700
tp3600
asg22
Nsbasg21
I00
sg22
Nsg23
I00
sg24
S'L'
sbsg25
(irule
FeatureMatrix
p3601
(dp3602
g28
(lp3603
(I00
g2700
tp3604
asg22
Nsbsg31
(irule
Guard
p3605
(dp3606
g18
I01
sg19
(lp3607
sg21
I00
sg22
Nsg23
I00
sg24
S'R'
sbsg35
(irule
FeatureMatrix
p3608
(dp3609
g28
(lp3610
(I01
g2700
tp3611
asg22
Nsbsg22
Nsba(irule
Rule
p3612
(dp3613
g15
(irule
Guard
p3614
(dp3615
g18
I00
sg19
(lp3616
(irule
FeatureMatrix
p3617
(dp3618
g28
(lp3619
sg22
Nsba(irule
ConstantPhoneme
p3620
(dp3621
S'p'
Va
sbasg21
I00
sg22
Nsg23
I00
sg24
S'L'
sbsg25
(irule
FeatureMatrix
p3622
(dp3623
g28
(lp3624
(I00
g2700
tp3625
a(I00
g2791
tp3626
a(I00
g3176
tp3627
asg22
Nsbsg31
(irule
Guard
p3628
(dp3629
g18
I00
sg19
(lp3630
sg21
I00
sg22
Nsg23
I00
sg24
S'R'
sbsg35
(irule
FeatureMatrix
p3631
(dp3632
g28
(lp3633
sg22
Nsbsg22
Nsba(irule
Rule
p3634
(dp3635
g15
(irule
Guard
p3636
(dp3637
g18
I00
sg19
(lp3638
(irule
FeatureMatrix
p3639
(dp3640
g28
(lp3641
(I00
g3021
tp3642
asg22
Nsba(irule
FeatureMatrix
p3643
(dp3644
g28
(lp3645
(I00
g2700
tp3646
asg22
Nsbasg21
I00
sg22
Nsg23
I00
sg24
S'L'
sbsg25
(irule
FeatureMatrix
p3647
(dp3648
g28
(lp3649
(I00
g2700
tp3650
asg22
Nsbsg31
(irule
Guard
p3651
(dp3652
g18
I01
sg19
(lp3653
sg21
I00
sg22
Nsg23
I00
sg24
S'R'
sbsg35
(irule
FeatureMatrix
p3654
(dp3655
g28
(lp3656
sg22
Nsbsg22
Nsba(irule
Rule
p3657
(dp3658
g15
(irule
Guard
p3659
(dp3660
g18
I00
sg19
(lp3661
(irule
FeatureMatrix
p3662
(dp3663
g28
(lp3664
(I00
g2853
tp3665
asg22
Nsba(irule
FeatureMatrix
p3666
(dp3667
g28
(lp3668
(I00
g2700
tp3669
a(I01
g2833
tp3670
asg22
Nsbasg21
I00
sg22
Nsg23
I00
sg24
S'L'
sbsg25
(irule
FeatureMatrix
p3671
(dp3672
g28
(lp3673
(I00
g2700
tp3674
asg22
Nsbsg31
(irule
Guard
p3675
(dp3676
g18
I00
sg19
(lp3677
sg21
I00
sg22
Nsg23
I00
sg24
S'R'
sbsg35
(irule
FeatureMatrix
p3678
(dp3679
g28
(lp3680
sg22
Nsbsg22
Nsba(irule
Rule
p3681
(dp3682
g15
(irule
Guard
p3683
(dp3684
g18
I00
sg19
(lp3685
(irule
FeatureMatrix
p3686
(dp3687
g28
(lp3688
sg22
Nsba(irule
FeatureMatrix
p3689
(dp3690
g28
(lp3691
(I00
g2700
tp3692
a(I01
g2769
tp3693
asg22
Nsbasg21
I00
sg22
Nsg23
I00
sg24
S'L'
sbsg25
(irule
FeatureMatrix
p3694
(dp3695
g28
(lp3696
(I00
g2700
tp3697
asg22
Nsbsg31
(irule
Guard
p3698
(dp3699
g18
I01
sg19
(lp3700
sg21
I00
sg22
Nsg23
I00
sg24
S'R'
sbsg35
(irule
FeatureMatrix
p3701
(dp3702
g28
(lp3703
sg22
Nsbsg22
Nsba(irule
Rule
p3704
(dp3705
g15
(irule
Guard
p3706
(dp3707
g18
I00
sg19
(lp3708
(irule
FeatureMatrix
p3709
(dp3710
g28
(lp3711
sg22
Nsba(irule
ConstantPhoneme
p3712
(dp3713
S'p'
Va
sbasg21
I00
sg22
Nsg23
I00
sg24
S'L'
sbsg25
(irule
FeatureMatrix
p3714
(dp3715
g28
(lp3716
(I00
g2700
tp3717
asg22
Nsbsg31
(irule
Guard
p3718
(dp3719
g18
I00
sg19
(lp3720
sg21
I00
sg22
Nsg23
I00
sg24
S'R'
sbsg35
(irule
FeatureMatrix
p3721
(dp3722
g28
(lp3723
(I00
g2719
tp3724
a(I01
g2769
tp3725
asg22
Nsbsg22
Nsba(irule
Rule
p3726
(dp3727
g15
(irule
Guard
p3728
(dp3729
g18
I00
sg19
(lp3730
(irule
FeatureMatrix
p3731
(dp3732
g28
(lp3733
sg22
Nsba(irule
ConstantPhoneme
p3734
(dp3735
S'p'
Va
sbasg21
I00
sg22
Nsg23
I00
sg24
S'L'
sbsg25
(irule
FeatureMatrix
p3736
(dp3737
g28
(lp3738
(I00
g3239
tp3739
a(I00
g2700
tp3740
a(I00
g2791
tp3741
asg22
Nsbsg31
(irule
Guard
p3742
(dp3743
g18
I00
sg19
(lp3744
sg21
I00
sg22
Nsg23
I00
sg24
S'R'
sbsg35
(irule
FeatureMatrix
p3745
(dp3746
g28
(lp3747
sg22
Nsbsg22
Nsba(irule
Rule
p3748
(dp3749
g15
(irule
Guard
p3750
(dp3751
g18
I00
sg19
(lp3752
(irule
FeatureMatrix
p3753
(dp3754
g28
(lp3755
sg22
Nsba(irule
ConstantPhoneme
p3756
(dp3757
S'p'
Va
sbasg21
I00
sg22
Nsg23
I00
sg24
S'L'
sbsg25
(irule
FeatureMatrix
p3758
(dp3759
g28
(lp3760
(I00
g2700
tp3761
a(I00
g2791
tp3762
a(I00
g2719
tp3763
asg22
Nsbsg31
(irule
Guard
p3764
(dp3765
g18
I00
sg19
(lp3766
sg21
I00
sg22
Nsg23
I00
sg24
S'R'
sbsg35
(irule
FeatureMatrix
p3767
(dp3768
g28
(lp3769
sg22
Nsbsg22
Nsba(irule
Rule
p3770
(dp3771
g15
(irule
Guard
p3772
(dp3773
g18
I00
sg19
(lp3774
(irule
FeatureMatrix
p3775
(dp3776
g28
(lp3777
sg22
Nsba(irule
FeatureMatrix
p3778
(dp3779
g28
(lp3780
(I00
g2700
tp3781
asg22
Nsbasg21
I00
sg22
Nsg23
I00
sg24
S'L'
sbsg25
(irule
FeatureMatrix
p3782
(dp3783
g28
(lp3784
(I00
g2700
tp3785
asg22
Nsbsg31
(irule
Guard
p3786
(dp3787
g18
I01
sg19
(lp3788
sg21
I00
sg22
Nsg23
I00
sg24
S'R'
sbsg35
(irule
FeatureMatrix
p3789
(dp3790
g28
(lp3791
(I01
g2769
tp3792
asg22
Nsbsg22
Nsba(irule
Rule
p3793
(dp3794
g15
(irule
Guard
p3795
(dp3796
g18
I00
sg19
(lp3797
(irule
FeatureMatrix
p3798
(dp3799
g28
(lp3800
(I00
g3064
tp3801
asg22
Nsba(irule
FeatureMatrix
p3802
(dp3803
g28
(lp3804
(I00
g2700
tp3805
a(I01
g2833
tp3806
asg22
Nsbasg21
I00
sg22
Nsg23
I00
sg24
S'L'
sbsg25
(irule
FeatureMatrix
p3807
(dp3808
g28
(lp3809
(I00
g2700
tp3810
asg22
Nsbsg31
(irule
Guard
p3811
(dp3812
g18
I00
sg19
(lp3813
sg21
I00
sg22
Nsg23
I00
sg24
S'R'
sbsg35
(irule
FeatureMatrix
p3814
(dp3815
g28
(lp3816
sg22
Nsbsg22
Nsba(irule
Rule
p3817
(dp3818
g15
(irule
Guard
p3819
(dp3820
g18
I00
sg19
(lp3821
(irule
FeatureMatrix
p3822
(dp3823
g28
(lp3824
sg22
Nsba(irule
ConstantPhoneme
p3825
(dp3826
S'p'
Va
sbasg21
I00
sg22
Nsg23
I00
sg24
S'L'
sbsg25
(irule
FeatureMatrix
p3827
(dp3828
g28
(lp3829
(I00
g2700
tp3830
a(I00
g2719
tp3831
asg22
Nsbsg31
(irule
Guard
p3832
(dp3833
g18
I01
sg19
(lp3834
sg21
I00
sg22
Nsg23
I00
sg24
S'R'
sbsg35
(irule
FeatureMatrix
p3835
(dp3836
g28
(lp3837
sg22
Nsbsg22
Nsba(irule
Rule
p3838
(dp3839
g15
(irule
Guard
p3840
(dp3841
g18
I00
sg19
(lp3842
(irule
FeatureMatrix
p3843
(dp3844
g28
(lp3845
sg22
Nsba(irule
FeatureMatrix
p3846
(dp3847
g28
(lp3848
(I00
g2700
tp3849
a(I01
g2833
tp3850
asg22
Nsbasg21
I00
sg22
Nsg23
I00
sg24
S'L'
sbsg25
(irule
FeatureMatrix
p3851
(dp3852
g28
(lp3853
(I00
g2700
tp3854
asg22
Nsbsg31
(irule
Guard
p3855
(dp3856
g18
I00
sg19
(lp3857
sg21
I00
sg22
Nsg23
I00
sg24
S'R'
sbsg35
(irule
FeatureMatrix
p3858
(dp3859
g28
(lp3860
(I01
g2700
tp3861
asg22
Nsbsg22
Nsba(irule
Rule
p3862
(dp3863
g15
(irule
Guard
p3864
(dp3865
g18
I00
sg19
(lp3866
(irule
FeatureMatrix
p3867
(dp3868
g28
(lp3869
sg22
Nsba(irule
FeatureMatrix
p3870
(dp3871
g28
(lp3872
(I00
g2700
tp3873
a(I01
g2833
tp3874
asg22
Nsbasg21
I00
sg22
Nsg23
I00
sg24
S'L'
sbsg25
(irule
FeatureMatrix
p3875
(dp3876
g28
(lp3877
(I00
g2700
tp3878
a(I00
g2719
tp3879
asg22
Nsbsg31
(irule
Guard
p3880
(dp3881
g18
I00
sg19
(lp3882
sg21
I00
sg22
Nsg23
I00
sg24
S'R'
sbsg35
(irule
FeatureMatrix
p3883
(dp3884
g28
(lp3885
sg22
Nsbsg22
Nsba(irule
Rule
p3886
(dp3887
g15
(irule
Guard
p3888
(dp3889
g18
I00
sg19
(lp3890
(irule
FeatureMatrix
p3891
(dp3892
g28
(lp3893
(I00
g2833
tp3894
asg22
Nsba(irule
FeatureMatrix
p3895
(dp3896
g28
(lp3897
(I00
g2700
tp3898
a(I01
g2833
tp3899
asg22
Nsbasg21
I00
sg22
Nsg23
I00
sg24
S'L'
sbsg25
(irule
FeatureMatrix
p3900
(dp3901
g28
(lp3902
(I00
g2700
tp3903
asg22
Nsbsg31
(irule
Guard
p3904
(dp3905
g18
I00
sg19
(lp3906
sg21
I00
sg22
Nsg23
I00
sg24
S'R'
sbsg35
(irule
FeatureMatrix
p3907
(dp3908
g28
(lp3909
sg22
Nsbsg22
Nsba(irule
Rule
p3910
(dp3911
g15
(irule
Guard
p3912
(dp3913
g18
I00
sg19
(lp3914
(irule
FeatureMatrix
p3915
(dp3916
g28
(lp3917
sg22
Nsba(irule
FeatureMatrix
p3918
(dp3919
g28
(lp3920
(I00
g2741
tp3921
a(I00
g2700
tp3922
asg22
Nsbasg21
I00
sg22
Nsg23
I00
sg24
S'L'
sbsg25
(irule
FeatureMatrix
p3923
(dp3924
g28
(lp3925
(I00
g2700
tp3926
asg22
Nsbsg31
(irule
Guard
p3927
(dp3928
g18
I01
sg19
(lp3929
sg21
I00
sg22
Nsg23
I00
sg24
S'R'
sbsg35
(irule
FeatureMatrix
p3930
(dp3931
g28
(lp3932
sg22
Nsbsg22
Nsba(irule
Rule
p3933
(dp3934
g15
(irule
Guard
p3935
(dp3936
g18
I00
sg19
(lp3937
(irule
FeatureMatrix
p3938
(dp3939
g28
(lp3940
sg22
Nsba(irule
ConstantPhoneme
p3941
(dp3942
S'p'
Va
sbasg21
I00
sg22
Nsg23
I00
sg24
S'L'
sbsg25
(irule
FeatureMatrix
p3943
(dp3944
g28
(lp3945
(I00
g2700
tp3946
a(I01
g3021
tp3947
a(I00
g2719
tp3948
asg22
Nsbsg31
(irule
Guard
p3949
(dp3950
g18
I00
sg19
(lp3951
sg21
I00
sg22
Nsg23
I00
sg24
S'R'
sbsg35
(irule
FeatureMatrix
p3952
(dp3953
g28
(lp3954
sg22
Nsbsg22
Nsba(irule
Rule
p3955
(dp3956
g15
(irule
Guard
p3957
(dp3958
g18
I00
sg19
(lp3959
(irule
FeatureMatrix
p3960
(dp3961
g28
(lp3962
sg22
Nsba(irule
FeatureMatrix
p3963
(dp3964
g28
(lp3965
(I00
g2700
tp3966
a(I01
g2833
tp3967
asg22
Nsbasg21
I00
sg22
Nsg23
I01
sg24
S'L'
sbsg25
(irule
FeatureMatrix
p3968
(dp3969
g28
(lp3970
(I00
g2700
tp3971
asg22
Nsbsg31
(irule
Guard
p3972
(dp3973
g18
I00
sg19
(lp3974
sg21
I00
sg22
Nsg23
I00
sg24
S'R'
sbsg35
(irule
FeatureMatrix
p3975
(dp3976
g28
(lp3977
sg22
Nsbsg22
Nsba(irule
Rule
p3978
(dp3979
g15
(irule
Guard
p3980
(dp3981
g18
I00
sg19
(lp3982
(irule
FeatureMatrix
p3983
(dp3984
g28
(lp3985
sg22
Nsba(irule
ConstantPhoneme
p3986
(dp3987
S'p'
Va
sbasg21
I00
sg22
Nsg23
I00
sg24
S'L'
sbsg25
(irule
FeatureMatrix
p3988
(dp3989
g28
(lp3990
(I00
g3524
tp3991
a(I00
g2700
tp3992
asg22
Nsbsg31
(irule
Guard
p3993
(dp3994
g18
I01
sg19
(lp3995
sg21
I00
sg22
Nsg23
I00
sg24
S'R'
sbsg35
(irule
FeatureMatrix
p3996
(dp3997
g28
(lp3998
sg22
Nsbsg22
Nsba(irule
Rule
p3999
(dp4000
g15
(irule
Guard
p4001
(dp4002
g18
I00
sg19
(lp4003
(irule
FeatureMatrix
p4004
(dp4005
g28
(lp4006
sg22
Nsba(irule
ConstantPhoneme
p4007
(dp4008
S'p'
Va
sbasg21
I00
sg22
Nsg23
I00
sg24
S'L'
sbsg25
(irule
FeatureMatrix
p4009
(dp4010
g28
(lp4011
(I00
g2700
tp4012
asg22
Nsbsg31
(irule
Guard
p4013
(dp4014
g18
I01
sg19
(lp4015
sg21
I00
sg22
Nsg23
I00
sg24
S'R'
sbsg35
(irule
FeatureMatrix
p4016
(dp4017
g28
(lp4018
(I01
g2769
tp4019
asg22
Nsbsg22
Nsba(irule
Rule
p4020
(dp4021
g15
(irule
Guard
p4022
(dp4023
g18
I00
sg19
(lp4024
(irule
FeatureMatrix
p4025
(dp4026
g28
(lp4027
sg22
Nsba(irule
FeatureMatrix
p4028
(dp4029
g28
(lp4030
(I00
g2700
tp4031
a(I01
g2833
tp4032
asg22
Nsbasg21
I00
sg22
Nsg23
I00
sg24
S'L'
sbsg25
(irule
FeatureMatrix
p4033
(dp4034
g28
(lp4035
(I00
g2700
tp4036
asg22
Nsbsg31
(irule
Guard
p4037
(dp4038
g18
I01
sg19
(lp4039
sg21
I00
sg22
Nsg23
I00
sg24
S'R'
sbsg35
(irule
FeatureMatrix
p4040
(dp4041
g28
(lp4042
sg22
Nsbsg22
Nsba(irule
Rule
p4043
(dp4044
g15
(irule
Guard
p4045
(dp4046
g18
I00
sg19
(lp4047
(irule
FeatureMatrix
p4048
(dp4049
g28
(lp4050
sg22
Nsba(irule
ConstantPhoneme
p4051
(dp4052
S'p'
Va
sbasg21
I00
sg22
Nsg23
I00
sg24
S'L'
sbsg25
(irule
FeatureMatrix
p4053
(dp4054
g28
(lp4055
(I00
g2700
tp4056
a(I00
g2719
tp4057
asg22
Nsbsg31
(irule
Guard
p4058
(dp4059
g18
I00
sg19
(lp4060
sg21
I00
sg22
Nsg23
I00
sg24
S'R'
sbsg35
(irule
FeatureMatrix
p4061
(dp4062
g28
(lp4063
(I01
g2769
tp4064
asg22
Nsbsg22
Nsba(irule
Rule
p4065
(dp4066
g15
(irule
Guard
p4067
(dp4068
g18
I00
sg19
(lp4069
(irule
FeatureMatrix
p4070
(dp4071
g28
(lp4072
(I00
g3021
tp4073
asg22
Nsba(irule
ConstantPhoneme
p4074
(dp4075
S'p'
Va
sbasg21
I00
sg22
Nsg23
I00
sg24
S'L'
sbsg25
(irule
FeatureMatrix
p4076
(dp4077
g28
(lp4078
(I00
g2700
tp4079
asg22
Nsbsg31
(irule
Guard
p4080
(dp4081
g18
I01
sg19
(lp4082
sg21
I00
sg22
Nsg23
I00
sg24
S'R'
sbsg35
(irule
FeatureMatrix
p4083
(dp4084
g28
(lp4085
sg22
Nsbsg22
Nsba(irule
Rule
p4086
(dp4087
g15
(irule
Guard
p4088
(dp4089
g18
I00
sg19
(lp4090
(irule
FeatureMatrix
p4091
(dp4092
g28
(lp4093
sg22
Nsba(irule
FeatureMatrix
p4094
(dp4095
g28
(lp4096
(I00
g2700
tp4097
a(I01
g2833
tp4098
a(I01
g2769
tp4099
asg22
Nsbasg21
I00
sg22
Nsg23
I00
sg24
S'L'
sbsg25
(irule
FeatureMatrix
p4100
(dp4101
g28
(lp4102
(I00
g2700
tp4103
asg22
Nsbsg31
(irule
Guard
p4104
(dp4105
g18
I00
sg19
(lp4106
sg21
I00
sg22
Nsg23
I00
sg24
S'R'
sbsg35
(irule
FeatureMatrix
p4107
(dp4108
g28
(lp4109
sg22
Nsbsg22
Nsba(irule
Rule
p4110
(dp4111
g15
(irule
Guard
p4112
(dp4113
g18
I00
sg19
(lp4114
(irule
FeatureMatrix
p4115
(dp4116
g28
(lp4117
sg22
Nsba(irule
FeatureMatrix
p4118
(dp4119
g28
(lp4120
(I00
g2700
tp4121
a(I01
g2833
tp4122
asg22
Nsbasg21
I00
sg22
Nsg23
I00
sg24
S'L'
sbsg25
(irule
FeatureMatrix
p4123
(dp4124
g28
(lp4125
(I01
g3432
tp4126
a(I00
g2700
tp4127
asg22
Nsbsg31
(irule
Guard
p4128
(dp4129
g18
I00
sg19
(lp4130
sg21
I00
sg22
Nsg23
I00
sg24
S'R'
sbsg35
(irule
FeatureMatrix
p4131
(dp4132
g28
(lp4133
sg22
Nsbsg22
Nsba(irule
Rule
p4134
(dp4135
g15
(irule
Guard
p4136
(dp4137
g18
I00
sg19
(lp4138
(irule
FeatureMatrix
p4139
(dp4140
g28
(lp4141
sg22
Nsba(irule
ConstantPhoneme
p4142
(dp4143
S'p'
Va
sbasg21
I00
sg22
Nsg23
I00
sg24
S'L'
sbsg25
(irule
FeatureMatrix
p4144
(dp4145
g28
(lp4146
(I00
g2700
tp4147
a(I01
g3021
tp4148
asg22
Nsbsg31
(irule
Guard
p4149
(dp4150
g18
I00
sg19
(lp4151
sg21
I00
sg22
Nsg23
I00
sg24
S'R'
sbsg35
(irule
FeatureMatrix
p4152
(dp4153
g28
(lp4154
(I01
g2769
tp4155
asg22
Nsbsg22
Nsba(irule
Rule
p4156
(dp4157
g15
(irule
Guard
p4158
(dp4159
g18
I00
sg19
(lp4160
(irule
FeatureMatrix
p4161
(dp4162
g28
(lp4163
(I00
g2833
tp4164
asg22
Nsba(irule
FeatureMatrix
p4165
(dp4166
g28
(lp4167
(I00
g2700
tp4168
asg22
Nsbasg21
I00
sg22
Nsg23
I00
sg24
S'L'
sbsg25
(irule
FeatureMatrix
p4169
(dp4170
g28
(lp4171
(I00
g2700
tp4172
asg22
Nsbsg31
(irule
Guard
p4173
(dp4174
g18
I01
sg19
(lp4175
sg21
I00
sg22
Nsg23
I00
sg24
S'R'
sbsg35
(irule
FeatureMatrix
p4176
(dp4177
g28
(lp4178
sg22
Nsbsg22
Nsba(irule
Rule
p4179
(dp4180
g15
(irule
Guard
p4181
(dp4182
g18
I00
sg19
(lp4183
(irule
FeatureMatrix
p4184
(dp4185
g28
(lp4186
sg22
Nsba(irule
FeatureMatrix
p4187
(dp4188
g28
(lp4189
(I00
g2700
tp4190
a(I01
g2833
tp4191
asg22
Nsbasg21
I00
sg22
Nsg23
I00
sg24
S'L'
sbsg25
(irule
FeatureMatrix
p4192
(dp4193
g28
(lp4194
(I00
g2700
tp4195
asg22
Nsbsg31
(irule
Guard
p4196
(dp4197
g18
I00
sg19
(lp4198
sg21
I00
sg22
Nsg23
I00
sg24
S'R'
sbsg35
(irule
FeatureMatrix
p4199
(dp4200
g28
(lp4201
(I01
g2769
tp4202
asg22
Nsbsg22
Nsba(irule
Rule
p4203
(dp4204
g15
(irule
Guard
p4205
(dp4206
g18
I00
sg19
(lp4207
(irule
FeatureMatrix
p4208
(dp4209
g28
(lp4210
sg22
Nsba(irule
ConstantPhoneme
p4211
(dp4212
S'p'
Va
sbasg21
I00
sg22
Nsg23
I01
sg24
S'L'
sbsg25
(irule
FeatureMatrix
p4213
(dp4214
g28
(lp4215
(I00
g2700
tp4216
asg22
Nsbsg31
(irule
Guard
p4217
(dp4218
g18
I01
sg19
(lp4219
sg21
I00
sg22
Nsg23
I00
sg24
S'R'
sbsg35
(irule
FeatureMatrix
p4220
(dp4221
g28
(lp4222
sg22
Nsbsg22
Nsba(irule
Rule
p4223
(dp4224
g15
(irule
Guard
p4225
(dp4226
g18
I00
sg19
(lp4227
(irule
FeatureMatrix
p4228
(dp4229
g28
(lp4230
sg22
Nsba(irule
FeatureMatrix
p4231
(dp4232
g28
(lp4233
(I00
g2700
tp4234
a(I01
g2833
tp4235
a(I00
g2719
tp4236
asg22
Nsbasg21
I00
sg22
Nsg23
I00
sg24
S'L'
sbsg25
(irule
FeatureMatrix
p4237
(dp4238
g28
(lp4239
(I00
g2700
tp4240
asg22
Nsbsg31
(irule
Guard
p4241
(dp4242
g18
I00
sg19
(lp4243
sg21
I00
sg22
Nsg23
I00
sg24
S'R'
sbsg35
(irule
FeatureMatrix
p4244
(dp4245
g28
(lp4246
sg22
Nsbsg22
Nsba(irule
Rule
p4247
(dp4248
g15
(irule
Guard
p4249
(dp4250
g18
I00
sg19
(lp4251
(irule
FeatureMatrix
p4252
(dp4253
g28
(lp4254
sg22
Nsba(irule
FeatureMatrix
p4255
(dp4256
g28
(lp4257
(I00
g2700
tp4258
a(I00
g2719
tp4259
asg22
Nsbasg21
I00
sg22
Nsg23
I00
sg24
S'L'
sbsg25
(irule
FeatureMatrix
p4260
(dp4261
g28
(lp4262
(I00
g2700
tp4263
asg22
Nsbsg31
(irule
Guard
p4264
(dp4265
g18
I01
sg19
(lp4266
sg21
I00
sg22
Nsg23
I00
sg24
S'R'
sbsg35
(irule
FeatureMatrix
p4267
(dp4268
g28
(lp4269
sg22
Nsbsg22
Nsba(irule
Rule
p4270
(dp4271
g15
(irule
Guard
p4272
(dp4273
g18
I00
sg19
(lp4274
(irule
FeatureMatrix
p4275
(dp4276
g28
(lp4277
(I00
g3299
tp4278
a(I00
g2741
tp4279
asg22
Nsba(irule
ConstantPhoneme
p4280
(dp4281
S'p'
Va
sbasg21
I00
sg22
Nsg23
I00
sg24
S'L'
sbsg25
(irule
FeatureMatrix
p4282
(dp4283
g28
(lp4284
(I00
g2700
tp4285
asg22
Nsbsg31
(irule
Guard
p4286
(dp4287
g18
I00
sg19
(lp4288
sg21
I00
sg22
Nsg23
I00
sg24
S'R'
sbsg35
(irule
FeatureMatrix
p4289
(dp4290
g28
(lp4291
sg22
Nsbsg22
Nsba(irule
Rule
p4292
(dp4293
g15
(irule
Guard
p4294
(dp4295
g18
I00
sg19
(lp4296
(irule
FeatureMatrix
p4297
(dp4298
g28
(lp4299
sg22
Nsba(irule
FeatureMatrix
p4300
(dp4301
g28
(lp4302
(I00
g2700
tp4303
asg22
Nsbasg21
I00
sg22
Nsg23
I00
sg24
S'L'
sbsg25
(irule
FeatureMatrix
p4304
(dp4305
g28
(lp4306
(I00
g3524
tp4307
a(I00
g2700
tp4308
asg22
Nsbsg31
(irule
Guard
p4309
(dp4310
g18
I01
sg19
(lp4311
sg21
I00
sg22
Nsg23
I00
sg24
S'R'
sbsg35
(irule
FeatureMatrix
p4312
(dp4313
g28
(lp4314
sg22
Nsbsg22
Nsba(irule
Rule
p4315
(dp4316
g15
(irule
Guard
p4317
(dp4318
g18
I00
sg19
(lp4319
(irule
FeatureMatrix
p4320
(dp4321
g28
(lp4322
sg22
Nsba(irule
FeatureMatrix
p4323
(dp4324
g28
(lp4325
(I00
g2700
tp4326
asg22
Nsbasg21
I00
sg22
Nsg23
I00
sg24
S'L'
sbsg25
(irule
FeatureMatrix
p4327
(dp4328
g28
(lp4329
(I00
g2700
tp4330
a(I00
g2719
tp4331
asg22
Nsbsg31
(irule
Guard
p4332
(dp4333
g18
I01
sg19
(lp4334
sg21
I00
sg22
Nsg23
I00
sg24
S'R'
sbsg35
(irule
FeatureMatrix
p4335
(dp4336
g28
(lp4337
sg22
Nsbsg22
Nsba(irule
Rule
p4338
(dp4339
g15
(irule
Guard
p4340
(dp4341
g18
I00
sg19
(lp4342
(irule
FeatureMatrix
p4343
(dp4344
g28
(lp4345
sg22
Nsba(irule
ConstantPhoneme
p4346
(dp4347
S'p'
Va
sbasg21
I00
sg22
Nsg23
I00
sg24
S'L'
sbsg25
(irule
FeatureMatrix
p4348
(dp4349
g28
(lp4350
(I00
g2700
tp4351
asg22
Nsbsg31
(irule
Guard
p4352
(dp4353
g18
I00
sg19
(lp4354
sg21
I00
sg22
Nsg23
I00
sg24
S'R'
sbsg35
(irule
FeatureMatrix
p4355
(dp4356
g28
(lp4357
(I00
g2921
tp4358
a(I01
g2700
tp4359
asg22
Nsbsg22
Nsba(irule
Rule
p4360
(dp4361
g15
(irule
Guard
p4362
(dp4363
g18
I00
sg19
(lp4364
(irule
FeatureMatrix
p4365
(dp4366
g28
(lp4367
sg22
Nsba(irule
ConstantPhoneme
p4368
(dp4369
S'p'
Va
sbasg21
I00
sg22
Nsg23
I00
sg24
S'L'
sbsg25
(irule
FeatureMatrix
p4370
(dp4371
g28
(lp4372
(I00
g2700
tp4373
a(I01
g3021
tp4374
a(I01
g2769
tp4375
asg22
Nsbsg31
(irule
Guard
p4376
(dp4377
g18
I00
sg19
(lp4378
sg21
I00
sg22
Nsg23
I00
sg24
S'R'
sbsg35
(irule
FeatureMatrix
p4379
(dp4380
g28
(lp4381
sg22
Nsbsg22
Nsba(irule
Rule
p4382
(dp4383
g15
(irule
Guard
p4384
(dp4385
g18
I00
sg19
(lp4386
(irule
FeatureMatrix
p4387
(dp4388
g28
(lp4389
(I00
g2741
tp4390
asg22
Nsba(irule
FeatureMatrix
p4391
(dp4392
g28
(lp4393
(I00
g2700
tp4394
asg22
Nsbasg21
I00
sg22
Nsg23
I00
sg24
S'L'
sbsg25
(irule
FeatureMatrix
p4395
(dp4396
g28
(lp4397
(I00
g2700
tp4398
asg22
Nsbsg31
(irule
Guard
p4399
(dp4400
g18
I01
sg19
(lp4401
sg21
I00
sg22
Nsg23
I00
sg24
S'R'
sbsg35
(irule
FeatureMatrix
p4402
(dp4403
g28
(lp4404
sg22
Nsbsg22
Nsba(irule
Rule
p4405
(dp4406
g15
(irule
Guard
p4407
(dp4408
g18
I00
sg19
(lp4409
(irule
FeatureMatrix
p4410
(dp4411
g28
(lp4412
(I00
g2791
tp4413
asg22
Nsba(irule
FeatureMatrix
p4414
(dp4415
g28
(lp4416
(I00
g2700
tp4417
asg22
Nsbasg21
I00
sg22
Nsg23
I00
sg24
S'L'
sbsg25
(irule
FeatureMatrix
p4418
(dp4419
g28
(lp4420
(I00
g2700
tp4421
asg22
Nsbsg31
(irule
Guard
p4422
(dp4423
g18
I01
sg19
(lp4424
sg21
I00
sg22
Nsg23
I00
sg24
S'R'
sbsg35
(irule
FeatureMatrix
p4425
(dp4426
g28
(lp4427
sg22
Nsbsg22
Nsba(irule
Rule
p4428
(dp4429
g15
(irule
Guard
p4430
(dp4431
g18
I00
sg19
(lp4432
(irule
FeatureMatrix
p4433
(dp4434
g28
(lp4435
(I00
g2741
tp4436
asg22
Nsba(irule
FeatureMatrix
p4437
(dp4438
g28
(lp4439
(I00
g2700
tp4440
a(I01
g2833
tp4441
asg22
Nsbasg21
I00
sg22
Nsg23
I00
sg24
S'L'
sbsg25
(irule
FeatureMatrix
p4442
(dp4443
g28
(lp4444
(I00
g2700
tp4445
asg22
Nsbsg31
(irule
Guard
p4446
(dp4447
g18
I00
sg19
(lp4448
sg21
I00
sg22
Nsg23
I00
sg24
S'R'
sbsg35
(irule
FeatureMatrix
p4449
(dp4450
g28
(lp4451
sg22
Nsbsg22
Nsba(irule
Rule
p4452
(dp4453
g15
(irule
Guard
p4454
(dp4455
g18
I00
sg19
(lp4456
(irule
FeatureMatrix
p4457
(dp4458
g28
(lp4459
sg22
Nsba(irule
FeatureMatrix
p4460
(dp4461
g28
(lp4462
(I00
g2700
tp4463
a(I01
g2833
tp4464
asg22
Nsbasg21
I00
sg22
Nsg23
I00
sg24
S'L'
sbsg25
(irule
FeatureMatrix
p4465
(dp4466
g28
(lp4467
(I00
g2700
tp4468
asg22
Nsbsg31
(irule
Guard
p4469
(dp4470
g18
I00
sg19
(lp4471
sg21
I00
sg22
Nsg23
I00
sg24
S'R'
sbsg35
(irule
FeatureMatrix
p4472
(dp4473
g28
(lp4474
(I01
g3064
tp4475
asg22
Nsbsg22
Nsba(irule
Rule
p4476
(dp4477
g15
(irule
Guard
p4478
(dp4479
g18
I00
sg19
(lp4480
(irule
FeatureMatrix
p4481
(dp4482
g28
(lp4483
(I00
g3064
tp4484
asg22
Nsba(irule
FeatureMatrix
p4485
(dp4486
g28
(lp4487
(I00
g2700
tp4488
asg22
Nsbasg21
I00
sg22
Nsg23
I00
sg24
S'L'
sbsg25
(irule
FeatureMatrix
p4489
(dp4490
g28
(lp4491
(I00
g2700
tp4492
asg22
Nsbsg31
(irule
Guard
p4493
(dp4494
g18
I01
sg19
(lp4495
sg21
I00
sg22
Nsg23
I00
sg24
S'R'
sbsg35
(irule
FeatureMatrix
p4496
(dp4497
g28
(lp4498
sg22
Nsbsg22
Nsba(irule
Rule
p4499
(dp4500
g15
(irule
Guard
p4501
(dp4502
g18
I00
sg19
(lp4503
(irule
FeatureMatrix
p4504
(dp4505
g28
(lp4506
sg22
Nsba(irule
FeatureMatrix
p4507
(dp4508
g28
(lp4509
(I00
g2700
tp4510
asg22
Nsbasg21
I00
sg22
Nsg23
I00
sg24
S'L'
sbsg25
(irule
FeatureMatrix
p4511
(dp4512
g28
(lp4513
(I00
g2700
tp4514
asg22
Nsbsg31
(irule
Guard
p4515
(dp4516
g18
I01
sg19
(lp4517
sg21
I00
sg22
Nsg23
I00
sg24
S'R'
sbsg35
(irule
FeatureMatrix
p4518
(dp4519
g28
(lp4520
(I01
g3064
tp4521
asg22
Nsbsg22
Nsba(irule
Rule
p4522
(dp4523
g15
(irule
Guard
p4524
(dp4525
g18
I00
sg19
(lp4526
(irule
FeatureMatrix
p4527
(dp4528
g28
(lp4529
sg22
Nsba(irule
ConstantPhoneme
p4530
(dp4531
S'p'
Va
sbasg21
I00
sg22
Nsg23
I00
sg24
S'L'
sbsg25
(irule
FeatureMatrix
p4532
(dp4533
g28
(lp4534
(I00
g2700
tp4535
a(I00
g2791
tp4536
asg22
Nsbsg31
(irule
Guard
p4537
(dp4538
g18
I00
sg19
(lp4539
sg21
I00
sg22
Nsg23
I00
sg24
S'R'
sbsg35
(irule
FeatureMatrix
p4540
(dp4541
g28
(lp4542
(I00
g2719
tp4543
asg22
Nsbsg22
Nsba(irule
Rule
p4544
(dp4545
g15
(irule
Guard
p4546
(dp4547
g18
I00
sg19
(lp4548
(irule
FeatureMatrix
p4549
(dp4550
g28
(lp4551
sg22
Nsba(irule
ConstantPhoneme
p4552
(dp4553
S'p'
Va
sbasg21
I00
sg22
Nsg23
I01
sg24
S'L'
sbsg25
(irule
FeatureMatrix
p4554
(dp4555
g28
(lp4556
(I00
g2700
tp4557
asg22
Nsbsg31
(irule
Guard
p4558
(dp4559
g18
I00
sg19
(lp4560
sg21
I00
sg22
Nsg23
I00
sg24
S'R'
sbsg35
(irule
FeatureMatrix
p4561
(dp4562
g28
(lp4563
(I01
g2700
tp4564
asg22
Nsbsg22
Nsba(irule
Rule
p4565
(dp4566
g15
(irule
Guard
p4567
(dp4568
g18
I00
sg19
(lp4569
(irule
FeatureMatrix
p4570
(dp4571
g28
(lp4572
sg22
Nsba(irule
FeatureMatrix
p4573
(dp4574
g28
(lp4575
(I00
g2700
tp4576
asg22
Nsbasg21
I00
sg22
Nsg23
I00
sg24
S'L'
sbsg25
(irule
FeatureMatrix
p4577
(dp4578
g28
(lp4579
(I00
g2700
tp4580
a(I00
g2791
tp4581
asg22
Nsbsg31
(irule
Guard
p4582
(dp4583
g18
I01
sg19
(lp4584
sg21
I00
sg22
Nsg23
I00
sg24
S'R'
sbsg35
(irule
FeatureMatrix
p4585
(dp4586
g28
(lp4587
sg22
Nsbsg22
Nsba(irule
Rule
p4588
(dp4589
g15
(irule
Guard
p4590
(dp4591
g18
I00
sg19
(lp4592
(irule
FeatureMatrix
p4593
(dp4594
g28
(lp4595
sg22
Nsba(irule
ConstantPhoneme
p4596
(dp4597
S'p'
Va
sbasg21
I00
sg22
Nsg23
I00
sg24
S'L'
sbsg25
(irule
FeatureMatrix
p4598
(dp4599
g28
(lp4600
(I00
g2700
tp4601
a(I01
g2769
tp4602
asg22
Nsbsg31
(irule
Guard
p4603
(dp4604
g18
I01
sg19
(lp4605
sg21
I00
sg22
Nsg23
I00
sg24
S'R'
sbsg35
(irule
FeatureMatrix
p4606
(dp4607
g28
(lp4608
sg22
Nsbsg22
Nsba(irule
Rule
p4609
(dp4610
g15
(irule
Guard
p4611
(dp4612
g18
I00
sg19
(lp4613
(irule
FeatureMatrix
p4614
(dp4615
g28
(lp4616
sg22
Nsba(irule
FeatureMatrix
p4617
(dp4618
g28
(lp4619
(I00
g2700
tp4620
a(I01
g2833
tp4621
asg22
Nsbasg21
I00
sg22
Nsg23
I00
sg24
S'L'
sbsg25
(irule
FeatureMatrix
p4622
(dp4623
g28
(lp4624
(I00
g3524
tp4625
a(I00
g2700
tp4626
asg22
Nsbsg31
(irule
Guard
p4627
(dp4628
g18
I00
sg19
(lp4629
sg21
I00
sg22
Nsg23
I00
sg24
S'R'
sbsg35
(irule
FeatureMatrix
p4630
(dp4631
g28
(lp4632
sg22
Nsbsg22
Nsba(irule
Rule
p4633
(dp4634
g15
(irule
Guard
p4635
(dp4636
g18
I00
sg19
(lp4637
(irule
FeatureMatrix
p4638
(dp4639
g28
(lp4640
sg22
Nsba(irule
ConstantPhoneme
p4641
(dp4642
S'p'
Va
sbasg21
I00
sg22
Nsg23
I01
sg24
S'L'
sbsg25
(irule
FeatureMatrix
p4643
(dp4644
g28
(lp4645
(I00
g2700
tp4646
asg22
Nsbsg31
(irule
Guard
p4647
(dp4648
g18
I00
sg19
(lp4649
sg21
I00
sg22
Nsg23
I00
sg24
S'R'
sbsg35
(irule
FeatureMatrix
p4650
(dp4651
g28
(lp4652
(I01
g3021
tp4653
asg22
Nsbsg22
Nsba(irule
Rule
p4654
(dp4655
g15
(irule
Guard
p4656
(dp4657
g18
I00
sg19
(lp4658
(irule
FeatureMatrix
p4659
(dp4660
g28
(lp4661
sg22
Nsba(irule
FeatureMatrix
p4662
(dp4663
g28
(lp4664
(I00
g2921
tp4665
a(I00
g2700
tp4666
asg22
Nsbasg21
I00
sg22
Nsg23
I00
sg24
S'L'
sbsg25
(irule
FeatureMatrix
p4667
(dp4668
g28
(lp4669
(I00
g2700
tp4670
asg22
Nsbsg31
(irule
Guard
p4671
(dp4672
g18
I01
sg19
(lp4673
sg21
I00
sg22
Nsg23
I00
sg24
S'R'
sbsg35
(irule
FeatureMatrix
p4674
(dp4675
g28
(lp4676
sg22
Nsbsg22
Nsba(irule
Rule
p4677
(dp4678
g15
(irule
Guard
p4679
(dp4680
g18
I00
sg19
(lp4681
(irule
FeatureMatrix
p4682
(dp4683
g28
(lp4684
sg22
Nsba(irule
ConstantPhoneme
p4685
(dp4686
S'p'
Va
sbasg21
I00
sg22
Nsg23
I01
sg24
S'L'
sbsg25
(irule
FeatureMatrix
p4687
(dp4688
g28
(lp4689
(I00
g2700
tp4690
asg22
Nsbsg31
(irule
Guard
p4691
(dp4692
g18
I00
sg19
(lp4693
sg21
I00
sg22
Nsg23
I00
sg24
S'R'
sbsg35
(irule
FeatureMatrix
p4694
(dp4695
g28
(lp4696
(I01
g2769
tp4697
asg22
Nsbsg22
Nsba(irule
Rule
p4698
(dp4699
g15
(irule
Guard
p4700
(dp4701
g18
I00
sg19
(lp4702
(irule
FeatureMatrix
p4703
(dp4704
g28
(lp4705
sg22
Nsba(irule
ConstantPhoneme
p4706
(dp4707
S'p'
Va
sbasg21
I00
sg22
Nsg23
I00
sg24
S'L'
sbsg25
(irule
FeatureMatrix
p4708
(dp4709
g28
(lp4710
(I00
g2921
tp4711
a(I00
g3524
tp4712
a(I00
g2700
tp4713
asg22
Nsbsg31
(irule
Guard
p4714
(dp4715
g18
I00
sg19
(lp4716
sg21
I00
sg22
Nsg23
I00
sg24
S'R'
sbsg35
(irule
FeatureMatrix
p4717
(dp4718
g28
(lp4719
sg22
Nsbsg22
Nsba(irule
Rule
p4720
(dp4721
g15
(irule
Guard
p4722
(dp4723
g18
I00
sg19
(lp4724
(irule
FeatureMatrix
p4725
(dp4726
g28
(lp4727
sg22
Nsba(irule
FeatureMatrix
p4728
(dp4729
g28
(lp4730
(I00
g2921
tp4731
a(I00
g2700
tp4732
a(I01
g2833
tp4733
asg22
Nsbasg21
I00
sg22
Nsg23
I00
sg24
S'L'
sbsg25
(irule
FeatureMatrix
p4734
(dp4735
g28
(lp4736
(I00
g2700
tp4737
asg22
Nsbsg31
(irule
Guard
p4738
(dp4739
g18
I00
sg19
(lp4740
sg21
I00
sg22
Nsg23
I00
sg24
S'R'
sbsg35
(irule
FeatureMatrix
p4741
(dp4742
g28
(lp4743
sg22
Nsbsg22
Nsba(irule
Rule
p4744
(dp4745
g15
(irule
Guard
p4746
(dp4747
g18
I00
sg19
(lp4748
(irule
FeatureMatrix
p4749
(dp4750
g28
(lp4751
sg22
Nsba(irule
ConstantPhoneme
p4752
(dp4753
S'p'
Va
sbasg21
I00
sg22
Nsg23
I00
sg24
S'L'
sbsg25
(irule
FeatureMatrix
p4754
(dp4755
g28
(lp4756
(I00
g3524
tp4757
a(I00
g2741
tp4758
a(I00
g2700
tp4759
asg22
Nsbsg31
(irule
Guard
p4760
(dp4761
g18
I00
sg19
(lp4762
sg21
I00
sg22
Nsg23
I00
sg24
S'R'
sbsg35
(irule
FeatureMatrix
p4763
(dp4764
g28
(lp4765
sg22
Nsbsg22
Nsba(irule
Rule
p4766
(dp4767
g15
(irule
Guard
p4768
(dp4769
g18
I00
sg19
(lp4770
(irule
FeatureMatrix
p4771
(dp4772
g28
(lp4773
(I00
g2833
tp4774
a(I00
g3021
tp4775
asg22
Nsba(irule
ConstantPhoneme
p4776
(dp4777
S'p'
Va
sbasg21
I00
sg22
Nsg23
I00
sg24
S'L'
sbsg25
(irule
FeatureMatrix
p4778
(dp4779
g28
(lp4780
(I00
g2700
tp4781
asg22
Nsbsg31
(irule
Guard
p4782
(dp4783
g18
I00
sg19
(lp4784
sg21
I00
sg22
Nsg23
I00
sg24
S'R'
sbsg35
(irule
FeatureMatrix
p4785
(dp4786
g28
(lp4787
sg22
Nsbsg22
Nsba(irule
Rule
p4788
(dp4789
g15
(irule
Guard
p4790
(dp4791
g18
I00
sg19
(lp4792
(irule
FeatureMatrix
p4793
(dp4794
g28
(lp4795
sg22
Nsba(irule
ConstantPhoneme
p4796
(dp4797
S'p'
Va
sbasg21
I00
sg22
Nsg23
I01
sg24
S'L'
sbsg25
(irule
FeatureMatrix
p4798
(dp4799
g28
(lp4800
(I00
g2700
tp4801
asg22
Nsbsg31
(irule
Guard
p4802
(dp4803
g18
I00
sg19
(lp4804
sg21
I00
sg22
Nsg23
I00
sg24
S'R'
sbsg35
(irule
FeatureMatrix
p4805
(dp4806
g28
(lp4807
(I00
g2719
tp4808
asg22
Nsbsg22
Nsba(irule
Rule
p4809
(dp4810
g15
(irule
Guard
p4811
(dp4812
g18
I00
sg19
(lp4813
(irule
FeatureMatrix
p4814
(dp4815
g28
(lp4816
(I00
g2791
tp4817
asg22
Nsba(irule
FeatureMatrix
p4818
(dp4819
g28
(lp4820
(I00
g2700
tp4821
a(I01
g2833
tp4822
asg22
Nsbasg21
I00
sg22
Nsg23
I00
sg24
S'L'
sbsg25
(irule
FeatureMatrix
p4823
(dp4824
g28
(lp4825
(I00
g2700
tp4826
asg22
Nsbsg31
(irule
Guard
p4827
(dp4828
g18
I00
sg19
(lp4829
sg21
I00
sg22
Nsg23
I00
sg24
S'R'
sbsg35
(irule
FeatureMatrix
p4830
(dp4831
g28
(lp4832
sg22
Nsbsg22
Nsba(irule
Rule
p4833
(dp4834
g15
(irule
Guard
p4835
(dp4836
g18
I00
sg19
(lp4837
(irule
FeatureMatrix
p4838
(dp4839
g28
(lp4840
sg22
Nsba(irule
FeatureMatrix
p4841
(dp4842
g28
(lp4843
(I00
g2700
tp4844
asg22
Nsbasg21
I00
sg22
Nsg23
I00
sg24
S'L'
sbsg25
(irule
FeatureMatrix
p4845
(dp4846
g28
(lp4847
(I00
g2741
tp4848
a(I00
g2700
tp4849
asg22
Nsbsg31
(irule
Guard
p4850
(dp4851
g18
I01
sg19
(lp4852
sg21
I00
sg22
Nsg23
I00
sg24
S'R'
sbsg35
(irule
FeatureMatrix
p4853
(dp4854
g28
(lp4855
sg22
Nsbsg22
Nsba(irule
Rule
p4856
(dp4857
g15
(irule
Guard
p4858
(dp4859
g18
I00
sg19
(lp4860
(irule
FeatureMatrix
p4861
(dp4862
g28
(lp4863
sg22
Nsba(irule
FeatureMatrix
p4864
(dp4865
g28
(lp4866
(I00
g2700
tp4867
a(I01
g2833
tp4868
asg22
Nsbasg21
I00
sg22
Nsg23
I00
sg24
S'L'
sbsg25
(irule
FeatureMatrix
p4869
(dp4870
g28
(lp4871
(I00
g2700
tp4872
a(I00
g2791
tp4873
asg22
Nsbsg31
(irule
Guard
p4874
(dp4875
g18
I00
sg19
(lp4876
sg21
I00
sg22
Nsg23
I00
sg24
S'R'
sbsg35
(irule
FeatureMatrix
p4877
(dp4878
g28
(lp4879
sg22
Nsbsg22
Nsba(irule
Rule
p4880
(dp4881
g15
(irule
Guard
p4882
(dp4883
g18
I00
sg19
(lp4884
(irule
FeatureMatrix
p4885
(dp4886
g28
(lp4887
sg22
Nsba(irule
ConstantPhoneme
p4888
(dp4889
S'p'
Va
sbasg21
I00
sg22
Nsg23
I00
sg24
S'L'
sbsg25
(irule
FeatureMatrix
p4890
(dp4891
g28
(lp4892
(I00
g2700
tp4893
a(I00
g2719
tp4894
a(I01
g2769
tp4895
asg22
Nsbsg31
(irule
Guard
p4896
(dp4897
g18
I00
sg19
(lp4898
sg21
I00
sg22
Nsg23
I00
sg24
S'R'
sbsg35
(irule
FeatureMatrix
p4899
(dp4900
g28
(lp4901
sg22
Nsbsg22
Nsbaa(lp4902
(irule
Rule
p4903
(dp4904
g15
(irule
Guard
p4905
(dp4906
g18
I00
sg19
(lp4907
sg21
I00
sg22
V
sg23
I00
sg24
S'L'
sbsg25
(irule
FeatureMatrix
p4908
(dp4909
g28
(lp4910
(I00
S'highTone'
p4911
tp4912
asg22
V[ -highTone ]
p4913
sbsg31
(irule
Guard
p4914
(dp4915
g18
I00
sg19
(lp4916
(irule
FeatureMatrix
p4917
(dp4918
g28
(lp4919
sg22
V[  ]
p4920
sba(irule
FeatureMatrix
p4921
(dp4922
g28
(lp4923
sg22
V[  ]
p4924
sbasg21
I00
sg22
V[  ] [  ]
p4925
sg23
I00
sg24
S'R'
sbsg35
(irule
FeatureMatrix
p4926
(dp4927
g28
(lp4928
sg22
V[  ]
p4929
sbsg22
V[  ] ---> [ -highTone ] /  _ [  ] [  ]
p4930
sba(irule
Rule
p4931
(dp4932
g15
(irule
Guard
p4933
(dp4934
g18
I00
sg19
(lp4935
sg21
I00
sg22
Nsg23
I00
sg24
S'L'
sbsg25
(irule
FeatureMatrix
p4936
(dp4937
g28
(lp4938
(I00
g4911
tp4939
asg22
Nsbsg31
(irule
Guard
p4940
(dp4941
g18
I00
sg19
(lp4942
(irule
FeatureMatrix
p4943
(dp4944
g28
(lp4945
sg22
Nsba(irule
FeatureMatrix
p4946
(dp4947
g28
(lp4948
(I01
S'continuant'
p4949
tp4950
asg22
Nsbasg21
I00
sg22
Nsg23
I00
sg24
S'R'
sbsg35
(irule
FeatureMatrix
p4951
(dp4952
g28
(lp4953
sg22
Nsbsg22
Nsba(irule
Rule
p4954
(dp4955
g15
(irule
Guard
p4956
(dp4957
g18
I00
sg19
(lp4958
sg21
I00
sg22
Nsg23
I00
sg24
S'L'
sbsg25
(irule
FeatureMatrix
p4959
(dp4960
g28
(lp4961
(I00
g4911
tp4962
asg22
Nsbsg31
(irule
Guard
p4963
(dp4964
g18
I00
sg19
(lp4965
(irule
FeatureMatrix
p4966
(dp4967
g28
(lp4968
sg22
Nsba(irule
FeatureMatrix
p4969
(dp4970
g28
(lp4971
(I01
S'vowel'
p4972
tp4973
asg22
Nsbasg21
I00
sg22
Nsg23
I00
sg24
S'R'
sbsg35
(irule
FeatureMatrix
p4974
(dp4975
g28
(lp4976
sg22
Nsbsg22
Nsba(irule
Rule
p4977
(dp4978
g15
(irule
Guard
p4979
(dp4980
g18
I00
sg19
(lp4981
sg21
I00
sg22
Nsg23
I00
sg24
S'L'
sbsg25
(irule
FeatureMatrix
p4982
(dp4983
g28
(lp4984
(I00
g4911
tp4985
asg22
Nsbsg31
(irule
Guard
p4986
(dp4987
g18
I00
sg19
(lp4988
(irule
FeatureMatrix
p4989
(dp4990
g28
(lp4991
sg22
Nsba(irule
FeatureMatrix
p4992
(dp4993
g28
(lp4994
(I00
S'palletized'
p4995
tp4996
asg22
Nsbasg21
I00
sg22
Nsg23
I00
sg24
S'R'
sbsg35
(irule
FeatureMatrix
p4997
(dp4998
g28
(lp4999
sg22
Nsbsg22
Nsba(irule
Rule
p5000
(dp5001
g15
(irule
Guard
p5002
(dp5003
g18
I00
sg19
(lp5004
sg21
I00
sg22
Nsg23
I00
sg24
S'L'
sbsg25
(irule
FeatureMatrix
p5005
(dp5006
g28
(lp5007
(I00
g4911
tp5008
asg22
Nsbsg31
(irule
Guard
p5009
(dp5010
g18
I00
sg19
(lp5011
(irule
FeatureMatrix
p5012
(dp5013
g28
(lp5014
sg22
Nsba(irule
FeatureMatrix
p5015
(dp5016
g28
(lp5017
sg22
Nsbasg21
I00
sg22
Nsg23
I00
sg24
S'R'
sbsg35
(irule
FeatureMatrix
p5018
(dp5019
g28
(lp5020
(I00
S'nasal'
p5021
tp5022
asg22
Nsbsg22
Nsba(irule
Rule
p5023
(dp5024
g15
(irule
Guard
p5025
(dp5026
g18
I00
sg19
(lp5027
(irule
FeatureMatrix
p5028
(dp5029
g28
(lp5030
sg22
Nsbasg21
I00
sg22
Nsg23
I00
sg24
S'L'
sbsg25
(irule
FeatureMatrix
p5031
(dp5032
g28
(lp5033
(I00
g4911
tp5034
asg22
Nsbsg31
(irule
Guard
p5035
(dp5036
g18
I00
sg19
(lp5037
(irule
FeatureMatrix
p5038
(dp5039
g28
(lp5040
sg22
Nsba(irule
FeatureMatrix
p5041
(dp5042
g28
(lp5043
sg22
Nsbasg21
I00
sg22
Nsg23
I00
sg24
S'R'
sbsg35
(irule
FeatureMatrix
p5044
(dp5045
g28
(lp5046
sg22
Nsbsg22
Nsba(irule
Rule
p5047
(dp5048
g15
(irule
Guard
p5049
(dp5050
g18
I00
sg19
(lp5051
sg21
I00
sg22
Nsg23
I00
sg24
S'L'
sbsg25
(irule
FeatureMatrix
p5052
(dp5053
g28
(lp5054
(I00
g4911
tp5055
asg22
Nsbsg31
(irule
Guard
p5056
(dp5057
g18
I00
sg19
(lp5058
(irule
FeatureMatrix
p5059
(dp5060
g28
(lp5061
sg22
Nsba(irule
FeatureMatrix
p5062
(dp5063
g28
(lp5064
(I01
S'tense'
p5065
tp5066
asg22
Nsbasg21
I00
sg22
Nsg23
I00
sg24
S'R'
sbsg35
(irule
FeatureMatrix
p5067
(dp5068
g28
(lp5069
sg22
Nsbsg22
Nsba(irule
Rule
p5070
(dp5071
g15
(irule
Guard
p5072
(dp5073
g18
I00
sg19
(lp5074
sg21
I00
sg22
Nsg23
I00
sg24
S'L'
sbsg25
(irule
FeatureMatrix
p5075
(dp5076
g28
(lp5077
(I00
g4911
tp5078
asg22
Nsbsg31
(irule
Guard
p5079
(dp5080
g18
I00
sg19
(lp5081
(irule
FeatureMatrix
p5082
(dp5083
g28
(lp5084
sg22
Nsba(irule
FeatureMatrix
p5085
(dp5086
g28
(lp5087
(I01
S'voice'
p5088
tp5089
asg22
Nsbasg21
I00
sg22
Nsg23
I00
sg24
S'R'
sbsg35
(irule
FeatureMatrix
p5090
(dp5091
g28
(lp5092
sg22
Nsbsg22
Nsba(irule
Rule
p5093
(dp5094
g15
(irule
Guard
p5095
(dp5096
g18
I00
sg19
(lp5097
sg21
I00
sg22
Nsg23
I00
sg24
S'L'
sbsg25
(irule
FeatureMatrix
p5098
(dp5099
g28
(lp5100
(I00
S'glide'
p5101
tp5102
a(I00
g4911
tp5103
asg22
Nsbsg31
(irule
Guard
p5104
(dp5105
g18
I00
sg19
(lp5106
(irule
FeatureMatrix
p5107
(dp5108
g28
(lp5109
sg22
Nsba(irule
FeatureMatrix
p5110
(dp5111
g28
(lp5112
sg22
Nsbasg21
I00
sg22
Nsg23
I00
sg24
S'R'
sbsg35
(irule
FeatureMatrix
p5113
(dp5114
g28
(lp5115
sg22
Nsbsg22
Nsba(irule
Rule
p5116
(dp5117
g15
(irule
Guard
p5118
(dp5119
g18
I00
sg19
(lp5120
sg21
I00
sg22
Nsg23
I00
sg24
S'L'
sbsg25
(irule
FeatureMatrix
p5121
(dp5122
g28
(lp5123
(I00
g4911
tp5124
a(I00
g4995
tp5125
asg22
Nsbsg31
(irule
Guard
p5126
(dp5127
g18
I00
sg19
(lp5128
(irule
FeatureMatrix
p5129
(dp5130
g28
(lp5131
sg22
Nsba(irule
FeatureMatrix
p5132
(dp5133
g28
(lp5134
sg22
Nsbasg21
I00
sg22
Nsg23
I00
sg24
S'R'
sbsg35
(irule
FeatureMatrix
p5135
(dp5136
g28
(lp5137
sg22
Nsbsg22
Nsba(irule
Rule
p5138
(dp5139
g15
(irule
Guard
p5140
(dp5141
g18
I00
sg19
(lp5142
sg21
I00
sg22
Nsg23
I00
sg24
S'L'
sbsg25
(irule
FeatureMatrix
p5143
(dp5144
g28
(lp5145
(I00
g4911
tp5146
asg22
Nsbsg31
(irule
Guard
p5147
(dp5148
g18
I00
sg19
(lp5149
(irule
FeatureMatrix
p5150
(dp5151
g28
(lp5152
(I00
S'sibilant'
p5153
tp5154
asg22
Nsba(irule
FeatureMatrix
p5155
(dp5156
g28
(lp5157
sg22
Nsbasg21
I00
sg22
Nsg23
I00
sg24
S'R'
sbsg35
(irule
FeatureMatrix
p5158
(dp5159
g28
(lp5160
sg22
Nsbsg22
Nsba(irule
Rule
p5161
(dp5162
g15
(irule
Guard
p5163
(dp5164
g18
I00
sg19
(lp5165
sg21
I00
sg22
Nsg23
I00
sg24
S'L'
sbsg25
(irule
FeatureMatrix
p5166
(dp5167
g28
(lp5168
(I00
g4911
tp5169
asg22
Nsbsg31
(irule
Guard
p5170
(dp5171
g18
I00
sg19
(lp5172
(irule
FeatureMatrix
p5173
(dp5174
g28
(lp5175
(I00
S'rounded'
tp5176
asg22
Nsba(irule
FeatureMatrix
p5177
(dp5178
g28
(lp5179
sg22
Nsbasg21
I00
sg22
Nsg23
I00
sg24
S'R'
sbsg35
(irule
FeatureMatrix
p5180
(dp5181
g28
(lp5182
sg22
Nsbsg22
Nsba(irule
Rule
p5183
(dp5184
g15
(irule
Guard
p5185
(dp5186
g18
I00
sg19
(lp5187
sg21
I00
sg22
Nsg23
I00
sg24
S'L'
sbsg25
(irule
FeatureMatrix
p5188
(dp5189
g28
(lp5190
(I00
g4911
tp5191
asg22
Nsbsg31
(irule
Guard
p5192
(dp5193
g18
I00
sg19
(lp5194
(irule
FeatureMatrix
p5195
(dp5196
g28
(lp5197
sg22
Nsba(irule
FeatureMatrix
p5198
(dp5199
g28
(lp5200
sg22
Nsbasg21
I00
sg22
Nsg23
I00
sg24
S'R'
sbsg35
(irule
FeatureMatrix
p5201
(dp5202
g28
(lp5203
(I00
g5153
tp5204
asg22
Nsbsg22
Nsba(irule
Rule
p5205
(dp5206
g15
(irule
Guard
p5207
(dp5208
g18
I00
sg19
(lp5209
sg21
I00
sg22
Nsg23
I00
sg24
S'L'
sbsg25
(irule
FeatureMatrix
p5210
(dp5211
g28
(lp5212
(I00
g4911
tp5213
asg22
Nsbsg31
(irule
Guard
p5214
(dp5215
g18
I00
sg19
(lp5216
(irule
FeatureMatrix
p5217
(dp5218
g28
(lp5219
(I00
S'low'
p5220
tp5221
asg22
Nsba(irule
FeatureMatrix
p5222
(dp5223
g28
(lp5224
sg22
Nsbasg21
I00
sg22
Nsg23
I00
sg24
S'R'
sbsg35
(irule
FeatureMatrix
p5225
(dp5226
g28
(lp5227
sg22
Nsbsg22
Nsba(irule
Rule
p5228
(dp5229
g15
(irule
Guard
p5230
(dp5231
g18
I00
sg19
(lp5232
sg21
I00
sg22
Nsg23
I00
sg24
S'L'
sbsg25
(irule
FeatureMatrix
p5233
(dp5234
g28
(lp5235
(I00
g4911
tp5236
asg22
Nsbsg31
(irule
Guard
p5237
(dp5238
g18
I00
sg19
(lp5239
(irule
FeatureMatrix
p5240
(dp5241
g28
(lp5242
sg22
Nsba(irule
FeatureMatrix
p5243
(dp5244
g28
(lp5245
(I00
S'liquid'
p5246
tp5247
asg22
Nsbasg21
I00
sg22
Nsg23
I00
sg24
S'R'
sbsg35
(irule
FeatureMatrix
p5248
(dp5249
g28
(lp5250
sg22
Nsbsg22
Nsba(irule
Rule
p5251
(dp5252
g15
(irule
Guard
p5253
(dp5254
g18
I00
sg19
(lp5255
sg21
I00
sg22
Nsg23
I00
sg24
S'L'
sbsg25
(irule
FeatureMatrix
p5256
(dp5257
g28
(lp5258
(I00
g4911
tp5259
asg22
Nsbsg31
(irule
Guard
p5260
(dp5261
g18
I00
sg19
(lp5262
(irule
FeatureMatrix
p5263
(dp5264
g28
(lp5265
sg22
Nsba(irule
FeatureMatrix
p5266
(dp5267
g28
(lp5268
(I01
S'sonorant'
p5269
tp5270
asg22
Nsbasg21
I00
sg22
Nsg23
I00
sg24
S'R'
sbsg35
(irule
FeatureMatrix
p5271
(dp5272
g28
(lp5273
sg22
Nsbsg22
Nsba(irule
Rule
p5274
(dp5275
g15
(irule
Guard
p5276
(dp5277
g18
I00
sg19
(lp5278
sg21
I00
sg22
Nsg23
I00
sg24
S'L'
sbsg25
(irule
FeatureMatrix
p5279
(dp5280
g28
(lp5281
(I00
g4911
tp5282
asg22
Nsbsg31
(irule
Guard
p5283
(dp5284
g18
I00
sg19
(lp5285
(irule
FeatureMatrix
p5286
(dp5287
g28
(lp5288
sg22
Nsba(irule
FeatureMatrix
p5289
(dp5290
g28
(lp5291
(I00
S'anterior'
p5292
tp5293
asg22
Nsbasg21
I00
sg22
Nsg23
I00
sg24
S'R'
sbsg35
(irule
FeatureMatrix
p5294
(dp5295
g28
(lp5296
sg22
Nsbsg22
Nsba(irule
Rule
p5297
(dp5298
g15
(irule
Guard
p5299
(dp5300
g18
I00
sg19
(lp5301
sg21
I00
sg22
Nsg23
I00
sg24
S'L'
sbsg25
(irule
FeatureMatrix
p5302
(dp5303
g28
(lp5304
(I00
g4911
tp5305
asg22
Nsbsg31
(irule
Guard
p5306
(dp5307
g18
I00
sg19
(lp5308
(irule
FeatureMatrix
p5309
(dp5310
g28
(lp5311
sg22
Nsba(irule
FeatureMatrix
p5312
(dp5313
g28
(lp5314
(I00
g5101
tp5315
asg22
Nsbasg21
I00
sg22
Nsg23
I00
sg24
S'R'
sbsg35
(irule
FeatureMatrix
p5316
(dp5317
g28
(lp5318
sg22
Nsbsg22
Nsba(irule
Rule
p5319
(dp5320
g15
(irule
Guard
p5321
(dp5322
g18
I00
sg19
(lp5323
sg21
I00
sg22
Nsg23
I00
sg24
S'L'
sbsg25
(irule
FeatureMatrix
p5324
(dp5325
g28
(lp5326
(I00
g4911
tp5327
asg22
Nsbsg31
(irule
Guard
p5328
(dp5329
g18
I00
sg19
(lp5330
(irule
FeatureMatrix
p5331
(dp5332
g28
(lp5333
sg22
Nsba(irule
FeatureMatrix
p5334
(dp5335
g28
(lp5336
sg22
Nsbasg21
I00
sg22
Nsg23
I00
sg24
S'R'
sbsg35
(irule
FeatureMatrix
p5337
(dp5338
g28
(lp5339
(I00
g5292
tp5340
asg22
Nsbsg22
Nsba(irule
Rule
p5341
(dp5342
g15
(irule
Guard
p5343
(dp5344
g18
I00
sg19
(lp5345
sg21
I00
sg22
Nsg23
I00
sg24
S'L'
sbsg25
(irule
FeatureMatrix
p5346
(dp5347
g28
(lp5348
(I00
g4911
tp5349
asg22
Nsbsg31
(irule
Guard
p5350
(dp5351
g18
I00
sg19
(lp5352
(irule
FeatureMatrix
p5353
(dp5354
g28
(lp5355
sg22
Nsba(irule
FeatureMatrix
p5356
(dp5357
g28
(lp5358
(I00
S'coronal'
p5359
tp5360
asg22
Nsbasg21
I00
sg22
Nsg23
I00
sg24
S'R'
sbsg35
(irule
FeatureMatrix
p5361
(dp5362
g28
(lp5363
sg22
Nsbsg22
Nsba(irule
Rule
p5364
(dp5365
g15
(irule
Guard
p5366
(dp5367
g18
I00
sg19
(lp5368
sg21
I00
sg22
Nsg23
I00
sg24
S'L'
sbsg25
(irule
FeatureMatrix
p5369
(dp5370
g28
(lp5371
(I00
g4911
tp5372
asg22
Nsbsg31
(irule
Guard
p5373
(dp5374
g18
I00
sg19
(lp5375
(irule
FeatureMatrix
p5376
(dp5377
g28
(lp5378
(I00
g4972
tp5379
asg22
Nsba(irule
FeatureMatrix
p5380
(dp5381
g28
(lp5382
sg22
Nsbasg21
I00
sg22
Nsg23
I00
sg24
S'R'
sbsg35
(irule
FeatureMatrix
p5383
(dp5384
g28
(lp5385
sg22
Nsbsg22
Nsba(irule
Rule
p5386
(dp5387
g15
(irule
Guard
p5388
(dp5389
g18
I00
sg19
(lp5390
sg21
I00
sg22
Nsg23
I00
sg24
S'L'
sbsg25
(irule
FeatureMatrix
p5391
(dp5392
g28
(lp5393
(I00
g4911
tp5394
asg22
Nsbsg31
(irule
Guard
p5395
(dp5396
g18
I00
sg19
(lp5397
(irule
FeatureMatrix
p5398
(dp5399
g28
(lp5400
sg22
Nsba(irule
FeatureMatrix
p5401
(dp5402
g28
(lp5403
(I00
S'lateral'
p5404
tp5405
asg22
Nsbasg21
I00
sg22
Nsg23
I00
sg24
S'R'
sbsg35
(irule
FeatureMatrix
p5406
(dp5407
g28
(lp5408
sg22
Nsbsg22
Nsba(irule
Rule
p5409
(dp5410
g15
(irule
Guard
p5411
(dp5412
g18
I00
sg19
(lp5413
sg21
I00
sg22
Nsg23
I00
sg24
S'L'
sbsg25
(irule
FeatureMatrix
p5414
(dp5415
g28
(lp5416
(I00
g4911
tp5417
asg22
Nsbsg31
(irule
Guard
p5418
(dp5419
g18
I00
sg19
(lp5420
(irule
FeatureMatrix
p5421
(dp5422
g28
(lp5423
sg22
Nsba(irule
FeatureMatrix
p5424
(dp5425
g28
(lp5426
(I00
g5153
tp5427
asg22
Nsbasg21
I00
sg22
Nsg23
I00
sg24
S'R'
sbsg35
(irule
FeatureMatrix
p5428
(dp5429
g28
(lp5430
sg22
Nsbsg22
Nsba(irule
Rule
p5431
(dp5432
g15
(irule
Guard
p5433
(dp5434
g18
I00
sg19
(lp5435
sg21
I00
sg22
Nsg23
I00
sg24
S'L'
sbsg25
(irule
FeatureMatrix
p5436
(dp5437
g28
(lp5438
(I00
g4911
tp5439
asg22
Nsbsg31
(irule
Guard
p5440
(dp5441
g18
I00
sg19
(lp5442
(irule
FeatureMatrix
p5443
(dp5444
g28
(lp5445
(I00
g4995
tp5446
asg22
Nsba(irule
FeatureMatrix
p5447
(dp5448
g28
(lp5449
sg22
Nsbasg21
I00
sg22
Nsg23
I00
sg24
S'R'
sbsg35
(irule
FeatureMatrix
p5450
(dp5451
g28
(lp5452
sg22
Nsbsg22
Nsba(irule
Rule
p5453
(dp5454
g15
(irule
Guard
p5455
(dp5456
g18
I00
sg19
(lp5457
sg21
I00
sg22
Nsg23
I00
sg24
S'L'
sbsg25
(irule
FeatureMatrix
p5458
(dp5459
g28
(lp5460
(I00
g4911
tp5461
asg22
Nsbsg31
(irule
Guard
p5462
(dp5463
g18
I00
sg19
(lp5464
(irule
FeatureMatrix
p5465
(dp5466
g28
(lp5467
(I00
g5065
tp5468
asg22
Nsba(irule
FeatureMatrix
p5469
(dp5470
g28
(lp5471
sg22
Nsbasg21
I00
sg22
Nsg23
I00
sg24
S'R'
sbsg35
(irule
FeatureMatrix
p5472
(dp5473
g28
(lp5474
sg22
Nsbsg22
Nsba(irule
Rule
p5475
(dp5476
g15
(irule
Guard
p5477
(dp5478
g18
I00
sg19
(lp5479
sg21
I00
sg22
Nsg23
I00
sg24
S'L'
sbsg25
(irule
FeatureMatrix
p5480
(dp5481
g28
(lp5482
(I00
g4911
tp5483
asg22
Nsbsg31
(irule
Guard
p5484
(dp5485
g18
I00
sg19
(lp5486
(irule
FeatureMatrix
p5487
(dp5488
g28
(lp5489
sg22
Nsba(irule
FeatureMatrix
p5490
(dp5491
g28
(lp5492
(I00
g5021
tp5493
asg22
Nsbasg21
I00
sg22
Nsg23
I00
sg24
S'R'
sbsg35
(irule
FeatureMatrix
p5494
(dp5495
g28
(lp5496
sg22
Nsbsg22
Nsba(irule
Rule
p5497
(dp5498
g15
(irule
Guard
p5499
(dp5500
g18
I00
sg19
(lp5501
sg21
I00
sg22
Nsg23
I00
sg24
S'L'
sbsg25
(irule
FeatureMatrix
p5502
(dp5503
g28
(lp5504
(I00
g4911
tp5505
asg22
Nsbsg31
(irule
Guard
p5506
(dp5507
g18
I00
sg19
(lp5508
(irule
FeatureMatrix
p5509
(dp5510
g28
(lp5511
(I00
g4911
tp5512
asg22
Nsba(irule
FeatureMatrix
p5513
(dp5514
g28
(lp5515
sg22
Nsbasg21
I00
sg22
Nsg23
I00
sg24
S'R'
sbsg35
(irule
FeatureMatrix
p5516
(dp5517
g28
(lp5518
sg22
Nsbsg22
Nsba(irule
Rule
p5519
(dp5520
g15
(irule
Guard
p5521
(dp5522
g18
I00
sg19
(lp5523
sg21
I00
sg22
Nsg23
I00
sg24
S'L'
sbsg25
(irule
FeatureMatrix
p5524
(dp5525
g28
(lp5526
(I00
g4911
tp5527
asg22
Nsbsg31
(irule
Guard
p5528
(dp5529
g18
I00
sg19
(lp5530
(irule
FeatureMatrix
p5531
(dp5532
g28
(lp5533
(I00
g5101
tp5534
asg22
Nsba(irule
FeatureMatrix
p5535
(dp5536
g28
(lp5537
sg22
Nsbasg21
I00
sg22
Nsg23
I00
sg24
S'R'
sbsg35
(irule
FeatureMatrix
p5538
(dp5539
g28
(lp5540
sg22
Nsbsg22
Nsba(irule
Rule
p5541
(dp5542
g15
(irule
Guard
p5543
(dp5544
g18
I00
sg19
(lp5545
sg21
I00
sg22
Nsg23
I00
sg24
S'L'
sbsg25
(irule
FeatureMatrix
p5546
(dp5547
g28
(lp5548
(I00
g4911
tp5549
asg22
Nsbsg31
(irule
Guard
p5550
(dp5551
g18
I00
sg19
(lp5552
(irule
FeatureMatrix
p5553
(dp5554
g28
(lp5555
sg22
Nsba(irule
FeatureMatrix
p5556
(dp5557
g28
(lp5558
sg22
Nsbasg21
I00
sg22
Nsg23
I00
sg24
S'R'
sbsg35
(irule
FeatureMatrix
p5559
(dp5560
g28
(lp5561
(I01
g4972
tp5562
asg22
Nsbsg22
Nsba(irule
Rule
p5563
(dp5564
g15
(irule
Guard
p5565
(dp5566
g18
I00
sg19
(lp5567
sg21
I00
sg22
Nsg23
I00
sg24
S'L'
sbsg25
(irule
FeatureMatrix
p5568
(dp5569
g28
(lp5570
(I00
g4911
tp5571
asg22
Nsbsg31
(irule
Guard
p5572
(dp5573
g18
I00
sg19
(lp5574
(irule
FeatureMatrix
p5575
(dp5576
g28
(lp5577
sg22
Nsba(irule
FeatureMatrix
p5578
(dp5579
g28
(lp5580
sg22
Nsbasg21
I00
sg22
Nsg23
I00
sg24
S'R'
sbsg35
(irule
FeatureMatrix
p5581
(dp5582
g28
(lp5583
(I00
g4995
tp5584
asg22
Nsbsg22
Nsba(irule
Rule
p5585
(dp5586
g15
(irule
Guard
p5587
(dp5588
g18
I00
sg19
(lp5589
sg21
I00
sg22
Nsg23
I00
sg24
S'L'
sbsg25
(irule
FeatureMatrix
p5590
(dp5591
g28
(lp5592
(I00
g4911
tp5593
asg22
Nsbsg31
(irule
Guard
p5594
(dp5595
g18
I00
sg19
(lp5596
(irule
FeatureMatrix
p5597
(dp5598
g28
(lp5599
sg22
Nsba(irule
FeatureMatrix
p5600
(dp5601
g28
(lp5602
sg22
Nsbasg21
I00
sg22
Nsg23
I00
sg24
S'R'
sbsg35
(irule
FeatureMatrix
p5603
(dp5604
g28
(lp5605
(I00
g5101
tp5606
asg22
Nsbsg22
Nsba(irule
Rule
p5607
(dp5608
g15
(irule
Guard
p5609
(dp5610
g18
I00
sg19
(lp5611
sg21
I00
sg22
Nsg23
I00
sg24
S'L'
sbsg25
(irule
FeatureMatrix
p5612
(dp5613
g28
(lp5614
(I00
g4911
tp5615
asg22
Nsbsg31
(irule
Guard
p5616
(dp5617
g18
I00
sg19
(lp5618
(irule
FeatureMatrix
p5619
(dp5620
g28
(lp5621
sg22
Nsba(irule
FeatureMatrix
p5622
(dp5623
g28
(lp5624
sg22
Nsbasg21
I00
sg22
Nsg23
I00
sg24
S'R'
sbsg35
(irule
FeatureMatrix
p5625
(dp5626
g28
(lp5627
(I01
g5088
tp5628
asg22
Nsbsg22
Nsba(irule
Rule
p5629
(dp5630
g15
(irule
Guard
p5631
(dp5632
g18
I00
sg19
(lp5633
sg21
I00
sg22
Nsg23
I00
sg24
S'L'
sbsg25
(irule
FeatureMatrix
p5634
(dp5635
g28
(lp5636
(I00
g4911
tp5637
asg22
Nsbsg31
(irule
Guard
p5638
(dp5639
g18
I00
sg19
(lp5640
(irule
FeatureMatrix
p5641
(dp5642
g28
(lp5643
sg22
Nsba(irule
FeatureMatrix
p5644
(dp5645
g28
(lp5646
sg22
Nsbasg21
I00
sg22
Nsg23
I00
sg24
S'R'
sbsg35
(irule
FeatureMatrix
p5647
(dp5648
g28
(lp5649
(I01
g4911
tp5650
asg22
Nsbsg22
Nsba(irule
Rule
p5651
(dp5652
g15
(irule
Guard
p5653
(dp5654
g18
I00
sg19
(lp5655
sg21
I00
sg22
Nsg23
I00
sg24
S'L'
sbsg25
(irule
FeatureMatrix
p5656
(dp5657
g28
(lp5658
(I00
g4911
tp5659
asg22
Nsbsg31
(irule
Guard
p5660
(dp5661
g18
I00
sg19
(lp5662
(irule
FeatureMatrix
p5663
(dp5664
g28
(lp5665
sg22
Nsba(irule
FeatureMatrix
p5666
(dp5667
g28
(lp5668
sg22
Nsbasg21
I00
sg22
Nsg23
I00
sg24
S'R'
sbsg35
(irule
FeatureMatrix
p5669
(dp5670
g28
(lp5671
(I01
g5065
tp5672
asg22
Nsbsg22
Nsba(irule
Rule
p5673
(dp5674
g15
(irule
Guard
p5675
(dp5676
g18
I00
sg19
(lp5677
sg21
I00
sg22
Nsg23
I00
sg24
S'L'
sbsg25
(irule
FeatureMatrix
p5678
(dp5679
g28
(lp5680
(I00
g4911
tp5681
asg22
Nsbsg31
(irule
Guard
p5682
(dp5683
g18
I00
sg19
(lp5684
(irule
FeatureMatrix
p5685
(dp5686
g28
(lp5687
sg22
Nsba(irule
FeatureMatrix
p5688
(dp5689
g28
(lp5690
sg22
Nsbasg21
I00
sg22
Nsg23
I00
sg24
S'R'
sbsg35
(irule
FeatureMatrix
p5691
(dp5692
g28
(lp5693
(I00
g5359
tp5694
asg22
Nsbsg22
Nsba(irule
Rule
p5695
(dp5696
g15
(irule
Guard
p5697
(dp5698
g18
I00
sg19
(lp5699
sg21
I00
sg22
Nsg23
I00
sg24
S'L'
sbsg25
(irule
FeatureMatrix
p5700
(dp5701
g28
(lp5702
(I00
g4911
tp5703
asg22
Nsbsg31
(irule
Guard
p5704
(dp5705
g18
I00
sg19
(lp5706
(irule
FeatureMatrix
p5707
(dp5708
g28
(lp5709
sg22
Nsba(irule
FeatureMatrix
p5710
(dp5711
g28
(lp5712
sg22
Nsbasg21
I00
sg22
Nsg23
I00
sg24
S'R'
sbsg35
(irule
FeatureMatrix
p5713
(dp5714
g28
(lp5715
(I00
g5404
tp5716
asg22
Nsbsg22
Nsba(irule
Rule
p5717
(dp5718
g15
(irule
Guard
p5719
(dp5720
g18
I00
sg19
(lp5721
sg21
I00
sg22
Nsg23
I00
sg24
S'L'
sbsg25
(irule
FeatureMatrix
p5722
(dp5723
g28
(lp5724
(I00
g4911
tp5725
asg22
Nsbsg31
(irule
Guard
p5726
(dp5727
g18
I00
sg19
(lp5728
(irule
FeatureMatrix
p5729
(dp5730
g28
(lp5731
sg22
Nsba(irule
FeatureMatrix
p5732
(dp5733
g28
(lp5734
sg22
Nsbasg21
I00
sg22
Nsg23
I00
sg24
S'R'
sbsg35
(irule
FeatureMatrix
p5735
(dp5736
g28
(lp5737
(I00
g5246
tp5738
asg22
Nsbsg22
Nsba(irule
Rule
p5739
(dp5740
g15
(irule
Guard
p5741
(dp5742
g18
I00
sg19
(lp5743
sg21
I00
sg22
Nsg23
I00
sg24
S'L'
sbsg25
(irule
FeatureMatrix
p5744
(dp5745
g28
(lp5746
(I00
g4911
tp5747
asg22
Nsbsg31
(irule
Guard
p5748
(dp5749
g18
I00
sg19
(lp5750
(irule
FeatureMatrix
p5751
(dp5752
g28
(lp5753
sg22
Nsba(irule
FeatureMatrix
p5754
(dp5755
g28
(lp5756
sg22
Nsbasg21
I00
sg22
Nsg23
I00
sg24
S'R'
sbsg35
(irule
FeatureMatrix
p5757
(dp5758
g28
(lp5759
(I01
g5269
tp5760
asg22
Nsbsg22
Nsba(irule
Rule
p5761
(dp5762
g15
(irule
Guard
p5763
(dp5764
g18
I00
sg19
(lp5765
sg21
I00
sg22
Nsg23
I00
sg24
S'L'
sbsg25
(irule
FeatureMatrix
p5766
(dp5767
g28
(lp5768
(I00
g4911
tp5769
asg22
Nsbsg31
(irule
Guard
p5770
(dp5771
g18
I00
sg19
(lp5772
(irule
FeatureMatrix
p5773
(dp5774
g28
(lp5775
sg22
Nsba(irule
FeatureMatrix
p5776
(dp5777
g28
(lp5778
sg22
Nsbasg21
I00
sg22
Nsg23
I00
sg24
S'R'
sbsg35
(irule
FeatureMatrix
p5779
(dp5780
g28
(lp5781
(I01
g4949
tp5782
asg22
Nsbsg22
Nsba(irule
Rule
p5783
(dp5784
g15
(irule
Guard
p5785
(dp5786
g18
I00
sg19
(lp5787
sg21
I00
sg22
Nsg23
I00
sg24
S'L'
sbsg25
(irule
FeatureMatrix
p5788
(dp5789
g28
(lp5790
(I00
g4911
tp5791
asg22
Nsbsg31
(irule
Guard
p5792
(dp5793
g18
I00
sg19
(lp5794
(irule
FeatureMatrix
p5795
(dp5796
g28
(lp5797
sg22
Nsba(irule
FeatureMatrix
p5798
(dp5799
g28
(lp5800
(I01
g4949
tp5801
asg22
Nsbasg21
I00
sg22
Nsg23
I00
sg24
S'R'
sbsg35
(irule
FeatureMatrix
p5802
(dp5803
g28
(lp5804
(I01
g4911
tp5805
asg22
Nsbsg22
Nsba(irule
Rule
p5806
(dp5807
g15
(irule
Guard
p5808
(dp5809
g18
I00
sg19
(lp5810
sg21
I00
sg22
Nsg23
I00
sg24
S'L'
sbsg25
(irule
FeatureMatrix
p5811
(dp5812
g28
(lp5813
(I00
g4911
tp5814
a(I00
g4995
tp5815
asg22
Nsbsg31
(irule
Guard
p5816
(dp5817
g18
I00
sg19
(lp5818
(irule
FeatureMatrix
p5819
(dp5820
g28
(lp5821
sg22
Nsba(irule
FeatureMatrix
p5822
(dp5823
g28
(lp5824
(I00
g5246
tp5825
asg22
Nsbasg21
I00
sg22
Nsg23
I00
sg24
S'R'
sbsg35
(irule
FeatureMatrix
p5826
(dp5827
g28
(lp5828
sg22
Nsbsg22
Nsba(irule
Rule
p5829
(dp5830
g15
(irule
Guard
p5831
(dp5832
g18
I00
sg19
(lp5833
(irule
FeatureMatrix
p5834
(dp5835
g28
(lp5836
sg22
Nsbasg21
I00
sg22
Nsg23
I00
sg24
S'L'
sbsg25
(irule
FeatureMatrix
p5837
(dp5838
g28
(lp5839
(I00
g4911
tp5840
a(I00
g4995
tp5841
asg22
Nsbsg31
(irule
Guard
p5842
(dp5843
g18
I00
sg19
(lp5844
(irule
FeatureMatrix
p5845
(dp5846
g28
(lp5847
sg22
Nsba(irule
FeatureMatrix
p5848
(dp5849
g28
(lp5850
sg22
Nsbasg21
I00
sg22
Nsg23
I00
sg24
S'R'
sbsg35
(irule
FeatureMatrix
p5851
(dp5852
g28
(lp5853
sg22
Nsbsg22
Nsba(irule
Rule
p5854
(dp5855
g15
(irule
Guard
p5856
(dp5857
g18
I00
sg19
(lp5858
sg21
I00
sg22
Nsg23
I00
sg24
S'L'
sbsg25
(irule
FeatureMatrix
p5859
(dp5860
g28
(lp5861
(I00
g4911
tp5862
a(I00
g5153
tp5863
asg22
Nsbsg31
(irule
Guard
p5864
(dp5865
g18
I00
sg19
(lp5866
(irule
FeatureMatrix
p5867
(dp5868
g28
(lp5869
sg22
Nsba(irule
FeatureMatrix
p5870
(dp5871
g28
(lp5872
sg22
Nsbasg21
I00
sg22
Nsg23
I00
sg24
S'R'
sbsg35
(irule
FeatureMatrix
p5873
(dp5874
g28
(lp5875
(I00
g5153
tp5876
asg22
Nsbsg22
Nsba(irule
Rule
p5877
(dp5878
g15
(irule
Guard
p5879
(dp5880
g18
I00
sg19
(lp5881
sg21
I00
sg22
Nsg23
I00
sg24
S'L'
sbsg25
(irule
FeatureMatrix
p5882
(dp5883
g28
(lp5884
(I00
g4911
tp5885
asg22
Nsbsg31
(irule
Guard
p5886
(dp5887
g18
I00
sg19
(lp5888
(irule
FeatureMatrix
p5889
(dp5890
g28
(lp5891
sg22
Nsba(irule
FeatureMatrix
p5892
(dp5893
g28
(lp5894
(I01
g4949
tp5895
asg22
Nsbasg21
I00
sg22
Nsg23
I00
sg24
S'R'
sbsg35
(irule
FeatureMatrix
p5896
(dp5897
g28
(lp5898
(I01
g4949
tp5899
asg22
Nsbsg22
Nsba(irule
Rule
p5900
(dp5901
g15
(irule
Guard
p5902
(dp5903
g18
I00
sg19
(lp5904
sg21
I00
sg22
Nsg23
I00
sg24
S'L'
sbsg25
(irule
FeatureMatrix
p5905
(dp5906
g28
(lp5907
(I00
g4911
tp5908
asg22
Nsbsg31
(irule
Guard
p5909
(dp5910
g18
I00
sg19
(lp5911
(irule
FeatureMatrix
p5912
(dp5913
g28
(lp5914
sg22
Nsba(irule
FeatureMatrix
p5915
(dp5916
g28
(lp5917
(I01
g4949
tp5918
asg22
Nsbasg21
I00
sg22
Nsg23
I00
sg24
S'R'
sbsg35
(irule
FeatureMatrix
p5919
(dp5920
g28
(lp5921
(I00
g5153
tp5922
asg22
Nsbsg22
Nsba(irule
Rule
p5923
(dp5924
g15
(irule
Guard
p5925
(dp5926
g18
I00
sg19
(lp5927
sg21
I00
sg22
Nsg23
I00
sg24
S'L'
sbsg25
(irule
FeatureMatrix
p5928
(dp5929
g28
(lp5930
(I00
g4911
tp5931
a(I01
g4972
tp5932
asg22
Nsbsg31
(irule
Guard
p5933
(dp5934
g18
I00
sg19
(lp5935
(irule
FeatureMatrix
p5936
(dp5937
g28
(lp5938
sg22
Nsba(irule
FeatureMatrix
p5939
(dp5940
g28
(lp5941
sg22
Nsbasg21
I00
sg22
Nsg23
I00
sg24
S'R'
sbsg35
(irule
FeatureMatrix
p5942
(dp5943
g28
(lp5944
(I01
g4911
tp5945
asg22
Nsbsg22
Nsba(irule
Rule
p5946
(dp5947
g15
(irule
Guard
p5948
(dp5949
g18
I00
sg19
(lp5950
sg21
I00
sg22
Nsg23
I00
sg24
S'L'
sbsg25
(irule
FeatureMatrix
p5951
(dp5952
g28
(lp5953
(I00
g4911
tp5954
asg22
Nsbsg31
(irule
Guard
p5955
(dp5956
g18
I00
sg19
(lp5957
(irule
FeatureMatrix
p5958
(dp5959
g28
(lp5960
sg22
Nsba(irule
FeatureMatrix
p5961
(dp5962
g28
(lp5963
(I01
g5088
tp5964
asg22
Nsbasg21
I00
sg22
Nsg23
I00
sg24
S'R'
sbsg35
(irule
FeatureMatrix
p5965
(dp5966
g28
(lp5967
(I01
g4972
tp5968
asg22
Nsbsg22
Nsba(irule
Rule
p5969
(dp5970
g15
(irule
Guard
p5971
(dp5972
g18
I00
sg19
(lp5973
sg21
I00
sg22
Nsg23
I00
sg24
S'L'
sbsg25
(irule
FeatureMatrix
p5974
(dp5975
g28
(lp5976
(I00
g5021
tp5977
a(I00
g4911
tp5978
asg22
Nsbsg31
(irule
Guard
p5979
(dp5980
g18
I00
sg19
(lp5981
(irule
FeatureMatrix
p5982
(dp5983
g28
(lp5984
sg22
Nsba(irule
FeatureMatrix
p5985
(dp5986
g28
(lp5987
sg22
Nsbasg21
I00
sg22
Nsg23
I00
sg24
S'R'
sbsg35
(irule
FeatureMatrix
p5988
(dp5989
g28
(lp5990
(I01
g4972
tp5991
asg22
Nsbsg22
Nsba(irule
Rule
p5992
(dp5993
g15
(irule
Guard
p5994
(dp5995
g18
I00
sg19
(lp5996
(irule
FeatureMatrix
p5997
(dp5998
g28
(lp5999
sg22
Nsbasg21
I00
sg22
Nsg23
I00
sg24
S'L'
sbsg25
(irule
FeatureMatrix
p6000
(dp6001
g28
(lp6002
(I00
g4911
tp6003
asg22
Nsbsg31
(irule
Guard
p6004
(dp6005
g18
I00
sg19
(lp6006
(irule
FeatureMatrix
p6007
(dp6008
g28
(lp6009
sg22
Nsba(irule
FeatureMatrix
p6010
(dp6011
g28
(lp6012
(I01
g4949
tp6013
asg22
Nsbasg21
I00
sg22
Nsg23
I00
sg24
S'R'
sbsg35
(irule
FeatureMatrix
p6014
(dp6015
g28
(lp6016
sg22
Nsbsg22
Nsba(irule
Rule
p6017
(dp6018
g15
(irule
Guard
p6019
(dp6020
g18
I00
sg19
(lp6021
sg21
I00
sg22
Nsg23
I00
sg24
S'L'
sbsg25
(irule
FeatureMatrix
p6022
(dp6023
g28
(lp6024
(I00
g4911
tp6025
asg22
Nsbsg31
(irule
Guard
p6026
(dp6027
g18
I00
sg19
(lp6028
(irule
FeatureMatrix
p6029
(dp6030
g28
(lp6031
(I00
g4972
tp6032
asg22
Nsba(irule
FeatureMatrix
p6033
(dp6034
g28
(lp6035
sg22
Nsbasg21
I00
sg22
Nsg23
I00
sg24
S'R'
sbsg35
(irule
FeatureMatrix
p6036
(dp6037
g28
(lp6038
(I00
g5153
tp6039
asg22
Nsbsg22
Nsba(irule
Rule
p6040
(dp6041
g15
(irule
Guard
p6042
(dp6043
g18
I00
sg19
(lp6044
sg21
I00
sg22
Nsg23
I00
sg24
S'L'
sbsg25
(irule
FeatureMatrix
p6045
(dp6046
g28
(lp6047
(I00
g4911
tp6048
asg22
Nsbsg31
(irule
Guard
p6049
(dp6050
g18
I00
sg19
(lp6051
(irule
FeatureMatrix
p6052
(dp6053
g28
(lp6054
sg22
Nsba(irule
FeatureMatrix
p6055
(dp6056
g28
(lp6057
(I01
g4949
tp6058
a(I00
g5404
tp6059
asg22
Nsbasg21
I00
sg22
Nsg23
I00
sg24
S'R'
sbsg35
(irule
FeatureMatrix
p6060
(dp6061
g28
(lp6062
sg22
Nsbsg22
Nsba(irule
Rule
p6063
(dp6064
g15
(irule
Guard
p6065
(dp6066
g18
I00
sg19
(lp6067
sg21
I00
sg22
Nsg23
I00
sg24
S'L'
sbsg25
(irule
FeatureMatrix
p6068
(dp6069
g28
(lp6070
(I00
g4911
tp6071
asg22
Nsbsg31
(irule
Guard
p6072
(dp6073
g18
I00
sg19
(lp6074
(irule
FeatureMatrix
p6075
(dp6076
g28
(lp6077
sg22
Nsba(irule
FeatureMatrix
p6078
(dp6079
g28
(lp6080
(I00
g5101
tp6081
a(I01
g5269
tp6082
asg22
Nsbasg21
I00
sg22
Nsg23
I00
sg24
S'R'
sbsg35
(irule
FeatureMatrix
p6083
(dp6084
g28
(lp6085
sg22
Nsbsg22
Nsba(irule
Rule
p6086
(dp6087
g15
(irule
Guard
p6088
(dp6089
g18
I00
sg19
(lp6090
sg21
I00
sg22
Nsg23
I00
sg24
S'L'
sbsg25
(irule
FeatureMatrix
p6091
(dp6092
g28
(lp6093
(I00
g5101
tp6094
a(I00
g4911
tp6095
a(I00
g4995
tp6096
asg22
Nsbsg31
(irule
Guard
p6097
(dp6098
g18
I00
sg19
(lp6099
(irule
FeatureMatrix
p6100
(dp6101
g28
(lp6102
sg22
Nsba(irule
FeatureMatrix
p6103
(dp6104
g28
(lp6105
sg22
Nsbasg21
I00
sg22
Nsg23
I00
sg24
S'R'
sbsg35
(irule
FeatureMatrix
p6106
(dp6107
g28
(lp6108
sg22
Nsbsg22
Nsba(irule
Rule
p6109
(dp6110
g15
(irule
Guard
p6111
(dp6112
g18
I00
sg19
(lp6113
sg21
I00
sg22
Nsg23
I00
sg24
S'L'
sbsg25
(irule
FeatureMatrix
p6114
(dp6115
g28
(lp6116
(I00
g4911
tp6117
asg22
Nsbsg31
(irule
Guard
p6118
(dp6119
g18
I00
sg19
(lp6120
(irule
FeatureMatrix
p6121
(dp6122
g28
(lp6123
sg22
Nsba(irule
FeatureMatrix
p6124
(dp6125
g28
(lp6126
sg22
Nsbasg21
I00
sg22
Nsg23
I00
sg24
S'R'
sbsg35
(irule
FeatureMatrix
p6127
(dp6128
g28
(lp6129
(I00
g4995
tp6130
a(I01
g4972
tp6131
asg22
Nsbsg22
Nsba(irule
Rule
p6132
(dp6133
g15
(irule
Guard
p6134
(dp6135
g18
I00
sg19
(lp6136
sg21
I00
sg22
Nsg23
I00
sg24
S'L'
sbsg25
(irule
FeatureMatrix
p6137
(dp6138
g28
(lp6139
(I00
g4911
tp6140
asg22
Nsbsg31
(irule
Guard
p6141
(dp6142
g18
I00
sg19
(lp6143
(irule
FeatureMatrix
p6144
(dp6145
g28
(lp6146
sg22
Nsba(irule
FeatureMatrix
p6147
(dp6148
g28
(lp6149
(I01
g5065
tp6150
asg22
Nsbasg21
I00
sg22
Nsg23
I00
sg24
S'R'
sbsg35
(irule
FeatureMatrix
p6151
(dp6152
g28
(lp6153
(I01
g5088
tp6154
asg22
Nsbsg22
Nsba(irule
Rule
p6155
(dp6156
g15
(irule
Guard
p6157
(dp6158
g18
I00
sg19
(lp6159
sg21
I00
sg22
Nsg23
I00
sg24
S'L'
sbsg25
(irule
FeatureMatrix
p6160
(dp6161
g28
(lp6162
(I00
g5292
tp6163
a(I00
g4911
tp6164
asg22
Nsbsg31
(irule
Guard
p6165
(dp6166
g18
I00
sg19
(lp6167
(irule
FeatureMatrix
p6168
(dp6169
g28
(lp6170
sg22
Nsba(irule
FeatureMatrix
p6171
(dp6172
g28
(lp6173
sg22
Nsbasg21
I00
sg22
Nsg23
I00
sg24
S'R'
sbsg35
(irule
FeatureMatrix
p6174
(dp6175
g28
(lp6176
(I01
g4972
tp6177
asg22
Nsbsg22
Nsba(irule
Rule
p6178
(dp6179
g15
(irule
Guard
p6180
(dp6181
g18
I00
sg19
(lp6182
sg21
I00
sg22
Nsg23
I00
sg24
S'L'
sbsg25
(irule
FeatureMatrix
p6183
(dp6184
g28
(lp6185
(I00
g4911
tp6186
a(I00
g4995
tp6187
asg22
Nsbsg31
(irule
Guard
p6188
(dp6189
g18
I00
sg19
(lp6190
(irule
FeatureMatrix
p6191
(dp6192
g28
(lp6193
(I00
g5153
tp6194
asg22
Nsba(irule
FeatureMatrix
p6195
(dp6196
g28
(lp6197
sg22
Nsbasg21
I00
sg22
Nsg23
I00
sg24
S'R'
sbsg35
(irule
FeatureMatrix
p6198
(dp6199
g28
(lp6200
sg22
Nsbsg22
Nsba(irule
Rule
p6201
(dp6202
g15
(irule
Guard
p6203
(dp6204
g18
I00
sg19
(lp6205
sg21
I00
sg22
Nsg23
I00
sg24
S'L'
sbsg25
(irule
FeatureMatrix
p6206
(dp6207
g28
(lp6208
(I00
g4911
tp6209
asg22
Nsbsg31
(irule
Guard
p6210
(dp6211
g18
I00
sg19
(lp6212
(irule
FeatureMatrix
p6213
(dp6214
g28
(lp6215
(I00
g4972
tp6216
asg22
Nsba(irule
FeatureMatrix
p6217
(dp6218
g28
(lp6219
(I01
g4949
tp6220
asg22
Nsbasg21
I00
sg22
Nsg23
I00
sg24
S'R'
sbsg35
(irule
FeatureMatrix
p6221
(dp6222
g28
(lp6223
sg22
Nsbsg22
Nsba(irule
Rule
p6224
(dp6225
g15
(irule
Guard
p6226
(dp6227
g18
I00
sg19
(lp6228
sg21
I00
sg22
Nsg23
I00
sg24
S'L'
sbsg25
(irule
FeatureMatrix
p6229
(dp6230
g28
(lp6231
(I00
g4911
tp6232
asg22
Nsbsg31
(irule
Guard
p6233
(dp6234
g18
I00
sg19
(lp6235
(irule
FeatureMatrix
p6236
(dp6237
g28
(lp6238
sg22
Nsba(irule
FeatureMatrix
p6239
(dp6240
g28
(lp6241
(I01
g4972
tp6242
asg22
Nsbasg21
I00
sg22
Nsg23
I00
sg24
S'R'
sbsg35
(irule
FeatureMatrix
p6243
(dp6244
g28
(lp6245
(I00
g5153
tp6246
asg22
Nsbsg22
Nsba(irule
Rule
p6247
(dp6248
g15
(irule
Guard
p6249
(dp6250
g18
I00
sg19
(lp6251
sg21
I00
sg22
Nsg23
I00
sg24
S'L'
sbsg25
(irule
FeatureMatrix
p6252
(dp6253
g28
(lp6254
(I01
g4949
tp6255
a(I00
g4911
tp6256
asg22
Nsbsg31
(irule
Guard
p6257
(dp6258
g18
I00
sg19
(lp6259
(irule
FeatureMatrix
p6260
(dp6261
g28
(lp6262
sg22
Nsba(irule
FeatureMatrix
p6263
(dp6264
g28
(lp6265
sg22
Nsbasg21
I00
sg22
Nsg23
I00
sg24
S'R'
sbsg35
(irule
FeatureMatrix
p6266
(dp6267
g28
(lp6268
(I01
g4911
tp6269
asg22
Nsbsg22
Nsba(irule
Rule
p6270
(dp6271
g15
(irule
Guard
p6272
(dp6273
g18
I00
sg19
(lp6274
sg21
I00
sg22
Nsg23
I00
sg24
S'L'
sbsg25
(irule
FeatureMatrix
p6275
(dp6276
g28
(lp6277
(I00
g4911
tp6278
asg22
Nsbsg31
(irule
Guard
p6279
(dp6280
g18
I00
sg19
(lp6281
(irule
FeatureMatrix
p6282
(dp6283
g28
(lp6284
(I00
g4972
tp6285
asg22
Nsba(irule
FeatureMatrix
p6286
(dp6287
g28
(lp6288
(I01
g5065
tp6289
asg22
Nsbasg21
I00
sg22
Nsg23
I00
sg24
S'R'
sbsg35
(irule
FeatureMatrix
p6290
(dp6291
g28
(lp6292
sg22
Nsbsg22
Nsba(irule
Rule
p6293
(dp6294
g15
(irule
Guard
p6295
(dp6296
g18
I00
sg19
(lp6297
sg21
I00
sg22
Nsg23
I00
sg24
S'L'
sbsg25
(irule
FeatureMatrix
p6298
(dp6299
g28
(lp6300
(I00
g4911
tp6301
asg22
Nsbsg31
(irule
Guard
p6302
(dp6303
g18
I00
sg19
(lp6304
(irule
FeatureMatrix
p6305
(dp6306
g28
(lp6307
(I00
g4972
tp6308
asg22
Nsba(irule
FeatureMatrix
p6309
(dp6310
g28
(lp6311
(I01
g4972
tp6312
asg22
Nsbasg21
I00
sg22
Nsg23
I00
sg24
S'R'
sbsg35
(irule
FeatureMatrix
p6313
(dp6314
g28
(lp6315
sg22
Nsbsg22
Nsba(irule
Rule
p6316
(dp6317
g15
(irule
Guard
p6318
(dp6319
g18
I00
sg19
(lp6320
sg21
I00
sg22
Nsg23
I00
sg24
S'L'
sbsg25
(irule
FeatureMatrix
p6321
(dp6322
g28
(lp6323
(I00
g4911
tp6324
asg22
Nsbsg31
(irule
Guard
p6325
(dp6326
g18
I00
sg19
(lp6327
(irule
FeatureMatrix
p6328
(dp6329
g28
(lp6330
sg22
Nsba(irule
FeatureMatrix
p6331
(dp6332
g28
(lp6333
(I01
g5269
tp6334
asg22
Nsbasg21
I00
sg22
Nsg23
I00
sg24
S'R'
sbsg35
(irule
FeatureMatrix
p6335
(dp6336
g28
(lp6337
(I01
g4911
tp6338
asg22
Nsbsg22
Nsba(irule
Rule
p6339
(dp6340
g15
(irule
Guard
p6341
(dp6342
g18
I00
sg19
(lp6343
sg21
I00
sg22
Nsg23
I00
sg24
S'L'
sbsg25
(irule
FeatureMatrix
p6344
(dp6345
g28
(lp6346
(I00
g5101
tp6347
a(I00
g4911
tp6348
asg22
Nsbsg31
(irule
Guard
p6349
(dp6350
g18
I00
sg19
(lp6351
(irule
FeatureMatrix
p6352
(dp6353
g28
(lp6354
sg22
Nsba(irule
FeatureMatrix
p6355
(dp6356
g28
(lp6357
(I01
g4949
tp6358
asg22
Nsbasg21
I00
sg22
Nsg23
I00
sg24
S'R'
sbsg35
(irule
FeatureMatrix
p6359
(dp6360
g28
(lp6361
sg22
Nsbsg22
Nsba(irule
Rule
p6362
(dp6363
g15
(irule
Guard
p6364
(dp6365
g18
I00
sg19
(lp6366
sg21
I00
sg22
Nsg23
I00
sg24
S'L'
sbsg25
(irule
FeatureMatrix
p6367
(dp6368
g28
(lp6369
(I00
g4911
tp6370
asg22
Nsbsg31
(irule
Guard
p6371
(dp6372
g18
I00
sg19
(lp6373
(irule
FeatureMatrix
p6374
(dp6375
g28
(lp6376
sg22
Nsba(irule
FeatureMatrix
p6377
(dp6378
g28
(lp6379
(I01
g4949
tp6380
a(I01
g5065
tp6381
asg22
Nsbasg21
I00
sg22
Nsg23
I00
sg24
S'R'
sbsg35
(irule
FeatureMatrix
p6382
(dp6383
g28
(lp6384
sg22
Nsbsg22
Nsba(irule
Rule
p6385
(dp6386
g15
(irule
Guard
p6387
(dp6388
g18
I00
sg19
(lp6389
sg21
I00
sg22
Nsg23
I00
sg24
S'L'
sbsg25
(irule
FeatureMatrix
p6390
(dp6391
g28
(lp6392
(I00
g4911
tp6393
asg22
Nsbsg31
(irule
Guard
p6394
(dp6395
g18
I00
sg19
(lp6396
(irule
FeatureMatrix
p6397
(dp6398
g28
(lp6399
sg22
Nsba(irule
FeatureMatrix
p6400
(dp6401
g28
(lp6402
(I01
g4949
tp6403
a(I00
g5153
tp6404
asg22
Nsbasg21
I00
sg22
Nsg23
I00
sg24
S'R'
sbsg35
(irule
FeatureMatrix
p6405
(dp6406
g28
(lp6407
sg22
Nsbsg22
Nsba(irule
Rule
p6408
(dp6409
g15
(irule
Guard
p6410
(dp6411
g18
I00
sg19
(lp6412
sg21
I00
sg22
Nsg23
I00
sg24
S'L'
sbsg25
(irule
FeatureMatrix
p6413
(dp6414
g28
(lp6415
(I00
g4911
tp6416
asg22
Nsbsg31
(irule
Guard
p6417
(dp6418
g18
I00
sg19
(lp6419
(irule
FeatureMatrix
p6420
(dp6421
g28
(lp6422
sg22
Nsba(irule
FeatureMatrix
p6423
(dp6424
g28
(lp6425
(I01
g5065
tp6426
asg22
Nsbasg21
I00
sg22
Nsg23
I00
sg24
S'R'
sbsg35
(irule
FeatureMatrix
p6427
(dp6428
g28
(lp6429
(I01
g4911
tp6430
asg22
Nsbsg22
Nsba(irule
Rule
p6431
(dp6432
g15
(irule
Guard
p6433
(dp6434
g18
I00
sg19
(lp6435
sg21
I00
sg22
Nsg23
I00
sg24
S'L'
sbsg25
(irule
FeatureMatrix
p6436
(dp6437
g28
(lp6438
(I00
g4911
tp6439
asg22
Nsbsg31
(irule
Guard
p6440
(dp6441
g18
I00
sg19
(lp6442
(irule
FeatureMatrix
p6443
(dp6444
g28
(lp6445
sg22
Nsba(irule
FeatureMatrix
p6446
(dp6447
g28
(lp6448
(I00
g5246
tp6449
asg22
Nsbasg21
I00
sg22
Nsg23
I00
sg24
S'R'
sbsg35
(irule
FeatureMatrix
p6450
(dp6451
g28
(lp6452
(I01
g4911
tp6453
asg22
Nsbsg22
Nsba(irule
Rule
p6454
(dp6455
g15
(irule
Guard
p6456
(dp6457
g18
I00
sg19
(lp6458
sg21
I00
sg22
Nsg23
I00
sg24
S'L'
sbsg25
(irule
FeatureMatrix
p6459
(dp6460
g28
(lp6461
(I00
g4911
tp6462
asg22
Nsbsg31
(irule
Guard
p6463
(dp6464
g18
I00
sg19
(lp6465
(irule
FeatureMatrix
p6466
(dp6467
g28
(lp6468
sg22
Nsba(irule
FeatureMatrix
p6469
(dp6470
g28
(lp6471
sg22
Nsbasg21
I00
sg22
Nsg23
I00
sg24
S'R'
sbsg35
(irule
FeatureMatrix
p6472
(dp6473
g28
(lp6474
(I01
g4911
tp6475
a(I00
g5153
tp6476
asg22
Nsbsg22
Nsba(irule
Rule
p6477
(dp6478
g15
(irule
Guard
p6479
(dp6480
g18
I00
sg19
(lp6481
sg21
I00
sg22
Nsg23
I00
sg24
S'L'
sbsg25
(irule
FeatureMatrix
p6482
(dp6483
g28
(lp6484
(I00
g4911
tp6485
asg22
Nsbsg31
(irule
Guard
p6486
(dp6487
g18
I00
sg19
(lp6488
(irule
FeatureMatrix
p6489
(dp6490
g28
(lp6491
(I00
g4972
tp6492
asg22
Nsba(irule
FeatureMatrix
p6493
(dp6494
g28
(lp6495
(I01
g5269
tp6496
asg22
Nsbasg21
I00
sg22
Nsg23
I00
sg24
S'R'
sbsg35
(irule
FeatureMatrix
p6497
(dp6498
g28
(lp6499
sg22
Nsbsg22
Nsba(irule
Rule
p6500
(dp6501
g15
(irule
Guard
p6502
(dp6503
g18
I00
sg19
(lp6504
sg21
I00
sg22
Nsg23
I00
sg24
S'L'
sbsg25
(irule
FeatureMatrix
p6505
(dp6506
g28
(lp6507
(I00
g4911
tp6508
asg22
Nsbsg31
(irule
Guard
p6509
(dp6510
g18
I00
sg19
(lp6511
(irule
FeatureMatrix
p6512
(dp6513
g28
(lp6514
sg22
Nsba(irule
FeatureMatrix
p6515
(dp6516
g28
(lp6517
(I00
g5359
tp6518
asg22
Nsbasg21
I00
sg22
Nsg23
I00
sg24
S'R'
sbsg35
(irule
FeatureMatrix
p6519
(dp6520
g28
(lp6521
(I01
g4911
tp6522
asg22
Nsbsg22
Nsba(irule
Rule
p6523
(dp6524
g15
(irule
Guard
p6525
(dp6526
g18
I00
sg19
(lp6527
sg21
I00
sg22
Nsg23
I00
sg24
S'L'
sbsg25
(irule
FeatureMatrix
p6528
(dp6529
g28
(lp6530
(I00
g5246
tp6531
a(I00
g4911
tp6532
asg22
Nsbsg31
(irule
Guard
p6533
(dp6534
g18
I00
sg19
(lp6535
(irule
FeatureMatrix
p6536
(dp6537
g28
(lp6538
sg22
Nsba(irule
FeatureMatrix
p6539
(dp6540
g28
(lp6541
(I01
g5065
tp6542
asg22
Nsbasg21
I00
sg22
Nsg23
I00
sg24
S'R'
sbsg35
(irule
FeatureMatrix
p6543
(dp6544
g28
(lp6545
sg22
Nsbsg22
Nsba(irule
Rule
p6546
(dp6547
g15
(irule
Guard
p6548
(dp6549
g18
I00
sg19
(lp6550
sg21
I00
sg22
Nsg23
I00
sg24
S'L'
sbsg25
(irule
FeatureMatrix
p6551
(dp6552
g28
(lp6553
(I00
g4911
tp6554
asg22
Nsbsg31
(irule
Guard
p6555
(dp6556
g18
I00
sg19
(lp6557
(irule
FeatureMatrix
p6558
(dp6559
g28
(lp6560
sg22
Nsba(irule
FeatureMatrix
p6561
(dp6562
g28
(lp6563
(I01
g4972
tp6564
asg22
Nsbasg21
I00
sg22
Nsg23
I00
sg24
S'R'
sbsg35
(irule
FeatureMatrix
p6565
(dp6566
g28
(lp6567
(I01
g4911
tp6568
asg22
Nsbsg22
Nsba(irule
Rule
p6569
(dp6570
g15
(irule
Guard
p6571
(dp6572
g18
I00
sg19
(lp6573
(irule
FeatureMatrix
p6574
(dp6575
g28
(lp6576
sg22
Nsbasg21
I00
sg22
Nsg23
I00
sg24
S'L'
sbsg25
(irule
FeatureMatrix
p6577
(dp6578
g28
(lp6579
(I00
g4911
tp6580
asg22
Nsbsg31
(irule
Guard
p6581
(dp6582
g18
I00
sg19
(lp6583
(irule
FeatureMatrix
p6584
(dp6585
g28
(lp6586
sg22
Nsba(irule
FeatureMatrix
p6587
(dp6588
g28
(lp6589
(I00
g5153
tp6590
asg22
Nsbasg21
I00
sg22
Nsg23
I00
sg24
S'R'
sbsg35
(irule
FeatureMatrix
p6591
(dp6592
g28
(lp6593
sg22
Nsbsg22
Nsba(irule
Rule
p6594
(dp6595
g15
(irule
Guard
p6596
(dp6597
g18
I00
sg19
(lp6598
sg21
I00
sg22
Nsg23
I00
sg24
S'L'
sbsg25
(irule
FeatureMatrix
p6599
(dp6600
g28
(lp6601
(I00
g4911
tp6602
asg22
Nsbsg31
(irule
Guard
p6603
(dp6604
g18
I00
sg19
(lp6605
(irule
FeatureMatrix
p6606
(dp6607
g28
(lp6608
sg22
Nsba(irule
FeatureMatrix
p6609
(dp6610
g28
(lp6611
(I01
g5088
tp6612
asg22
Nsbasg21
I00
sg22
Nsg23
I00
sg24
S'R'
sbsg35
(irule
FeatureMatrix
p6613
(dp6614
g28
(lp6615
(I01
g4911
tp6616
asg22
Nsbsg22
Nsba(irule
Rule
p6617
(dp6618
g15
(irule
Guard
p6619
(dp6620
g18
I00
sg19
(lp6621
sg21
I00
sg22
Nsg23
I00
sg24
S'L'
sbsg25
(irule
FeatureMatrix
p6622
(dp6623
g28
(lp6624
(I00
g5404
tp6625
a(I00
g4911
tp6626
asg22
Nsbsg31
(irule
Guard
p6627
(dp6628
g18
I00
sg19
(lp6629
(irule
FeatureMatrix
p6630
(dp6631
g28
(lp6632
(I00
g4972
tp6633
asg22
Nsba(irule
FeatureMatrix
p6634
(dp6635
g28
(lp6636
sg22
Nsbasg21
I00
sg22
Nsg23
I00
sg24
S'R'
sbsg35
(irule
FeatureMatrix
p6637
(dp6638
g28
(lp6639
sg22
Nsbsg22
Nsba(irule
Rule
p6640
(dp6641
g15
(irule
Guard
p6642
(dp6643
g18
I00
sg19
(lp6644
sg21
I00
sg22
Nsg23
I00
sg24
S'L'
sbsg25
(irule
FeatureMatrix
p6645
(dp6646
g28
(lp6647
(I00
g4911
tp6648
asg22
Nsbsg31
(irule
Guard
p6649
(dp6650
g18
I00
sg19
(lp6651
(irule
FeatureMatrix
p6652
(dp6653
g28
(lp6654
sg22
Nsba(irule
FeatureMatrix
p6655
(dp6656
g28
(lp6657
sg22
Nsbasg21
I00
sg22
Nsg23
I00
sg24
S'R'
sbsg35
(irule
FeatureMatrix
p6658
(dp6659
g28
(lp6660
(I00
g5153
tp6661
a(I01
g5088
tp6662
asg22
Nsbsg22
Nsba(irule
Rule
p6663
(dp6664
g15
(irule
Guard
p6665
(dp6666
g18
I00
sg19
(lp6667
sg21
I00
sg22
Nsg23
I00
sg24
S'L'
sbsg25
(irule
FeatureMatrix
p6668
(dp6669
g28
(lp6670
(I00
g4911
tp6671
a(I00
g4995
tp6672
asg22
Nsbsg31
(irule
Guard
p6673
(dp6674
g18
I00
sg19
(lp6675
(irule
FeatureMatrix
p6676
(dp6677
g28
(lp6678
sg22
Nsba(irule
FeatureMatrix
p6679
(dp6680
g28
(lp6681
sg22
Nsbasg21
I00
sg22
Nsg23
I00
sg24
S'R'
sbsg35
(irule
FeatureMatrix
p6682
(dp6683
g28
(lp6684
(I01
g4911
tp6685
asg22
Nsbsg22
Nsba(irule
Rule
p6686
(dp6687
g15
(irule
Guard
p6688
(dp6689
g18
I00
sg19
(lp6690
sg21
I00
sg22
Nsg23
I00
sg24
S'L'
sbsg25
(irule
FeatureMatrix
p6691
(dp6692
g28
(lp6693
(I00
g4911
tp6694
asg22
Nsbsg31
(irule
Guard
p6695
(dp6696
g18
I00
sg19
(lp6697
(irule
FeatureMatrix
p6698
(dp6699
g28
(lp6700
sg22
Nsba(irule
FeatureMatrix
p6701
(dp6702
g28
(lp6703
(I01
g4949
tp6704
a(I00
g4995
tp6705
asg22
Nsbasg21
I00
sg22
Nsg23
I00
sg24
S'R'
sbsg35
(irule
FeatureMatrix
p6706
(dp6707
g28
(lp6708
sg22
Nsbsg22
Nsba(irule
Rule
p6709
(dp6710
g15
(irule
Guard
p6711
(dp6712
g18
I00
sg19
(lp6713
(irule
FeatureMatrix
p6714
(dp6715
g28
(lp6716
sg22
Nsbasg21
I00
sg22
Nsg23
I00
sg24
S'L'
sbsg25
(irule
FeatureMatrix
p6717
(dp6718
g28
(lp6719
(I00
g4911
tp6720
asg22
Nsbsg31
(irule
Guard
p6721
(dp6722
g18
I00
sg19
(lp6723
(irule
FeatureMatrix
p6724
(dp6725
g28
(lp6726
sg22
Nsba(irule
FeatureMatrix
p6727
(dp6728
g28
(lp6729
(I00
g5101
tp6730
asg22
Nsbasg21
I00
sg22
Nsg23
I00
sg24
S'R'
sbsg35
(irule
FeatureMatrix
p6731
(dp6732
g28
(lp6733
sg22
Nsbsg22
Nsba(irule
Rule
p6734
(dp6735
g15
(irule
Guard
p6736
(dp6737
g18
I00
sg19
(lp6738
sg21
I00
sg22
Nsg23
I00
sg24
S'L'
sbsg25
(irule
FeatureMatrix
p6739
(dp6740
g28
(lp6741
(I00
g5101
tp6742
a(I00
g4911
tp6743
asg22
Nsbsg31
(irule
Guard
p6744
(dp6745
g18
I00
sg19
(lp6746
(irule
FeatureMatrix
p6747
(dp6748
g28
(lp6749
sg22
Nsba(irule
FeatureMatrix
p6750
(dp6751
g28
(lp6752
sg22
Nsbasg21
I00
sg22
Nsg23
I00
sg24
S'R'
sbsg35
(irule
FeatureMatrix
p6753
(dp6754
g28
(lp6755
(I00
g4995
tp6756
asg22
Nsbsg22
Nsba(irule
Rule
p6757
(dp6758
g15
(irule
Guard
p6759
(dp6760
g18
I00
sg19
(lp6761
sg21
I00
sg22
Nsg23
I00
sg24
S'L'
sbsg25
(irule
FeatureMatrix
p6762
(dp6763
g28
(lp6764
(I00
g4911
tp6765
a(I00
g4995
tp6766
asg22
Nsbsg31
(irule
Guard
p6767
(dp6768
g18
I00
sg19
(lp6769
(irule
FeatureMatrix
p6770
(dp6771
g28
(lp6772
sg22
Nsba(irule
FeatureMatrix
p6773
(dp6774
g28
(lp6775
sg22
Nsbasg21
I00
sg22
Nsg23
I00
sg24
S'R'
sbsg35
(irule
FeatureMatrix
p6776
(dp6777
g28
(lp6778
(I00
g5153
tp6779
asg22
Nsbsg22
Nsba(irule
Rule
p6780
(dp6781
g15
(irule
Guard
p6782
(dp6783
g18
I00
sg19
(lp6784
sg21
I00
sg22
Nsg23
I00
sg24
S'L'
sbsg25
(irule
FeatureMatrix
p6785
(dp6786
g28
(lp6787
(I00
g4911
tp6788
a(I00
g4995
tp6789
asg22
Nsbsg31
(irule
Guard
p6790
(dp6791
g18
I00
sg19
(lp6792
(irule
FeatureMatrix
p6793
(dp6794
g28
(lp6795
sg22
Nsba(irule
FeatureMatrix
p6796
(dp6797
g28
(lp6798
(I01
g4949
tp6799
asg22
Nsbasg21
I00
sg22
Nsg23
I00
sg24
S'R'
sbsg35
(irule
FeatureMatrix
p6800
(dp6801
g28
(lp6802
sg22
Nsbsg22
Nsba(irule
Rule
p6803
(dp6804
g15
(irule
Guard
p6805
(dp6806
g18
I00
sg19
(lp6807
sg21
I00
sg22
Nsg23
I00
sg24
S'L'
sbsg25
(irule
FeatureMatrix
p6808
(dp6809
g28
(lp6810
(I00
g4911
tp6811
asg22
Nsbsg31
(irule
Guard
p6812
(dp6813
g18
I00
sg19
(lp6814
(irule
FeatureMatrix
p6815
(dp6816
g28
(lp6817
(I00
g5101
tp6818
asg22
Nsba(irule
FeatureMatrix
p6819
(dp6820
g28
(lp6821
sg22
Nsbasg21
I00
sg22
Nsg23
I00
sg24
S'R'
sbsg35
(irule
FeatureMatrix
p6822
(dp6823
g28
(lp6824
(I01
g4972
tp6825
asg22
Nsbsg22
Nsba(irule
Rule
p6826
(dp6827
g15
(irule
Guard
p6828
(dp6829
g18
I00
sg19
(lp6830
sg21
I00
sg22
Nsg23
I00
sg24
S'L'
sbsg25
(irule
FeatureMatrix
p6831
(dp6832
g28
(lp6833
(I00
g4911
tp6834
asg22
Nsbsg31
(irule
Guard
p6835
(dp6836
g18
I00
sg19
(lp6837
(irule
FeatureMatrix
p6838
(dp6839
g28
(lp6840
sg22
Nsba(irule
FeatureMatrix
p6841
(dp6842
g28
(lp6843
sg22
Nsbasg21
I00
sg22
Nsg23
I00
sg24
S'R'
sbsg35
(irule
FeatureMatrix
p6844
(dp6845
g28
(lp6846
(I00
g5404
tp6847
a(I01
g5088
tp6848
asg22
Nsbsg22
Nsba(irule
Rule
p6849
(dp6850
g15
(irule
Guard
p6851
(dp6852
g18
I00
sg19
(lp6853
sg21
I00
sg22
Nsg23
I00
sg24
S'L'
sbsg25
(irule
FeatureMatrix
p6854
(dp6855
g28
(lp6856
(I00
g4911
tp6857
asg22
Nsbsg31
(irule
Guard
p6858
(dp6859
g18
I00
sg19
(lp6860
(irule
FeatureMatrix
p6861
(dp6862
g28
(lp6863
(I00
g5220
tp6864
asg22
Nsba(irule
FeatureMatrix
p6865
(dp6866
g28
(lp6867
sg22
Nsbasg21
I00
sg22
Nsg23
I00
sg24
S'R'
sbsg35
(irule
FeatureMatrix
p6868
(dp6869
g28
(lp6870
(I01
g5269
tp6871
asg22
Nsbsg22
Nsba(irule
Rule
p6872
(dp6873
g15
(irule
Guard
p6874
(dp6875
g18
I00
sg19
(lp6876
sg21
I00
sg22
Nsg23
I00
sg24
S'L'
sbsg25
(irule
FeatureMatrix
p6877
(dp6878
g28
(lp6879
(I00
g5404
tp6880
a(I00
g4911
tp6881
asg22
Nsbsg31
(irule
Guard
p6882
(dp6883
g18
I00
sg19
(lp6884
(irule
FeatureMatrix
p6885
(dp6886
g28
(lp6887
sg22
Nsba(irule
FeatureMatrix
p6888
(dp6889
g28
(lp6890
(I01
g4949
tp6891
asg22
Nsbasg21
I00
sg22
Nsg23
I00
sg24
S'R'
sbsg35
(irule
FeatureMatrix
p6892
(dp6893
g28
(lp6894
sg22
Nsbsg22
Nsba(irule
Rule
p6895
(dp6896
g15
(irule
Guard
p6897
(dp6898
g18
I00
sg19
(lp6899
sg21
I00
sg22
Nsg23
I00
sg24
S'L'
sbsg25
(irule
FeatureMatrix
p6900
(dp6901
g28
(lp6902
(I00
g5101
tp6903
a(I00
g4911
tp6904
asg22
Nsbsg31
(irule
Guard
p6905
(dp6906
g18
I00
sg19
(lp6907
(irule
FeatureMatrix
p6908
(dp6909
g28
(lp6910
sg22
Nsba(irule
FeatureMatrix
p6911
(dp6912
g28
(lp6913
(I01
g5065
tp6914
asg22
Nsbasg21
I00
sg22
Nsg23
I00
sg24
S'R'
sbsg35
(irule
FeatureMatrix
p6915
(dp6916
g28
(lp6917
sg22
Nsbsg22
Nsba(irule
Rule
p6918
(dp6919
g15
(irule
Guard
p6920
(dp6921
g18
I00
sg19
(lp6922
sg21
I00
sg22
Nsg23
I00
sg24
S'L'
sbsg25
(irule
FeatureMatrix
p6923
(dp6924
g28
(lp6925
(I00
g4911
tp6926
asg22
Nsbsg31
(irule
Guard
p6927
(dp6928
g18
I00
sg19
(lp6929
(irule
FeatureMatrix
p6930
(dp6931
g28
(lp6932
sg22
Nsba(irule
FeatureMatrix
p6933
(dp6934
g28
(lp6935
(I01
g4949
tp6936
a(I00
g5359
tp6937
asg22
Nsbasg21
I00
sg22
Nsg23
I00
sg24
S'R'
sbsg35
(irule
FeatureMatrix
p6938
(dp6939
g28
(lp6940
sg22
Nsbsg22
Nsba(irule
Rule
p6941
(dp6942
g15
(irule
Guard
p6943
(dp6944
g18
I00
sg19
(lp6945
sg21
I00
sg22
Nsg23
I00
sg24
S'L'
sbsg25
(irule
FeatureMatrix
p6946
(dp6947
g28
(lp6948
(I00
g4911
tp6949
asg22
Nsbsg31
(irule
Guard
p6950
(dp6951
g18
I00
sg19
(lp6952
(irule
FeatureMatrix
p6953
(dp6954
g28
(lp6955
(I00
g4972
tp6956
asg22
Nsba(irule
FeatureMatrix
p6957
(dp6958
g28
(lp6959
sg22
Nsbasg21
I00
sg22
Nsg23
I00
sg24
S'R'
sbsg35
(irule
FeatureMatrix
p6960
(dp6961
g28
(lp6962
(I00
g4995
tp6963
asg22
Nsbsg22
Nsba(irule
Rule
p6964
(dp6965
g15
(irule
Guard
p6966
(dp6967
g18
I00
sg19
(lp6968
sg21
I00
sg22
Nsg23
I00
sg24
S'L'
sbsg25
(irule
FeatureMatrix
p6969
(dp6970
g28
(lp6971
(I00
g4911
tp6972
asg22
Nsbsg31
(irule
Guard
p6973
(dp6974
g18
I00
sg19
(lp6975
(irule
FeatureMatrix
p6976
(dp6977
g28
(lp6978
sg22
Nsba(irule
FeatureMatrix
p6979
(dp6980
g28
(lp6981
(I01
g4949
tp6982
asg22
Nsbasg21
I00
sg22
Nsg23
I00
sg24
S'R'
sbsg35
(irule
FeatureMatrix
p6983
(dp6984
g28
(lp6985
(I01
g4972
tp6986
asg22
Nsbsg22
Nsba(irule
Rule
p6987
(dp6988
g15
(irule
Guard
p6989
(dp6990
g18
I00
sg19
(lp6991
sg21
I00
sg22
Nsg23
I00
sg24
S'L'
sbsg25
(irule
FeatureMatrix
p6992
(dp6993
g28
(lp6994
(I00
g4911
tp6995
asg22
Nsbsg31
(irule
Guard
p6996
(dp6997
g18
I00
sg19
(lp6998
(irule
FeatureMatrix
p6999
(dp7000
g28
(lp7001
sg22
Nsba(irule
FeatureMatrix
p7002
(dp7003
g28
(lp7004
(I00
g5292
tp7005
a(I01
g4949
tp7006
asg22
Nsbasg21
I00
sg22
Nsg23
I00
sg24
S'R'
sbsg35
(irule
FeatureMatrix
p7007
(dp7008
g28
(lp7009
sg22
Nsbsg22
Nsba(irule
Rule
p7010
(dp7011
g15
(irule
Guard
p7012
(dp7013
g18
I00
sg19
(lp7014
sg21
I00
sg22
Nsg23
I00
sg24
S'L'
sbsg25
(irule
FeatureMatrix
p7015
(dp7016
g28
(lp7017
(I00
g4911
tp7018
asg22
Nsbsg31
(irule
Guard
p7019
(dp7020
g18
I00
sg19
(lp7021
(irule
FeatureMatrix
p7022
(dp7023
g28
(lp7024
sg22
Nsba(irule
FeatureMatrix
p7025
(dp7026
g28
(lp7027
(I01
g4949
tp7028
asg22
Nsbasg21
I00
sg22
Nsg23
I00
sg24
S'R'
sbsg35
(irule
FeatureMatrix
p7029
(dp7030
g28
(lp7031
(I01
g5088
tp7032
asg22
Nsbsg22
Nsba(irule
Rule
p7033
(dp7034
g15
(irule
Guard
p7035
(dp7036
g18
I00
sg19
(lp7037
sg21
I00
sg22
Nsg23
I00
sg24
S'L'
sbsg25
(irule
FeatureMatrix
p7038
(dp7039
g28
(lp7040
(I00
g4911
tp7041
asg22
Nsbsg31
(irule
Guard
p7042
(dp7043
g18
I00
sg19
(lp7044
(irule
FeatureMatrix
p7045
(dp7046
g28
(lp7047
sg22
Nsba(irule
FeatureMatrix
p7048
(dp7049
g28
(lp7050
(I01
g4949
tp7051
asg22
Nsbasg21
I00
sg22
Nsg23
I00
sg24
S'R'
sbsg35
(irule
FeatureMatrix
p7052
(dp7053
g28
(lp7054
(I01
g5269
tp7055
asg22
Nsbsg22
Nsba(irule
Rule
p7056
(dp7057
g15
(irule
Guard
p7058
(dp7059
g18
I00
sg19
(lp7060
sg21
I00
sg22
Nsg23
I00
sg24
S'L'
sbsg25
(irule
FeatureMatrix
p7061
(dp7062
g28
(lp7063
(I00
g4911
tp7064
asg22
Nsbsg31
(irule
Guard
p7065
(dp7066
g18
I00
sg19
(lp7067
(irule
FeatureMatrix
p7068
(dp7069
g28
(lp7070
(I00
g4972
tp7071
asg22
Nsba(irule
FeatureMatrix
p7072
(dp7073
g28
(lp7074
(I01
g5088
tp7075
asg22
Nsbasg21
I00
sg22
Nsg23
I00
sg24
S'R'
sbsg35
(irule
FeatureMatrix
p7076
(dp7077
g28
(lp7078
sg22
Nsbsg22
Nsba(irule
Rule
p7079
(dp7080
g15
(irule
Guard
p7081
(dp7082
g18
I00
sg19
(lp7083
sg21
I00
sg22
Nsg23
I00
sg24
S'L'
sbsg25
(irule
FeatureMatrix
p7084
(dp7085
g28
(lp7086
(I00
g4911
tp7087
a(I00
g4995
tp7088
asg22
Nsbsg31
(irule
Guard
p7089
(dp7090
g18
I00
sg19
(lp7091
(irule
FeatureMatrix
p7092
(dp7093
g28
(lp7094
sg22
Nsba(irule
FeatureMatrix
p7095
(dp7096
g28
(lp7097
sg22
Nsbasg21
I00
sg22
Nsg23
I00
sg24
S'R'
sbsg35
(irule
FeatureMatrix
p7098
(dp7099
g28
(lp7100
(I00
g5246
tp7101
asg22
Nsbsg22
Nsba(irule
Rule
p7102
(dp7103
g15
(irule
Guard
p7104
(dp7105
g18
I00
sg19
(lp7106
sg21
I00
sg22
Nsg23
I00
sg24
S'L'
sbsg25
(irule
FeatureMatrix
p7107
(dp7108
g28
(lp7109
(I00
g4911
tp7110
asg22
Nsbsg31
(irule
Guard
p7111
(dp7112
g18
I00
sg19
(lp7113
(irule
FeatureMatrix
p7114
(dp7115
g28
(lp7116
sg22
Nsba(irule
FeatureMatrix
p7117
(dp7118
g28
(lp7119
(I00
g5359
tp7120
a(I01
g5065
tp7121
asg22
Nsbasg21
I00
sg22
Nsg23
I00
sg24
S'R'
sbsg35
(irule
FeatureMatrix
p7122
(dp7123
g28
(lp7124
sg22
Nsbsg22
Nsba(irule
Rule
p7125
(dp7126
g15
(irule
Guard
p7127
(dp7128
g18
I00
sg19
(lp7129
sg21
I00
sg22
Nsg23
I00
sg24
S'L'
sbsg25
(irule
FeatureMatrix
p7130
(dp7131
g28
(lp7132
(I00
g4911
tp7133
asg22
Nsbsg31
(irule
Guard
p7134
(dp7135
g18
I00
sg19
(lp7136
(irule
FeatureMatrix
p7137
(dp7138
g28
(lp7139
sg22
Nsba(irule
FeatureMatrix
p7140
(dp7141
g28
(lp7142
(I01
g5065
tp7143
asg22
Nsbasg21
I00
sg22
Nsg23
I00
sg24
S'R'
sbsg35
(irule
FeatureMatrix
p7144
(dp7145
g28
(lp7146
(I01
g5065
tp7147
asg22
Nsbsg22
Nsba(irule
Rule
p7148
(dp7149
g15
(irule
Guard
p7150
(dp7151
g18
I00
sg19
(lp7152
sg21
I00
sg22
Nsg23
I00
sg24
S'L'
sbsg25
(irule
FeatureMatrix
p7153
(dp7154
g28
(lp7155
(I00
g4911
tp7156
asg22
Nsbsg31
(irule
Guard
p7157
(dp7158
g18
I00
sg19
(lp7159
(irule
FeatureMatrix
p7160
(dp7161
g28
(lp7162
(I00
g4972
tp7163
asg22
Nsba(irule
FeatureMatrix
p7164
(dp7165
g28
(lp7166
sg22
Nsbasg21
I00
sg22
Nsg23
I00
sg24
S'R'
sbsg35
(irule
FeatureMatrix
p7167
(dp7168
g28
(lp7169
(I00
g5292
tp7170
asg22
Nsbsg22
Nsba(irule
Rule
p7171
(dp7172
g15
(irule
Guard
p7173
(dp7174
g18
I00
sg19
(lp7175
sg21
I00
sg22
Nsg23
I00
sg24
S'L'
sbsg25
(irule
FeatureMatrix
p7176
(dp7177
g28
(lp7178
(I00
g4911
tp7179
asg22
Nsbsg31
(irule
Guard
p7180
(dp7181
g18
I00
sg19
(lp7182
(irule
FeatureMatrix
p7183
(dp7184
g28
(lp7185
sg22
Nsba(irule
FeatureMatrix
p7186
(dp7187
g28
(lp7188
(I00
g5246
tp7189
a(I01
g4949
tp7190
asg22
Nsbasg21
I00
sg22
Nsg23
I00
sg24
S'R'
sbsg35
(irule
FeatureMatrix
p7191
(dp7192
g28
(lp7193
sg22
Nsbsg22
NsbaasbsS'parameters'
p7194
g6
(cargparse
Namespace
p7195
g8
NtRp7196
(dp7197
S'restore'
p7198
NsS'features'
p7199
S'sophisticated'
p7200
sS'universal'
p7201
NsS'restrict'
p7202
NsS'seed'
p7203
S'0'
sS'serial'
p7204
I00
sS'alignment'
p7205
I00
sS'top'
p7206
I100
sS'maximumDepth'
p7207
I3
sS'window'
p7208
NsS'minimizeBits'
p7209
I5
sS'samples'
p7210
I30
sS'save'
p7211
NsS'resume'
p7212
I00
sS'disableClean'
p7213
I00
sS'stemBaseline'
p7214
I30
sS'dummy'
p7215
I00
sS'task'
p7216
S'CEGIS'
p7217
sS'geometry'
p7218
I01
sS'verbosity'
p7219
I0
sS'timeout'
p7220
F24
sS'debug'
p7221
NsS'cores'
p7222
I40
sg920
S'Odden_4.1_Serbo_Croatian'
p7223
sS'mergeFrontiers'
p7224
I00
sbsb.