(iresult
Result
p1
(dp2
S'startTime'
p3
F1553116482.2719729
sS'solutionSequence'
p4
(lp5
(ccopy_reg
_reconstructor
p6
(csolution
Solution
p7
c__builtin__
object
p8
NtRp9
(dp10
S'rules'
p11
(lp12
(irule
Rule
p13
(dp14
S'leftTriggers'
p15
(irule
Guard
p16
(dp17
S'endOfString'
p18
I00
sS'specifications'
p19
(lp20
sS'optionalEnding'
p21
I00
sS'representation'
p22
V
sS'starred'
p23
I00
sS'side'
p24
S'L'
sbsS'structuralChange'
p25
(irule
FeatureMatrix
p26
(dp27
S'featuresAndPolarities'
p28
(lp29
sg22
V[  ]
p30
sbsS'rightTriggers'
p31
(irule
Guard
p32
(dp33
g18
I00
sg19
(lp34
sg21
I00
sg22
V
sg23
I00
sg24
S'R'
sbsS'focus'
p35
(irule
FeatureMatrix
p36
(dp37
g28
(lp38
sg22
V[  ]
p39
sbsg22
V[  ] ---> [  ] /  _ 
p40
sbasS'prefixes'
p41
(lp42
(imorph
Morph
p43
(dp44
S'phonemes'
p45
(lp46
Va
aVt
asba(imorph
Morph
p47
(dp48
g45
(lp49
sbasS'underlyingForms'
p50
(dp51
((imorph
Morph
p52
(dp53
g45
(lp54
Va
aVt
aVn
aVe
aV\u0161
aVt
aVi
asbNtp55
(imorph
Morph
p56
(dp57
g45
(lp58
Vn
aVe
aV\u0161
asbs((imorph
Morph
p59
(dp60
g45
(lp61
Va
aVt
aVe
aVi
aVt
aVi
asbNtp62
(imorph
Morph
p63
(dp64
g45
(lp65
Ve
aVi
asbs((imorph
Morph
p66
(dp67
g45
(lp68
Va
aVt
aVi
aVm
aVt
aVi
asbNtp69
(imorph
Morph
p70
(dp71
g45
(lp72
Vi
aVm
asbssS'suffixes'
p73
(lp74
(imorph
Morph
p75
(dp76
g45
(lp77
Vt
aVi
asba(imorph
Morph
p78
(dp79
g45
(lp80
sbasbF12.877916097640991
tp81
a(g6
(g7
g8
NtRp82
(dp83
g11
(lp84
sg41
(lp85
(imorph
Morph
p86
(dp87
g45
(lp88
Va
aVt
asba(imorph
Morph
p89
(dp90
g45
(lp91
Va
aVp
asbasg50
(dp92
((imorph
Morph
(dp93
g45
(lp94
Va
aVt
aVi
aVm
aVt
aVi
asbNtp95
(imorph
Morph
p96
(dp97
g45
(lp98
Vi
aVm
asbs((imorph
Morph
(dp99
g45
(lp100
Va
aVt
aVl
aVi
aVk
aVt
aVi
asbNtp101
(imorph
Morph
p102
(dp103
g45
(lp104
Vl
aVi
aVk
asbs((imorph
Morph
(dp105
g45
(lp106
Va
aVt
aVp
aVr
aVa
aV\u0161
aVi:
p107
aVt
aVi
asbNtp108
(imorph
Morph
p109
(dp110
g45
(lp111
Vp
aVr
aVa
aV\u0161
aVi:
p112
asbs((imorph
Morph
(dp113
g45
(lp114
Va
aVt
aVk
aVo:
p115
aVp
aVt
aVi
asbNtp116
(imorph
Morph
p117
(dp118
g45
(lp119
Vk
aVo:
p120
aVp
asbs((imorph
Morph
(dp121
g45
(lp122
Va
aVt
aVl
aVe
aVi
aVs
aVt
aVi
asbNtp123
(imorph
Morph
p124
(dp125
g45
(lp126
Vl
aVe
aVi
aVs
asbs(N(imorph
Morph
(dp127
g45
(lp128
Va
aVp
aVe
aVi
aVt
aVi
asbtp129
(imorph
Morph
p130
(dp131
g45
(lp132
Ve
aVi
asbs(N(imorph
Morph
(dp133
g45
(lp134
Va
aVp
aVa
aVk
aVt
aVi
asbtp135
(imorph
Morph
p136
(dp137
g45
(lp138
Va
aVk
asbs((imorph
Morph
(dp139
g45
(lp140
Va
aVt
aVe
aVi
aVt
aVi
asbNtp141
(imorph
Morph
p142
(dp143
g45
(lp144
Ve
aVi
asbs((imorph
Morph
(dp145
g45
(lp146
Va
aVt
aVn
aVe
aV\u0161
aVt
aVi
asbNtp147
(imorph
Morph
p148
(dp149
g45
(lp150
Vn
aVe
aV\u0161
asbs((imorph
Morph
(dp151
g45
(lp152
Va
aVt
aVk
aVu
aVr
aVt
aVi
asbNtp153
(imorph
Morph
p154
(dp155
g45
(lp156
Vk
aVu
aVr
asbs(N(imorph
Morph
(dp157
g45
(lp158
Va
aVp
aVi
aVe
aV\u0161
aVk
aVo:
p159
aVt
aVi
asbtp160
(imorph
Morph
p161
(dp162
g45
(lp163
Vi
aVe
aV\u0161
aVk
ag120
asbssg73
(lp164
(imorph
Morph
p165
(dp166
g45
(lp167
Vt
aVi
asba(imorph
Morph
p168
(dp169
g45
(lp170
Vt
aVi
asbasbF2439.3931350708008
tp171
a(g6
(g7
g8
NtRp172
(dp173
g11
(lp174
(irule
Rule
p175
(dp176
g15
(irule
Guard
p177
(dp178
g18
I00
sg19
(lp179
sg21
I00
sg22
V
sg23
I00
sg24
S'L'
sbsg25
(irule
FeatureMatrix
p180
(dp181
g28
(lp182
(I01
S'voice'
p183
tp184
asg22
V[ +voice ]
p185
sbsg31
(irule
Guard
p186
(dp187
g18
I00
sg19
(lp188
(irule
FeatureMatrix
p189
(dp190
g28
(lp191
(I00
S'sonorant'
tp192
a(I01
g183
tp193
asg22
V[ +voice -sonorant ]
p194
sbasg21
I00
sg22
g194
sg23
I00
sg24
S'R'
sbsg35
(irule
FeatureMatrix
p195
(dp196
g28
(lp197
sg22
V[  ]
p198
sbsg22
V[  ] ---> [ +voice ] /  _ [ +voice -sonorant ]
p199
sbasg41
(lp200
(imorph
Morph
p201
(dp202
g45
(lp203
Va
aVt
asba(imorph
Morph
p204
(dp205
g45
(lp206
Va
aVp
asbasg50
(dp207
((imorph
Morph
(dp208
g45
(lp209
Va
aVt
aVi
aVm
aVt
aVi
asbNtp210
(imorph
Morph
p211
(dp212
g45
(lp213
Vi
aVm
asbs((imorph
Morph
(dp214
g45
(lp215
Va
aVd
aVb
aVu
aVk
aVt
aVi
asbNtp216
(imorph
Morph
p217
(dp218
g45
(lp219
Vb
aVu
aVk
asbs((imorph
Morph
(dp220
g45
(lp221
Va
aVt
aVl
aVi
aVk
aVt
aVi
asbNtp222
(imorph
Morph
p223
(dp224
g45
(lp225
Vl
aVi
aVk
asbs((imorph
Morph
(dp226
g45
(lp227
Va
aVt
aVp
aVr
aVa
aV\u0161
aVi:
p228
aVt
aVi
asbNtp229
(imorph
Morph
p230
(dp231
g45
(lp232
Vp
aVr
aVa
aV\u0161
aVi:
p233
asbs(N(imorph
Morph
(dp234
g45
(lp235
Va
aVp
aV\u0161
aVa
aVu
aVk
aVt
aVi
asbtp236
(imorph
Morph
p237
(dp238
g45
(lp239
V\u0161
aVa
aVu
aVk
asbs((imorph
Morph
(dp240
g45
(lp241
Va
aVt
aVk
aVo:
p242
aVp
aVt
aVi
asbNtp243
(imorph
Morph
p244
(dp245
g45
(lp246
Vk
aVo:
p247
aVp
asbs((imorph
Morph
(dp248
g45
(lp249
Va
aVt
aVl
aVe
aVi
aVs
aVt
aVi
asbNtp250
(imorph
Morph
p251
(dp252
g45
(lp253
Vl
aVe
aVi
aVs
asbs(N(imorph
Morph
(dp254
g45
(lp255
Va
aVp
aVe
aVi
aVt
aVi
asbtp256
(imorph
Morph
p257
(dp258
g45
(lp259
Ve
aVi
asbs(N(imorph
Morph
(dp260
g45
(lp261
Va
aVp
aVa
aVk
aVt
aVi
asbtp262
(imorph
Morph
p263
(dp264
g45
(lp265
Va
aVk
asbs((imorph
Morph
(dp266
g45
(lp267
Va
aVd
aVg
aVa
aVu
aVt
aVi
asbNtp268
(imorph
Morph
p269
(dp270
g45
(lp271
Vg
aVa
aVu
asbs((imorph
Morph
(dp272
g45
(lp273
Va
aVt
aVe
aVi
aVt
aVi
asbNtp274
(imorph
Morph
p275
(dp276
g45
(lp277
Ve
aVi
asbs(N(imorph
Morph
(dp278
g45
(lp279
Va
aVp
aVm
aVo:
p280
aVk
aVi:
p281
aVt
aVi
asbtp282
(imorph
Morph
p283
(dp284
g45
(lp285
Vm
ag247
aVk
ag233
asbs(N(imorph
Morph
(dp286
g45
(lp287
Va
aVp
aVt
aVe
aVm
aVd
aVi:
p288
aVt
aVi
asbtp289
(imorph
Morph
p290
(dp291
g45
(lp292
Vt
aVe
aVm
aVd
ag233
asbs((imorph
Morph
(dp293
g45
(lp294
Va
aVt
aVn
aVe
aV\u0161
aVt
aVi
asbNtp295
(imorph
Morph
p296
(dp297
g45
(lp298
Vn
aVe
aV\u0161
asbs((imorph
Morph
(dp299
g45
(lp300
Va
aVd
aVb
aVe
aVk
aVt
aVi
asbNtp301
(imorph
Morph
p302
(dp303
g45
(lp304
Vb
aVe
aVk
asbs((imorph
Morph
(dp305
g45
(lp306
Va
aVt
aVk
aVu
aVr
aVt
aVi
asbNtp307
(imorph
Morph
p308
(dp309
g45
(lp310
Vk
aVu
aVr
asbs(N(imorph
Morph
(dp311
g45
(lp312
Va
aVp
aVi
aVe
aV\u0161
aVk
aVo:
p313
aVt
aVi
asbtp314
(imorph
Morph
p315
(dp316
g45
(lp317
Vi
aVe
aV\u0161
aVk
ag247
asbssg73
(lp318
(imorph
Morph
p319
(dp320
g45
(lp321
Vt
aVi
asba(imorph
Morph
p322
(dp323
g45
(lp324
Vt
aVi
asbasbF3912.2055420875549
tp325
asS'problem'
p326
S'Odden_114_Lithuanian'
p327
sS'finalFrontier'
p328
g6
(csolution
Frontier
p329
g8
NtRp330
(dp331
g41
g200
sg73
g318
sg50
(dp332
((imorph
Morph
(dp333
g45
(lp334
Va
aVd
aVb
aVu
aVk
aVt
aVi
asbNtp335
(imorph
Morph
p336
(dp337
g45
(lp338
Vb
aVu
aVk
asbs((imorph
Morph
(dp339
g45
(lp340
Va
aVt
aVl
aVi
aVk
aVt
aVi
asbNtp341
(imorph
Morph
p342
(dp343
g45
(lp344
Vl
aVi
aVk
asbs(N(imorph
Morph
(dp345
g45
(lp346
Va
aVb
aVd
aVa
aVu
aVz\u030c
p347
aVi:
p348
aVt
aVi
asbtp349
(imorph
Morph
p350
(dp351
g45
(lp352
Vd
aVa
aVu
aVz\u030c
p353
aVi:
p354
asbs((imorph
Morph
(dp355
g45
(lp356
Va
aVt
aVk
aVo:
p357
aVp
aVt
aVi
asbNtp358
(imorph
Morph
p359
(dp360
g45
(lp361
Vk
aVo:
p362
aVp
asbs((imorph
Morph
(dp363
g45
(lp364
Va
aVt
aVl
aVe
aVi
aVs
aVt
aVi
asbNtp365
(imorph
Morph
p366
(dp367
g45
(lp368
Vl
aVe
aVi
aVs
asbs((imorph
Morph
(dp369
g45
(lp370
Va
aVd
aVg
aVi
aVm
aVt
aVi
asbNtp371
(imorph
Morph
p372
(dp373
g45
(lp374
Vg
aVi
aVm
asbs(g59
Ntp375
(imorph
Morph
p376
(dp377
g45
(lp378
Ve
aVi
asbs((imorph
Morph
(dp379
g45
(lp380
Va
aVd
aVg
aVa
aVu
aVt
aVi
asbNtp381
(imorph
Morph
p382
(dp383
g45
(lp384
Vg
aVa
aVu
asbs(g52
Ntp385
(imorph
Morph
p386
(dp387
g45
(lp388
Vn
aVe
aV\u0161
asbs((imorph
Morph
(dp389
g45
(lp390
Va
aVd
aVb
aVe
aVk
aVt
aVi
asbNtp391
(imorph
Morph
p392
(dp393
g45
(lp394
Vb
aVe
aVk
asbs((imorph
Morph
(dp395
g45
(lp396
Va
aVt
aVk
aVu
aVr
aVt
aVi
asbNtp397
(imorph
Morph
p398
(dp399
g45
(lp400
Vk
aVu
aVr
asbs(N(imorph
Morph
(dp401
g45
(lp402
Va
aVp
aVi
aVe
aV\u0161
aVk
aVo:
p403
aVt
aVi
asbtp404
(imorph
Morph
p405
(dp406
g45
(lp407
Vi
aVe
aV\u0161
aVk
ag362
asbs(N(imorph
Morph
(dp408
g45
(lp409
Va
aVb
aVz\u030c^y
p410
aVu
aVr
aVe
aVt
aVi
asbtp411
(imorph
Morph
p412
(dp413
g45
(lp414
Vz\u030c^y
p415
aVu
aVr
aVe
asbs(N(imorph
Morph
(dp416
g45
(lp417
Va
aVb
aVz\u030c
p418
aVe
aVl
aVt
aVi
asbtp419
(imorph
Morph
p420
(dp421
g45
(lp422
g353
aVe
aVl
asbs(g66
Ntp423
(imorph
Morph
p424
(dp425
g45
(lp426
Vi
aVm
asbs(N(imorph
Morph
(dp427
g45
(lp428
Va
aVb
aVd
aVr
aVa
aVs
aVk
aVi:
p429
aVt
aVi
asbtp430
(imorph
Morph
p431
(dp432
g45
(lp433
Vd
aVr
aVa
aVs
aVk
ag354
asbs((imorph
Morph
(dp434
g45
(lp435
Va
aVt
aVp
aVr
aVa
aV\u0161
aVi:
p436
aVt
aVi
asbNtp437
(imorph
Morph
p438
(dp439
g45
(lp440
Vp
aVr
aVa
aV\u0161
ag354
asbs(N(imorph
Morph
(dp441
g45
(lp442
Va
aVp
aVe
aVi
aVt
aVi
asbtp443
(imorph
Morph
p444
(dp445
g45
(lp446
Ve
aVi
asbs(N(imorph
Morph
(dp447
g45
(lp448
Va
aVp
aVa
aVk
aVt
aVi
asbtp449
(imorph
Morph
p450
(dp451
g45
(lp452
Va
aVk
asbs(N(imorph
Morph
(dp453
g45
(lp454
Va
aVp
aV\u0161
aVa
aVu
aVk
aVt
aVi
asbtp455
(imorph
Morph
p456
(dp457
g45
(lp458
V\u0161
aVa
aVu
aVk
asbs(N(imorph
Morph
(dp459
g45
(lp460
Va
aVp
aVm
aVo:
p461
aVk
aVi:
p462
aVt
aVi
asbtp463
(imorph
Morph
p464
(dp465
g45
(lp466
Vm
ag362
aVk
ag354
asbs(N(imorph
Morph
(dp467
g45
(lp468
Va
aVp
aVt
aVe
aVm
aVd
aVi:
p469
aVt
aVi
asbtp470
(imorph
Morph
p471
(dp472
g45
(lp473
Vt
aVe
aVm
aVd
ag354
asbs(N(imorph
Morph
(dp474
g45
(lp475
Va
aVb
aVg
aVa
aVu
aVt
aVi
asbtp476
(imorph
Morph
p477
(dp478
g45
(lp479
Vg
aVa
aVu
asbssS'frontiers'
p480
(lp481
(lp482
(irule
Rule
p483
(dp484
g15
(irule
Guard
p485
(dp486
g18
I00
sg19
(lp487
sg21
I00
sg22
V
sg23
I00
sg24
S'L'
sbsg25
(irule
FeatureMatrix
p488
(dp489
g28
(lp490
(I01
S'voice'
p491
tp492
asg22
V[ +voice ]
p493
sbsg31
(irule
Guard
p494
(dp495
g18
I00
sg19
(lp496
(irule
FeatureMatrix
p497
(dp498
g28
(lp499
(I00
S'sonorant'
tp500
a(I01
g491
tp501
asg22
V[ +voice -sonorant ]
p502
sbasg21
I00
sg22
g502
sg23
I00
sg24
S'R'
sbsg35
(irule
FeatureMatrix
p503
(dp504
g28
(lp505
sg22
V[  ]
p506
sbsg22
V[  ] ---> [ +voice ] /  _ [ +voice -sonorant ]
p507
sba(irule
Rule
p508
(dp509
g15
(irule
Guard
p510
(dp511
g18
I00
sg19
(lp512
sg21
I00
sg22
Nsg23
I00
sg24
S'L'
sbsg25
(irule
FeatureMatrix
p513
(dp514
g28
(lp515
(I01
S'voice'
p516
tp517
asg22
Nsbsg31
(irule
Guard
p518
(dp519
g18
I00
sg19
(lp520
(irule
FeatureMatrix
p521
(dp522
g28
(lp523
(I00
S'sonorant'
p524
tp525
a(I01
g516
tp526
asg22
Nsba(irule
FeatureMatrix
p527
(dp528
g28
(lp529
sg22
Nsbasg21
I00
sg22
Nsg23
I00
sg24
S'R'
sbsg35
(irule
FeatureMatrix
p530
(dp531
g28
(lp532
sg22
Nsbsg22
Nsba(irule
Rule
p533
(dp534
g15
(irule
Guard
p535
(dp536
g18
I00
sg19
(lp537
sg21
I00
sg22
Nsg23
I00
sg24
S'L'
sbsg25
(irule
FeatureMatrix
p538
(dp539
g28
(lp540
(I01
g516
tp541
asg22
Nsbsg31
(irule
Guard
p542
(dp543
g18
I00
sg19
(lp544
(irule
FeatureMatrix
p545
(dp546
g28
(lp547
(I00
g524
tp548
a(I00
S'low'
p549
tp550
a(I01
g516
tp551
asg22
Nsbasg21
I00
sg22
Nsg23
I00
sg24
S'R'
sbsg35
(irule
FeatureMatrix
p552
(dp553
g28
(lp554
sg22
Nsbsg22
Nsba(irule
Rule
p555
(dp556
g15
(irule
Guard
p557
(dp558
g18
I00
sg19
(lp559
(irule
FeatureMatrix
p560
(dp561
g28
(lp562
sg22
Nsbasg21
I00
sg22
Nsg23
I00
sg24
S'L'
sbsg25
(irule
FeatureMatrix
p563
(dp564
g28
(lp565
(I01
g516
tp566
asg22
Nsbsg31
(irule
Guard
p567
(dp568
g18
I00
sg19
(lp569
(irule
FeatureMatrix
p570
(dp571
g28
(lp572
(I00
g524
tp573
a(I01
g516
tp574
asg22
Nsbasg21
I00
sg22
Nsg23
I00
sg24
S'R'
sbsg35
(irule
FeatureMatrix
p575
(dp576
g28
(lp577
sg22
Nsbsg22
Nsba(irule
Rule
p578
(dp579
g15
(irule
Guard
p580
(dp581
g18
I00
sg19
(lp582
sg21
I00
sg22
Nsg23
I00
sg24
S'L'
sbsg25
(irule
FeatureMatrix
p583
(dp584
g28
(lp585
(I01
g516
tp586
asg22
Nsbsg31
(irule
Guard
p587
(dp588
g18
I00
sg19
(lp589
(irule
FeatureMatrix
p590
(dp591
g28
(lp592
(I00
g524
tp593
a(I00
S'vowel'
p594
tp595
a(I01
g516
tp596
asg22
Nsbasg21
I00
sg22
Nsg23
I00
sg24
S'R'
sbsg35
(irule
FeatureMatrix
p597
(dp598
g28
(lp599
sg22
Nsbsg22
Nsba(irule
Rule
p600
(dp601
g15
(irule
Guard
p602
(dp603
g18
I00
sg19
(lp604
sg21
I00
sg22
Nsg23
I00
sg24
S'L'
sbsg25
(irule
FeatureMatrix
p605
(dp606
g28
(lp607
(I01
g516
tp608
asg22
Nsbsg31
(irule
Guard
p609
(dp610
g18
I00
sg19
(lp611
(irule
FeatureMatrix
p612
(dp613
g28
(lp614
(I00
g524
tp615
a(I00
S'tense'
p616
tp617
a(I01
g516
tp618
asg22
Nsbasg21
I00
sg22
Nsg23
I00
sg24
S'R'
sbsg35
(irule
FeatureMatrix
p619
(dp620
g28
(lp621
sg22
Nsbsg22
Nsba(irule
Rule
p622
(dp623
g15
(irule
Guard
p624
(dp625
g18
I00
sg19
(lp626
sg21
I00
sg22
Nsg23
I00
sg24
S'L'
sbsg25
(irule
FeatureMatrix
p627
(dp628
g28
(lp629
(I00
S'sibilant'
p630
tp631
a(I01
g516
tp632
asg22
Nsbsg31
(irule
Guard
p633
(dp634
g18
I00
sg19
(lp635
(irule
FeatureMatrix
p636
(dp637
g28
(lp638
(I00
g524
tp639
a(I01
g516
tp640
asg22
Nsbasg21
I00
sg22
Nsg23
I00
sg24
S'R'
sbsg35
(irule
FeatureMatrix
p641
(dp642
g28
(lp643
sg22
Nsbsg22
Nsba(irule
Rule
p644
(dp645
g15
(irule
Guard
p646
(dp647
g18
I00
sg19
(lp648
sg21
I00
sg22
Nsg23
I00
sg24
S'L'
sbsg25
(irule
FeatureMatrix
p649
(dp650
g28
(lp651
(I00
S'long'
p652
tp653
a(I01
g516
tp654
asg22
Nsbsg31
(irule
Guard
p655
(dp656
g18
I00
sg19
(lp657
(irule
FeatureMatrix
p658
(dp659
g28
(lp660
(I00
g524
tp661
a(I01
g516
tp662
asg22
Nsbasg21
I00
sg22
Nsg23
I00
sg24
S'R'
sbsg35
(irule
FeatureMatrix
p663
(dp664
g28
(lp665
sg22
Nsbsg22
Nsba(irule
Rule
p666
(dp667
g15
(irule
Guard
p668
(dp669
g18
I00
sg19
(lp670
sg21
I00
sg22
Nsg23
I00
sg24
S'L'
sbsg25
(irule
FeatureMatrix
p671
(dp672
g28
(lp673
(I01
g516
tp674
asg22
Nsbsg31
(irule
Guard
p675
(dp676
g18
I00
sg19
(lp677
(irule
FeatureMatrix
p678
(dp679
g28
(lp680
(I00
g524
tp681
a(I01
g516
tp682
asg22
Nsbasg21
I00
sg22
Nsg23
I00
sg24
S'R'
sbsg35
(irule
FeatureMatrix
p683
(dp684
g28
(lp685
(I00
g516
tp686
asg22
Nsbsg22
Nsba(irule
Rule
p687
(dp688
g15
(irule
Guard
p689
(dp690
g18
I00
sg19
(lp691
sg21
I00
sg22
Nsg23
I00
sg24
S'L'
sbsg25
(irule
FeatureMatrix
p692
(dp693
g28
(lp694
(I01
g516
tp695
asg22
Nsbsg31
(irule
Guard
p696
(dp697
g18
I00
sg19
(lp698
(irule
FeatureMatrix
p699
(dp700
g28
(lp701
(I00
S'lateral'
p702
tp703
a(I00
g524
tp704
a(I01
g516
tp705
asg22
Nsbasg21
I00
sg22
Nsg23
I00
sg24
S'R'
sbsg35
(irule
FeatureMatrix
p706
(dp707
g28
(lp708
sg22
Nsbsg22
Nsba(irule
Rule
p709
(dp710
g15
(irule
Guard
p711
(dp712
g18
I00
sg19
(lp713
sg21
I00
sg22
Nsg23
I00
sg24
S'L'
sbsg25
(irule
FeatureMatrix
p714
(dp715
g28
(lp716
(I01
g516
tp717
asg22
Nsbsg31
(irule
Guard
p718
(dp719
g18
I00
sg19
(lp720
(irule
FeatureMatrix
p721
(dp722
g28
(lp723
(I00
g524
tp724
a(I01
g516
tp725
asg22
Nsbasg21
I00
sg22
Nsg23
I00
sg24
S'R'
sbsg35
(irule
FeatureMatrix
p726
(dp727
g28
(lp728
(I00
g630
tp729
asg22
Nsbsg22
Nsba(irule
Rule
p730
(dp731
g15
(irule
Guard
p732
(dp733
g18
I00
sg19
(lp734
sg21
I00
sg22
Nsg23
I00
sg24
S'L'
sbsg25
(irule
FeatureMatrix
p735
(dp736
g28
(lp737
(I01
g516
tp738
asg22
Nsbsg31
(irule
Guard
p739
(dp740
g18
I00
sg19
(lp741
(irule
FeatureMatrix
p742
(dp743
g28
(lp744
(I00
S'liquid'
p745
tp746
a(I00
g524
tp747
a(I01
g516
tp748
asg22
Nsbasg21
I00
sg22
Nsg23
I00
sg24
S'R'
sbsg35
(irule
FeatureMatrix
p749
(dp750
g28
(lp751
sg22
Nsbsg22
Nsba(irule
Rule
p752
(dp753
g15
(irule
Guard
p754
(dp755
g18
I00
sg19
(lp756
sg21
I00
sg22
Nsg23
I00
sg24
S'L'
sbsg25
(irule
FeatureMatrix
p757
(dp758
g28
(lp759
(I01
g516
tp760
asg22
Nsbsg31
(irule
Guard
p761
(dp762
g18
I00
sg19
(lp763
(irule
FeatureMatrix
p764
(dp765
g28
(lp766
(I00
g524
tp767
a(I01
g516
tp768
asg22
Nsbasg21
I00
sg22
Nsg23
I00
sg24
S'R'
sbsg35
(irule
FeatureMatrix
p769
(dp770
g28
(lp771
(I00
g594
tp772
asg22
Nsbsg22
Nsba(irule
Rule
p773
(dp774
g15
(irule
Guard
p775
(dp776
g18
I00
sg19
(lp777
sg21
I00
sg22
Nsg23
I00
sg24
S'L'
sbsg25
(irule
FeatureMatrix
p778
(dp779
g28
(lp780
(I01
g516
tp781
asg22
Nsbsg31
(irule
Guard
p782
(dp783
g18
I00
sg19
(lp784
(irule
FeatureMatrix
p785
(dp786
g28
(lp787
(I00
S'nasal'
p788
tp789
a(I00
g524
tp790
a(I01
g516
tp791
asg22
Nsbasg21
I00
sg22
Nsg23
I00
sg24
S'R'
sbsg35
(irule
FeatureMatrix
p792
(dp793
g28
(lp794
sg22
Nsbsg22
Nsba(irule
Rule
p795
(dp796
g15
(irule
Guard
p797
(dp798
g18
I00
sg19
(lp799
sg21
I00
sg22
Nsg23
I00
sg24
S'L'
sbsg25
(irule
FeatureMatrix
p800
(dp801
g28
(lp802
(I00
S'palletized'
p803
tp804
a(I01
g516
tp805
asg22
Nsbsg31
(irule
Guard
p806
(dp807
g18
I00
sg19
(lp808
(irule
FeatureMatrix
p809
(dp810
g28
(lp811
(I00
g524
tp812
a(I01
g516
tp813
asg22
Nsbasg21
I00
sg22
Nsg23
I00
sg24
S'R'
sbsg35
(irule
FeatureMatrix
p814
(dp815
g28
(lp816
sg22
Nsbsg22
Nsba(irule
Rule
p817
(dp818
g15
(irule
Guard
p819
(dp820
g18
I00
sg19
(lp821
sg21
I00
sg22
Nsg23
I00
sg24
S'L'
sbsg25
(irule
FeatureMatrix
p822
(dp823
g28
(lp824
(I00
g549
tp825
a(I01
g516
tp826
asg22
Nsbsg31
(irule
Guard
p827
(dp828
g18
I00
sg19
(lp829
(irule
FeatureMatrix
p830
(dp831
g28
(lp832
(I00
g524
tp833
a(I01
g516
tp834
asg22
Nsbasg21
I00
sg22
Nsg23
I00
sg24
S'R'
sbsg35
(irule
FeatureMatrix
p835
(dp836
g28
(lp837
sg22
Nsbsg22
Nsba(irule
Rule
p838
(dp839
g15
(irule
Guard
p840
(dp841
g18
I00
sg19
(lp842
sg21
I00
sg22
Nsg23
I00
sg24
S'L'
sbsg25
(irule
FeatureMatrix
p843
(dp844
g28
(lp845
(I01
g516
tp846
asg22
Nsbsg31
(irule
Guard
p847
(dp848
g18
I00
sg19
(lp849
(irule
FeatureMatrix
p850
(dp851
g28
(lp852
(I00
g524
tp853
a(I01
g516
tp854
asg22
Nsbasg21
I00
sg22
Nsg23
I00
sg24
S'R'
sbsg35
(irule
FeatureMatrix
p855
(dp856
g28
(lp857
(I00
g549
tp858
asg22
Nsbsg22
Nsba(irule
Rule
p859
(dp860
g15
(irule
Guard
p861
(dp862
g18
I00
sg19
(lp863
sg21
I00
sg22
Nsg23
I00
sg24
S'L'
sbsg25
(irule
FeatureMatrix
p864
(dp865
g28
(lp866
(I01
g516
tp867
asg22
Nsbsg31
(irule
Guard
p868
(dp869
g18
I00
sg19
(lp870
(irule
FeatureMatrix
p871
(dp872
g28
(lp873
(I00
S'rounded'
p874
tp875
a(I00
g524
tp876
a(I01
g516
tp877
asg22
Nsbasg21
I00
sg22
Nsg23
I00
sg24
S'R'
sbsg35
(irule
FeatureMatrix
p878
(dp879
g28
(lp880
sg22
Nsbsg22
Nsba(irule
Rule
p881
(dp882
g15
(irule
Guard
p883
(dp884
g18
I00
sg19
(lp885
sg21
I00
sg22
Nsg23
I00
sg24
S'L'
sbsg25
(irule
FeatureMatrix
p886
(dp887
g28
(lp888
(I01
g516
tp889
asg22
Nsbsg31
(irule
Guard
p890
(dp891
g18
I00
sg19
(lp892
(irule
FeatureMatrix
p893
(dp894
g28
(lp895
(I00
g652
tp896
a(I00
g524
tp897
a(I01
g516
tp898
asg22
Nsbasg21
I00
sg22
Nsg23
I00
sg24
S'R'
sbsg35
(irule
FeatureMatrix
p899
(dp900
g28
(lp901
sg22
Nsbsg22
Nsba(irule
Rule
p902
(dp903
g15
(irule
Guard
p904
(dp905
g18
I00
sg19
(lp906
sg21
I00
sg22
Nsg23
I00
sg24
S'L'
sbsg25
(irule
FeatureMatrix
p907
(dp908
g28
(lp909
(I01
g516
tp910
asg22
Nsbsg31
(irule
Guard
p911
(dp912
g18
I00
sg19
(lp913
(irule
FeatureMatrix
p914
(dp915
g28
(lp916
(I00
g524
tp917
a(I01
g516
tp918
asg22
Nsbasg21
I00
sg22
Nsg23
I00
sg24
S'R'
sbsg35
(irule
FeatureMatrix
p919
(dp920
g28
(lp921
(I00
g803
tp922
asg22
Nsbsg22
Nsba(irule
Rule
p923
(dp924
g15
(irule
Guard
p925
(dp926
g18
I00
sg19
(lp927
sg21
I00
sg22
Nsg23
I00
sg24
S'L'
sbsg25
(irule
FeatureMatrix
p928
(dp929
g28
(lp930
(I00
g702
tp931
a(I01
g516
tp932
asg22
Nsbsg31
(irule
Guard
p933
(dp934
g18
I00
sg19
(lp935
(irule
FeatureMatrix
p936
(dp937
g28
(lp938
(I00
g524
tp939
a(I01
g516
tp940
asg22
Nsbasg21
I00
sg22
Nsg23
I00
sg24
S'R'
sbsg35
(irule
FeatureMatrix
p941
(dp942
g28
(lp943
sg22
Nsbsg22
Nsba(irule
Rule
p944
(dp945
g15
(irule
Guard
p946
(dp947
g18
I00
sg19
(lp948
sg21
I00
sg22
Nsg23
I00
sg24
S'L'
sbsg25
(irule
FeatureMatrix
p949
(dp950
g28
(lp951
(I00
g745
tp952
a(I01
g516
tp953
asg22
Nsbsg31
(irule
Guard
p954
(dp955
g18
I00
sg19
(lp956
(irule
FeatureMatrix
p957
(dp958
g28
(lp959
(I00
g524
tp960
a(I01
g516
tp961
asg22
Nsbasg21
I00
sg22
Nsg23
I00
sg24
S'R'
sbsg35
(irule
FeatureMatrix
p962
(dp963
g28
(lp964
sg22
Nsbsg22
Nsba(irule
Rule
p965
(dp966
g15
(irule
Guard
p967
(dp968
g18
I00
sg19
(lp969
sg21
I00
sg22
Nsg23
I00
sg24
S'L'
sbsg25
(irule
FeatureMatrix
p970
(dp971
g28
(lp972
(I01
g516
tp973
asg22
Nsbsg31
(irule
Guard
p974
(dp975
g18
I00
sg19
(lp976
(irule
FeatureMatrix
p977
(dp978
g28
(lp979
(I00
g524
tp980
a(I01
g516
tp981
asg22
Nsbasg21
I00
sg22
Nsg23
I00
sg24
S'R'
sbsg35
(irule
FeatureMatrix
p982
(dp983
g28
(lp984
(I00
g616
tp985
asg22
Nsbsg22
Nsba(irule
Rule
p986
(dp987
g15
(irule
Guard
p988
(dp989
g18
I00
sg19
(lp990
sg21
I00
sg22
Nsg23
I00
sg24
S'L'
sbsg25
(irule
FeatureMatrix
p991
(dp992
g28
(lp993
(I01
g516
tp994
asg22
Nsbsg31
(irule
Guard
p995
(dp996
g18
I00
sg19
(lp997
(irule
FeatureMatrix
p998
(dp999
g28
(lp1000
(I00
g524
tp1001
a(I01
g516
tp1002
asg22
Nsbasg21
I00
sg22
Nsg23
I00
sg24
S'R'
sbsg35
(irule
FeatureMatrix
p1003
(dp1004
g28
(lp1005
(I00
S'high'
p1006
tp1007
asg22
Nsbsg22
Nsba(irule
Rule
p1008
(dp1009
g15
(irule
Guard
p1010
(dp1011
g18
I00
sg19
(lp1012
sg21
I00
sg22
Nsg23
I00
sg24
S'L'
sbsg25
(irule
FeatureMatrix
p1013
(dp1014
g28
(lp1015
(I01
g516
tp1016
asg22
Nsbsg31
(irule
Guard
p1017
(dp1018
g18
I00
sg19
(lp1019
(irule
FeatureMatrix
p1020
(dp1021
g28
(lp1022
(I00
g524
tp1023
a(I01
g516
tp1024
asg22
Nsbasg21
I00
sg22
Nsg23
I00
sg24
S'R'
sbsg35
(irule
FeatureMatrix
p1025
(dp1026
g28
(lp1027
(I00
g524
tp1028
asg22
Nsbsg22
Nsba(irule
Rule
p1029
(dp1030
g15
(irule
Guard
p1031
(dp1032
g18
I00
sg19
(lp1033
sg21
I00
sg22
Nsg23
I00
sg24
S'L'
sbsg25
(irule
FeatureMatrix
p1034
(dp1035
g28
(lp1036
(I01
g516
tp1037
asg22
Nsbsg31
(irule
Guard
p1038
(dp1039
g18
I00
sg19
(lp1040
(irule
FeatureMatrix
p1041
(dp1042
g28
(lp1043
(I00
g524
tp1044
a(I01
g516
tp1045
asg22
Nsbasg21
I00
sg22
Nsg23
I00
sg24
S'R'
sbsg35
(irule
FeatureMatrix
p1046
(dp1047
g28
(lp1048
(I00
S'back'
p1049
tp1050
asg22
Nsbsg22
Nsba(irule
Rule
p1051
(dp1052
g15
(irule
Guard
p1053
(dp1054
g18
I00
sg19
(lp1055
sg21
I00
sg22
Nsg23
I00
sg24
S'L'
sbsg25
(irule
FeatureMatrix
p1056
(dp1057
g28
(lp1058
(I01
g516
tp1059
asg22
Nsbsg31
(irule
Guard
p1060
(dp1061
g18
I00
sg19
(lp1062
(irule
FeatureMatrix
p1063
(dp1064
g28
(lp1065
(I00
g524
tp1066
a(I01
g516
tp1067
asg22
Nsbasg21
I00
sg22
Nsg23
I00
sg24
S'R'
sbsg35
(irule
FeatureMatrix
p1068
(dp1069
g28
(lp1070
(I00
g788
tp1071
asg22
Nsbsg22
Nsba(irule
Rule
p1072
(dp1073
g15
(irule
Guard
p1074
(dp1075
g18
I00
sg19
(lp1076
sg21
I00
sg22
Nsg23
I00
sg24
S'L'
sbsg25
(irule
FeatureMatrix
p1077
(dp1078
g28
(lp1079
(I01
g516
tp1080
asg22
Nsbsg31
(irule
Guard
p1081
(dp1082
g18
I00
sg19
(lp1083
(irule
FeatureMatrix
p1084
(dp1085
g28
(lp1086
(I00
g524
tp1087
a(I01
g516
tp1088
asg22
Nsbasg21
I00
sg22
Nsg23
I00
sg24
S'R'
sbsg35
(irule
FeatureMatrix
p1089
(dp1090
g28
(lp1091
(I00
g702
tp1092
asg22
Nsbsg22
Nsba(irule
Rule
p1093
(dp1094
g15
(irule
Guard
p1095
(dp1096
g18
I00
sg19
(lp1097
sg21
I00
sg22
Nsg23
I00
sg24
S'L'
sbsg25
(irule
FeatureMatrix
p1098
(dp1099
g28
(lp1100
(I01
g516
tp1101
asg22
Nsbsg31
(irule
Guard
p1102
(dp1103
g18
I00
sg19
(lp1104
(irule
FeatureMatrix
p1105
(dp1106
g28
(lp1107
(I00
g524
tp1108
a(I01
g516
tp1109
asg22
Nsbasg21
I00
sg22
Nsg23
I00
sg24
S'R'
sbsg35
(irule
FeatureMatrix
p1110
(dp1111
g28
(lp1112
(I00
g652
tp1113
asg22
Nsbsg22
Nsba(irule
Rule
p1114
(dp1115
g15
(irule
Guard
p1116
(dp1117
g18
I00
sg19
(lp1118
sg21
I00
sg22
Nsg23
I00
sg24
S'L'
sbsg25
(irule
FeatureMatrix
p1119
(dp1120
g28
(lp1121
(I01
g516
tp1122
asg22
Nsbsg31
(irule
Guard
p1123
(dp1124
g18
I00
sg19
(lp1125
(irule
FeatureMatrix
p1126
(dp1127
g28
(lp1128
(I00
g524
tp1129
a(I01
g516
tp1130
asg22
Nsbasg21
I00
sg22
Nsg23
I00
sg24
S'R'
sbsg35
(irule
FeatureMatrix
p1131
(dp1132
g28
(lp1133
(I00
g745
tp1134
asg22
Nsbsg22
Nsba(irule
Rule
p1135
(dp1136
g15
(irule
Guard
p1137
(dp1138
g18
I00
sg19
(lp1139
sg21
I00
sg22
Nsg23
I00
sg24
S'L'
sbsg25
(irule
FeatureMatrix
p1140
(dp1141
g28
(lp1142
(I01
g516
tp1143
asg22
Nsbsg31
(irule
Guard
p1144
(dp1145
g18
I00
sg19
(lp1146
(irule
FeatureMatrix
p1147
(dp1148
g28
(lp1149
(I00
g524
tp1150
a(I01
g516
tp1151
asg22
Nsbasg21
I00
sg22
Nsg23
I00
sg24
S'R'
sbsg35
(irule
FeatureMatrix
p1152
(dp1153
g28
(lp1154
(I00
S'continuant'
p1155
tp1156
asg22
Nsbsg22
Nsba(irule
Rule
p1157
(dp1158
g15
(irule
Guard
p1159
(dp1160
g18
I00
sg19
(lp1161
sg21
I00
sg22
Nsg23
I00
sg24
S'L'
sbsg25
(irule
FeatureMatrix
p1162
(dp1163
g28
(lp1164
(I01
g516
tp1165
asg22
Nsbsg31
(irule
Guard
p1166
(dp1167
g18
I00
sg19
(lp1168
(irule
FeatureMatrix
p1169
(dp1170
g28
(lp1171
(I00
g524
tp1172
a(I01
g516
tp1173
asg22
Nsbasg21
I00
sg22
Nsg23
I00
sg24
S'R'
sbsg35
(irule
FeatureMatrix
p1174
(dp1175
g28
(lp1176
(I00
g874
tp1177
asg22
Nsbsg22
Nsba(irule
Rule
p1178
(dp1179
g15
(irule
Guard
p1180
(dp1181
g18
I00
sg19
(lp1182
sg21
I00
sg22
Nsg23
I00
sg24
S'L'
sbsg25
(irule
FeatureMatrix
p1183
(dp1184
g28
(lp1185
(I01
g516
tp1186
asg22
Nsbsg31
(irule
Guard
p1187
(dp1188
g18
I00
sg19
(lp1189
(irule
FeatureMatrix
p1190
(dp1191
g28
(lp1192
(I00
g524
tp1193
a(I01
g516
tp1194
asg22
Nsbasg21
I00
sg22
Nsg23
I00
sg24
S'R'
sbsg35
(irule
FeatureMatrix
p1195
(dp1196
g28
(lp1197
(I01
S'anterior'
p1198
tp1199
asg22
Nsbsg22
Nsba(irule
Rule
p1200
(dp1201
g15
(irule
Guard
p1202
(dp1203
g18
I00
sg19
(lp1204
(irule
FeatureMatrix
p1205
(dp1206
g28
(lp1207
sg22
Nsbasg21
I00
sg22
Nsg23
I00
sg24
S'L'
sbsg25
(irule
FeatureMatrix
p1208
(dp1209
g28
(lp1210
(I01
g516
tp1211
asg22
Nsbsg31
(irule
Guard
p1212
(dp1213
g18
I00
sg19
(lp1214
(irule
FeatureMatrix
p1215
(dp1216
g28
(lp1217
(I00
g524
tp1218
a(I01
g516
tp1219
asg22
Nsba(irule
FeatureMatrix
p1220
(dp1221
g28
(lp1222
sg22
Nsbasg21
I00
sg22
Nsg23
I00
sg24
S'R'
sbsg35
(irule
FeatureMatrix
p1223
(dp1224
g28
(lp1225
sg22
Nsbsg22
Nsba(irule
Rule
p1226
(dp1227
g15
(irule
Guard
p1228
(dp1229
g18
I00
sg19
(lp1230
sg21
I00
sg22
Nsg23
I00
sg24
S'L'
sbsg25
(irule
FeatureMatrix
p1231
(dp1232
g28
(lp1233
(I01
g516
tp1234
asg22
Nsbsg31
(irule
Guard
p1235
(dp1236
g18
I00
sg19
(lp1237
(irule
FeatureMatrix
p1238
(dp1239
g28
(lp1240
(I00
g524
tp1241
a(I01
g516
tp1242
asg22
Nsba(irule
FeatureMatrix
p1243
(dp1244
g28
(lp1245
(I01
g516
tp1246
asg22
Nsbasg21
I00
sg22
Nsg23
I00
sg24
S'R'
sbsg35
(irule
FeatureMatrix
p1247
(dp1248
g28
(lp1249
sg22
Nsbsg22
Nsba(irule
Rule
p1250
(dp1251
g15
(irule
Guard
p1252
(dp1253
g18
I00
sg19
(lp1254
sg21
I00
sg22
Nsg23
I00
sg24
S'L'
sbsg25
(irule
FeatureMatrix
p1255
(dp1256
g28
(lp1257
(I01
g516
tp1258
asg22
Nsbsg31
(irule
Guard
p1259
(dp1260
g18
I00
sg19
(lp1261
(irule
FeatureMatrix
p1262
(dp1263
g28
(lp1264
(I00
g524
tp1265
a(I01
g516
tp1266
asg22
Nsba(irule
FeatureMatrix
p1267
(dp1268
g28
(lp1269
(I00
g1198
tp1270
asg22
Nsbasg21
I00
sg22
Nsg23
I00
sg24
S'R'
sbsg35
(irule
FeatureMatrix
p1271
(dp1272
g28
(lp1273
sg22
Nsbsg22
Nsba(irule
Rule
p1274
(dp1275
g15
(irule
Guard
p1276
(dp1277
g18
I00
sg19
(lp1278
sg21
I00
sg22
Nsg23
I00
sg24
S'L'
sbsg25
(irule
FeatureMatrix
p1279
(dp1280
g28
(lp1281
(I01
g516
tp1282
asg22
Nsbsg31
(irule
Guard
p1283
(dp1284
g18
I00
sg19
(lp1285
(irule
FeatureMatrix
p1286
(dp1287
g28
(lp1288
(I00
g524
tp1289
a(I01
g516
tp1290
asg22
Nsbasg21
I00
sg22
Nsg23
I00
sg24
S'R'
sbsg35
(irule
FeatureMatrix
p1291
(dp1292
g28
(lp1293
(I00
g874
tp1294
a(I00
g745
tp1295
asg22
Nsbsg22
Nsba(irule
Rule
p1296
(dp1297
g15
(irule
Guard
p1298
(dp1299
g18
I00
sg19
(lp1300
sg21
I00
sg22
Nsg23
I00
sg24
S'L'
sbsg25
(irule
FeatureMatrix
p1301
(dp1302
g28
(lp1303
(I00
g630
tp1304
a(I01
g516
tp1305
asg22
Nsbsg31
(irule
Guard
p1306
(dp1307
g18
I00
sg19
(lp1308
(irule
FeatureMatrix
p1309
(dp1310
g28
(lp1311
(I00
g524
tp1312
a(I01
g516
tp1313
asg22
Nsba(irule
FeatureMatrix
p1314
(dp1315
g28
(lp1316
sg22
Nsbasg21
I00
sg22
Nsg23
I00
sg24
S'R'
sbsg35
(irule
FeatureMatrix
p1317
(dp1318
g28
(lp1319
sg22
Nsbsg22
Nsba(irule
Rule
p1320
(dp1321
g15
(irule
Guard
p1322
(dp1323
g18
I00
sg19
(lp1324
sg21
I00
sg22
Nsg23
I00
sg24
S'L'
sbsg25
(irule
FeatureMatrix
p1325
(dp1326
g28
(lp1327
(I01
g516
tp1328
asg22
Nsbsg31
(irule
Guard
p1329
(dp1330
g18
I00
sg19
(lp1331
(irule
FeatureMatrix
p1332
(dp1333
g28
(lp1334
(I00
g524
tp1335
a(I01
g516
tp1336
asg22
Nsba(irule
FeatureMatrix
p1337
(dp1338
g28
(lp1339
sg22
Nsbasg21
I00
sg22
Nsg23
I00
sg24
S'R'
sbsg35
(irule
FeatureMatrix
p1340
(dp1341
g28
(lp1342
(I00
g549
tp1343
asg22
Nsbsg22
Nsba(irule
Rule
p1344
(dp1345
g15
(irule
Guard
p1346
(dp1347
g18
I00
sg19
(lp1348
sg21
I00
sg22
Nsg23
I00
sg24
S'L'
sbsg25
(irule
FeatureMatrix
p1349
(dp1350
g28
(lp1351
(I01
g516
tp1352
asg22
Nsbsg31
(irule
Guard
p1353
(dp1354
g18
I00
sg19
(lp1355
(irule
FeatureMatrix
p1356
(dp1357
g28
(lp1358
(I00
g524
tp1359
a(I01
g516
tp1360
asg22
Nsba(irule
FeatureMatrix
p1361
(dp1362
g28
(lp1363
(I01
g524
tp1364
asg22
Nsbasg21
I00
sg22
Nsg23
I00
sg24
S'R'
sbsg35
(irule
FeatureMatrix
p1365
(dp1366
g28
(lp1367
sg22
Nsbsg22
Nsba(irule
Rule
p1368
(dp1369
g15
(irule
Guard
p1370
(dp1371
g18
I00
sg19
(lp1372
sg21
I00
sg22
Nsg23
I00
sg24
S'L'
sbsg25
(irule
FeatureMatrix
p1373
(dp1374
g28
(lp1375
(I01
g516
tp1376
asg22
Nsbsg31
(irule
Guard
p1377
(dp1378
g18
I00
sg19
(lp1379
(irule
FeatureMatrix
p1380
(dp1381
g28
(lp1382
(I00
g524
tp1383
a(I01
g516
tp1384
asg22
Nsba(irule
FeatureMatrix
p1385
(dp1386
g28
(lp1387
sg22
Nsbasg21
I00
sg22
Nsg23
I00
sg24
S'R'
sbsg35
(irule
FeatureMatrix
p1388
(dp1389
g28
(lp1390
(I00
g630
tp1391
asg22
Nsbsg22
Nsba(irule
Rule
p1392
(dp1393
g15
(irule
Guard
p1394
(dp1395
g18
I00
sg19
(lp1396
sg21
I00
sg22
Nsg23
I00
sg24
S'L'
sbsg25
(irule
FeatureMatrix
p1397
(dp1398
g28
(lp1399
(I01
g516
tp1400
asg22
Nsbsg31
(irule
Guard
p1401
(dp1402
g18
I00
sg19
(lp1403
(irule
FeatureMatrix
p1404
(dp1405
g28
(lp1406
(I00
g524
tp1407
a(I01
g516
tp1408
asg22
Nsba(irule
FeatureMatrix
p1409
(dp1410
g28
(lp1411
(I00
g702
tp1412
asg22
Nsbasg21
I00
sg22
Nsg23
I00
sg24
S'R'
sbsg35
(irule
FeatureMatrix
p1413
(dp1414
g28
(lp1415
sg22
Nsbsg22
Nsba(irule
Rule
p1416
(dp1417
g15
(irule
Guard
p1418
(dp1419
g18
I00
sg19
(lp1420
sg21
I00
sg22
Nsg23
I00
sg24
S'L'
sbsg25
(irule
FeatureMatrix
p1421
(dp1422
g28
(lp1423
(I01
g516
tp1424
asg22
Nsbsg31
(irule
Guard
p1425
(dp1426
g18
I00
sg19
(lp1427
(irule
FeatureMatrix
p1428
(dp1429
g28
(lp1430
(I00
g524
tp1431
a(I01
g516
tp1432
asg22
Nsba(irule
FeatureMatrix
p1433
(dp1434
g28
(lp1435
(I01
g1155
tp1436
asg22
Nsbasg21
I00
sg22
Nsg23
I00
sg24
S'R'
sbsg35
(irule
FeatureMatrix
p1437
(dp1438
g28
(lp1439
sg22
Nsbsg22
Nsba(irule
Rule
p1440
(dp1441
g15
(irule
Guard
p1442
(dp1443
g18
I00
sg19
(lp1444
sg21
I00
sg22
Nsg23
I00
sg24
S'L'
sbsg25
(irule
FeatureMatrix
p1445
(dp1446
g28
(lp1447
(I01
g516
tp1448
asg22
Nsbsg31
(irule
Guard
p1449
(dp1450
g18
I00
sg19
(lp1451
(irule
FeatureMatrix
p1452
(dp1453
g28
(lp1454
(I00
g524
tp1455
a(I00
g549
tp1456
a(I01
g516
tp1457
asg22
Nsba(irule
FeatureMatrix
p1458
(dp1459
g28
(lp1460
sg22
Nsbasg21
I00
sg22
Nsg23
I00
sg24
S'R'
sbsg35
(irule
FeatureMatrix
p1461
(dp1462
g28
(lp1463
sg22
Nsbsg22
Nsba(irule
Rule
p1464
(dp1465
g15
(irule
Guard
p1466
(dp1467
g18
I00
sg19
(lp1468
sg21
I00
sg22
Nsg23
I00
sg24
S'L'
sbsg25
(irule
FeatureMatrix
p1469
(dp1470
g28
(lp1471
(I01
g516
tp1472
asg22
Nsbsg31
(irule
Guard
p1473
(dp1474
g18
I00
sg19
(lp1475
(irule
FeatureMatrix
p1476
(dp1477
g28
(lp1478
(I00
g524
tp1479
a(I01
g516
tp1480
asg22
Nsba(irule
FeatureMatrix
p1481
(dp1482
g28
(lp1483
(I00
g788
tp1484
asg22
Nsbasg21
I00
sg22
Nsg23
I00
sg24
S'R'
sbsg35
(irule
FeatureMatrix
p1485
(dp1486
g28
(lp1487
sg22
Nsbsg22
Nsba(irule
Rule
p1488
(dp1489
g15
(irule
Guard
p1490
(dp1491
g18
I00
sg19
(lp1492
sg21
I00
sg22
Nsg23
I00
sg24
S'L'
sbsg25
(irule
FeatureMatrix
p1493
(dp1494
g28
(lp1495
(I01
g516
tp1496
asg22
Nsbsg31
(irule
Guard
p1497
(dp1498
g18
I00
sg19
(lp1499
(irule
FeatureMatrix
p1500
(dp1501
g28
(lp1502
(I00
g524
tp1503
a(I01
g516
tp1504
asg22
Nsba(irule
FeatureMatrix
p1505
(dp1506
g28
(lp1507
(I00
g803
tp1508
asg22
Nsbasg21
I00
sg22
Nsg23
I00
sg24
S'R'
sbsg35
(irule
FeatureMatrix
p1509
(dp1510
g28
(lp1511
sg22
Nsbsg22
Nsba(irule
Rule
p1512
(dp1513
g15
(irule
Guard
p1514
(dp1515
g18
I00
sg19
(lp1516
sg21
I00
sg22
Nsg23
I00
sg24
S'L'
sbsg25
(irule
FeatureMatrix
p1517
(dp1518
g28
(lp1519
(I01
g516
tp1520
asg22
Nsbsg31
(irule
Guard
p1521
(dp1522
g18
I00
sg19
(lp1523
(irule
FeatureMatrix
p1524
(dp1525
g28
(lp1526
(I00
g524
tp1527
a(I01
g516
tp1528
asg22
Nsba(irule
FeatureMatrix
p1529
(dp1530
g28
(lp1531
(I00
g652
tp1532
asg22
Nsbasg21
I00
sg22
Nsg23
I00
sg24
S'R'
sbsg35
(irule
FeatureMatrix
p1533
(dp1534
g28
(lp1535
sg22
Nsbsg22
Nsba(irule
Rule
p1536
(dp1537
g15
(irule
Guard
p1538
(dp1539
g18
I00
sg19
(lp1540
sg21
I00
sg22
Nsg23
I00
sg24
S'L'
sbsg25
(irule
FeatureMatrix
p1541
(dp1542
g28
(lp1543
(I01
g516
tp1544
asg22
Nsbsg31
(irule
Guard
p1545
(dp1546
g18
I00
sg19
(lp1547
(irule
FeatureMatrix
p1548
(dp1549
g28
(lp1550
(I00
g524
tp1551
a(I00
g594
tp1552
a(I01
g516
tp1553
asg22
Nsba(irule
FeatureMatrix
p1554
(dp1555
g28
(lp1556
sg22
Nsbasg21
I00
sg22
Nsg23
I00
sg24
S'R'
sbsg35
(irule
FeatureMatrix
p1557
(dp1558
g28
(lp1559
sg22
Nsbsg22
Nsba(irule
Rule
p1560
(dp1561
g15
(irule
Guard
p1562
(dp1563
g18
I00
sg19
(lp1564
sg21
I00
sg22
Nsg23
I00
sg24
S'L'
sbsg25
(irule
FeatureMatrix
p1565
(dp1566
g28
(lp1567
(I01
g516
tp1568
asg22
Nsbsg31
(irule
Guard
p1569
(dp1570
g18
I00
sg19
(lp1571
(irule
FeatureMatrix
p1572
(dp1573
g28
(lp1574
(I00
g788
tp1575
a(I00
g524
tp1576
a(I01
g516
tp1577
asg22
Nsba(irule
FeatureMatrix
p1578
(dp1579
g28
(lp1580
sg22
Nsbasg21
I00
sg22
Nsg23
I00
sg24
S'R'
sbsg35
(irule
FeatureMatrix
p1581
(dp1582
g28
(lp1583
sg22
Nsbsg22
Nsba(irule
Rule
p1584
(dp1585
g15
(irule
Guard
p1586
(dp1587
g18
I00
sg19
(lp1588
sg21
I00
sg22
Nsg23
I00
sg24
S'L'
sbsg25
(irule
FeatureMatrix
p1589
(dp1590
g28
(lp1591
(I00
g549
tp1592
a(I01
g516
tp1593
asg22
Nsbsg31
(irule
Guard
p1594
(dp1595
g18
I00
sg19
(lp1596
(irule
FeatureMatrix
p1597
(dp1598
g28
(lp1599
(I00
g524
tp1600
a(I01
g516
tp1601
asg22
Nsba(irule
FeatureMatrix
p1602
(dp1603
g28
(lp1604
sg22
Nsbasg21
I00
sg22
Nsg23
I00
sg24
S'R'
sbsg35
(irule
FeatureMatrix
p1605
(dp1606
g28
(lp1607
sg22
Nsbsg22
Nsba(irule
Rule
p1608
(dp1609
g15
(irule
Guard
p1610
(dp1611
g18
I00
sg19
(lp1612
(irule
ConstantPhoneme
p1613
(dp1614
S'p'
Va
sbasg21
I00
sg22
Nsg23
I00
sg24
S'L'
sbsg25
(irule
FeatureMatrix
p1615
(dp1616
g28
(lp1617
(I01
g516
tp1618
asg22
Nsbsg31
(irule
Guard
p1619
(dp1620
g18
I00
sg19
(lp1621
(irule
FeatureMatrix
p1622
(dp1623
g28
(lp1624
(I00
g524
tp1625
a(I01
g516
tp1626
asg22
Nsbasg21
I00
sg22
Nsg23
I00
sg24
S'R'
sbsg35
(irule
FeatureMatrix
p1627
(dp1628
g28
(lp1629
sg22
Nsbsg22
Nsba(irule
Rule
p1630
(dp1631
g15
(irule
Guard
p1632
(dp1633
g18
I00
sg19
(lp1634
sg21
I00
sg22
Nsg23
I00
sg24
S'L'
sbsg25
(irule
FeatureMatrix
p1635
(dp1636
g28
(lp1637
(I01
g516
tp1638
asg22
Nsbsg31
(irule
Guard
p1639
(dp1640
g18
I00
sg19
(lp1641
(irule
FeatureMatrix
p1642
(dp1643
g28
(lp1644
(I00
g702
tp1645
a(I00
g524
tp1646
a(I01
g516
tp1647
asg22
Nsba(irule
FeatureMatrix
p1648
(dp1649
g28
(lp1650
sg22
Nsbasg21
I00
sg22
Nsg23
I00
sg24
S'R'
sbsg35
(irule
FeatureMatrix
p1651
(dp1652
g28
(lp1653
sg22
Nsbsg22
Nsba(irule
Rule
p1654
(dp1655
g15
(irule
Guard
p1656
(dp1657
g18
I00
sg19
(lp1658
sg21
I00
sg22
Nsg23
I00
sg24
S'L'
sbsg25
(irule
FeatureMatrix
p1659
(dp1660
g28
(lp1661
(I00
g803
tp1662
a(I00
g630
tp1663
a(I01
g516
tp1664
asg22
Nsbsg31
(irule
Guard
p1665
(dp1666
g18
I00
sg19
(lp1667
(irule
FeatureMatrix
p1668
(dp1669
g28
(lp1670
(I00
g524
tp1671
a(I01
g516
tp1672
asg22
Nsbasg21
I00
sg22
Nsg23
I00
sg24
S'R'
sbsg35
(irule
FeatureMatrix
p1673
(dp1674
g28
(lp1675
sg22
Nsbsg22
Nsba(irule
Rule
p1676
(dp1677
g15
(irule
Guard
p1678
(dp1679
g18
I00
sg19
(lp1680
sg21
I00
sg22
Nsg23
I00
sg24
S'L'
sbsg25
(irule
FeatureMatrix
p1681
(dp1682
g28
(lp1683
(I01
g516
tp1684
asg22
Nsbsg31
(irule
Guard
p1685
(dp1686
g18
I00
sg19
(lp1687
(irule
FeatureMatrix
p1688
(dp1689
g28
(lp1690
(I00
g524
tp1691
a(I01
g516
tp1692
asg22
Nsba(irule
FeatureMatrix
p1693
(dp1694
g28
(lp1695
(I00
g630
tp1696
asg22
Nsbasg21
I00
sg22
Nsg23
I00
sg24
S'R'
sbsg35
(irule
FeatureMatrix
p1697
(dp1698
g28
(lp1699
sg22
Nsbsg22
Nsba(irule
Rule
p1700
(dp1701
g15
(irule
Guard
p1702
(dp1703
g18
I00
sg19
(lp1704
sg21
I00
sg22
Nsg23
I00
sg24
S'L'
sbsg25
(irule
FeatureMatrix
p1705
(dp1706
g28
(lp1707
(I01
g516
tp1708
asg22
Nsbsg31
(irule
Guard
p1709
(dp1710
g18
I00
sg19
(lp1711
(irule
FeatureMatrix
p1712
(dp1713
g28
(lp1714
(I00
g524
tp1715
a(I00
g616
tp1716
a(I01
g516
tp1717
asg22
Nsba(irule
FeatureMatrix
p1718
(dp1719
g28
(lp1720
sg22
Nsbasg21
I00
sg22
Nsg23
I00
sg24
S'R'
sbsg35
(irule
FeatureMatrix
p1721
(dp1722
g28
(lp1723
sg22
Nsbsg22
Nsba(irule
Rule
p1724
(dp1725
g15
(irule
Guard
p1726
(dp1727
g18
I00
sg19
(lp1728
sg21
I00
sg22
Nsg23
I00
sg24
S'L'
sbsg25
(irule
FeatureMatrix
p1729
(dp1730
g28
(lp1731
(I01
g516
tp1732
asg22
Nsbsg31
(irule
Guard
p1733
(dp1734
g18
I00
sg19
(lp1735
(irule
FeatureMatrix
p1736
(dp1737
g28
(lp1738
(I00
g874
tp1739
a(I00
g524
tp1740
a(I01
g516
tp1741
asg22
Nsba(irule
FeatureMatrix
p1742
(dp1743
g28
(lp1744
sg22
Nsbasg21
I00
sg22
Nsg23
I00
sg24
S'R'
sbsg35
(irule
FeatureMatrix
p1745
(dp1746
g28
(lp1747
sg22
Nsbsg22
Nsba(irule
Rule
p1748
(dp1749
g15
(irule
Guard
p1750
(dp1751
g18
I00
sg19
(lp1752
sg21
I00
sg22
Nsg23
I00
sg24
S'L'
sbsg25
(irule
FeatureMatrix
p1753
(dp1754
g28
(lp1755
(I01
g516
tp1756
asg22
Nsbsg31
(irule
Guard
p1757
(dp1758
g18
I00
sg19
(lp1759
(irule
FeatureMatrix
p1760
(dp1761
g28
(lp1762
(I00
g652
tp1763
a(I00
g524
tp1764
a(I01
g516
tp1765
asg22
Nsba(irule
FeatureMatrix
p1766
(dp1767
g28
(lp1768
sg22
Nsbasg21
I00
sg22
Nsg23
I00
sg24
S'R'
sbsg35
(irule
FeatureMatrix
p1769
(dp1770
g28
(lp1771
sg22
Nsbsg22
Nsba(irule
Rule
p1772
(dp1773
g15
(irule
Guard
p1774
(dp1775
g18
I00
sg19
(lp1776
sg21
I00
sg22
Nsg23
I00
sg24
S'L'
sbsg25
(irule
FeatureMatrix
p1777
(dp1778
g28
(lp1779
(I01
g516
tp1780
asg22
Nsbsg31
(irule
Guard
p1781
(dp1782
g18
I00
sg19
(lp1783
(irule
FeatureMatrix
p1784
(dp1785
g28
(lp1786
(I00
g745
tp1787
a(I00
g524
tp1788
a(I01
g516
tp1789
asg22
Nsba(irule
FeatureMatrix
p1790
(dp1791
g28
(lp1792
sg22
Nsbasg21
I00
sg22
Nsg23
I00
sg24
S'R'
sbsg35
(irule
FeatureMatrix
p1793
(dp1794
g28
(lp1795
sg22
Nsbsg22
Nsba(irule
Rule
p1796
(dp1797
g15
(irule
Guard
p1798
(dp1799
g18
I00
sg19
(lp1800
sg21
I00
sg22
Nsg23
I00
sg24
S'L'
sbsg25
(irule
FeatureMatrix
p1801
(dp1802
g28
(lp1803
(I01
g516
tp1804
asg22
Nsbsg31
(irule
Guard
p1805
(dp1806
g18
I00
sg19
(lp1807
(irule
FeatureMatrix
p1808
(dp1809
g28
(lp1810
(I00
g524
tp1811
a(I01
g516
tp1812
asg22
Nsbasg21
I01
sg22
Nsg23
I00
sg24
S'R'
sbsg35
(irule
FeatureMatrix
p1813
(dp1814
g28
(lp1815
sg22
Nsbsg22
Nsba(irule
Rule
p1816
(dp1817
g15
(irule
Guard
p1818
(dp1819
g18
I00
sg19
(lp1820
(irule
FeatureMatrix
p1821
(dp1822
g28
(lp1823
sg22
Nsbasg21
I00
sg22
Nsg23
I00
sg24
S'L'
sbsg25
(irule
FeatureMatrix
p1824
(dp1825
g28
(lp1826
(I01
g516
tp1827
asg22
Nsbsg31
(irule
Guard
p1828
(dp1829
g18
I00
sg19
(lp1830
(irule
FeatureMatrix
p1831
(dp1832
g28
(lp1833
(I00
g524
tp1834
a(I00
g549
tp1835
a(I01
g516
tp1836
asg22
Nsbasg21
I00
sg22
Nsg23
I00
sg24
S'R'
sbsg35
(irule
FeatureMatrix
p1837
(dp1838
g28
(lp1839
sg22
Nsbsg22
Nsba(irule
Rule
p1840
(dp1841
g15
(irule
Guard
p1842
(dp1843
g18
I00
sg19
(lp1844
(irule
FeatureMatrix
p1845
(dp1846
g28
(lp1847
sg22
Nsbasg21
I00
sg22
Nsg23
I00
sg24
S'L'
sbsg25
(irule
FeatureMatrix
p1848
(dp1849
g28
(lp1850
(I01
g516
tp1851
asg22
Nsbsg31
(irule
Guard
p1852
(dp1853
g18
I00
sg19
(lp1854
(irule
FeatureMatrix
p1855
(dp1856
g28
(lp1857
(I00
g788
tp1858
a(I00
g524
tp1859
a(I01
g516
tp1860
asg22
Nsbasg21
I00
sg22
Nsg23
I00
sg24
S'R'
sbsg35
(irule
FeatureMatrix
p1861
(dp1862
g28
(lp1863
sg22
Nsbsg22
Nsba(irule
Rule
p1864
(dp1865
g15
(irule
Guard
p1866
(dp1867
g18
I00
sg19
(lp1868
sg21
I00
sg22
Nsg23
I00
sg24
S'L'
sbsg25
(irule
FeatureMatrix
p1869
(dp1870
g28
(lp1871
(I00
g745
tp1872
a(I01
g516
tp1873
asg22
Nsbsg31
(irule
Guard
p1874
(dp1875
g18
I00
sg19
(lp1876
(irule
FeatureMatrix
p1877
(dp1878
g28
(lp1879
(I00
g524
tp1880
a(I01
g516
tp1881
asg22
Nsba(irule
FeatureMatrix
p1882
(dp1883
g28
(lp1884
sg22
Nsbasg21
I00
sg22
Nsg23
I00
sg24
S'R'
sbsg35
(irule
FeatureMatrix
p1885
(dp1886
g28
(lp1887
sg22
Nsbsg22
Nsba(irule
Rule
p1888
(dp1889
g15
(irule
Guard
p1890
(dp1891
g18
I00
sg19
(lp1892
sg21
I00
sg22
Nsg23
I00
sg24
S'L'
sbsg25
(irule
FeatureMatrix
p1893
(dp1894
g28
(lp1895
(I00
g803
tp1896
a(I01
g516
tp1897
asg22
Nsbsg31
(irule
Guard
p1898
(dp1899
g18
I00
sg19
(lp1900
(irule
FeatureMatrix
p1901
(dp1902
g28
(lp1903
(I00
g524
tp1904
a(I01
g516
tp1905
asg22
Nsba(irule
FeatureMatrix
p1906
(dp1907
g28
(lp1908
sg22
Nsbasg21
I00
sg22
Nsg23
I00
sg24
S'R'
sbsg35
(irule
FeatureMatrix
p1909
(dp1910
g28
(lp1911
sg22
Nsbsg22
Nsba(irule
Rule
p1912
(dp1913
g15
(irule
Guard
p1914
(dp1915
g18
I00
sg19
(lp1916
sg21
I00
sg22
Nsg23
I00
sg24
S'L'
sbsg25
(irule
FeatureMatrix
p1917
(dp1918
g28
(lp1919
(I01
g516
tp1920
asg22
Nsbsg31
(irule
Guard
p1921
(dp1922
g18
I00
sg19
(lp1923
(irule
FeatureMatrix
p1924
(dp1925
g28
(lp1926
(I00
g524
tp1927
a(I01
g516
tp1928
asg22
Nsba(irule
FeatureMatrix
p1929
(dp1930
g28
(lp1931
sg22
Nsbasg21
I00
sg22
Nsg23
I00
sg24
S'R'
sbsg35
(irule
FeatureMatrix
p1932
(dp1933
g28
(lp1934
(I00
g516
tp1935
asg22
Nsbsg22
Nsba(irule
Rule
p1936
(dp1937
g15
(irule
Guard
p1938
(dp1939
g18
I00
sg19
(lp1940
sg21
I00
sg22
Nsg23
I00
sg24
S'L'
sbsg25
(irule
FeatureMatrix
p1941
(dp1942
g28
(lp1943
(I00
g702
tp1944
a(I01
g516
tp1945
asg22
Nsbsg31
(irule
Guard
p1946
(dp1947
g18
I00
sg19
(lp1948
(irule
FeatureMatrix
p1949
(dp1950
g28
(lp1951
(I00
g524
tp1952
a(I01
g516
tp1953
asg22
Nsba(irule
FeatureMatrix
p1954
(dp1955
g28
(lp1956
sg22
Nsbasg21
I00
sg22
Nsg23
I00
sg24
S'R'
sbsg35
(irule
FeatureMatrix
p1957
(dp1958
g28
(lp1959
sg22
Nsbsg22
Nsba(irule
Rule
p1960
(dp1961
g15
(irule
Guard
p1962
(dp1963
g18
I00
sg19
(lp1964
(irule
FeatureMatrix
p1965
(dp1966
g28
(lp1967
sg22
Nsbasg21
I00
sg22
Nsg23
I00
sg24
S'L'
sbsg25
(irule
FeatureMatrix
p1968
(dp1969
g28
(lp1970
(I01
g516
tp1971
asg22
Nsbsg31
(irule
Guard
p1972
(dp1973
g18
I00
sg19
(lp1974
(irule
FeatureMatrix
p1975
(dp1976
g28
(lp1977
(I00
g524
tp1978
a(I00
g594
tp1979
a(I01
g516
tp1980
asg22
Nsbasg21
I00
sg22
Nsg23
I00
sg24
S'R'
sbsg35
(irule
FeatureMatrix
p1981
(dp1982
g28
(lp1983
sg22
Nsbsg22
Nsba(irule
Rule
p1984
(dp1985
g15
(irule
Guard
p1986
(dp1987
g18
I00
sg19
(lp1988
sg21
I00
sg22
Nsg23
I00
sg24
S'L'
sbsg25
(irule
FeatureMatrix
p1989
(dp1990
g28
(lp1991
(I00
g652
tp1992
a(I01
g516
tp1993
asg22
Nsbsg31
(irule
Guard
p1994
(dp1995
g18
I00
sg19
(lp1996
(irule
FeatureMatrix
p1997
(dp1998
g28
(lp1999
(I00
g524
tp2000
a(I01
g516
tp2001
asg22
Nsba(irule
FeatureMatrix
p2002
(dp2003
g28
(lp2004
sg22
Nsbasg21
I00
sg22
Nsg23
I00
sg24
S'R'
sbsg35
(irule
FeatureMatrix
p2005
(dp2006
g28
(lp2007
sg22
Nsbsg22
Nsba(irule
Rule
p2008
(dp2009
g15
(irule
Guard
p2010
(dp2011
g18
I00
sg19
(lp2012
sg21
I00
sg22
Nsg23
I00
sg24
S'L'
sbsg25
(irule
FeatureMatrix
p2013
(dp2014
g28
(lp2015
(I01
g516
tp2016
asg22
Nsbsg31
(irule
Guard
p2017
(dp2018
g18
I00
sg19
(lp2019
(irule
FeatureMatrix
p2020
(dp2021
g28
(lp2022
(I00
g524
tp2023
a(I01
g516
tp2024
asg22
Nsba(irule
FeatureMatrix
p2025
(dp2026
g28
(lp2027
sg22
Nsbasg21
I00
sg22
Nsg23
I00
sg24
S'R'
sbsg35
(irule
FeatureMatrix
p2028
(dp2029
g28
(lp2030
(I01
g1198
tp2031
asg22
Nsbsg22
Nsba(irule
Rule
p2032
(dp2033
g15
(irule
Guard
p2034
(dp2035
g18
I00
sg19
(lp2036
sg21
I00
sg22
Nsg23
I00
sg24
S'L'
sbsg25
(irule
FeatureMatrix
p2037
(dp2038
g28
(lp2039
(I00
g630
tp2040
a(I01
g516
tp2041
asg22
Nsbsg31
(irule
Guard
p2042
(dp2043
g18
I00
sg19
(lp2044
(irule
FeatureMatrix
p2045
(dp2046
g28
(lp2047
(I00
g524
tp2048
a(I01
g516
tp2049
asg22
Nsbasg21
I00
sg22
Nsg23
I00
sg24
S'R'
sbsg35
(irule
FeatureMatrix
p2050
(dp2051
g28
(lp2052
(I00
g516
tp2053
asg22
Nsbsg22
Nsba(irule
Rule
p2054
(dp2055
g15
(irule
Guard
p2056
(dp2057
g18
I00
sg19
(lp2058
sg21
I00
sg22
Nsg23
I00
sg24
S'L'
sbsg25
(irule
FeatureMatrix
p2059
(dp2060
g28
(lp2061
(I01
g516
tp2062
asg22
Nsbsg31
(irule
Guard
p2063
(dp2064
g18
I00
sg19
(lp2065
(irule
FeatureMatrix
p2066
(dp2067
g28
(lp2068
(I00
g524
tp2069
a(I01
g516
tp2070
asg22
Nsba(irule
FeatureMatrix
p2071
(dp2072
g28
(lp2073
sg22
Nsbasg21
I00
sg22
Nsg23
I00
sg24
S'R'
sbsg35
(irule
FeatureMatrix
p2074
(dp2075
g28
(lp2076
(I00
g616
tp2077
asg22
Nsbsg22
Nsba(irule
Rule
p2078
(dp2079
g15
(irule
Guard
p2080
(dp2081
g18
I00
sg19
(lp2082
sg21
I00
sg22
Nsg23
I00
sg24
S'L'
sbsg25
(irule
FeatureMatrix
p2083
(dp2084
g28
(lp2085
(I00
g630
tp2086
a(I01
g516
tp2087
asg22
Nsbsg31
(irule
Guard
p2088
(dp2089
g18
I00
sg19
(lp2090
(irule
FeatureMatrix
p2091
(dp2092
g28
(lp2093
(I00
g524
tp2094
a(I00
g549
tp2095
a(I01
g516
tp2096
asg22
Nsbasg21
I00
sg22
Nsg23
I00
sg24
S'R'
sbsg35
(irule
FeatureMatrix
p2097
(dp2098
g28
(lp2099
sg22
Nsbsg22
Nsba(irule
Rule
p2100
(dp2101
g15
(irule
Guard
p2102
(dp2103
g18
I00
sg19
(lp2104
sg21
I00
sg22
Nsg23
I00
sg24
S'L'
sbsg25
(irule
FeatureMatrix
p2105
(dp2106
g28
(lp2107
(I01
g516
tp2108
asg22
Nsbsg31
(irule
Guard
p2109
(dp2110
g18
I00
sg19
(lp2111
(irule
FeatureMatrix
p2112
(dp2113
g28
(lp2114
(I00
g524
tp2115
a(I01
g516
tp2116
asg22
Nsba(irule
FeatureMatrix
p2117
(dp2118
g28
(lp2119
sg22
Nsbasg21
I00
sg22
Nsg23
I00
sg24
S'R'
sbsg35
(irule
FeatureMatrix
p2120
(dp2121
g28
(lp2122
(I00
g594
tp2123
asg22
Nsbsg22
Nsba(irule
Rule
p2124
(dp2125
g15
(irule
Guard
p2126
(dp2127
g18
I00
sg19
(lp2128
sg21
I00
sg22
Nsg23
I00
sg24
S'L'
sbsg25
(irule
FeatureMatrix
p2129
(dp2130
g28
(lp2131
(I01
g516
tp2132
asg22
Nsbsg31
(irule
Guard
p2133
(dp2134
g18
I00
sg19
(lp2135
(irule
FeatureMatrix
p2136
(dp2137
g28
(lp2138
(I00
g524
tp2139
a(I01
g516
tp2140
asg22
Nsba(irule
FeatureMatrix
p2141
(dp2142
g28
(lp2143
sg22
Nsbasg21
I00
sg22
Nsg23
I00
sg24
S'R'
sbsg35
(irule
FeatureMatrix
p2144
(dp2145
g28
(lp2146
(I00
g803
tp2147
asg22
Nsbsg22
Nsba(irule
Rule
p2148
(dp2149
g15
(irule
Guard
p2150
(dp2151
g18
I00
sg19
(lp2152
(irule
FeatureMatrix
p2153
(dp2154
g28
(lp2155
sg22
Nsbasg21
I00
sg22
Nsg23
I00
sg24
S'L'
sbsg25
(irule
FeatureMatrix
p2156
(dp2157
g28
(lp2158
(I01
g516
tp2159
asg22
Nsbsg31
(irule
Guard
p2160
(dp2161
g18
I00
sg19
(lp2162
(irule
FeatureMatrix
p2163
(dp2164
g28
(lp2165
(I00
g702
tp2166
a(I00
g524
tp2167
a(I01
g516
tp2168
asg22
Nsbasg21
I00
sg22
Nsg23
I00
sg24
S'R'
sbsg35
(irule
FeatureMatrix
p2169
(dp2170
g28
(lp2171
sg22
Nsbsg22
Nsba(irule
Rule
p2172
(dp2173
g15
(irule
Guard
p2174
(dp2175
g18
I00
sg19
(lp2176
(irule
FeatureMatrix
p2177
(dp2178
g28
(lp2179
sg22
Nsbasg21
I00
sg22
Nsg23
I00
sg24
S'L'
sbsg25
(irule
FeatureMatrix
p2180
(dp2181
g28
(lp2182
(I01
g516
tp2183
asg22
Nsbsg31
(irule
Guard
p2184
(dp2185
g18
I00
sg19
(lp2186
(irule
FeatureMatrix
p2187
(dp2188
g28
(lp2189
(I00
g524
tp2190
a(I01
g516
tp2191
asg22
Nsbasg21
I00
sg22
Nsg23
I00
sg24
S'R'
sbsg35
(irule
FeatureMatrix
p2192
(dp2193
g28
(lp2194
(I00
g630
tp2195
asg22
Nsbsg22
Nsba(irule
Rule
p2196
(dp2197
g15
(irule
Guard
p2198
(dp2199
g18
I00
sg19
(lp2200
sg21
I00
sg22
Nsg23
I00
sg24
S'L'
sbsg25
(irule
FeatureMatrix
p2201
(dp2202
g28
(lp2203
(I00
g630
tp2204
a(I01
g516
tp2205
asg22
Nsbsg31
(irule
Guard
p2206
(dp2207
g18
I00
sg19
(lp2208
(irule
FeatureMatrix
p2209
(dp2210
g28
(lp2211
(I00
g652
tp2212
a(I00
g524
tp2213
a(I01
g516
tp2214
asg22
Nsbasg21
I00
sg22
Nsg23
I00
sg24
S'R'
sbsg35
(irule
FeatureMatrix
p2215
(dp2216
g28
(lp2217
sg22
Nsbsg22
Nsba(irule
Rule
p2218
(dp2219
g15
(irule
Guard
p2220
(dp2221
g18
I00
sg19
(lp2222
sg21
I00
sg22
Nsg23
I00
sg24
S'L'
sbsg25
(irule
FeatureMatrix
p2223
(dp2224
g28
(lp2225
(I00
g745
tp2226
a(I00
g702
tp2227
a(I01
g516
tp2228
asg22
Nsbsg31
(irule
Guard
p2229
(dp2230
g18
I00
sg19
(lp2231
(irule
FeatureMatrix
p2232
(dp2233
g28
(lp2234
(I00
g524
tp2235
a(I01
g516
tp2236
asg22
Nsbasg21
I00
sg22
Nsg23
I00
sg24
S'R'
sbsg35
(irule
FeatureMatrix
p2237
(dp2238
g28
(lp2239
sg22
Nsbsg22
Nsba(irule
Rule
p2240
(dp2241
g15
(irule
Guard
p2242
(dp2243
g18
I00
sg19
(lp2244
sg21
I00
sg22
Nsg23
I00
sg24
S'L'
sbsg25
(irule
FeatureMatrix
p2245
(dp2246
g28
(lp2247
(I00
g630
tp2248
a(I01
g516
tp2249
asg22
Nsbsg31
(irule
Guard
p2250
(dp2251
g18
I00
sg19
(lp2252
(irule
FeatureMatrix
p2253
(dp2254
g28
(lp2255
(I00
g874
tp2256
a(I00
g524
tp2257
a(I01
g516
tp2258
asg22
Nsbasg21
I00
sg22
Nsg23
I00
sg24
S'R'
sbsg35
(irule
FeatureMatrix
p2259
(dp2260
g28
(lp2261
sg22
Nsbsg22
Nsba(irule
Rule
p2262
(dp2263
g15
(irule
Guard
p2264
(dp2265
g18
I00
sg19
(lp2266
(irule
FeatureMatrix
p2267
(dp2268
g28
(lp2269
(I00
g630
tp2270
asg22
Nsbasg21
I00
sg22
Nsg23
I00
sg24
S'L'
sbsg25
(irule
FeatureMatrix
p2271
(dp2272
g28
(lp2273
(I01
g516
tp2274
asg22
Nsbsg31
(irule
Guard
p2275
(dp2276
g18
I00
sg19
(lp2277
(irule
FeatureMatrix
p2278
(dp2279
g28
(lp2280
(I00
g524
tp2281
a(I01
g516
tp2282
asg22
Nsbasg21
I00
sg22
Nsg23
I00
sg24
S'R'
sbsg35
(irule
FeatureMatrix
p2283
(dp2284
g28
(lp2285
sg22
Nsbsg22
Nsba(irule
Rule
p2286
(dp2287
g15
(irule
Guard
p2288
(dp2289
g18
I00
sg19
(lp2290
sg21
I00
sg22
Nsg23
I00
sg24
S'L'
sbsg25
(irule
FeatureMatrix
p2291
(dp2292
g28
(lp2293
(I01
g516
tp2294
asg22
Nsbsg31
(irule
Guard
p2295
(dp2296
g18
I00
sg19
(lp2297
(irule
FeatureMatrix
p2298
(dp2299
g28
(lp2300
(I00
g524
tp2301
a(I01
g516
tp2302
asg22
Nsba(irule
FeatureMatrix
p2303
(dp2304
g28
(lp2305
sg22
Nsbasg21
I00
sg22
Nsg23
I00
sg24
S'R'
sbsg35
(irule
FeatureMatrix
p2306
(dp2307
g28
(lp2308
(I00
g1155
tp2309
asg22
Nsbsg22
Nsba(irule
Rule
p2310
(dp2311
g15
(irule
Guard
p2312
(dp2313
g18
I00
sg19
(lp2314
(irule
FeatureMatrix
p2315
(dp2316
g28
(lp2317
sg22
Nsbasg21
I00
sg22
Nsg23
I00
sg24
S'L'
sbsg25
(irule
FeatureMatrix
p2318
(dp2319
g28
(lp2320
(I01
g516
tp2321
asg22
Nsbsg31
(irule
Guard
p2322
(dp2323
g18
I00
sg19
(lp2324
(irule
FeatureMatrix
p2325
(dp2326
g28
(lp2327
(I00
g524
tp2328
a(I01
g516
tp2329
asg22
Nsbasg21
I00
sg22
Nsg23
I00
sg24
S'R'
sbsg35
(irule
FeatureMatrix
p2330
(dp2331
g28
(lp2332
(I00
g1006
tp2333
asg22
Nsbsg22
Nsba(irule
Rule
p2334
(dp2335
g15
(irule
Guard
p2336
(dp2337
g18
I00
sg19
(lp2338
(irule
FeatureMatrix
p2339
(dp2340
g28
(lp2341
(I01
g516
tp2342
asg22
Nsbasg21
I00
sg22
Nsg23
I00
sg24
S'L'
sbsg25
(irule
FeatureMatrix
p2343
(dp2344
g28
(lp2345
(I01
g516
tp2346
asg22
Nsbsg31
(irule
Guard
p2347
(dp2348
g18
I00
sg19
(lp2349
(irule
FeatureMatrix
p2350
(dp2351
g28
(lp2352
(I00
g524
tp2353
a(I01
g516
tp2354
asg22
Nsbasg21
I00
sg22
Nsg23
I00
sg24
S'R'
sbsg35
(irule
FeatureMatrix
p2355
(dp2356
g28
(lp2357
sg22
Nsbsg22
Nsba(irule
Rule
p2358
(dp2359
g15
(irule
Guard
p2360
(dp2361
g18
I00
sg19
(lp2362
sg21
I00
sg22
Nsg23
I00
sg24
S'L'
sbsg25
(irule
FeatureMatrix
p2363
(dp2364
g28
(lp2365
(I00
g630
tp2366
a(I01
g516
tp2367
asg22
Nsbsg31
(irule
Guard
p2368
(dp2369
g18
I00
sg19
(lp2370
(irule
FeatureMatrix
p2371
(dp2372
g28
(lp2373
(I00
g788
tp2374
a(I00
g524
tp2375
a(I01
g516
tp2376
asg22
Nsbasg21
I00
sg22
Nsg23
I00
sg24
S'R'
sbsg35
(irule
FeatureMatrix
p2377
(dp2378
g28
(lp2379
sg22
Nsbsg22
Nsba(irule
Rule
p2380
(dp2381
g15
(irule
Guard
p2382
(dp2383
g18
I00
sg19
(lp2384
sg21
I00
sg22
Nsg23
I00
sg24
S'L'
sbsg25
(irule
FeatureMatrix
p2385
(dp2386
g28
(lp2387
(I00
g549
tp2388
a(I01
g516
tp2389
asg22
Nsbsg31
(irule
Guard
p2390
(dp2391
g18
I00
sg19
(lp2392
(irule
FeatureMatrix
p2393
(dp2394
g28
(lp2395
(I00
g788
tp2396
a(I00
g524
tp2397
a(I01
g516
tp2398
asg22
Nsbasg21
I00
sg22
Nsg23
I00
sg24
S'R'
sbsg35
(irule
FeatureMatrix
p2399
(dp2400
g28
(lp2401
sg22
Nsbsg22
Nsba(irule
Rule
p2402
(dp2403
g15
(irule
Guard
p2404
(dp2405
g18
I00
sg19
(lp2406
sg21
I00
sg22
Nsg23
I00
sg24
S'L'
sbsg25
(irule
FeatureMatrix
p2407
(dp2408
g28
(lp2409
(I01
g516
tp2410
asg22
Nsbsg31
(irule
Guard
p2411
(dp2412
g18
I00
sg19
(lp2413
(irule
FeatureMatrix
p2414
(dp2415
g28
(lp2416
(I00
g524
tp2417
a(I01
g516
tp2418
asg22
Nsba(irule
FeatureMatrix
p2419
(dp2420
g28
(lp2421
sg22
Nsbasg21
I00
sg22
Nsg23
I00
sg24
S'R'
sbsg35
(irule
FeatureMatrix
p2422
(dp2423
g28
(lp2424
(I00
g1006
tp2425
asg22
Nsbsg22
Nsba(irule
Rule
p2426
(dp2427
g15
(irule
Guard
p2428
(dp2429
g18
I00
sg19
(lp2430
sg21
I00
sg22
Nsg23
I00
sg24
S'L'
sbsg25
(irule
FeatureMatrix
p2431
(dp2432
g28
(lp2433
(I00
g549
tp2434
a(I01
g516
tp2435
asg22
Nsbsg31
(irule
Guard
p2436
(dp2437
g18
I00
sg19
(lp2438
(irule
FeatureMatrix
p2439
(dp2440
g28
(lp2441
(I00
g524
tp2442
a(I00
g549
tp2443
a(I01
g516
tp2444
asg22
Nsbasg21
I00
sg22
Nsg23
I00
sg24
S'R'
sbsg35
(irule
FeatureMatrix
p2445
(dp2446
g28
(lp2447
sg22
Nsbsg22
Nsba(irule
Rule
p2448
(dp2449
g15
(irule
Guard
p2450
(dp2451
g18
I00
sg19
(lp2452
(irule
FeatureMatrix
p2453
(dp2454
g28
(lp2455
(I00
S'coronal'
tp2456
asg22
Nsbasg21
I00
sg22
Nsg23
I00
sg24
S'L'
sbsg25
(irule
FeatureMatrix
p2457
(dp2458
g28
(lp2459
(I01
g516
tp2460
asg22
Nsbsg31
(irule
Guard
p2461
(dp2462
g18
I00
sg19
(lp2463
(irule
FeatureMatrix
p2464
(dp2465
g28
(lp2466
(I00
g524
tp2467
a(I01
g516
tp2468
asg22
Nsbasg21
I00
sg22
Nsg23
I00
sg24
S'R'
sbsg35
(irule
FeatureMatrix
p2469
(dp2470
g28
(lp2471
sg22
Nsbsg22
Nsba(irule
Rule
p2472
(dp2473
g15
(irule
Guard
p2474
(dp2475
g18
I00
sg19
(lp2476
sg21
I00
sg22
Nsg23
I00
sg24
S'L'
sbsg25
(irule
FeatureMatrix
p2477
(dp2478
g28
(lp2479
(I01
g516
tp2480
asg22
Nsbsg31
(irule
Guard
p2481
(dp2482
g18
I00
sg19
(lp2483
(irule
FeatureMatrix
p2484
(dp2485
g28
(lp2486
(I00
g524
tp2487
a(I01
g516
tp2488
asg22
Nsba(irule
FeatureMatrix
p2489
(dp2490
g28
(lp2491
sg22
Nsbasg21
I00
sg22
Nsg23
I00
sg24
S'R'
sbsg35
(irule
FeatureMatrix
p2492
(dp2493
g28
(lp2494
(I00
g1049
tp2495
asg22
Nsbsg22
Nsba(irule
Rule
p2496
(dp2497
g15
(irule
Guard
p2498
(dp2499
g18
I00
sg19
(lp2500
sg21
I00
sg22
Nsg23
I00
sg24
S'L'
sbsg25
(irule
FeatureMatrix
p2501
(dp2502
g28
(lp2503
(I01
g516
tp2504
asg22
Nsbsg31
(irule
Guard
p2505
(dp2506
g18
I00
sg19
(lp2507
(irule
FeatureMatrix
p2508
(dp2509
g28
(lp2510
(I00
g524
tp2511
a(I00
g594
tp2512
a(I01
g516
tp2513
asg22
Nsbasg21
I00
sg22
Nsg23
I00
sg24
S'R'
sbsg35
(irule
FeatureMatrix
p2514
(dp2515
g28
(lp2516
(I00
g549
tp2517
asg22
Nsbsg22
Nsba(irule
Rule
p2518
(dp2519
g15
(irule
Guard
p2520
(dp2521
g18
I00
sg19
(lp2522
(irule
FeatureMatrix
p2523
(dp2524
g28
(lp2525
sg22
Nsbasg21
I00
sg22
Nsg23
I00
sg24
S'L'
sbsg25
(irule
FeatureMatrix
p2526
(dp2527
g28
(lp2528
(I01
g516
tp2529
asg22
Nsbsg31
(irule
Guard
p2530
(dp2531
g18
I00
sg19
(lp2532
(irule
FeatureMatrix
p2533
(dp2534
g28
(lp2535
(I00
g524
tp2536
a(I01
g516
tp2537
asg22
Nsbasg21
I00
sg22
Nsg23
I00
sg24
S'R'
sbsg35
(irule
FeatureMatrix
p2538
(dp2539
g28
(lp2540
(I00
g874
tp2541
asg22
Nsbsg22
Nsba(irule
Rule
p2542
(dp2543
g15
(irule
Guard
p2544
(dp2545
g18
I00
sg19
(lp2546
sg21
I00
sg22
Nsg23
I00
sg24
S'L'
sbsg25
(irule
FeatureMatrix
p2547
(dp2548
g28
(lp2549
(I01
g516
tp2550
asg22
Nsbsg31
(irule
Guard
p2551
(dp2552
g18
I00
sg19
(lp2553
(irule
FeatureMatrix
p2554
(dp2555
g28
(lp2556
(I00
g524
tp2557
a(I01
g516
tp2558
asg22
Nsba(irule
FeatureMatrix
p2559
(dp2560
g28
(lp2561
sg22
Nsbasg21
I00
sg22
Nsg23
I00
sg24
S'R'
sbsg35
(irule
FeatureMatrix
p2562
(dp2563
g28
(lp2564
(I00
g745
tp2565
asg22
Nsbsg22
Nsba(irule
Rule
p2566
(dp2567
g15
(irule
Guard
p2568
(dp2569
g18
I00
sg19
(lp2570
sg21
I00
sg22
Nsg23
I00
sg24
S'L'
sbsg25
(irule
FeatureMatrix
p2571
(dp2572
g28
(lp2573
(I00
g549
tp2574
a(I00
g630
tp2575
a(I01
g516
tp2576
asg22
Nsbsg31
(irule
Guard
p2577
(dp2578
g18
I00
sg19
(lp2579
(irule
FeatureMatrix
p2580
(dp2581
g28
(lp2582
(I00
g524
tp2583
a(I01
g516
tp2584
asg22
Nsbasg21
I00
sg22
Nsg23
I00
sg24
S'R'
sbsg35
(irule
FeatureMatrix
p2585
(dp2586
g28
(lp2587
sg22
Nsbsg22
Nsba(irule
Rule
p2588
(dp2589
g15
(irule
Guard
p2590
(dp2591
g18
I00
sg19
(lp2592
sg21
I00
sg22
Nsg23
I00
sg24
S'L'
sbsg25
(irule
FeatureMatrix
p2593
(dp2594
g28
(lp2595
(I01
g516
tp2596
asg22
Nsbsg31
(irule
Guard
p2597
(dp2598
g18
I00
sg19
(lp2599
(irule
FeatureMatrix
p2600
(dp2601
g28
(lp2602
(I00
g524
tp2603
a(I01
g516
tp2604
asg22
Nsba(irule
FeatureMatrix
p2605
(dp2606
g28
(lp2607
sg22
Nsbasg21
I00
sg22
Nsg23
I00
sg24
S'R'
sbsg35
(irule
FeatureMatrix
p2608
(dp2609
g28
(lp2610
(I00
g788
tp2611
asg22
Nsbsg22
Nsba(irule
Rule
p2612
(dp2613
g15
(irule
Guard
p2614
(dp2615
g18
I00
sg19
(lp2616
sg21
I00
sg22
Nsg23
I00
sg24
S'L'
sbsg25
(irule
FeatureMatrix
p2617
(dp2618
g28
(lp2619
(I01
g516
tp2620
asg22
Nsbsg31
(irule
Guard
p2621
(dp2622
g18
I00
sg19
(lp2623
(irule
FeatureMatrix
p2624
(dp2625
g28
(lp2626
(I00
g524
tp2627
a(I01
g516
tp2628
asg22
Nsba(irule
FeatureMatrix
p2629
(dp2630
g28
(lp2631
sg22
Nsbasg21
I00
sg22
Nsg23
I00
sg24
S'R'
sbsg35
(irule
FeatureMatrix
p2632
(dp2633
g28
(lp2634
(I00
g702
tp2635
asg22
Nsbsg22
Nsba(irule
Rule
p2636
(dp2637
g15
(irule
Guard
p2638
(dp2639
g18
I00
sg19
(lp2640
sg21
I00
sg22
Nsg23
I00
sg24
S'L'
sbsg25
(irule
FeatureMatrix
p2641
(dp2642
g28
(lp2643
(I01
g516
tp2644
asg22
Nsbsg31
(irule
Guard
p2645
(dp2646
g18
I00
sg19
(lp2647
(irule
FeatureMatrix
p2648
(dp2649
g28
(lp2650
(I00
g524
tp2651
a(I01
g516
tp2652
asg22
Nsba(irule
FeatureMatrix
p2653
(dp2654
g28
(lp2655
sg22
Nsbasg21
I00
sg22
Nsg23
I00
sg24
S'R'
sbsg35
(irule
FeatureMatrix
p2656
(dp2657
g28
(lp2658
(I00
g524
tp2659
asg22
Nsbsg22
Nsba(irule
Rule
p2660
(dp2661
g15
(irule
Guard
p2662
(dp2663
g18
I00
sg19
(lp2664
sg21
I00
sg22
Nsg23
I00
sg24
S'L'
sbsg25
(irule
FeatureMatrix
p2665
(dp2666
g28
(lp2667
(I01
g516
tp2668
asg22
Nsbsg31
(irule
Guard
p2669
(dp2670
g18
I00
sg19
(lp2671
(irule
FeatureMatrix
p2672
(dp2673
g28
(lp2674
(I00
g524
tp2675
a(I01
g516
tp2676
asg22
Nsba(irule
FeatureMatrix
p2677
(dp2678
g28
(lp2679
sg22
Nsbasg21
I00
sg22
Nsg23
I00
sg24
S'R'
sbsg35
(irule
FeatureMatrix
p2680
(dp2681
g28
(lp2682
(I00
g652
tp2683
asg22
Nsbsg22
Nsba(irule
Rule
p2684
(dp2685
g15
(irule
Guard
p2686
(dp2687
g18
I00
sg19
(lp2688
sg21
I00
sg22
Nsg23
I00
sg24
S'L'
sbsg25
(irule
FeatureMatrix
p2689
(dp2690
g28
(lp2691
(I00
g652
tp2692
a(I00
g745
tp2693
a(I01
g516
tp2694
asg22
Nsbsg31
(irule
Guard
p2695
(dp2696
g18
I00
sg19
(lp2697
(irule
FeatureMatrix
p2698
(dp2699
g28
(lp2700
(I00
g524
tp2701
a(I01
g516
tp2702
asg22
Nsbasg21
I00
sg22
Nsg23
I00
sg24
S'R'
sbsg35
(irule
FeatureMatrix
p2703
(dp2704
g28
(lp2705
sg22
Nsbsg22
Nsba(irule
Rule
p2706
(dp2707
g15
(irule
Guard
p2708
(dp2709
g18
I00
sg19
(lp2710
(irule
FeatureMatrix
p2711
(dp2712
g28
(lp2713
(I01
g549
tp2714
asg22
Nsbasg21
I00
sg22
Nsg23
I00
sg24
S'L'
sbsg25
(irule
FeatureMatrix
p2715
(dp2716
g28
(lp2717
(I01
g516
tp2718
asg22
Nsbsg31
(irule
Guard
p2719
(dp2720
g18
I00
sg19
(lp2721
(irule
FeatureMatrix
p2722
(dp2723
g28
(lp2724
(I00
g524
tp2725
a(I01
g516
tp2726
asg22
Nsbasg21
I00
sg22
Nsg23
I00
sg24
S'R'
sbsg35
(irule
FeatureMatrix
p2727
(dp2728
g28
(lp2729
sg22
Nsbsg22
Nsba(irule
Rule
p2730
(dp2731
g15
(irule
Guard
p2732
(dp2733
g18
I00
sg19
(lp2734
(irule
FeatureMatrix
p2735
(dp2736
g28
(lp2737
sg22
Nsbasg21
I00
sg22
Nsg23
I00
sg24
S'L'
sbsg25
(irule
FeatureMatrix
p2738
(dp2739
g28
(lp2740
(I01
g516
tp2741
asg22
Nsbsg31
(irule
Guard
p2742
(dp2743
g18
I00
sg19
(lp2744
(irule
FeatureMatrix
p2745
(dp2746
g28
(lp2747
(I00
g524
tp2748
a(I00
g616
tp2749
a(I01
g516
tp2750
asg22
Nsbasg21
I00
sg22
Nsg23
I00
sg24
S'R'
sbsg35
(irule
FeatureMatrix
p2751
(dp2752
g28
(lp2753
sg22
Nsbsg22
Nsba(irule
Rule
p2754
(dp2755
g15
(irule
Guard
p2756
(dp2757
g18
I00
sg19
(lp2758
(irule
FeatureMatrix
p2759
(dp2760
g28
(lp2761
sg22
Nsbasg21
I00
sg22
Nsg23
I00
sg24
S'L'
sbsg25
(irule
FeatureMatrix
p2762
(dp2763
g28
(lp2764
(I00
g652
tp2765
a(I01
g516
tp2766
asg22
Nsbsg31
(irule
Guard
p2767
(dp2768
g18
I00
sg19
(lp2769
(irule
FeatureMatrix
p2770
(dp2771
g28
(lp2772
(I00
g524
tp2773
a(I01
g516
tp2774
asg22
Nsbasg21
I00
sg22
Nsg23
I00
sg24
S'R'
sbsg35
(irule
FeatureMatrix
p2775
(dp2776
g28
(lp2777
sg22
Nsbsg22
NsbaasbsS'parameters'
p2778
g6
(cargparse
Namespace
p2779
g8
NtRp2780
(dp2781
S'dummy'
p2782
I00
sS'task'
p2783
S'incremental'
p2784
sS'features'
p2785
S'sophisticated'
p2786
sS'resume'
p2787
I00
sS'geometry'
p2788
I01
sS'top'
p2789
I100
sS'disableClean'
p2790
I00
sS'universal'
p2791
NsS'restrict'
p2792
NsS'window'
p2793
NsS'seed'
p2794
S'0'
sS'restore'
p2795
NsS'verbosity'
p2796
I0
sS'timeout'
p2797
F24
sS'debug'
p2798
NsS'cores'
p2799
I40
sg326
S'Odden_114_Lithuanian'
p2800
sS'save'
p2801
NsS'serial'
p2802
I00
sS'alignment'
p2803
I00
sS'samples'
p2804
I30
sbsb.