(iresult
Result
p1
(dp2
S'startTime'
p3
F1559660788.7530129
sS'solutionSequence'
p4
(lp5
(ccopy_reg
_reconstructor
p6
(csolution
Solution
p7
c__builtin__
object
p8
NtRp9
(dp10
S'rules'
p11
(lp12
(irule
Rule
p13
(dp14
S'leftTriggers'
p15
(irule
Guard
p16
(dp17
S'endOfString'
p18
I00
sS'specifications'
p19
(lp20
sS'optionalEnding'
p21
I00
sS'representation'
p22
V
sS'starred'
p23
I00
sS'side'
p24
S'L'
sbsS'structuralChange'
p25
(irule
FeatureMatrix
p26
(dp27
S'featuresAndPolarities'
p28
(lp29
sg22
V[  ]
p30
sbsS'rightTriggers'
p31
(irule
Guard
p32
(dp33
g18
I00
sg19
(lp34
sg21
I00
sg22
V
sg23
I00
sg24
S'R'
sbsS'focus'
p35
(irule
FeatureMatrix
p36
(dp37
g28
(lp38
sg22
V[  ]
p39
sbsg22
V[  ] ---> [  ] /  _ 
p40
sbasS'prefixes'
p41
(lp42
(imorph
Morph
p43
(dp44
S'phonemes'
p45
(lp46
Vk
aVu
asba(imorph
Morph
p47
(dp48
g45
(lp49
Vm
asba(imorph
Morph
p50
(dp51
g45
(lp52
Va
asba(imorph
Morph
p53
(dp54
g45
(lp55
sbasS'underlyingForms'
p56
(dp57
((imorph
Morph
p58
(dp59
g45
(lp60
Vk
aVu
aVp
aVa
aVa
aV\u014b
aVg
aVa
asb(imorph
Morph
p61
(dp62
g45
(lp63
Vm
aVp
aVa
aVa
aV\u014b
aVg
aVa
asb(imorph
Morph
p64
(dp65
g45
(lp66
Va
aVp
aVa
aVa
aV\u014b
aVg
aVa
asb(imorph
Morph
p67
(dp68
g45
(lp69
Vp
aVa
aVa
aV\u014b
aVg
aVa
asbtp70
(imorph
Morph
p71
(dp72
g45
(lp73
Vp
aVa
aVa
aV\u014b
aVg
aVa
asbs((imorph
Morph
p74
(dp75
g45
(lp76
Vk
aVu
aVp
aVa
aVa
aVm
aVb
aVa
asb(imorph
Morph
p77
(dp78
g45
(lp79
Vm
aVp
aVa
aVa
aVm
aVb
aVa
asb(imorph
Morph
p80
(dp81
g45
(lp82
Va
aVp
aVa
aVa
aVm
aVb
aVa
asb(imorph
Morph
p83
(dp84
g45
(lp85
Vp
aVa
aVa
aVm
aVb
aVa
asbtp86
(imorph
Morph
p87
(dp88
g45
(lp89
Vp
aVa
aVa
aVm
aVb
aVa
asbssS'suffixes'
p90
(lp91
(imorph
Morph
p92
(dp93
g45
(lp94
sba(imorph
Morph
p95
(dp96
g45
(lp97
sba(imorph
Morph
p98
(dp99
g45
(lp100
sba(imorph
Morph
p101
(dp102
g45
(lp103
sbasbF35.403693199157715
tp104
a(g6
(g7
g8
NtRp105
(dp106
g11
(lp107
(irule
Rule
p108
(dp109
g15
(irule
Guard
p110
(dp111
g18
I00
sg19
(lp112
(irule
ConstantPhoneme
p113
(dp114
S'p'
Vm
sbasg21
I00
sg22
Vm
sg23
I00
sg24
S'L'
sbsg25
(irule
ConstantPhoneme
p115
(dp116
S'p'
Vp
sbsg31
(irule
Guard
p117
(dp118
g18
I00
sg19
(lp119
sg21
I00
sg22
V
sg23
I00
sg24
S'R'
sbsg35
(irule
ConstantPhoneme
p120
(dp121
S'p'
Vh
sbsg22
Vh ---> p / m _ 
p122
sbasg41
(lp123
(imorph
Morph
p124
(dp125
g45
(lp126
Vk
aVu
asba(imorph
Morph
p127
(dp128
g45
(lp129
Vm
asba(imorph
Morph
p130
(dp131
g45
(lp132
Va
asba(imorph
Morph
p133
(dp134
g45
(lp135
sbasg56
(dp136
((imorph
Morph
(dp137
g45
(lp138
Vk
aVu
aVp
aVi
aVm
aVa
asb(imorph
Morph
(dp139
g45
(lp140
Vm
aVp
aVi
aVm
aVa
asb(imorph
Morph
(dp141
g45
(lp142
Va
aVp
aVi
aVm
aVa
asb(imorph
Morph
(dp143
g45
(lp144
Vp
aVi
aVm
aVa
asbtp145
(imorph
Morph
p146
(dp147
g45
(lp148
Vp
aVi
aVm
aVa
asbs(g74
g77
g80
g83
tp149
(imorph
Morph
p150
(dp151
g45
(lp152
Vp
aVa
aVa
aVm
aVb
aVa
asbs((imorph
Morph
(dp153
g45
(lp154
Vk
aVu
aVh
aVu
aVu
aVh
aVa
asb(imorph
Morph
(dp155
g45
(lp156
Vm
aVp
aVu
aVu
aVh
aVa
asb(imorph
Morph
(dp157
g45
(lp158
Va
aVh
aVu
aVu
aVh
aVa
asb(imorph
Morph
(dp159
g45
(lp160
Vh
aVu
aVu
aVh
aVa
asbtp161
(imorph
Morph
p162
(dp163
g45
(lp164
Vh
aVu
aVu
aVh
aVa
asbs((imorph
Morph
(dp165
g45
(lp166
Vk
aVu
aVp
aVi
aVi
aVn
aVd
aVa
asb(imorph
Morph
(dp167
g45
(lp168
Vm
aVp
aVi
aVi
aVn
aVd
aVa
asb(imorph
Morph
(dp169
g45
(lp170
Va
aVp
aVi
aVi
aVn
aVd
aVa
asb(imorph
Morph
(dp171
g45
(lp172
Vp
aVi
aVi
aVn
aVd
aVa
asbtp173
(imorph
Morph
p174
(dp175
g45
(lp176
Vp
aVi
aVi
aVn
aVd
aVa
asbs(g58
g61
g64
g67
tp177
(imorph
Morph
p178
(dp179
g45
(lp180
Vp
aVa
aVa
aV\u014b
aVg
aVa
asbs((imorph
Morph
(dp181
g45
(lp182
Vk
aVu
aVh
aVe
aVe
aVb
aVa
asb(imorph
Morph
(dp183
g45
(lp184
Vm
aVp
aVe
aVe
aVb
aVa
asb(imorph
Morph
(dp185
g45
(lp186
Va
aVh
aVe
aVe
aVb
aVa
asb(imorph
Morph
(dp187
g45
(lp188
Vh
aVe
aVe
aVb
aVa
asbtp189
(imorph
Morph
p190
(dp191
g45
(lp192
Vh
aVe
aVe
aVb
aVa
asbs((imorph
Morph
(dp193
g45
(lp194
Vk
aVu
aVh
aVa
aVa
aV\u014b
aVg
aVa
asb(imorph
Morph
(dp195
g45
(lp196
Vm
aVp
aVa
aVa
aV\u014b
aVg
aVa
asb(imorph
Morph
(dp197
g45
(lp198
Va
aVh
aVa
aVa
aV\u014b
aVg
aVa
asb(imorph
Morph
(dp199
g45
(lp200
Vh
aVa
aVa
aV\u014b
aVg
aVa
asbtp201
(imorph
Morph
p202
(dp203
g45
(lp204
Vh
aVa
aVa
aV\u014b
aVg
aVa
asbs((imorph
Morph
(dp205
g45
(lp206
Vk
aVu
aVp
aVe
aVk
aVe
aVc\u030c
p207
aVa
asb(imorph
Morph
(dp208
g45
(lp209
Vm
aVp
aVe
aVk
aVe
aVc\u030c
p210
aVa
asb(imorph
Morph
(dp211
g45
(lp212
Va
aVp
aVe
aVk
aVe
aVc\u030c
p213
aVa
asb(imorph
Morph
(dp214
g45
(lp215
Vp
aVe
aVk
aVe
aVc\u030c
p216
aVa
asbtp217
(imorph
Morph
p218
(dp219
g45
(lp220
Vp
aVe
aVk
aVe
aVc\u030c
p221
aVa
asbs((imorph
Morph
(dp222
g45
(lp223
Vk
aVu
aVp
aVu
aVu
aVp
aVa
asb(imorph
Morph
(dp224
g45
(lp225
Vm
aVp
aVu
aVu
aVp
aVa
asb(imorph
Morph
(dp226
g45
(lp227
Va
aVp
aVu
aVu
aVp
aVa
asb(imorph
Morph
(dp228
g45
(lp229
Vp
aVu
aVu
aVp
aVa
asbtp230
(imorph
Morph
p231
(dp232
g45
(lp233
Vp
aVu
aVu
aVp
aVa
asbs((imorph
Morph
p234
(dp235
g45
(lp236
Vk
aVu
aVh
aVi
aVi
aVg
aVa
asb(imorph
Morph
p237
(dp238
g45
(lp239
Vm
aVp
aVi
aVi
aVg
aVa
asb(imorph
Morph
p240
(dp241
g45
(lp242
Va
aVh
aVi
aVi
aVg
aVa
asb(imorph
Morph
p243
(dp244
g45
(lp245
Vh
aVi
aVi
aVg
aVa
asbtp246
(imorph
Morph
p247
(dp248
g45
(lp249
Vh
aVi
aVi
aVg
aVa
asbs((imorph
Morph
(dp250
g45
(lp251
Vk
aVu
aVh
aVe
aVe
aVk
aVa
asb(imorph
Morph
(dp252
g45
(lp253
Vm
aVp
aVe
aVe
aVk
aVa
asb(imorph
Morph
(dp254
g45
(lp255
Va
aVh
aVe
aVe
aVk
aVa
asb(imorph
Morph
(dp256
g45
(lp257
Vh
aVe
aVe
aVk
aVa
asbtp258
(imorph
Morph
p259
(dp260
g45
(lp261
Vh
aVe
aVe
aVk
aVa
asbs((imorph
Morph
(dp262
g45
(lp263
Vk
aVu
aVh
aVi
aVi
aVm
aVa
asb(imorph
Morph
(dp264
g45
(lp265
Vm
aVp
aVi
aVi
aVm
aVa
asb(imorph
Morph
(dp266
g45
(lp267
Va
aVh
aVi
aVi
aVm
aVa
asb(imorph
Morph
(dp268
g45
(lp269
Vh
aVi
aVi
aVm
aVa
asbtp270
(imorph
Morph
p271
(dp272
g45
(lp273
Vh
aVi
aVi
aVm
aVa
asbssg90
(lp274
(imorph
Morph
p275
(dp276
g45
(lp277
sba(imorph
Morph
p278
(dp279
g45
(lp280
sba(imorph
Morph
p281
(dp282
g45
(lp283
sba(imorph
Morph
p284
(dp285
g45
(lp286
sbasbF148.09672021865845
tp287
asS'problem'
p288
S'Odden_76_77_Kerewe'
p289
sS'finalFrontier'
p290
g6
(csolution
Frontier
p291
g8
NtRp292
(dp293
g41
g123
sg90
g274
sg56
g136
sS'frontiers'
p294
(lp295
(lp296
g108
aasbsS'parameters'
p297
g6
(cargparse
Namespace
p298
g8
NtRp299
(dp300
S'restore'
p301
NsS'features'
p302
S'none'
p303
sS'universal'
p304
NsS'restrict'
p305
NsS'seed'
p306
S'0'
sS'serial'
p307
I00
sS'alignment'
p308
I00
sS'top'
p309
I1
sS'maximumDepth'
p310
I3
sS'window'
p311
NsS'minimizeBits'
p312
I5
sS'samples'
p313
I30
sS'save'
p314
NsS'resume'
p315
I00
sS'disableClean'
p316
I01
sS'stemBaseline'
p317
I30
sS'dummy'
p318
I00
sS'task'
p319
S'CEGIS'
p320
sS'geometry'
p321
NsS'verbosity'
p322
I0
sS'timeout'
p323
F24
sS'debug'
p324
NsS'cores'
p325
I64
sg288
S'Odden_76_77_Kerewe'
p326
sS'mergeFrontiers'
p327
I00
sbsb.