(iresult
Result
p1
(dp2
S'startTime'
p3
F1559660798.7958381
sS'solutionSequence'
p4
(lp5
(ccopy_reg
_reconstructor
p6
(csolution
Solution
p7
c__builtin__
object
p8
NtRp9
(dp10
S'rules'
p11
(lp12
(irule
Rule
p13
(dp14
S'leftTriggers'
p15
(irule
Guard
p16
(dp17
S'endOfString'
p18
I00
sS'specifications'
p19
(lp20
(irule
FeatureMatrix
p21
(dp22
S'featuresAndPolarities'
p23
(lp24
sS'representation'
p25
V[  ]
p26
sba(irule
ConstantPhoneme
p27
(dp28
S'p'
Vo
sbasS'optionalEnding'
p29
I00
sg25
Vo [  ]
p30
sS'starred'
p31
I00
sS'side'
p32
S'L'
sbsS'structuralChange'
p33
(irule
ConstantPhoneme
p34
(dp35
S'p'
Vu
sbsS'rightTriggers'
p36
(irule
Guard
p37
(dp38
g18
I00
sg19
(lp39
sg29
I00
sg25
V
sg31
I00
sg32
S'R'
sbsS'focus'
p40
(irule
FeatureMatrix
p41
(dp42
g23
(lp43
sg25
V[  ]
p44
sbsg25
V[  ] ---> u / o [  ] _ 
p45
sba(irule
Rule
p46
(dp47
g15
(irule
Guard
p48
(dp49
g18
I00
sg19
(lp50
(irule
ConstantPhoneme
p51
(dp52
S'p'
Vs
sbasg29
I00
sg25
Vs
sg31
I00
sg32
S'L'
sbsg33
(irule
ConstantPhoneme
p53
(dp54
S'p'
Vi
sbsg36
(irule
Guard
p55
(dp56
g18
I00
sg19
(lp57
sg29
I00
sg25
V
sg31
I00
sg32
S'R'
sbsg40
(irule
ConstantPhoneme
p58
(dp59
S'p'
Vu
sbsg25
Vu ---> i / s _ 
p60
sbasS'prefixes'
p61
(lp62
(imorph
Morph
p63
(dp64
S'phonemes'
p65
(lp66
Vo
aVk
aVo
asba(imorph
Morph
p67
(dp68
g65
(lp69
Vo
aVk
aVo
asba(imorph
Morph
p70
(dp71
g65
(lp72
Vo
aVk
aVo
asba(imorph
Morph
p73
(dp74
g65
(lp75
Vo
aVk
aVo
asba(imorph
Morph
p76
(dp77
g65
(lp78
Vo
aVk
aVu
aVm
aVu
asba(imorph
Morph
p79
(dp80
g65
(lp81
Vo
aVk
aVu
aVm
aVu
asba(imorph
Morph
p82
(dp83
g65
(lp84
Vo
aVk
aVu
aVc\u030c
p85
aVi
asba(imorph
Morph
p86
(dp87
g65
(lp88
Vo
aVk
aVs
ag85
aVi
asbasS'underlyingForms'
p89
(dp90
((imorph
Morph
p91
(dp92
g65
(lp93
Vo
aVk
aVu
aVs
aVi
aV\u03b2
aVa
asb(imorph
Morph
p94
(dp95
g65
(lp96
Vo
aVk
aVu
aVs
aVi
aV\u03b2
aVi
aVr
aVa
asb(imorph
Morph
p97
(dp98
g65
(lp99
Vo
aVk
aVu
aVs
aVi
aV\u03b2
aVa
aVn
aVa
asb(imorph
Morph
p100
(dp101
g65
(lp102
Vo
aVk
aVu
aVs
aVi
aV\u03b2
aVi
aVr
aVa
aVn
aVa
asb(imorph
Morph
p103
(dp104
g65
(lp105
Vo
aVk
aVu
aVm
aVu
aVs
aVi\u0301
p106
aV\u03b2
aVa
asb(imorph
Morph
p107
(dp108
g65
(lp109
Vo
aVk
aVu
aVm
aVu
aVs
aVi\u0301
p110
aV\u03b2
aVi
aVr
aVa
asb(imorph
Morph
p111
(dp112
g65
(lp113
Vo
aVk
aVu
aVc\u030c
p114
aVi
aVs
aVi\u0301
p115
aV\u03b2
aVa
asb(imorph
Morph
p116
(dp117
g65
(lp118
Vo
aVk
aVu
aVc\u030c
p119
aVi
aVs
aVi\u0301
p120
aV\u03b2
aVi
aVr
aVa
asbtp121
(imorph
Morph
p122
(dp123
g65
(lp124
Vs
aVi\u0301
p125
aV\u03b2
asbs((imorph
Morph
p126
(dp127
g65
(lp128
Vo
aVk
aVu
aV\u03b2
aVu
aVm
aVa
asb(imorph
Morph
p129
(dp130
g65
(lp131
Vo
aVk
aVu
aV\u03b2
aVu
aVm
aVi
aVr
aVa
asb(imorph
Morph
p132
(dp133
g65
(lp134
Vo
aVk
aVu
aV\u03b2
aVu
aVm
aVa
aVn
aVa
asb(imorph
Morph
p135
(dp136
g65
(lp137
Vo
aVk
aVu
aV\u03b2
aVu
aVm
aVi
aVr
aVa
aVn
aVa
asb(imorph
Morph
p138
(dp139
g65
(lp140
Vo
aVk
aVu
aVm
aVu
aV\u03b2
aVu\u0301
p141
aVm
aVa
asb(imorph
Morph
p142
(dp143
g65
(lp144
Vo
aVk
aVu
aVm
aVu
aV\u03b2
aVu\u0301
p145
aVm
aVi
aVr
aVa
asb(imorph
Morph
p146
(dp147
g65
(lp148
Vo
aVk
aVu
aVc\u030c
p149
aVi
aV\u03b2
aVu\u0301
p150
aVm
aVa
asb(imorph
Morph
p151
(dp152
g65
(lp153
Vo
aVk
aVu
aVc\u030c
p154
aVi
aV\u03b2
aVu\u0301
p155
aVm
aVi
aVr
aVa
asbtp156
(imorph
Morph
p157
(dp158
g65
(lp159
V\u03b2
aVu\u0301
p160
aVm
asbssS'suffixes'
p161
(lp162
(imorph
Morph
p163
(dp164
g65
(lp165
Va
asba(imorph
Morph
p166
(dp167
g65
(lp168
Vi
aVr
aVa
asba(imorph
Morph
p169
(dp170
g65
(lp171
Va
aVn
aVa
asba(imorph
Morph
p172
(dp173
g65
(lp174
Vi
aVr
aVa
aVn
aVa
asba(imorph
Morph
p175
(dp176
g65
(lp177
Va
asba(imorph
Morph
p178
(dp179
g65
(lp180
Vi
aVr
aVa
asba(imorph
Morph
p181
(dp182
g65
(lp183
Va
asba(imorph
Morph
p184
(dp185
g65
(lp186
Vi
aVr
aVa
asbasbF5757.1277740001678
tp187
asS'problem'
p188
S'Odden_79_Jita'
p189
sS'finalFrontier'
p190
g6
(csolution
Frontier
p191
g8
NtRp192
(dp193
g61
g62
sg161
g162
sg89
g90
sS'frontiers'
p194
(lp195
(lp196
g13
aa(lp197
g46
aasbsS'parameters'
p198
g6
(cargparse
Namespace
p199
g8
NtRp200
(dp201
S'restore'
p202
NsS'features'
p203
S'none'
p204
sS'universal'
p205
NsS'restrict'
p206
NsS'seed'
p207
S'0'
sS'serial'
p208
I00
sS'alignment'
p209
I00
sS'top'
p210
I1
sS'maximumDepth'
p211
I3
sS'window'
p212
NsS'minimizeBits'
p213
I5
sS'samples'
p214
I30
sS'save'
p215
NsS'resume'
p216
I00
sS'disableClean'
p217
I01
sS'stemBaseline'
p218
I30
sS'dummy'
p219
I00
sS'task'
p220
S'CEGIS'
p221
sS'geometry'
p222
NsS'verbosity'
p223
I0
sS'timeout'
p224
F24
sS'debug'
p225
NsS'cores'
p226
I64
sg188
S'Odden_79_Jita'
p227
sS'mergeFrontiers'
p228
I00
sbsb.