(iresult
Result
p1
(dp2
S'startTime'
p3
F1615142936.6100831
sS'solutionSequence'
p4
(lp5
(ccopy_reg
_reconstructor
p6
(csolution
Solution
p7
c__builtin__
object
p8
NtRp9
(dp10
S'rules'
p11
(lp12
(irule
Rule
p13
(dp14
S'leftTriggers'
p15
(irule
Guard
p16
(dp17
S'endOfString'
p18
I00
sS'specifications'
p19
(lp20
sS'optionalEnding'
p21
I00
sS'representation'
p22
V
sS'starred'
p23
I00
sS'side'
p24
S'L'
sbsS'structuralChange'
p25
(irule
FeatureMatrix
p26
(dp27
S'featuresAndPolarities'
p28
(lp29
(I00
S'voice'
p30
tp31
asg22
V[ -voice ]
p32
sbsS'rightTriggers'
p33
(irule
Guard
p34
(dp35
g18
I01
sg19
(lp36
sg21
I00
sg22
V#
sg23
I00
sg24
S'R'
sbsS'focus'
p37
(irule
ConstantPhoneme
p38
(dp39
S'p'
Vb
sbsg22
Vb ---> [ -voice ] /  _ #
p40
sbasS'prefixes'
p41
(lp42
(imorph
Morph
p43
(dp44
S'phonemes'
p45
(lp46
sba(imorph
Morph
p47
(dp48
g45
(lp49
sbasS'underlyingForms'
p50
(dp51
((imorph
Morph
p52
(dp53
g45
(lp54
Vk
aVl
aVu
aVp
asb(imorph
Morph
p55
(dp56
g45
(lp57
Vk
aVl
aVu
aVb
aVi
asbtp58
(imorph
Morph
p59
(dp60
g45
(lp61
Vk
aVl
aVu
aVb
asbs((imorph
Morph
p62
(dp63
g45
(lp64
Vt
aVr
aVu
aVp
asb(imorph
Morph
p65
(dp66
g45
(lp67
Vt
aVr
aVu
aVp
aVi
asbtp68
(imorph
Morph
p69
(dp70
g45
(lp71
Vt
aVr
aVu
aVp
asbs((imorph
Morph
p72
(dp73
g45
(lp74
Vd
aVo
aVm
asb(imorph
Morph
p75
(dp76
g45
(lp77
Vd
aVo
aVm
aVi
asbtp78
(imorph
Morph
p79
(dp80
g45
(lp81
Vd
aVo
aVm
asbs((imorph
Morph
(dp82
g45
(lp83
Vs
aVn
aVo
aVp
asb(imorph
Morph
(dp84
g45
(lp85
Vs
aVn
aVo
aVp
aVi
asbtp86
(imorph
Morph
p87
(dp88
g45
(lp89
Vs
aVn
aVo
aVp
asbssS'suffixes'
p90
(lp91
(imorph
Morph
p92
(dp93
g45
(lp94
sba(imorph
Morph
p95
(dp96
g45
(lp97
Vi
asbasbF10.203741788864136
tp98
a(g6
(g7
g8
NtRp99
(dp100
g11
(lp101
(irule
Rule
p102
(dp103
g15
(irule
Guard
p104
(dp105
g18
I00
sg19
(lp106
sg21
I00
sg22
V
sg23
I00
sg24
S'L'
sbsg25
(irule
FeatureMatrix
p107
(dp108
g28
(lp109
(I01
S'high'
tp110
asg22
V[ +high ]
p111
sbsg33
(irule
Guard
p112
(dp113
g18
I01
sg19
(lp114
(irule
ConstantPhoneme
p115
(dp116
S'p'
Vb
sbasg21
I00
sg22
Vb #
p117
sg23
I00
sg24
S'R'
sbsg37
(irule
FeatureMatrix
p118
(dp119
g28
(lp120
sg22
V[  ]
p121
sbsg22
V[  ] ---> [ +high ] /  _ b #
p122
sba(irule
Rule
p123
(dp124
g15
(irule
Guard
p125
(dp126
g18
I00
sg19
(lp127
sg21
I00
sg22
V
sg23
I00
sg24
S'L'
sbsg25
(irule
FeatureMatrix
p128
(dp129
g28
(lp130
(I00
S'voice'
tp131
asg22
V[ -voice ]
p132
sbsg33
(irule
Guard
p133
(dp134
g18
I01
sg19
(lp135
sg21
I00
sg22
V#
sg23
I00
sg24
S'R'
sbsg37
(irule
FeatureMatrix
p136
(dp137
g28
(lp138
(I00
S'sonorant'
tp139
asg22
V[ -sonorant ]
p140
sbsg22
V[ -sonorant ] ---> [ -voice ] /  _ #
p141
sbasg41
(lp142
(imorph
Morph
p143
(dp144
g45
(lp145
sba(imorph
Morph
p146
(dp147
g45
(lp148
sbasg50
(dp149
((imorph
Morph
(dp150
g45
(lp151
Vz\u030c
p152
aVw
aVu
aVp
asb(imorph
Morph
(dp153
g45
(lp154
Vz\u030c
p155
aVw
aVo
aVb
aVi
asbtp156
(imorph
Morph
p157
(dp158
g45
(lp159
Vz\u030c
p160
aVw
aVo
aVb
asbs((imorph
Morph
(dp161
g45
(lp162
Vt
aVr
aVu
aVp
asb(imorph
Morph
(dp163
g45
(lp164
Vt
aVr
aVu
aVp
aVi
asbtp165
(imorph
Morph
p166
(dp167
g45
(lp168
Vt
aVr
aVu
aVp
asbs((imorph
Morph
(dp169
g45
(lp170
Vd
aVz
aVv
aVo
aVn
asb(imorph
Morph
(dp171
g45
(lp172
Vd
aVz
aVv
aVo
aVn
aVi
asbtp173
(imorph
Morph
p174
(dp175
g45
(lp176
Vd
aVz
aVv
aVo
aVn
asbs((imorph
Morph
(dp177
g45
(lp178
Vt
aVr
aVu
aVt
asb(imorph
Morph
(dp179
g45
(lp180
Vt
aVr
aVu
aVd
aVi
asbtp181
(imorph
Morph
p182
(dp183
g45
(lp184
Vt
aVr
aVu
aVd
asbs((imorph
Morph
(dp185
g45
(lp186
Vk
aVo
aVt
asb(imorph
Morph
(dp187
g45
(lp188
Vk
aVo
aVt
aVi
asbtp189
(imorph
Morph
p190
(dp191
g45
(lp192
Vk
aVo
aVt
asbs((imorph
Morph
(dp193
g45
(lp194
Vs
aVn
aVo
aVp
asb(imorph
Morph
(dp195
g45
(lp196
Vs
aVn
aVo
aVp
aVi
asbtp197
(imorph
Morph
p198
(dp199
g45
(lp200
Vs
aVn
aVo
aVp
asbs((imorph
Morph
(dp201
g45
(lp202
Vd
aVo
aVm
asb(imorph
Morph
(dp203
g45
(lp204
Vd
aVo
aVm
aVi
asbtp205
(imorph
Morph
p206
(dp207
g45
(lp208
Vd
aVo
aVm
asbs((imorph
Morph
(dp209
g45
(lp210
Vk
aVl
aVu
aVp
asb(imorph
Morph
(dp211
g45
(lp212
Vk
aVl
aVu
aVb
aVi
asbtp213
(imorph
Morph
p214
(dp215
g45
(lp216
Vk
aVl
aVu
aVb
asbssg90
(lp217
(imorph
Morph
p218
(dp219
g45
(lp220
sba(imorph
Morph
p221
(dp222
g45
(lp223
Vi
asbasbF630.12030601501465
tp224
a(g6
(g7
g8
NtRp225
(dp226
g11
(lp227
(irule
Rule
p228
(dp229
g15
(irule
Guard
p230
(dp231
g18
I00
sg19
(lp232
sg21
I00
sg22
V
sg23
I00
sg24
S'L'
sbsg25
(irule
ConstantPhoneme
p233
(dp234
S'p'
Vu
sbsg33
(irule
Guard
p235
(dp236
g18
I01
sg19
(lp237
(irule
FeatureMatrix
p238
(dp239
g28
(lp240
(I00
S'sonorant'
tp241
a(I01
S'voice'
tp242
asg22
V[ +voice -sonorant ]
p243
sbasg21
I00
sg22
V[ +voice -sonorant ] #
p244
sg23
I00
sg24
S'R'
sbsg37
(irule
FeatureMatrix
p245
(dp246
g28
(lp247
sg22
V[  ]
p248
sbsg22
V[  ] ---> u /  _ [ +voice -sonorant ] #
p249
sba(irule
Rule
p250
(dp251
g15
(irule
Guard
p252
(dp253
g18
I00
sg19
(lp254
sg21
I00
sg22
V
sg23
I00
sg24
S'L'
sbsg25
(irule
FeatureMatrix
p255
(dp256
g28
(lp257
(I00
S'voice'
tp258
asg22
V[ -voice ]
p259
sbsg33
(irule
Guard
p260
(dp261
g18
I01
sg19
(lp262
sg21
I00
sg22
V#
sg23
I00
sg24
S'R'
sbsg37
(irule
FeatureMatrix
p263
(dp264
g28
(lp265
(I00
S'sonorant'
tp266
asg22
V[ -sonorant ]
p267
sbsg22
V[ -sonorant ] ---> [ -voice ] /  _ #
p268
sbasg41
(lp269
(imorph
Morph
p270
(dp271
g45
(lp272
sba(imorph
Morph
p273
(dp274
g45
(lp275
sbasg50
(dp276
((imorph
Morph
(dp277
g45
(lp278
Vw
aVu
aVk
asb(imorph
Morph
(dp279
g45
(lp280
Vw
aVu
aVk
aVi
asbtp281
(imorph
Morph
p282
(dp283
g45
(lp284
Vw
aVu
aVk
asbs((imorph
Morph
(dp285
g45
(lp286
Vd
aVo
aVm
asb(imorph
Morph
(dp287
g45
(lp288
Vd
aVo
aVm
aVi
asbtp289
(imorph
Morph
p290
(dp291
g45
(lp292
Vd
aVo
aVm
asbs((imorph
Morph
(dp293
g45
(lp294
Vd
aVz
aVv
aVo
aVn
asb(imorph
Morph
(dp295
g45
(lp296
Vd
aVz
aVv
aVo
aVn
aVi
asbtp297
(imorph
Morph
p298
(dp299
g45
(lp300
Vd
aVz
aVv
aVo
aVn
asbs((imorph
Morph
(dp301
g45
(lp302
Vl
aVu
aVt
asb(imorph
Morph
(dp303
g45
(lp304
Vl
aVo
aVd
aVi
asbtp305
(imorph
Morph
p306
(dp307
g45
(lp308
Vl
aVo
aVd
asbs((imorph
Morph
(dp309
g45
(lp310
Vv
aVu
aVs
asb(imorph
Morph
(dp311
g45
(lp312
Vv
aVo
aVz
aVi
asbtp313
(imorph
Morph
p314
(dp315
g45
(lp316
Vv
aVo
aVz
asbs((imorph
Morph
(dp317
g45
(lp318
Vt
aVr
aVu
aVt
asb(imorph
Morph
(dp319
g45
(lp320
Vt
aVr
aVu
aVd
aVi
asbtp321
(imorph
Morph
p322
(dp323
g45
(lp324
Vt
aVr
aVu
aVd
asbs((imorph
Morph
(dp325
g45
(lp326
Vk
aVo
aVt
asb(imorph
Morph
(dp327
g45
(lp328
Vk
aVo
aVt
aVi
asbtp329
(imorph
Morph
p330
(dp331
g45
(lp332
Vk
aVo
aVt
asbs((imorph
Morph
(dp333
g45
(lp334
Vw
aVu
aVk
asb(imorph
Morph
(dp335
g45
(lp336
Vw
aVu
aVg
aVi
asbtp337
(imorph
Morph
p338
(dp339
g45
(lp340
Vw
aVu
aVg
asbs((imorph
Morph
(dp341
g45
(lp342
Vs
aVn
aVo
aVp
asb(imorph
Morph
(dp343
g45
(lp344
Vs
aVn
aVo
aVp
aVi
asbtp345
(imorph
Morph
p346
(dp347
g45
(lp348
Vs
aVn
aVo
aVp
asbs((imorph
Morph
(dp349
g45
(lp350
Vt
aVr
aVu
aVp
asb(imorph
Morph
(dp351
g45
(lp352
Vt
aVr
aVu
aVp
aVi
asbtp353
(imorph
Morph
p354
(dp355
g45
(lp356
Vt
aVr
aVu
aVp
asbs((imorph
Morph
(dp357
g45
(lp358
Vr
aVu
aVk
asb(imorph
Morph
(dp359
g45
(lp360
Vr
aVo
aVg
aVi
asbtp361
(imorph
Morph
p362
(dp363
g45
(lp364
Vr
aVo
aVg
asbs((imorph
Morph
(dp365
g45
(lp366
Vs
aVo
aVk
asb(imorph
Morph
(dp367
g45
(lp368
Vs
aVo
aVk
aVi
asbtp369
(imorph
Morph
p370
(dp371
g45
(lp372
Vs
aVo
aVk
asbs((imorph
Morph
(dp373
g45
(lp374
Vk
aVl
aVu
aVp
asb(imorph
Morph
(dp375
g45
(lp376
Vk
aVl
aVu
aVb
aVi
asbtp377
(imorph
Morph
p378
(dp379
g45
(lp380
Vk
aVl
aVu
aVb
asbs((imorph
Morph
(dp381
g45
(lp382
Vn
aVo
aVs
asb(imorph
Morph
(dp383
g45
(lp384
Vn
aVo
aVs
aVi
asbtp385
(imorph
Morph
p386
(dp387
g45
(lp388
Vn
aVo
aVs
asbs((imorph
Morph
(dp389
g45
(lp390
Vz\u030c
p391
aVw
aVu
aVp
asb(imorph
Morph
(dp392
g45
(lp393
Vz\u030c
p394
aVw
aVo
aVb
aVi
asbtp395
(imorph
Morph
p396
(dp397
g45
(lp398
Vz\u030c
p399
aVw
aVo
aVb
asbs((imorph
Morph
(dp400
g45
(lp401
Vg
aVr
aVu
aVs
asb(imorph
Morph
(dp402
g45
(lp403
Vg
aVr
aVu
aVz
aVi
asbtp404
(imorph
Morph
p405
(dp406
g45
(lp407
Vg
aVr
aVu
aVz
asbssg90
(lp408
(imorph
Morph
p409
(dp410
g45
(lp411
sba(imorph
Morph
p412
(dp413
g45
(lp414
Vi
asbasbF2044.506404876709
tp415
a(g6
(g7
g8
NtRp416
(dp417
g11
(lp418
(irule
Rule
p419
(dp420
g15
(irule
Guard
p421
(dp422
g18
I00
sg19
(lp423
sg21
I00
sg22
V
sg23
I00
sg24
S'L'
sbsg25
(irule
ConstantPhoneme
p424
(dp425
S'p'
Vu
sbsg33
(irule
Guard
p426
(dp427
g18
I01
sg19
(lp428
(irule
FeatureMatrix
p429
(dp430
g28
(lp431
(I00
S'nasal'
tp432
a(I01
S'voice'
tp433
asg22
V[ +voice -nasal ]
p434
sbasg21
I00
sg22
V[ +voice -nasal ] #
p435
sg23
I00
sg24
S'R'
sbsg37
(irule
ConstantPhoneme
p436
(dp437
S'p'
Vo
sbsg22
Vo ---> u /  _ [ +voice -nasal ] #
p438
sba(irule
Rule
p439
(dp440
g15
(irule
Guard
p441
(dp442
g18
I00
sg19
(lp443
sg21
I00
sg22
V
sg23
I00
sg24
S'L'
sbsg25
(irule
FeatureMatrix
p444
(dp445
g28
(lp446
(I00
S'voice'
tp447
asg22
V[ -voice ]
p448
sbsg33
(irule
Guard
p449
(dp450
g18
I01
sg19
(lp451
sg21
I00
sg22
V#
sg23
I00
sg24
S'R'
sbsg37
(irule
FeatureMatrix
p452
(dp453
g28
(lp454
(I00
S'sonorant'
tp455
asg22
V[ -sonorant ]
p456
sbsg22
V[ -sonorant ] ---> [ -voice ] /  _ #
p457
sbasg41
(lp458
(imorph
Morph
p459
(dp460
g45
(lp461
sba(imorph
Morph
p462
(dp463
g45
(lp464
sbasg50
(dp465
((imorph
Morph
(dp466
g45
(lp467
Vw
aVu
aVk
asb(imorph
Morph
(dp468
g45
(lp469
Vw
aVu
aVk
aVi
asbtp470
(imorph
Morph
p471
(dp472
g45
(lp473
Vw
aVu
aVk
asbs((imorph
Morph
(dp474
g45
(lp475
Vv
aVu
aVw
asb(imorph
Morph
(dp476
g45
(lp477
Vv
aVo
aVw
aVi
asbtp478
(imorph
Morph
p479
(dp480
g45
(lp481
Vv
aVo
aVw
asbs((imorph
Morph
(dp482
g45
(lp483
Vb
aVu
aVy
asb(imorph
Morph
(dp484
g45
(lp485
Vb
aVo
aVy
aVi
asbtp486
(imorph
Morph
p487
(dp488
g45
(lp489
Vb
aVo
aVy
asbs((imorph
Morph
(dp490
g45
(lp491
Vr
aVu
aVk
asb(imorph
Morph
(dp492
g45
(lp493
Vr
aVo
aVg
aVi
asbtp494
(imorph
Morph
p495
(dp496
g45
(lp497
Vr
aVo
aVg
asbs((imorph
Morph
(dp498
g45
(lp499
Vk
aVl
aVu
aVp
asb(imorph
Morph
(dp500
g45
(lp501
Vk
aVl
aVu
aVb
aVi
asbtp502
(imorph
Morph
p503
(dp504
g45
(lp505
Vk
aVl
aVu
aVb
asbs((imorph
Morph
(dp506
g45
(lp507
Vn
aVo
aVs
asb(imorph
Morph
(dp508
g45
(lp509
Vn
aVo
aVs
aVi
asbtp510
(imorph
Morph
p511
(dp512
g45
(lp513
Vn
aVo
aVs
asbs((imorph
Morph
(dp514
g45
(lp515
Vg
aVr
aVu
aVs
asb(imorph
Morph
(dp516
g45
(lp517
Vg
aVr
aVu
aVz
aVi
asbtp518
(imorph
Morph
p519
(dp520
g45
(lp521
Vg
aVr
aVu
aVz
asbs((imorph
Morph
(dp522
g45
(lp523
Vz\u030c
p524
aVw
aVu
aVp
asb(imorph
Morph
(dp525
g45
(lp526
Vz\u030c
p527
aVw
aVo
aVb
aVi
asbtp528
(imorph
Morph
p529
(dp530
g45
(lp531
Vz\u030c
p532
aVw
aVo
aVb
asbs((imorph
Morph
(dp533
g45
(lp534
Vv
aVu
aVs
asb(imorph
Morph
(dp535
g45
(lp536
Vv
aVo
aVz
aVi
asbtp537
(imorph
Morph
p538
(dp539
g45
(lp540
Vv
aVo
aVz
asbs((imorph
Morph
(dp541
g45
(lp542
Vk
aVo
aVt
asb(imorph
Morph
(dp543
g45
(lp544
Vk
aVo
aVt
aVi
asbtp545
(imorph
Morph
p546
(dp547
g45
(lp548
Vk
aVo
aVt
asbs((imorph
Morph
(dp549
g45
(lp550
Vd
aVz
aVv
aVo
aVn
asb(imorph
Morph
(dp551
g45
(lp552
Vd
aVz
aVv
aVo
aVn
aVi
asbtp553
(imorph
Morph
p554
(dp555
g45
(lp556
Vd
aVz
aVv
aVo
aVn
asbs((imorph
Morph
(dp557
g45
(lp558
V\u0161
aVu
aVm
asb(imorph
Morph
(dp559
g45
(lp560
V\u0161
aVu
aVm
aVi
asbtp561
(imorph
Morph
p562
(dp563
g45
(lp564
V\u0161
aVu
aVm
asbs((imorph
Morph
(dp565
g45
(lp566
Vw
aVu
aVk
asb(imorph
Morph
(dp567
g45
(lp568
Vw
aVu
aVg
aVi
asbtp569
(imorph
Morph
p570
(dp571
g45
(lp572
Vw
aVu
aVg
asbs((imorph
Morph
(dp573
g45
(lp574
Vz\u030c
p575
aVu
aVr
asb(imorph
Morph
(dp576
g45
(lp577
Vz\u030c
p578
aVu
aVr
aVi
asbtp579
(imorph
Morph
p580
(dp581
g45
(lp582
Vz\u030c
p583
aVu
aVr
asbs((imorph
Morph
(dp584
g45
(lp585
Vb
aVu
aVr
asb(imorph
Morph
(dp586
g45
(lp587
Vb
aVo
aVr
aVi
asbtp588
(imorph
Morph
p589
(dp590
g45
(lp591
Vb
aVo
aVr
asbs((imorph
Morph
(dp592
g45
(lp593
Vs
aVu
aVl
asb(imorph
Morph
(dp594
g45
(lp595
Vs
aVo
aVl
aVi
asbtp596
(imorph
Morph
p597
(dp598
g45
(lp599
Vs
aVo
aVl
asbs((imorph
Morph
(dp600
g45
(lp601
Vd
aVo
aVm
asb(imorph
Morph
(dp602
g45
(lp603
Vd
aVo
aVm
aVi
asbtp604
(imorph
Morph
p605
(dp606
g45
(lp607
Vd
aVo
aVm
asbs((imorph
Morph
(dp608
g45
(lp609
Vs
aVo
aVk
asb(imorph
Morph
(dp610
g45
(lp611
Vs
aVo
aVk
aVi
asbtp612
(imorph
Morph
p613
(dp614
g45
(lp615
Vs
aVo
aVk
asbs((imorph
Morph
(dp616
g45
(lp617
Vt
aVr
aVu
aVt
asb(imorph
Morph
(dp618
g45
(lp619
Vt
aVr
aVu
aVd
aVi
asbtp620
(imorph
Morph
p621
(dp622
g45
(lp623
Vt
aVr
aVu
aVd
asbs((imorph
Morph
(dp624
g45
(lp625
Vs
aVn
aVo
aVp
asb(imorph
Morph
(dp626
g45
(lp627
Vs
aVn
aVo
aVp
aVi
asbtp628
(imorph
Morph
p629
(dp630
g45
(lp631
Vs
aVn
aVo
aVp
asbs((imorph
Morph
(dp632
g45
(lp633
Vt
aVr
aVu
aVp
asb(imorph
Morph
(dp634
g45
(lp635
Vt
aVr
aVu
aVp
aVi
asbtp636
(imorph
Morph
p637
(dp638
g45
(lp639
Vt
aVr
aVu
aVp
asbs((imorph
Morph
(dp640
g45
(lp641
Vl
aVu
aVt
asb(imorph
Morph
(dp642
g45
(lp643
Vl
aVo
aVd
aVi
asbtp644
(imorph
Morph
p645
(dp646
g45
(lp647
Vl
aVo
aVd
asbssg90
(lp648
(imorph
Morph
p649
(dp650
g45
(lp651
sba(imorph
Morph
p652
(dp653
g45
(lp654
Vi
asbasbF3028.3497889041901
tp655
asS'problem'
p656
S'Odden_3.2_Polish'
p657
sS'finalFrontier'
p658
g6
(csolution
Frontier
p659
g8
NtRp660
(dp661
g41
g458
sg90
g648
sg50
g465
sS'frontiers'
p662
(lp663
(lp664
(irule
Rule
p665
(dp666
g15
(irule
Guard
p667
(dp668
g18
I00
sg19
(lp669
sg21
I00
sg22
V
sg23
I00
sg24
S'L'
sbsg25
(irule
ConstantPhoneme
p670
(dp671
S'p'
Vu
sbsg33
(irule
Guard
p672
(dp673
g18
I01
sg19
(lp674
(irule
FeatureMatrix
p675
(dp676
g28
(lp677
(I00
S'nasal'
tp678
a(I01
S'voice'
tp679
asg22
V[ +voice -nasal ]
p680
sbasg21
I00
sg22
V[ +voice -nasal ] #
p681
sg23
I00
sg24
S'R'
sbsg37
(irule
ConstantPhoneme
p682
(dp683
S'p'
Vo
sbsg22
Vo ---> u /  _ [ +voice -nasal ] #
p684
sba(irule
Rule
p685
(dp686
g15
(irule
Guard
p687
(dp688
g18
I00
sg19
(lp689
sg21
I00
sg22
V
sg23
I00
sg24
S'L'
sbsg25
(irule
FeatureMatrix
p690
(dp691
g28
(lp692
(I01
S'high'
p693
tp694
asg22
V[ +high ]
p695
sbsg33
(irule
Guard
p696
(dp697
g18
I01
sg19
(lp698
(irule
FeatureMatrix
p699
(dp700
g28
(lp701
(I00
S'nasal'
p702
tp703
a(I01
S'voice'
p704
tp705
asg22
V[ +voice -nasal ]
p706
sbasg21
I00
sg22
V[ +voice -nasal ] #
p707
sg23
I00
sg24
S'R'
sbsg37
(irule
FeatureMatrix
p708
(dp709
g28
(lp710
(I01
S'rounded'
p711
tp712
asg22
V[ +rounded ]
p713
sbsg22
V[ +rounded ] ---> [ +high ] /  _ [ +voice -nasal ] #
p714
sba(irule
Rule
p715
(dp716
g15
(irule
Guard
p717
(dp718
g18
I00
sg19
(lp719
sg21
I00
sg22
V
sg23
I00
sg24
S'L'
sbsg25
(irule
FeatureMatrix
p720
(dp721
g28
(lp722
(I01
g693
tp723
asg22
V[ +high ]
p724
sbsg33
(irule
Guard
p725
(dp726
g18
I01
sg19
(lp727
(irule
FeatureMatrix
p728
(dp729
g28
(lp730
(I00
g702
tp731
a(I01
g704
tp732
asg22
V[ +voice -nasal ]
p733
sbasg21
I00
sg22
V[ +voice -nasal ] #
p734
sg23
I00
sg24
S'R'
sbsg37
(irule
FeatureMatrix
p735
(dp736
g28
(lp737
(I01
S'tense'
p738
tp739
asg22
V[ +tense ]
p740
sbsg22
V[ +tense ] ---> [ +high ] /  _ [ +voice -nasal ] #
p741
sba(irule
Rule
p742
(dp743
g15
(irule
Guard
p744
(dp745
g18
I00
sg19
(lp746
sg21
I00
sg22
V
sg23
I00
sg24
S'L'
sbsg25
(irule
FeatureMatrix
p747
(dp748
g28
(lp749
(I01
g693
tp750
asg22
V[ +high ]
p751
sbsg33
(irule
Guard
p752
(dp753
g18
I01
sg19
(lp754
(irule
FeatureMatrix
p755
(dp756
g28
(lp757
(I00
g702
tp758
a(I00
S'vowel'
p759
tp760
a(I01
g704
tp761
asg22
V[ +voice -nasal -vowel ]
p762
sbasg21
I00
sg22
V[ +voice -nasal -vowel ] #
p763
sg23
I00
sg24
S'R'
sbsg37
(irule
FeatureMatrix
p764
(dp765
g28
(lp766
sg22
V[  ]
p767
sbsg22
V[  ] ---> [ +high ] /  _ [ +voice -nasal -vowel ] #
p768
sba(irule
Rule
p769
(dp770
g15
(irule
Guard
p771
(dp772
g18
I00
sg19
(lp773
sg21
I00
sg22
V
sg23
I00
sg24
S'L'
sbsg25
(irule
FeatureMatrix
p774
(dp775
g28
(lp776
(I01
g693
tp777
asg22
V[ +high ]
p778
sbsg33
(irule
Guard
p779
(dp780
g18
I01
sg19
(lp781
(irule
FeatureMatrix
p782
(dp783
g28
(lp784
(I00
g702
tp785
a(I00
g738
tp786
a(I01
g704
tp787
asg22
V[ +voice -nasal -tense ]
p788
sbasg21
I00
sg22
V[ +voice -nasal -tense ] #
p789
sg23
I00
sg24
S'R'
sbsg37
(irule
FeatureMatrix
p790
(dp791
g28
(lp792
sg22
V[  ]
p793
sbsg22
V[  ] ---> [ +high ] /  _ [ +voice -nasal -tense ] #
p794
sba(irule
Rule
p795
(dp796
g15
(irule
Guard
p797
(dp798
g18
I00
sg19
(lp799
sg21
I00
sg22
V
sg23
I00
sg24
S'L'
sbsg25
(irule
ConstantPhoneme
p800
(dp801
S'p'
Vu
sbsg33
(irule
Guard
p802
(dp803
g18
I01
sg19
(lp804
(irule
FeatureMatrix
p805
(dp806
g28
(lp807
(I00
g702
tp808
a(I00
g759
tp809
a(I01
g704
tp810
asg22
V[ +voice -nasal -vowel ]
p811
sbasg21
I00
sg22
V[ +voice -nasal -vowel ] #
p812
sg23
I00
sg24
S'R'
sbsg37
(irule
FeatureMatrix
p813
(dp814
g28
(lp815
sg22
V[  ]
p816
sbsg22
V[  ] ---> u /  _ [ +voice -nasal -vowel ] #
p817
sba(irule
Rule
p818
(dp819
g15
(irule
Guard
p820
(dp821
g18
I00
sg19
(lp822
sg21
I00
sg22
V
sg23
I00
sg24
S'L'
sbsg25
(irule
FeatureMatrix
p823
(dp824
g28
(lp825
(I01
g693
tp826
asg22
V[ +high ]
p827
sbsg33
(irule
Guard
p828
(dp829
g18
I01
sg19
(lp830
(irule
FeatureMatrix
p831
(dp832
g28
(lp833
(I00
g702
tp834
a(I01
g704
tp835
asg22
V[ +voice -nasal ]
p836
sbasg21
I00
sg22
V[ +voice -nasal ] #
p837
sg23
I00
sg24
S'R'
sbsg37
(irule
FeatureMatrix
p838
(dp839
g28
(lp840
(I01
S'back'
p841
tp842
asg22
V[ +back ]
p843
sbsg22
V[ +back ] ---> [ +high ] /  _ [ +voice -nasal ] #
p844
sba(irule
Rule
p845
(dp846
g15
(irule
Guard
p847
(dp848
g18
I00
sg19
(lp849
sg21
I00
sg22
V
sg23
I00
sg24
S'L'
sbsg25
(irule
FeatureMatrix
p850
(dp851
g28
(lp852
(I01
g693
tp853
asg22
V[ +high ]
p854
sbsg33
(irule
Guard
p855
(dp856
g18
I01
sg19
(lp857
(irule
FeatureMatrix
p858
(dp859
g28
(lp860
(I00
g702
tp861
a(I01
g704
tp862
asg22
V[ +voice -nasal ]
p863
sbasg21
I00
sg22
V[ +voice -nasal ] #
p864
sg23
I00
sg24
S'R'
sbsg37
(irule
FeatureMatrix
p865
(dp866
g28
(lp867
(I01
g759
tp868
asg22
V[ +vowel ]
p869
sbsg22
V[ +vowel ] ---> [ +high ] /  _ [ +voice -nasal ] #
p870
sba(irule
Rule
p871
(dp872
g15
(irule
Guard
p873
(dp874
g18
I00
sg19
(lp875
sg21
I00
sg22
V
sg23
I00
sg24
S'L'
sbsg25
(irule
ConstantPhoneme
p876
(dp877
S'p'
Vu
sbsg33
(irule
Guard
p878
(dp879
g18
I01
sg19
(lp880
(irule
FeatureMatrix
p881
(dp882
g28
(lp883
(I00
g702
tp884
a(I00
g738
tp885
a(I01
g704
tp886
asg22
V[ +voice -nasal -tense ]
p887
sbasg21
I00
sg22
V[ +voice -nasal -tense ] #
p888
sg23
I00
sg24
S'R'
sbsg37
(irule
FeatureMatrix
p889
(dp890
g28
(lp891
sg22
V[  ]
p892
sbsg22
V[  ] ---> u /  _ [ +voice -nasal -tense ] #
p893
sba(irule
Rule
p894
(dp895
g15
(irule
Guard
p896
(dp897
g18
I00
sg19
(lp898
sg21
I00
sg22
V
sg23
I00
sg24
S'L'
sbsg25
(irule
ConstantPhoneme
p899
(dp900
S'p'
Vu
sbsg33
(irule
Guard
p901
(dp902
g18
I01
sg19
(lp903
(irule
FeatureMatrix
p904
(dp905
g28
(lp906
(I00
g702
tp907
a(I01
g704
tp908
asg22
V[ +voice -nasal ]
p909
sbasg21
I00
sg22
V[ +voice -nasal ] #
p910
sg23
I00
sg24
S'R'
sbsg37
(irule
FeatureMatrix
p911
(dp912
g28
(lp913
(I01
g711
tp914
asg22
V[ +rounded ]
p915
sbsg22
V[ +rounded ] ---> u /  _ [ +voice -nasal ] #
p916
sba(irule
Rule
p917
(dp918
g15
(irule
Guard
p919
(dp920
g18
I00
sg19
(lp921
sg21
I00
sg22
V
sg23
I00
sg24
S'L'
sbsg25
(irule
ConstantPhoneme
p922
(dp923
S'p'
Vu
sbsg33
(irule
Guard
p924
(dp925
g18
I01
sg19
(lp926
(irule
FeatureMatrix
p927
(dp928
g28
(lp929
(I00
g702
tp930
a(I01
g704
tp931
asg22
V[ +voice -nasal ]
p932
sbasg21
I00
sg22
V[ +voice -nasal ] #
p933
sg23
I00
sg24
S'R'
sbsg37
(irule
FeatureMatrix
p934
(dp935
g28
(lp936
(I01
g738
tp937
asg22
V[ +tense ]
p938
sbsg22
V[ +tense ] ---> u /  _ [ +voice -nasal ] #
p939
sba(irule
Rule
p940
(dp941
g15
(irule
Guard
p942
(dp943
g18
I00
sg19
(lp944
sg21
I00
sg22
V
sg23
I00
sg24
S'L'
sbsg25
(irule
FeatureMatrix
p945
(dp946
g28
(lp947
(I01
g693
tp948
asg22
V[ +high ]
p949
sbsg33
(irule
Guard
p950
(dp951
g18
I01
sg19
(lp952
(irule
FeatureMatrix
p953
(dp954
g28
(lp955
(I00
g702
tp956
a(I01
g704
tp957
asg22
V[ +voice -nasal ]
p958
sbasg21
I00
sg22
V[ +voice -nasal ] #
p959
sg23
I00
sg24
S'R'
sbsg37
(irule
ConstantPhoneme
p960
(dp961
S'p'
Vo
sbsg22
Vo ---> [ +high ] /  _ [ +voice -nasal ] #
p962
sba(irule
Rule
p963
(dp964
g15
(irule
Guard
p965
(dp966
g18
I00
sg19
(lp967
sg21
I00
sg22
V
sg23
I00
sg24
S'L'
sbsg25
(irule
ConstantPhoneme
p968
(dp969
S'p'
Vu
sbsg33
(irule
Guard
p970
(dp971
g18
I01
sg19
(lp972
(irule
FeatureMatrix
p973
(dp974
g28
(lp975
(I00
g702
tp976
a(I01
g704
tp977
asg22
V[ +voice -nasal ]
p978
sbasg21
I00
sg22
V[ +voice -nasal ] #
p979
sg23
I00
sg24
S'R'
sbsg37
(irule
FeatureMatrix
p980
(dp981
g28
(lp982
(I01
g759
tp983
asg22
V[ +vowel ]
p984
sbsg22
V[ +vowel ] ---> u /  _ [ +voice -nasal ] #
p985
sba(irule
Rule
p986
(dp987
g15
(irule
Guard
p988
(dp989
g18
I00
sg19
(lp990
sg21
I00
sg22
V
sg23
I00
sg24
S'L'
sbsg25
(irule
FeatureMatrix
p991
(dp992
g28
(lp993
(I01
g693
tp994
asg22
V[ +high ]
p995
sbsg33
(irule
Guard
p996
(dp997
g18
I01
sg19
(lp998
(irule
FeatureMatrix
p999
(dp1000
g28
(lp1001
(I00
g702
tp1002
a(I01
g704
tp1003
asg22
V[ +voice -nasal ]
p1004
sbasg21
I00
sg22
V[ +voice -nasal ] #
p1005
sg23
I00
sg24
S'R'
sbsg37
(irule
FeatureMatrix
p1006
(dp1007
g28
(lp1008
(I01
g759
tp1009
a(I01
g738
tp1010
asg22
V[ +tense +vowel ]
p1011
sbsg22
V[ +tense +vowel ] ---> [ +high ] /  _ [ +voice -nasal ] #
p1012
sba(irule
Rule
p1013
(dp1014
g15
(irule
Guard
p1015
(dp1016
g18
I00
sg19
(lp1017
sg21
I00
sg22
V
sg23
I00
sg24
S'L'
sbsg25
(irule
FeatureMatrix
p1018
(dp1019
g28
(lp1020
(I01
g693
tp1021
a(I01
g704
tp1022
asg22
V[ +high +voice ]
p1023
sbsg33
(irule
Guard
p1024
(dp1025
g18
I01
sg19
(lp1026
(irule
FeatureMatrix
p1027
(dp1028
g28
(lp1029
(I00
g702
tp1030
a(I01
g704
tp1031
asg22
V[ +voice -nasal ]
p1032
sbasg21
I00
sg22
V[ +voice -nasal ] #
p1033
sg23
I00
sg24
S'R'
sbsg37
(irule
FeatureMatrix
p1034
(dp1035
g28
(lp1036
(I01
g738
tp1037
asg22
V[ +tense ]
p1038
sbsg22
V[ +tense ] ---> [ +high +voice ] /  _ [ +voice -nasal ] #
p1039
sba(irule
Rule
p1040
(dp1041
g15
(irule
Guard
p1042
(dp1043
g18
I00
sg19
(lp1044
sg21
I00
sg22
V
sg23
I00
sg24
S'L'
sbsg25
(irule
FeatureMatrix
p1045
(dp1046
g28
(lp1047
(I01
g693
tp1048
asg22
V[ +high ]
p1049
sbsg33
(irule
Guard
p1050
(dp1051
g18
I01
sg19
(lp1052
(irule
FeatureMatrix
p1053
(dp1054
g28
(lp1055
(I00
g702
tp1056
a(I01
g704
tp1057
asg22
V[ +voice -nasal ]
p1058
sbasg21
I00
sg22
V[ +voice -nasal ] #
p1059
sg23
I00
sg24
S'R'
sbsg37
(irule
FeatureMatrix
p1060
(dp1061
g28
(lp1062
(I01
g711
tp1063
a(I00
S'lateral'
p1064
tp1065
asg22
V[ +rounded -lateral ]
p1066
sbsg22
V[ +rounded -lateral ] ---> [ +high ] /  _ [ +voice -nasal ] #
p1067
sba(irule
Rule
p1068
(dp1069
g15
(irule
Guard
p1070
(dp1071
g18
I00
sg19
(lp1072
sg21
I00
sg22
V
sg23
I00
sg24
S'L'
sbsg25
(irule
FeatureMatrix
p1073
(dp1074
g28
(lp1075
(I01
g693
tp1076
asg22
V[ +high ]
p1077
sbsg33
(irule
Guard
p1078
(dp1079
g18
I01
sg19
(lp1080
(irule
FeatureMatrix
p1081
(dp1082
g28
(lp1083
(I00
g702
tp1084
a(I00
g759
tp1085
a(I01
g704
tp1086
asg22
V[ +voice -nasal -vowel ]
p1087
sbasg21
I00
sg22
V[ +voice -nasal -vowel ] #
p1088
sg23
I00
sg24
S'R'
sbsg37
(irule
FeatureMatrix
p1089
(dp1090
g28
(lp1091
(I01
g704
tp1092
asg22
V[ +voice ]
p1093
sbsg22
V[ +voice ] ---> [ +high ] /  _ [ +voice -nasal -vowel ] #
p1094
sba(irule
Rule
p1095
(dp1096
g15
(irule
Guard
p1097
(dp1098
g18
I00
sg19
(lp1099
sg21
I00
sg22
V
sg23
I00
sg24
S'L'
sbsg25
(irule
FeatureMatrix
p1100
(dp1101
g28
(lp1102
(I01
g693
tp1103
asg22
V[ +high ]
p1104
sbsg33
(irule
Guard
p1105
(dp1106
g18
I01
sg19
(lp1107
(irule
FeatureMatrix
p1108
(dp1109
g28
(lp1110
(I00
g702
tp1111
a(I00
g759
tp1112
a(I01
g704
tp1113
asg22
V[ +voice -nasal -vowel ]
p1114
sbasg21
I00
sg22
V[ +voice -nasal -vowel ] #
p1115
sg23
I00
sg24
S'R'
sbsg37
(irule
FeatureMatrix
p1116
(dp1117
g28
(lp1118
(I00
S'palletized'
p1119
tp1120
asg22
V[ -palletized ]
p1121
sbsg22
V[ -palletized ] ---> [ +high ] /  _ [ +voice -nasal -vowel ] #
p1122
sba(irule
Rule
p1123
(dp1124
g15
(irule
Guard
p1125
(dp1126
g18
I00
sg19
(lp1127
sg21
I00
sg22
V
sg23
I00
sg24
S'L'
sbsg25
(irule
FeatureMatrix
p1128
(dp1129
g28
(lp1130
(I01
g693
tp1131
a(I00
S'sibilant'
p1132
tp1133
asg22
V[ +high -sibilant ]
p1134
sbsg33
(irule
Guard
p1135
(dp1136
g18
I01
sg19
(lp1137
(irule
FeatureMatrix
p1138
(dp1139
g28
(lp1140
(I00
g702
tp1141
a(I01
g704
tp1142
asg22
V[ +voice -nasal ]
p1143
sbasg21
I00
sg22
V[ +voice -nasal ] #
p1144
sg23
I00
sg24
S'R'
sbsg37
(irule
FeatureMatrix
p1145
(dp1146
g28
(lp1147
(I01
g738
tp1148
asg22
V[ +tense ]
p1149
sbsg22
V[ +tense ] ---> [ +high -sibilant ] /  _ [ +voice -nasal ] #
p1150
sba(irule
Rule
p1151
(dp1152
g15
(irule
Guard
p1153
(dp1154
g18
I00
sg19
(lp1155
sg21
I00
sg22
V
sg23
I00
sg24
S'L'
sbsg25
(irule
FeatureMatrix
p1156
(dp1157
g28
(lp1158
(I01
g693
tp1159
asg22
V[ +high ]
p1160
sbsg33
(irule
Guard
p1161
(dp1162
g18
I01
sg19
(lp1163
(irule
FeatureMatrix
p1164
(dp1165
g28
(lp1166
(I00
g702
tp1167
a(I01
g704
tp1168
asg22
V[ +voice -nasal ]
p1169
sbasg21
I00
sg22
V[ +voice -nasal ] #
p1170
sg23
I00
sg24
S'R'
sbsg37
(irule
FeatureMatrix
p1171
(dp1172
g28
(lp1173
(I01
g738
tp1174
a(I01
g704
tp1175
asg22
V[ +tense +voice ]
p1176
sbsg22
V[ +tense +voice ] ---> [ +high ] /  _ [ +voice -nasal ] #
p1177
sba(irule
Rule
p1178
(dp1179
g15
(irule
Guard
p1180
(dp1181
g18
I00
sg19
(lp1182
(irule
FeatureMatrix
p1183
(dp1184
g28
(lp1185
sg22
V[  ]
p1186
sbasg21
I00
sg22
g1186
sg23
I00
sg24
S'L'
sbsg25
(irule
FeatureMatrix
p1187
(dp1188
g28
(lp1189
(I01
g693
tp1190
asg22
V[ +high ]
p1191
sbsg33
(irule
Guard
p1192
(dp1193
g18
I01
sg19
(lp1194
(irule
FeatureMatrix
p1195
(dp1196
g28
(lp1197
(I00
g702
tp1198
a(I00
g759
tp1199
a(I01
g704
tp1200
asg22
V[ +voice -nasal -vowel ]
p1201
sbasg21
I00
sg22
V[ +voice -nasal -vowel ] #
p1202
sg23
I00
sg24
S'R'
sbsg37
(irule
FeatureMatrix
p1203
(dp1204
g28
(lp1205
sg22
V[  ]
p1206
sbsg22
V[  ] ---> [ +high ] / [  ] _ [ +voice -nasal -vowel ] #
p1207
sba(irule
Rule
p1208
(dp1209
g15
(irule
Guard
p1210
(dp1211
g18
I00
sg19
(lp1212
sg21
I00
sg22
V
sg23
I00
sg24
S'L'
sbsg25
(irule
FeatureMatrix
p1213
(dp1214
g28
(lp1215
(I01
g693
tp1216
asg22
V[ +high ]
p1217
sbsg33
(irule
Guard
p1218
(dp1219
g18
I01
sg19
(lp1220
(irule
FeatureMatrix
p1221
(dp1222
g28
(lp1223
(I00
g711
tp1224
a(I00
g702
tp1225
a(I01
g704
tp1226
asg22
V[ +voice -nasal -rounded ]
p1227
sbasg21
I00
sg22
V[ +voice -nasal -rounded ] #
p1228
sg23
I00
sg24
S'R'
sbsg37
(irule
FeatureMatrix
p1229
(dp1230
g28
(lp1231
(I01
g711
tp1232
asg22
V[ +rounded ]
p1233
sbsg22
V[ +rounded ] ---> [ +high ] /  _ [ +voice -nasal -rounded ] #
p1234
sba(irule
Rule
p1235
(dp1236
g15
(irule
Guard
p1237
(dp1238
g18
I00
sg19
(lp1239
(irule
FeatureMatrix
p1240
(dp1241
g28
(lp1242
(I00
g841
tp1243
asg22
V[ -back ]
p1244
sbasg21
I00
sg22
g1244
sg23
I00
sg24
S'L'
sbsg25
(irule
FeatureMatrix
p1245
(dp1246
g28
(lp1247
(I01
g693
tp1248
asg22
V[ +high ]
p1249
sbsg33
(irule
Guard
p1250
(dp1251
g18
I01
sg19
(lp1252
(irule
FeatureMatrix
p1253
(dp1254
g28
(lp1255
(I00
g702
tp1256
a(I01
g704
tp1257
asg22
V[ +voice -nasal ]
p1258
sbasg21
I00
sg22
V[ +voice -nasal ] #
p1259
sg23
I00
sg24
S'R'
sbsg37
(irule
FeatureMatrix
p1260
(dp1261
g28
(lp1262
sg22
V[  ]
p1263
sbsg22
V[  ] ---> [ +high ] / [ -back ] _ [ +voice -nasal ] #
p1264
sba(irule
Rule
p1265
(dp1266
g15
(irule
Guard
p1267
(dp1268
g18
I00
sg19
(lp1269
sg21
I00
sg22
V
sg23
I00
sg24
S'L'
sbsg25
(irule
FeatureMatrix
p1270
(dp1271
g28
(lp1272
(I01
g693
tp1273
a(I01
g704
tp1274
asg22
V[ +high +voice ]
p1275
sbsg33
(irule
Guard
p1276
(dp1277
g18
I01
sg19
(lp1278
(irule
FeatureMatrix
p1279
(dp1280
g28
(lp1281
(I00
g702
tp1282
a(I01
g704
tp1283
asg22
V[ +voice -nasal ]
p1284
sbasg21
I00
sg22
V[ +voice -nasal ] #
p1285
sg23
I00
sg24
S'R'
sbsg37
(irule
FeatureMatrix
p1286
(dp1287
g28
(lp1288
(I01
g759
tp1289
asg22
V[ +vowel ]
p1290
sbsg22
V[ +vowel ] ---> [ +high +voice ] /  _ [ +voice -nasal ] #
p1291
sba(irule
Rule
p1292
(dp1293
g15
(irule
Guard
p1294
(dp1295
g18
I00
sg19
(lp1296
(irule
FeatureMatrix
p1297
(dp1298
g28
(lp1299
sg22
V[  ]
p1300
sbasg21
I00
sg22
g1300
sg23
I00
sg24
S'L'
sbsg25
(irule
FeatureMatrix
p1301
(dp1302
g28
(lp1303
(I01
g693
tp1304
asg22
V[ +high ]
p1305
sbsg33
(irule
Guard
p1306
(dp1307
g18
I01
sg19
(lp1308
(irule
FeatureMatrix
p1309
(dp1310
g28
(lp1311
(I00
g702
tp1312
a(I00
g738
tp1313
a(I01
g704
tp1314
asg22
V[ +voice -nasal -tense ]
p1315
sbasg21
I00
sg22
V[ +voice -nasal -tense ] #
p1316
sg23
I00
sg24
S'R'
sbsg37
(irule
FeatureMatrix
p1317
(dp1318
g28
(lp1319
sg22
V[  ]
p1320
sbsg22
V[  ] ---> [ +high ] / [  ] _ [ +voice -nasal -tense ] #
p1321
sba(irule
Rule
p1322
(dp1323
g15
(irule
Guard
p1324
(dp1325
g18
I00
sg19
(lp1326
(irule
FeatureMatrix
p1327
(dp1328
g28
(lp1329
sg22
V[  ]
p1330
sbasg21
I00
sg22
g1330
sg23
I00
sg24
S'L'
sbsg25
(irule
FeatureMatrix
p1331
(dp1332
g28
(lp1333
(I01
g693
tp1334
asg22
V[ +high ]
p1335
sbsg33
(irule
Guard
p1336
(dp1337
g18
I01
sg19
(lp1338
(irule
FeatureMatrix
p1339
(dp1340
g28
(lp1341
(I00
g702
tp1342
a(I01
g704
tp1343
asg22
V[ +voice -nasal ]
p1344
sbasg21
I00
sg22
V[ +voice -nasal ] #
p1345
sg23
I00
sg24
S'R'
sbsg37
(irule
FeatureMatrix
p1346
(dp1347
g28
(lp1348
(I01
g738
tp1349
asg22
V[ +tense ]
p1350
sbsg22
V[ +tense ] ---> [ +high ] / [  ] _ [ +voice -nasal ] #
p1351
sba(irule
Rule
p1352
(dp1353
g15
(irule
Guard
p1354
(dp1355
g18
I00
sg19
(lp1356
(irule
FeatureMatrix
p1357
(dp1358
g28
(lp1359
(I00
g711
tp1360
asg22
V[ -rounded ]
p1361
sbasg21
I00
sg22
g1361
sg23
I00
sg24
S'L'
sbsg25
(irule
FeatureMatrix
p1362
(dp1363
g28
(lp1364
(I01
g693
tp1365
asg22
V[ +high ]
p1366
sbsg33
(irule
Guard
p1367
(dp1368
g18
I01
sg19
(lp1369
(irule
FeatureMatrix
p1370
(dp1371
g28
(lp1372
(I00
g702
tp1373
a(I01
g704
tp1374
asg22
V[ +voice -nasal ]
p1375
sbasg21
I00
sg22
V[ +voice -nasal ] #
p1376
sg23
I00
sg24
S'R'
sbsg37
(irule
FeatureMatrix
p1377
(dp1378
g28
(lp1379
sg22
V[  ]
p1380
sbsg22
V[  ] ---> [ +high ] / [ -rounded ] _ [ +voice -nasal ] #
p1381
sba(irule
Rule
p1382
(dp1383
g15
(irule
Guard
p1384
(dp1385
g18
I00
sg19
(lp1386
sg21
I00
sg22
V
sg23
I00
sg24
S'L'
sbsg25
(irule
FeatureMatrix
p1387
(dp1388
g28
(lp1389
(I01
g693
tp1390
asg22
V[ +high ]
p1391
sbsg33
(irule
Guard
p1392
(dp1393
g18
I01
sg19
(lp1394
(irule
FeatureMatrix
p1395
(dp1396
g28
(lp1397
(I00
g702
tp1398
a(I00
g738
tp1399
a(I01
g704
tp1400
asg22
V[ +voice -nasal -tense ]
p1401
sbasg21
I00
sg22
V[ +voice -nasal -tense ] #
p1402
sg23
I00
sg24
S'R'
sbsg37
(irule
FeatureMatrix
p1403
(dp1404
g28
(lp1405
(I00
g1119
tp1406
asg22
V[ -palletized ]
p1407
sbsg22
V[ -palletized ] ---> [ +high ] /  _ [ +voice -nasal -tense ] #
p1408
sba(irule
Rule
p1409
(dp1410
g15
(irule
Guard
p1411
(dp1412
g18
I00
sg19
(lp1413
sg21
I00
sg22
V
sg23
I00
sg24
S'L'
sbsg25
(irule
FeatureMatrix
p1414
(dp1415
g28
(lp1416
(I00
S'anterior'
p1417
tp1418
a(I01
g693
tp1419
asg22
V[ +high -anterior ]
p1420
sbsg33
(irule
Guard
p1421
(dp1422
g18
I01
sg19
(lp1423
(irule
FeatureMatrix
p1424
(dp1425
g28
(lp1426
(I00
g702
tp1427
a(I01
g704
tp1428
asg22
V[ +voice -nasal ]
p1429
sbasg21
I00
sg22
V[ +voice -nasal ] #
p1430
sg23
I00
sg24
S'R'
sbsg37
(irule
FeatureMatrix
p1431
(dp1432
g28
(lp1433
(I01
g738
tp1434
asg22
V[ +tense ]
p1435
sbsg22
V[ +tense ] ---> [ +high -anterior ] /  _ [ +voice -nasal ] #
p1436
sba(irule
Rule
p1437
(dp1438
g15
(irule
Guard
p1439
(dp1440
g18
I00
sg19
(lp1441
sg21
I00
sg22
V
sg23
I00
sg24
S'L'
sbsg25
(irule
FeatureMatrix
p1442
(dp1443
g28
(lp1444
(I01
g693
tp1445
asg22
V[ +high ]
p1446
sbsg33
(irule
Guard
p1447
(dp1448
g18
I01
sg19
(lp1449
(irule
FeatureMatrix
p1450
(dp1451
g28
(lp1452
(I00
g702
tp1453
a(I00
g759
tp1454
a(I01
g704
tp1455
asg22
V[ +voice -nasal -vowel ]
p1456
sbasg21
I00
sg22
V[ +voice -nasal -vowel ] #
p1457
sg23
I00
sg24
S'R'
sbsg37
(irule
FeatureMatrix
p1458
(dp1459
g28
(lp1460
(I00
g1132
tp1461
asg22
V[ -sibilant ]
p1462
sbsg22
V[ -sibilant ] ---> [ +high ] /  _ [ +voice -nasal -vowel ] #
p1463
sba(irule
Rule
p1464
(dp1465
g15
(irule
Guard
p1466
(dp1467
g18
I00
sg19
(lp1468
sg21
I00
sg22
V
sg23
I00
sg24
S'L'
sbsg25
(irule
FeatureMatrix
p1469
(dp1470
g28
(lp1471
(I01
g693
tp1472
asg22
V[ +high ]
p1473
sbsg33
(irule
Guard
p1474
(dp1475
g18
I01
sg19
(lp1476
(irule
FeatureMatrix
p1477
(dp1478
g28
(lp1479
(I00
g702
tp1480
a(I01
g704
tp1481
asg22
V[ +voice -nasal ]
p1482
sbasg21
I00
sg22
V[ +voice -nasal ] #
p1483
sg23
I00
sg24
S'R'
sbsg37
(irule
FeatureMatrix
p1484
(dp1485
g28
(lp1486
(I01
g711
tp1487
a(I01
g704
tp1488
asg22
V[ +rounded +voice ]
p1489
sbsg22
V[ +rounded +voice ] ---> [ +high ] /  _ [ +voice -nasal ] #
p1490
sba(irule
Rule
p1491
(dp1492
g15
(irule
Guard
p1493
(dp1494
g18
I00
sg19
(lp1495
sg21
I00
sg22
V
sg23
I00
sg24
S'L'
sbsg25
(irule
FeatureMatrix
p1496
(dp1497
g28
(lp1498
(I01
g693
tp1499
asg22
V[ +high ]
p1500
sbsg33
(irule
Guard
p1501
(dp1502
g18
I01
sg19
(lp1503
(irule
FeatureMatrix
p1504
(dp1505
g28
(lp1506
(I00
g702
tp1507
a(I00
g738
tp1508
a(I01
g704
tp1509
asg22
V[ +voice -nasal -tense ]
p1510
sbasg21
I00
sg22
V[ +voice -nasal -tense ] #
p1511
sg23
I00
sg24
S'R'
sbsg37
(irule
FeatureMatrix
p1512
(dp1513
g28
(lp1514
(I01
g704
tp1515
asg22
V[ +voice ]
p1516
sbsg22
V[ +voice ] ---> [ +high ] /  _ [ +voice -nasal -tense ] #
p1517
sba(irule
Rule
p1518
(dp1519
g15
(irule
Guard
p1520
(dp1521
g18
I00
sg19
(lp1522
sg21
I00
sg22
V
sg23
I00
sg24
S'L'
sbsg25
(irule
FeatureMatrix
p1523
(dp1524
g28
(lp1525
(I01
g693
tp1526
a(I01
g704
tp1527
asg22
V[ +high +voice ]
p1528
sbsg33
(irule
Guard
p1529
(dp1530
g18
I01
sg19
(lp1531
(irule
FeatureMatrix
p1532
(dp1533
g28
(lp1534
(I00
g702
tp1535
a(I01
g704
tp1536
asg22
V[ +voice -nasal ]
p1537
sbasg21
I00
sg22
V[ +voice -nasal ] #
p1538
sg23
I00
sg24
S'R'
sbsg37
(irule
ConstantPhoneme
p1539
(dp1540
S'p'
Vo
sbsg22
Vo ---> [ +high +voice ] /  _ [ +voice -nasal ] #
p1541
sba(irule
Rule
p1542
(dp1543
g15
(irule
Guard
p1544
(dp1545
g18
I00
sg19
(lp1546
sg21
I00
sg22
V
sg23
I00
sg24
S'L'
sbsg25
(irule
FeatureMatrix
p1547
(dp1548
g28
(lp1549
(I01
g693
tp1550
asg22
V[ +high ]
p1551
sbsg33
(irule
Guard
p1552
(dp1553
g18
I01
sg19
(lp1554
(irule
FeatureMatrix
p1555
(dp1556
g28
(lp1557
(I00
g702
tp1558
a(I01
g704
tp1559
asg22
V[ +voice -nasal ]
p1560
sbasg21
I00
sg22
V[ +voice -nasal ] #
p1561
sg23
I00
sg24
S'R'
sbsg37
(irule
FeatureMatrix
p1562
(dp1563
g28
(lp1564
(I01
g759
tp1565
a(I01
g704
tp1566
asg22
V[ +voice +vowel ]
p1567
sbsg22
V[ +voice +vowel ] ---> [ +high ] /  _ [ +voice -nasal ] #
p1568
sba(irule
Rule
p1569
(dp1570
g15
(irule
Guard
p1571
(dp1572
g18
I00
sg19
(lp1573
sg21
I00
sg22
V
sg23
I00
sg24
S'L'
sbsg25
(irule
FeatureMatrix
p1574
(dp1575
g28
(lp1576
(I01
g711
tp1577
a(I01
g693
tp1578
asg22
V[ +high +rounded ]
p1579
sbsg33
(irule
Guard
p1580
(dp1581
g18
I01
sg19
(lp1582
(irule
FeatureMatrix
p1583
(dp1584
g28
(lp1585
(I00
g702
tp1586
a(I01
g704
tp1587
asg22
V[ +voice -nasal ]
p1588
sbasg21
I00
sg22
V[ +voice -nasal ] #
p1589
sg23
I00
sg24
S'R'
sbsg37
(irule
FeatureMatrix
p1590
(dp1591
g28
(lp1592
(I01
g759
tp1593
asg22
V[ +vowel ]
p1594
sbsg22
V[ +vowel ] ---> [ +high +rounded ] /  _ [ +voice -nasal ] #
p1595
sba(irule
Rule
p1596
(dp1597
g15
(irule
Guard
p1598
(dp1599
g18
I00
sg19
(lp1600
(irule
FeatureMatrix
p1601
(dp1602
g28
(lp1603
(I00
g738
tp1604
asg22
V[ -tense ]
p1605
sbasg21
I00
sg22
g1605
sg23
I00
sg24
S'L'
sbsg25
(irule
FeatureMatrix
p1606
(dp1607
g28
(lp1608
(I01
g693
tp1609
asg22
V[ +high ]
p1610
sbsg33
(irule
Guard
p1611
(dp1612
g18
I01
sg19
(lp1613
(irule
FeatureMatrix
p1614
(dp1615
g28
(lp1616
(I00
g702
tp1617
a(I01
g704
tp1618
asg22
V[ +voice -nasal ]
p1619
sbasg21
I00
sg22
V[ +voice -nasal ] #
p1620
sg23
I00
sg24
S'R'
sbsg37
(irule
FeatureMatrix
p1621
(dp1622
g28
(lp1623
sg22
V[  ]
p1624
sbsg22
V[  ] ---> [ +high ] / [ -tense ] _ [ +voice -nasal ] #
p1625
sba(irule
Rule
p1626
(dp1627
g15
(irule
Guard
p1628
(dp1629
g18
I00
sg19
(lp1630
sg21
I00
sg22
V
sg23
I00
sg24
S'L'
sbsg25
(irule
FeatureMatrix
p1631
(dp1632
g28
(lp1633
(I01
g693
tp1634
a(I00
g1132
tp1635
asg22
V[ +high -sibilant ]
p1636
sbsg33
(irule
Guard
p1637
(dp1638
g18
I01
sg19
(lp1639
(irule
FeatureMatrix
p1640
(dp1641
g28
(lp1642
(I00
g702
tp1643
a(I00
g738
tp1644
a(I01
g704
tp1645
asg22
V[ +voice -nasal -tense ]
p1646
sbasg21
I00
sg22
V[ +voice -nasal -tense ] #
p1647
sg23
I00
sg24
S'R'
sbsg37
(irule
FeatureMatrix
p1648
(dp1649
g28
(lp1650
sg22
V[  ]
p1651
sbsg22
V[  ] ---> [ +high -sibilant ] /  _ [ +voice -nasal -tense ] #
p1652
sba(irule
Rule
p1653
(dp1654
g15
(irule
Guard
p1655
(dp1656
g18
I00
sg19
(lp1657
(irule
FeatureMatrix
p1658
(dp1659
g28
(lp1660
(I00
g759
tp1661
asg22
V[ -vowel ]
p1662
sbasg21
I00
sg22
g1662
sg23
I00
sg24
S'L'
sbsg25
(irule
FeatureMatrix
p1663
(dp1664
g28
(lp1665
(I01
g693
tp1666
asg22
V[ +high ]
p1667
sbsg33
(irule
Guard
p1668
(dp1669
g18
I01
sg19
(lp1670
(irule
FeatureMatrix
p1671
(dp1672
g28
(lp1673
(I00
g702
tp1674
a(I01
g704
tp1675
asg22
V[ +voice -nasal ]
p1676
sbasg21
I00
sg22
V[ +voice -nasal ] #
p1677
sg23
I00
sg24
S'R'
sbsg37
(irule
FeatureMatrix
p1678
(dp1679
g28
(lp1680
sg22
V[  ]
p1681
sbsg22
V[  ] ---> [ +high ] / [ -vowel ] _ [ +voice -nasal ] #
p1682
sba(irule
Rule
p1683
(dp1684
g15
(irule
Guard
p1685
(dp1686
g18
I00
sg19
(lp1687
(irule
FeatureMatrix
p1688
(dp1689
g28
(lp1690
sg22
V[  ]
p1691
sbasg21
I00
sg22
g1691
sg23
I00
sg24
S'L'
sbsg25
(irule
ConstantPhoneme
p1692
(dp1693
S'p'
Vu
sbsg33
(irule
Guard
p1694
(dp1695
g18
I01
sg19
(lp1696
(irule
FeatureMatrix
p1697
(dp1698
g28
(lp1699
(I00
g702
tp1700
a(I00
g738
tp1701
a(I01
g704
tp1702
asg22
V[ +voice -nasal -tense ]
p1703
sbasg21
I00
sg22
V[ +voice -nasal -tense ] #
p1704
sg23
I00
sg24
S'R'
sbsg37
(irule
FeatureMatrix
p1705
(dp1706
g28
(lp1707
sg22
V[  ]
p1708
sbsg22
V[  ] ---> u / [  ] _ [ +voice -nasal -tense ] #
p1709
sba(irule
Rule
p1710
(dp1711
g15
(irule
Guard
p1712
(dp1713
g18
I00
sg19
(lp1714
(irule
FeatureMatrix
p1715
(dp1716
g28
(lp1717
sg22
V[  ]
p1718
sbasg21
I00
sg22
g1718
sg23
I00
sg24
S'L'
sbsg25
(irule
FeatureMatrix
p1719
(dp1720
g28
(lp1721
(I01
g693
tp1722
asg22
V[ +high ]
p1723
sbsg33
(irule
Guard
p1724
(dp1725
g18
I01
sg19
(lp1726
(irule
FeatureMatrix
p1727
(dp1728
g28
(lp1729
(I00
g702
tp1730
a(I01
g704
tp1731
asg22
V[ +voice -nasal ]
p1732
sbasg21
I00
sg22
V[ +voice -nasal ] #
p1733
sg23
I00
sg24
S'R'
sbsg37
(irule
FeatureMatrix
p1734
(dp1735
g28
(lp1736
(I01
g759
tp1737
asg22
V[ +vowel ]
p1738
sbsg22
V[ +vowel ] ---> [ +high ] / [  ] _ [ +voice -nasal ] #
p1739
sba(irule
Rule
p1740
(dp1741
g15
(irule
Guard
p1742
(dp1743
g18
I00
sg19
(lp1744
sg21
I00
sg22
V
sg23
I00
sg24
S'L'
sbsg25
(irule
FeatureMatrix
p1745
(dp1746
g28
(lp1747
(I01
g693
tp1748
a(I01
g738
tp1749
asg22
V[ +high +tense ]
p1750
sbsg33
(irule
Guard
p1751
(dp1752
g18
I01
sg19
(lp1753
(irule
FeatureMatrix
p1754
(dp1755
g28
(lp1756
(I00
g702
tp1757
a(I00
g759
tp1758
a(I01
g704
tp1759
asg22
V[ +voice -nasal -vowel ]
p1760
sbasg21
I00
sg22
V[ +voice -nasal -vowel ] #
p1761
sg23
I00
sg24
S'R'
sbsg37
(irule
FeatureMatrix
p1762
(dp1763
g28
(lp1764
sg22
V[  ]
p1765
sbsg22
V[  ] ---> [ +high +tense ] /  _ [ +voice -nasal -vowel ] #
p1766
sba(irule
Rule
p1767
(dp1768
g15
(irule
Guard
p1769
(dp1770
g18
I00
sg19
(lp1771
sg21
I00
sg22
V
sg23
I00
sg24
S'L'
sbsg25
(irule
FeatureMatrix
p1772
(dp1773
g28
(lp1774
(I01
g693
tp1775
a(I01
g738
tp1776
asg22
V[ +high +tense ]
p1777
sbsg33
(irule
Guard
p1778
(dp1779
g18
I01
sg19
(lp1780
(irule
FeatureMatrix
p1781
(dp1782
g28
(lp1783
(I00
g702
tp1784
a(I01
g704
tp1785
asg22
V[ +voice -nasal ]
p1786
sbasg21
I00
sg22
V[ +voice -nasal ] #
p1787
sg23
I00
sg24
S'R'
sbsg37
(irule
FeatureMatrix
p1788
(dp1789
g28
(lp1790
(I01
g711
tp1791
asg22
V[ +rounded ]
p1792
sbsg22
V[ +rounded ] ---> [ +high +tense ] /  _ [ +voice -nasal ] #
p1793
sba(irule
Rule
p1794
(dp1795
g15
(irule
Guard
p1796
(dp1797
g18
I00
sg19
(lp1798
(irule
FeatureMatrix
p1799
(dp1800
g28
(lp1801
sg22
V[  ]
p1802
sbasg21
I00
sg22
g1802
sg23
I00
sg24
S'L'
sbsg25
(irule
FeatureMatrix
p1803
(dp1804
g28
(lp1805
(I01
g693
tp1806
asg22
V[ +high ]
p1807
sbsg33
(irule
Guard
p1808
(dp1809
g18
I01
sg19
(lp1810
(irule
FeatureMatrix
p1811
(dp1812
g28
(lp1813
(I00
g702
tp1814
a(I01
g704
tp1815
asg22
V[ +voice -nasal ]
p1816
sbasg21
I00
sg22
V[ +voice -nasal ] #
p1817
sg23
I00
sg24
S'R'
sbsg37
(irule
FeatureMatrix
p1818
(dp1819
g28
(lp1820
(I01
g711
tp1821
asg22
V[ +rounded ]
p1822
sbsg22
V[ +rounded ] ---> [ +high ] / [  ] _ [ +voice -nasal ] #
p1823
sba(irule
Rule
p1824
(dp1825
g15
(irule
Guard
p1826
(dp1827
g18
I00
sg19
(lp1828
(irule
FeatureMatrix
p1829
(dp1830
g28
(lp1831
sg22
V[  ]
p1832
sbasg21
I00
sg22
g1832
sg23
I00
sg24
S'L'
sbsg25
(irule
ConstantPhoneme
p1833
(dp1834
S'p'
Vu
sbsg33
(irule
Guard
p1835
(dp1836
g18
I01
sg19
(lp1837
(irule
FeatureMatrix
p1838
(dp1839
g28
(lp1840
(I00
g702
tp1841
a(I00
g759
tp1842
a(I01
g704
tp1843
asg22
V[ +voice -nasal -vowel ]
p1844
sbasg21
I00
sg22
V[ +voice -nasal -vowel ] #
p1845
sg23
I00
sg24
S'R'
sbsg37
(irule
FeatureMatrix
p1846
(dp1847
g28
(lp1848
sg22
V[  ]
p1849
sbsg22
V[  ] ---> u / [  ] _ [ +voice -nasal -vowel ] #
p1850
sba(irule
Rule
p1851
(dp1852
g15
(irule
Guard
p1853
(dp1854
g18
I00
sg19
(lp1855
sg21
I00
sg22
V
sg23
I00
sg24
S'L'
sbsg25
(irule
FeatureMatrix
p1856
(dp1857
g28
(lp1858
(I00
g1417
tp1859
a(I01
g693
tp1860
asg22
V[ +high -anterior ]
p1861
sbsg33
(irule
Guard
p1862
(dp1863
g18
I01
sg19
(lp1864
(irule
FeatureMatrix
p1865
(dp1866
g28
(lp1867
(I00
g702
tp1868
a(I00
g738
tp1869
a(I01
g704
tp1870
asg22
V[ +voice -nasal -tense ]
p1871
sbasg21
I00
sg22
V[ +voice -nasal -tense ] #
p1872
sg23
I00
sg24
S'R'
sbsg37
(irule
FeatureMatrix
p1873
(dp1874
g28
(lp1875
sg22
V[  ]
p1876
sbsg22
V[  ] ---> [ +high -anterior ] /  _ [ +voice -nasal -tense ] #
p1877
sba(irule
Rule
p1878
(dp1879
g15
(irule
Guard
p1880
(dp1881
g18
I00
sg19
(lp1882
sg21
I00
sg22
V
sg23
I00
sg24
S'L'
sbsg25
(irule
FeatureMatrix
p1883
(dp1884
g28
(lp1885
(I01
g693
tp1886
a(I01
g704
tp1887
asg22
V[ +high +voice ]
p1888
sbsg33
(irule
Guard
p1889
(dp1890
g18
I01
sg19
(lp1891
(irule
FeatureMatrix
p1892
(dp1893
g28
(lp1894
(I00
g702
tp1895
a(I00
g738
tp1896
a(I01
g704
tp1897
asg22
V[ +voice -nasal -tense ]
p1898
sbasg21
I00
sg22
V[ +voice -nasal -tense ] #
p1899
sg23
I00
sg24
S'R'
sbsg37
(irule
FeatureMatrix
p1900
(dp1901
g28
(lp1902
sg22
V[  ]
p1903
sbsg22
V[  ] ---> [ +high +voice ] /  _ [ +voice -nasal -tense ] #
p1904
sba(irule
Rule
p1905
(dp1906
g15
(irule
Guard
p1907
(dp1908
g18
I00
sg19
(lp1909
(irule
FeatureMatrix
p1910
(dp1911
g28
(lp1912
(I00
g738
tp1913
asg22
V[ -tense ]
p1914
sbasg21
I00
sg22
g1914
sg23
I00
sg24
S'L'
sbsg25
(irule
ConstantPhoneme
p1915
(dp1916
S'p'
Vu
sbsg33
(irule
Guard
p1917
(dp1918
g18
I01
sg19
(lp1919
(irule
FeatureMatrix
p1920
(dp1921
g28
(lp1922
(I00
g702
tp1923
a(I01
g704
tp1924
asg22
V[ +voice -nasal ]
p1925
sbasg21
I00
sg22
V[ +voice -nasal ] #
p1926
sg23
I00
sg24
S'R'
sbsg37
(irule
FeatureMatrix
p1927
(dp1928
g28
(lp1929
sg22
V[  ]
p1930
sbsg22
V[  ] ---> u / [ -tense ] _ [ +voice -nasal ] #
p1931
sba(irule
Rule
p1932
(dp1933
g15
(irule
Guard
p1934
(dp1935
g18
I00
sg19
(lp1936
sg21
I00
sg22
V
sg23
I00
sg24
S'L'
sbsg25
(irule
FeatureMatrix
p1937
(dp1938
g28
(lp1939
(I01
g693
tp1940
asg22
V[ +high ]
p1941
sbsg33
(irule
Guard
p1942
(dp1943
g18
I01
sg19
(lp1944
(irule
FeatureMatrix
p1945
(dp1946
g28
(lp1947
(I00
g702
tp1948
a(I01
g704
tp1949
asg22
V[ +voice -nasal ]
p1950
sbasg21
I00
sg22
V[ +voice -nasal ] #
p1951
sg23
I00
sg24
S'R'
sbsg37
(irule
FeatureMatrix
p1952
(dp1953
g28
(lp1954
(I00
S'liquid'
tp1955
a(I01
g738
tp1956
asg22
V[ +tense -liquid ]
p1957
sbsg22
V[ +tense -liquid ] ---> [ +high ] /  _ [ +voice -nasal ] #
p1958
sba(irule
Rule
p1959
(dp1960
g15
(irule
Guard
p1961
(dp1962
g18
I00
sg19
(lp1963
sg21
I00
sg22
V
sg23
I00
sg24
S'L'
sbsg25
(irule
FeatureMatrix
p1964
(dp1965
g28
(lp1966
(I01
g693
tp1967
a(I00
g1132
tp1968
asg22
V[ +high -sibilant ]
p1969
sbsg33
(irule
Guard
p1970
(dp1971
g18
I01
sg19
(lp1972
(irule
FeatureMatrix
p1973
(dp1974
g28
(lp1975
(I00
g702
tp1976
a(I01
g704
tp1977
asg22
V[ +voice -nasal ]
p1978
sbasg21
I00
sg22
V[ +voice -nasal ] #
p1979
sg23
I00
sg24
S'R'
sbsg37
(irule
ConstantPhoneme
p1980
(dp1981
S'p'
Vo
sbsg22
Vo ---> [ +high -sibilant ] /  _ [ +voice -nasal ] #
p1982
sba(irule
Rule
p1983
(dp1984
g15
(irule
Guard
p1985
(dp1986
g18
I00
sg19
(lp1987
(irule
FeatureMatrix
p1988
(dp1989
g28
(lp1990
(I00
g841
tp1991
asg22
V[ -back ]
p1992
sbasg21
I00
sg22
g1992
sg23
I00
sg24
S'L'
sbsg25
(irule
ConstantPhoneme
p1993
(dp1994
S'p'
Vu
sbsg33
(irule
Guard
p1995
(dp1996
g18
I01
sg19
(lp1997
(irule
FeatureMatrix
p1998
(dp1999
g28
(lp2000
(I00
g702
tp2001
a(I01
g704
tp2002
asg22
V[ +voice -nasal ]
p2003
sbasg21
I00
sg22
V[ +voice -nasal ] #
p2004
sg23
I00
sg24
S'R'
sbsg37
(irule
FeatureMatrix
p2005
(dp2006
g28
(lp2007
sg22
V[  ]
p2008
sbsg22
V[  ] ---> u / [ -back ] _ [ +voice -nasal ] #
p2009
sba(irule
Rule
p2010
(dp2011
g15
(irule
Guard
p2012
(dp2013
g18
I00
sg19
(lp2014
(irule
FeatureMatrix
p2015
(dp2016
g28
(lp2017
sg22
V[  ]
p2018
sbasg21
I00
sg22
g2018
sg23
I00
sg24
S'L'
sbsg25
(irule
FeatureMatrix
p2019
(dp2020
g28
(lp2021
(I01
g693
tp2022
asg22
V[ +high ]
p2023
sbsg33
(irule
Guard
p2024
(dp2025
g18
I01
sg19
(lp2026
(irule
FeatureMatrix
p2027
(dp2028
g28
(lp2029
(I00
g702
tp2030
a(I01
g704
tp2031
asg22
V[ +voice -nasal ]
p2032
sbasg21
I00
sg22
V[ +voice -nasal ] #
p2033
sg23
I00
sg24
S'R'
sbsg37
(irule
FeatureMatrix
p2034
(dp2035
g28
(lp2036
(I01
g841
tp2037
asg22
V[ +back ]
p2038
sbsg22
V[ +back ] ---> [ +high ] / [  ] _ [ +voice -nasal ] #
p2039
sba(irule
Rule
p2040
(dp2041
g15
(irule
Guard
p2042
(dp2043
g18
I00
sg19
(lp2044
(irule
FeatureMatrix
p2045
(dp2046
g28
(lp2047
sg22
V[  ]
p2048
sbasg21
I00
sg22
g2048
sg23
I00
sg24
S'L'
sbsg25
(irule
FeatureMatrix
p2049
(dp2050
g28
(lp2051
(I01
g693
tp2052
asg22
V[ +high ]
p2053
sbsg33
(irule
Guard
p2054
(dp2055
g18
I01
sg19
(lp2056
(irule
FeatureMatrix
p2057
(dp2058
g28
(lp2059
(I00
g702
tp2060
a(I01
g704
tp2061
asg22
V[ +voice -nasal ]
p2062
sbasg21
I00
sg22
V[ +voice -nasal ] #
p2063
sg23
I00
sg24
S'R'
sbsg37
(irule
ConstantPhoneme
p2064
(dp2065
S'p'
Vo
sbsg22
Vo ---> [ +high ] / [  ] _ [ +voice -nasal ] #
p2066
sba(irule
Rule
p2067
(dp2068
g15
(irule
Guard
p2069
(dp2070
g18
I00
sg19
(lp2071
sg21
I00
sg22
V
sg23
I00
sg24
S'L'
sbsg25
(irule
FeatureMatrix
p2072
(dp2073
g28
(lp2074
(I01
g693
tp2075
a(I00
S'coronal'
p2076
tp2077
asg22
V[ +high -coronal ]
p2078
sbsg33
(irule
Guard
p2079
(dp2080
g18
I01
sg19
(lp2081
(irule
FeatureMatrix
p2082
(dp2083
g28
(lp2084
(I00
g702
tp2085
a(I01
g704
tp2086
asg22
V[ +voice -nasal ]
p2087
sbasg21
I00
sg22
V[ +voice -nasal ] #
p2088
sg23
I00
sg24
S'R'
sbsg37
(irule
ConstantPhoneme
p2089
(dp2090
S'p'
Vo
sbsg22
Vo ---> [ +high -coronal ] /  _ [ +voice -nasal ] #
p2091
sba(irule
Rule
p2092
(dp2093
g15
(irule
Guard
p2094
(dp2095
g18
I00
sg19
(lp2096
sg21
I00
sg22
V
sg23
I00
sg24
S'L'
sbsg25
(irule
FeatureMatrix
p2097
(dp2098
g28
(lp2099
(I01
g693
tp2100
a(I00
g2076
tp2101
asg22
V[ +high -coronal ]
p2102
sbsg33
(irule
Guard
p2103
(dp2104
g18
I01
sg19
(lp2105
(irule
FeatureMatrix
p2106
(dp2107
g28
(lp2108
(I00
g702
tp2109
a(I00
g738
tp2110
a(I01
g704
tp2111
asg22
V[ +voice -nasal -tense ]
p2112
sbasg21
I00
sg22
V[ +voice -nasal -tense ] #
p2113
sg23
I00
sg24
S'R'
sbsg37
(irule
FeatureMatrix
p2114
(dp2115
g28
(lp2116
sg22
V[  ]
p2117
sbsg22
V[  ] ---> [ +high -coronal ] /  _ [ +voice -nasal -tense ] #
p2118
sba(irule
Rule
p2119
(dp2120
g15
(irule
Guard
p2121
(dp2122
g18
I00
sg19
(lp2123
sg21
I00
sg22
V
sg23
I00
sg24
S'L'
sbsg25
(irule
FeatureMatrix
p2124
(dp2125
g28
(lp2126
(I01
g693
tp2127
asg22
V[ +high ]
p2128
sbsg33
(irule
Guard
p2129
(dp2130
g18
I01
sg19
(lp2131
(irule
FeatureMatrix
p2132
(dp2133
g28
(lp2134
(I00
g702
tp2135
a(I00
g738
tp2136
a(I01
g704
tp2137
asg22
V[ +voice -nasal -tense ]
p2138
sbasg21
I00
sg22
V[ +voice -nasal -tense ] #
p2139
sg23
I00
sg24
S'R'
sbsg37
(irule
ConstantPhoneme
p2140
(dp2141
S'p'
Vo
sbsg22
Vo ---> [ +high ] /  _ [ +voice -nasal -tense ] #
p2142
sba(irule
Rule
p2143
(dp2144
g15
(irule
Guard
p2145
(dp2146
g18
I00
sg19
(lp2147
sg21
I00
sg22
V
sg23
I00
sg24
S'L'
sbsg25
(irule
FeatureMatrix
p2148
(dp2149
g28
(lp2150
(I01
g693
tp2151
asg22
V[ +high ]
p2152
sbsg33
(irule
Guard
p2153
(dp2154
g18
I01
sg19
(lp2155
(irule
FeatureMatrix
p2156
(dp2157
g28
(lp2158
(I00
g711
tp2159
a(I00
g702
tp2160
a(I01
g704
tp2161
asg22
V[ +voice -nasal -rounded ]
p2162
sbasg21
I00
sg22
V[ +voice -nasal -rounded ] #
p2163
sg23
I00
sg24
S'R'
sbsg37
(irule
ConstantPhoneme
p2164
(dp2165
S'p'
Vo
sbsg22
Vo ---> [ +high ] /  _ [ +voice -nasal -rounded ] #
p2166
sba(irule
Rule
p2167
(dp2168
g15
(irule
Guard
p2169
(dp2170
g18
I00
sg19
(lp2171
sg21
I00
sg22
V
sg23
I00
sg24
S'L'
sbsg25
(irule
FeatureMatrix
p2172
(dp2173
g28
(lp2174
(I01
g693
tp2175
asg22
V[ +high ]
p2176
sbsg33
(irule
Guard
p2177
(dp2178
g18
I01
sg19
(lp2179
(irule
FeatureMatrix
p2180
(dp2181
g28
(lp2182
(I00
g702
tp2183
a(I00
g738
tp2184
a(I01
g704
tp2185
asg22
V[ +voice -nasal -tense ]
p2186
sbasg21
I00
sg22
V[ +voice -nasal -tense ] #
p2187
sg23
I00
sg24
S'R'
sbsg37
(irule
FeatureMatrix
p2188
(dp2189
g28
(lp2190
(I00
g693
tp2191
asg22
V[ -high ]
p2192
sbsg22
V[ -high ] ---> [ +high ] /  _ [ +voice -nasal -tense ] #
p2193
sba(irule
Rule
p2194
(dp2195
g15
(irule
Guard
p2196
(dp2197
g18
I00
sg19
(lp2198
sg21
I00
sg22
V
sg23
I00
sg24
S'L'
sbsg25
(irule
ConstantPhoneme
p2199
(dp2200
S'p'
Vu
sbsg33
(irule
Guard
p2201
(dp2202
g18
I01
sg19
(lp2203
(irule
FeatureMatrix
p2204
(dp2205
g28
(lp2206
(I00
g702
tp2207
a(I00
g738
tp2208
a(I01
g704
tp2209
asg22
V[ +voice -nasal -tense ]
p2210
sbasg21
I00
sg22
V[ +voice -nasal -tense ] #
p2211
sg23
I00
sg24
S'R'
sbsg37
(irule
FeatureMatrix
p2212
(dp2213
g28
(lp2214
(I01
g711
tp2215
asg22
V[ +rounded ]
p2216
sbsg22
V[ +rounded ] ---> u /  _ [ +voice -nasal -tense ] #
p2217
sba(irule
Rule
p2218
(dp2219
g15
(irule
Guard
p2220
(dp2221
g18
I00
sg19
(lp2222
sg21
I00
sg22
V
sg23
I00
sg24
S'L'
sbsg25
(irule
FeatureMatrix
p2223
(dp2224
g28
(lp2225
(I01
g693
tp2226
a(I01
g704
tp2227
asg22
V[ +high +voice ]
p2228
sbsg33
(irule
Guard
p2229
(dp2230
g18
I01
sg19
(lp2231
(irule
FeatureMatrix
p2232
(dp2233
g28
(lp2234
(I00
g702
tp2235
a(I01
g704
tp2236
asg22
V[ +voice -nasal ]
p2237
sbasg21
I00
sg22
V[ +voice -nasal ] #
p2238
sg23
I00
sg24
S'R'
sbsg37
(irule
FeatureMatrix
p2239
(dp2240
g28
(lp2241
(I01
g711
tp2242
asg22
V[ +rounded ]
p2243
sbsg22
V[ +rounded ] ---> [ +high +voice ] /  _ [ +voice -nasal ] #
p2244
sba(irule
Rule
p2245
(dp2246
g15
(irule
Guard
p2247
(dp2248
g18
I00
sg19
(lp2249
sg21
I00
sg22
V
sg23
I00
sg24
S'L'
sbsg25
(irule
FeatureMatrix
p2250
(dp2251
g28
(lp2252
(I01
g693
tp2253
a(I01
g738
tp2254
asg22
V[ +high +tense ]
p2255
sbsg33
(irule
Guard
p2256
(dp2257
g18
I01
sg19
(lp2258
(irule
FeatureMatrix
p2259
(dp2260
g28
(lp2261
(I00
g702
tp2262
a(I00
g738
tp2263
a(I01
g704
tp2264
asg22
V[ +voice -nasal -tense ]
p2265
sbasg21
I00
sg22
V[ +voice -nasal -tense ] #
p2266
sg23
I00
sg24
S'R'
sbsg37
(irule
FeatureMatrix
p2267
(dp2268
g28
(lp2269
sg22
V[  ]
p2270
sbsg22
V[  ] ---> [ +high +tense ] /  _ [ +voice -nasal -tense ] #
p2271
sba(irule
Rule
p2272
(dp2273
g15
(irule
Guard
p2274
(dp2275
g18
I00
sg19
(lp2276
sg21
I00
sg22
V
sg23
I00
sg24
S'L'
sbsg25
(irule
FeatureMatrix
p2277
(dp2278
g28
(lp2279
(I01
g693
tp2280
asg22
V[ +high ]
p2281
sbsg33
(irule
Guard
p2282
(dp2283
g18
I01
sg19
(lp2284
(irule
FeatureMatrix
p2285
(dp2286
g28
(lp2287
(I00
g711
tp2288
a(I00
g702
tp2289
a(I01
g704
tp2290
asg22
V[ +voice -nasal -rounded ]
p2291
sbasg21
I00
sg22
V[ +voice -nasal -rounded ] #
p2292
sg23
I00
sg24
S'R'
sbsg37
(irule
FeatureMatrix
p2293
(dp2294
g28
(lp2295
(I01
g738
tp2296
asg22
V[ +tense ]
p2297
sbsg22
V[ +tense ] ---> [ +high ] /  _ [ +voice -nasal -rounded ] #
p2298
sba(irule
Rule
p2299
(dp2300
g15
(irule
Guard
p2301
(dp2302
g18
I00
sg19
(lp2303
(irule
FeatureMatrix
p2304
(dp2305
g28
(lp2306
sg22
V[  ]
p2307
sbasg21
I00
sg22
g2307
sg23
I00
sg24
S'L'
sbsg25
(irule
ConstantPhoneme
p2308
(dp2309
S'p'
Vu
sbsg33
(irule
Guard
p2310
(dp2311
g18
I01
sg19
(lp2312
(irule
FeatureMatrix
p2313
(dp2314
g28
(lp2315
(I00
g702
tp2316
a(I01
g704
tp2317
asg22
V[ +voice -nasal ]
p2318
sbasg21
I00
sg22
V[ +voice -nasal ] #
p2319
sg23
I00
sg24
S'R'
sbsg37
(irule
ConstantPhoneme
p2320
(dp2321
S'p'
Vo
sbsg22
Vo ---> u / [  ] _ [ +voice -nasal ] #
p2322
sba(irule
Rule
p2323
(dp2324
g15
(irule
Guard
p2325
(dp2326
g18
I00
sg19
(lp2327
sg21
I00
sg22
V
sg23
I00
sg24
S'L'
sbsg25
(irule
FeatureMatrix
p2328
(dp2329
g28
(lp2330
(I01
g693
tp2331
asg22
V[ +high ]
p2332
sbsg33
(irule
Guard
p2333
(dp2334
g18
I01
sg19
(lp2335
(irule
FeatureMatrix
p2336
(dp2337
g28
(lp2338
(I00
g702
tp2339
a(I00
g759
tp2340
a(I01
g704
tp2341
asg22
V[ +voice -nasal -vowel ]
p2342
sbasg21
I00
sg22
V[ +voice -nasal -vowel ] #
p2343
sg23
I00
sg24
S'R'
sbsg37
(irule
FeatureMatrix
p2344
(dp2345
g28
(lp2346
(I00
g693
tp2347
asg22
V[ -high ]
p2348
sbsg22
V[ -high ] ---> [ +high ] /  _ [ +voice -nasal -vowel ] #
p2349
sba(irule
Rule
p2350
(dp2351
g15
(irule
Guard
p2352
(dp2353
g18
I00
sg19
(lp2354
sg21
I00
sg22
V
sg23
I00
sg24
S'L'
sbsg25
(irule
FeatureMatrix
p2355
(dp2356
g28
(lp2357
(I01
g693
tp2358
asg22
V[ +high ]
p2359
sbsg33
(irule
Guard
p2360
(dp2361
g18
I01
sg19
(lp2362
(irule
FeatureMatrix
p2363
(dp2364
g28
(lp2365
(I00
g702
tp2366
a(I00
g738
tp2367
a(I01
g704
tp2368
asg22
V[ +voice -nasal -tense ]
p2369
sbasg21
I00
sg22
V[ +voice -nasal -tense ] #
p2370
sg23
I00
sg24
S'R'
sbsg37
(irule
FeatureMatrix
p2371
(dp2372
g28
(lp2373
(I01
g841
tp2374
asg22
V[ +back ]
p2375
sbsg22
V[ +back ] ---> [ +high ] /  _ [ +voice -nasal -tense ] #
p2376
sba(irule
Rule
p2377
(dp2378
g15
(irule
Guard
p2379
(dp2380
g18
I00
sg19
(lp2381
(irule
FeatureMatrix
p2382
(dp2383
g28
(lp2384
(I00
g711
tp2385
asg22
V[ -rounded ]
p2386
sbasg21
I00
sg22
g2386
sg23
I00
sg24
S'L'
sbsg25
(irule
ConstantPhoneme
p2387
(dp2388
S'p'
Vu
sbsg33
(irule
Guard
p2389
(dp2390
g18
I01
sg19
(lp2391
(irule
FeatureMatrix
p2392
(dp2393
g28
(lp2394
(I00
g702
tp2395
a(I01
g704
tp2396
asg22
V[ +voice -nasal ]
p2397
sbasg21
I00
sg22
V[ +voice -nasal ] #
p2398
sg23
I00
sg24
S'R'
sbsg37
(irule
FeatureMatrix
p2399
(dp2400
g28
(lp2401
sg22
V[  ]
p2402
sbsg22
V[  ] ---> u / [ -rounded ] _ [ +voice -nasal ] #
p2403
sba(irule
Rule
p2404
(dp2405
g15
(irule
Guard
p2406
(dp2407
g18
I00
sg19
(lp2408
sg21
I00
sg22
V
sg23
I00
sg24
S'L'
sbsg25
(irule
FeatureMatrix
p2409
(dp2410
g28
(lp2411
(I01
g693
tp2412
asg22
V[ +high ]
p2413
sbsg33
(irule
Guard
p2414
(dp2415
g18
I01
sg19
(lp2416
(irule
FeatureMatrix
p2417
(dp2418
g28
(lp2419
(I00
g702
tp2420
a(I01
g704
tp2421
asg22
V[ +voice -nasal ]
p2422
sbasg21
I00
sg22
V[ +voice -nasal ] #
p2423
sg23
I00
sg24
S'R'
sbsg37
(irule
FeatureMatrix
p2424
(dp2425
g28
(lp2426
(I01
g841
tp2427
a(I00
g1119
tp2428
asg22
V[ +back -palletized ]
p2429
sbsg22
V[ +back -palletized ] ---> [ +high ] /  _ [ +voice -nasal ] #
p2430
sba(irule
Rule
p2431
(dp2432
g15
(irule
Guard
p2433
(dp2434
g18
I00
sg19
(lp2435
sg21
I00
sg22
V
sg23
I00
sg24
S'L'
sbsg25
(irule
FeatureMatrix
p2436
(dp2437
g28
(lp2438
(I01
g693
tp2439
a(I00
g1132
tp2440
asg22
V[ +high -sibilant ]
p2441
sbsg33
(irule
Guard
p2442
(dp2443
g18
I01
sg19
(lp2444
(irule
FeatureMatrix
p2445
(dp2446
g28
(lp2447
(I00
g702
tp2448
a(I01
g704
tp2449
asg22
V[ +voice -nasal ]
p2450
sbasg21
I00
sg22
V[ +voice -nasal ] #
p2451
sg23
I00
sg24
S'R'
sbsg37
(irule
FeatureMatrix
p2452
(dp2453
g28
(lp2454
(I01
g841
tp2455
asg22
V[ +back ]
p2456
sbsg22
V[ +back ] ---> [ +high -sibilant ] /  _ [ +voice -nasal ] #
p2457
sba(irule
Rule
p2458
(dp2459
g15
(irule
Guard
p2460
(dp2461
g18
I00
sg19
(lp2462
(irule
FeatureMatrix
p2463
(dp2464
g28
(lp2465
(I00
g759
tp2466
asg22
V[ -vowel ]
p2467
sbasg21
I00
sg22
g2467
sg23
I00
sg24
S'L'
sbsg25
(irule
ConstantPhoneme
p2468
(dp2469
S'p'
Vu
sbsg33
(irule
Guard
p2470
(dp2471
g18
I01
sg19
(lp2472
(irule
FeatureMatrix
p2473
(dp2474
g28
(lp2475
(I00
g702
tp2476
a(I01
g704
tp2477
asg22
V[ +voice -nasal ]
p2478
sbasg21
I00
sg22
V[ +voice -nasal ] #
p2479
sg23
I00
sg24
S'R'
sbsg37
(irule
FeatureMatrix
p2480
(dp2481
g28
(lp2482
sg22
V[  ]
p2483
sbsg22
V[  ] ---> u / [ -vowel ] _ [ +voice -nasal ] #
p2484
sba(irule
Rule
p2485
(dp2486
g15
(irule
Guard
p2487
(dp2488
g18
I00
sg19
(lp2489
sg21
I00
sg22
V
sg23
I00
sg24
S'L'
sbsg25
(irule
FeatureMatrix
p2490
(dp2491
g28
(lp2492
(I01
g693
tp2493
asg22
V[ +high ]
p2494
sbsg33
(irule
Guard
p2495
(dp2496
g18
I01
sg19
(lp2497
(irule
FeatureMatrix
p2498
(dp2499
g28
(lp2500
(I00
g702
tp2501
a(I01
g704
tp2502
asg22
V[ +voice -nasal ]
p2503
sbasg21
I00
sg22
V[ +voice -nasal ] #
p2504
sg23
I00
sg24
S'R'
sbsg37
(irule
FeatureMatrix
p2505
(dp2506
g28
(lp2507
(I01
g841
tp2508
a(I01
S'sonorant'
p2509
tp2510
asg22
V[ +back +sonorant ]
p2511
sbsg22
V[ +back +sonorant ] ---> [ +high ] /  _ [ +voice -nasal ] #
p2512
sba(irule
Rule
p2513
(dp2514
g15
(irule
Guard
p2515
(dp2516
g18
I00
sg19
(lp2517
sg21
I00
sg22
V
sg23
I00
sg24
S'L'
sbsg25
(irule
FeatureMatrix
p2518
(dp2519
g28
(lp2520
(I01
g693
tp2521
asg22
V[ +high ]
p2522
sbsg33
(irule
Guard
p2523
(dp2524
g18
I01
sg19
(lp2525
(irule
FeatureMatrix
p2526
(dp2527
g28
(lp2528
(I00
g702
tp2529
a(I01
g704
tp2530
asg22
V[ +voice -nasal ]
p2531
sbasg21
I00
sg22
V[ +voice -nasal ] #
p2532
sg23
I00
sg24
S'R'
sbsg37
(irule
FeatureMatrix
p2533
(dp2534
g28
(lp2535
(I00
g1132
tp2536
a(I01
g759
tp2537
asg22
V[ +vowel -sibilant ]
p2538
sbsg22
V[ +vowel -sibilant ] ---> [ +high ] /  _ [ +voice -nasal ] #
p2539
sba(irule
Rule
p2540
(dp2541
g15
(irule
Guard
p2542
(dp2543
g18
I00
sg19
(lp2544
sg21
I00
sg22
V
sg23
I00
sg24
S'L'
sbsg25
(irule
FeatureMatrix
p2545
(dp2546
g28
(lp2547
(I01
g693
tp2548
asg22
V[ +high ]
p2549
sbsg33
(irule
Guard
p2550
(dp2551
g18
I01
sg19
(lp2552
(irule
FeatureMatrix
p2553
(dp2554
g28
(lp2555
(I00
g702
tp2556
a(I00
g738
tp2557
a(I01
g704
tp2558
asg22
V[ +voice -nasal -tense ]
p2559
sbasg21
I00
sg22
V[ +voice -nasal -tense ] #
p2560
sg23
I00
sg24
S'R'
sbsg37
(irule
FeatureMatrix
p2561
(dp2562
g28
(lp2563
(I00
g1132
tp2564
asg22
V[ -sibilant ]
p2565
sbsg22
V[ -sibilant ] ---> [ +high ] /  _ [ +voice -nasal -tense ] #
p2566
sba(irule
Rule
p2567
(dp2568
g15
(irule
Guard
p2569
(dp2570
g18
I00
sg19
(lp2571
sg21
I00
sg22
V
sg23
I00
sg24
S'L'
sbsg25
(irule
FeatureMatrix
p2572
(dp2573
g28
(lp2574
(I01
g693
tp2575
asg22
V[ +high ]
p2576
sbsg33
(irule
Guard
p2577
(dp2578
g18
I01
sg19
(lp2579
(irule
FeatureMatrix
p2580
(dp2581
g28
(lp2582
(I00
g702
tp2583
a(I01
g704
tp2584
asg22
V[ +voice -nasal ]
p2585
sbasg21
I00
sg22
V[ +voice -nasal ] #
p2586
sg23
I00
sg24
S'R'
sbsg37
(irule
FeatureMatrix
p2587
(dp2588
g28
(lp2589
(I01
g711
tp2590
a(I00
g702
tp2591
asg22
V[ +rounded -nasal ]
p2592
sbsg22
V[ +rounded -nasal ] ---> [ +high ] /  _ [ +voice -nasal ] #
p2593
sba(irule
Rule
p2594
(dp2595
g15
(irule
Guard
p2596
(dp2597
g18
I00
sg19
(lp2598
sg21
I00
sg22
V
sg23
I00
sg24
S'L'
sbsg25
(irule
FeatureMatrix
p2599
(dp2600
g28
(lp2601
(I00
g702
tp2602
a(I01
g693
tp2603
asg22
V[ +high -nasal ]
p2604
sbsg33
(irule
Guard
p2605
(dp2606
g18
I01
sg19
(lp2607
(irule
FeatureMatrix
p2608
(dp2609
g28
(lp2610
(I00
g702
tp2611
a(I00
g738
tp2612
a(I01
g704
tp2613
asg22
V[ +voice -nasal -tense ]
p2614
sbasg21
I00
sg22
V[ +voice -nasal -tense ] #
p2615
sg23
I00
sg24
S'R'
sbsg37
(irule
FeatureMatrix
p2616
(dp2617
g28
(lp2618
sg22
V[  ]
p2619
sbsg22
V[  ] ---> [ +high -nasal ] /  _ [ +voice -nasal -tense ] #
p2620
sba(irule
Rule
p2621
(dp2622
g15
(irule
Guard
p2623
(dp2624
g18
I00
sg19
(lp2625
sg21
I00
sg22
V
sg23
I00
sg24
S'L'
sbsg25
(irule
ConstantPhoneme
p2626
(dp2627
S'p'
Vu
sbsg33
(irule
Guard
p2628
(dp2629
g18
I01
sg19
(lp2630
(irule
FeatureMatrix
p2631
(dp2632
g28
(lp2633
(I00
g702
tp2634
a(I00
g759
tp2635
a(I01
g704
tp2636
asg22
V[ +voice -nasal -vowel ]
p2637
sbasg21
I00
sg22
V[ +voice -nasal -vowel ] #
p2638
sg23
I00
sg24
S'R'
sbsg37
(irule
FeatureMatrix
p2639
(dp2640
g28
(lp2641
(I01
g759
tp2642
asg22
V[ +vowel ]
p2643
sbsg22
V[ +vowel ] ---> u /  _ [ +voice -nasal -vowel ] #
p2644
sba(irule
Rule
p2645
(dp2646
g15
(irule
Guard
p2647
(dp2648
g18
I00
sg19
(lp2649
sg21
I00
sg22
V
sg23
I00
sg24
S'L'
sbsg25
(irule
FeatureMatrix
p2650
(dp2651
g28
(lp2652
(I01
g693
tp2653
asg22
V[ +high ]
p2654
sbsg33
(irule
Guard
p2655
(dp2656
g18
I01
sg19
(lp2657
(irule
FeatureMatrix
p2658
(dp2659
g28
(lp2660
(I00
g711
tp2661
a(I00
g702
tp2662
a(I01
g704
tp2663
asg22
V[ +voice -nasal -rounded ]
p2664
sbasg21
I00
sg22
V[ +voice -nasal -rounded ] #
p2665
sg23
I00
sg24
S'R'
sbsg37
(irule
FeatureMatrix
p2666
(dp2667
g28
(lp2668
(I01
g759
tp2669
asg22
V[ +vowel ]
p2670
sbsg22
V[ +vowel ] ---> [ +high ] /  _ [ +voice -nasal -rounded ] #
p2671
sba(irule
Rule
p2672
(dp2673
g15
(irule
Guard
p2674
(dp2675
g18
I00
sg19
(lp2676
sg21
I00
sg22
V
sg23
I00
sg24
S'L'
sbsg25
(irule
FeatureMatrix
p2677
(dp2678
g28
(lp2679
(I01
g693
tp2680
asg22
V[ +high ]
p2681
sbsg33
(irule
Guard
p2682
(dp2683
g18
I01
sg19
(lp2684
(irule
FeatureMatrix
p2685
(dp2686
g28
(lp2687
(I00
g702
tp2688
a(I01
g704
tp2689
asg22
V[ +voice -nasal ]
p2690
sbasg21
I00
sg22
V[ +voice -nasal ] #
p2691
sg23
I00
sg24
S'R'
sbsg37
(irule
FeatureMatrix
p2692
(dp2693
g28
(lp2694
(I00
g1119
tp2695
a(I01
g759
tp2696
asg22
V[ +vowel -palletized ]
p2697
sbsg22
V[ +vowel -palletized ] ---> [ +high ] /  _ [ +voice -nasal ] #
p2698
sba(irule
Rule
p2699
(dp2700
g15
(irule
Guard
p2701
(dp2702
g18
I00
sg19
(lp2703
sg21
I00
sg22
V
sg23
I00
sg24
S'L'
sbsg25
(irule
FeatureMatrix
p2704
(dp2705
g28
(lp2706
(I01
g693
tp2707
a(I01
g759
tp2708
asg22
V[ +high +vowel ]
p2709
sbsg33
(irule
Guard
p2710
(dp2711
g18
I01
sg19
(lp2712
(irule
FeatureMatrix
p2713
(dp2714
g28
(lp2715
(I00
g702
tp2716
a(I01
g704
tp2717
asg22
V[ +voice -nasal ]
p2718
sbasg21
I00
sg22
V[ +voice -nasal ] #
p2719
sg23
I00
sg24
S'R'
sbsg37
(irule
FeatureMatrix
p2720
(dp2721
g28
(lp2722
(I01
g711
tp2723
asg22
V[ +rounded ]
p2724
sbsg22
V[ +rounded ] ---> [ +high +vowel ] /  _ [ +voice -nasal ] #
p2725
sba(irule
Rule
p2726
(dp2727
g15
(irule
Guard
p2728
(dp2729
g18
I00
sg19
(lp2730
(irule
FeatureMatrix
p2731
(dp2732
g28
(lp2733
sg22
V[  ]
p2734
sbasg21
I00
sg22
g2734
sg23
I00
sg24
S'L'
sbsg25
(irule
ConstantPhoneme
p2735
(dp2736
S'p'
Vu
sbsg33
(irule
Guard
p2737
(dp2738
g18
I01
sg19
(lp2739
(irule
FeatureMatrix
p2740
(dp2741
g28
(lp2742
(I00
g702
tp2743
a(I01
g704
tp2744
asg22
V[ +voice -nasal ]
p2745
sbasg21
I00
sg22
V[ +voice -nasal ] #
p2746
sg23
I00
sg24
S'R'
sbsg37
(irule
FeatureMatrix
p2747
(dp2748
g28
(lp2749
(I01
g738
tp2750
asg22
V[ +tense ]
p2751
sbsg22
V[ +tense ] ---> u / [  ] _ [ +voice -nasal ] #
p2752
sba(irule
Rule
p2753
(dp2754
g15
(irule
Guard
p2755
(dp2756
g18
I00
sg19
(lp2757
sg21
I00
sg22
V
sg23
I00
sg24
S'L'
sbsg25
(irule
FeatureMatrix
p2758
(dp2759
g28
(lp2760
(I01
g693
tp2761
a(I00
g1132
tp2762
asg22
V[ +high -sibilant ]
p2763
sbsg33
(irule
Guard
p2764
(dp2765
g18
I01
sg19
(lp2766
(irule
FeatureMatrix
p2767
(dp2768
g28
(lp2769
(I00
g702
tp2770
a(I01
g704
tp2771
asg22
V[ +voice -nasal ]
p2772
sbasg21
I00
sg22
V[ +voice -nasal ] #
p2773
sg23
I00
sg24
S'R'
sbsg37
(irule
FeatureMatrix
p2774
(dp2775
g28
(lp2776
(I01
g711
tp2777
asg22
V[ +rounded ]
p2778
sbsg22
V[ +rounded ] ---> [ +high -sibilant ] /  _ [ +voice -nasal ] #
p2779
sba(irule
Rule
p2780
(dp2781
g15
(irule
Guard
p2782
(dp2783
g18
I00
sg19
(lp2784
(irule
FeatureMatrix
p2785
(dp2786
g28
(lp2787
sg22
V[  ]
p2788
sbasg21
I00
sg22
g2788
sg23
I00
sg24
S'L'
sbsg25
(irule
ConstantPhoneme
p2789
(dp2790
S'p'
Vu
sbsg33
(irule
Guard
p2791
(dp2792
g18
I01
sg19
(lp2793
(irule
FeatureMatrix
p2794
(dp2795
g28
(lp2796
(I00
g702
tp2797
a(I01
g704
tp2798
asg22
V[ +voice -nasal ]
p2799
sbasg21
I00
sg22
V[ +voice -nasal ] #
p2800
sg23
I00
sg24
S'R'
sbsg37
(irule
FeatureMatrix
p2801
(dp2802
g28
(lp2803
(I01
g759
tp2804
asg22
V[ +vowel ]
p2805
sbsg22
V[ +vowel ] ---> u / [  ] _ [ +voice -nasal ] #
p2806
sba(irule
Rule
p2807
(dp2808
g15
(irule
Guard
p2809
(dp2810
g18
I00
sg19
(lp2811
sg21
I00
sg22
V
sg23
I00
sg24
S'L'
sbsg25
(irule
FeatureMatrix
p2812
(dp2813
g28
(lp2814
(I01
g2509
tp2815
a(I01
g693
tp2816
asg22
V[ +high +sonorant ]
p2817
sbsg33
(irule
Guard
p2818
(dp2819
g18
I01
sg19
(lp2820
(irule
FeatureMatrix
p2821
(dp2822
g28
(lp2823
(I00
g702
tp2824
a(I00
g738
tp2825
a(I01
g704
tp2826
asg22
V[ +voice -nasal -tense ]
p2827
sbasg21
I00
sg22
V[ +voice -nasal -tense ] #
p2828
sg23
I00
sg24
S'R'
sbsg37
(irule
FeatureMatrix
p2829
(dp2830
g28
(lp2831
sg22
V[  ]
p2832
sbsg22
V[  ] ---> [ +high +sonorant ] /  _ [ +voice -nasal -tense ] #
p2833
sba(irule
Rule
p2834
(dp2835
g15
(irule
Guard
p2836
(dp2837
g18
I00
sg19
(lp2838
sg21
I00
sg22
V
sg23
I00
sg24
S'L'
sbsg25
(irule
FeatureMatrix
p2839
(dp2840
g28
(lp2841
(I01
g693
tp2842
a(I01
g759
tp2843
asg22
V[ +high +vowel ]
p2844
sbsg33
(irule
Guard
p2845
(dp2846
g18
I01
sg19
(lp2847
(irule
FeatureMatrix
p2848
(dp2849
g28
(lp2850
(I00
g702
tp2851
a(I01
g704
tp2852
asg22
V[ +voice -nasal ]
p2853
sbasg21
I00
sg22
V[ +voice -nasal ] #
p2854
sg23
I00
sg24
S'R'
sbsg37
(irule
FeatureMatrix
p2855
(dp2856
g28
(lp2857
(I01
g738
tp2858
asg22
V[ +tense ]
p2859
sbsg22
V[ +tense ] ---> [ +high +vowel ] /  _ [ +voice -nasal ] #
p2860
sba(irule
Rule
p2861
(dp2862
g15
(irule
Guard
p2863
(dp2864
g18
I00
sg19
(lp2865
sg21
I00
sg22
V
sg23
I00
sg24
S'L'
sbsg25
(irule
FeatureMatrix
p2866
(dp2867
g28
(lp2868
(I01
g693
tp2869
asg22
V[ +high ]
p2870
sbsg33
(irule
Guard
p2871
(dp2872
g18
I01
sg19
(lp2873
(irule
FeatureMatrix
p2874
(dp2875
g28
(lp2876
(I00
g702
tp2877
a(I00
g738
tp2878
a(I01
g704
tp2879
asg22
V[ +voice -nasal -tense ]
p2880
sbasg21
I00
sg22
V[ +voice -nasal -tense ] #
p2881
sg23
I00
sg24
S'R'
sbsg37
(irule
FeatureMatrix
p2882
(dp2883
g28
(lp2884
(I01
g738
tp2885
asg22
V[ +tense ]
p2886
sbsg22
V[ +tense ] ---> [ +high ] /  _ [ +voice -nasal -tense ] #
p2887
sba(irule
Rule
p2888
(dp2889
g15
(irule
Guard
p2890
(dp2891
g18
I00
sg19
(lp2892
sg21
I00
sg22
V
sg23
I00
sg24
S'L'
sbsg25
(irule
FeatureMatrix
p2893
(dp2894
g28
(lp2895
(I01
g693
tp2896
a(I00
g2076
tp2897
asg22
V[ +high -coronal ]
p2898
sbsg33
(irule
Guard
p2899
(dp2900
g18
I01
sg19
(lp2901
(irule
FeatureMatrix
p2902
(dp2903
g28
(lp2904
(I00
g702
tp2905
a(I00
g759
tp2906
a(I01
g704
tp2907
asg22
V[ +voice -nasal -vowel ]
p2908
sbasg21
I00
sg22
V[ +voice -nasal -vowel ] #
p2909
sg23
I00
sg24
S'R'
sbsg37
(irule
FeatureMatrix
p2910
(dp2911
g28
(lp2912
sg22
V[  ]
p2913
sbsg22
V[  ] ---> [ +high -coronal ] /  _ [ +voice -nasal -vowel ] #
p2914
sba(irule
Rule
p2915
(dp2916
g15
(irule
Guard
p2917
(dp2918
g18
I00
sg19
(lp2919
sg21
I00
sg22
V
sg23
I00
sg24
S'L'
sbsg25
(irule
FeatureMatrix
p2920
(dp2921
g28
(lp2922
(I01
g693
tp2923
a(I00
g2076
tp2924
asg22
V[ +high -coronal ]
p2925
sbsg33
(irule
Guard
p2926
(dp2927
g18
I01
sg19
(lp2928
(irule
FeatureMatrix
p2929
(dp2930
g28
(lp2931
(I00
g702
tp2932
a(I01
g704
tp2933
asg22
V[ +voice -nasal ]
p2934
sbasg21
I00
sg22
V[ +voice -nasal ] #
p2935
sg23
I00
sg24
S'R'
sbsg37
(irule
FeatureMatrix
p2936
(dp2937
g28
(lp2938
(I01
g738
tp2939
asg22
V[ +tense ]
p2940
sbsg22
V[ +tense ] ---> [ +high -coronal ] /  _ [ +voice -nasal ] #
p2941
sba(irule
Rule
p2942
(dp2943
g15
(irule
Guard
p2944
(dp2945
g18
I00
sg19
(lp2946
sg21
I00
sg22
V
sg23
I00
sg24
S'L'
sbsg25
(irule
FeatureMatrix
p2947
(dp2948
g28
(lp2949
(I01
g693
tp2950
a(I00
g1132
tp2951
asg22
V[ +high -sibilant ]
p2952
sbsg33
(irule
Guard
p2953
(dp2954
g18
I01
sg19
(lp2955
(irule
FeatureMatrix
p2956
(dp2957
g28
(lp2958
(I00
g702
tp2959
a(I00
g759
tp2960
a(I01
g704
tp2961
asg22
V[ +voice -nasal -vowel ]
p2962
sbasg21
I00
sg22
V[ +voice -nasal -vowel ] #
p2963
sg23
I00
sg24
S'R'
sbsg37
(irule
FeatureMatrix
p2964
(dp2965
g28
(lp2966
sg22
V[  ]
p2967
sbsg22
V[  ] ---> [ +high -sibilant ] /  _ [ +voice -nasal -vowel ] #
p2968
sba(irule
Rule
p2969
(dp2970
g15
(irule
Guard
p2971
(dp2972
g18
I00
sg19
(lp2973
sg21
I00
sg22
V
sg23
I00
sg24
S'L'
sbsg25
(irule
FeatureMatrix
p2974
(dp2975
g28
(lp2976
(I01
g693
tp2977
asg22
V[ +high ]
p2978
sbsg33
(irule
Guard
p2979
(dp2980
g18
I01
sg19
(lp2981
(irule
FeatureMatrix
p2982
(dp2983
g28
(lp2984
(I00
g702
tp2985
a(I00
g759
tp2986
a(I01
g704
tp2987
asg22
V[ +voice -nasal -vowel ]
p2988
sbasg21
I00
sg22
V[ +voice -nasal -vowel ] #
p2989
sg23
I00
sg24
S'R'
sbsg37
(irule
FeatureMatrix
p2990
(dp2991
g28
(lp2992
(I00
g702
tp2993
asg22
V[ -nasal ]
p2994
sbsg22
V[ -nasal ] ---> [ +high ] /  _ [ +voice -nasal -vowel ] #
p2995
sba(irule
Rule
p2996
(dp2997
g15
(irule
Guard
p2998
(dp2999
g18
I00
sg19
(lp3000
sg21
I00
sg22
V
sg23
I00
sg24
S'L'
sbsg25
(irule
FeatureMatrix
p3001
(dp3002
g28
(lp3003
(I00
g1064
tp3004
a(I01
g693
tp3005
asg22
V[ +high -lateral ]
p3006
sbsg33
(irule
Guard
p3007
(dp3008
g18
I01
sg19
(lp3009
(irule
FeatureMatrix
p3010
(dp3011
g28
(lp3012
(I00
g702
tp3013
a(I00
g738
tp3014
a(I01
g704
tp3015
asg22
V[ +voice -nasal -tense ]
p3016
sbasg21
I00
sg22
V[ +voice -nasal -tense ] #
p3017
sg23
I00
sg24
S'R'
sbsg37
(irule
FeatureMatrix
p3018
(dp3019
g28
(lp3020
sg22
V[  ]
p3021
sbsg22
V[  ] ---> [ +high -lateral ] /  _ [ +voice -nasal -tense ] #
p3022
sba(irule
Rule
p3023
(dp3024
g15
(irule
Guard
p3025
(dp3026
g18
I00
sg19
(lp3027
sg21
I00
sg22
V
sg23
I00
sg24
S'L'
sbsg25
(irule
FeatureMatrix
p3028
(dp3029
g28
(lp3030
(I01
g693
tp3031
asg22
V[ +high ]
p3032
sbsg33
(irule
Guard
p3033
(dp3034
g18
I01
sg19
(lp3035
(irule
FeatureMatrix
p3036
(dp3037
g28
(lp3038
(I00
g702
tp3039
a(I00
g738
tp3040
a(I01
g704
tp3041
asg22
V[ +voice -nasal -tense ]
p3042
sbasg21
I00
sg22
V[ +voice -nasal -tense ] #
p3043
sg23
I00
sg24
S'R'
sbsg37
(irule
FeatureMatrix
p3044
(dp3045
g28
(lp3046
(I00
g2076
tp3047
asg22
V[ -coronal ]
p3048
sbsg22
V[ -coronal ] ---> [ +high ] /  _ [ +voice -nasal -tense ] #
p3049
sba(irule
Rule
p3050
(dp3051
g15
(irule
Guard
p3052
(dp3053
g18
I00
sg19
(lp3054
sg21
I00
sg22
V
sg23
I00
sg24
S'L'
sbsg25
(irule
FeatureMatrix
p3055
(dp3056
g28
(lp3057
(I01
S'continuant'
p3058
tp3059
a(I01
g693
tp3060
asg22
V[ +continuant +high ]
p3061
sbsg33
(irule
Guard
p3062
(dp3063
g18
I01
sg19
(lp3064
(irule
FeatureMatrix
p3065
(dp3066
g28
(lp3067
(I00
g702
tp3068
a(I01
g704
tp3069
asg22
V[ +voice -nasal ]
p3070
sbasg21
I00
sg22
V[ +voice -nasal ] #
p3071
sg23
I00
sg24
S'R'
sbsg37
(irule
FeatureMatrix
p3072
(dp3073
g28
(lp3074
(I01
g711
tp3075
asg22
V[ +rounded ]
p3076
sbsg22
V[ +rounded ] ---> [ +continuant +high ] /  _ [ +voice -nasal ] #
p3077
sba(irule
Rule
p3078
(dp3079
g15
(irule
Guard
p3080
(dp3081
g18
I00
sg19
(lp3082
sg21
I00
sg22
V
sg23
I00
sg24
S'L'
sbsg25
(irule
FeatureMatrix
p3083
(dp3084
g28
(lp3085
(I01
g693
tp3086
a(I01
g759
tp3087
asg22
V[ +high +vowel ]
p3088
sbsg33
(irule
Guard
p3089
(dp3090
g18
I01
sg19
(lp3091
(irule
FeatureMatrix
p3092
(dp3093
g28
(lp3094
(I00
g702
tp3095
a(I00
g738
tp3096
a(I01
g704
tp3097
asg22
V[ +voice -nasal -tense ]
p3098
sbasg21
I00
sg22
V[ +voice -nasal -tense ] #
p3099
sg23
I00
sg24
S'R'
sbsg37
(irule
FeatureMatrix
p3100
(dp3101
g28
(lp3102
sg22
V[  ]
p3103
sbsg22
V[  ] ---> [ +high +vowel ] /  _ [ +voice -nasal -tense ] #
p3104
sba(irule
Rule
p3105
(dp3106
g15
(irule
Guard
p3107
(dp3108
g18
I00
sg19
(lp3109
(irule
FeatureMatrix
p3110
(dp3111
g28
(lp3112
sg22
V[  ]
p3113
sbasg21
I00
sg22
g3113
sg23
I00
sg24
S'L'
sbsg25
(irule
ConstantPhoneme
p3114
(dp3115
S'p'
Vu
sbsg33
(irule
Guard
p3116
(dp3117
g18
I01
sg19
(lp3118
(irule
FeatureMatrix
p3119
(dp3120
g28
(lp3121
(I00
g702
tp3122
a(I01
g704
tp3123
asg22
V[ +voice -nasal ]
p3124
sbasg21
I00
sg22
V[ +voice -nasal ] #
p3125
sg23
I00
sg24
S'R'
sbsg37
(irule
FeatureMatrix
p3126
(dp3127
g28
(lp3128
(I01
g711
tp3129
asg22
V[ +rounded ]
p3130
sbsg22
V[ +rounded ] ---> u / [  ] _ [ +voice -nasal ] #
p3131
sba(irule
Rule
p3132
(dp3133
g15
(irule
Guard
p3134
(dp3135
g18
I00
sg19
(lp3136
sg21
I00
sg22
V
sg23
I00
sg24
S'L'
sbsg25
(irule
FeatureMatrix
p3137
(dp3138
g28
(lp3139
(I01
g693
tp3140
a(I01
g704
tp3141
asg22
V[ +high +voice ]
p3142
sbsg33
(irule
Guard
p3143
(dp3144
g18
I01
sg19
(lp3145
(irule
FeatureMatrix
p3146
(dp3147
g28
(lp3148
(I00
g702
tp3149
a(I00
g759
tp3150
a(I01
g704
tp3151
asg22
V[ +voice -nasal -vowel ]
p3152
sbasg21
I00
sg22
V[ +voice -nasal -vowel ] #
p3153
sg23
I00
sg24
S'R'
sbsg37
(irule
FeatureMatrix
p3154
(dp3155
g28
(lp3156
sg22
V[  ]
p3157
sbsg22
V[  ] ---> [ +high +voice ] /  _ [ +voice -nasal -vowel ] #
p3158
sba(irule
Rule
p3159
(dp3160
g15
(irule
Guard
p3161
(dp3162
g18
I00
sg19
(lp3163
sg21
I00
sg22
V
sg23
I00
sg24
S'L'
sbsg25
(irule
FeatureMatrix
p3164
(dp3165
g28
(lp3166
(I01
g693
tp3167
asg22
V[ +high ]
p3168
sbsg33
(irule
Guard
p3169
(dp3170
g18
I01
sg19
(lp3171
(irule
FeatureMatrix
p3172
(dp3173
g28
(lp3174
(I00
g702
tp3175
a(I00
g759
tp3176
a(I01
g704
tp3177
asg22
V[ +voice -nasal -vowel ]
p3178
sbasg21
I00
sg22
V[ +voice -nasal -vowel ] #
p3179
sg23
I00
sg24
S'R'
sbsg37
(irule
ConstantPhoneme
p3180
(dp3181
S'p'
Vo
sbsg22
Vo ---> [ +high ] /  _ [ +voice -nasal -vowel ] #
p3182
sba(irule
Rule
p3183
(dp3184
g15
(irule
Guard
p3185
(dp3186
g18
I00
sg19
(lp3187
sg21
I00
sg22
V
sg23
I00
sg24
S'L'
sbsg25
(irule
FeatureMatrix
p3188
(dp3189
g28
(lp3190
(I01
g693
tp3191
a(I00
g2076
tp3192
asg22
V[ +high -coronal ]
p3193
sbsg33
(irule
Guard
p3194
(dp3195
g18
I01
sg19
(lp3196
(irule
FeatureMatrix
p3197
(dp3198
g28
(lp3199
(I00
g702
tp3200
a(I01
g704
tp3201
asg22
V[ +voice -nasal ]
p3202
sbasg21
I00
sg22
V[ +voice -nasal ] #
p3203
sg23
I00
sg24
S'R'
sbsg37
(irule
FeatureMatrix
p3204
(dp3205
g28
(lp3206
(I01
g711
tp3207
asg22
V[ +rounded ]
p3208
sbsg22
V[ +rounded ] ---> [ +high -coronal ] /  _ [ +voice -nasal ] #
p3209
sba(irule
Rule
p3210
(dp3211
g15
(irule
Guard
p3212
(dp3213
g18
I00
sg19
(lp3214
sg21
I00
sg22
V
sg23
I00
sg24
S'L'
sbsg25
(irule
FeatureMatrix
p3215
(dp3216
g28
(lp3217
(I01
g693
tp3218
asg22
V[ +high ]
p3219
sbsg33
(irule
Guard
p3220
(dp3221
g18
I01
sg19
(lp3222
(irule
FeatureMatrix
p3223
(dp3224
g28
(lp3225
(I00
g702
tp3226
a(I01
g704
tp3227
asg22
V[ +voice -nasal ]
p3228
sbasg21
I00
sg22
V[ +voice -nasal ] #
p3229
sg23
I00
sg24
S'R'
sbsg37
(irule
FeatureMatrix
p3230
(dp3231
g28
(lp3232
(I01
g3058
tp3233
a(I01
g738
tp3234
asg22
V[ +continuant +tense ]
p3235
sbsg22
V[ +continuant +tense ] ---> [ +high ] /  _ [ +voice -nasal ] #
p3236
sba(irule
Rule
p3237
(dp3238
g15
(irule
Guard
p3239
(dp3240
g18
I00
sg19
(lp3241
sg21
I00
sg22
V
sg23
I00
sg24
S'L'
sbsg25
(irule
ConstantPhoneme
p3242
(dp3243
S'p'
Vu
sbsg33
(irule
Guard
p3244
(dp3245
g18
I01
sg19
(lp3246
(irule
FeatureMatrix
p3247
(dp3248
g28
(lp3249
(I00
g702
tp3250
a(I00
g738
tp3251
a(I01
g704
tp3252
asg22
V[ +voice -nasal -tense ]
p3253
sbasg21
I00
sg22
V[ +voice -nasal -tense ] #
p3254
sg23
I00
sg24
S'R'
sbsg37
(irule
FeatureMatrix
p3255
(dp3256
g28
(lp3257
(I00
g693
tp3258
asg22
V[ -high ]
p3259
sbsg22
V[ -high ] ---> u /  _ [ +voice -nasal -tense ] #
p3260
sba(irule
Rule
p3261
(dp3262
g15
(irule
Guard
p3263
(dp3264
g18
I00
sg19
(lp3265
sg21
I00
sg22
V
sg23
I00
sg24
S'L'
sbsg25
(irule
FeatureMatrix
p3266
(dp3267
g28
(lp3268
(I01
g841
tp3269
a(I01
g693
tp3270
asg22
V[ +back +high ]
p3271
sbsg33
(irule
Guard
p3272
(dp3273
g18
I01
sg19
(lp3274
(irule
FeatureMatrix
p3275
(dp3276
g28
(lp3277
(I00
g702
tp3278
a(I00
g759
tp3279
a(I01
g704
tp3280
asg22
V[ +voice -nasal -vowel ]
p3281
sbasg21
I00
sg22
V[ +voice -nasal -vowel ] #
p3282
sg23
I00
sg24
S'R'
sbsg37
(irule
FeatureMatrix
p3283
(dp3284
g28
(lp3285
sg22
V[  ]
p3286
sbsg22
V[  ] ---> [ +back +high ] /  _ [ +voice -nasal -vowel ] #
p3287
sba(irule
Rule
p3288
(dp3289
g15
(irule
Guard
p3290
(dp3291
g18
I00
sg19
(lp3292
sg21
I00
sg22
V
sg23
I00
sg24
S'L'
sbsg25
(irule
FeatureMatrix
p3293
(dp3294
g28
(lp3295
(I01
g693
tp3296
asg22
V[ +high ]
p3297
sbsg33
(irule
Guard
p3298
(dp3299
g18
I01
sg19
(lp3300
(irule
FeatureMatrix
p3301
(dp3302
g28
(lp3303
(I00
g702
tp3304
a(I00
g759
tp3305
a(I01
g704
tp3306
asg22
V[ +voice -nasal -vowel ]
p3307
sbasg21
I00
sg22
V[ +voice -nasal -vowel ] #
p3308
sg23
I00
sg24
S'R'
sbsg37
(irule
FeatureMatrix
p3309
(dp3310
g28
(lp3311
(I01
g841
tp3312
asg22
V[ +back ]
p3313
sbsg22
V[ +back ] ---> [ +high ] /  _ [ +voice -nasal -vowel ] #
p3314
sba(irule
Rule
p3315
(dp3316
g15
(irule
Guard
p3317
(dp3318
g18
I00
sg19
(lp3319
sg21
I00
sg22
V
sg23
I00
sg24
S'L'
sbsg25
(irule
ConstantPhoneme
p3320
(dp3321
S'p'
Vu
sbsg33
(irule
Guard
p3322
(dp3323
g18
I01
sg19
(lp3324
(irule
FeatureMatrix
p3325
(dp3326
g28
(lp3327
(I00
g702
tp3328
a(I01
g704
tp3329
asg22
V[ +voice -nasal ]
p3330
sbasg21
I00
sg22
V[ +voice -nasal ] #
p3331
sg23
I00
sg24
S'R'
sbsg37
(irule
FeatureMatrix
p3332
(dp3333
g28
(lp3334
(I01
g711
tp3335
a(I00
g1132
tp3336
asg22
V[ +rounded -sibilant ]
p3337
sbsg22
V[ +rounded -sibilant ] ---> u /  _ [ +voice -nasal ] #
p3338
sbaa(lp3339
(irule
Rule
p3340
(dp3341
g15
(irule
Guard
p3342
(dp3343
g18
I00
sg19
(lp3344
sg21
I00
sg22
V
sg23
I00
sg24
S'L'
sbsg25
(irule
FeatureMatrix
p3345
(dp3346
g28
(lp3347
(I00
S'voice'
tp3348
asg22
V[ -voice ]
p3349
sbsg33
(irule
Guard
p3350
(dp3351
g18
I01
sg19
(lp3352
sg21
I00
sg22
V#
sg23
I00
sg24
S'R'
sbsg37
(irule
FeatureMatrix
p3353
(dp3354
g28
(lp3355
(I00
S'sonorant'
tp3356
asg22
V[ -sonorant ]
p3357
sbsg22
V[ -sonorant ] ---> [ -voice ] /  _ #
p3358
sba(irule
Rule
p3359
(dp3360
g15
(irule
Guard
p3361
(dp3362
g18
I00
sg19
(lp3363
sg21
I00
sg22
V
sg23
I00
sg24
S'L'
sbsg25
(irule
FeatureMatrix
p3364
(dp3365
g28
(lp3366
(I00
S'tense'
p3367
tp3368
a(I00
S'voice'
p3369
tp3370
asg22
V[ -tense -voice ]
p3371
sbsg33
(irule
Guard
p3372
(dp3373
g18
I01
sg19
(lp3374
sg21
I00
sg22
V#
sg23
I00
sg24
S'R'
sbsg37
(irule
FeatureMatrix
p3375
(dp3376
g28
(lp3377
(I00
S'sonorant'
p3378
tp3379
asg22
V[ -sonorant ]
p3380
sbsg22
V[ -sonorant ] ---> [ -tense -voice ] /  _ #
p3381
sba(irule
Rule
p3382
(dp3383
g15
(irule
Guard
p3384
(dp3385
g18
I00
sg19
(lp3386
sg21
I00
sg22
V
sg23
I00
sg24
S'L'
sbsg25
(irule
FeatureMatrix
p3387
(dp3388
g28
(lp3389
(I00
g3369
tp3390
asg22
V[ -voice ]
p3391
sbsg33
(irule
Guard
p3392
(dp3393
g18
I01
sg19
(lp3394
sg21
I00
sg22
V#
sg23
I00
sg24
S'R'
sbsg37
(irule
FeatureMatrix
p3395
(dp3396
g28
(lp3397
(I00
S'liquid'
p3398
tp3399
a(I00
g3378
tp3400
asg22
V[ -liquid -sonorant ]
p3401
sbsg22
V[ -liquid -sonorant ] ---> [ -voice ] /  _ #
p3402
sba(irule
Rule
p3403
(dp3404
g15
(irule
Guard
p3405
(dp3406
g18
I00
sg19
(lp3407
(irule
FeatureMatrix
p3408
(dp3409
g28
(lp3410
sg22
V[  ]
p3411
sbasg21
I00
sg22
g3411
sg23
I00
sg24
S'L'
sbsg25
(irule
FeatureMatrix
p3412
(dp3413
g28
(lp3414
(I00
g3369
tp3415
asg22
V[ -voice ]
p3416
sbsg33
(irule
Guard
p3417
(dp3418
g18
I01
sg19
(lp3419
sg21
I00
sg22
V#
sg23
I00
sg24
S'R'
sbsg37
(irule
FeatureMatrix
p3420
(dp3421
g28
(lp3422
(I00
g3378
tp3423
asg22
V[ -sonorant ]
p3424
sbsg22
V[ -sonorant ] ---> [ -voice ] / [  ] _ #
p3425
sba(irule
Rule
p3426
(dp3427
g15
(irule
Guard
p3428
(dp3429
g18
I00
sg19
(lp3430
sg21
I00
sg22
V
sg23
I00
sg24
S'L'
sbsg25
(irule
FeatureMatrix
p3431
(dp3432
g28
(lp3433
(I00
S'vowel'
p3434
tp3435
a(I00
g3369
tp3436
asg22
V[ -voice -vowel ]
p3437
sbsg33
(irule
Guard
p3438
(dp3439
g18
I01
sg19
(lp3440
sg21
I00
sg22
V#
sg23
I00
sg24
S'R'
sbsg37
(irule
FeatureMatrix
p3441
(dp3442
g28
(lp3443
(I00
g3378
tp3444
asg22
V[ -sonorant ]
p3445
sbsg22
V[ -sonorant ] ---> [ -voice -vowel ] /  _ #
p3446
sba(irule
Rule
p3447
(dp3448
g15
(irule
Guard
p3449
(dp3450
g18
I00
sg19
(lp3451
sg21
I00
sg22
V
sg23
I00
sg24
S'L'
sbsg25
(irule
FeatureMatrix
p3452
(dp3453
g28
(lp3454
(I00
g3369
tp3455
asg22
V[ -voice ]
p3456
sbsg33
(irule
Guard
p3457
(dp3458
g18
I01
sg19
(lp3459
sg21
I00
sg22
V#
sg23
I00
sg24
S'R'
sbsg37
(irule
FeatureMatrix
p3460
(dp3461
g28
(lp3462
(I00
g3378
tp3463
a(I01
g3369
tp3464
asg22
V[ +voice -sonorant ]
p3465
sbsg22
V[ +voice -sonorant ] ---> [ -voice ] /  _ #
p3466
sba(irule
Rule
p3467
(dp3468
g15
(irule
Guard
p3469
(dp3470
g18
I00
sg19
(lp3471
sg21
I00
sg22
V
sg23
I00
sg24
S'L'
sbsg25
(irule
FeatureMatrix
p3472
(dp3473
g28
(lp3474
(I00
g3369
tp3475
asg22
V[ -voice ]
p3476
sbsg33
(irule
Guard
p3477
(dp3478
g18
I01
sg19
(lp3479
sg21
I00
sg22
V#
sg23
I00
sg24
S'R'
sbsg37
(irule
FeatureMatrix
p3480
(dp3481
g28
(lp3482
(I00
g3378
tp3483
a(I00
g3367
tp3484
asg22
V[ -sonorant -tense ]
p3485
sbsg22
V[ -sonorant -tense ] ---> [ -voice ] /  _ #
p3486
sba(irule
Rule
p3487
(dp3488
g15
(irule
Guard
p3489
(dp3490
g18
I00
sg19
(lp3491
sg21
I00
sg22
V
sg23
I00
sg24
S'L'
sbsg25
(irule
FeatureMatrix
p3492
(dp3493
g28
(lp3494
(I00
S'palletized'
p3495
tp3496
a(I00
g3369
tp3497
asg22
V[ -palletized -voice ]
p3498
sbsg33
(irule
Guard
p3499
(dp3500
g18
I01
sg19
(lp3501
sg21
I00
sg22
V#
sg23
I00
sg24
S'R'
sbsg37
(irule
FeatureMatrix
p3502
(dp3503
g28
(lp3504
(I00
g3378
tp3505
asg22
V[ -sonorant ]
p3506
sbsg22
V[ -sonorant ] ---> [ -palletized -voice ] /  _ #
p3507
sba(irule
Rule
p3508
(dp3509
g15
(irule
Guard
p3510
(dp3511
g18
I00
sg19
(lp3512
sg21
I00
sg22
V
sg23
I00
sg24
S'L'
sbsg25
(irule
FeatureMatrix
p3513
(dp3514
g28
(lp3515
(I00
g3369
tp3516
asg22
V[ -voice ]
p3517
sbsg33
(irule
Guard
p3518
(dp3519
g18
I01
sg19
(lp3520
sg21
I00
sg22
V#
sg23
I00
sg24
S'R'
sbsg37
(irule
FeatureMatrix
p3521
(dp3522
g28
(lp3523
(I00
g3378
tp3524
a(I00
g3434
tp3525
asg22
V[ -sonorant -vowel ]
p3526
sbsg22
V[ -sonorant -vowel ] ---> [ -voice ] /  _ #
p3527
sba(irule
Rule
p3528
(dp3529
g15
(irule
Guard
p3530
(dp3531
g18
I00
sg19
(lp3532
sg21
I00
sg22
V
sg23
I00
sg24
S'L'
sbsg25
(irule
FeatureMatrix
p3533
(dp3534
g28
(lp3535
(I00
S'nasal'
p3536
tp3537
a(I00
g3369
tp3538
asg22
V[ -nasal -voice ]
p3539
sbsg33
(irule
Guard
p3540
(dp3541
g18
I01
sg19
(lp3542
sg21
I00
sg22
V#
sg23
I00
sg24
S'R'
sbsg37
(irule
FeatureMatrix
p3543
(dp3544
g28
(lp3545
(I00
g3378
tp3546
asg22
V[ -sonorant ]
p3547
sbsg22
V[ -sonorant ] ---> [ -nasal -voice ] /  _ #
p3548
sba(irule
Rule
p3549
(dp3550
g15
(irule
Guard
p3551
(dp3552
g18
I00
sg19
(lp3553
sg21
I00
sg22
V
sg23
I00
sg24
S'L'
sbsg25
(irule
FeatureMatrix
p3554
(dp3555
g28
(lp3556
(I00
g3369
tp3557
asg22
V[ -voice ]
p3558
sbsg33
(irule
Guard
p3559
(dp3560
g18
I01
sg19
(lp3561
sg21
I00
sg22
V#
sg23
I00
sg24
S'R'
sbsg37
(irule
FeatureMatrix
p3562
(dp3563
g28
(lp3564
(I00
g3378
tp3565
a(I00
g3495
tp3566
asg22
V[ -palletized -sonorant ]
p3567
sbsg22
V[ -palletized -sonorant ] ---> [ -voice ] /  _ #
p3568
sba(irule
Rule
p3569
(dp3570
g15
(irule
Guard
p3571
(dp3572
g18
I00
sg19
(lp3573
sg21
I00
sg22
V
sg23
I00
sg24
S'L'
sbsg25
(irule
FeatureMatrix
p3574
(dp3575
g28
(lp3576
(I00
g3398
tp3577
a(I00
g3369
tp3578
asg22
V[ -liquid -voice ]
p3579
sbsg33
(irule
Guard
p3580
(dp3581
g18
I01
sg19
(lp3582
sg21
I00
sg22
V#
sg23
I00
sg24
S'R'
sbsg37
(irule
FeatureMatrix
p3583
(dp3584
g28
(lp3585
(I00
g3378
tp3586
asg22
V[ -sonorant ]
p3587
sbsg22
V[ -sonorant ] ---> [ -liquid -voice ] /  _ #
p3588
sba(irule
Rule
p3589
(dp3590
g15
(irule
Guard
p3591
(dp3592
g18
I00
sg19
(lp3593
sg21
I00
sg22
V
sg23
I00
sg24
S'L'
sbsg25
(irule
FeatureMatrix
p3594
(dp3595
g28
(lp3596
(I00
g3378
tp3597
a(I00
g3369
tp3598
asg22
V[ -sonorant -voice ]
p3599
sbsg33
(irule
Guard
p3600
(dp3601
g18
I01
sg19
(lp3602
sg21
I00
sg22
V#
sg23
I00
sg24
S'R'
sbsg37
(irule
FeatureMatrix
p3603
(dp3604
g28
(lp3605
(I00
g3378
tp3606
asg22
V[ -sonorant ]
p3607
sbsg22
V[ -sonorant ] ---> [ -sonorant -voice ] /  _ #
p3608
sba(irule
Rule
p3609
(dp3610
g15
(irule
Guard
p3611
(dp3612
g18
I00
sg19
(lp3613
sg21
I00
sg22
V
sg23
I00
sg24
S'L'
sbsg25
(irule
FeatureMatrix
p3614
(dp3615
g28
(lp3616
(I00
S'lateral'
p3617
tp3618
a(I00
g3369
tp3619
asg22
V[ -lateral -voice ]
p3620
sbsg33
(irule
Guard
p3621
(dp3622
g18
I01
sg19
(lp3623
sg21
I00
sg22
V#
sg23
I00
sg24
S'R'
sbsg37
(irule
FeatureMatrix
p3624
(dp3625
g28
(lp3626
(I00
g3378
tp3627
asg22
V[ -sonorant ]
p3628
sbsg22
V[ -sonorant ] ---> [ -lateral -voice ] /  _ #
p3629
sba(irule
Rule
p3630
(dp3631
g15
(irule
Guard
p3632
(dp3633
g18
I00
sg19
(lp3634
sg21
I00
sg22
V
sg23
I00
sg24
S'L'
sbsg25
(irule
FeatureMatrix
p3635
(dp3636
g28
(lp3637
(I00
g3369
tp3638
asg22
V[ -voice ]
p3639
sbsg33
(irule
Guard
p3640
(dp3641
g18
I01
sg19
(lp3642
sg21
I00
sg22
V#
sg23
I00
sg24
S'R'
sbsg37
(irule
FeatureMatrix
p3643
(dp3644
g28
(lp3645
(I00
g3536
tp3646
a(I00
g3378
tp3647
asg22
V[ -nasal -sonorant ]
p3648
sbsg22
V[ -nasal -sonorant ] ---> [ -voice ] /  _ #
p3649
sba(irule
Rule
p3650
(dp3651
g15
(irule
Guard
p3652
(dp3653
g18
I00
sg19
(lp3654
sg21
I00
sg22
V
sg23
I00
sg24
S'L'
sbsg25
(irule
FeatureMatrix
p3655
(dp3656
g28
(lp3657
(I00
S'glide'
p3658
tp3659
a(I00
g3369
tp3660
asg22
V[ -glide -voice ]
p3661
sbsg33
(irule
Guard
p3662
(dp3663
g18
I01
sg19
(lp3664
sg21
I00
sg22
V#
sg23
I00
sg24
S'R'
sbsg37
(irule
FeatureMatrix
p3665
(dp3666
g28
(lp3667
(I00
g3378
tp3668
asg22
V[ -sonorant ]
p3669
sbsg22
V[ -sonorant ] ---> [ -glide -voice ] /  _ #
p3670
sba(irule
Rule
p3671
(dp3672
g15
(irule
Guard
p3673
(dp3674
g18
I00
sg19
(lp3675
sg21
I00
sg22
V
sg23
I00
sg24
S'L'
sbsg25
(irule
FeatureMatrix
p3676
(dp3677
g28
(lp3678
(I00
S'rounded'
p3679
tp3680
a(I00
g3369
tp3681
asg22
V[ -rounded -voice ]
p3682
sbsg33
(irule
Guard
p3683
(dp3684
g18
I01
sg19
(lp3685
sg21
I00
sg22
V#
sg23
I00
sg24
S'R'
sbsg37
(irule
FeatureMatrix
p3686
(dp3687
g28
(lp3688
(I00
g3378
tp3689
asg22
V[ -sonorant ]
p3690
sbsg22
V[ -sonorant ] ---> [ -rounded -voice ] /  _ #
p3691
sba(irule
Rule
p3692
(dp3693
g15
(irule
Guard
p3694
(dp3695
g18
I00
sg19
(lp3696
sg21
I00
sg22
V
sg23
I00
sg24
S'L'
sbsg25
(irule
FeatureMatrix
p3697
(dp3698
g28
(lp3699
(I00
g3369
tp3700
asg22
V[ -voice ]
p3701
sbsg33
(irule
Guard
p3702
(dp3703
g18
I01
sg19
(lp3704
sg21
I00
sg22
V#
sg23
I00
sg24
S'R'
sbsg37
(irule
FeatureMatrix
p3705
(dp3706
g28
(lp3707
(I00
g3617
tp3708
a(I00
g3378
tp3709
asg22
V[ -lateral -sonorant ]
p3710
sbsg22
V[ -lateral -sonorant ] ---> [ -voice ] /  _ #
p3711
sba(irule
Rule
p3712
(dp3713
g15
(irule
Guard
p3714
(dp3715
g18
I00
sg19
(lp3716
sg21
I00
sg22
V
sg23
I00
sg24
S'L'
sbsg25
(irule
FeatureMatrix
p3717
(dp3718
g28
(lp3719
(I00
g3369
tp3720
asg22
V[ -voice ]
p3721
sbsg33
(irule
Guard
p3722
(dp3723
g18
I01
sg19
(lp3724
sg21
I00
sg22
V#
sg23
I00
sg24
S'R'
sbsg37
(irule
FeatureMatrix
p3725
(dp3726
g28
(lp3727
(I00
g3679
tp3728
a(I00
g3378
tp3729
asg22
V[ -rounded -sonorant ]
p3730
sbsg22
V[ -rounded -sonorant ] ---> [ -voice ] /  _ #
p3731
sba(irule
Rule
p3732
(dp3733
g15
(irule
Guard
p3734
(dp3735
g18
I00
sg19
(lp3736
sg21
I00
sg22
V
sg23
I00
sg24
S'L'
sbsg25
(irule
FeatureMatrix
p3737
(dp3738
g28
(lp3739
(I00
g3369
tp3740
asg22
V[ -voice ]
p3741
sbsg33
(irule
Guard
p3742
(dp3743
g18
I01
sg19
(lp3744
sg21
I00
sg22
V#
sg23
I00
sg24
S'R'
sbsg37
(irule
FeatureMatrix
p3745
(dp3746
g28
(lp3747
(I00
g3658
tp3748
a(I00
g3378
tp3749
asg22
V[ -glide -sonorant ]
p3750
sbsg22
V[ -glide -sonorant ] ---> [ -voice ] /  _ #
p3751
sba(irule
Rule
p3752
(dp3753
g15
(irule
Guard
p3754
(dp3755
g18
I00
sg19
(lp3756
sg21
I00
sg22
V
sg23
I00
sg24
S'L'
sbsg25
(irule
FeatureMatrix
p3757
(dp3758
g28
(lp3759
(I00
g3369
tp3760
asg22
V[ -voice ]
p3761
sbsg33
(irule
Guard
p3762
(dp3763
g18
I01
sg19
(lp3764
sg21
I00
sg22
V#
sg23
I00
sg24
S'R'
sbsg37
(irule
FeatureMatrix
p3765
(dp3766
g28
(lp3767
(I00
g3658
tp3768
a(I00
g3398
tp3769
a(I00
g3378
tp3770
asg22
V[ -glide -liquid -sonorant ]
p3771
sbsg22
V[ -glide -liquid -sonorant ] ---> [ -voice ] /  _ #
p3772
sba(irule
Rule
p3773
(dp3774
g15
(irule
Guard
p3775
(dp3776
g18
I00
sg19
(lp3777
(irule
FeatureMatrix
p3778
(dp3779
g28
(lp3780
sg22
V[  ]
p3781
sbasg21
I00
sg22
g3781
sg23
I00
sg24
S'L'
sbsg25
(irule
FeatureMatrix
p3782
(dp3783
g28
(lp3784
(I00
g3495
tp3785
a(I00
g3369
tp3786
asg22
V[ -palletized -voice ]
p3787
sbsg33
(irule
Guard
p3788
(dp3789
g18
I01
sg19
(lp3790
sg21
I00
sg22
V#
sg23
I00
sg24
S'R'
sbsg37
(irule
FeatureMatrix
p3791
(dp3792
g28
(lp3793
(I00
g3378
tp3794
asg22
V[ -sonorant ]
p3795
sbsg22
V[ -sonorant ] ---> [ -palletized -voice ] / [  ] _ #
p3796
sba(irule
Rule
p3797
(dp3798
g15
(irule
Guard
p3799
(dp3800
g18
I00
sg19
(lp3801
(irule
FeatureMatrix
p3802
(dp3803
g28
(lp3804
sg22
V[  ]
p3805
sbasg21
I00
sg22
g3805
sg23
I00
sg24
S'L'
sbsg25
(irule
FeatureMatrix
p3806
(dp3807
g28
(lp3808
(I00
g3369
tp3809
asg22
V[ -voice ]
p3810
sbsg33
(irule
Guard
p3811
(dp3812
g18
I01
sg19
(lp3813
sg21
I00
sg22
V#
sg23
I00
sg24
S'R'
sbsg37
(irule
FeatureMatrix
p3814
(dp3815
g28
(lp3816
(I00
g3378
tp3817
a(I01
g3369
tp3818
asg22
V[ +voice -sonorant ]
p3819
sbsg22
V[ +voice -sonorant ] ---> [ -voice ] / [  ] _ #
p3820
sba(irule
Rule
p3821
(dp3822
g15
(irule
Guard
p3823
(dp3824
g18
I00
sg19
(lp3825
(irule
ConstantPhoneme
p3826
(dp3827
S'p'
Vu
sbasg21
I00
sg22
Vu
sg23
I00
sg24
S'L'
sbsg25
(irule
FeatureMatrix
p3828
(dp3829
g28
(lp3830
(I00
g3369
tp3831
asg22
V[ -voice ]
p3832
sbsg33
(irule
Guard
p3833
(dp3834
g18
I01
sg19
(lp3835
sg21
I00
sg22
V#
sg23
I00
sg24
S'R'
sbsg37
(irule
FeatureMatrix
p3836
(dp3837
g28
(lp3838
(I00
g3378
tp3839
asg22
V[ -sonorant ]
p3840
sbsg22
V[ -sonorant ] ---> [ -voice ] / u _ #
p3841
sba(irule
Rule
p3842
(dp3843
g15
(irule
Guard
p3844
(dp3845
g18
I00
sg19
(lp3846
(irule
FeatureMatrix
p3847
(dp3848
g28
(lp3849
(I01
g3369
tp3850
asg22
V[ +voice ]
p3851
sbasg21
I00
sg22
g3851
sg23
I00
sg24
S'L'
sbsg25
(irule
FeatureMatrix
p3852
(dp3853
g28
(lp3854
(I00
g3369
tp3855
asg22
V[ -voice ]
p3856
sbsg33
(irule
Guard
p3857
(dp3858
g18
I01
sg19
(lp3859
sg21
I00
sg22
V#
sg23
I00
sg24
S'R'
sbsg37
(irule
FeatureMatrix
p3860
(dp3861
g28
(lp3862
(I00
g3378
tp3863
asg22
V[ -sonorant ]
p3864
sbsg22
V[ -sonorant ] ---> [ -voice ] / [ +voice ] _ #
p3865
sba(irule
Rule
p3866
(dp3867
g15
(irule
Guard
p3868
(dp3869
g18
I00
sg19
(lp3870
sg21
I00
sg22
V
sg23
I00
sg24
S'L'
sbsg25
(irule
FeatureMatrix
p3871
(dp3872
g28
(lp3873
(I00
g3434
tp3874
a(I00
g3367
tp3875
a(I00
g3369
tp3876
asg22
V[ -tense -voice -vowel ]
p3877
sbsg33
(irule
Guard
p3878
(dp3879
g18
I01
sg19
(lp3880
sg21
I00
sg22
V#
sg23
I00
sg24
S'R'
sbsg37
(irule
FeatureMatrix
p3881
(dp3882
g28
(lp3883
(I00
g3378
tp3884
asg22
V[ -sonorant ]
p3885
sbsg22
V[ -sonorant ] ---> [ -tense -voice -vowel ] /  _ #
p3886
sba(irule
Rule
p3887
(dp3888
g15
(irule
Guard
p3889
(dp3890
g18
I00
sg19
(lp3891
sg21
I00
sg22
V
sg23
I00
sg24
S'L'
sbsg25
(irule
FeatureMatrix
p3892
(dp3893
g28
(lp3894
(I00
g3495
tp3895
a(I00
g3434
tp3896
a(I00
g3369
tp3897
asg22
V[ -palletized -voice -vowel ]
p3898
sbsg33
(irule
Guard
p3899
(dp3900
g18
I01
sg19
(lp3901
sg21
I00
sg22
V#
sg23
I00
sg24
S'R'
sbsg37
(irule
FeatureMatrix
p3902
(dp3903
g28
(lp3904
(I00
g3378
tp3905
asg22
V[ -sonorant ]
p3906
sbsg22
V[ -sonorant ] ---> [ -palletized -voice -vowel ] /  _ #
p3907
sba(irule
Rule
p3908
(dp3909
g15
(irule
Guard
p3910
(dp3911
g18
I00
sg19
(lp3912
sg21
I00
sg22
V
sg23
I00
sg24
S'L'
sbsg25
(irule
FeatureMatrix
p3913
(dp3914
g28
(lp3915
(I00
g3378
tp3916
a(I00
g3495
tp3917
a(I00
g3369
tp3918
asg22
V[ -palletized -sonorant -voice ]
p3919
sbsg33
(irule
Guard
p3920
(dp3921
g18
I01
sg19
(lp3922
sg21
I00
sg22
V#
sg23
I00
sg24
S'R'
sbsg37
(irule
FeatureMatrix
p3923
(dp3924
g28
(lp3925
(I00
g3378
tp3926
asg22
V[ -sonorant ]
p3927
sbsg22
V[ -sonorant ] ---> [ -palletized -sonorant -voice ] /  _ #
p3928
sba(irule
Rule
p3929
(dp3930
g15
(irule
Guard
p3931
(dp3932
g18
I00
sg19
(lp3933
(irule
FeatureMatrix
p3934
(dp3935
g28
(lp3936
(I01
g3367
tp3937
asg22
V[ +tense ]
p3938
sbasg21
I00
sg22
g3938
sg23
I00
sg24
S'L'
sbsg25
(irule
FeatureMatrix
p3939
(dp3940
g28
(lp3941
(I00
g3369
tp3942
asg22
V[ -voice ]
p3943
sbsg33
(irule
Guard
p3944
(dp3945
g18
I01
sg19
(lp3946
sg21
I00
sg22
V#
sg23
I00
sg24
S'R'
sbsg37
(irule
FeatureMatrix
p3947
(dp3948
g28
(lp3949
(I00
g3378
tp3950
asg22
V[ -sonorant ]
p3951
sbsg22
V[ -sonorant ] ---> [ -voice ] / [ +tense ] _ #
p3952
sba(irule
Rule
p3953
(dp3954
g15
(irule
Guard
p3955
(dp3956
g18
I00
sg19
(lp3957
(irule
FeatureMatrix
p3958
(dp3959
g28
(lp3960
sg22
V[  ]
p3961
sbasg21
I00
sg22
g3961
sg23
I00
sg24
S'L'
sbsg25
(irule
FeatureMatrix
p3962
(dp3963
g28
(lp3964
(I00
g3367
tp3965
a(I00
g3369
tp3966
asg22
V[ -tense -voice ]
p3967
sbsg33
(irule
Guard
p3968
(dp3969
g18
I01
sg19
(lp3970
sg21
I00
sg22
V#
sg23
I00
sg24
S'R'
sbsg37
(irule
FeatureMatrix
p3971
(dp3972
g28
(lp3973
(I00
g3378
tp3974
asg22
V[ -sonorant ]
p3975
sbsg22
V[ -sonorant ] ---> [ -tense -voice ] / [  ] _ #
p3976
sba(irule
Rule
p3977
(dp3978
g15
(irule
Guard
p3979
(dp3980
g18
I00
sg19
(lp3981
(irule
FeatureMatrix
p3982
(dp3983
g28
(lp3984
sg22
V[  ]
p3985
sbasg21
I00
sg22
g3985
sg23
I00
sg24
S'L'
sbsg25
(irule
FeatureMatrix
p3986
(dp3987
g28
(lp3988
(I00
g3369
tp3989
asg22
V[ -voice ]
p3990
sbsg33
(irule
Guard
p3991
(dp3992
g18
I01
sg19
(lp3993
sg21
I00
sg22
V#
sg23
I00
sg24
S'R'
sbsg37
(irule
FeatureMatrix
p3994
(dp3995
g28
(lp3996
(I00
g3398
tp3997
a(I00
g3378
tp3998
asg22
V[ -liquid -sonorant ]
p3999
sbsg22
V[ -liquid -sonorant ] ---> [ -voice ] / [  ] _ #
p4000
sba(irule
Rule
p4001
(dp4002
g15
(irule
Guard
p4003
(dp4004
g18
I00
sg19
(lp4005
(irule
FeatureMatrix
p4006
(dp4007
g28
(lp4008
(I01
S'high'
tp4009
asg22
V[ +high ]
p4010
sbasg21
I00
sg22
g4010
sg23
I00
sg24
S'L'
sbsg25
(irule
FeatureMatrix
p4011
(dp4012
g28
(lp4013
(I00
g3369
tp4014
asg22
V[ -voice ]
p4015
sbsg33
(irule
Guard
p4016
(dp4017
g18
I01
sg19
(lp4018
sg21
I00
sg22
V#
sg23
I00
sg24
S'R'
sbsg37
(irule
FeatureMatrix
p4019
(dp4020
g28
(lp4021
(I00
g3378
tp4022
asg22
V[ -sonorant ]
p4023
sbsg22
V[ -sonorant ] ---> [ -voice ] / [ +high ] _ #
p4024
sba(irule
Rule
p4025
(dp4026
g15
(irule
Guard
p4027
(dp4028
g18
I00
sg19
(lp4029
(irule
FeatureMatrix
p4030
(dp4031
g28
(lp4032
sg22
V[  ]
p4033
sbasg21
I00
sg22
g4033
sg23
I00
sg24
S'L'
sbsg25
(irule
FeatureMatrix
p4034
(dp4035
g28
(lp4036
(I00
g3369
tp4037
asg22
V[ -voice ]
p4038
sbsg33
(irule
Guard
p4039
(dp4040
g18
I01
sg19
(lp4041
sg21
I00
sg22
V#
sg23
I00
sg24
S'R'
sbsg37
(irule
FeatureMatrix
p4042
(dp4043
g28
(lp4044
(I00
g3658
tp4045
a(I00
g3378
tp4046
asg22
V[ -glide -sonorant ]
p4047
sbsg22
V[ -glide -sonorant ] ---> [ -voice ] / [  ] _ #
p4048
sba(irule
Rule
p4049
(dp4050
g15
(irule
Guard
p4051
(dp4052
g18
I00
sg19
(lp4053
(irule
FeatureMatrix
p4054
(dp4055
g28
(lp4056
(I01
g3434
tp4057
asg22
V[ +vowel ]
p4058
sbasg21
I00
sg22
g4058
sg23
I00
sg24
S'L'
sbsg25
(irule
FeatureMatrix
p4059
(dp4060
g28
(lp4061
(I00
g3369
tp4062
asg22
V[ -voice ]
p4063
sbsg33
(irule
Guard
p4064
(dp4065
g18
I01
sg19
(lp4066
sg21
I00
sg22
V#
sg23
I00
sg24
S'R'
sbsg37
(irule
FeatureMatrix
p4067
(dp4068
g28
(lp4069
(I00
g3378
tp4070
asg22
V[ -sonorant ]
p4071
sbsg22
V[ -sonorant ] ---> [ -voice ] / [ +vowel ] _ #
p4072
sba(irule
Rule
p4073
(dp4074
g15
(irule
Guard
p4075
(dp4076
g18
I00
sg19
(lp4077
sg21
I00
sg22
V
sg23
I00
sg24
S'L'
sbsg25
(irule
FeatureMatrix
p4078
(dp4079
g28
(lp4080
(I00
g3398
tp4081
a(I00
g3434
tp4082
a(I00
g3369
tp4083
asg22
V[ -liquid -voice -vowel ]
p4084
sbsg33
(irule
Guard
p4085
(dp4086
g18
I01
sg19
(lp4087
sg21
I00
sg22
V#
sg23
I00
sg24
S'R'
sbsg37
(irule
FeatureMatrix
p4088
(dp4089
g28
(lp4090
(I00
g3378
tp4091
asg22
V[ -sonorant ]
p4092
sbsg22
V[ -sonorant ] ---> [ -liquid -voice -vowel ] /  _ #
p4093
sba(irule
Rule
p4094
(dp4095
g15
(irule
Guard
p4096
(dp4097
g18
I00
sg19
(lp4098
(irule
FeatureMatrix
p4099
(dp4100
g28
(lp4101
(I01
S'back'
tp4102
asg22
V[ +back ]
p4103
sbasg21
I00
sg22
g4103
sg23
I00
sg24
S'L'
sbsg25
(irule
FeatureMatrix
p4104
(dp4105
g28
(lp4106
(I00
g3369
tp4107
asg22
V[ -voice ]
p4108
sbsg33
(irule
Guard
p4109
(dp4110
g18
I01
sg19
(lp4111
sg21
I00
sg22
V#
sg23
I00
sg24
S'R'
sbsg37
(irule
FeatureMatrix
p4112
(dp4113
g28
(lp4114
(I00
g3378
tp4115
asg22
V[ -sonorant ]
p4116
sbsg22
V[ -sonorant ] ---> [ -voice ] / [ +back ] _ #
p4117
sba(irule
Rule
p4118
(dp4119
g15
(irule
Guard
p4120
(dp4121
g18
I00
sg19
(lp4122
(irule
FeatureMatrix
p4123
(dp4124
g28
(lp4125
sg22
V[  ]
p4126
sbasg21
I00
sg22
g4126
sg23
I00
sg24
S'L'
sbsg25
(irule
FeatureMatrix
p4127
(dp4128
g28
(lp4129
(I00
g3617
tp4130
a(I00
g3369
tp4131
asg22
V[ -lateral -voice ]
p4132
sbsg33
(irule
Guard
p4133
(dp4134
g18
I01
sg19
(lp4135
sg21
I00
sg22
V#
sg23
I00
sg24
S'R'
sbsg37
(irule
FeatureMatrix
p4136
(dp4137
g28
(lp4138
(I00
g3378
tp4139
asg22
V[ -sonorant ]
p4140
sbsg22
V[ -sonorant ] ---> [ -lateral -voice ] / [  ] _ #
p4141
sba(irule
Rule
p4142
(dp4143
g15
(irule
Guard
p4144
(dp4145
g18
I00
sg19
(lp4146
(irule
FeatureMatrix
p4147
(dp4148
g28
(lp4149
sg22
V[  ]
p4150
sbasg21
I00
sg22
g4150
sg23
I00
sg24
S'L'
sbsg25
(irule
FeatureMatrix
p4151
(dp4152
g28
(lp4153
(I00
g3369
tp4154
asg22
V[ -voice ]
p4155
sbsg33
(irule
Guard
p4156
(dp4157
g18
I01
sg19
(lp4158
sg21
I00
sg22
V#
sg23
I00
sg24
S'R'
sbsg37
(irule
FeatureMatrix
p4159
(dp4160
g28
(lp4161
(I00
g3378
tp4162
a(I00
g3434
tp4163
asg22
V[ -sonorant -vowel ]
p4164
sbsg22
V[ -sonorant -vowel ] ---> [ -voice ] / [  ] _ #
p4165
sba(irule
Rule
p4166
(dp4167
g15
(irule
Guard
p4168
(dp4169
g18
I00
sg19
(lp4170
(irule
FeatureMatrix
p4171
(dp4172
g28
(lp4173
(I00
g3536
tp4174
asg22
V[ -nasal ]
p4175
sbasg21
I00
sg22
g4175
sg23
I00
sg24
S'L'
sbsg25
(irule
FeatureMatrix
p4176
(dp4177
g28
(lp4178
(I00
g3369
tp4179
asg22
V[ -voice ]
p4180
sbsg33
(irule
Guard
p4181
(dp4182
g18
I01
sg19
(lp4183
sg21
I00
sg22
V#
sg23
I00
sg24
S'R'
sbsg37
(irule
FeatureMatrix
p4184
(dp4185
g28
(lp4186
(I00
g3378
tp4187
asg22
V[ -sonorant ]
p4188
sbsg22
V[ -sonorant ] ---> [ -voice ] / [ -nasal ] _ #
p4189
sba(irule
Rule
p4190
(dp4191
g15
(irule
Guard
p4192
(dp4193
g18
I00
sg19
(lp4194
sg21
I00
sg22
V
sg23
I00
sg24
S'L'
sbsg25
(irule
FeatureMatrix
p4195
(dp4196
g28
(lp4197
(I00
g3367
tp4198
a(I00
g3369
tp4199
asg22
V[ -tense -voice ]
p4200
sbsg33
(irule
Guard
p4201
(dp4202
g18
I01
sg19
(lp4203
sg21
I00
sg22
V#
sg23
I00
sg24
S'R'
sbsg37
(irule
FeatureMatrix
p4204
(dp4205
g28
(lp4206
(I00
g3378
tp4207
a(I01
g3369
tp4208
asg22
V[ +voice -sonorant ]
p4209
sbsg22
V[ +voice -sonorant ] ---> [ -tense -voice ] /  _ #
p4210
sba(irule
Rule
p4211
(dp4212
g15
(irule
Guard
p4213
(dp4214
g18
I00
sg19
(lp4215
(irule
FeatureMatrix
p4216
(dp4217
g28
(lp4218
(I00
S'anterior'
tp4219
asg22
V[ -anterior ]
p4220
sbasg21
I00
sg22
g4220
sg23
I00
sg24
S'L'
sbsg25
(irule
FeatureMatrix
p4221
(dp4222
g28
(lp4223
(I00
g3369
tp4224
asg22
V[ -voice ]
p4225
sbsg33
(irule
Guard
p4226
(dp4227
g18
I01
sg19
(lp4228
sg21
I00
sg22
V#
sg23
I00
sg24
S'R'
sbsg37
(irule
FeatureMatrix
p4229
(dp4230
g28
(lp4231
(I00
g3378
tp4232
asg22
V[ -sonorant ]
p4233
sbsg22
V[ -sonorant ] ---> [ -voice ] / [ -anterior ] _ #
p4234
sba(irule
Rule
p4235
(dp4236
g15
(irule
Guard
p4237
(dp4238
g18
I00
sg19
(lp4239
sg21
I00
sg22
V
sg23
I00
sg24
S'L'
sbsg25
(irule
FeatureMatrix
p4240
(dp4241
g28
(lp4242
(I00
g3378
tp4243
a(I00
g3369
tp4244
asg22
V[ -sonorant -voice ]
p4245
sbsg33
(irule
Guard
p4246
(dp4247
g18
I01
sg19
(lp4248
sg21
I00
sg22
V#
sg23
I00
sg24
S'R'
sbsg37
(irule
FeatureMatrix
p4249
(dp4250
g28
(lp4251
(I00
g3378
tp4252
a(I00
g3367
tp4253
asg22
V[ -sonorant -tense ]
p4254
sbsg22
V[ -sonorant -tense ] ---> [ -sonorant -voice ] /  _ #
p4255
sba(irule
Rule
p4256
(dp4257
g15
(irule
Guard
p4258
(dp4259
g18
I00
sg19
(lp4260
(irule
FeatureMatrix
p4261
(dp4262
g28
(lp4263
sg22
V[  ]
p4264
sbasg21
I00
sg22
g4264
sg23
I00
sg24
S'L'
sbsg25
(irule
FeatureMatrix
p4265
(dp4266
g28
(lp4267
(I00
g3434
tp4268
a(I00
g3369
tp4269
asg22
V[ -voice -vowel ]
p4270
sbsg33
(irule
Guard
p4271
(dp4272
g18
I01
sg19
(lp4273
sg21
I00
sg22
V#
sg23
I00
sg24
S'R'
sbsg37
(irule
FeatureMatrix
p4274
(dp4275
g28
(lp4276
(I00
g3378
tp4277
asg22
V[ -sonorant ]
p4278
sbsg22
V[ -sonorant ] ---> [ -voice -vowel ] / [  ] _ #
p4279
sba(irule
Rule
p4280
(dp4281
g15
(irule
Guard
p4282
(dp4283
g18
I00
sg19
(lp4284
(irule
FeatureMatrix
p4285
(dp4286
g28
(lp4287
sg22
V[  ]
p4288
sbasg21
I00
sg22
g4288
sg23
I00
sg24
S'L'
sbsg25
(irule
FeatureMatrix
p4289
(dp4290
g28
(lp4291
(I00
g3536
tp4292
a(I00
g3369
tp4293
asg22
V[ -nasal -voice ]
p4294
sbsg33
(irule
Guard
p4295
(dp4296
g18
I01
sg19
(lp4297
sg21
I00
sg22
V#
sg23
I00
sg24
S'R'
sbsg37
(irule
FeatureMatrix
p4298
(dp4299
g28
(lp4300
(I00
g3378
tp4301
asg22
V[ -sonorant ]
p4302
sbsg22
V[ -sonorant ] ---> [ -nasal -voice ] / [  ] _ #
p4303
sba(irule
Rule
p4304
(dp4305
g15
(irule
Guard
p4306
(dp4307
g18
I00
sg19
(lp4308
(irule
FeatureMatrix
p4309
(dp4310
g28
(lp4311
sg22
V[  ]
p4312
sbasg21
I00
sg22
g4312
sg23
I00
sg24
S'L'
sbsg25
(irule
FeatureMatrix
p4313
(dp4314
g28
(lp4315
(I00
g3378
tp4316
a(I00
g3369
tp4317
asg22
V[ -sonorant -voice ]
p4318
sbsg33
(irule
Guard
p4319
(dp4320
g18
I01
sg19
(lp4321
sg21
I00
sg22
V#
sg23
I00
sg24
S'R'
sbsg37
(irule
FeatureMatrix
p4322
(dp4323
g28
(lp4324
(I00
g3378
tp4325
asg22
V[ -sonorant ]
p4326
sbsg22
V[ -sonorant ] ---> [ -sonorant -voice ] / [  ] _ #
p4327
sba(irule
Rule
p4328
(dp4329
g15
(irule
Guard
p4330
(dp4331
g18
I00
sg19
(lp4332
(irule
FeatureMatrix
p4333
(dp4334
g28
(lp4335
(I00
S'sibilant'
tp4336
asg22
V[ -sibilant ]
p4337
sbasg21
I00
sg22
g4337
sg23
I00
sg24
S'L'
sbsg25
(irule
FeatureMatrix
p4338
(dp4339
g28
(lp4340
(I00
g3369
tp4341
asg22
V[ -voice ]
p4342
sbsg33
(irule
Guard
p4343
(dp4344
g18
I01
sg19
(lp4345
sg21
I00
sg22
V#
sg23
I00
sg24
S'R'
sbsg37
(irule
FeatureMatrix
p4346
(dp4347
g28
(lp4348
(I00
g3378
tp4349
asg22
V[ -sonorant ]
p4350
sbsg22
V[ -sonorant ] ---> [ -voice ] / [ -sibilant ] _ #
p4351
sba(irule
Rule
p4352
(dp4353
g15
(irule
Guard
p4354
(dp4355
g18
I00
sg19
(lp4356
sg21
I00
sg22
V
sg23
I00
sg24
S'L'
sbsg25
(irule
FeatureMatrix
p4357
(dp4358
g28
(lp4359
(I00
g3617
tp4360
a(I00
g3536
tp4361
a(I00
g3369
tp4362
asg22
V[ -lateral -nasal -voice ]
p4363
sbsg33
(irule
Guard
p4364
(dp4365
g18
I01
sg19
(lp4366
sg21
I00
sg22
V#
sg23
I00
sg24
S'R'
sbsg37
(irule
FeatureMatrix
p4367
(dp4368
g28
(lp4369
(I00
g3378
tp4370
asg22
V[ -sonorant ]
p4371
sbsg22
V[ -sonorant ] ---> [ -lateral -nasal -voice ] /  _ #
p4372
sba(irule
Rule
p4373
(dp4374
g15
(irule
Guard
p4375
(dp4376
g18
I00
sg19
(lp4377
sg21
I00
sg22
V
sg23
I00
sg24
S'L'
sbsg25
(irule
FeatureMatrix
p4378
(dp4379
g28
(lp4380
(I00
g3367
tp4381
a(I00
g3369
tp4382
asg22
V[ -tense -voice ]
p4383
sbsg33
(irule
Guard
p4384
(dp4385
g18
I01
sg19
(lp4386
sg21
I00
sg22
V#
sg23
I00
sg24
S'R'
sbsg37
(irule
FeatureMatrix
p4387
(dp4388
g28
(lp4389
(I00
g3398
tp4390
a(I00
g3378
tp4391
asg22
V[ -liquid -sonorant ]
p4392
sbsg22
V[ -liquid -sonorant ] ---> [ -tense -voice ] /  _ #
p4393
sba(irule
Rule
p4394
(dp4395
g15
(irule
Guard
p4396
(dp4397
g18
I00
sg19
(lp4398
(irule
FeatureMatrix
p4399
(dp4400
g28
(lp4401
(I01
g3378
tp4402
asg22
V[ +sonorant ]
p4403
sbasg21
I00
sg22
g4403
sg23
I00
sg24
S'L'
sbsg25
(irule
FeatureMatrix
p4404
(dp4405
g28
(lp4406
(I00
g3369
tp4407
asg22
V[ -voice ]
p4408
sbsg33
(irule
Guard
p4409
(dp4410
g18
I01
sg19
(lp4411
sg21
I00
sg22
V#
sg23
I00
sg24
S'R'
sbsg37
(irule
FeatureMatrix
p4412
(dp4413
g28
(lp4414
(I00
g3378
tp4415
asg22
V[ -sonorant ]
p4416
sbsg22
V[ -sonorant ] ---> [ -voice ] / [ +sonorant ] _ #
p4417
sba(irule
Rule
p4418
(dp4419
g15
(irule
Guard
p4420
(dp4421
g18
I00
sg19
(lp4422
(irule
FeatureMatrix
p4423
(dp4424
g28
(lp4425
(I00
S'coronal'
tp4426
asg22
V[ -coronal ]
p4427
sbasg21
I00
sg22
g4427
sg23
I00
sg24
S'L'
sbsg25
(irule
FeatureMatrix
p4428
(dp4429
g28
(lp4430
(I00
g3369
tp4431
asg22
V[ -voice ]
p4432
sbsg33
(irule
Guard
p4433
(dp4434
g18
I01
sg19
(lp4435
sg21
I00
sg22
V#
sg23
I00
sg24
S'R'
sbsg37
(irule
FeatureMatrix
p4436
(dp4437
g28
(lp4438
(I00
g3378
tp4439
asg22
V[ -sonorant ]
p4440
sbsg22
V[ -sonorant ] ---> [ -voice ] / [ -coronal ] _ #
p4441
sba(irule
Rule
p4442
(dp4443
g15
(irule
Guard
p4444
(dp4445
g18
I00
sg19
(lp4446
(irule
FeatureMatrix
p4447
(dp4448
g28
(lp4449
sg22
V[  ]
p4450
sbasg21
I00
sg22
g4450
sg23
I00
sg24
S'L'
sbsg25
(irule
FeatureMatrix
p4451
(dp4452
g28
(lp4453
(I00
g3369
tp4454
asg22
V[ -voice ]
p4455
sbsg33
(irule
Guard
p4456
(dp4457
g18
I01
sg19
(lp4458
sg21
I00
sg22
V#
sg23
I00
sg24
S'R'
sbsg37
(irule
FeatureMatrix
p4459
(dp4460
g28
(lp4461
(I00
g3378
tp4462
a(I00
g3367
tp4463
asg22
V[ -sonorant -tense ]
p4464
sbsg22
V[ -sonorant -tense ] ---> [ -voice ] / [  ] _ #
p4465
sba(irule
Rule
p4466
(dp4467
g15
(irule
Guard
p4468
(dp4469
g18
I00
sg19
(lp4470
sg21
I00
sg22
V
sg23
I00
sg24
S'L'
sbsg25
(irule
FeatureMatrix
p4471
(dp4472
g28
(lp4473
(I00
g3369
tp4474
asg22
V[ -voice ]
p4475
sbsg33
(irule
Guard
p4476
(dp4477
g18
I01
sg19
(lp4478
sg21
I00
sg22
V#
sg23
I00
sg24
S'R'
sbsg37
(irule
FeatureMatrix
p4479
(dp4480
g28
(lp4481
(I00
g3378
tp4482
a(I00
g3434
tp4483
a(I00
g3367
tp4484
asg22
V[ -sonorant -tense -vowel ]
p4485
sbsg22
V[ -sonorant -tense -vowel ] ---> [ -voice ] /  _ #
p4486
sba(irule
Rule
p4487
(dp4488
g15
(irule
Guard
p4489
(dp4490
g18
I00
sg19
(lp4491
(irule
FeatureMatrix
p4492
(dp4493
g28
(lp4494
sg22
V[  ]
p4495
sbasg21
I00
sg22
g4495
sg23
I00
sg24
S'L'
sbsg25
(irule
FeatureMatrix
p4496
(dp4497
g28
(lp4498
(I00
g3679
tp4499
a(I00
g3369
tp4500
asg22
V[ -rounded -voice ]
p4501
sbsg33
(irule
Guard
p4502
(dp4503
g18
I01
sg19
(lp4504
sg21
I00
sg22
V#
sg23
I00
sg24
S'R'
sbsg37
(irule
FeatureMatrix
p4505
(dp4506
g28
(lp4507
(I00
g3378
tp4508
asg22
V[ -sonorant ]
p4509
sbsg22
V[ -sonorant ] ---> [ -rounded -voice ] / [  ] _ #
p4510
sba(irule
Rule
p4511
(dp4512
g15
(irule
Guard
p4513
(dp4514
g18
I00
sg19
(lp4515
sg21
I00
sg22
V
sg23
I00
sg24
S'L'
sbsg25
(irule
FeatureMatrix
p4516
(dp4517
g28
(lp4518
(I00
g3679
tp4519
a(I00
g3658
tp4520
a(I00
g3369
tp4521
asg22
V[ -glide -rounded -voice ]
p4522
sbsg33
(irule
Guard
p4523
(dp4524
g18
I01
sg19
(lp4525
sg21
I00
sg22
V#
sg23
I00
sg24
S'R'
sbsg37
(irule
FeatureMatrix
p4526
(dp4527
g28
(lp4528
(I00
g3378
tp4529
asg22
V[ -sonorant ]
p4530
sbsg22
V[ -sonorant ] ---> [ -glide -rounded -voice ] /  _ #
p4531
sba(irule
Rule
p4532
(dp4533
g15
(irule
Guard
p4534
(dp4535
g18
I00
sg19
(lp4536
(irule
FeatureMatrix
p4537
(dp4538
g28
(lp4539
sg22
V[  ]
p4540
sba(irule
FeatureMatrix
p4541
(dp4542
g28
(lp4543
sg22
V[  ]
p4544
sbasg21
I00
sg22
V[  ] [  ]
p4545
sg23
I00
sg24
S'L'
sbsg25
(irule
FeatureMatrix
p4546
(dp4547
g28
(lp4548
(I00
g3369
tp4549
asg22
V[ -voice ]
p4550
sbsg33
(irule
Guard
p4551
(dp4552
g18
I01
sg19
(lp4553
sg21
I00
sg22
V#
sg23
I00
sg24
S'R'
sbsg37
(irule
FeatureMatrix
p4554
(dp4555
g28
(lp4556
(I00
g3378
tp4557
asg22
V[ -sonorant ]
p4558
sbsg22
V[ -sonorant ] ---> [ -voice ] / [  ] [  ] _ #
p4559
sba(irule
Rule
p4560
(dp4561
g15
(irule
Guard
p4562
(dp4563
g18
I00
sg19
(lp4564
sg21
I00
sg22
V
sg23
I00
sg24
S'L'
sbsg25
(irule
FeatureMatrix
p4565
(dp4566
g28
(lp4567
(I00
g3679
tp4568
a(I00
g3398
tp4569
a(I00
g3369
tp4570
asg22
V[ -liquid -rounded -voice ]
p4571
sbsg33
(irule
Guard
p4572
(dp4573
g18
I01
sg19
(lp4574
sg21
I00
sg22
V#
sg23
I00
sg24
S'R'
sbsg37
(irule
FeatureMatrix
p4575
(dp4576
g28
(lp4577
(I00
g3378
tp4578
asg22
V[ -sonorant ]
p4579
sbsg22
V[ -sonorant ] ---> [ -liquid -rounded -voice ] /  _ #
p4580
sba(irule
Rule
p4581
(dp4582
g15
(irule
Guard
p4583
(dp4584
g18
I00
sg19
(lp4585
sg21
I00
sg22
V
sg23
I00
sg24
S'L'
sbsg25
(irule
FeatureMatrix
p4586
(dp4587
g28
(lp4588
(I00
g3369
tp4589
asg22
V[ -voice ]
p4590
sbsg33
(irule
Guard
p4591
(dp4592
g18
I01
sg19
(lp4593
sg21
I00
sg22
V#
sg23
I00
sg24
S'R'
sbsg37
(irule
FeatureMatrix
p4594
(dp4595
g28
(lp4596
(I00
g3378
tp4597
a(I00
g3434
tp4598
a(I01
g3369
tp4599
asg22
V[ +voice -sonorant -vowel ]
p4600
sbsg22
V[ +voice -sonorant -vowel ] ---> [ -voice ] /  _ #
p4601
sba(irule
Rule
p4602
(dp4603
g15
(irule
Guard
p4604
(dp4605
g18
I00
sg19
(lp4606
(irule
FeatureMatrix
p4607
(dp4608
g28
(lp4609
sg22
V[  ]
p4610
sbasg21
I00
sg22
g4610
sg23
I00
sg24
S'L'
sbsg25
(irule
FeatureMatrix
p4611
(dp4612
g28
(lp4613
(I00
g3369
tp4614
asg22
V[ -voice ]
p4615
sbsg33
(irule
Guard
p4616
(dp4617
g18
I01
sg19
(lp4618
sg21
I00
sg22
V#
sg23
I00
sg24
S'R'
sbsg37
(irule
FeatureMatrix
p4619
(dp4620
g28
(lp4621
(I00
g3378
tp4622
a(I00
g3495
tp4623
asg22
V[ -palletized -sonorant ]
p4624
sbsg22
V[ -palletized -sonorant ] ---> [ -voice ] / [  ] _ #
p4625
sba(irule
Rule
p4626
(dp4627
g15
(irule
Guard
p4628
(dp4629
g18
I00
sg19
(lp4630
sg21
I00
sg22
V
sg23
I00
sg24
S'L'
sbsg25
(irule
FeatureMatrix
p4631
(dp4632
g28
(lp4633
(I00
g3398
tp4634
a(I00
g3367
tp4635
a(I00
g3369
tp4636
asg22
V[ -liquid -tense -voice ]
p4637
sbsg33
(irule
Guard
p4638
(dp4639
g18
I01
sg19
(lp4640
sg21
I00
sg22
V#
sg23
I00
sg24
S'R'
sbsg37
(irule
FeatureMatrix
p4641
(dp4642
g28
(lp4643
(I00
g3378
tp4644
asg22
V[ -sonorant ]
p4645
sbsg22
V[ -sonorant ] ---> [ -liquid -tense -voice ] /  _ #
p4646
sba(irule
Rule
p4647
(dp4648
g15
(irule
Guard
p4649
(dp4650
g18
I00
sg19
(lp4651
(irule
FeatureMatrix
p4652
(dp4653
g28
(lp4654
(I00
g3495
tp4655
asg22
V[ -palletized ]
p4656
sbasg21
I00
sg22
g4656
sg23
I00
sg24
S'L'
sbsg25
(irule
FeatureMatrix
p4657
(dp4658
g28
(lp4659
(I00
g3369
tp4660
asg22
V[ -voice ]
p4661
sbsg33
(irule
Guard
p4662
(dp4663
g18
I01
sg19
(lp4664
sg21
I00
sg22
V#
sg23
I00
sg24
S'R'
sbsg37
(irule
FeatureMatrix
p4665
(dp4666
g28
(lp4667
(I00
g3378
tp4668
asg22
V[ -sonorant ]
p4669
sbsg22
V[ -sonorant ] ---> [ -voice ] / [ -palletized ] _ #
p4670
sba(irule
Rule
p4671
(dp4672
g15
(irule
Guard
p4673
(dp4674
g18
I00
sg19
(lp4675
sg21
I00
sg22
V
sg23
I00
sg24
S'L'
sbsg25
(irule
FeatureMatrix
p4676
(dp4677
g28
(lp4678
(I00
g3495
tp4679
a(I00
g3367
tp4680
a(I00
g3369
tp4681
asg22
V[ -palletized -tense -voice ]
p4682
sbsg33
(irule
Guard
p4683
(dp4684
g18
I01
sg19
(lp4685
sg21
I00
sg22
V#
sg23
I00
sg24
S'R'
sbsg37
(irule
FeatureMatrix
p4686
(dp4687
g28
(lp4688
(I00
g3378
tp4689
asg22
V[ -sonorant ]
p4690
sbsg22
V[ -sonorant ] ---> [ -palletized -tense -voice ] /  _ #
p4691
sba(irule
Rule
p4692
(dp4693
g15
(irule
Guard
p4694
(dp4695
g18
I00
sg19
(lp4696
sg21
I00
sg22
V
sg23
I00
sg24
S'L'
sbsg25
(irule
FeatureMatrix
p4697
(dp4698
g28
(lp4699
(I00
g3536
tp4700
a(I00
g3495
tp4701
a(I00
g3369
tp4702
asg22
V[ -nasal -palletized -voice ]
p4703
sbsg33
(irule
Guard
p4704
(dp4705
g18
I01
sg19
(lp4706
sg21
I00
sg22
V#
sg23
I00
sg24
S'R'
sbsg37
(irule
FeatureMatrix
p4707
(dp4708
g28
(lp4709
(I00
g3378
tp4710
asg22
V[ -sonorant ]
p4711
sbsg22
V[ -sonorant ] ---> [ -nasal -palletized -voice ] /  _ #
p4712
sba(irule
Rule
p4713
(dp4714
g15
(irule
Guard
p4715
(dp4716
g18
I00
sg19
(lp4717
(irule
FeatureMatrix
p4718
(dp4719
g28
(lp4720
(I00
g3398
tp4721
asg22
V[ -liquid ]
p4722
sbasg21
I00
sg22
g4722
sg23
I00
sg24
S'L'
sbsg25
(irule
FeatureMatrix
p4723
(dp4724
g28
(lp4725
(I00
g3369
tp4726
asg22
V[ -voice ]
p4727
sbsg33
(irule
Guard
p4728
(dp4729
g18
I01
sg19
(lp4730
sg21
I00
sg22
V#
sg23
I00
sg24
S'R'
sbsg37
(irule
FeatureMatrix
p4731
(dp4732
g28
(lp4733
(I00
g3378
tp4734
asg22
V[ -sonorant ]
p4735
sbsg22
V[ -sonorant ] ---> [ -voice ] / [ -liquid ] _ #
p4736
sba(irule
Rule
p4737
(dp4738
g15
(irule
Guard
p4739
(dp4740
g18
I00
sg19
(lp4741
(irule
FeatureMatrix
p4742
(dp4743
g28
(lp4744
(I01
S'continuant'
tp4745
asg22
V[ +continuant ]
p4746
sbasg21
I00
sg22
g4746
sg23
I00
sg24
S'L'
sbsg25
(irule
FeatureMatrix
p4747
(dp4748
g28
(lp4749
(I00
g3369
tp4750
asg22
V[ -voice ]
p4751
sbsg33
(irule
Guard
p4752
(dp4753
g18
I01
sg19
(lp4754
sg21
I00
sg22
V#
sg23
I00
sg24
S'R'
sbsg37
(irule
FeatureMatrix
p4755
(dp4756
g28
(lp4757
(I00
g3378
tp4758
asg22
V[ -sonorant ]
p4759
sbsg22
V[ -sonorant ] ---> [ -voice ] / [ +continuant ] _ #
p4760
sba(irule
Rule
p4761
(dp4762
g15
(irule
Guard
p4763
(dp4764
g18
I00
sg19
(lp4765
(irule
FeatureMatrix
p4766
(dp4767
g28
(lp4768
(I00
g3617
tp4769
asg22
V[ -lateral ]
p4770
sbasg21
I00
sg22
g4770
sg23
I00
sg24
S'L'
sbsg25
(irule
FeatureMatrix
p4771
(dp4772
g28
(lp4773
(I00
g3369
tp4774
asg22
V[ -voice ]
p4775
sbsg33
(irule
Guard
p4776
(dp4777
g18
I01
sg19
(lp4778
sg21
I00
sg22
V#
sg23
I00
sg24
S'R'
sbsg37
(irule
FeatureMatrix
p4779
(dp4780
g28
(lp4781
(I00
g3378
tp4782
asg22
V[ -sonorant ]
p4783
sbsg22
V[ -sonorant ] ---> [ -voice ] / [ -lateral ] _ #
p4784
sba(irule
Rule
p4785
(dp4786
g15
(irule
Guard
p4787
(dp4788
g18
I00
sg19
(lp4789
(irule
FeatureMatrix
p4790
(dp4791
g28
(lp4792
(I00
g3658
tp4793
asg22
V[ -glide ]
p4794
sbasg21
I00
sg22
g4794
sg23
I00
sg24
S'L'
sbsg25
(irule
FeatureMatrix
p4795
(dp4796
g28
(lp4797
(I00
g3369
tp4798
asg22
V[ -voice ]
p4799
sbsg33
(irule
Guard
p4800
(dp4801
g18
I01
sg19
(lp4802
sg21
I00
sg22
V#
sg23
I00
sg24
S'R'
sbsg37
(irule
FeatureMatrix
p4803
(dp4804
g28
(lp4805
(I00
g3378
tp4806
asg22
V[ -sonorant ]
p4807
sbsg22
V[ -sonorant ] ---> [ -voice ] / [ -glide ] _ #
p4808
sba(irule
Rule
p4809
(dp4810
g15
(irule
Guard
p4811
(dp4812
g18
I00
sg19
(lp4813
sg21
I00
sg22
V
sg23
I00
sg24
S'L'
sbsg25
(irule
FeatureMatrix
p4814
(dp4815
g28
(lp4816
(I00
g3434
tp4817
a(I00
g3369
tp4818
asg22
V[ -voice -vowel ]
p4819
sbsg33
(irule
Guard
p4820
(dp4821
g18
I01
sg19
(lp4822
sg21
I00
sg22
V#
sg23
I00
sg24
S'R'
sbsg37
(irule
FeatureMatrix
p4823
(dp4824
g28
(lp4825
(I00
g3378
tp4826
a(I01
g3369
tp4827
asg22
V[ +voice -sonorant ]
p4828
sbsg22
V[ +voice -sonorant ] ---> [ -voice -vowel ] /  _ #
p4829
sba(irule
Rule
p4830
(dp4831
g15
(irule
Guard
p4832
(dp4833
g18
I00
sg19
(lp4834
(irule
FeatureMatrix
p4835
(dp4836
g28
(lp4837
sg22
V[  ]
p4838
sbasg21
I00
sg22
g4838
sg23
I00
sg24
S'L'
sbsg25
(irule
FeatureMatrix
p4839
(dp4840
g28
(lp4841
(I00
g3369
tp4842
asg22
V[ -voice ]
p4843
sbsg33
(irule
Guard
p4844
(dp4845
g18
I01
sg19
(lp4846
sg21
I00
sg22
V#
sg23
I00
sg24
S'R'
sbsg37
(irule
FeatureMatrix
p4847
(dp4848
g28
(lp4849
(I00
g3617
tp4850
a(I00
g3378
tp4851
asg22
V[ -lateral -sonorant ]
p4852
sbsg22
V[ -lateral -sonorant ] ---> [ -voice ] / [  ] _ #
p4853
sba(irule
Rule
p4854
(dp4855
g15
(irule
Guard
p4856
(dp4857
g18
I00
sg19
(lp4858
(irule
FeatureMatrix
p4859
(dp4860
g28
(lp4861
sg22
V[  ]
p4862
sbasg21
I00
sg22
g4862
sg23
I00
sg24
S'L'
sbsg25
(irule
FeatureMatrix
p4863
(dp4864
g28
(lp4865
(I00
g3398
tp4866
a(I00
g3369
tp4867
asg22
V[ -liquid -voice ]
p4868
sbsg33
(irule
Guard
p4869
(dp4870
g18
I01
sg19
(lp4871
sg21
I00
sg22
V#
sg23
I00
sg24
S'R'
sbsg37
(irule
FeatureMatrix
p4872
(dp4873
g28
(lp4874
(I00
g3378
tp4875
asg22
V[ -sonorant ]
p4876
sbsg22
V[ -sonorant ] ---> [ -liquid -voice ] / [  ] _ #
p4877
sba(irule
Rule
p4878
(dp4879
g15
(irule
Guard
p4880
(dp4881
g18
I00
sg19
(lp4882
sg21
I00
sg22
V
sg23
I00
sg24
S'L'
sbsg25
(irule
FeatureMatrix
p4883
(dp4884
g28
(lp4885
(I00
g3367
tp4886
a(I00
g3369
tp4887
asg22
V[ -tense -voice ]
p4888
sbsg33
(irule
Guard
p4889
(dp4890
g18
I01
sg19
(lp4891
sg21
I00
sg22
V#
sg23
I00
sg24
S'R'
sbsg37
(irule
FeatureMatrix
p4892
(dp4893
g28
(lp4894
(I00
g3536
tp4895
a(I00
g3378
tp4896
asg22
V[ -nasal -sonorant ]
p4897
sbsg22
V[ -nasal -sonorant ] ---> [ -tense -voice ] /  _ #
p4898
sba(irule
Rule
p4899
(dp4900
g15
(irule
Guard
p4901
(dp4902
g18
I00
sg19
(lp4903
(irule
FeatureMatrix
p4904
(dp4905
g28
(lp4906
sg22
V[  ]
p4907
sbasg21
I00
sg22
g4907
sg23
I00
sg24
S'L'
sbsg25
(irule
FeatureMatrix
p4908
(dp4909
g28
(lp4910
(I00
g3658
tp4911
a(I00
g3369
tp4912
asg22
V[ -glide -voice ]
p4913
sbsg33
(irule
Guard
p4914
(dp4915
g18
I01
sg19
(lp4916
sg21
I00
sg22
V#
sg23
I00
sg24
S'R'
sbsg37
(irule
FeatureMatrix
p4917
(dp4918
g28
(lp4919
(I00
g3378
tp4920
asg22
V[ -sonorant ]
p4921
sbsg22
V[ -sonorant ] ---> [ -glide -voice ] / [  ] _ #
p4922
sba(irule
Rule
p4923
(dp4924
g15
(irule
Guard
p4925
(dp4926
g18
I00
sg19
(lp4927
sg21
I00
sg22
V
sg23
I00
sg24
S'L'
sbsg25
(irule
FeatureMatrix
p4928
(dp4929
g28
(lp4930
(I00
g3679
tp4931
a(I00
g3378
tp4932
a(I00
g3369
tp4933
asg22
V[ -rounded -sonorant -voice ]
p4934
sbsg33
(irule
Guard
p4935
(dp4936
g18
I01
sg19
(lp4937
sg21
I00
sg22
V#
sg23
I00
sg24
S'R'
sbsg37
(irule
FeatureMatrix
p4938
(dp4939
g28
(lp4940
(I00
g3378
tp4941
asg22
V[ -sonorant ]
p4942
sbsg22
V[ -sonorant ] ---> [ -rounded -sonorant -voice ] /  _ #
p4943
sba(irule
Rule
p4944
(dp4945
g15
(irule
Guard
p4946
(dp4947
g18
I00
sg19
(lp4948
(irule
FeatureMatrix
p4949
(dp4950
g28
(lp4951
(I01
g3679
tp4952
asg22
V[ +rounded ]
p4953
sbasg21
I00
sg22
g4953
sg23
I00
sg24
S'L'
sbsg25
(irule
FeatureMatrix
p4954
(dp4955
g28
(lp4956
(I00
g3369
tp4957
asg22
V[ -voice ]
p4958
sbsg33
(irule
Guard
p4959
(dp4960
g18
I01
sg19
(lp4961
sg21
I00
sg22
V#
sg23
I00
sg24
S'R'
sbsg37
(irule
FeatureMatrix
p4962
(dp4963
g28
(lp4964
(I00
g3378
tp4965
asg22
V[ -sonorant ]
p4966
sbsg22
V[ -sonorant ] ---> [ -voice ] / [ +rounded ] _ #
p4967
sba(irule
Rule
p4968
(dp4969
g15
(irule
Guard
p4970
(dp4971
g18
I00
sg19
(lp4972
sg21
I00
sg22
V
sg23
I00
sg24
S'L'
sbsg25
(irule
FeatureMatrix
p4973
(dp4974
g28
(lp4975
(I00
g3658
tp4976
a(I00
g3369
tp4977
asg22
V[ -glide -voice ]
p4978
sbsg33
(irule
Guard
p4979
(dp4980
g18
I01
sg19
(lp4981
sg21
I00
sg22
V#
sg23
I00
sg24
S'R'
sbsg37
(irule
FeatureMatrix
p4982
(dp4983
g28
(lp4984
(I00
g3378
tp4985
a(I01
g3369
tp4986
asg22
V[ +voice -sonorant ]
p4987
sbsg22
V[ +voice -sonorant ] ---> [ -glide -voice ] /  _ #
p4988
sba(irule
Rule
p4989
(dp4990
g15
(irule
Guard
p4991
(dp4992
g18
I00
sg19
(lp4993
(irule
FeatureMatrix
p4994
(dp4995
g28
(lp4996
sg22
V[  ]
p4997
sbasg21
I00
sg22
g4997
sg23
I00
sg24
S'L'
sbsg25
(irule
FeatureMatrix
p4998
(dp4999
g28
(lp5000
(I00
g3369
tp5001
asg22
V[ -voice ]
p5002
sbsg33
(irule
Guard
p5003
(dp5004
g18
I01
sg19
(lp5005
sg21
I00
sg22
V#
sg23
I00
sg24
S'R'
sbsg37
(irule
FeatureMatrix
p5006
(dp5007
g28
(lp5008
(I00
g3679
tp5009
a(I00
g3378
tp5010
asg22
V[ -rounded -sonorant ]
p5011
sbsg22
V[ -rounded -sonorant ] ---> [ -voice ] / [  ] _ #
p5012
sba(irule
Rule
p5013
(dp5014
g15
(irule
Guard
p5015
(dp5016
g18
I00
sg19
(lp5017
sg21
I00
sg22
V
sg23
I00
sg24
S'L'
sbsg25
(irule
FeatureMatrix
p5018
(dp5019
g28
(lp5020
(I00
g3367
tp5021
a(I00
g3369
tp5022
asg22
V[ -tense -voice ]
p5023
sbsg33
(irule
Guard
p5024
(dp5025
g18
I01
sg19
(lp5026
sg21
I00
sg22
V#
sg23
I00
sg24
S'R'
sbsg37
(irule
FeatureMatrix
p5027
(dp5028
g28
(lp5029
(I00
g3378
tp5030
a(I00
g3367
tp5031
asg22
V[ -sonorant -tense ]
p5032
sbsg22
V[ -sonorant -tense ] ---> [ -tense -voice ] /  _ #
p5033
sba(irule
Rule
p5034
(dp5035
g15
(irule
Guard
p5036
(dp5037
g18
I00
sg19
(lp5038
(irule
FeatureMatrix
p5039
(dp5040
g28
(lp5041
sg22
V[  ]
p5042
sbasg21
I00
sg22
g5042
sg23
I00
sg24
S'L'
sbsg25
(irule
FeatureMatrix
p5043
(dp5044
g28
(lp5045
(I00
g3369
tp5046
asg22
V[ -voice ]
p5047
sbsg33
(irule
Guard
p5048
(dp5049
g18
I01
sg19
(lp5050
sg21
I00
sg22
V#
sg23
I00
sg24
S'R'
sbsg37
(irule
FeatureMatrix
p5051
(dp5052
g28
(lp5053
(I00
g3536
tp5054
a(I00
g3378
tp5055
asg22
V[ -nasal -sonorant ]
p5056
sbsg22
V[ -nasal -sonorant ] ---> [ -voice ] / [  ] _ #
p5057
sba(irule
Rule
p5058
(dp5059
g15
(irule
Guard
p5060
(dp5061
g18
I00
sg19
(lp5062
sg21
I00
sg22
V
sg23
I00
sg24
S'L'
sbsg25
(irule
FeatureMatrix
p5063
(dp5064
g28
(lp5065
(I00
g3369
tp5066
asg22
V[ -voice ]
p5067
sbsg33
(irule
Guard
p5068
(dp5069
g18
I01
sg19
(lp5070
sg21
I00
sg22
V#
sg23
I00
sg24
S'R'
sbsg37
(irule
FeatureMatrix
p5071
(dp5072
g28
(lp5073
(I00
g3378
tp5074
a(I00
g3367
tp5075
a(I01
g3369
tp5076
asg22
V[ +voice -sonorant -tense ]
p5077
sbsg22
V[ +voice -sonorant -tense ] ---> [ -voice ] /  _ #
p5078
sba(irule
Rule
p5079
(dp5080
g15
(irule
Guard
p5081
(dp5082
g18
I00
sg19
(lp5083
sg21
I00
sg22
V
sg23
I00
sg24
S'L'
sbsg25
(irule
FeatureMatrix
p5084
(dp5085
g28
(lp5086
(I00
g3369
tp5087
asg22
V[ -voice ]
p5088
sbsg33
(irule
Guard
p5089
(dp5090
g18
I01
sg19
(lp5091
sg21
I00
sg22
V#
sg23
I00
sg24
S'R'
sbsg37
(irule
FeatureMatrix
p5092
(dp5093
g28
(lp5094
(I00
g3378
tp5095
a(I00
g3495
tp5096
a(I01
g3369
tp5097
asg22
V[ +voice -palletized -sonorant ]
p5098
sbsg22
V[ +voice -palletized -sonorant ] ---> [ -voice ] /  _ #
p5099
sba(irule
Rule
p5100
(dp5101
g15
(irule
Guard
p5102
(dp5103
g18
I00
sg19
(lp5104
sg21
I00
sg22
V
sg23
I00
sg24
S'L'
sbsg25
(irule
FeatureMatrix
p5105
(dp5106
g28
(lp5107
(I00
g3434
tp5108
a(I00
g3369
tp5109
asg22
V[ -voice -vowel ]
p5110
sbsg33
(irule
Guard
p5111
(dp5112
g18
I01
sg19
(lp5113
sg21
I00
sg22
V#
sg23
I00
sg24
S'R'
sbsg37
(irule
FeatureMatrix
p5114
(dp5115
g28
(lp5116
(I00
g3398
tp5117
a(I00
g3378
tp5118
asg22
V[ -liquid -sonorant ]
p5119
sbsg22
V[ -liquid -sonorant ] ---> [ -voice -vowel ] /  _ #
p5120
sba(irule
Rule
p5121
(dp5122
g15
(irule
Guard
p5123
(dp5124
g18
I00
sg19
(lp5125
sg21
I00
sg22
V
sg23
I00
sg24
S'L'
sbsg25
(irule
FeatureMatrix
p5126
(dp5127
g28
(lp5128
(I00
g3495
tp5129
a(I00
g3369
tp5130
asg22
V[ -palletized -voice ]
p5131
sbsg33
(irule
Guard
p5132
(dp5133
g18
I01
sg19
(lp5134
sg21
I00
sg22
V#
sg23
I00
sg24
S'R'
sbsg37
(irule
FeatureMatrix
p5135
(dp5136
g28
(lp5137
(I00
g3378
tp5138
a(I01
g3369
tp5139
asg22
V[ +voice -sonorant ]
p5140
sbsg22
V[ +voice -sonorant ] ---> [ -palletized -voice ] /  _ #
p5141
sba(irule
Rule
p5142
(dp5143
g15
(irule
Guard
p5144
(dp5145
g18
I00
sg19
(lp5146
sg21
I00
sg22
V
sg23
I00
sg24
S'L'
sbsg25
(irule
FeatureMatrix
p5147
(dp5148
g28
(lp5149
(I00
g3369
tp5150
asg22
V[ -voice ]
p5151
sbsg33
(irule
Guard
p5152
(dp5153
g18
I01
sg19
(lp5154
sg21
I00
sg22
V#
sg23
I00
sg24
S'R'
sbsg37
(irule
FeatureMatrix
p5155
(dp5156
g28
(lp5157
(I00
g3378
tp5158
a(I00
g3495
tp5159
a(I00
g3434
tp5160
asg22
V[ -palletized -sonorant -vowel ]
p5161
sbsg22
V[ -palletized -sonorant -vowel ] ---> [ -voice ] /  _ #
p5162
sba(irule
Rule
p5163
(dp5164
g15
(irule
Guard
p5165
(dp5166
g18
I00
sg19
(lp5167
sg21
I00
sg22
V
sg23
I00
sg24
S'L'
sbsg25
(irule
FeatureMatrix
p5168
(dp5169
g28
(lp5170
(I00
g3398
tp5171
a(I00
g3369
tp5172
asg22
V[ -liquid -voice ]
p5173
sbsg33
(irule
Guard
p5174
(dp5175
g18
I01
sg19
(lp5176
sg21
I00
sg22
V#
sg23
I00
sg24
S'R'
sbsg37
(irule
FeatureMatrix
p5177
(dp5178
g28
(lp5179
(I00
g3378
tp5180
a(I01
g3369
tp5181
asg22
V[ +voice -sonorant ]
p5182
sbsg22
V[ +voice -sonorant ] ---> [ -liquid -voice ] /  _ #
p5183
sba(irule
Rule
p5184
(dp5185
g15
(irule
Guard
p5186
(dp5187
g18
I00
sg19
(lp5188
sg21
I00
sg22
V
sg23
I00
sg24
S'L'
sbsg25
(irule
FeatureMatrix
p5189
(dp5190
g28
(lp5191
(I00
g3536
tp5192
a(I00
g3378
tp5193
a(I00
g3369
tp5194
asg22
V[ -nasal -sonorant -voice ]
p5195
sbsg33
(irule
Guard
p5196
(dp5197
g18
I01
sg19
(lp5198
sg21
I00
sg22
V#
sg23
I00
sg24
S'R'
sbsg37
(irule
FeatureMatrix
p5199
(dp5200
g28
(lp5201
(I00
g3378
tp5202
asg22
V[ -sonorant ]
p5203
sbsg22
V[ -sonorant ] ---> [ -nasal -sonorant -voice ] /  _ #
p5204
sba(irule
Rule
p5205
(dp5206
g15
(irule
Guard
p5207
(dp5208
g18
I00
sg19
(lp5209
sg21
I00
sg22
V
sg23
I00
sg24
S'L'
sbsg25
(irule
FeatureMatrix
p5210
(dp5211
g28
(lp5212
(I00
g3367
tp5213
a(I00
g3369
tp5214
asg22
V[ -tense -voice ]
p5215
sbsg33
(irule
Guard
p5216
(dp5217
g18
I01
sg19
(lp5218
sg21
I00
sg22
V#
sg23
I00
sg24
S'R'
sbsg37
(irule
FeatureMatrix
p5219
(dp5220
g28
(lp5221
(I00
g3378
tp5222
a(I00
g3495
tp5223
asg22
V[ -palletized -sonorant ]
p5224
sbsg22
V[ -palletized -sonorant ] ---> [ -tense -voice ] /  _ #
p5225
sba(irule
Rule
p5226
(dp5227
g15
(irule
Guard
p5228
(dp5229
g18
I00
sg19
(lp5230
sg21
I00
sg22
V
sg23
I00
sg24
S'L'
sbsg25
(irule
FeatureMatrix
p5231
(dp5232
g28
(lp5233
(I00
g3658
tp5234
a(I00
g3398
tp5235
a(I00
g3369
tp5236
asg22
V[ -glide -liquid -voice ]
p5237
sbsg33
(irule
Guard
p5238
(dp5239
g18
I01
sg19
(lp5240
sg21
I00
sg22
V#
sg23
I00
sg24
S'R'
sbsg37
(irule
FeatureMatrix
p5241
(dp5242
g28
(lp5243
(I00
g3378
tp5244
asg22
V[ -sonorant ]
p5245
sbsg22
V[ -sonorant ] ---> [ -glide -liquid -voice ] /  _ #
p5246
sba(irule
Rule
p5247
(dp5248
g15
(irule
Guard
p5249
(dp5250
g18
I00
sg19
(lp5251
sg21
I00
sg22
V
sg23
I00
sg24
S'L'
sbsg25
(irule
FeatureMatrix
p5252
(dp5253
g28
(lp5254
(I00
g3679
tp5255
a(I00
g3369
tp5256
asg22
V[ -rounded -voice ]
p5257
sbsg33
(irule
Guard
p5258
(dp5259
g18
I01
sg19
(lp5260
sg21
I00
sg22
V#
sg23
I00
sg24
S'R'
sbsg37
(irule
FeatureMatrix
p5261
(dp5262
g28
(lp5263
(I00
g3378
tp5264
a(I00
g3367
tp5265
asg22
V[ -sonorant -tense ]
p5266
sbsg22
V[ -sonorant -tense ] ---> [ -rounded -voice ] /  _ #
p5267
sba(irule
Rule
p5268
(dp5269
g15
(irule
Guard
p5270
(dp5271
g18
I00
sg19
(lp5272
sg21
I00
sg22
V
sg23
I00
sg24
S'L'
sbsg25
(irule
FeatureMatrix
p5273
(dp5274
g28
(lp5275
(I00
g3369
tp5276
asg22
V[ -voice ]
p5277
sbsg33
(irule
Guard
p5278
(dp5279
g18
I01
sg19
(lp5280
sg21
I00
sg22
V#
sg23
I00
sg24
S'R'
sbsg37
(irule
FeatureMatrix
p5281
(dp5282
g28
(lp5283
(I00
g3679
tp5284
a(I00
g3658
tp5285
a(I00
g3378
tp5286
asg22
V[ -glide -rounded -sonorant ]
p5287
sbsg22
V[ -glide -rounded -sonorant ] ---> [ -voice ] /  _ #
p5288
sba(irule
Rule
p5289
(dp5290
g15
(irule
Guard
p5291
(dp5292
g18
I00
sg19
(lp5293
sg21
I00
sg22
V
sg23
I00
sg24
S'L'
sbsg25
(irule
FeatureMatrix
p5294
(dp5295
g28
(lp5296
(I00
g3369
tp5297
asg22
V[ -voice ]
p5298
sbsg33
(irule
Guard
p5299
(dp5300
g18
I01
sg19
(lp5301
sg21
I00
sg22
V#
sg23
I00
sg24
S'R'
sbsg37
(irule
FeatureMatrix
p5302
(dp5303
g28
(lp5304
(I00
g3378
tp5305
a(I00
g3495
tp5306
a(I00
g3367
tp5307
asg22
V[ -palletized -sonorant -tense ]
p5308
sbsg22
V[ -palletized -sonorant -tense ] ---> [ -voice ] /  _ #
p5309
sba(irule
Rule
p5310
(dp5311
g15
(irule
Guard
p5312
(dp5313
g18
I00
sg19
(lp5314
sg21
I00
sg22
V
sg23
I00
sg24
S'L'
sbsg25
(irule
FeatureMatrix
p5315
(dp5316
g28
(lp5317
(I00
g3679
tp5318
a(I00
g3495
tp5319
a(I00
g3369
tp5320
asg22
V[ -palletized -rounded -voice ]
p5321
sbsg33
(irule
Guard
p5322
(dp5323
g18
I01
sg19
(lp5324
sg21
I00
sg22
V#
sg23
I00
sg24
S'R'
sbsg37
(irule
FeatureMatrix
p5325
(dp5326
g28
(lp5327
(I00
g3378
tp5328
asg22
V[ -sonorant ]
p5329
sbsg22
V[ -sonorant ] ---> [ -palletized -rounded -voice ] /  _ #
p5330
sba(irule
Rule
p5331
(dp5332
g15
(irule
Guard
p5333
(dp5334
g18
I00
sg19
(lp5335
sg21
I00
sg22
V
sg23
I00
sg24
S'L'
sbsg25
(irule
FeatureMatrix
p5336
(dp5337
g28
(lp5338
(I00
g3369
tp5339
asg22
V[ -voice ]
p5340
sbsg33
(irule
Guard
p5341
(dp5342
g18
I01
sg19
(lp5343
sg21
I00
sg22
V#
sg23
I00
sg24
S'R'
sbsg37
(irule
FeatureMatrix
p5344
(dp5345
g28
(lp5346
(I00
g3679
tp5347
a(I00
g3398
tp5348
a(I00
g3378
tp5349
asg22
V[ -liquid -rounded -sonorant ]
p5350
sbsg22
V[ -liquid -rounded -sonorant ] ---> [ -voice ] /  _ #
p5351
sba(irule
Rule
p5352
(dp5353
g15
(irule
Guard
p5354
(dp5355
g18
I00
sg19
(lp5356
sg21
I00
sg22
V
sg23
I00
sg24
S'L'
sbsg25
(irule
FeatureMatrix
p5357
(dp5358
g28
(lp5359
(I00
g3378
tp5360
a(I00
g3367
tp5361
a(I00
g3369
tp5362
asg22
V[ -sonorant -tense -voice ]
p5363
sbsg33
(irule
Guard
p5364
(dp5365
g18
I01
sg19
(lp5366
sg21
I00
sg22
V#
sg23
I00
sg24
S'R'
sbsg37
(irule
FeatureMatrix
p5367
(dp5368
g28
(lp5369
(I00
g3378
tp5370
asg22
V[ -sonorant ]
p5371
sbsg22
V[ -sonorant ] ---> [ -sonorant -tense -voice ] /  _ #
p5372
sba(irule
Rule
p5373
(dp5374
g15
(irule
Guard
p5375
(dp5376
g18
I00
sg19
(lp5377
sg21
I00
sg22
V
sg23
I00
sg24
S'L'
sbsg25
(irule
FeatureMatrix
p5378
(dp5379
g28
(lp5380
(I00
g3378
tp5381
a(I00
g3434
tp5382
a(I00
g3369
tp5383
asg22
V[ -sonorant -voice -vowel ]
p5384
sbsg33
(irule
Guard
p5385
(dp5386
g18
I01
sg19
(lp5387
sg21
I00
sg22
V#
sg23
I00
sg24
S'R'
sbsg37
(irule
FeatureMatrix
p5388
(dp5389
g28
(lp5390
(I00
g3378
tp5391
asg22
V[ -sonorant ]
p5392
sbsg22
V[ -sonorant ] ---> [ -sonorant -voice -vowel ] /  _ #
p5393
sba(irule
Rule
p5394
(dp5395
g15
(irule
Guard
p5396
(dp5397
g18
I00
sg19
(lp5398
sg21
I00
sg22
V
sg23
I00
sg24
S'L'
sbsg25
(irule
FeatureMatrix
p5399
(dp5400
g28
(lp5401
(I00
g3495
tp5402
a(I00
g3369
tp5403
asg22
V[ -palletized -voice ]
p5404
sbsg33
(irule
Guard
p5405
(dp5406
g18
I01
sg19
(lp5407
sg21
I00
sg22
V#
sg23
I00
sg24
S'R'
sbsg37
(irule
FeatureMatrix
p5408
(dp5409
g28
(lp5410
(I00
g3378
tp5411
a(I00
g3495
tp5412
asg22
V[ -palletized -sonorant ]
p5413
sbsg22
V[ -palletized -sonorant ] ---> [ -palletized -voice ] /  _ #
p5414
sba(irule
Rule
p5415
(dp5416
g15
(irule
Guard
p5417
(dp5418
g18
I00
sg19
(lp5419
sg21
I00
sg22
V
sg23
I00
sg24
S'L'
sbsg25
(irule
FeatureMatrix
p5420
(dp5421
g28
(lp5422
(I00
g3367
tp5423
a(I00
g3369
tp5424
asg22
V[ -tense -voice ]
p5425
sbsg33
(irule
Guard
p5426
(dp5427
g18
I01
sg19
(lp5428
sg21
I00
sg22
V#
sg23
I00
sg24
S'R'
sbsg37
(irule
FeatureMatrix
p5429
(dp5430
g28
(lp5431
(I00
g3378
tp5432
a(I00
g3434
tp5433
asg22
V[ -sonorant -vowel ]
p5434
sbsg22
V[ -sonorant -vowel ] ---> [ -tense -voice ] /  _ #
p5435
sba(irule
Rule
p5436
(dp5437
g15
(irule
Guard
p5438
(dp5439
g18
I00
sg19
(lp5440
sg21
I00
sg22
V
sg23
I00
sg24
S'L'
sbsg25
(irule
FeatureMatrix
p5441
(dp5442
g28
(lp5443
(I00
g3398
tp5444
a(I00
g3536
tp5445
a(I00
g3369
tp5446
asg22
V[ -liquid -nasal -voice ]
p5447
sbsg33
(irule
Guard
p5448
(dp5449
g18
I01
sg19
(lp5450
sg21
I00
sg22
V#
sg23
I00
sg24
S'R'
sbsg37
(irule
FeatureMatrix
p5451
(dp5452
g28
(lp5453
(I00
g3378
tp5454
asg22
V[ -sonorant ]
p5455
sbsg22
V[ -sonorant ] ---> [ -liquid -nasal -voice ] /  _ #
p5456
sba(irule
Rule
p5457
(dp5458
g15
(irule
Guard
p5459
(dp5460
g18
I00
sg19
(lp5461
sg21
I00
sg22
V
sg23
I00
sg24
S'L'
sbsg25
(irule
FeatureMatrix
p5462
(dp5463
g28
(lp5464
(I00
g3369
tp5465
asg22
V[ -voice ]
p5466
sbsg33
(irule
Guard
p5467
(dp5468
g18
I01
sg19
(lp5469
sg21
I00
sg22
V#
sg23
I00
sg24
S'R'
sbsg37
(irule
FeatureMatrix
p5470
(dp5471
g28
(lp5472
(I00
g3536
tp5473
a(I00
g3378
tp5474
a(I01
g3369
tp5475
asg22
V[ +voice -nasal -sonorant ]
p5476
sbsg22
V[ +voice -nasal -sonorant ] ---> [ -voice ] /  _ #
p5477
sba(irule
Rule
p5478
(dp5479
g15
(irule
Guard
p5480
(dp5481
g18
I00
sg19
(lp5482
sg21
I00
sg22
V
sg23
I00
sg24
S'L'
sbsg25
(irule
FeatureMatrix
p5483
(dp5484
g28
(lp5485
(I00
g3434
tp5486
a(I00
g3369
tp5487
asg22
V[ -voice -vowel ]
p5488
sbsg33
(irule
Guard
p5489
(dp5490
g18
I01
sg19
(lp5491
sg21
I00
sg22
V#
sg23
I00
sg24
S'R'
sbsg37
(irule
FeatureMatrix
p5492
(dp5493
g28
(lp5494
(I00
g3378
tp5495
a(I00
g3495
tp5496
asg22
V[ -palletized -sonorant ]
p5497
sbsg22
V[ -palletized -sonorant ] ---> [ -voice -vowel ] /  _ #
p5498
sba(irule
Rule
p5499
(dp5500
g15
(irule
Guard
p5501
(dp5502
g18
I00
sg19
(lp5503
sg21
I00
sg22
V
sg23
I00
sg24
S'L'
sbsg25
(irule
FeatureMatrix
p5504
(dp5505
g28
(lp5506
(I00
g3658
tp5507
a(I00
g3617
tp5508
a(I00
g3369
tp5509
asg22
V[ -glide -lateral -voice ]
p5510
sbsg33
(irule
Guard
p5511
(dp5512
g18
I01
sg19
(lp5513
sg21
I00
sg22
V#
sg23
I00
sg24
S'R'
sbsg37
(irule
FeatureMatrix
p5514
(dp5515
g28
(lp5516
(I00
g3378
tp5517
asg22
V[ -sonorant ]
p5518
sbsg22
V[ -sonorant ] ---> [ -glide -lateral -voice ] /  _ #
p5519
sba(irule
Rule
p5520
(dp5521
g15
(irule
Guard
p5522
(dp5523
g18
I00
sg19
(lp5524
sg21
I00
sg22
V
sg23
I00
sg24
S'L'
sbsg25
(irule
FeatureMatrix
p5525
(dp5526
g28
(lp5527
(I00
g3679
tp5528
a(I00
g3536
tp5529
a(I00
g3369
tp5530
asg22
V[ -nasal -rounded -voice ]
p5531
sbsg33
(irule
Guard
p5532
(dp5533
g18
I01
sg19
(lp5534
sg21
I00
sg22
V#
sg23
I00
sg24
S'R'
sbsg37
(irule
FeatureMatrix
p5535
(dp5536
g28
(lp5537
(I00
g3378
tp5538
asg22
V[ -sonorant ]
p5539
sbsg22
V[ -sonorant ] ---> [ -nasal -rounded -voice ] /  _ #
p5540
sbaasbsS'parameters'
p5541
g6
(cargparse
Namespace
p5542
g8
NtRp5543
(dp5544
S'restore'
p5545
NsS'features'
p5546
S'sophisticated'
p5547
sS'universal'
p5548
NsS'restrict'
p5549
NsS'seed'
p5550
NsS'serial'
p5551
I00
sS'cv'
p5552
I00
sS'alignment'
p5553
I00
sS'top'
p5554
I100
sS'maximumDepth'
p5555
I3
sS'window'
p5556
NsS'minimizeBits'
p5557
I5
sS'samples'
p5558
I30
sS'save'
p5559
NsS'resume'
p5560
I00
sS'disableClean'
p5561
I00
sS'stemBaseline'
p5562
I30
sS'dummy'
p5563
I00
sS'task'
p5564
S'incremental'
p5565
sS'geometry'
p5566
I01
sS'verbosity'
p5567
I0
sS'noConstant'
p5568
I00
sS'timeout'
p5569
F1
sS'debug'
p5570
NsS'cores'
p5571
I12
sg656
S'Odden_3.2_Polish'
p5572
sS'mergeFrontiers'
p5573
I00
sbsb.