(iresult
Result
p1
(dp2
S'startTime'
p3
F1554923921.127619
sS'solutionSequence'
p4
(lp5
(ccopy_reg
_reconstructor
p6
(csolution
Solution
p7
c__builtin__
object
p8
NtRp9
(dp10
S'rules'
p11
(lp12
(irule
Rule
p13
(dp14
S'leftTriggers'
p15
(irule
Guard
p16
(dp17
S'endOfString'
p18
I00
sS'specifications'
p19
(lp20
sS'optionalEnding'
p21
I00
sS'representation'
p22
V
sS'starred'
p23
I00
sS'side'
p24
S'L'
sbsS'structuralChange'
p25
(irule
FeatureMatrix
p26
(dp27
S'featuresAndPolarities'
p28
(lp29
(I00
S'voice'
p30
tp31
asg22
V[ -voice ]
p32
sbsS'rightTriggers'
p33
(irule
Guard
p34
(dp35
g18
I01
sg19
(lp36
sg21
I00
sg22
V#
sg23
I00
sg24
S'R'
sbsS'focus'
p37
(irule
ConstantPhoneme
p38
(dp39
S'p'
Vb
sbsg22
Vb ---> [ -voice ] /  _ #
p40
sbasS'prefixes'
p41
(lp42
(imorph
Morph
p43
(dp44
S'phonemes'
p45
(lp46
sba(imorph
Morph
p47
(dp48
g45
(lp49
sbasS'underlyingForms'
p50
(dp51
((imorph
Morph
p52
(dp53
g45
(lp54
Vk
aVl
aVu
aVp
asb(imorph
Morph
p55
(dp56
g45
(lp57
Vk
aVl
aVu
aVb
aVi
asbtp58
(imorph
Morph
p59
(dp60
g45
(lp61
Vk
aVl
aVu
aVb
asbs((imorph
Morph
p62
(dp63
g45
(lp64
Vt
aVr
aVu
aVp
asb(imorph
Morph
p65
(dp66
g45
(lp67
Vt
aVr
aVu
aVp
aVi
asbtp68
(imorph
Morph
p69
(dp70
g45
(lp71
Vt
aVr
aVu
aVp
asbssS'suffixes'
p72
(lp73
(imorph
Morph
p74
(dp75
g45
(lp76
sba(imorph
Morph
p77
(dp78
g45
(lp79
Vi
asbasbF17.707727909088135
tp80
a(g6
(g7
g8
NtRp81
(dp82
g11
(lp83
(irule
Rule
p84
(dp85
g15
(irule
Guard
p86
(dp87
g18
I00
sg19
(lp88
(irule
ConstantPhoneme
p89
(dp90
S'p'
Vi
sbasg21
I00
sg22
Vi
sg23
I00
sg24
S'L'
sbsg25
(irule
ConstantPhoneme
p91
(dp92
S'p'
Vp
sbsg33
(irule
Guard
p93
(dp94
g18
I00
sg19
(lp95
sg21
I00
sg22
V
sg23
I00
sg24
S'R'
sbsg37
(irule
FeatureMatrix
p96
(dp97
g28
(lp98
sg22
V[  ]
p99
sbsg22
V[  ] ---> p / i _ 
p100
sba(irule
Rule
p101
(dp102
g15
(irule
Guard
p103
(dp104
g18
I00
sg19
(lp105
sg21
I00
sg22
V
sg23
I00
sg24
S'L'
sbsg25
(irule
ConstantPhoneme
p106
(dp107
S'p'
Vu
sbsg33
(irule
Guard
p108
(dp109
g18
I00
sg19
(lp110
(irule
FeatureMatrix
p111
(dp112
g28
(lp113
(I00
g30
tp114
asg22
V[ -voice ]
p115
sbasg21
I00
sg22
g115
sg23
I00
sg24
S'R'
sbsg37
(irule
FeatureMatrix
p116
(dp117
g28
(lp118
sg22
V[  ]
p119
sbsg22
V[  ] ---> u /  _ [ -voice ]
p120
sbasg41
(lp121
(imorph
Morph
p122
(dp123
g45
(lp124
sba(imorph
Morph
p125
(dp126
g45
(lp127
sbasg50
(dp128
(g52
g55
tp129
(imorph
Morph
p130
(dp131
g45
(lp132
Vk
aVl
aVu
asbs(g62
g65
tp133
(imorph
Morph
p134
(dp135
g45
(lp136
Vt
aVr
aVi
asbs((imorph
Morph
p137
(dp138
g45
(lp139
Vz\u030c
p140
aVw
aVu
aVp
asb(imorph
Morph
p141
(dp142
g45
(lp143
Vz\u030c
p144
aVw
aVo
aVb
aVi
asbtp145
(imorph
Morph
p146
(dp147
g45
(lp148
Vz\u030c
p149
aVw
aVo
asbssg72
(lp150
(imorph
Morph
p151
(dp152
g45
(lp153
Vp
asba(imorph
Morph
p154
(dp155
g45
(lp156
Vb
aVi
asbasbF439.62538003921509
tp157
a(g6
(g7
g8
NtRp158
(dp159
g11
(lp160
(irule
Rule
p161
(dp162
g15
(irule
Guard
p163
(dp164
g18
I00
sg19
(lp165
sg21
I00
sg22
V
sg23
I00
sg24
S'L'
sbsg25
(irule
ConstantPhoneme
p166
(dp167
S'p'
Vp
sbsg33
(irule
Guard
p168
(dp169
g18
I01
sg19
(lp170
sg21
I00
sg22
V#
sg23
I00
sg24
S'R'
sbsg37
(irule
ConstantPhoneme
p171
(dp172
S'p'
Vb
sbsg22
Vb ---> p /  _ #
p173
sba(irule
Rule
p174
(dp175
g15
(irule
Guard
p176
(dp177
g18
I00
sg19
(lp178
sg21
I00
sg22
V
sg23
I00
sg24
S'L'
sbsg25
(irule
ConstantPhoneme
p179
(dp180
S'p'
Vu
sbsg33
(irule
Guard
p181
(dp182
g18
I00
sg19
(lp183
(irule
ConstantPhoneme
p184
(dp185
S'p'
Vp
sbasg21
I00
sg22
Vp
sg23
I00
sg24
S'R'
sbsg37
(irule
FeatureMatrix
p186
(dp187
g28
(lp188
sg22
V[  ]
p189
sbsg22
V[  ] ---> u /  _ p
p190
sbasg41
(lp191
(imorph
Morph
p192
(dp193
g45
(lp194
sba(imorph
Morph
p195
(dp196
g45
(lp197
sbasg50
(dp198
(g52
g55
tp199
(imorph
Morph
p200
(dp201
g45
(lp202
Vk
aVl
aVu
aVb
asbs(g62
g65
tp203
(imorph
Morph
p204
(dp205
g45
(lp206
Vt
aVr
aVu
aVp
asbs((imorph
Morph
p207
(dp208
g45
(lp209
Vd
aVo
aVm
asb(imorph
Morph
p210
(dp211
g45
(lp212
Vd
aVo
aVm
aVi
asbtp213
(imorph
Morph
p214
(dp215
g45
(lp216
Vd
aVo
aVm
asbs(g137
g141
tp217
(imorph
Morph
p218
(dp219
g45
(lp220
g149
aVw
aVo
aVb
asbssg72
(lp221
(imorph
Morph
p222
(dp223
g45
(lp224
sba(imorph
Morph
p225
(dp226
g45
(lp227
Vi
asbasbF972.42512488365173
tp228
a(g6
(g7
g8
NtRp229
(dp230
g11
(lp231
(irule
Rule
p232
(dp233
g15
(irule
Guard
p234
(dp235
g18
I00
sg19
(lp236
sg21
I00
sg22
V
sg23
I00
sg24
S'L'
sbsg25
(irule
ConstantPhoneme
p237
(dp238
S'p'
Vu
sbsg33
(irule
Guard
p239
(dp240
g18
I01
sg19
(lp241
(irule
ConstantPhoneme
p242
(dp243
S'p'
Vb
sbasg21
I00
sg22
Vb #
p244
sg23
I00
sg24
S'R'
sbsg37
(irule
FeatureMatrix
p245
(dp246
g28
(lp247
sg22
V[  ]
p248
sbsg22
V[  ] ---> u /  _ b #
p249
sba(irule
Rule
p250
(dp251
g15
(irule
Guard
p252
(dp253
g18
I00
sg19
(lp254
sg21
I00
sg22
V
sg23
I00
sg24
S'L'
sbsg25
(irule
ConstantPhoneme
p255
(dp256
S'p'
Vp
sbsg33
(irule
Guard
p257
(dp258
g18
I01
sg19
(lp259
sg21
I00
sg22
V#
sg23
I00
sg24
S'R'
sbsg37
(irule
ConstantPhoneme
p260
(dp261
S'p'
Vb
sbsg22
Vb ---> p /  _ #
p262
sbasg41
(lp263
(imorph
Morph
p264
(dp265
g45
(lp266
sba(imorph
Morph
p267
(dp268
g45
(lp269
sbasg50
(dp270
(g52
g55
tp271
(imorph
Morph
p272
(dp273
g45
(lp274
Vk
aVl
aVu
aVb
asbs(g62
g65
tp275
(imorph
Morph
p276
(dp277
g45
(lp278
Vt
aVr
aVu
aVp
asbs(g207
g210
tp279
(imorph
Morph
p280
(dp281
g45
(lp282
Vd
aVo
aVm
asbs(g137
g141
tp283
(imorph
Morph
p284
(dp285
g45
(lp286
g149
aVw
aVo
aVb
asbs((imorph
Morph
p287
(dp288
g45
(lp289
Vs
aVn
aVo
aVp
asb(imorph
Morph
p290
(dp291
g45
(lp292
Vs
aVn
aVo
aVp
aVi
asbtp293
(imorph
Morph
p294
(dp295
g45
(lp296
Vs
aVn
aVo
aVp
asbssg72
(lp297
(imorph
Morph
p298
(dp299
g45
(lp300
sba(imorph
Morph
p301
(dp302
g45
(lp303
Vi
asbasbF1545.9190740585327
tp304
a(g6
(g7
g8
NtRp305
(dp306
g11
(lp307
(irule
Rule
p308
(dp309
g15
(irule
Guard
p310
(dp311
g18
I00
sg19
(lp312
sg21
I00
sg22
V
sg23
I00
sg24
S'L'
sbsg25
(irule
ConstantPhoneme
p313
(dp314
S'p'
Vu
sbsg33
(irule
Guard
p315
(dp316
g18
I01
sg19
(lp317
(irule
ConstantPhoneme
p318
(dp319
S'p'
Vb
sbasg21
I00
sg22
Vb #
p320
sg23
I00
sg24
S'R'
sbsg37
(irule
FeatureMatrix
p321
(dp322
g28
(lp323
sg22
V[  ]
p324
sbsg22
V[  ] ---> u /  _ b #
p325
sba(irule
Rule
p326
(dp327
g15
(irule
Guard
p328
(dp329
g18
I00
sg19
(lp330
sg21
I00
sg22
V
sg23
I00
sg24
S'L'
sbsg25
(irule
FeatureMatrix
p331
(dp332
g28
(lp333
(I00
g30
tp334
asg22
V[ -voice ]
p335
sbsg33
(irule
Guard
p336
(dp337
g18
I01
sg19
(lp338
sg21
I00
sg22
V#
sg23
I00
sg24
S'R'
sbsg37
(irule
FeatureMatrix
p339
(dp340
g28
(lp341
(I00
S'sonorant'
p342
tp343
asg22
V[ -sonorant ]
p344
sbsg22
V[ -sonorant ] ---> [ -voice ] /  _ #
p345
sbasg41
(lp346
(imorph
Morph
p347
(dp348
g45
(lp349
sba(imorph
Morph
p350
(dp351
g45
(lp352
sbasg50
(dp353
(g207
g210
tp354
(imorph
Morph
p355
(dp356
g45
(lp357
Vd
aVo
aVm
asbs((imorph
Morph
p358
(dp359
g45
(lp360
Vt
aVr
aVu
aVt
asb(imorph
Morph
p361
(dp362
g45
(lp363
Vt
aVr
aVu
aVd
aVi
asbtp364
(imorph
Morph
p365
(dp366
g45
(lp367
Vt
aVr
aVu
aVd
asbs(g287
g290
tp368
(imorph
Morph
p369
(dp370
g45
(lp371
Vs
aVn
aVo
aVp
asbs(g62
g65
tp372
(imorph
Morph
p373
(dp374
g45
(lp375
Vt
aVr
aVu
aVp
asbs(g52
g55
tp376
(imorph
Morph
p377
(dp378
g45
(lp379
Vk
aVl
aVu
aVb
asbs(g137
g141
tp380
(imorph
Morph
p381
(dp382
g45
(lp383
g149
aVw
aVo
aVb
asbssg72
(lp384
(imorph
Morph
p385
(dp386
g45
(lp387
sba(imorph
Morph
p388
(dp389
g45
(lp390
Vi
asbasbF2175.3104500770569
tp391
a(g6
(g7
g8
NtRp392
(dp393
g11
(lp394
(irule
Rule
p395
(dp396
g15
(irule
Guard
p397
(dp398
g18
I00
sg19
(lp399
sg21
I00
sg22
V
sg23
I00
sg24
S'L'
sbsg25
(irule
ConstantPhoneme
p400
(dp401
S'p'
Vu
sbsg33
(irule
Guard
p402
(dp403
g18
I01
sg19
(lp404
(irule
FeatureMatrix
p405
(dp406
g28
(lp407
(I00
g342
tp408
a(I01
g30
tp409
asg22
V[ +voice -sonorant ]
p410
sbasg21
I00
sg22
V[ +voice -sonorant ] #
p411
sg23
I00
sg24
S'R'
sbsg37
(irule
FeatureMatrix
p412
(dp413
g28
(lp414
sg22
V[  ]
p415
sbsg22
V[  ] ---> u /  _ [ +voice -sonorant ] #
p416
sba(irule
Rule
p417
(dp418
g15
(irule
Guard
p419
(dp420
g18
I00
sg19
(lp421
sg21
I00
sg22
V
sg23
I00
sg24
S'L'
sbsg25
(irule
FeatureMatrix
p422
(dp423
g28
(lp424
(I00
g30
tp425
asg22
V[ -voice ]
p426
sbsg33
(irule
Guard
p427
(dp428
g18
I01
sg19
(lp429
sg21
I00
sg22
V#
sg23
I00
sg24
S'R'
sbsg37
(irule
FeatureMatrix
p430
(dp431
g28
(lp432
(I00
g342
tp433
asg22
V[ -sonorant ]
p434
sbsg22
V[ -sonorant ] ---> [ -voice ] /  _ #
p435
sbasg41
(lp436
(imorph
Morph
p437
(dp438
g45
(lp439
sba(imorph
Morph
p440
(dp441
g45
(lp442
sbasg50
(dp443
(g207
g210
tp444
(imorph
Morph
p445
(dp446
g45
(lp447
Vd
aVo
aVm
asbs((imorph
Morph
p448
(dp449
g45
(lp450
Vl
aVu
aVt
asb(imorph
Morph
p451
(dp452
g45
(lp453
Vl
aVo
aVd
aVi
asbtp454
(imorph
Morph
p455
(dp456
g45
(lp457
Vl
aVo
aVd
asbs(g358
g361
tp458
(imorph
Morph
p459
(dp460
g45
(lp461
Vt
aVr
aVu
aVd
asbs(g287
g290
tp462
(imorph
Morph
p463
(dp464
g45
(lp465
Vs
aVn
aVo
aVp
asbs(g62
g65
tp466
(imorph
Morph
p467
(dp468
g45
(lp469
Vt
aVr
aVu
aVp
asbs(g52
g55
tp470
(imorph
Morph
p471
(dp472
g45
(lp473
Vk
aVl
aVu
aVb
asbs(g137
g141
tp474
(imorph
Morph
p475
(dp476
g45
(lp477
g149
aVw
aVo
aVb
asbssg72
(lp478
(imorph
Morph
p479
(dp480
g45
(lp481
sba(imorph
Morph
p482
(dp483
g45
(lp484
Vi
asbasbF2729.7728850841522
tp485
a(g6
(g7
g8
NtRp486
(dp487
g11
(lp488
(irule
Rule
p489
(dp490
g15
(irule
Guard
p491
(dp492
g18
I00
sg19
(lp493
sg21
I00
sg22
V
sg23
I00
sg24
S'L'
sbsg25
(irule
ConstantPhoneme
p494
(dp495
S'p'
Vu
sbsg33
(irule
Guard
p496
(dp497
g18
I01
sg19
(lp498
(irule
FeatureMatrix
p499
(dp500
g28
(lp501
(I00
S'nasal'
p502
tp503
a(I01
g30
tp504
asg22
V[ +voice -nasal ]
p505
sbasg21
I00
sg22
V[ +voice -nasal ] #
p506
sg23
I00
sg24
S'R'
sbsg37
(irule
FeatureMatrix
p507
(dp508
g28
(lp509
(I01
S'tense'
p510
tp511
asg22
V[ +tense ]
p512
sbsg22
V[ +tense ] ---> u /  _ [ +voice -nasal ] #
p513
sba(irule
Rule
p514
(dp515
g15
(irule
Guard
p516
(dp517
g18
I00
sg19
(lp518
sg21
I00
sg22
V
sg23
I00
sg24
S'L'
sbsg25
(irule
FeatureMatrix
p519
(dp520
g28
(lp521
(I00
g30
tp522
asg22
V[ -voice ]
p523
sbsg33
(irule
Guard
p524
(dp525
g18
I01
sg19
(lp526
sg21
I00
sg22
V#
sg23
I00
sg24
S'R'
sbsg37
(irule
FeatureMatrix
p527
(dp528
g28
(lp529
(I00
g342
tp530
asg22
V[ -sonorant ]
p531
sbsg22
V[ -sonorant ] ---> [ -voice ] /  _ #
p532
sbasg41
(lp533
(imorph
Morph
p534
(dp535
g45
(lp536
sba(imorph
Morph
p537
(dp538
g45
(lp539
sbasg50
(dp540
((imorph
Morph
(dp541
g45
(lp542
Vw
aVu
aVk
asb(imorph
Morph
(dp543
g45
(lp544
Vw
aVu
aVk
aVi
asbtp545
(imorph
Morph
p546
(dp547
g45
(lp548
Vw
aVu
aVk
asbs((imorph
Morph
(dp549
g45
(lp550
Vv
aVu
aVw
asb(imorph
Morph
(dp551
g45
(lp552
Vv
aVo
aVw
aVi
asbtp553
(imorph
Morph
p554
(dp555
g45
(lp556
Vv
aVo
aVw
asbs((imorph
Morph
(dp557
g45
(lp558
Vb
aVu
aVy
asb(imorph
Morph
(dp559
g45
(lp560
Vb
aVo
aVy
aVi
asbtp561
(imorph
Morph
p562
(dp563
g45
(lp564
Vb
aVo
aVy
asbs((imorph
Morph
(dp565
g45
(lp566
Vr
aVu
aVk
asb(imorph
Morph
(dp567
g45
(lp568
Vr
aVo
aVg
aVi
asbtp569
(imorph
Morph
p570
(dp571
g45
(lp572
Vr
aVo
aVg
asbs(g52
g55
tp573
(imorph
Morph
p574
(dp575
g45
(lp576
Vk
aVl
aVu
aVb
asbs((imorph
Morph
(dp577
g45
(lp578
Vn
aVo
aVs
asb(imorph
Morph
(dp579
g45
(lp580
Vn
aVo
aVs
aVi
asbtp581
(imorph
Morph
p582
(dp583
g45
(lp584
Vn
aVo
aVs
asbs((imorph
Morph
(dp585
g45
(lp586
Vg
aVr
aVu
aVs
asb(imorph
Morph
(dp587
g45
(lp588
Vg
aVr
aVu
aVz
aVi
asbtp589
(imorph
Morph
p590
(dp591
g45
(lp592
Vg
aVr
aVu
aVz
asbs(g137
g141
tp593
(imorph
Morph
p594
(dp595
g45
(lp596
g149
aVw
aVo
aVb
asbs((imorph
Morph
(dp597
g45
(lp598
Vv
aVu
aVs
asb(imorph
Morph
(dp599
g45
(lp600
Vv
aVo
aVz
aVi
asbtp601
(imorph
Morph
p602
(dp603
g45
(lp604
Vv
aVo
aVz
asbs((imorph
Morph
(dp605
g45
(lp606
Vk
aVo
aVt
asb(imorph
Morph
(dp607
g45
(lp608
Vk
aVo
aVt
aVi
asbtp609
(imorph
Morph
p610
(dp611
g45
(lp612
Vk
aVo
aVt
asbs(g62
g65
tp613
(imorph
Morph
p614
(dp615
g45
(lp616
Vt
aVr
aVu
aVp
asbs((imorph
Morph
(dp617
g45
(lp618
V\u0161
aVu
aVm
asb(imorph
Morph
(dp619
g45
(lp620
V\u0161
aVu
aVm
aVi
asbtp621
(imorph
Morph
p622
(dp623
g45
(lp624
V\u0161
aVu
aVm
asbs((imorph
Morph
(dp625
g45
(lp626
Vw
aVu
aVk
asb(imorph
Morph
(dp627
g45
(lp628
Vw
aVu
aVg
aVi
asbtp629
(imorph
Morph
p630
(dp631
g45
(lp632
Vw
aVu
aVg
asbs((imorph
Morph
(dp633
g45
(lp634
Vz\u030c
p635
aVu
aVr
asb(imorph
Morph
(dp636
g45
(lp637
Vz\u030c
p638
aVu
aVr
aVi
asbtp639
(imorph
Morph
p640
(dp641
g45
(lp642
g149
aVu
aVr
asbs((imorph
Morph
p643
(dp644
g45
(lp645
Vb
aVu
aVr
asb(imorph
Morph
p646
(dp647
g45
(lp648
Vb
aVo
aVr
aVi
asbtp649
(imorph
Morph
p650
(dp651
g45
(lp652
Vb
aVo
aVr
asbs((imorph
Morph
(dp653
g45
(lp654
Vs
aVu
aVl
asb(imorph
Morph
(dp655
g45
(lp656
Vs
aVo
aVl
aVi
asbtp657
(imorph
Morph
p658
(dp659
g45
(lp660
Vs
aVo
aVl
asbs(g207
g210
tp661
(imorph
Morph
p662
(dp663
g45
(lp664
Vd
aVo
aVm
asbs((imorph
Morph
(dp665
g45
(lp666
Vs
aVo
aVk
asb(imorph
Morph
(dp667
g45
(lp668
Vs
aVo
aVk
aVi
asbtp669
(imorph
Morph
p670
(dp671
g45
(lp672
Vs
aVo
aVk
asbs(g358
g361
tp673
(imorph
Morph
p674
(dp675
g45
(lp676
Vt
aVr
aVu
aVd
asbs(g287
g290
tp677
(imorph
Morph
p678
(dp679
g45
(lp680
Vs
aVn
aVo
aVp
asbs((imorph
Morph
(dp681
g45
(lp682
Vd
aVz
aVv
aVo
aVn
asb(imorph
Morph
(dp683
g45
(lp684
Vd
aVz
aVv
aVo
aVn
aVi
asbtp685
(imorph
Morph
p686
(dp687
g45
(lp688
Vd
aVz
aVv
aVo
aVn
asbs(g448
g451
tp689
(imorph
Morph
p690
(dp691
g45
(lp692
Vl
aVo
aVd
asbssg72
(lp693
(imorph
Morph
p694
(dp695
g45
(lp696
sba(imorph
Morph
p697
(dp698
g45
(lp699
Vi
asbasbF3338.8619990348816
tp700
asS'problem'
p701
S'Odden_3.2_Polish'
p702
sS'finalFrontier'
p703
g6
(csolution
Frontier
p704
g8
NtRp705
(dp706
g41
g533
sg72
g693
sg50
g540
sS'frontiers'
p707
(lp708
(lp709
(irule
Rule
p710
(dp711
g15
(irule
Guard
p712
(dp713
g18
I00
sg19
(lp714
sg21
I00
sg22
V
sg23
I00
sg24
S'L'
sbsg25
(irule
ConstantPhoneme
p715
(dp716
S'p'
Vu
sbsg33
(irule
Guard
p717
(dp718
g18
I01
sg19
(lp719
(irule
FeatureMatrix
p720
(dp721
g28
(lp722
(I00
S'nasal'
tp723
a(I01
S'voice'
tp724
asg22
V[ +voice -nasal ]
p725
sbasg21
I00
sg22
V[ +voice -nasal ] #
p726
sg23
I00
sg24
S'R'
sbsg37
(irule
FeatureMatrix
p727
(dp728
g28
(lp729
(I01
S'tense'
tp730
asg22
V[ +tense ]
p731
sbsg22
V[ +tense ] ---> u /  _ [ +voice -nasal ] #
p732
sba(irule
Rule
p733
(dp734
g15
(irule
Guard
p735
(dp736
g18
I00
sg19
(lp737
sg21
I00
sg22
Nsg23
I00
sg24
S'L'
sbsg25
(irule
ConstantPhoneme
p738
(dp739
S'p'
Vu
sbsg33
(irule
Guard
p740
(dp741
g18
I01
sg19
(lp742
(irule
FeatureMatrix
p743
(dp744
g28
(lp745
(I00
S'nasal'
p746
tp747
a(I00
S'vowel'
p748
tp749
a(I01
S'voice'
p750
tp751
asg22
Nsbasg21
I00
sg22
Nsg23
I00
sg24
S'R'
sbsg37
(irule
FeatureMatrix
p752
(dp753
g28
(lp754
sg22
Nsbsg22
Nsba(irule
Rule
p755
(dp756
g15
(irule
Guard
p757
(dp758
g18
I00
sg19
(lp759
sg21
I00
sg22
Nsg23
I00
sg24
S'L'
sbsg25
(irule
ConstantPhoneme
p760
(dp761
S'p'
Vu
sbsg33
(irule
Guard
p762
(dp763
g18
I01
sg19
(lp764
(irule
FeatureMatrix
p765
(dp766
g28
(lp767
(I00
g746
tp768
a(I01
g750
tp769
asg22
Nsbasg21
I00
sg22
Nsg23
I00
sg24
S'R'
sbsg37
(irule
FeatureMatrix
p770
(dp771
g28
(lp772
(I01
g748
tp773
asg22
Nsbsg22
Nsba(irule
Rule
p774
(dp775
g15
(irule
Guard
p776
(dp777
g18
I00
sg19
(lp778
sg21
I00
sg22
Nsg23
I00
sg24
S'L'
sbsg25
(irule
ConstantPhoneme
p779
(dp780
S'p'
Vu
sbsg33
(irule
Guard
p781
(dp782
g18
I01
sg19
(lp783
(irule
FeatureMatrix
p784
(dp785
g28
(lp786
(I00
g746
tp787
a(I00
S'tense'
p788
tp789
a(I01
g750
tp790
asg22
Nsbasg21
I00
sg22
Nsg23
I00
sg24
S'R'
sbsg37
(irule
FeatureMatrix
p791
(dp792
g28
(lp793
sg22
Nsbsg22
Nsba(irule
Rule
p794
(dp795
g15
(irule
Guard
p796
(dp797
g18
I00
sg19
(lp798
sg21
I00
sg22
Nsg23
I00
sg24
S'L'
sbsg25
(irule
ConstantPhoneme
p799
(dp800
S'p'
Vu
sbsg33
(irule
Guard
p801
(dp802
g18
I01
sg19
(lp803
(irule
FeatureMatrix
p804
(dp805
g28
(lp806
(I00
g746
tp807
a(I01
g750
tp808
asg22
Nsbasg21
I00
sg22
Nsg23
I00
sg24
S'R'
sbsg37
(irule
ConstantPhoneme
p809
(dp810
S'p'
Vo
sbsg22
Nsba(irule
Rule
p811
(dp812
g15
(irule
Guard
p813
(dp814
g18
I00
sg19
(lp815
sg21
I00
sg22
Nsg23
I00
sg24
S'L'
sbsg25
(irule
ConstantPhoneme
p816
(dp817
S'p'
Vu
sbsg33
(irule
Guard
p818
(dp819
g18
I01
sg19
(lp820
(irule
FeatureMatrix
p821
(dp822
g28
(lp823
(I00
g746
tp824
a(I01
g750
tp825
asg22
Nsbasg21
I00
sg22
Nsg23
I00
sg24
S'R'
sbsg37
(irule
FeatureMatrix
p826
(dp827
g28
(lp828
(I01
S'low'
p829
tp830
asg22
Nsbsg22
Nsba(irule
Rule
p831
(dp832
g15
(irule
Guard
p833
(dp834
g18
I00
sg19
(lp835
sg21
I00
sg22
Nsg23
I00
sg24
S'L'
sbsg25
(irule
ConstantPhoneme
p836
(dp837
S'p'
Vu
sbsg33
(irule
Guard
p838
(dp839
g18
I01
sg19
(lp840
(irule
FeatureMatrix
p841
(dp842
g28
(lp843
(I00
g746
tp844
a(I01
g750
tp845
asg22
Nsbasg21
I00
sg22
Nsg23
I00
sg24
S'R'
sbsg37
(irule
FeatureMatrix
p846
(dp847
g28
(lp848
(I01
S'rounded'
p849
tp850
asg22
Nsbsg22
Nsba(irule
Rule
p851
(dp852
g15
(irule
Guard
p853
(dp854
g18
I00
sg19
(lp855
sg21
I00
sg22
Nsg23
I00
sg24
S'L'
sbsg25
(irule
ConstantPhoneme
p856
(dp857
S'p'
Vu
sbsg33
(irule
Guard
p858
(dp859
g18
I01
sg19
(lp860
(irule
FeatureMatrix
p861
(dp862
g28
(lp863
(I00
g746
tp864
a(I01
g750
tp865
asg22
Nsbasg21
I00
sg22
Nsg23
I00
sg24
S'R'
sbsg37
(irule
FeatureMatrix
p866
(dp867
g28
(lp868
(I00
S'liquid'
p869
tp870
a(I01
g748
tp871
asg22
Nsbsg22
Nsba(irule
Rule
p872
(dp873
g15
(irule
Guard
p874
(dp875
g18
I00
sg19
(lp876
(irule
FeatureMatrix
p877
(dp878
g28
(lp879
sg22
Nsbasg21
I00
sg22
Nsg23
I00
sg24
S'L'
sbsg25
(irule
ConstantPhoneme
p880
(dp881
S'p'
Vu
sbsg33
(irule
Guard
p882
(dp883
g18
I01
sg19
(lp884
(irule
FeatureMatrix
p885
(dp886
g28
(lp887
(I00
g746
tp888
a(I01
g750
tp889
asg22
Nsbasg21
I00
sg22
Nsg23
I00
sg24
S'R'
sbsg37
(irule
FeatureMatrix
p890
(dp891
g28
(lp892
(I01
g788
tp893
asg22
Nsbsg22
Nsba(irule
Rule
p894
(dp895
g15
(irule
Guard
p896
(dp897
g18
I00
sg19
(lp898
sg21
I00
sg22
Nsg23
I00
sg24
S'L'
sbsg25
(irule
FeatureMatrix
p899
(dp900
g28
(lp901
(I01
S'high'
p902
tp903
a(I00
g829
tp904
asg22
Nsbsg33
(irule
Guard
p905
(dp906
g18
I01
sg19
(lp907
(irule
FeatureMatrix
p908
(dp909
g28
(lp910
(I00
g746
tp911
a(I00
g788
tp912
a(I01
g750
tp913
asg22
Nsbasg21
I00
sg22
Nsg23
I00
sg24
S'R'
sbsg37
(irule
FeatureMatrix
p914
(dp915
g28
(lp916
sg22
Nsbsg22
Nsba(irule
Rule
p917
(dp918
g15
(irule
Guard
p919
(dp920
g18
I00
sg19
(lp921
sg21
I00
sg22
Nsg23
I00
sg24
S'L'
sbsg25
(irule
FeatureMatrix
p922
(dp923
g28
(lp924
(I01
g902
tp925
a(I00
g829
tp926
asg22
Nsbsg33
(irule
Guard
p927
(dp928
g18
I01
sg19
(lp929
(irule
FeatureMatrix
p930
(dp931
g28
(lp932
(I00
g746
tp933
a(I00
g748
tp934
a(I01
g750
tp935
asg22
Nsbasg21
I00
sg22
Nsg23
I00
sg24
S'R'
sbsg37
(irule
FeatureMatrix
p936
(dp937
g28
(lp938
sg22
Nsbsg22
Nsba(irule
Rule
p939
(dp940
g15
(irule
Guard
p941
(dp942
g18
I00
sg19
(lp943
sg21
I00
sg22
Nsg23
I00
sg24
S'L'
sbsg25
(irule
FeatureMatrix
p944
(dp945
g28
(lp946
(I01
g902
tp947
a(I00
g829
tp948
asg22
Nsbsg33
(irule
Guard
p949
(dp950
g18
I01
sg19
(lp951
(irule
FeatureMatrix
p952
(dp953
g28
(lp954
(I00
g746
tp955
a(I01
g750
tp956
asg22
Nsbasg21
I00
sg22
Nsg23
I00
sg24
S'R'
sbsg37
(irule
FeatureMatrix
p957
(dp958
g28
(lp959
(I01
g748
tp960
asg22
Nsbsg22
Nsba(irule
Rule
p961
(dp962
g15
(irule
Guard
p963
(dp964
g18
I00
sg19
(lp965
sg21
I00
sg22
Nsg23
I00
sg24
S'L'
sbsg25
(irule
FeatureMatrix
p966
(dp967
g28
(lp968
(I01
g902
tp969
a(I00
g829
tp970
asg22
Nsbsg33
(irule
Guard
p971
(dp972
g18
I01
sg19
(lp973
(irule
FeatureMatrix
p974
(dp975
g28
(lp976
(I00
g746
tp977
a(I01
g750
tp978
asg22
Nsbasg21
I00
sg22
Nsg23
I00
sg24
S'R'
sbsg37
(irule
FeatureMatrix
p979
(dp980
g28
(lp981
(I01
g788
tp982
asg22
Nsbsg22
Nsba(irule
Rule
p983
(dp984
g15
(irule
Guard
p985
(dp986
g18
I00
sg19
(lp987
(irule
FeatureMatrix
p988
(dp989
g28
(lp990
(I00
S'back'
p991
tp992
asg22
Nsbasg21
I00
sg22
Nsg23
I00
sg24
S'L'
sbsg25
(irule
ConstantPhoneme
p993
(dp994
S'p'
Vu
sbsg33
(irule
Guard
p995
(dp996
g18
I01
sg19
(lp997
(irule
FeatureMatrix
p998
(dp999
g28
(lp1000
(I00
g746
tp1001
a(I01
g750
tp1002
asg22
Nsbasg21
I00
sg22
Nsg23
I00
sg24
S'R'
sbsg37
(irule
FeatureMatrix
p1003
(dp1004
g28
(lp1005
sg22
Nsbsg22
Nsba(irule
Rule
p1006
(dp1007
g15
(irule
Guard
p1008
(dp1009
g18
I00
sg19
(lp1010
sg21
I00
sg22
Nsg23
I00
sg24
S'L'
sbsg25
(irule
FeatureMatrix
p1011
(dp1012
g28
(lp1013
(I01
g902
tp1014
a(I00
g829
tp1015
asg22
Nsbsg33
(irule
Guard
p1016
(dp1017
g18
I01
sg19
(lp1018
(irule
FeatureMatrix
p1019
(dp1020
g28
(lp1021
(I00
g746
tp1022
a(I01
g750
tp1023
asg22
Nsbasg21
I00
sg22
Nsg23
I00
sg24
S'R'
sbsg37
(irule
FeatureMatrix
p1024
(dp1025
g28
(lp1026
(I01
g849
tp1027
asg22
Nsbsg22
Nsba(irule
Rule
p1028
(dp1029
g15
(irule
Guard
p1030
(dp1031
g18
I00
sg19
(lp1032
sg21
I00
sg22
Nsg23
I00
sg24
S'L'
sbsg25
(irule
FeatureMatrix
p1033
(dp1034
g28
(lp1035
(I01
g902
tp1036
a(I00
g829
tp1037
asg22
Nsbsg33
(irule
Guard
p1038
(dp1039
g18
I01
sg19
(lp1040
(irule
FeatureMatrix
p1041
(dp1042
g28
(lp1043
(I00
g746
tp1044
a(I01
g750
tp1045
asg22
Nsbasg21
I00
sg22
Nsg23
I00
sg24
S'R'
sbsg37
(irule
FeatureMatrix
p1046
(dp1047
g28
(lp1048
(I01
g991
tp1049
asg22
Nsbsg22
Nsba(irule
Rule
p1050
(dp1051
g15
(irule
Guard
p1052
(dp1053
g18
I00
sg19
(lp1054
sg21
I00
sg22
Nsg23
I00
sg24
S'L'
sbsg25
(irule
ConstantPhoneme
p1055
(dp1056
S'p'
Vu
sbsg33
(irule
Guard
p1057
(dp1058
g18
I01
sg19
(lp1059
(irule
FeatureMatrix
p1060
(dp1061
g28
(lp1062
(I00
g746
tp1063
a(I01
g750
tp1064
asg22
Nsbasg21
I00
sg22
Nsg23
I00
sg24
S'R'
sbsg37
(irule
FeatureMatrix
p1065
(dp1066
g28
(lp1067
(I00
S'glide'
p1068
tp1069
a(I01
g748
tp1070
asg22
Nsbsg22
Nsba(irule
Rule
p1071
(dp1072
g15
(irule
Guard
p1073
(dp1074
g18
I00
sg19
(lp1075
sg21
I00
sg22
Nsg23
I00
sg24
S'L'
sbsg25
(irule
FeatureMatrix
p1076
(dp1077
g28
(lp1078
(I01
g902
tp1079
a(I00
g829
tp1080
asg22
Nsbsg33
(irule
Guard
p1081
(dp1082
g18
I01
sg19
(lp1083
(irule
FeatureMatrix
p1084
(dp1085
g28
(lp1086
(I00
g746
tp1087
a(I01
g750
tp1088
asg22
Nsbasg21
I00
sg22
Nsg23
I00
sg24
S'R'
sbsg37
(irule
FeatureMatrix
p1089
(dp1090
g28
(lp1091
(I01
g829
tp1092
asg22
Nsbsg22
Nsba(irule
Rule
p1093
(dp1094
g15
(irule
Guard
p1095
(dp1096
g18
I00
sg19
(lp1097
sg21
I00
sg22
Nsg23
I00
sg24
S'L'
sbsg25
(irule
FeatureMatrix
p1098
(dp1099
g28
(lp1100
(I01
g902
tp1101
a(I00
g829
tp1102
asg22
Nsbsg33
(irule
Guard
p1103
(dp1104
g18
I01
sg19
(lp1105
(irule
FeatureMatrix
p1106
(dp1107
g28
(lp1108
(I00
g746
tp1109
a(I01
g750
tp1110
asg22
Nsbasg21
I00
sg22
Nsg23
I00
sg24
S'R'
sbsg37
(irule
ConstantPhoneme
p1111
(dp1112
S'p'
Vo
sbsg22
Nsba(irule
Rule
p1113
(dp1114
g15
(irule
Guard
p1115
(dp1116
g18
I00
sg19
(lp1117
sg21
I00
sg22
Nsg23
I00
sg24
S'L'
sbsg25
(irule
ConstantPhoneme
p1118
(dp1119
S'p'
Vu
sbsg33
(irule
Guard
p1120
(dp1121
g18
I01
sg19
(lp1122
(irule
FeatureMatrix
p1123
(dp1124
g28
(lp1125
(I00
g746
tp1126
a(I00
g748
tp1127
a(I01
g750
tp1128
asg22
Nsbasg21
I00
sg22
Nsg23
I00
sg24
S'R'
sbsg37
(irule
FeatureMatrix
p1129
(dp1130
g28
(lp1131
(I01
g750
tp1132
asg22
Nsbsg22
Nsba(irule
Rule
p1133
(dp1134
g15
(irule
Guard
p1135
(dp1136
g18
I00
sg19
(lp1137
sg21
I00
sg22
Nsg23
I00
sg24
S'L'
sbsg25
(irule
ConstantPhoneme
p1138
(dp1139
S'p'
Vu
sbsg33
(irule
Guard
p1140
(dp1141
g18
I01
sg19
(lp1142
(irule
FeatureMatrix
p1143
(dp1144
g28
(lp1145
(I00
g849
tp1146
a(I00
g746
tp1147
a(I01
g750
tp1148
asg22
Nsbasg21
I00
sg22
Nsg23
I00
sg24
S'R'
sbsg37
(irule
FeatureMatrix
p1149
(dp1150
g28
(lp1151
(I01
g788
tp1152
asg22
Nsbsg22
Nsba(irule
Rule
p1153
(dp1154
g15
(irule
Guard
p1155
(dp1156
g18
I00
sg19
(lp1157
sg21
I00
sg22
Nsg23
I00
sg24
S'L'
sbsg25
(irule
ConstantPhoneme
p1158
(dp1159
S'p'
Vu
sbsg33
(irule
Guard
p1160
(dp1161
g18
I01
sg19
(lp1162
(irule
FeatureMatrix
p1163
(dp1164
g28
(lp1165
(I00
g746
tp1166
a(I01
g750
tp1167
asg22
Nsbasg21
I00
sg22
Nsg23
I00
sg24
S'R'
sbsg37
(irule
FeatureMatrix
p1168
(dp1169
g28
(lp1170
(I01
S'continuant'
p1171
tp1172
a(I01
g748
tp1173
asg22
Nsbsg22
Nsba(irule
Rule
p1174
(dp1175
g15
(irule
Guard
p1176
(dp1177
g18
I00
sg19
(lp1178
sg21
I00
sg22
Nsg23
I00
sg24
S'L'
sbsg25
(irule
ConstantPhoneme
p1179
(dp1180
S'p'
Vu
sbsg33
(irule
Guard
p1181
(dp1182
g18
I01
sg19
(lp1183
(irule
FeatureMatrix
p1184
(dp1185
g28
(lp1186
(I00
g746
tp1187
a(I00
g788
tp1188
a(I01
g750
tp1189
asg22
Nsbasg21
I00
sg22
Nsg23
I00
sg24
S'R'
sbsg37
(irule
FeatureMatrix
p1190
(dp1191
g28
(lp1192
(I01
g750
tp1193
asg22
Nsbsg22
Nsba(irule
Rule
p1194
(dp1195
g15
(irule
Guard
p1196
(dp1197
g18
I00
sg19
(lp1198
(irule
FeatureMatrix
p1199
(dp1200
g28
(lp1201
(I00
g788
tp1202
asg22
Nsbasg21
I00
sg22
Nsg23
I00
sg24
S'L'
sbsg25
(irule
ConstantPhoneme
p1203
(dp1204
S'p'
Vu
sbsg33
(irule
Guard
p1205
(dp1206
g18
I01
sg19
(lp1207
(irule
FeatureMatrix
p1208
(dp1209
g28
(lp1210
(I00
g746
tp1211
a(I01
g750
tp1212
asg22
Nsbasg21
I00
sg22
Nsg23
I00
sg24
S'R'
sbsg37
(irule
FeatureMatrix
p1213
(dp1214
g28
(lp1215
sg22
Nsbsg22
Nsba(irule
Rule
p1216
(dp1217
g15
(irule
Guard
p1218
(dp1219
g18
I00
sg19
(lp1220
sg21
I00
sg22
Nsg23
I00
sg24
S'L'
sbsg25
(irule
ConstantPhoneme
p1221
(dp1222
S'p'
Vu
sbsg33
(irule
Guard
p1223
(dp1224
g18
I01
sg19
(lp1225
(irule
FeatureMatrix
p1226
(dp1227
g28
(lp1228
(I00
g849
tp1229
a(I00
g746
tp1230
a(I01
g750
tp1231
asg22
Nsbasg21
I00
sg22
Nsg23
I00
sg24
S'R'
sbsg37
(irule
FeatureMatrix
p1232
(dp1233
g28
(lp1234
(I01
g748
tp1235
asg22
Nsbsg22
Nsba(irule
Rule
p1236
(dp1237
g15
(irule
Guard
p1238
(dp1239
g18
I00
sg19
(lp1240
sg21
I00
sg22
Nsg23
I00
sg24
S'L'
sbsg25
(irule
ConstantPhoneme
p1241
(dp1242
S'p'
Vu
sbsg33
(irule
Guard
p1243
(dp1244
g18
I01
sg19
(lp1245
(irule
FeatureMatrix
p1246
(dp1247
g28
(lp1248
(I00
g746
tp1249
a(I01
g750
tp1250
asg22
Nsbasg21
I00
sg22
Nsg23
I00
sg24
S'R'
sbsg37
(irule
FeatureMatrix
p1251
(dp1252
g28
(lp1253
(I00
S'lateral'
p1254
tp1255
a(I01
g748
tp1256
asg22
Nsbsg22
Nsba(irule
Rule
p1257
(dp1258
g15
(irule
Guard
p1259
(dp1260
g18
I00
sg19
(lp1261
sg21
I00
sg22
Nsg23
I00
sg24
S'L'
sbsg25
(irule
ConstantPhoneme
p1262
(dp1263
S'p'
Vu
sbsg33
(irule
Guard
p1264
(dp1265
g18
I01
sg19
(lp1266
(irule
FeatureMatrix
p1267
(dp1268
g28
(lp1269
(I00
g746
tp1270
a(I00
g788
tp1271
a(I01
g750
tp1272
asg22
Nsbasg21
I00
sg22
Nsg23
I00
sg24
S'R'
sbsg37
(irule
FeatureMatrix
p1273
(dp1274
g28
(lp1275
(I00
S'sibilant'
p1276
tp1277
asg22
Nsbsg22
Nsba(irule
Rule
p1278
(dp1279
g15
(irule
Guard
p1280
(dp1281
g18
I00
sg19
(lp1282
sg21
I00
sg22
Nsg23
I00
sg24
S'L'
sbsg25
(irule
ConstantPhoneme
p1283
(dp1284
S'p'
Vu
sbsg33
(irule
Guard
p1285
(dp1286
g18
I01
sg19
(lp1287
(irule
FeatureMatrix
p1288
(dp1289
g28
(lp1290
(I00
g746
tp1291
a(I00
g788
tp1292
a(I01
g750
tp1293
asg22
Nsbasg21
I00
sg22
Nsg23
I00
sg24
S'R'
sbsg37
(irule
FeatureMatrix
p1294
(dp1295
g28
(lp1296
(I00
g869
tp1297
asg22
Nsbsg22
Nsba(irule
Rule
p1298
(dp1299
g15
(irule
Guard
p1300
(dp1301
g18
I00
sg19
(lp1302
sg21
I00
sg22
Nsg23
I00
sg24
S'L'
sbsg25
(irule
ConstantPhoneme
p1303
(dp1304
S'p'
Vu
sbsg33
(irule
Guard
p1305
(dp1306
g18
I01
sg19
(lp1307
(irule
FeatureMatrix
p1308
(dp1309
g28
(lp1310
(I00
g746
tp1311
a(I00
g829
tp1312
a(I01
g750
tp1313
asg22
Nsbasg21
I00
sg22
Nsg23
I00
sg24
S'R'
sbsg37
(irule
FeatureMatrix
p1314
(dp1315
g28
(lp1316
(I01
g748
tp1317
asg22
Nsbsg22
Nsba(irule
Rule
p1318
(dp1319
g15
(irule
Guard
p1320
(dp1321
g18
I00
sg19
(lp1322
sg21
I00
sg22
Nsg23
I00
sg24
S'L'
sbsg25
(irule
ConstantPhoneme
p1323
(dp1324
S'p'
Vu
sbsg33
(irule
Guard
p1325
(dp1326
g18
I01
sg19
(lp1327
(irule
FeatureMatrix
p1328
(dp1329
g28
(lp1330
(I00
g746
tp1331
a(I01
g750
tp1332
asg22
Nsbasg21
I00
sg22
Nsg23
I00
sg24
S'R'
sbsg37
(irule
FeatureMatrix
p1333
(dp1334
g28
(lp1335
(I01
g788
tp1336
a(I01
g750
tp1337
asg22
Nsbsg22
Nsba(irule
Rule
p1338
(dp1339
g15
(irule
Guard
p1340
(dp1341
g18
I00
sg19
(lp1342
sg21
I00
sg22
Nsg23
I00
sg24
S'L'
sbsg25
(irule
ConstantPhoneme
p1343
(dp1344
S'p'
Vu
sbsg33
(irule
Guard
p1345
(dp1346
g18
I01
sg19
(lp1347
(irule
FeatureMatrix
p1348
(dp1349
g28
(lp1350
(I00
g746
tp1351
a(I00
g788
tp1352
a(I01
g750
tp1353
asg22
Nsbasg21
I00
sg22
Nsg23
I00
sg24
S'R'
sbsg37
(irule
FeatureMatrix
p1354
(dp1355
g28
(lp1356
(I00
S'palletized'
p1357
tp1358
asg22
Nsbsg22
Nsba(irule
Rule
p1359
(dp1360
g15
(irule
Guard
p1361
(dp1362
g18
I00
sg19
(lp1363
sg21
I00
sg22
Nsg23
I00
sg24
S'L'
sbsg25
(irule
ConstantPhoneme
p1364
(dp1365
S'p'
Vu
sbsg33
(irule
Guard
p1366
(dp1367
g18
I01
sg19
(lp1368
(irule
FeatureMatrix
p1369
(dp1370
g28
(lp1371
(I00
g746
tp1372
a(I00
g748
tp1373
a(I01
g750
tp1374
asg22
Nsbasg21
I00
sg22
Nsg23
I00
sg24
S'R'
sbsg37
(irule
FeatureMatrix
p1375
(dp1376
g28
(lp1377
(I01
g748
tp1378
asg22
Nsbsg22
Nsba(irule
Rule
p1379
(dp1380
g15
(irule
Guard
p1381
(dp1382
g18
I00
sg19
(lp1383
sg21
I00
sg22
Nsg23
I00
sg24
S'L'
sbsg25
(irule
ConstantPhoneme
p1384
(dp1385
S'p'
Vu
sbsg33
(irule
Guard
p1386
(dp1387
g18
I01
sg19
(lp1388
(irule
FeatureMatrix
p1389
(dp1390
g28
(lp1391
(I00
g746
tp1392
a(I01
g750
tp1393
asg22
Nsbasg21
I00
sg22
Nsg23
I00
sg24
S'R'
sbsg37
(irule
FeatureMatrix
p1394
(dp1395
g28
(lp1396
(I01
g849
tp1397
a(I00
g1068
tp1398
asg22
Nsbsg22
Nsba(irule
Rule
p1399
(dp1400
g15
(irule
Guard
p1401
(dp1402
g18
I00
sg19
(lp1403
sg21
I00
sg22
Nsg23
I00
sg24
S'L'
sbsg25
(irule
ConstantPhoneme
p1404
(dp1405
S'p'
Vu
sbsg33
(irule
Guard
p1406
(dp1407
g18
I01
sg19
(lp1408
(irule
FeatureMatrix
p1409
(dp1410
g28
(lp1411
(I00
g746
tp1412
a(I01
g750
tp1413
asg22
Nsbasg21
I00
sg22
Nsg23
I00
sg24
S'R'
sbsg37
(irule
FeatureMatrix
p1414
(dp1415
g28
(lp1416
(I01
g849
tp1417
a(I00
g902
tp1418
asg22
Nsbsg22
Nsba(irule
Rule
p1419
(dp1420
g15
(irule
Guard
p1421
(dp1422
g18
I00
sg19
(lp1423
sg21
I00
sg22
Nsg23
I00
sg24
S'L'
sbsg25
(irule
ConstantPhoneme
p1424
(dp1425
S'p'
Vu
sbsg33
(irule
Guard
p1426
(dp1427
g18
I01
sg19
(lp1428
(irule
FeatureMatrix
p1429
(dp1430
g28
(lp1431
(I00
g746
tp1432
a(I00
g788
tp1433
a(I01
g750
tp1434
asg22
Nsbasg21
I00
sg22
Nsg23
I00
sg24
S'R'
sbsg37
(irule
FeatureMatrix
p1435
(dp1436
g28
(lp1437
(I00
S'coronal'
p1438
tp1439
asg22
Nsbsg22
Nsba(irule
Rule
p1440
(dp1441
g15
(irule
Guard
p1442
(dp1443
g18
I00
sg19
(lp1444
sg21
I00
sg22
Nsg23
I00
sg24
S'L'
sbsg25
(irule
ConstantPhoneme
p1445
(dp1446
S'p'
Vu
sbsg33
(irule
Guard
p1447
(dp1448
g18
I01
sg19
(lp1449
(irule
FeatureMatrix
p1450
(dp1451
g28
(lp1452
(I00
g746
tp1453
a(I00
g788
tp1454
a(I01
g750
tp1455
asg22
Nsbasg21
I00
sg22
Nsg23
I00
sg24
S'R'
sbsg37
(irule
FeatureMatrix
p1456
(dp1457
g28
(lp1458
(I01
g748
tp1459
asg22
Nsbsg22
Nsba(irule
Rule
p1460
(dp1461
g15
(irule
Guard
p1462
(dp1463
g18
I00
sg19
(lp1464
sg21
I00
sg22
Nsg23
I00
sg24
S'L'
sbsg25
(irule
ConstantPhoneme
p1465
(dp1466
S'p'
Vu
sbsg33
(irule
Guard
p1467
(dp1468
g18
I01
sg19
(lp1469
(irule
FeatureMatrix
p1470
(dp1471
g28
(lp1472
(I00
g746
tp1473
a(I01
g750
tp1474
asg22
Nsbasg21
I00
sg22
Nsg23
I00
sg24
S'R'
sbsg37
(irule
FeatureMatrix
p1475
(dp1476
g28
(lp1477
(I00
g1068
tp1478
a(I01
g788
tp1479
asg22
Nsbsg22
Nsba(irule
Rule
p1480
(dp1481
g15
(irule
Guard
p1482
(dp1483
g18
I00
sg19
(lp1484
sg21
I00
sg22
Nsg23
I00
sg24
S'L'
sbsg25
(irule
ConstantPhoneme
p1485
(dp1486
S'p'
Vu
sbsg33
(irule
Guard
p1487
(dp1488
g18
I01
sg19
(lp1489
(irule
FeatureMatrix
p1490
(dp1491
g28
(lp1492
(I00
g746
tp1493
a(I01
g750
tp1494
asg22
Nsbasg21
I00
sg22
Nsg23
I00
sg24
S'R'
sbsg37
(irule
FeatureMatrix
p1495
(dp1496
g28
(lp1497
(I01
g748
tp1498
a(I01
g750
tp1499
asg22
Nsbsg22
Nsba(irule
Rule
p1500
(dp1501
g15
(irule
Guard
p1502
(dp1503
g18
I00
sg19
(lp1504
sg21
I00
sg22
Nsg23
I00
sg24
S'L'
sbsg25
(irule
ConstantPhoneme
p1505
(dp1506
S'p'
Vu
sbsg33
(irule
Guard
p1507
(dp1508
g18
I01
sg19
(lp1509
(irule
FeatureMatrix
p1510
(dp1511
g28
(lp1512
(I00
g746
tp1513
a(I01
g750
tp1514
asg22
Nsbasg21
I00
sg22
Nsg23
I00
sg24
S'R'
sbsg37
(irule
FeatureMatrix
p1515
(dp1516
g28
(lp1517
(I01
g748
tp1518
a(I01
g788
tp1519
asg22
Nsbsg22
Nsba(irule
Rule
p1520
(dp1521
g15
(irule
Guard
p1522
(dp1523
g18
I00
sg19
(lp1524
sg21
I00
sg22
Nsg23
I00
sg24
S'L'
sbsg25
(irule
ConstantPhoneme
p1525
(dp1526
S'p'
Vu
sbsg33
(irule
Guard
p1527
(dp1528
g18
I01
sg19
(lp1529
(irule
FeatureMatrix
p1530
(dp1531
g28
(lp1532
(I00
g746
tp1533
a(I01
g750
tp1534
asg22
Nsbasg21
I00
sg22
Nsg23
I00
sg24
S'R'
sbsg37
(irule
FeatureMatrix
p1535
(dp1536
g28
(lp1537
(I00
S'anterior'
p1538
tp1539
a(I01
g748
tp1540
asg22
Nsbsg22
Nsba(irule
Rule
p1541
(dp1542
g15
(irule
Guard
p1543
(dp1544
g18
I00
sg19
(lp1545
sg21
I00
sg22
Nsg23
I00
sg24
S'L'
sbsg25
(irule
ConstantPhoneme
p1546
(dp1547
S'p'
Vu
sbsg33
(irule
Guard
p1548
(dp1549
g18
I01
sg19
(lp1550
(irule
FeatureMatrix
p1551
(dp1552
g28
(lp1553
(I00
g746
tp1554
a(I00
g748
tp1555
a(I01
g750
tp1556
asg22
Nsbasg21
I00
sg22
Nsg23
I00
sg24
S'R'
sbsg37
(irule
FeatureMatrix
p1557
(dp1558
g28
(lp1559
(I00
g1276
tp1560
asg22
Nsbsg22
Nsba(irule
Rule
p1561
(dp1562
g15
(irule
Guard
p1563
(dp1564
g18
I00
sg19
(lp1565
sg21
I00
sg22
Nsg23
I00
sg24
S'L'
sbsg25
(irule
ConstantPhoneme
p1566
(dp1567
S'p'
Vu
sbsg33
(irule
Guard
p1568
(dp1569
g18
I01
sg19
(lp1570
(irule
FeatureMatrix
p1571
(dp1572
g28
(lp1573
(I00
g746
tp1574
a(I01
g750
tp1575
asg22
Nsbasg21
I00
sg22
Nsg23
I00
sg24
S'R'
sbsg37
(irule
FeatureMatrix
p1576
(dp1577
g28
(lp1578
(I00
g1276
tp1579
a(I01
g748
tp1580
asg22
Nsbsg22
Nsba(irule
Rule
p1581
(dp1582
g15
(irule
Guard
p1583
(dp1584
g18
I00
sg19
(lp1585
sg21
I00
sg22
Nsg23
I00
sg24
S'L'
sbsg25
(irule
ConstantPhoneme
p1586
(dp1587
S'p'
Vu
sbsg33
(irule
Guard
p1588
(dp1589
g18
I01
sg19
(lp1590
(irule
FeatureMatrix
p1591
(dp1592
g28
(lp1593
(I00
g746
tp1594
a(I00
g829
tp1595
a(I01
g750
tp1596
asg22
Nsbasg21
I00
sg22
Nsg23
I00
sg24
S'R'
sbsg37
(irule
FeatureMatrix
p1597
(dp1598
g28
(lp1599
(I01
g788
tp1600
asg22
Nsbsg22
Nsba(irule
Rule
p1601
(dp1602
g15
(irule
Guard
p1603
(dp1604
g18
I00
sg19
(lp1605
sg21
I00
sg22
Nsg23
I00
sg24
S'L'
sbsg25
(irule
ConstantPhoneme
p1606
(dp1607
S'p'
Vu
sbsg33
(irule
Guard
p1608
(dp1609
g18
I01
sg19
(lp1610
(irule
FeatureMatrix
p1611
(dp1612
g28
(lp1613
(I00
g746
tp1614
a(I01
g750
tp1615
asg22
Nsbasg21
I00
sg22
Nsg23
I00
sg24
S'R'
sbsg37
(irule
FeatureMatrix
p1616
(dp1617
g28
(lp1618
(I01
g849
tp1619
a(I01
g748
tp1620
asg22
Nsbsg22
Nsba(irule
Rule
p1621
(dp1622
g15
(irule
Guard
p1623
(dp1624
g18
I00
sg19
(lp1625
sg21
I00
sg22
Nsg23
I00
sg24
S'L'
sbsg25
(irule
ConstantPhoneme
p1626
(dp1627
S'p'
Vu
sbsg33
(irule
Guard
p1628
(dp1629
g18
I01
sg19
(lp1630
(irule
FeatureMatrix
p1631
(dp1632
g28
(lp1633
(I00
g746
tp1634
a(I00
g748
tp1635
a(I01
g750
tp1636
asg22
Nsbasg21
I00
sg22
Nsg23
I00
sg24
S'R'
sbsg37
(irule
FeatureMatrix
p1637
(dp1638
g28
(lp1639
(I00
g902
tp1640
asg22
Nsbsg22
Nsba(irule
Rule
p1641
(dp1642
g15
(irule
Guard
p1643
(dp1644
g18
I00
sg19
(lp1645
sg21
I00
sg22
Nsg23
I00
sg24
S'L'
sbsg25
(irule
ConstantPhoneme
p1646
(dp1647
S'p'
Vu
sbsg33
(irule
Guard
p1648
(dp1649
g18
I01
sg19
(lp1650
(irule
FeatureMatrix
p1651
(dp1652
g28
(lp1653
(I00
g849
tp1654
a(I00
g746
tp1655
a(I01
g750
tp1656
asg22
Nsbasg21
I00
sg22
Nsg23
I00
sg24
S'R'
sbsg37
(irule
FeatureMatrix
p1657
(dp1658
g28
(lp1659
(I01
g849
tp1660
asg22
Nsbsg22
Nsba(irule
Rule
p1661
(dp1662
g15
(irule
Guard
p1663
(dp1664
g18
I00
sg19
(lp1665
sg21
I00
sg22
Nsg23
I00
sg24
S'L'
sbsg25
(irule
ConstantPhoneme
p1666
(dp1667
S'p'
Vu
sbsg33
(irule
Guard
p1668
(dp1669
g18
I01
sg19
(lp1670
(irule
FeatureMatrix
p1671
(dp1672
g28
(lp1673
(I00
g746
tp1674
a(I01
g750
tp1675
asg22
Nsbasg21
I00
sg22
Nsg23
I00
sg24
S'R'
sbsg37
(irule
FeatureMatrix
p1676
(dp1677
g28
(lp1678
(I00
g1538
tp1679
a(I01
g849
tp1680
asg22
Nsbsg22
Nsba(irule
Rule
p1681
(dp1682
g15
(irule
Guard
p1683
(dp1684
g18
I00
sg19
(lp1685
sg21
I00
sg22
Nsg23
I00
sg24
S'L'
sbsg25
(irule
ConstantPhoneme
p1686
(dp1687
S'p'
Vu
sbsg33
(irule
Guard
p1688
(dp1689
g18
I01
sg19
(lp1690
(irule
FeatureMatrix
p1691
(dp1692
g28
(lp1693
(I00
g746
tp1694
a(I00
g829
tp1695
a(I01
g750
tp1696
asg22
Nsbasg21
I00
sg22
Nsg23
I00
sg24
S'R'
sbsg37
(irule
FeatureMatrix
p1697
(dp1698
g28
(lp1699
(I01
g829
tp1700
asg22
Nsbsg22
Nsba(irule
Rule
p1701
(dp1702
g15
(irule
Guard
p1703
(dp1704
g18
I00
sg19
(lp1705
sg21
I00
sg22
Nsg23
I00
sg24
S'L'
sbsg25
(irule
ConstantPhoneme
p1706
(dp1707
S'p'
Vu
sbsg33
(irule
Guard
p1708
(dp1709
g18
I01
sg19
(lp1710
(irule
FeatureMatrix
p1711
(dp1712
g28
(lp1713
(I00
g849
tp1714
a(I00
g746
tp1715
a(I01
g750
tp1716
asg22
Nsbasg21
I00
sg22
Nsg23
I00
sg24
S'R'
sbsg37
(irule
FeatureMatrix
p1717
(dp1718
g28
(lp1719
(I01
g829
tp1720
asg22
Nsbsg22
Nsba(irule
Rule
p1721
(dp1722
g15
(irule
Guard
p1723
(dp1724
g18
I00
sg19
(lp1725
sg21
I00
sg22
Nsg23
I00
sg24
S'L'
sbsg25
(irule
ConstantPhoneme
p1726
(dp1727
S'p'
Vu
sbsg33
(irule
Guard
p1728
(dp1729
g18
I01
sg19
(lp1730
(irule
FeatureMatrix
p1731
(dp1732
g28
(lp1733
(I00
g746
tp1734
a(I00
g788
tp1735
a(I01
g750
tp1736
asg22
Nsbasg21
I00
sg22
Nsg23
I00
sg24
S'R'
sbsg37
(irule
FeatureMatrix
p1737
(dp1738
g28
(lp1739
(I01
g829
tp1740
asg22
Nsbsg22
Nsba(irule
Rule
p1741
(dp1742
g15
(irule
Guard
p1743
(dp1744
g18
I00
sg19
(lp1745
sg21
I00
sg22
Nsg23
I00
sg24
S'L'
sbsg25
(irule
ConstantPhoneme
p1746
(dp1747
S'p'
Vu
sbsg33
(irule
Guard
p1748
(dp1749
g18
I01
sg19
(lp1750
(irule
FeatureMatrix
p1751
(dp1752
g28
(lp1753
(I00
g746
tp1754
a(I00
g748
tp1755
a(I01
g750
tp1756
asg22
Nsbasg21
I00
sg22
Nsg23
I00
sg24
S'R'
sbsg37
(irule
FeatureMatrix
p1757
(dp1758
g28
(lp1759
(I00
g1438
tp1760
asg22
Nsbsg22
Nsba(irule
Rule
p1761
(dp1762
g15
(irule
Guard
p1763
(dp1764
g18
I00
sg19
(lp1765
sg21
I00
sg22
Nsg23
I00
sg24
S'L'
sbsg25
(irule
ConstantPhoneme
p1766
(dp1767
S'p'
Vu
sbsg33
(irule
Guard
p1768
(dp1769
g18
I01
sg19
(lp1770
(irule
FeatureMatrix
p1771
(dp1772
g28
(lp1773
(I00
g746
tp1774
a(I01
g750
tp1775
asg22
Nsbasg21
I00
sg22
Nsg23
I00
sg24
S'R'
sbsg37
(irule
FeatureMatrix
p1776
(dp1777
g28
(lp1778
(I01
g849
tp1779
a(I01
g788
tp1780
asg22
Nsbsg22
Nsba(irule
Rule
p1781
(dp1782
g15
(irule
Guard
p1783
(dp1784
g18
I00
sg19
(lp1785
sg21
I00
sg22
Nsg23
I00
sg24
S'L'
sbsg25
(irule
ConstantPhoneme
p1786
(dp1787
S'p'
Vu
sbsg33
(irule
Guard
p1788
(dp1789
g18
I01
sg19
(lp1790
(irule
FeatureMatrix
p1791
(dp1792
g28
(lp1793
(I00
g746
tp1794
a(I01
g750
tp1795
asg22
Nsbasg21
I00
sg22
Nsg23
I00
sg24
S'R'
sbsg37
(irule
FeatureMatrix
p1796
(dp1797
g28
(lp1798
(I00
g746
tp1799
a(I01
g748
tp1800
asg22
Nsbsg22
Nsba(irule
Rule
p1801
(dp1802
g15
(irule
Guard
p1803
(dp1804
g18
I00
sg19
(lp1805
sg21
I00
sg22
Nsg23
I00
sg24
S'L'
sbsg25
(irule
ConstantPhoneme
p1806
(dp1807
S'p'
Vu
sbsg33
(irule
Guard
p1808
(dp1809
g18
I01
sg19
(lp1810
(irule
FeatureMatrix
p1811
(dp1812
g28
(lp1813
(I00
g746
tp1814
a(I01
g750
tp1815
asg22
Nsbasg21
I00
sg22
Nsg23
I00
sg24
S'R'
sbsg37
(irule
FeatureMatrix
p1816
(dp1817
g28
(lp1818
(I00
g1357
tp1819
a(I01
g748
tp1820
asg22
Nsbsg22
Nsba(irule
Rule
p1821
(dp1822
g15
(irule
Guard
p1823
(dp1824
g18
I00
sg19
(lp1825
sg21
I00
sg22
Nsg23
I00
sg24
S'L'
sbsg25
(irule
ConstantPhoneme
p1826
(dp1827
S'p'
Vu
sbsg33
(irule
Guard
p1828
(dp1829
g18
I01
sg19
(lp1830
(irule
FeatureMatrix
p1831
(dp1832
g28
(lp1833
(I00
g746
tp1834
a(I00
g788
tp1835
a(I01
g750
tp1836
asg22
Nsbasg21
I00
sg22
Nsg23
I00
sg24
S'R'
sbsg37
(irule
FeatureMatrix
p1837
(dp1838
g28
(lp1839
(I01
S'sonorant'
p1840
tp1841
asg22
Nsbsg22
Nsba(irule
Rule
p1842
(dp1843
g15
(irule
Guard
p1844
(dp1845
g18
I00
sg19
(lp1846
sg21
I00
sg22
Nsg23
I00
sg24
S'L'
sbsg25
(irule
ConstantPhoneme
p1847
(dp1848
S'p'
Vu
sbsg33
(irule
Guard
p1849
(dp1850
g18
I01
sg19
(lp1851
(irule
FeatureMatrix
p1852
(dp1853
g28
(lp1854
(I00
g746
tp1855
a(I01
g750
tp1856
asg22
Nsbasg21
I00
sg22
Nsg23
I00
sg24
S'R'
sbsg37
(irule
FeatureMatrix
p1857
(dp1858
g28
(lp1859
(I00
g1438
tp1860
a(I01
g748
tp1861
asg22
Nsbsg22
Nsba(irule
Rule
p1862
(dp1863
g15
(irule
Guard
p1864
(dp1865
g18
I00
sg19
(lp1866
sg21
I00
sg22
Nsg23
I00
sg24
S'L'
sbsg25
(irule
ConstantPhoneme
p1867
(dp1868
S'p'
Vu
sbsg33
(irule
Guard
p1869
(dp1870
g18
I01
sg19
(lp1871
(irule
FeatureMatrix
p1872
(dp1873
g28
(lp1874
(I00
g746
tp1875
a(I00
g788
tp1876
a(I01
g750
tp1877
asg22
Nsbasg21
I00
sg22
Nsg23
I00
sg24
S'R'
sbsg37
(irule
FeatureMatrix
p1878
(dp1879
g28
(lp1880
(I01
g788
tp1881
asg22
Nsbsg22
Nsba(irule
Rule
p1882
(dp1883
g15
(irule
Guard
p1884
(dp1885
g18
I00
sg19
(lp1886
sg21
I00
sg22
Nsg23
I00
sg24
S'L'
sbsg25
(irule
ConstantPhoneme
p1887
(dp1888
S'p'
Vu
sbsg33
(irule
Guard
p1889
(dp1890
g18
I01
sg19
(lp1891
(irule
FeatureMatrix
p1892
(dp1893
g28
(lp1894
(I00
g746
tp1895
a(I00
g748
tp1896
a(I01
g750
tp1897
asg22
Nsbasg21
I00
sg22
Nsg23
I00
sg24
S'R'
sbsg37
(irule
FeatureMatrix
p1898
(dp1899
g28
(lp1900
(I01
g849
tp1901
asg22
Nsbsg22
Nsba(irule
Rule
p1902
(dp1903
g15
(irule
Guard
p1904
(dp1905
g18
I00
sg19
(lp1906
(irule
FeatureMatrix
p1907
(dp1908
g28
(lp1909
sg22
Nsbasg21
I00
sg22
Nsg23
I00
sg24
S'L'
sbsg25
(irule
ConstantPhoneme
p1910
(dp1911
S'p'
Vu
sbsg33
(irule
Guard
p1912
(dp1913
g18
I01
sg19
(lp1914
(irule
FeatureMatrix
p1915
(dp1916
g28
(lp1917
(I00
g746
tp1918
a(I00
g788
tp1919
a(I01
g750
tp1920
asg22
Nsbasg21
I00
sg22
Nsg23
I00
sg24
S'R'
sbsg37
(irule
FeatureMatrix
p1921
(dp1922
g28
(lp1923
sg22
Nsbsg22
Nsba(irule
Rule
p1924
(dp1925
g15
(irule
Guard
p1926
(dp1927
g18
I00
sg19
(lp1928
(irule
FeatureMatrix
p1929
(dp1930
g28
(lp1931
(I00
g748
tp1932
asg22
Nsbasg21
I00
sg22
Nsg23
I00
sg24
S'L'
sbsg25
(irule
ConstantPhoneme
p1933
(dp1934
S'p'
Vu
sbsg33
(irule
Guard
p1935
(dp1936
g18
I01
sg19
(lp1937
(irule
FeatureMatrix
p1938
(dp1939
g28
(lp1940
(I00
g746
tp1941
a(I01
g750
tp1942
asg22
Nsbasg21
I00
sg22
Nsg23
I00
sg24
S'R'
sbsg37
(irule
FeatureMatrix
p1943
(dp1944
g28
(lp1945
sg22
Nsbsg22
Nsba(irule
Rule
p1946
(dp1947
g15
(irule
Guard
p1948
(dp1949
g18
I00
sg19
(lp1950
sg21
I00
sg22
Nsg23
I00
sg24
S'L'
sbsg25
(irule
ConstantPhoneme
p1951
(dp1952
S'p'
Vu
sbsg33
(irule
Guard
p1953
(dp1954
g18
I01
sg19
(lp1955
(irule
FeatureMatrix
p1956
(dp1957
g28
(lp1958
(I00
g746
tp1959
a(I01
g750
tp1960
asg22
Nsbasg21
I00
sg22
Nsg23
I00
sg24
S'R'
sbsg37
(irule
FeatureMatrix
p1961
(dp1962
g28
(lp1963
(I00
g902
tp1964
a(I01
g748
tp1965
asg22
Nsbsg22
Nsba(irule
Rule
p1966
(dp1967
g15
(irule
Guard
p1968
(dp1969
g18
I00
sg19
(lp1970
sg21
I00
sg22
Nsg23
I00
sg24
S'L'
sbsg25
(irule
ConstantPhoneme
p1971
(dp1972
S'p'
Vu
sbsg33
(irule
Guard
p1973
(dp1974
g18
I01
sg19
(lp1975
(irule
FeatureMatrix
p1976
(dp1977
g28
(lp1978
(I00
g849
tp1979
a(I00
g746
tp1980
a(I01
g750
tp1981
asg22
Nsbasg21
I00
sg22
Nsg23
I00
sg24
S'R'
sbsg37
(irule
ConstantPhoneme
p1982
(dp1983
S'p'
Vo
sbsg22
Nsba(irule
Rule
p1984
(dp1985
g15
(irule
Guard
p1986
(dp1987
g18
I00
sg19
(lp1988
sg21
I00
sg22
Nsg23
I00
sg24
S'L'
sbsg25
(irule
ConstantPhoneme
p1989
(dp1990
S'p'
Vu
sbsg33
(irule
Guard
p1991
(dp1992
g18
I01
sg19
(lp1993
(irule
FeatureMatrix
p1994
(dp1995
g28
(lp1996
(I00
g746
tp1997
a(I00
g748
tp1998
a(I01
g750
tp1999
asg22
Nsbasg21
I00
sg22
Nsg23
I00
sg24
S'R'
sbsg37
(irule
FeatureMatrix
p2000
(dp2001
g28
(lp2002
(I00
g1357
tp2003
asg22
Nsbsg22
Nsba(irule
Rule
p2004
(dp2005
g15
(irule
Guard
p2006
(dp2007
g18
I00
sg19
(lp2008
sg21
I00
sg22
Nsg23
I00
sg24
S'L'
sbsg25
(irule
ConstantPhoneme
p2009
(dp2010
S'p'
Vu
sbsg33
(irule
Guard
p2011
(dp2012
g18
I01
sg19
(lp2013
(irule
FeatureMatrix
p2014
(dp2015
g28
(lp2016
(I00
g746
tp2017
a(I01
g750
tp2018
asg22
Nsbasg21
I00
sg22
Nsg23
I00
sg24
S'R'
sbsg37
(irule
FeatureMatrix
p2019
(dp2020
g28
(lp2021
(I01
g829
tp2022
a(I01
g748
tp2023
asg22
Nsbsg22
Nsba(irule
Rule
p2024
(dp2025
g15
(irule
Guard
p2026
(dp2027
g18
I00
sg19
(lp2028
sg21
I00
sg22
Nsg23
I00
sg24
S'L'
sbsg25
(irule
ConstantPhoneme
p2029
(dp2030
S'p'
Vu
sbsg33
(irule
Guard
p2031
(dp2032
g18
I01
sg19
(lp2033
(irule
FeatureMatrix
p2034
(dp2035
g28
(lp2036
(I00
g746
tp2037
a(I00
g788
tp2038
a(I01
g750
tp2039
asg22
Nsbasg21
I00
sg22
Nsg23
I00
sg24
S'R'
sbsg37
(irule
FeatureMatrix
p2040
(dp2041
g28
(lp2042
(I00
g746
tp2043
asg22
Nsbsg22
Nsba(irule
Rule
p2044
(dp2045
g15
(irule
Guard
p2046
(dp2047
g18
I00
sg19
(lp2048
sg21
I00
sg22
Nsg23
I00
sg24
S'L'
sbsg25
(irule
ConstantPhoneme
p2049
(dp2050
S'p'
Vu
sbsg33
(irule
Guard
p2051
(dp2052
g18
I01
sg19
(lp2053
(irule
FeatureMatrix
p2054
(dp2055
g28
(lp2056
(I00
g746
tp2057
a(I01
g750
tp2058
asg22
Nsbasg21
I00
sg22
Nsg23
I00
sg24
S'R'
sbsg37
(irule
FeatureMatrix
p2059
(dp2060
g28
(lp2061
(I01
g1840
tp2062
a(I01
g748
tp2063
asg22
Nsbsg22
Nsba(irule
Rule
p2064
(dp2065
g15
(irule
Guard
p2066
(dp2067
g18
I00
sg19
(lp2068
sg21
I00
sg22
Nsg23
I00
sg24
S'L'
sbsg25
(irule
ConstantPhoneme
p2069
(dp2070
S'p'
Vu
sbsg33
(irule
Guard
p2071
(dp2072
g18
I01
sg19
(lp2073
(irule
FeatureMatrix
p2074
(dp2075
g28
(lp2076
(I00
g746
tp2077
a(I01
g750
tp2078
asg22
Nsbasg21
I00
sg22
Nsg23
I00
sg24
S'R'
sbsg37
(irule
FeatureMatrix
p2079
(dp2080
g28
(lp2081
(I01
g991
tp2082
a(I01
g748
tp2083
asg22
Nsbsg22
Nsba(irule
Rule
p2084
(dp2085
g15
(irule
Guard
p2086
(dp2087
g18
I00
sg19
(lp2088
(irule
FeatureMatrix
p2089
(dp2090
g28
(lp2091
sg22
Nsbasg21
I00
sg22
Nsg23
I00
sg24
S'L'
sbsg25
(irule
ConstantPhoneme
p2092
(dp2093
S'p'
Vu
sbsg33
(irule
Guard
p2094
(dp2095
g18
I01
sg19
(lp2096
(irule
FeatureMatrix
p2097
(dp2098
g28
(lp2099
(I00
g746
tp2100
a(I01
g750
tp2101
asg22
Nsbasg21
I00
sg22
Nsg23
I00
sg24
S'R'
sbsg37
(irule
FeatureMatrix
p2102
(dp2103
g28
(lp2104
(I01
g748
tp2105
asg22
Nsbsg22
Nsba(irule
Rule
p2106
(dp2107
g15
(irule
Guard
p2108
(dp2109
g18
I00
sg19
(lp2110
sg21
I00
sg22
Nsg23
I00
sg24
S'L'
sbsg25
(irule
ConstantPhoneme
p2111
(dp2112
S'p'
Vu
sbsg33
(irule
Guard
p2113
(dp2114
g18
I01
sg19
(lp2115
(irule
FeatureMatrix
p2116
(dp2117
g28
(lp2118
(I00
g746
tp2119
a(I01
g750
tp2120
asg22
Nsbasg21
I00
sg22
Nsg23
I00
sg24
S'R'
sbsg37
(irule
FeatureMatrix
p2121
(dp2122
g28
(lp2123
(I00
g1438
tp2124
a(I01
g829
tp2125
asg22
Nsbsg22
Nsba(irule
Rule
p2126
(dp2127
g15
(irule
Guard
p2128
(dp2129
g18
I00
sg19
(lp2130
sg21
I00
sg22
Nsg23
I00
sg24
S'L'
sbsg25
(irule
ConstantPhoneme
p2131
(dp2132
S'p'
Vu
sbsg33
(irule
Guard
p2133
(dp2134
g18
I01
sg19
(lp2135
(irule
FeatureMatrix
p2136
(dp2137
g28
(lp2138
(I00
g746
tp2139
a(I00
g748
tp2140
a(I01
g750
tp2141
asg22
Nsbasg21
I00
sg22
Nsg23
I00
sg24
S'R'
sbsg37
(irule
FeatureMatrix
p2142
(dp2143
g28
(lp2144
(I01
g788
tp2145
asg22
Nsbsg22
Nsba(irule
Rule
p2146
(dp2147
g15
(irule
Guard
p2148
(dp2149
g18
I00
sg19
(lp2150
sg21
I00
sg22
Nsg23
I00
sg24
S'L'
sbsg25
(irule
ConstantPhoneme
p2151
(dp2152
S'p'
Vu
sbsg33
(irule
Guard
p2153
(dp2154
g18
I01
sg19
(lp2155
(irule
FeatureMatrix
p2156
(dp2157
g28
(lp2158
(I00
g746
tp2159
a(I00
g788
tp2160
a(I01
g750
tp2161
asg22
Nsbasg21
I00
sg22
Nsg23
I00
sg24
S'R'
sbsg37
(irule
FeatureMatrix
p2162
(dp2163
g28
(lp2164
(I01
g849
tp2165
asg22
Nsbsg22
Nsba(irule
Rule
p2166
(dp2167
g15
(irule
Guard
p2168
(dp2169
g18
I00
sg19
(lp2170
sg21
I00
sg22
Nsg23
I00
sg24
S'L'
sbsg25
(irule
ConstantPhoneme
p2171
(dp2172
S'p'
Vu
sbsg33
(irule
Guard
p2173
(dp2174
g18
I01
sg19
(lp2175
(irule
FeatureMatrix
p2176
(dp2177
g28
(lp2178
(I00
g746
tp2179
a(I00
g748
tp2180
a(I01
g750
tp2181
asg22
Nsbasg21
I00
sg22
Nsg23
I00
sg24
S'R'
sbsg37
(irule
ConstantPhoneme
p2182
(dp2183
S'p'
Vo
sbsg22
Nsba(irule
Rule
p2184
(dp2185
g15
(irule
Guard
p2186
(dp2187
g18
I00
sg19
(lp2188
sg21
I00
sg22
Nsg23
I00
sg24
S'L'
sbsg25
(irule
ConstantPhoneme
p2189
(dp2190
S'p'
Vu
sbsg33
(irule
Guard
p2191
(dp2192
g18
I01
sg19
(lp2193
(irule
FeatureMatrix
p2194
(dp2195
g28
(lp2196
(I00
g746
tp2197
a(I00
g748
tp2198
a(I01
g750
tp2199
asg22
Nsbasg21
I00
sg22
Nsg23
I00
sg24
S'R'
sbsg37
(irule
FeatureMatrix
p2200
(dp2201
g28
(lp2202
(I00
g1254
tp2203
asg22
Nsbsg22
Nsba(irule
Rule
p2204
(dp2205
g15
(irule
Guard
p2206
(dp2207
g18
I00
sg19
(lp2208
sg21
I00
sg22
Nsg23
I00
sg24
S'L'
sbsg25
(irule
ConstantPhoneme
p2209
(dp2210
S'p'
Vu
sbsg33
(irule
Guard
p2211
(dp2212
g18
I01
sg19
(lp2213
(irule
FeatureMatrix
p2214
(dp2215
g28
(lp2216
(I00
g746
tp2217
a(I01
g750
tp2218
asg22
Nsbasg21
I00
sg22
Nsg23
I00
sg24
S'R'
sbsg37
(irule
FeatureMatrix
p2219
(dp2220
g28
(lp2221
(I01
g849
tp2222
a(I01
g750
tp2223
asg22
Nsbsg22
Nsba(irule
Rule
p2224
(dp2225
g15
(irule
Guard
p2226
(dp2227
g18
I00
sg19
(lp2228
sg21
I00
sg22
Nsg23
I00
sg24
S'L'
sbsg25
(irule
ConstantPhoneme
p2229
(dp2230
S'p'
Vu
sbsg33
(irule
Guard
p2231
(dp2232
g18
I01
sg19
(lp2233
(irule
FeatureMatrix
p2234
(dp2235
g28
(lp2236
(I00
g746
tp2237
a(I01
g750
tp2238
asg22
Nsbasg21
I00
sg22
Nsg23
I00
sg24
S'R'
sbsg37
(irule
FeatureMatrix
p2239
(dp2240
g28
(lp2241
(I00
g1538
tp2242
a(I01
g829
tp2243
asg22
Nsbsg22
Nsba(irule
Rule
p2244
(dp2245
g15
(irule
Guard
p2246
(dp2247
g18
I00
sg19
(lp2248
sg21
I00
sg22
Nsg23
I00
sg24
S'L'
sbsg25
(irule
ConstantPhoneme
p2249
(dp2250
S'p'
Vu
sbsg33
(irule
Guard
p2251
(dp2252
g18
I01
sg19
(lp2253
(irule
FeatureMatrix
p2254
(dp2255
g28
(lp2256
(I00
g746
tp2257
a(I00
g748
tp2258
a(I01
g750
tp2259
asg22
Nsbasg21
I00
sg22
Nsg23
I00
sg24
S'R'
sbsg37
(irule
FeatureMatrix
p2260
(dp2261
g28
(lp2262
(I01
g829
tp2263
asg22
Nsbsg22
Nsba(irule
Rule
p2264
(dp2265
g15
(irule
Guard
p2266
(dp2267
g18
I00
sg19
(lp2268
sg21
I00
sg22
Nsg23
I00
sg24
S'L'
sbsg25
(irule
ConstantPhoneme
p2269
(dp2270
S'p'
Vu
sbsg33
(irule
Guard
p2271
(dp2272
g18
I01
sg19
(lp2273
(irule
FeatureMatrix
p2274
(dp2275
g28
(lp2276
(I00
g746
tp2277
a(I00
g748
tp2278
a(I01
g750
tp2279
asg22
Nsbasg21
I00
sg22
Nsg23
I00
sg24
S'R'
sbsg37
(irule
FeatureMatrix
p2280
(dp2281
g28
(lp2282
(I00
g1538
tp2283
asg22
Nsbsg22
Nsba(irule
Rule
p2284
(dp2285
g15
(irule
Guard
p2286
(dp2287
g18
I00
sg19
(lp2288
sg21
I00
sg22
Nsg23
I00
sg24
S'L'
sbsg25
(irule
ConstantPhoneme
p2289
(dp2290
S'p'
Vu
sbsg33
(irule
Guard
p2291
(dp2292
g18
I01
sg19
(lp2293
(irule
FeatureMatrix
p2294
(dp2295
g28
(lp2296
(I00
g746
tp2297
a(I01
g750
tp2298
asg22
Nsbasg21
I00
sg22
Nsg23
I00
sg24
S'R'
sbsg37
(irule
FeatureMatrix
p2299
(dp2300
g28
(lp2301
(I01
g829
tp2302
a(I01
g750
tp2303
asg22
Nsbsg22
Nsba(irule
Rule
p2304
(dp2305
g15
(irule
Guard
p2306
(dp2307
g18
I00
sg19
(lp2308
sg21
I00
sg22
Nsg23
I00
sg24
S'L'
sbsg25
(irule
ConstantPhoneme
p2309
(dp2310
S'p'
Vu
sbsg33
(irule
Guard
p2311
(dp2312
g18
I01
sg19
(lp2313
(irule
FeatureMatrix
p2314
(dp2315
g28
(lp2316
(I00
g746
tp2317
a(I00
g829
tp2318
a(I01
g750
tp2319
asg22
Nsbasg21
I00
sg22
Nsg23
I00
sg24
S'R'
sbsg37
(irule
FeatureMatrix
p2320
(dp2321
g28
(lp2322
(I01
g849
tp2323
asg22
Nsbsg22
Nsba(irule
Rule
p2324
(dp2325
g15
(irule
Guard
p2326
(dp2327
g18
I00
sg19
(lp2328
sg21
I00
sg22
Nsg23
I00
sg24
S'L'
sbsg25
(irule
ConstantPhoneme
p2329
(dp2330
S'p'
Vu
sbsg33
(irule
Guard
p2331
(dp2332
g18
I01
sg19
(lp2333
(irule
FeatureMatrix
p2334
(dp2335
g28
(lp2336
(I00
g746
tp2337
a(I01
g750
tp2338
asg22
Nsbasg21
I00
sg22
Nsg23
I00
sg24
S'R'
sbsg37
(irule
FeatureMatrix
p2339
(dp2340
g28
(lp2341
(I00
g869
tp2342
a(I01
g788
tp2343
asg22
Nsbsg22
Nsba(irule
Rule
p2344
(dp2345
g15
(irule
Guard
p2346
(dp2347
g18
I00
sg19
(lp2348
sg21
I00
sg22
Nsg23
I00
sg24
S'L'
sbsg25
(irule
ConstantPhoneme
p2349
(dp2350
S'p'
Vu
sbsg33
(irule
Guard
p2351
(dp2352
g18
I01
sg19
(lp2353
(irule
FeatureMatrix
p2354
(dp2355
g28
(lp2356
(I00
g746
tp2357
a(I01
g750
tp2358
asg22
Nsbasg21
I00
sg22
Nsg23
I00
sg24
S'R'
sbsg37
(irule
FeatureMatrix
p2359
(dp2360
g28
(lp2361
(I01
g849
tp2362
a(I00
g1276
tp2363
asg22
Nsbsg22
Nsba(irule
Rule
p2364
(dp2365
g15
(irule
Guard
p2366
(dp2367
g18
I00
sg19
(lp2368
sg21
I00
sg22
Nsg23
I00
sg24
S'L'
sbsg25
(irule
ConstantPhoneme
p2369
(dp2370
S'p'
Vu
sbsg33
(irule
Guard
p2371
(dp2372
g18
I01
sg19
(lp2373
(irule
FeatureMatrix
p2374
(dp2375
g28
(lp2376
(I00
g746
tp2377
a(I01
g750
tp2378
asg22
Nsbasg21
I00
sg22
Nsg23
I00
sg24
S'R'
sbsg37
(irule
FeatureMatrix
p2379
(dp2380
g28
(lp2381
(I01
g849
tp2382
a(I00
g1357
tp2383
asg22
Nsbsg22
Nsba(irule
Rule
p2384
(dp2385
g15
(irule
Guard
p2386
(dp2387
g18
I00
sg19
(lp2388
sg21
I00
sg22
Nsg23
I00
sg24
S'L'
sbsg25
(irule
ConstantPhoneme
p2389
(dp2390
S'p'
Vu
sbsg33
(irule
Guard
p2391
(dp2392
g18
I01
sg19
(lp2393
(irule
FeatureMatrix
p2394
(dp2395
g28
(lp2396
(I00
g746
tp2397
a(I00
g829
tp2398
a(I01
g750
tp2399
asg22
Nsbasg21
I00
sg22
Nsg23
I00
sg24
S'R'
sbsg37
(irule
ConstantPhoneme
p2400
(dp2401
S'p'
Vo
sbsg22
Nsba(irule
Rule
p2402
(dp2403
g15
(irule
Guard
p2404
(dp2405
g18
I00
sg19
(lp2406
sg21
I00
sg22
Nsg23
I00
sg24
S'L'
sbsg25
(irule
ConstantPhoneme
p2407
(dp2408
S'p'
Vu
sbsg33
(irule
Guard
p2409
(dp2410
g18
I01
sg19
(lp2411
(irule
FeatureMatrix
p2412
(dp2413
g28
(lp2414
(I00
g746
tp2415
a(I00
g748
tp2416
a(I01
g750
tp2417
asg22
Nsbasg21
I00
sg22
Nsg23
I00
sg24
S'R'
sbsg37
(irule
FeatureMatrix
p2418
(dp2419
g28
(lp2420
(I01
g991
tp2421
asg22
Nsbsg22
Nsba(irule
Rule
p2422
(dp2423
g15
(irule
Guard
p2424
(dp2425
g18
I00
sg19
(lp2426
sg21
I00
sg22
Nsg23
I00
sg24
S'L'
sbsg25
(irule
ConstantPhoneme
p2427
(dp2428
S'p'
Vu
sbsg33
(irule
Guard
p2429
(dp2430
g18
I01
sg19
(lp2431
(irule
FeatureMatrix
p2432
(dp2433
g28
(lp2434
(I00
g746
tp2435
a(I00
g748
tp2436
a(I01
g750
tp2437
asg22
Nsbasg21
I00
sg22
Nsg23
I00
sg24
S'R'
sbsg37
(irule
FeatureMatrix
p2438
(dp2439
g28
(lp2440
(I01
g1840
tp2441
asg22
Nsbsg22
Nsba(irule
Rule
p2442
(dp2443
g15
(irule
Guard
p2444
(dp2445
g18
I00
sg19
(lp2446
(irule
FeatureMatrix
p2447
(dp2448
g28
(lp2449
sg22
Nsbasg21
I00
sg22
Nsg23
I00
sg24
S'L'
sbsg25
(irule
ConstantPhoneme
p2450
(dp2451
S'p'
Vu
sbsg33
(irule
Guard
p2452
(dp2453
g18
I01
sg19
(lp2454
(irule
FeatureMatrix
p2455
(dp2456
g28
(lp2457
(I00
g746
tp2458
a(I00
g748
tp2459
a(I01
g750
tp2460
asg22
Nsbasg21
I00
sg22
Nsg23
I00
sg24
S'R'
sbsg37
(irule
FeatureMatrix
p2461
(dp2462
g28
(lp2463
sg22
Nsbsg22
Nsba(irule
Rule
p2464
(dp2465
g15
(irule
Guard
p2466
(dp2467
g18
I00
sg19
(lp2468
sg21
I00
sg22
Nsg23
I00
sg24
S'L'
sbsg25
(irule
ConstantPhoneme
p2469
(dp2470
S'p'
Vu
sbsg33
(irule
Guard
p2471
(dp2472
g18
I01
sg19
(lp2473
(irule
FeatureMatrix
p2474
(dp2475
g28
(lp2476
(I00
g746
tp2477
a(I01
g750
tp2478
asg22
Nsbasg21
I00
sg22
Nsg23
I00
sg24
S'R'
sbsg37
(irule
FeatureMatrix
p2479
(dp2480
g28
(lp2481
(I01
g849
tp2482
a(I00
g1254
tp2483
asg22
Nsbsg22
Nsba(irule
Rule
p2484
(dp2485
g15
(irule
Guard
p2486
(dp2487
g18
I00
sg19
(lp2488
sg21
I00
sg22
Nsg23
I00
sg24
S'L'
sbsg25
(irule
ConstantPhoneme
p2489
(dp2490
S'p'
Vu
sbsg33
(irule
Guard
p2491
(dp2492
g18
I01
sg19
(lp2493
(irule
FeatureMatrix
p2494
(dp2495
g28
(lp2496
(I00
g746
tp2497
a(I00
g748
tp2498
a(I01
g750
tp2499
asg22
Nsbasg21
I00
sg22
Nsg23
I00
sg24
S'R'
sbsg37
(irule
FeatureMatrix
p2500
(dp2501
g28
(lp2502
(I00
g1068
tp2503
asg22
Nsbsg22
Nsba(irule
Rule
p2504
(dp2505
g15
(irule
Guard
p2506
(dp2507
g18
I00
sg19
(lp2508
sg21
I00
sg22
Nsg23
I00
sg24
S'L'
sbsg25
(irule
ConstantPhoneme
p2509
(dp2510
S'p'
Vu
sbsg33
(irule
Guard
p2511
(dp2512
g18
I01
sg19
(lp2513
(irule
FeatureMatrix
p2514
(dp2515
g28
(lp2516
(I00
g746
tp2517
a(I01
g750
tp2518
asg22
Nsbasg21
I00
sg22
Nsg23
I00
sg24
S'R'
sbsg37
(irule
FeatureMatrix
p2519
(dp2520
g28
(lp2521
(I01
g829
tp2522
a(I01
g788
tp2523
asg22
Nsbsg22
Nsba(irule
Rule
p2524
(dp2525
g15
(irule
Guard
p2526
(dp2527
g18
I00
sg19
(lp2528
sg21
I00
sg22
Nsg23
I00
sg24
S'L'
sbsg25
(irule
ConstantPhoneme
p2529
(dp2530
S'p'
Vu
sbsg33
(irule
Guard
p2531
(dp2532
g18
I01
sg19
(lp2533
(irule
FeatureMatrix
p2534
(dp2535
g28
(lp2536
(I00
g746
tp2537
a(I00
g748
tp2538
a(I01
g750
tp2539
asg22
Nsbasg21
I00
sg22
Nsg23
I00
sg24
S'R'
sbsg37
(irule
FeatureMatrix
p2540
(dp2541
g28
(lp2542
(I00
g869
tp2543
asg22
Nsbsg22
Nsba(irule
Rule
p2544
(dp2545
g15
(irule
Guard
p2546
(dp2547
g18
I00
sg19
(lp2548
sg21
I00
sg22
Nsg23
I00
sg24
S'L'
sbsg25
(irule
ConstantPhoneme
p2549
(dp2550
S'p'
Vu
sbsg33
(irule
Guard
p2551
(dp2552
g18
I01
sg19
(lp2553
(irule
FeatureMatrix
p2554
(dp2555
g28
(lp2556
(I00
g746
tp2557
a(I00
g788
tp2558
a(I01
g750
tp2559
asg22
Nsbasg21
I00
sg22
Nsg23
I00
sg24
S'R'
sbsg37
(irule
FeatureMatrix
p2560
(dp2561
g28
(lp2562
(I01
g991
tp2563
asg22
Nsbsg22
Nsba(irule
Rule
p2564
(dp2565
g15
(irule
Guard
p2566
(dp2567
g18
I00
sg19
(lp2568
sg21
I00
sg22
Nsg23
I00
sg24
S'L'
sbsg25
(irule
ConstantPhoneme
p2569
(dp2570
S'p'
Vu
sbsg33
(irule
Guard
p2571
(dp2572
g18
I01
sg19
(lp2573
(irule
FeatureMatrix
p2574
(dp2575
g28
(lp2576
(I00
g746
tp2577
a(I01
g750
tp2578
asg22
Nsbasg21
I00
sg22
Nsg23
I00
sg24
S'R'
sbsg37
(irule
FeatureMatrix
p2579
(dp2580
g28
(lp2581
(I01
g849
tp2582
a(I00
g746
tp2583
asg22
Nsbsg22
Nsba(irule
Rule
p2584
(dp2585
g15
(irule
Guard
p2586
(dp2587
g18
I00
sg19
(lp2588
sg21
I00
sg22
Nsg23
I00
sg24
S'L'
sbsg25
(irule
ConstantPhoneme
p2589
(dp2590
S'p'
Vu
sbsg33
(irule
Guard
p2591
(dp2592
g18
I01
sg19
(lp2593
(irule
FeatureMatrix
p2594
(dp2595
g28
(lp2596
(I00
g746
tp2597
a(I00
g788
tp2598
a(I01
g750
tp2599
asg22
Nsbasg21
I00
sg22
Nsg23
I00
sg24
S'R'
sbsg37
(irule
FeatureMatrix
p2600
(dp2601
g28
(lp2602
(I01
g1171
tp2603
asg22
Nsbsg22
Nsba(irule
Rule
p2604
(dp2605
g15
(irule
Guard
p2606
(dp2607
g18
I00
sg19
(lp2608
sg21
I00
sg22
Nsg23
I00
sg24
S'L'
sbsg25
(irule
ConstantPhoneme
p2609
(dp2610
S'p'
Vu
sbsg33
(irule
Guard
p2611
(dp2612
g18
I01
sg19
(lp2613
(irule
FeatureMatrix
p2614
(dp2615
g28
(lp2616
(I00
g746
tp2617
a(I01
g750
tp2618
asg22
Nsbasg21
I00
sg22
Nsg23
I00
sg24
S'R'
sbsg37
(irule
FeatureMatrix
p2619
(dp2620
g28
(lp2621
(I01
g849
tp2622
a(I00
g869
tp2623
asg22
Nsbsg22
Nsba(irule
Rule
p2624
(dp2625
g15
(irule
Guard
p2626
(dp2627
g18
I00
sg19
(lp2628
sg21
I00
sg22
Nsg23
I00
sg24
S'L'
sbsg25
(irule
ConstantPhoneme
p2629
(dp2630
S'p'
Vu
sbsg33
(irule
Guard
p2631
(dp2632
g18
I01
sg19
(lp2633
(irule
FeatureMatrix
p2634
(dp2635
g28
(lp2636
(I00
g746
tp2637
a(I01
g750
tp2638
asg22
Nsbasg21
I00
sg22
Nsg23
I00
sg24
S'R'
sbsg37
(irule
FeatureMatrix
p2639
(dp2640
g28
(lp2641
(I00
g869
tp2642
a(I01
g829
tp2643
asg22
Nsbsg22
Nsba(irule
Rule
p2644
(dp2645
g15
(irule
Guard
p2646
(dp2647
g18
I00
sg19
(lp2648
sg21
I00
sg22
Nsg23
I00
sg24
S'L'
sbsg25
(irule
ConstantPhoneme
p2649
(dp2650
S'p'
Vu
sbsg33
(irule
Guard
p2651
(dp2652
g18
I01
sg19
(lp2653
(irule
FeatureMatrix
p2654
(dp2655
g28
(lp2656
(I00
g746
tp2657
a(I00
g748
tp2658
a(I01
g750
tp2659
asg22
Nsbasg21
I00
sg22
Nsg23
I00
sg24
S'R'
sbsg37
(irule
FeatureMatrix
p2660
(dp2661
g28
(lp2662
(I00
g746
tp2663
asg22
Nsbsg22
Nsba(irule
Rule
p2664
(dp2665
g15
(irule
Guard
p2666
(dp2667
g18
I00
sg19
(lp2668
sg21
I00
sg22
Nsg23
I00
sg24
S'L'
sbsg25
(irule
ConstantPhoneme
p2669
(dp2670
S'p'
Vu
sbsg33
(irule
Guard
p2671
(dp2672
g18
I01
sg19
(lp2673
(irule
FeatureMatrix
p2674
(dp2675
g28
(lp2676
(I00
g746
tp2677
a(I01
g750
tp2678
asg22
Nsbasg21
I00
sg22
Nsg23
I00
sg24
S'R'
sbsg37
(irule
FeatureMatrix
p2679
(dp2680
g28
(lp2681
(I00
g1538
tp2682
a(I01
g788
tp2683
asg22
Nsbsg22
Nsba(irule
Rule
p2684
(dp2685
g15
(irule
Guard
p2686
(dp2687
g18
I00
sg19
(lp2688
sg21
I00
sg22
Nsg23
I00
sg24
S'L'
sbsg25
(irule
ConstantPhoneme
p2689
(dp2690
S'p'
Vu
sbsg33
(irule
Guard
p2691
(dp2692
g18
I01
sg19
(lp2693
(irule
FeatureMatrix
p2694
(dp2695
g28
(lp2696
(I00
g746
tp2697
a(I00
g788
tp2698
a(I01
g750
tp2699
asg22
Nsbasg21
I00
sg22
Nsg23
I00
sg24
S'R'
sbsg37
(irule
FeatureMatrix
p2700
(dp2701
g28
(lp2702
(I00
g1254
tp2703
asg22
Nsbsg22
Nsba(irule
Rule
p2704
(dp2705
g15
(irule
Guard
p2706
(dp2707
g18
I00
sg19
(lp2708
(irule
FeatureMatrix
p2709
(dp2710
g28
(lp2711
sg22
Nsbasg21
I00
sg22
Nsg23
I00
sg24
S'L'
sbsg25
(irule
ConstantPhoneme
p2712
(dp2713
S'p'
Vu
sbsg33
(irule
Guard
p2714
(dp2715
g18
I01
sg19
(lp2716
(irule
FeatureMatrix
p2717
(dp2718
g28
(lp2719
(I00
g746
tp2720
a(I01
g750
tp2721
asg22
Nsbasg21
I00
sg22
Nsg23
I00
sg24
S'R'
sbsg37
(irule
FeatureMatrix
p2722
(dp2723
g28
(lp2724
(I01
g849
tp2725
asg22
Nsbsg22
Nsba(irule
Rule
p2726
(dp2727
g15
(irule
Guard
p2728
(dp2729
g18
I00
sg19
(lp2730
sg21
I00
sg22
Nsg23
I00
sg24
S'L'
sbsg25
(irule
ConstantPhoneme
p2731
(dp2732
S'p'
Vu
sbsg33
(irule
Guard
p2733
(dp2734
g18
I01
sg19
(lp2735
(irule
FeatureMatrix
p2736
(dp2737
g28
(lp2738
(I00
g746
tp2739
a(I00
g788
tp2740
a(I01
g750
tp2741
asg22
Nsbasg21
I00
sg22
Nsg23
I00
sg24
S'R'
sbsg37
(irule
ConstantPhoneme
p2742
(dp2743
S'p'
Vo
sbsg22
Nsbaa(lp2744
(irule
Rule
p2745
(dp2746
g15
(irule
Guard
p2747
(dp2748
g18
I00
sg19
(lp2749
sg21
I00
sg22
V
sg23
I00
sg24
S'L'
sbsg25
(irule
FeatureMatrix
p2750
(dp2751
g28
(lp2752
(I00
S'voice'
tp2753
asg22
V[ -voice ]
p2754
sbsg33
(irule
Guard
p2755
(dp2756
g18
I01
sg19
(lp2757
sg21
I00
sg22
V#
sg23
I00
sg24
S'R'
sbsg37
(irule
FeatureMatrix
p2758
(dp2759
g28
(lp2760
(I00
S'sonorant'
tp2761
asg22
V[ -sonorant ]
p2762
sbsg22
V[ -sonorant ] ---> [ -voice ] /  _ #
p2763
sba(irule
Rule
p2764
(dp2765
g15
(irule
Guard
p2766
(dp2767
g18
I00
sg19
(lp2768
sg21
I00
sg22
Nsg23
I00
sg24
S'L'
sbsg25
(irule
FeatureMatrix
p2769
(dp2770
g28
(lp2771
(I00
S'tense'
p2772
tp2773
a(I00
S'voice'
p2774
tp2775
asg22
Nsbsg33
(irule
Guard
p2776
(dp2777
g18
I01
sg19
(lp2778
sg21
I00
sg22
Nsg23
I00
sg24
S'R'
sbsg37
(irule
FeatureMatrix
p2779
(dp2780
g28
(lp2781
(I00
S'sonorant'
p2782
tp2783
asg22
Nsbsg22
Nsba(irule
Rule
p2784
(dp2785
g15
(irule
Guard
p2786
(dp2787
g18
I00
sg19
(lp2788
sg21
I00
sg22
Nsg23
I00
sg24
S'L'
sbsg25
(irule
FeatureMatrix
p2789
(dp2790
g28
(lp2791
(I00
g2774
tp2792
asg22
Nsbsg33
(irule
Guard
p2793
(dp2794
g18
I01
sg19
(lp2795
sg21
I00
sg22
Nsg23
I00
sg24
S'R'
sbsg37
(irule
FeatureMatrix
p2796
(dp2797
g28
(lp2798
(I00
g2782
tp2799
a(I01
g2774
tp2800
asg22
Nsbsg22
Nsba(irule
Rule
p2801
(dp2802
g15
(irule
Guard
p2803
(dp2804
g18
I00
sg19
(lp2805
sg21
I00
sg22
Nsg23
I00
sg24
S'L'
sbsg25
(irule
FeatureMatrix
p2806
(dp2807
g28
(lp2808
(I00
S'rounded'
p2809
tp2810
a(I00
g2774
tp2811
asg22
Nsbsg33
(irule
Guard
p2812
(dp2813
g18
I01
sg19
(lp2814
sg21
I00
sg22
Nsg23
I00
sg24
S'R'
sbsg37
(irule
FeatureMatrix
p2815
(dp2816
g28
(lp2817
(I00
g2782
tp2818
asg22
Nsbsg22
Nsba(irule
Rule
p2819
(dp2820
g15
(irule
Guard
p2821
(dp2822
g18
I00
sg19
(lp2823
sg21
I00
sg22
Nsg23
I00
sg24
S'L'
sbsg25
(irule
FeatureMatrix
p2824
(dp2825
g28
(lp2826
(I00
g2774
tp2827
asg22
Nsbsg33
(irule
Guard
p2828
(dp2829
g18
I01
sg19
(lp2830
sg21
I00
sg22
Nsg23
I00
sg24
S'R'
sbsg37
(irule
FeatureMatrix
p2831
(dp2832
g28
(lp2833
(I00
g2782
tp2834
a(I00
S'low'
p2835
tp2836
asg22
Nsbsg22
Nsba(irule
Rule
p2837
(dp2838
g15
(irule
Guard
p2839
(dp2840
g18
I00
sg19
(lp2841
sg21
I00
sg22
Nsg23
I00
sg24
S'L'
sbsg25
(irule
FeatureMatrix
p2842
(dp2843
g28
(lp2844
(I00
g2774
tp2845
asg22
Nsbsg33
(irule
Guard
p2846
(dp2847
g18
I01
sg19
(lp2848
sg21
I00
sg22
Nsg23
I00
sg24
S'R'
sbsg37
(irule
FeatureMatrix
p2849
(dp2850
g28
(lp2851
(I00
g2782
tp2852
a(I00
g2772
tp2853
asg22
Nsbsg22
Nsba(irule
Rule
p2854
(dp2855
g15
(irule
Guard
p2856
(dp2857
g18
I00
sg19
(lp2858
(irule
FeatureMatrix
p2859
(dp2860
g28
(lp2861
sg22
Nsbasg21
I00
sg22
Nsg23
I00
sg24
S'L'
sbsg25
(irule
FeatureMatrix
p2862
(dp2863
g28
(lp2864
(I00
g2774
tp2865
asg22
Nsbsg33
(irule
Guard
p2866
(dp2867
g18
I01
sg19
(lp2868
sg21
I00
sg22
Nsg23
I00
sg24
S'R'
sbsg37
(irule
FeatureMatrix
p2869
(dp2870
g28
(lp2871
(I00
g2782
tp2872
asg22
Nsbsg22
Nsba(irule
Rule
p2873
(dp2874
g15
(irule
Guard
p2875
(dp2876
g18
I00
sg19
(lp2877
sg21
I00
sg22
Nsg23
I00
sg24
S'L'
sbsg25
(irule
FeatureMatrix
p2878
(dp2879
g28
(lp2880
(I00
g2774
tp2881
asg22
Nsbsg33
(irule
Guard
p2882
(dp2883
g18
I01
sg19
(lp2884
sg21
I00
sg22
Nsg23
I00
sg24
S'R'
sbsg37
(irule
FeatureMatrix
p2885
(dp2886
g28
(lp2887
(I00
g2782
tp2888
a(I00
S'palletized'
p2889
tp2890
asg22
Nsbsg22
Nsba(irule
Rule
p2891
(dp2892
g15
(irule
Guard
p2893
(dp2894
g18
I00
sg19
(lp2895
sg21
I00
sg22
Nsg23
I00
sg24
S'L'
sbsg25
(irule
FeatureMatrix
p2896
(dp2897
g28
(lp2898
(I00
S'vowel'
p2899
tp2900
a(I00
g2774
tp2901
asg22
Nsbsg33
(irule
Guard
p2902
(dp2903
g18
I01
sg19
(lp2904
sg21
I00
sg22
Nsg23
I00
sg24
S'R'
sbsg37
(irule
FeatureMatrix
p2905
(dp2906
g28
(lp2907
(I00
g2782
tp2908
asg22
Nsbsg22
Nsba(irule
Rule
p2909
(dp2910
g15
(irule
Guard
p2911
(dp2912
g18
I00
sg19
(lp2913
sg21
I00
sg22
Nsg23
I00
sg24
S'L'
sbsg25
(irule
FeatureMatrix
p2914
(dp2915
g28
(lp2916
(I00
g2889
tp2917
a(I00
g2774
tp2918
asg22
Nsbsg33
(irule
Guard
p2919
(dp2920
g18
I01
sg19
(lp2921
sg21
I00
sg22
Nsg23
I00
sg24
S'R'
sbsg37
(irule
FeatureMatrix
p2922
(dp2923
g28
(lp2924
(I00
g2782
tp2925
asg22
Nsbsg22
Nsba(irule
Rule
p2926
(dp2927
g15
(irule
Guard
p2928
(dp2929
g18
I00
sg19
(lp2930
sg21
I00
sg22
Nsg23
I00
sg24
S'L'
sbsg25
(irule
FeatureMatrix
p2931
(dp2932
g28
(lp2933
(I00
g2774
tp2934
asg22
Nsbsg33
(irule
Guard
p2935
(dp2936
g18
I01
sg19
(lp2937
sg21
I00
sg22
Nsg23
I00
sg24
S'R'
sbsg37
(irule
FeatureMatrix
p2938
(dp2939
g28
(lp2940
(I00
S'lateral'
p2941
tp2942
a(I00
g2782
tp2943
asg22
Nsbsg22
Nsba(irule
Rule
p2944
(dp2945
g15
(irule
Guard
p2946
(dp2947
g18
I00
sg19
(lp2948
sg21
I00
sg22
Nsg23
I00
sg24
S'L'
sbsg25
(irule
FeatureMatrix
p2949
(dp2950
g28
(lp2951
(I00
g2774
tp2952
asg22
Nsbsg33
(irule
Guard
p2953
(dp2954
g18
I01
sg19
(lp2955
sg21
I00
sg22
Nsg23
I00
sg24
S'R'
sbsg37
(irule
FeatureMatrix
p2956
(dp2957
g28
(lp2958
(I00
g2782
tp2959
a(I00
g2899
tp2960
asg22
Nsbsg22
Nsba(irule
Rule
p2961
(dp2962
g15
(irule
Guard
p2963
(dp2964
g18
I00
sg19
(lp2965
sg21
I00
sg22
Nsg23
I00
sg24
S'L'
sbsg25
(irule
FeatureMatrix
p2966
(dp2967
g28
(lp2968
(I00
g2835
tp2969
a(I00
g2774
tp2970
asg22
Nsbsg33
(irule
Guard
p2971
(dp2972
g18
I01
sg19
(lp2973
sg21
I00
sg22
Nsg23
I00
sg24
S'R'
sbsg37
(irule
FeatureMatrix
p2974
(dp2975
g28
(lp2976
(I00
g2782
tp2977
asg22
Nsbsg22
Nsba(irule
Rule
p2978
(dp2979
g15
(irule
Guard
p2980
(dp2981
g18
I00
sg19
(lp2982
sg21
I00
sg22
Nsg23
I00
sg24
S'L'
sbsg25
(irule
FeatureMatrix
p2983
(dp2984
g28
(lp2985
(I00
g2941
tp2986
a(I00
g2774
tp2987
asg22
Nsbsg33
(irule
Guard
p2988
(dp2989
g18
I01
sg19
(lp2990
sg21
I00
sg22
Nsg23
I00
sg24
S'R'
sbsg37
(irule
FeatureMatrix
p2991
(dp2992
g28
(lp2993
(I00
g2782
tp2994
asg22
Nsbsg22
Nsba(irule
Rule
p2995
(dp2996
g15
(irule
Guard
p2997
(dp2998
g18
I00
sg19
(lp2999
sg21
I00
sg22
Nsg23
I00
sg24
S'L'
sbsg25
(irule
FeatureMatrix
p3000
(dp3001
g28
(lp3002
(I00
g2782
tp3003
a(I00
g2774
tp3004
asg22
Nsbsg33
(irule
Guard
p3005
(dp3006
g18
I01
sg19
(lp3007
sg21
I00
sg22
Nsg23
I00
sg24
S'R'
sbsg37
(irule
FeatureMatrix
p3008
(dp3009
g28
(lp3010
(I00
g2782
tp3011
asg22
Nsbsg22
Nsba(irule
Rule
p3012
(dp3013
g15
(irule
Guard
p3014
(dp3015
g18
I00
sg19
(lp3016
sg21
I00
sg22
Nsg23
I00
sg24
S'L'
sbsg25
(irule
FeatureMatrix
p3017
(dp3018
g28
(lp3019
(I00
S'nasal'
p3020
tp3021
a(I00
g2774
tp3022
asg22
Nsbsg33
(irule
Guard
p3023
(dp3024
g18
I01
sg19
(lp3025
sg21
I00
sg22
Nsg23
I00
sg24
S'R'
sbsg37
(irule
FeatureMatrix
p3026
(dp3027
g28
(lp3028
(I00
g2782
tp3029
asg22
Nsbsg22
Nsba(irule
Rule
p3030
(dp3031
g15
(irule
Guard
p3032
(dp3033
g18
I00
sg19
(lp3034
sg21
I00
sg22
Nsg23
I00
sg24
S'L'
sbsg25
(irule
FeatureMatrix
p3035
(dp3036
g28
(lp3037
(I00
g2774
tp3038
asg22
Nsbsg33
(irule
Guard
p3039
(dp3040
g18
I01
sg19
(lp3041
sg21
I00
sg22
Nsg23
I00
sg24
S'R'
sbsg37
(irule
FeatureMatrix
p3042
(dp3043
g28
(lp3044
(I00
g3020
tp3045
a(I00
g2782
tp3046
asg22
Nsbsg22
Nsba(irule
Rule
p3047
(dp3048
g15
(irule
Guard
p3049
(dp3050
g18
I00
sg19
(lp3051
sg21
I00
sg22
Nsg23
I00
sg24
S'L'
sbsg25
(irule
FeatureMatrix
p3052
(dp3053
g28
(lp3054
(I00
S'liquid'
p3055
tp3056
a(I00
g2774
tp3057
asg22
Nsbsg33
(irule
Guard
p3058
(dp3059
g18
I01
sg19
(lp3060
sg21
I00
sg22
Nsg23
I00
sg24
S'R'
sbsg37
(irule
FeatureMatrix
p3061
(dp3062
g28
(lp3063
(I00
g2782
tp3064
asg22
Nsbsg22
Nsba(irule
Rule
p3065
(dp3066
g15
(irule
Guard
p3067
(dp3068
g18
I00
sg19
(lp3069
sg21
I00
sg22
Nsg23
I00
sg24
S'L'
sbsg25
(irule
FeatureMatrix
p3070
(dp3071
g28
(lp3072
(I00
S'glide'
p3073
tp3074
a(I00
g2774
tp3075
asg22
Nsbsg33
(irule
Guard
p3076
(dp3077
g18
I01
sg19
(lp3078
sg21
I00
sg22
Nsg23
I00
sg24
S'R'
sbsg37
(irule
FeatureMatrix
p3079
(dp3080
g28
(lp3081
(I00
g2782
tp3082
asg22
Nsbsg22
Nsba(irule
Rule
p3083
(dp3084
g15
(irule
Guard
p3085
(dp3086
g18
I00
sg19
(lp3087
sg21
I00
sg22
Nsg23
I00
sg24
S'L'
sbsg25
(irule
FeatureMatrix
p3088
(dp3089
g28
(lp3090
(I00
g2774
tp3091
asg22
Nsbsg33
(irule
Guard
p3092
(dp3093
g18
I01
sg19
(lp3094
sg21
I00
sg22
Nsg23
I00
sg24
S'R'
sbsg37
(irule
FeatureMatrix
p3095
(dp3096
g28
(lp3097
(I00
g2809
tp3098
a(I00
g2782
tp3099
asg22
Nsbsg22
Nsba(irule
Rule
p3100
(dp3101
g15
(irule
Guard
p3102
(dp3103
g18
I00
sg19
(lp3104
sg21
I00
sg22
Nsg23
I00
sg24
S'L'
sbsg25
(irule
FeatureMatrix
p3105
(dp3106
g28
(lp3107
(I00
g2774
tp3108
asg22
Nsbsg33
(irule
Guard
p3109
(dp3110
g18
I01
sg19
(lp3111
sg21
I00
sg22
Nsg23
I00
sg24
S'R'
sbsg37
(irule
FeatureMatrix
p3112
(dp3113
g28
(lp3114
(I00
g3073
tp3115
a(I00
g2782
tp3116
asg22
Nsbsg22
Nsba(irule
Rule
p3117
(dp3118
g15
(irule
Guard
p3119
(dp3120
g18
I00
sg19
(lp3121
sg21
I00
sg22
Nsg23
I00
sg24
S'L'
sbsg25
(irule
FeatureMatrix
p3122
(dp3123
g28
(lp3124
(I00
g2774
tp3125
asg22
Nsbsg33
(irule
Guard
p3126
(dp3127
g18
I01
sg19
(lp3128
sg21
I00
sg22
Nsg23
I00
sg24
S'R'
sbsg37
(irule
FeatureMatrix
p3129
(dp3130
g28
(lp3131
(I00
g3055
tp3132
a(I00
g2782
tp3133
asg22
Nsbsg22
Nsba(irule
Rule
p3134
(dp3135
g15
(irule
Guard
p3136
(dp3137
g18
I00
sg19
(lp3138
sg21
I00
sg22
Nsg23
I00
sg24
S'L'
sbsg25
(irule
FeatureMatrix
p3139
(dp3140
g28
(lp3141
(I00
g2941
tp3142
a(I00
g3020
tp3143
a(I00
g2774
tp3144
asg22
Nsbsg33
(irule
Guard
p3145
(dp3146
g18
I01
sg19
(lp3147
sg21
I00
sg22
Nsg23
I00
sg24
S'R'
sbsg37
(irule
FeatureMatrix
p3148
(dp3149
g28
(lp3150
(I00
g2782
tp3151
asg22
Nsbsg22
Nsba(irule
Rule
p3152
(dp3153
g15
(irule
Guard
p3154
(dp3155
g18
I00
sg19
(lp3156
sg21
I00
sg22
Nsg23
I00
sg24
S'L'
sbsg25
(irule
FeatureMatrix
p3157
(dp3158
g28
(lp3159
(I00
g2899
tp3160
a(I00
g2772
tp3161
a(I00
g2774
tp3162
asg22
Nsbsg33
(irule
Guard
p3163
(dp3164
g18
I01
sg19
(lp3165
sg21
I00
sg22
Nsg23
I00
sg24
S'R'
sbsg37
(irule
FeatureMatrix
p3166
(dp3167
g28
(lp3168
(I00
g2782
tp3169
asg22
Nsbsg22
Nsba(irule
Rule
p3170
(dp3171
g15
(irule
Guard
p3172
(dp3173
g18
I00
sg19
(lp3174
(irule
FeatureMatrix
p3175
(dp3176
g28
(lp3177
(I00
S'coronal'
tp3178
asg22
Nsbasg21
I00
sg22
Nsg23
I00
sg24
S'L'
sbsg25
(irule
FeatureMatrix
p3179
(dp3180
g28
(lp3181
(I00
g2774
tp3182
asg22
Nsbsg33
(irule
Guard
p3183
(dp3184
g18
I01
sg19
(lp3185
sg21
I00
sg22
Nsg23
I00
sg24
S'R'
sbsg37
(irule
FeatureMatrix
p3186
(dp3187
g28
(lp3188
(I00
g2782
tp3189
asg22
Nsbsg22
Nsba(irule
Rule
p3190
(dp3191
g15
(irule
Guard
p3192
(dp3193
g18
I00
sg19
(lp3194
(irule
FeatureMatrix
p3195
(dp3196
g28
(lp3197
(I00
g2835
tp3198
asg22
Nsbasg21
I00
sg22
Nsg23
I00
sg24
S'L'
sbsg25
(irule
FeatureMatrix
p3199
(dp3200
g28
(lp3201
(I00
g2774
tp3202
asg22
Nsbsg33
(irule
Guard
p3203
(dp3204
g18
I01
sg19
(lp3205
sg21
I00
sg22
Nsg23
I00
sg24
S'R'
sbsg37
(irule
FeatureMatrix
p3206
(dp3207
g28
(lp3208
(I00
g2782
tp3209
asg22
Nsbsg22
Nsba(irule
Rule
p3210
(dp3211
g15
(irule
Guard
p3212
(dp3213
g18
I00
sg19
(lp3214
sg21
I00
sg22
Nsg23
I00
sg24
S'L'
sbsg25
(irule
FeatureMatrix
p3215
(dp3216
g28
(lp3217
(I00
g2809
tp3218
a(I00
g3073
tp3219
a(I00
g2774
tp3220
asg22
Nsbsg33
(irule
Guard
p3221
(dp3222
g18
I01
sg19
(lp3223
sg21
I00
sg22
Nsg23
I00
sg24
S'R'
sbsg37
(irule
FeatureMatrix
p3224
(dp3225
g28
(lp3226
(I00
g2782
tp3227
asg22
Nsbsg22
Nsba(irule
Rule
p3228
(dp3229
g15
(irule
Guard
p3230
(dp3231
g18
I00
sg19
(lp3232
(irule
FeatureMatrix
p3233
(dp3234
g28
(lp3235
(I01
g2809
tp3236
asg22
Nsbasg21
I00
sg22
Nsg23
I00
sg24
S'L'
sbsg25
(irule
FeatureMatrix
p3237
(dp3238
g28
(lp3239
(I00
g2774
tp3240
asg22
Nsbsg33
(irule
Guard
p3241
(dp3242
g18
I01
sg19
(lp3243
sg21
I00
sg22
Nsg23
I00
sg24
S'R'
sbsg37
(irule
FeatureMatrix
p3244
(dp3245
g28
(lp3246
(I00
g2782
tp3247
asg22
Nsbsg22
Nsba(irule
Rule
p3248
(dp3249
g15
(irule
Guard
p3250
(dp3251
g18
I00
sg19
(lp3252
sg21
I00
sg22
Nsg23
I00
sg24
S'L'
sbsg25
(irule
FeatureMatrix
p3253
(dp3254
g28
(lp3255
(I00
g2809
tp3256
a(I00
g2774
tp3257
asg22
Nsbsg33
(irule
Guard
p3258
(dp3259
g18
I01
sg19
(lp3260
sg21
I00
sg22
Nsg23
I00
sg24
S'R'
sbsg37
(irule
FeatureMatrix
p3261
(dp3262
g28
(lp3263
(I00
g2782
tp3264
a(I00
g2889
tp3265
asg22
Nsbsg22
Nsba(irule
Rule
p3266
(dp3267
g15
(irule
Guard
p3268
(dp3269
g18
I00
sg19
(lp3270
sg21
I00
sg22
Nsg23
I00
sg24
S'L'
sbsg25
(irule
FeatureMatrix
p3271
(dp3272
g28
(lp3273
(I00
g3073
tp3274
a(I00
g2774
tp3275
asg22
Nsbsg33
(irule
Guard
p3276
(dp3277
g18
I01
sg19
(lp3278
sg21
I00
sg22
Nsg23
I00
sg24
S'R'
sbsg37
(irule
FeatureMatrix
p3279
(dp3280
g28
(lp3281
(I00
g3055
tp3282
a(I00
g2782
tp3283
asg22
Nsbsg22
Nsba(irule
Rule
p3284
(dp3285
g15
(irule
Guard
p3286
(dp3287
g18
I00
sg19
(lp3288
sg21
I00
sg22
Nsg23
I00
sg24
S'L'
sbsg25
(irule
FeatureMatrix
p3289
(dp3290
g28
(lp3291
(I00
g2774
tp3292
asg22
Nsbsg33
(irule
Guard
p3293
(dp3294
g18
I01
sg19
(lp3295
sg21
I00
sg22
Nsg23
I00
sg24
S'R'
sbsg37
(irule
FeatureMatrix
p3296
(dp3297
g28
(lp3298
(I00
g3073
tp3299
a(I00
g2782
tp3300
a(I00
g2899
tp3301
asg22
Nsbsg22
Nsba(irule
Rule
p3302
(dp3303
g15
(irule
Guard
p3304
(dp3305
g18
I00
sg19
(lp3306
sg21
I00
sg22
Nsg23
I00
sg24
S'L'
sbsg25
(irule
FeatureMatrix
p3307
(dp3308
g28
(lp3309
(I00
g2774
tp3310
asg22
Nsbsg33
(irule
Guard
p3311
(dp3312
g18
I01
sg19
(lp3313
sg21
I00
sg22
Nsg23
I00
sg24
S'R'
sbsg37
(irule
FeatureMatrix
p3314
(dp3315
g28
(lp3316
(I00
g3020
tp3317
a(I00
g2782
tp3318
a(I01
g2774
tp3319
asg22
Nsbsg22
Nsba(irule
Rule
p3320
(dp3321
g15
(irule
Guard
p3322
(dp3323
g18
I00
sg19
(lp3324
sg21
I00
sg22
Nsg23
I00
sg24
S'L'
sbsg25
(irule
FeatureMatrix
p3325
(dp3326
g28
(lp3327
(I00
g2835
tp3328
a(I00
g2772
tp3329
a(I00
g2774
tp3330
asg22
Nsbsg33
(irule
Guard
p3331
(dp3332
g18
I01
sg19
(lp3333
sg21
I00
sg22
Nsg23
I00
sg24
S'R'
sbsg37
(irule
FeatureMatrix
p3334
(dp3335
g28
(lp3336
(I00
g2782
tp3337
asg22
Nsbsg22
Nsba(irule
Rule
p3338
(dp3339
g15
(irule
Guard
p3340
(dp3341
g18
I00
sg19
(lp3342
sg21
I00
sg22
Nsg23
I00
sg24
S'L'
sbsg25
(irule
FeatureMatrix
p3343
(dp3344
g28
(lp3345
(I00
g2835
tp3346
a(I00
g2899
tp3347
a(I00
g2774
tp3348
asg22
Nsbsg33
(irule
Guard
p3349
(dp3350
g18
I01
sg19
(lp3351
sg21
I00
sg22
Nsg23
I00
sg24
S'R'
sbsg37
(irule
FeatureMatrix
p3352
(dp3353
g28
(lp3354
(I00
g2782
tp3355
asg22
Nsbsg22
Nsba(irule
Rule
p3356
(dp3357
g15
(irule
Guard
p3358
(dp3359
g18
I00
sg19
(lp3360
(irule
FeatureMatrix
p3361
(dp3362
g28
(lp3363
(I00
g3055
tp3364
asg22
Nsbasg21
I00
sg22
Nsg23
I00
sg24
S'L'
sbsg25
(irule
FeatureMatrix
p3365
(dp3366
g28
(lp3367
(I00
g2774
tp3368
asg22
Nsbsg33
(irule
Guard
p3369
(dp3370
g18
I01
sg19
(lp3371
sg21
I00
sg22
Nsg23
I00
sg24
S'R'
sbsg37
(irule
FeatureMatrix
p3372
(dp3373
g28
(lp3374
(I00
g2782
tp3375
asg22
Nsbsg22
Nsba(irule
Rule
p3376
(dp3377
g15
(irule
Guard
p3378
(dp3379
g18
I00
sg19
(lp3380
sg21
I00
sg22
Nsg23
I00
sg24
S'L'
sbsg25
(irule
FeatureMatrix
p3381
(dp3382
g28
(lp3383
(I00
g2889
tp3384
a(I00
g2835
tp3385
a(I00
g2774
tp3386
asg22
Nsbsg33
(irule
Guard
p3387
(dp3388
g18
I01
sg19
(lp3389
sg21
I00
sg22
Nsg23
I00
sg24
S'R'
sbsg37
(irule
FeatureMatrix
p3390
(dp3391
g28
(lp3392
(I00
g2782
tp3393
asg22
Nsbsg22
Nsba(irule
Rule
p3394
(dp3395
g15
(irule
Guard
p3396
(dp3397
g18
I00
sg19
(lp3398
(irule
FeatureMatrix
p3399
(dp3400
g28
(lp3401
sg22
Nsbasg21
I00
sg22
Nsg23
I00
sg24
S'L'
sbsg25
(irule
FeatureMatrix
p3402
(dp3403
g28
(lp3404
(I00
g2774
tp3405
asg22
Nsbsg33
(irule
Guard
p3406
(dp3407
g18
I01
sg19
(lp3408
sg21
I00
sg22
Nsg23
I00
sg24
S'R'
sbsg37
(irule
FeatureMatrix
p3409
(dp3410
g28
(lp3411
(I00
g2782
tp3412
a(I00
g2889
tp3413
asg22
Nsbsg22
Nsba(irule
Rule
p3414
(dp3415
g15
(irule
Guard
p3416
(dp3417
g18
I00
sg19
(lp3418
sg21
I00
sg22
Nsg23
I00
sg24
S'L'
sbsg25
(irule
FeatureMatrix
p3419
(dp3420
g28
(lp3421
(I00
g3073
tp3422
a(I00
g3055
tp3423
a(I00
g2774
tp3424
asg22
Nsbsg33
(irule
Guard
p3425
(dp3426
g18
I01
sg19
(lp3427
sg21
I00
sg22
Nsg23
I00
sg24
S'R'
sbsg37
(irule
FeatureMatrix
p3428
(dp3429
g28
(lp3430
(I00
g2782
tp3431
asg22
Nsbsg22
Nsba(irule
Rule
p3432
(dp3433
g15
(irule
Guard
p3434
(dp3435
g18
I00
sg19
(lp3436
sg21
I00
sg22
Nsg23
I00
sg24
S'L'
sbsg25
(irule
FeatureMatrix
p3437
(dp3438
g28
(lp3439
(I00
g3055
tp3440
a(I00
g3020
tp3441
a(I00
g2774
tp3442
asg22
Nsbsg33
(irule
Guard
p3443
(dp3444
g18
I01
sg19
(lp3445
sg21
I00
sg22
Nsg23
I00
sg24
S'R'
sbsg37
(irule
FeatureMatrix
p3446
(dp3447
g28
(lp3448
(I00
g2782
tp3449
asg22
Nsbsg22
Nsba(irule
Rule
p3450
(dp3451
g15
(irule
Guard
p3452
(dp3453
g18
I00
sg19
(lp3454
(irule
FeatureMatrix
p3455
(dp3456
g28
(lp3457
(I01
S'back'
tp3458
asg22
Nsbasg21
I00
sg22
Nsg23
I00
sg24
S'L'
sbsg25
(irule
FeatureMatrix
p3459
(dp3460
g28
(lp3461
(I00
g2774
tp3462
asg22
Nsbsg33
(irule
Guard
p3463
(dp3464
g18
I01
sg19
(lp3465
sg21
I00
sg22
Nsg23
I00
sg24
S'R'
sbsg37
(irule
FeatureMatrix
p3466
(dp3467
g28
(lp3468
(I00
g2782
tp3469
asg22
Nsbsg22
Nsba(irule
Rule
p3470
(dp3471
g15
(irule
Guard
p3472
(dp3473
g18
I00
sg19
(lp3474
sg21
I00
sg22
Nsg23
I00
sg24
S'L'
sbsg25
(irule
FeatureMatrix
p3475
(dp3476
g28
(lp3477
(I00
g3055
tp3478
a(I00
g2899
tp3479
a(I00
g2774
tp3480
asg22
Nsbsg33
(irule
Guard
p3481
(dp3482
g18
I01
sg19
(lp3483
sg21
I00
sg22
Nsg23
I00
sg24
S'R'
sbsg37
(irule
FeatureMatrix
p3484
(dp3485
g28
(lp3486
(I00
g2782
tp3487
asg22
Nsbsg22
Nsba(irule
Rule
p3488
(dp3489
g15
(irule
Guard
p3490
(dp3491
g18
I00
sg19
(lp3492
sg21
I00
sg22
Nsg23
I00
sg24
S'L'
sbsg25
(irule
FeatureMatrix
p3493
(dp3494
g28
(lp3495
(I00
g2782
tp3496
a(I00
g2835
tp3497
a(I00
g2774
tp3498
asg22
Nsbsg33
(irule
Guard
p3499
(dp3500
g18
I01
sg19
(lp3501
sg21
I00
sg22
Nsg23
I00
sg24
S'R'
sbsg37
(irule
FeatureMatrix
p3502
(dp3503
g28
(lp3504
(I00
g2782
tp3505
asg22
Nsbsg22
Nsba(irule
Rule
p3506
(dp3507
g15
(irule
Guard
p3508
(dp3509
g18
I00
sg19
(lp3510
(irule
FeatureMatrix
p3511
(dp3512
g28
(lp3513
(I00
g2889
tp3514
asg22
Nsbasg21
I00
sg22
Nsg23
I00
sg24
S'L'
sbsg25
(irule
FeatureMatrix
p3515
(dp3516
g28
(lp3517
(I00
g2774
tp3518
asg22
Nsbsg33
(irule
Guard
p3519
(dp3520
g18
I01
sg19
(lp3521
sg21
I00
sg22
Nsg23
I00
sg24
S'R'
sbsg37
(irule
FeatureMatrix
p3522
(dp3523
g28
(lp3524
(I00
g2782
tp3525
asg22
Nsbsg22
Nsba(irule
Rule
p3526
(dp3527
g15
(irule
Guard
p3528
(dp3529
g18
I00
sg19
(lp3530
sg21
I00
sg22
Nsg23
I00
sg24
S'L'
sbsg25
(irule
FeatureMatrix
p3531
(dp3532
g28
(lp3533
(I00
g3073
tp3534
a(I00
g2774
tp3535
asg22
Nsbsg33
(irule
Guard
p3536
(dp3537
g18
I01
sg19
(lp3538
sg21
I00
sg22
Nsg23
I00
sg24
S'R'
sbsg37
(irule
FeatureMatrix
p3539
(dp3540
g28
(lp3541
(I00
g3073
tp3542
a(I00
g2782
tp3543
asg22
Nsbsg22
Nsba(irule
Rule
p3544
(dp3545
g15
(irule
Guard
p3546
(dp3547
g18
I00
sg19
(lp3548
(irule
FeatureMatrix
p3549
(dp3550
g28
(lp3551
(I00
g2941
tp3552
asg22
Nsbasg21
I00
sg22
Nsg23
I00
sg24
S'L'
sbsg25
(irule
FeatureMatrix
p3553
(dp3554
g28
(lp3555
(I00
g2774
tp3556
asg22
Nsbsg33
(irule
Guard
p3557
(dp3558
g18
I01
sg19
(lp3559
sg21
I00
sg22
Nsg23
I00
sg24
S'R'
sbsg37
(irule
FeatureMatrix
p3560
(dp3561
g28
(lp3562
(I00
g2782
tp3563
asg22
Nsbsg22
Nsba(irule
Rule
p3564
(dp3565
g15
(irule
Guard
p3566
(dp3567
g18
I00
sg19
(lp3568
(irule
FeatureMatrix
p3569
(dp3570
g28
(lp3571
(I00
g3073
tp3572
asg22
Nsbasg21
I00
sg22
Nsg23
I00
sg24
S'L'
sbsg25
(irule
FeatureMatrix
p3573
(dp3574
g28
(lp3575
(I00
g2774
tp3576
asg22
Nsbsg33
(irule
Guard
p3577
(dp3578
g18
I01
sg19
(lp3579
sg21
I00
sg22
Nsg23
I00
sg24
S'R'
sbsg37
(irule
FeatureMatrix
p3580
(dp3581
g28
(lp3582
(I00
g2782
tp3583
asg22
Nsbsg22
Nsba(irule
Rule
p3584
(dp3585
g15
(irule
Guard
p3586
(dp3587
g18
I00
sg19
(lp3588
sg21
I00
sg22
Nsg23
I00
sg24
S'L'
sbsg25
(irule
FeatureMatrix
p3589
(dp3590
g28
(lp3591
(I00
g2941
tp3592
a(I00
g2835
tp3593
a(I00
g2774
tp3594
asg22
Nsbsg33
(irule
Guard
p3595
(dp3596
g18
I01
sg19
(lp3597
sg21
I00
sg22
Nsg23
I00
sg24
S'R'
sbsg37
(irule
FeatureMatrix
p3598
(dp3599
g28
(lp3600
(I00
g2782
tp3601
asg22
Nsbsg22
Nsba(irule
Rule
p3602
(dp3603
g15
(irule
Guard
p3604
(dp3605
g18
I00
sg19
(lp3606
(irule
ConstantPhoneme
p3607
(dp3608
S'p'
Vu
sbasg21
I00
sg22
Nsg23
I00
sg24
S'L'
sbsg25
(irule
FeatureMatrix
p3609
(dp3610
g28
(lp3611
(I00
g2774
tp3612
asg22
Nsbsg33
(irule
Guard
p3613
(dp3614
g18
I01
sg19
(lp3615
sg21
I00
sg22
Nsg23
I00
sg24
S'R'
sbsg37
(irule
FeatureMatrix
p3616
(dp3617
g28
(lp3618
(I00
g2782
tp3619
asg22
Nsbsg22
Nsba(irule
Rule
p3620
(dp3621
g15
(irule
Guard
p3622
(dp3623
g18
I00
sg19
(lp3624
sg21
I00
sg22
Nsg23
I00
sg24
S'L'
sbsg25
(irule
FeatureMatrix
p3625
(dp3626
g28
(lp3627
(I00
g2809
tp3628
a(I00
g2835
tp3629
a(I00
g2774
tp3630
asg22
Nsbsg33
(irule
Guard
p3631
(dp3632
g18
I01
sg19
(lp3633
sg21
I00
sg22
Nsg23
I00
sg24
S'R'
sbsg37
(irule
FeatureMatrix
p3634
(dp3635
g28
(lp3636
(I00
g2782
tp3637
asg22
Nsbsg22
Nsba(irule
Rule
p3638
(dp3639
g15
(irule
Guard
p3640
(dp3641
g18
I00
sg19
(lp3642
(irule
FeatureMatrix
p3643
(dp3644
g28
(lp3645
sg22
Nsbasg21
I00
sg22
Nsg23
I00
sg24
S'L'
sbsg25
(irule
FeatureMatrix
p3646
(dp3647
g28
(lp3648
(I00
g2772
tp3649
a(I00
g2774
tp3650
asg22
Nsbsg33
(irule
Guard
p3651
(dp3652
g18
I01
sg19
(lp3653
sg21
I00
sg22
Nsg23
I00
sg24
S'R'
sbsg37
(irule
FeatureMatrix
p3654
(dp3655
g28
(lp3656
(I00
g2782
tp3657
asg22
Nsbsg22
Nsba(irule
Rule
p3658
(dp3659
g15
(irule
Guard
p3660
(dp3661
g18
I00
sg19
(lp3662
sg21
I00
sg22
Nsg23
I00
sg24
S'L'
sbsg25
(irule
FeatureMatrix
p3663
(dp3664
g28
(lp3665
(I00
g2772
tp3666
a(I00
g2774
tp3667
asg22
Nsbsg33
(irule
Guard
p3668
(dp3669
g18
I01
sg19
(lp3670
sg21
I00
sg22
Nsg23
I00
sg24
S'R'
sbsg37
(irule
FeatureMatrix
p3671
(dp3672
g28
(lp3673
(I00
g2782
tp3674
a(I01
g2774
tp3675
asg22
Nsbsg22
Nsba(irule
Rule
p3676
(dp3677
g15
(irule
Guard
p3678
(dp3679
g18
I00
sg19
(lp3680
(irule
FeatureMatrix
p3681
(dp3682
g28
(lp3683
(I00
S'anterior'
tp3684
asg22
Nsbasg21
I00
sg22
Nsg23
I00
sg24
S'L'
sbsg25
(irule
FeatureMatrix
p3685
(dp3686
g28
(lp3687
(I00
g2774
tp3688
asg22
Nsbsg33
(irule
Guard
p3689
(dp3690
g18
I01
sg19
(lp3691
sg21
I00
sg22
Nsg23
I00
sg24
S'R'
sbsg37
(irule
FeatureMatrix
p3692
(dp3693
g28
(lp3694
(I00
g2782
tp3695
asg22
Nsbsg22
Nsba(irule
Rule
p3696
(dp3697
g15
(irule
Guard
p3698
(dp3699
g18
I00
sg19
(lp3700
sg21
I00
sg22
Nsg23
I00
sg24
S'L'
sbsg25
(irule
FeatureMatrix
p3701
(dp3702
g28
(lp3703
(I00
g2774
tp3704
asg22
Nsbsg33
(irule
Guard
p3705
(dp3706
g18
I01
sg19
(lp3707
sg21
I00
sg22
Nsg23
I00
sg24
S'R'
sbsg37
(irule
FeatureMatrix
p3708
(dp3709
g28
(lp3710
(I00
g2782
tp3711
a(I00
g2835
tp3712
a(I01
g2774
tp3713
asg22
Nsbsg22
Nsba(irule
Rule
p3714
(dp3715
g15
(irule
Guard
p3716
(dp3717
g18
I00
sg19
(lp3718
sg21
I00
sg22
Nsg23
I00
sg24
S'L'
sbsg25
(irule
FeatureMatrix
p3719
(dp3720
g28
(lp3721
(I00
g2774
tp3722
asg22
Nsbsg33
(irule
Guard
p3723
(dp3724
g18
I01
sg19
(lp3725
sg21
I00
sg22
Nsg23
I00
sg24
S'R'
sbsg37
(irule
FeatureMatrix
p3726
(dp3727
g28
(lp3728
(I00
g2782
tp3729
a(I00
g2772
tp3730
a(I01
g2774
tp3731
asg22
Nsbsg22
Nsba(irule
Rule
p3732
(dp3733
g15
(irule
Guard
p3734
(dp3735
g18
I00
sg19
(lp3736
sg21
I00
sg22
Nsg23
I00
sg24
S'L'
sbsg25
(irule
FeatureMatrix
p3737
(dp3738
g28
(lp3739
(I00
g3020
tp3740
a(I00
g2835
tp3741
a(I00
g2774
tp3742
asg22
Nsbsg33
(irule
Guard
p3743
(dp3744
g18
I01
sg19
(lp3745
sg21
I00
sg22
Nsg23
I00
sg24
S'R'
sbsg37
(irule
FeatureMatrix
p3746
(dp3747
g28
(lp3748
(I00
g2782
tp3749
asg22
Nsbsg22
Nsba(irule
Rule
p3750
(dp3751
g15
(irule
Guard
p3752
(dp3753
g18
I00
sg19
(lp3754
sg21
I00
sg22
Nsg23
I00
sg24
S'L'
sbsg25
(irule
FeatureMatrix
p3755
(dp3756
g28
(lp3757
(I00
g3020
tp3758
a(I00
g2782
tp3759
a(I00
g2774
tp3760
asg22
Nsbsg33
(irule
Guard
p3761
(dp3762
g18
I01
sg19
(lp3763
sg21
I00
sg22
Nsg23
I00
sg24
S'R'
sbsg37
(irule
FeatureMatrix
p3764
(dp3765
g28
(lp3766
(I00
g2782
tp3767
asg22
Nsbsg22
Nsba(irule
Rule
p3768
(dp3769
g15
(irule
Guard
p3770
(dp3771
g18
I00
sg19
(lp3772
sg21
I00
sg22
Nsg23
I00
sg24
S'L'
sbsg25
(irule
FeatureMatrix
p3773
(dp3774
g28
(lp3775
(I00
g2782
tp3776
a(I00
g2889
tp3777
a(I00
g2774
tp3778
asg22
Nsbsg33
(irule
Guard
p3779
(dp3780
g18
I01
sg19
(lp3781
sg21
I00
sg22
Nsg23
I00
sg24
S'R'
sbsg37
(irule
FeatureMatrix
p3782
(dp3783
g28
(lp3784
(I00
g2782
tp3785
asg22
Nsbsg22
Nsba(irule
Rule
p3786
(dp3787
g15
(irule
Guard
p3788
(dp3789
g18
I00
sg19
(lp3790
(irule
FeatureMatrix
p3791
(dp3792
g28
(lp3793
sg22
Nsbasg21
I00
sg22
Nsg23
I00
sg24
S'L'
sbsg25
(irule
FeatureMatrix
p3794
(dp3795
g28
(lp3796
(I00
g2774
tp3797
asg22
Nsbsg33
(irule
Guard
p3798
(dp3799
g18
I01
sg19
(lp3800
sg21
I00
sg22
Nsg23
I00
sg24
S'R'
sbsg37
(irule
FeatureMatrix
p3801
(dp3802
g28
(lp3803
(I00
g3073
tp3804
a(I00
g2782
tp3805
asg22
Nsbsg22
Nsba(irule
Rule
p3806
(dp3807
g15
(irule
Guard
p3808
(dp3809
g18
I00
sg19
(lp3810
sg21
I00
sg22
Nsg23
I00
sg24
S'L'
sbsg25
(irule
FeatureMatrix
p3811
(dp3812
g28
(lp3813
(I00
g2809
tp3814
a(I00
g2774
tp3815
asg22
Nsbsg33
(irule
Guard
p3816
(dp3817
g18
I01
sg19
(lp3818
sg21
I00
sg22
Nsg23
I00
sg24
S'R'
sbsg37
(irule
FeatureMatrix
p3819
(dp3820
g28
(lp3821
(I00
g2782
tp3822
a(I01
g2774
tp3823
asg22
Nsbsg22
Nsba(irule
Rule
p3824
(dp3825
g15
(irule
Guard
p3826
(dp3827
g18
I00
sg19
(lp3828
(irule
FeatureMatrix
p3829
(dp3830
g28
(lp3831
(I01
S'high'
tp3832
asg22
Nsbasg21
I00
sg22
Nsg23
I00
sg24
S'L'
sbsg25
(irule
FeatureMatrix
p3833
(dp3834
g28
(lp3835
(I00
g2774
tp3836
asg22
Nsbsg33
(irule
Guard
p3837
(dp3838
g18
I01
sg19
(lp3839
sg21
I00
sg22
Nsg23
I00
sg24
S'R'
sbsg37
(irule
FeatureMatrix
p3840
(dp3841
g28
(lp3842
(I00
g2782
tp3843
asg22
Nsbsg22
Nsba(irule
Rule
p3844
(dp3845
g15
(irule
Guard
p3846
(dp3847
g18
I00
sg19
(lp3848
sg21
I00
sg22
Nsg23
I00
sg24
S'L'
sbsg25
(irule
FeatureMatrix
p3849
(dp3850
g28
(lp3851
(I00
g2809
tp3852
a(I00
g3055
tp3853
a(I00
g2774
tp3854
asg22
Nsbsg33
(irule
Guard
p3855
(dp3856
g18
I01
sg19
(lp3857
sg21
I00
sg22
Nsg23
I00
sg24
S'R'
sbsg37
(irule
FeatureMatrix
p3858
(dp3859
g28
(lp3860
(I00
g2782
tp3861
asg22
Nsbsg22
Nsba(irule
Rule
p3862
(dp3863
g15
(irule
Guard
p3864
(dp3865
g18
I00
sg19
(lp3866
sg21
I00
sg22
Nsg23
I00
sg24
S'L'
sbsg25
(irule
FeatureMatrix
p3867
(dp3868
g28
(lp3869
(I00
g2809
tp3870
a(I00
g2774
tp3871
asg22
Nsbsg33
(irule
Guard
p3872
(dp3873
g18
I01
sg19
(lp3874
sg21
I00
sg22
Nsg23
I00
sg24
S'R'
sbsg37
(irule
FeatureMatrix
p3875
(dp3876
g28
(lp3877
(I00
g2782
tp3878
a(I00
g2835
tp3879
asg22
Nsbsg22
Nsba(irule
Rule
p3880
(dp3881
g15
(irule
Guard
p3882
(dp3883
g18
I00
sg19
(lp3884
sg21
I00
sg22
Nsg23
I00
sg24
S'L'
sbsg25
(irule
FeatureMatrix
p3885
(dp3886
g28
(lp3887
(I00
g2774
tp3888
asg22
Nsbsg33
(irule
Guard
p3889
(dp3890
g18
I01
sg19
(lp3891
sg21
I00
sg22
Nsg23
I00
sg24
S'R'
sbsg37
(irule
FeatureMatrix
p3892
(dp3893
g28
(lp3894
(I00
g2782
tp3895
a(I00
g2899
tp3896
a(I00
g2772
tp3897
asg22
Nsbsg22
Nsba(irule
Rule
p3898
(dp3899
g15
(irule
Guard
p3900
(dp3901
g18
I00
sg19
(lp3902
(irule
FeatureMatrix
p3903
(dp3904
g28
(lp3905
sg22
Nsbasg21
I00
sg22
Nsg23
I00
sg24
S'L'
sbsg25
(irule
FeatureMatrix
p3906
(dp3907
g28
(lp3908
(I00
g2809
tp3909
a(I00
g2774
tp3910
asg22
Nsbsg33
(irule
Guard
p3911
(dp3912
g18
I01
sg19
(lp3913
sg21
I00
sg22
Nsg23
I00
sg24
S'R'
sbsg37
(irule
FeatureMatrix
p3914
(dp3915
g28
(lp3916
(I00
g2782
tp3917
asg22
Nsbsg22
Nsba(irule
Rule
p3918
(dp3919
g15
(irule
Guard
p3920
(dp3921
g18
I00
sg19
(lp3922
(irule
FeatureMatrix
p3923
(dp3924
g28
(lp3925
sg22
Nsbasg21
I00
sg22
Nsg23
I00
sg24
S'L'
sbsg25
(irule
FeatureMatrix
p3926
(dp3927
g28
(lp3928
(I00
g2899
tp3929
a(I00
g2774
tp3930
asg22
Nsbsg33
(irule
Guard
p3931
(dp3932
g18
I01
sg19
(lp3933
sg21
I00
sg22
Nsg23
I00
sg24
S'R'
sbsg37
(irule
FeatureMatrix
p3934
(dp3935
g28
(lp3936
(I00
g2782
tp3937
asg22
Nsbsg22
Nsba(irule
Rule
p3938
(dp3939
g15
(irule
Guard
p3940
(dp3941
g18
I00
sg19
(lp3942
sg21
I00
sg22
Nsg23
I00
sg24
S'L'
sbsg25
(irule
FeatureMatrix
p3943
(dp3944
g28
(lp3945
(I00
g2782
tp3946
a(I00
g2772
tp3947
a(I00
g2774
tp3948
asg22
Nsbsg33
(irule
Guard
p3949
(dp3950
g18
I01
sg19
(lp3951
sg21
I00
sg22
Nsg23
I00
sg24
S'R'
sbsg37
(irule
FeatureMatrix
p3952
(dp3953
g28
(lp3954
(I00
g2782
tp3955
asg22
Nsbsg22
Nsba(irule
Rule
p3956
(dp3957
g15
(irule
Guard
p3958
(dp3959
g18
I00
sg19
(lp3960
sg21
I00
sg22
Nsg23
I00
sg24
S'L'
sbsg25
(irule
FeatureMatrix
p3961
(dp3962
g28
(lp3963
(I00
g2772
tp3964
a(I00
g2774
tp3965
asg22
Nsbsg33
(irule
Guard
p3966
(dp3967
g18
I01
sg19
(lp3968
sg21
I00
sg22
Nsg23
I00
sg24
S'R'
sbsg37
(irule
FeatureMatrix
p3969
(dp3970
g28
(lp3971
(I00
g2782
tp3972
a(I00
g2835
tp3973
asg22
Nsbsg22
Nsba(irule
Rule
p3974
(dp3975
g15
(irule
Guard
p3976
(dp3977
g18
I00
sg19
(lp3978
sg21
I00
sg22
Nsg23
I00
sg24
S'L'
sbsg25
(irule
FeatureMatrix
p3979
(dp3980
g28
(lp3981
(I00
g3055
tp3982
a(I00
g2941
tp3983
a(I00
g2774
tp3984
asg22
Nsbsg33
(irule
Guard
p3985
(dp3986
g18
I01
sg19
(lp3987
sg21
I00
sg22
Nsg23
I00
sg24
S'R'
sbsg37
(irule
FeatureMatrix
p3988
(dp3989
g28
(lp3990
(I00
g2782
tp3991
asg22
Nsbsg22
Nsba(irule
Rule
p3992
(dp3993
g15
(irule
Guard
p3994
(dp3995
g18
I00
sg19
(lp3996
sg21
I00
sg22
Nsg23
I00
sg24
S'L'
sbsg25
(irule
FeatureMatrix
p3997
(dp3998
g28
(lp3999
(I00
g2889
tp4000
a(I00
g2899
tp4001
a(I00
g2774
tp4002
asg22
Nsbsg33
(irule
Guard
p4003
(dp4004
g18
I01
sg19
(lp4005
sg21
I00
sg22
Nsg23
I00
sg24
S'R'
sbsg37
(irule
FeatureMatrix
p4006
(dp4007
g28
(lp4008
(I00
g2782
tp4009
asg22
Nsbsg22
Nsba(irule
Rule
p4010
(dp4011
g15
(irule
Guard
p4012
(dp4013
g18
I00
sg19
(lp4014
sg21
I00
sg22
Nsg23
I00
sg24
S'L'
sbsg25
(irule
FeatureMatrix
p4015
(dp4016
g28
(lp4017
(I00
g3020
tp4018
a(I00
g2889
tp4019
a(I00
g2774
tp4020
asg22
Nsbsg33
(irule
Guard
p4021
(dp4022
g18
I01
sg19
(lp4023
sg21
I00
sg22
Nsg23
I00
sg24
S'R'
sbsg37
(irule
FeatureMatrix
p4024
(dp4025
g28
(lp4026
(I00
g2782
tp4027
asg22
Nsbsg22
Nsba(irule
Rule
p4028
(dp4029
g15
(irule
Guard
p4030
(dp4031
g18
I00
sg19
(lp4032
sg21
I00
sg22
Nsg23
I00
sg24
S'L'
sbsg25
(irule
FeatureMatrix
p4033
(dp4034
g28
(lp4035
(I00
g2774
tp4036
asg22
Nsbsg33
(irule
Guard
p4037
(dp4038
g18
I01
sg19
(lp4039
sg21
I00
sg22
Nsg23
I00
sg24
S'R'
sbsg37
(irule
FeatureMatrix
p4040
(dp4041
g28
(lp4042
(I00
g3073
tp4043
a(I00
g2782
tp4044
a(I00
g2772
tp4045
asg22
Nsbsg22
Nsba(irule
Rule
p4046
(dp4047
g15
(irule
Guard
p4048
(dp4049
g18
I00
sg19
(lp4050
(irule
FeatureMatrix
p4051
(dp4052
g28
(lp4053
sg22
Nsbasg21
I00
sg22
Nsg23
I00
sg24
S'L'
sbsg25
(irule
FeatureMatrix
p4054
(dp4055
g28
(lp4056
(I00
g2835
tp4057
a(I00
g2774
tp4058
asg22
Nsbsg33
(irule
Guard
p4059
(dp4060
g18
I01
sg19
(lp4061
sg21
I00
sg22
Nsg23
I00
sg24
S'R'
sbsg37
(irule
FeatureMatrix
p4062
(dp4063
g28
(lp4064
(I00
g2782
tp4065
asg22
Nsbsg22
Nsba(irule
Rule
p4066
(dp4067
g15
(irule
Guard
p4068
(dp4069
g18
I00
sg19
(lp4070
sg21
I00
sg22
Nsg23
I00
sg24
S'L'
sbsg25
(irule
FeatureMatrix
p4071
(dp4072
g28
(lp4073
(I00
g2774
tp4074
asg22
Nsbsg33
(irule
Guard
p4075
(dp4076
g18
I01
sg19
(lp4077
sg21
I00
sg22
Nsg23
I00
sg24
S'R'
sbsg37
(irule
FeatureMatrix
p4078
(dp4079
g28
(lp4080
(I00
g2782
tp4081
a(I00
g2889
tp4082
a(I00
g2835
tp4083
asg22
Nsbsg22
Nsba(irule
Rule
p4084
(dp4085
g15
(irule
Guard
p4086
(dp4087
g18
I00
sg19
(lp4088
sg21
I00
sg22
Nsg23
I00
sg24
S'L'
sbsg25
(irule
FeatureMatrix
p4089
(dp4090
g28
(lp4091
(I00
g2774
tp4092
asg22
Nsbsg33
(irule
Guard
p4093
(dp4094
g18
I01
sg19
(lp4095
sg21
I00
sg22
Nsg23
I00
sg24
S'R'
sbsg37
(irule
FeatureMatrix
p4096
(dp4097
g28
(lp4098
(I00
g3055
tp4099
a(I00
g2782
tp4100
a(I00
g2899
tp4101
asg22
Nsbsg22
Nsba(irule
Rule
p4102
(dp4103
g15
(irule
Guard
p4104
(dp4105
g18
I00
sg19
(lp4106
sg21
I00
sg22
Nsg23
I00
sg24
S'L'
sbsg25
(irule
FeatureMatrix
p4107
(dp4108
g28
(lp4109
(I00
g2809
tp4110
a(I00
g2941
tp4111
a(I00
g2774
tp4112
asg22
Nsbsg33
(irule
Guard
p4113
(dp4114
g18
I01
sg19
(lp4115
sg21
I00
sg22
Nsg23
I00
sg24
S'R'
sbsg37
(irule
FeatureMatrix
p4116
(dp4117
g28
(lp4118
(I00
g2782
tp4119
asg22
Nsbsg22
Nsba(irule
Rule
p4120
(dp4121
g15
(irule
Guard
p4122
(dp4123
g18
I00
sg19
(lp4124
(irule
FeatureMatrix
p4125
(dp4126
g28
(lp4127
sg22
Nsba(irule
FeatureMatrix
p4128
(dp4129
g28
(lp4130
sg22
Nsbasg21
I00
sg22
Nsg23
I00
sg24
S'L'
sbsg25
(irule
FeatureMatrix
p4131
(dp4132
g28
(lp4133
(I00
g2774
tp4134
asg22
Nsbsg33
(irule
Guard
p4135
(dp4136
g18
I01
sg19
(lp4137
sg21
I00
sg22
Nsg23
I00
sg24
S'R'
sbsg37
(irule
FeatureMatrix
p4138
(dp4139
g28
(lp4140
(I00
g2782
tp4141
asg22
Nsbsg22
Nsba(irule
Rule
p4142
(dp4143
g15
(irule
Guard
p4144
(dp4145
g18
I00
sg19
(lp4146
(irule
FeatureMatrix
p4147
(dp4148
g28
(lp4149
(I01
S'continuant'
tp4150
asg22
Nsbasg21
I00
sg22
Nsg23
I00
sg24
S'L'
sbsg25
(irule
FeatureMatrix
p4151
(dp4152
g28
(lp4153
(I00
g2774
tp4154
asg22
Nsbsg33
(irule
Guard
p4155
(dp4156
g18
I01
sg19
(lp4157
sg21
I00
sg22
Nsg23
I00
sg24
S'R'
sbsg37
(irule
FeatureMatrix
p4158
(dp4159
g28
(lp4160
(I00
g2782
tp4161
asg22
Nsbsg22
Nsba(irule
Rule
p4162
(dp4163
g15
(irule
Guard
p4164
(dp4165
g18
I00
sg19
(lp4166
sg21
I00
sg22
Nsg23
I00
sg24
S'L'
sbsg25
(irule
FeatureMatrix
p4167
(dp4168
g28
(lp4169
(I00
g3073
tp4170
a(I00
g2941
tp4171
a(I00
g2774
tp4172
asg22
Nsbsg33
(irule
Guard
p4173
(dp4174
g18
I01
sg19
(lp4175
sg21
I00
sg22
Nsg23
I00
sg24
S'R'
sbsg37
(irule
FeatureMatrix
p4176
(dp4177
g28
(lp4178
(I00
g2782
tp4179
asg22
Nsbsg22
Nsba(irule
Rule
p4180
(dp4181
g15
(irule
Guard
p4182
(dp4183
g18
I00
sg19
(lp4184
sg21
I00
sg22
Nsg23
I00
sg24
S'L'
sbsg25
(irule
FeatureMatrix
p4185
(dp4186
g28
(lp4187
(I00
g3073
tp4188
a(I00
g3020
tp4189
a(I00
g2774
tp4190
asg22
Nsbsg33
(irule
Guard
p4191
(dp4192
g18
I01
sg19
(lp4193
sg21
I00
sg22
Nsg23
I00
sg24
S'R'
sbsg37
(irule
FeatureMatrix
p4194
(dp4195
g28
(lp4196
(I00
g2782
tp4197
asg22
Nsbsg22
Nsba(irule
Rule
p4198
(dp4199
g15
(irule
Guard
p4200
(dp4201
g18
I00
sg19
(lp4202
sg21
I00
sg22
Nsg23
I00
sg24
S'L'
sbsg25
(irule
FeatureMatrix
p4203
(dp4204
g28
(lp4205
(I00
g2772
tp4206
a(I00
g2774
tp4207
asg22
Nsbsg33
(irule
Guard
p4208
(dp4209
g18
I01
sg19
(lp4210
sg21
I00
sg22
Nsg23
I00
sg24
S'R'
sbsg37
(irule
FeatureMatrix
p4211
(dp4212
g28
(lp4213
(I00
g2782
tp4214
a(I00
g2772
tp4215
asg22
Nsbsg22
Nsba(irule
Rule
p4216
(dp4217
g15
(irule
Guard
p4218
(dp4219
g18
I00
sg19
(lp4220
sg21
I00
sg22
Nsg23
I00
sg24
S'L'
sbsg25
(irule
FeatureMatrix
p4221
(dp4222
g28
(lp4223
(I00
g2774
tp4224
asg22
Nsbsg33
(irule
Guard
p4225
(dp4226
g18
I01
sg19
(lp4227
sg21
I00
sg22
Nsg23
I00
sg24
S'R'
sbsg37
(irule
FeatureMatrix
p4228
(dp4229
g28
(lp4230
(I00
g2782
tp4231
a(I00
g2835
tp4232
a(I00
g2772
tp4233
asg22
Nsbsg22
Nsba(irule
Rule
p4234
(dp4235
g15
(irule
Guard
p4236
(dp4237
g18
I00
sg19
(lp4238
sg21
I00
sg22
Nsg23
I00
sg24
S'L'
sbsg25
(irule
FeatureMatrix
p4239
(dp4240
g28
(lp4241
(I00
g2782
tp4242
a(I00
g2899
tp4243
a(I00
g2774
tp4244
asg22
Nsbsg33
(irule
Guard
p4245
(dp4246
g18
I01
sg19
(lp4247
sg21
I00
sg22
Nsg23
I00
sg24
S'R'
sbsg37
(irule
FeatureMatrix
p4248
(dp4249
g28
(lp4250
(I00
g2782
tp4251
asg22
Nsbsg22
Nsba(irule
Rule
p4252
(dp4253
g15
(irule
Guard
p4254
(dp4255
g18
I00
sg19
(lp4256
(irule
FeatureMatrix
p4257
(dp4258
g28
(lp4259
sg22
Nsbasg21
I00
sg22
Nsg23
I00
sg24
S'L'
sbsg25
(irule
FeatureMatrix
p4260
(dp4261
g28
(lp4262
(I00
g2774
tp4263
asg22
Nsbsg33
(irule
Guard
p4264
(dp4265
g18
I01
sg19
(lp4266
sg21
I00
sg22
Nsg23
I00
sg24
S'R'
sbsg37
(irule
FeatureMatrix
p4267
(dp4268
g28
(lp4269
(I00
g2782
tp4270
a(I01
g2774
tp4271
asg22
Nsbsg22
Nsba(irule
Rule
p4272
(dp4273
g15
(irule
Guard
p4274
(dp4275
g18
I00
sg19
(lp4276
sg21
I00
sg22
Nsg23
I00
sg24
S'L'
sbsg25
(irule
FeatureMatrix
p4277
(dp4278
g28
(lp4279
(I00
g2941
tp4280
a(I00
g2772
tp4281
a(I00
g2774
tp4282
asg22
Nsbsg33
(irule
Guard
p4283
(dp4284
g18
I01
sg19
(lp4285
sg21
I00
sg22
Nsg23
I00
sg24
S'R'
sbsg37
(irule
FeatureMatrix
p4286
(dp4287
g28
(lp4288
(I00
g2782
tp4289
asg22
Nsbsg22
Nsba(irule
Rule
p4290
(dp4291
g15
(irule
Guard
p4292
(dp4293
g18
I00
sg19
(lp4294
sg21
I00
sg22
Nsg23
I00
sg24
S'L'
sbsg25
(irule
FeatureMatrix
p4295
(dp4296
g28
(lp4297
(I00
g2772
tp4298
a(I00
g2774
tp4299
asg22
Nsbsg33
(irule
Guard
p4300
(dp4301
g18
I01
sg19
(lp4302
sg21
I00
sg22
Nsg23
I00
sg24
S'R'
sbsg37
(irule
FeatureMatrix
p4303
(dp4304
g28
(lp4305
(I00
g2782
tp4306
a(I00
g2889
tp4307
asg22
Nsbsg22
Nsba(irule
Rule
p4308
(dp4309
g15
(irule
Guard
p4310
(dp4311
g18
I00
sg19
(lp4312
sg21
I00
sg22
Nsg23
I00
sg24
S'L'
sbsg25
(irule
FeatureMatrix
p4313
(dp4314
g28
(lp4315
(I00
g2899
tp4316
a(I00
g2774
tp4317
asg22
Nsbsg33
(irule
Guard
p4318
(dp4319
g18
I01
sg19
(lp4320
sg21
I00
sg22
Nsg23
I00
sg24
S'R'
sbsg37
(irule
FeatureMatrix
p4321
(dp4322
g28
(lp4323
(I00
g2782
tp4324
a(I01
g2774
tp4325
asg22
Nsbsg22
Nsba(irule
Rule
p4326
(dp4327
g15
(irule
Guard
p4328
(dp4329
g18
I00
sg19
(lp4330
sg21
I00
sg22
Nsg23
I00
sg24
S'L'
sbsg25
(irule
FeatureMatrix
p4331
(dp4332
g28
(lp4333
(I00
g2774
tp4334
asg22
Nsbsg33
(irule
Guard
p4335
(dp4336
g18
I01
sg19
(lp4337
sg21
I00
sg22
Nsg23
I00
sg24
S'R'
sbsg37
(irule
FeatureMatrix
p4338
(dp4339
g28
(lp4340
(I00
g2782
tp4341
a(I00
g2889
tp4342
a(I01
g2774
tp4343
asg22
Nsbsg22
Nsba(irule
Rule
p4344
(dp4345
g15
(irule
Guard
p4346
(dp4347
g18
I00
sg19
(lp4348
(irule
FeatureMatrix
p4349
(dp4350
g28
(lp4351
sg22
Nsbasg21
I00
sg22
Nsg23
I00
sg24
S'L'
sbsg25
(irule
FeatureMatrix
p4352
(dp4353
g28
(lp4354
(I00
g3020
tp4355
a(I00
g2774
tp4356
asg22
Nsbsg33
(irule
Guard
p4357
(dp4358
g18
I01
sg19
(lp4359
sg21
I00
sg22
Nsg23
I00
sg24
S'R'
sbsg37
(irule
FeatureMatrix
p4360
(dp4361
g28
(lp4362
(I00
g2782
tp4363
asg22
Nsbsg22
Nsba(irule
Rule
p4364
(dp4365
g15
(irule
Guard
p4366
(dp4367
g18
I00
sg19
(lp4368
sg21
I00
sg22
Nsg23
I00
sg24
S'L'
sbsg25
(irule
FeatureMatrix
p4369
(dp4370
g28
(lp4371
(I00
g2809
tp4372
a(I00
g2772
tp4373
a(I00
g2774
tp4374
asg22
Nsbsg33
(irule
Guard
p4375
(dp4376
g18
I01
sg19
(lp4377
sg21
I00
sg22
Nsg23
I00
sg24
S'R'
sbsg37
(irule
FeatureMatrix
p4378
(dp4379
g28
(lp4380
(I00
g2782
tp4381
asg22
Nsbsg22
Nsba(irule
Rule
p4382
(dp4383
g15
(irule
Guard
p4384
(dp4385
g18
I00
sg19
(lp4386
sg21
I00
sg22
Nsg23
I00
sg24
S'L'
sbsg25
(irule
FeatureMatrix
p4387
(dp4388
g28
(lp4389
(I00
g2774
tp4390
asg22
Nsbsg33
(irule
Guard
p4391
(dp4392
g18
I01
sg19
(lp4393
sg21
I00
sg22
Nsg23
I00
sg24
S'R'
sbsg37
(irule
FeatureMatrix
p4394
(dp4395
g28
(lp4396
(I00
g3055
tp4397
a(I00
g2782
tp4398
a(I00
g2772
tp4399
asg22
Nsbsg22
Nsba(irule
Rule
p4400
(dp4401
g15
(irule
Guard
p4402
(dp4403
g18
I00
sg19
(lp4404
sg21
I00
sg22
Nsg23
I00
sg24
S'L'
sbsg25
(irule
FeatureMatrix
p4405
(dp4406
g28
(lp4407
(I00
g2774
tp4408
asg22
Nsbsg33
(irule
Guard
p4409
(dp4410
g18
I01
sg19
(lp4411
sg21
I00
sg22
Nsg23
I00
sg24
S'R'
sbsg37
(irule
FeatureMatrix
p4412
(dp4413
g28
(lp4414
(I00
g2782
tp4415
a(I00
g2889
tp4416
a(I00
g2772
tp4417
asg22
Nsbsg22
Nsba(irule
Rule
p4418
(dp4419
g15
(irule
Guard
p4420
(dp4421
g18
I00
sg19
(lp4422
sg21
I00
sg22
Nsg23
I00
sg24
S'L'
sbsg25
(irule
FeatureMatrix
p4423
(dp4424
g28
(lp4425
(I00
g2809
tp4426
a(I00
g2899
tp4427
a(I00
g2774
tp4428
asg22
Nsbsg33
(irule
Guard
p4429
(dp4430
g18
I01
sg19
(lp4431
sg21
I00
sg22
Nsg23
I00
sg24
S'R'
sbsg37
(irule
FeatureMatrix
p4432
(dp4433
g28
(lp4434
(I00
g2782
tp4435
asg22
Nsbsg22
Nsba(irule
Rule
p4436
(dp4437
g15
(irule
Guard
p4438
(dp4439
g18
I00
sg19
(lp4440
sg21
I00
sg22
Nsg23
I00
sg24
S'L'
sbsg25
(irule
FeatureMatrix
p4441
(dp4442
g28
(lp4443
(I00
g2809
tp4444
a(I00
g3020
tp4445
a(I00
g2774
tp4446
asg22
Nsbsg33
(irule
Guard
p4447
(dp4448
g18
I01
sg19
(lp4449
sg21
I00
sg22
Nsg23
I00
sg24
S'R'
sbsg37
(irule
FeatureMatrix
p4450
(dp4451
g28
(lp4452
(I00
g2782
tp4453
asg22
Nsbsg22
Nsba(irule
Rule
p4454
(dp4455
g15
(irule
Guard
p4456
(dp4457
g18
I00
sg19
(lp4458
sg21
I00
sg22
Nsg23
I00
sg24
S'L'
sbsg25
(irule
FeatureMatrix
p4459
(dp4460
g28
(lp4461
(I00
g2941
tp4462
a(I00
g2782
tp4463
a(I00
g2774
tp4464
asg22
Nsbsg33
(irule
Guard
p4465
(dp4466
g18
I01
sg19
(lp4467
sg21
I00
sg22
Nsg23
I00
sg24
S'R'
sbsg37
(irule
FeatureMatrix
p4468
(dp4469
g28
(lp4470
(I00
g2782
tp4471
asg22
Nsbsg22
Nsba(irule
Rule
p4472
(dp4473
g15
(irule
Guard
p4474
(dp4475
g18
I00
sg19
(lp4476
(irule
FeatureMatrix
p4477
(dp4478
g28
(lp4479
(I01
g2899
tp4480
asg22
Nsbasg21
I00
sg22
Nsg23
I00
sg24
S'L'
sbsg25
(irule
FeatureMatrix
p4481
(dp4482
g28
(lp4483
(I00
g2774
tp4484
asg22
Nsbsg33
(irule
Guard
p4485
(dp4486
g18
I01
sg19
(lp4487
sg21
I00
sg22
Nsg23
I00
sg24
S'R'
sbsg37
(irule
FeatureMatrix
p4488
(dp4489
g28
(lp4490
(I00
g2782
tp4491
asg22
Nsbsg22
Nsba(irule
Rule
p4492
(dp4493
g15
(irule
Guard
p4494
(dp4495
g18
I00
sg19
(lp4496
(irule
FeatureMatrix
p4497
(dp4498
g28
(lp4499
sg22
Nsbasg21
I00
sg22
Nsg23
I00
sg24
S'L'
sbsg25
(irule
FeatureMatrix
p4500
(dp4501
g28
(lp4502
(I00
g2941
tp4503
a(I00
g2774
tp4504
asg22
Nsbsg33
(irule
Guard
p4505
(dp4506
g18
I01
sg19
(lp4507
sg21
I00
sg22
Nsg23
I00
sg24
S'R'
sbsg37
(irule
FeatureMatrix
p4508
(dp4509
g28
(lp4510
(I00
g2782
tp4511
asg22
Nsbsg22
Nsba(irule
Rule
p4512
(dp4513
g15
(irule
Guard
p4514
(dp4515
g18
I00
sg19
(lp4516
(irule
FeatureMatrix
p4517
(dp4518
g28
(lp4519
sg22
Nsbasg21
I00
sg22
Nsg23
I00
sg24
S'L'
sbsg25
(irule
FeatureMatrix
p4520
(dp4521
g28
(lp4522
(I00
g2774
tp4523
asg22
Nsbsg33
(irule
Guard
p4524
(dp4525
g18
I01
sg19
(lp4526
sg21
I00
sg22
Nsg23
I00
sg24
S'R'
sbsg37
(irule
FeatureMatrix
p4527
(dp4528
g28
(lp4529
(I00
g2941
tp4530
a(I00
g2782
tp4531
asg22
Nsbsg22
Nsba(irule
Rule
p4532
(dp4533
g15
(irule
Guard
p4534
(dp4535
g18
I00
sg19
(lp4536
sg21
I00
sg22
Nsg23
I00
sg24
S'L'
sbsg25
(irule
FeatureMatrix
p4537
(dp4538
g28
(lp4539
(I00
g3055
tp4540
a(I00
g2782
tp4541
a(I00
g2774
tp4542
asg22
Nsbsg33
(irule
Guard
p4543
(dp4544
g18
I01
sg19
(lp4545
sg21
I00
sg22
Nsg23
I00
sg24
S'R'
sbsg37
(irule
FeatureMatrix
p4546
(dp4547
g28
(lp4548
(I00
g2782
tp4549
asg22
Nsbsg22
Nsba(irule
Rule
p4550
(dp4551
g15
(irule
Guard
p4552
(dp4553
g18
I00
sg19
(lp4554
sg21
I00
sg22
Nsg23
I00
sg24
S'L'
sbsg25
(irule
FeatureMatrix
p4555
(dp4556
g28
(lp4557
(I00
g2809
tp4558
a(I00
g2782
tp4559
a(I00
g2774
tp4560
asg22
Nsbsg33
(irule
Guard
p4561
(dp4562
g18
I01
sg19
(lp4563
sg21
I00
sg22
Nsg23
I00
sg24
S'R'
sbsg37
(irule
FeatureMatrix
p4564
(dp4565
g28
(lp4566
(I00
g2782
tp4567
asg22
Nsbsg22
Nsba(irule
Rule
p4568
(dp4569
g15
(irule
Guard
p4570
(dp4571
g18
I00
sg19
(lp4572
(irule
FeatureMatrix
p4573
(dp4574
g28
(lp4575
(I01
g2772
tp4576
asg22
Nsbasg21
I00
sg22
Nsg23
I00
sg24
S'L'
sbsg25
(irule
FeatureMatrix
p4577
(dp4578
g28
(lp4579
(I00
g2774
tp4580
asg22
Nsbsg33
(irule
Guard
p4581
(dp4582
g18
I01
sg19
(lp4583
sg21
I00
sg22
Nsg23
I00
sg24
S'R'
sbsg37
(irule
FeatureMatrix
p4584
(dp4585
g28
(lp4586
(I00
g2782
tp4587
asg22
Nsbsg22
NsbaasbsS'parameters'
p4588
g6
(cargparse
Namespace
p4589
g8
NtRp4590
(dp4591
S'dummy'
p4592
I00
sS'task'
p4593
S'CEGIS'
p4594
sS'features'
p4595
S'sophisticated'
p4596
sS'resume'
p4597
I00
sS'geometry'
p4598
I01
sS'top'
p4599
I100
sS'disableClean'
p4600
I00
sS'universal'
p4601
NsS'restrict'
p4602
NsS'window'
p4603
NsS'seed'
p4604
S'0'
sS'restore'
p4605
NsS'verbosity'
p4606
I0
sS'timeout'
p4607
F24
sS'debug'
p4608
NsS'cores'
p4609
I40
sg701
S'Odden_3.2_Polish'
p4610
sS'save'
p4611
NsS'serial'
p4612
I00
sS'alignment'
p4613
I00
sS'samples'
p4614
I30
sbsb.