(iresult
Result
p1
(dp2
S'startTime'
p3
F1555426389.3554571
sS'solutionSequence'
p4
(lp5
(ccopy_reg
_reconstructor
p6
(csolution
Solution
p7
c__builtin__
object
p8
NtRp9
(dp10
S'rules'
p11
(lp12
(irule
Rule
p13
(dp14
S'leftTriggers'
p15
(irule
Guard
p16
(dp17
S'endOfString'
p18
I00
sS'specifications'
p19
(lp20
sS'optionalEnding'
p21
I00
sS'representation'
p22
V
sS'starred'
p23
I00
sS'side'
p24
S'L'
sbsS'structuralChange'
p25
(irule
FeatureMatrix
p26
(dp27
S'featuresAndPolarities'
p28
(lp29
(I00
S'back'
p30
tp31
a(I00
S'high'
p32
tp33
asg22
V[ -back -high ]
p34
sbsS'rightTriggers'
p35
(irule
Guard
p36
(dp37
g18
I00
sg19
(lp38
(irule
FeatureMatrix
p39
(dp40
g28
(lp41
sg22
V[  ]
p42
sba(irule
FeatureMatrix
p43
(dp44
g28
(lp45
(I00
g32
tp46
asg22
V[ -high ]
p47
sbasg21
I00
sg22
V[  ] [ -high ]
p48
sg23
I00
sg24
S'R'
sbsS'focus'
p49
(irule
FeatureMatrix
p50
(dp51
g28
(lp52
sg22
V[  ]
p53
sbsg22
V[  ] ---> [ -back -high ] /  _ [  ] [ -high ]
p54
sba(irule
Rule
p55
(dp56
g15
(irule
Guard
p57
(dp58
g18
I00
sg19
(lp59
(irule
FeatureMatrix
p60
(dp61
g28
(lp62
(I00
S'coronal'
p63
tp64
asg22
V[ -coronal ]
p65
sbasg21
I00
sg22
g65
sg23
I00
sg24
S'L'
sbsg25
(irule
ConstantPhoneme
p66
(dp67
S'p'
Va
sbsg35
(irule
Guard
p68
(dp69
g18
I00
sg19
(lp70
sg21
I00
sg22
V
sg23
I00
sg24
S'R'
sbsg49
(irule
ConstantPhoneme
p71
(dp72
S'p'
Ve
sbsg22
Ve ---> a / [ -coronal ] _ 
p73
sbasS'prefixes'
p74
(lp75
(imorph
Morph
p76
(dp77
S'phonemes'
p78
(lp79
sba(imorph
Morph
p80
(dp81
g78
(lp82
sba(imorph
Morph
p83
(dp84
g78
(lp85
sba(imorph
Morph
p86
(dp87
g78
(lp88
sba(imorph
Morph
p89
(dp90
g78
(lp91
sba(imorph
Morph
p92
(dp93
g78
(lp94
sbasS'underlyingForms'
p95
(dp96
((imorph
Morph
p97
(dp98
g78
(lp99
Vh
aVa
aVm
aVa
aVn
asb(imorph
Morph
p100
(dp101
g78
(lp102
Vh
aVa
aVm
aVa
aVm
asb(imorph
Morph
p103
(dp104
g78
(lp105
Vh
aV\u0268
aVm
aVi
asb(imorph
Morph
p106
(dp107
g78
(lp108
Vh
aV\u0268
aVm
aVu
asb(imorph
Morph
p109
(dp110
g78
(lp111
Vh
aVa
aVm
aVa
asb(imorph
Morph
p112
(dp113
g78
(lp114
Vh
aVa
aVm
aVa
aV\u014b
asbtp115
(imorph
Morph
p116
(dp117
g78
(lp118
Vh
aV\u0268
aVm
asbs((imorph
Morph
p119
(dp120
g78
(lp121
Vs
aVe:
p122
aVn
aVe
aVn
asb(imorph
Morph
p123
(dp124
g78
(lp125
Vs
aVe:
p126
aVn
aVe
aVm
asb(imorph
Morph
p127
(dp128
g78
(lp129
Vs
aVi:
p130
aVn
aVi
asb(imorph
Morph
p131
(dp132
g78
(lp133
Vs
aVi:
p134
aVn
aVu
asb(imorph
Morph
p135
(dp136
g78
(lp137
Vs
aVe:
p138
aVn
aVa
asb(imorph
Morph
p139
(dp140
g78
(lp141
Vs
aVe:
p142
aVn
aVe
aV\u014b
asbtp143
(imorph
Morph
p144
(dp145
g78
(lp146
Vs
aVi:
p147
aVn
asbssS'suffixes'
p148
(lp149
(imorph
Morph
p150
(dp151
g78
(lp152
Ve
aVn
asba(imorph
Morph
p153
(dp154
g78
(lp155
Ve
aVm
asba(imorph
Morph
p156
(dp157
g78
(lp158
Vi
asba(imorph
Morph
p159
(dp160
g78
(lp161
Vu
asba(imorph
Morph
p162
(dp163
g78
(lp164
Va
asba(imorph
Morph
p165
(dp166
g78
(lp167
Ve
aV\u014b
asbasbF902.65972399711609
tp168
a(g6
(g7
g8
NtRp169
(dp170
g11
(lp171
(irule
Rule
p172
(dp173
g15
(irule
Guard
p174
(dp175
g18
I00
sg19
(lp176
sg21
I00
sg22
V
sg23
I00
sg24
S'L'
sbsg25
(irule
FeatureMatrix
p177
(dp178
g28
(lp179
(I01
g32
tp180
a(I00
S'low'
p181
tp182
asg22
V[ +high -low ]
p183
sbsg35
(irule
Guard
p184
(dp185
g18
I00
sg19
(lp186
(irule
FeatureMatrix
p187
(dp188
g28
(lp189
sg22
V[  ]
p190
sba(irule
FeatureMatrix
p191
(dp192
g28
(lp193
(I01
S'continuant'
p194
tp195
a(I01
g32
tp196
asg22
V[ +continuant +high ]
p197
sbasg21
I00
sg22
V[  ] [ +continuant +high ]
p198
sg23
I00
sg24
S'R'
sbsg49
(irule
FeatureMatrix
p199
(dp200
g28
(lp201
sg22
V[  ]
p202
sbsg22
V[  ] ---> [ +high -low ] /  _ [  ] [ +continuant +high ]
p203
sba(irule
Rule
p204
(dp205
g15
(irule
Guard
p206
(dp207
g18
I00
sg19
(lp208
(irule
FeatureMatrix
p209
(dp210
g28
(lp211
sg22
V[  ]
p212
sba(irule
FeatureMatrix
p213
(dp214
g28
(lp215
(I01
g181
tp216
asg22
V[ +low ]
p217
sbasg21
I00
sg22
V[ +low ] [  ]
p218
sg23
I00
sg24
S'L'
sbsg25
(irule
OffsetSpecification
p219
(dp220
S'offset'
p221
I-2
sbsg35
(irule
Guard
p222
(dp223
g18
I00
sg19
(lp224
sg21
I00
sg22
V
sg23
I00
sg24
S'R'
sbsg49
(irule
ConstantPhoneme
p225
(dp226
S'p'
Ve
sbsg22
Ve ---> -2 / [ +low ] [  ] _ 
p227
sbasg74
(lp228
(imorph
Morph
p229
(dp230
g78
(lp231
sba(imorph
Morph
p232
(dp233
g78
(lp234
sba(imorph
Morph
p235
(dp236
g78
(lp237
sba(imorph
Morph
p238
(dp239
g78
(lp240
sba(imorph
Morph
p241
(dp242
g78
(lp243
sba(imorph
Morph
p244
(dp245
g78
(lp246
sbasg95
(dp247
(g97
g100
g103
g106
g109
g112
tp248
(imorph
Morph
p249
(dp250
g78
(lp251
Vh
aVa
aVm
asbs(g119
g123
g127
g131
g135
g139
tp252
(imorph
Morph
p253
(dp254
g78
(lp255
Vs
aVe:
p256
aVn
asbs((imorph
Morph
p257
(dp258
g78
(lp259
Vk
aVo
aVl
aVo
aVn
asb(imorph
Morph
p260
(dp261
g78
(lp262
Vk
aVo
aVl
aVo
aVm
asb(imorph
Morph
p263
(dp264
g78
(lp265
Vk
aVu
aVl
aVi
asb(imorph
Morph
p266
(dp267
g78
(lp268
Vk
aVu
aVl
aVu
asb(imorph
Morph
p269
(dp270
g78
(lp271
Vk
aVo
aVl
aVa
asb(imorph
Morph
p272
(dp273
g78
(lp274
Vk
aVo
aVl
aVo
aV\u014b
asbtp275
(imorph
Morph
p276
(dp277
g78
(lp278
Vk
aVo
aVl
asbssg148
(lp279
(imorph
Morph
p280
(dp281
g78
(lp282
Ve
aVn
asba(imorph
Morph
p283
(dp284
g78
(lp285
Ve
aVm
asba(imorph
Morph
p286
(dp287
g78
(lp288
Vi
asba(imorph
Morph
p289
(dp290
g78
(lp291
Vu
asba(imorph
Morph
p292
(dp293
g78
(lp294
Va
asba(imorph
Morph
p295
(dp296
g78
(lp297
Ve
aV\u014b
asbasbF1667.1327159404755
tp298
a(g6
(g7
g8
NtRp299
(dp300
g11
(lp301
(irule
Rule
p302
(dp303
g15
(irule
Guard
p304
(dp305
g18
I00
sg19
(lp306
(irule
ConstantPhoneme
p307
(dp308
S'p'
Vd
sbasg21
I00
sg22
Vd
sg23
I00
sg24
S'L'
sbsg25
(irule
FeatureMatrix
p309
(dp310
g28
(lp311
(I01
g32
tp312
a(I00
g181
tp313
asg22
V[ +high -low ]
p314
sbsg35
(irule
Guard
p315
(dp316
g18
I00
sg19
(lp317
sg21
I00
sg22
V
sg23
I00
sg24
S'R'
sbsg49
(irule
FeatureMatrix
p318
(dp319
g28
(lp320
sg22
V[  ]
p321
sbsg22
V[  ] ---> [ +high -low ] / d _ 
p322
sba(irule
Rule
p323
(dp324
g15
(irule
Guard
p325
(dp326
g18
I00
sg19
(lp327
(irule
FeatureMatrix
p328
(dp329
g28
(lp330
sg22
V[  ]
p331
sba(irule
FeatureMatrix
p332
(dp333
g28
(lp334
(I01
g181
tp335
asg22
V[ +low ]
p336
sbasg21
I00
sg22
V[ +low ] [  ]
p337
sg23
I00
sg24
S'L'
sbsg25
(irule
OffsetSpecification
p338
(dp339
g221
I-2
sbsg35
(irule
Guard
p340
(dp341
g18
I00
sg19
(lp342
sg21
I00
sg22
V
sg23
I00
sg24
S'R'
sbsg49
(irule
ConstantPhoneme
p343
(dp344
S'p'
Ve
sbsg22
Ve ---> -2 / [ +low ] [  ] _ 
p345
sba(irule
Rule
p346
(dp347
g15
(irule
Guard
p348
(dp349
g18
I00
sg19
(lp350
sg21
I00
sg22
V
sg23
I00
sg24
S'L'
sbsg25
(irule
FeatureMatrix
p351
(dp352
g28
(lp353
(I01
g32
tp354
a(I00
g181
tp355
asg22
V[ +high -low ]
p356
sbsg35
(irule
Guard
p357
(dp358
g18
I00
sg19
(lp359
(irule
FeatureMatrix
p360
(dp361
g28
(lp362
(I00
S'tense'
p363
tp364
asg22
V[ -tense ]
p365
sba(irule
FeatureMatrix
p366
(dp367
g28
(lp368
(I01
g32
tp369
asg22
V[ +high ]
p370
sbasg21
I00
sg22
V[ -tense ] [ +high ]
p371
sg23
I00
sg24
S'R'
sbsg49
(irule
FeatureMatrix
p372
(dp373
g28
(lp374
sg22
V[  ]
p375
sbsg22
V[  ] ---> [ +high -low ] /  _ [ -tense ] [ +high ]
p376
sbasg74
(lp377
(imorph
Morph
p378
(dp379
g78
(lp380
sba(imorph
Morph
p381
(dp382
g78
(lp383
sba(imorph
Morph
p384
(dp385
g78
(lp386
sba(imorph
Morph
p387
(dp388
g78
(lp389
sba(imorph
Morph
p390
(dp391
g78
(lp392
sba(imorph
Morph
p393
(dp394
g78
(lp395
sbasg95
(dp396
(g97
g100
g103
g106
g109
g112
tp397
(imorph
Morph
p398
(dp399
g78
(lp400
Vh
aVa
aVm
asbs((imorph
Morph
(dp401
g78
(lp402
V\u0294
aVa
aVp
aVa
aVn
asb(imorph
Morph
(dp403
g78
(lp404
V\u0294
aVa
aVp
aVa
aVm
asb(imorph
Morph
(dp405
g78
(lp406
V\u0294
aV\u0268
aVp
aVi
asb(imorph
Morph
(dp407
g78
(lp408
V\u0294
aV\u0268
aVp
aVu
asb(imorph
Morph
(dp409
g78
(lp410
V\u0294
aVa
aVp
aVa
asb(imorph
Morph
(dp411
g78
(lp412
V\u0294
aVa
aVp
aVa
aV\u014b
asbtp413
(imorph
Morph
p414
(dp415
g78
(lp416
V\u0294
aVa
aVp
asbs((imorph
Morph
p417
(dp418
g78
(lp419
Vg
aVi:
p420
aVd
aVi
aVn
asb(imorph
Morph
p421
(dp422
g78
(lp423
Vg
aVi:
p424
aVd
aVi
aVm
asb(imorph
Morph
p425
(dp426
g78
(lp427
Vg
aVi:
p428
aVd
aVi
asb(imorph
Morph
p429
(dp430
g78
(lp431
Vg
aVi:
p432
aVd
aVu
asb(imorph
Morph
p433
(dp434
g78
(lp435
Vg
aVi:
p436
aVd
aV\u0268
asb(imorph
Morph
p437
(dp438
g78
(lp439
Vg
aVi:
p440
aVd
aVi
aV\u014b
asbtp441
(imorph
Morph
p442
(dp443
g78
(lp444
Vg
ag256
aVd
asbs(g257
g260
g263
g266
g269
g272
tp445
(imorph
Morph
p446
(dp447
g78
(lp448
Vk
aVo
aVl
asbs((imorph
Morph
(dp449
g78
(lp450
V\u0294
aVa
aVs
aVa
aVn
asb(imorph
Morph
(dp451
g78
(lp452
V\u0294
aVa
aVs
aVa
aVm
asb(imorph
Morph
(dp453
g78
(lp454
V\u0294
aV\u0268
aVs
aVi
asb(imorph
Morph
(dp455
g78
(lp456
V\u0294
aV\u0268
aVs
aVu
asb(imorph
Morph
(dp457
g78
(lp458
V\u0294
aVa
aVs
aVa
asb(imorph
Morph
(dp459
g78
(lp460
V\u0294
aVa
aVs
aVa
aV\u014b
asbtp461
(imorph
Morph
p462
(dp463
g78
(lp464
V\u0294
aVa
aVs
asbs(g119
g123
g127
g131
g135
g139
tp465
(imorph
Morph
p466
(dp467
g78
(lp468
Vs
ag256
aVn
asbs((imorph
Morph
(dp469
g78
(lp470
Vh
aVa
aVr
aVa
aVn
asb(imorph
Morph
(dp471
g78
(lp472
Vh
aVa
aVr
aVa
aVm
asb(imorph
Morph
(dp473
g78
(lp474
Vh
aV\u0268
aVr
aVi
asb(imorph
Morph
(dp475
g78
(lp476
Vh
aV\u0268
aVr
aVu
asb(imorph
Morph
(dp477
g78
(lp478
Vh
aVa
aVr
aVa
asb(imorph
Morph
(dp479
g78
(lp480
Vh
aVa
aVr
aVa
aV\u014b
asbtp481
(imorph
Morph
p482
(dp483
g78
(lp484
Vh
aVa
aVr
asbssg148
(lp485
(imorph
Morph
p486
(dp487
g78
(lp488
Ve
aVn
asba(imorph
Morph
p489
(dp490
g78
(lp491
Ve
aVm
asba(imorph
Morph
p492
(dp493
g78
(lp494
Vi
asba(imorph
Morph
p495
(dp496
g78
(lp497
Vu
asba(imorph
Morph
p498
(dp499
g78
(lp500
Va
asba(imorph
Morph
p501
(dp502
g78
(lp503
Ve
aV\u014b
asbasbF42601.212548017502
tp504
asS'problem'
p505
S'Odden_4.6_Kera'
p506
sS'finalFrontier'
p507
g6
(csolution
Frontier
p508
g8
NtRp509
(dp510
g74
g377
sg148
g485
sg95
g396
sS'frontiers'
p511
(lp512
(lp513
(irule
Rule
p514
(dp515
g15
(irule
Guard
p516
(dp517
g18
I00
sg19
(lp518
(irule
ConstantPhoneme
p519
(dp520
S'p'
Vd
sbasg21
I00
sg22
Vd
sg23
I00
sg24
S'L'
sbsg25
(irule
FeatureMatrix
p521
(dp522
g28
(lp523
(I01
S'high'
tp524
a(I00
S'low'
tp525
asg22
V[ +high -low ]
p526
sbsg35
(irule
Guard
p527
(dp528
g18
I00
sg19
(lp529
sg21
I00
sg22
V
sg23
I00
sg24
S'R'
sbsg49
(irule
FeatureMatrix
p530
(dp531
g28
(lp532
sg22
V[  ]
p533
sbsg22
V[  ] ---> [ +high -low ] / d _ 
p534
sba(irule
Rule
p535
(dp536
g15
(irule
Guard
p537
(dp538
g18
I00
sg19
(lp539
(irule
ConstantPhoneme
p540
(dp541
S'p'
Vd
sba(irule
FeatureMatrix
p542
(dp543
g28
(lp544
sg22
Nsbasg21
I00
sg22
Nsg23
I00
sg24
S'L'
sbsg25
(irule
FeatureMatrix
p545
(dp546
g28
(lp547
(I01
S'high'
p548
tp549
a(I00
S'low'
p550
tp551
asg22
Nsbsg35
(irule
Guard
p552
(dp553
g18
I00
sg19
(lp554
sg21
I00
sg22
Nsg23
I00
sg24
S'R'
sbsg49
(irule
FeatureMatrix
p555
(dp556
g28
(lp557
sg22
Nsbsg22
Nsba(irule
Rule
p558
(dp559
g15
(irule
Guard
p560
(dp561
g18
I00
sg19
(lp562
(irule
ConstantPhoneme
p563
(dp564
S'p'
Vd
sbasg21
I00
sg22
Nsg23
I00
sg24
S'L'
sbsg25
(irule
FeatureMatrix
p565
(dp566
g28
(lp567
(I01
g548
tp568
a(I00
g550
tp569
asg22
Nsbsg35
(irule
Guard
p570
(dp571
g18
I00
sg19
(lp572
sg21
I00
sg22
Nsg23
I00
sg24
S'R'
sbsg49
(irule
FeatureMatrix
p573
(dp574
g28
(lp575
(I00
S'sibilant'
p576
tp577
asg22
Nsbsg22
Nsba(irule
Rule
p578
(dp579
g15
(irule
Guard
p580
(dp581
g18
I00
sg19
(lp582
(irule
ConstantPhoneme
p583
(dp584
S'p'
Vd
sbasg21
I00
sg22
Nsg23
I00
sg24
S'L'
sbsg25
(irule
FeatureMatrix
p585
(dp586
g28
(lp587
(I01
g548
tp588
a(I00
g550
tp589
a(I00
g576
tp590
asg22
Nsbsg35
(irule
Guard
p591
(dp592
g18
I00
sg19
(lp593
sg21
I00
sg22
Nsg23
I00
sg24
S'R'
sbsg49
(irule
FeatureMatrix
p594
(dp595
g28
(lp596
sg22
Nsbsg22
Nsba(irule
Rule
p597
(dp598
g15
(irule
Guard
p599
(dp600
g18
I00
sg19
(lp601
(irule
ConstantPhoneme
p602
(dp603
S'p'
Vd
sbasg21
I00
sg22
Nsg23
I00
sg24
S'L'
sbsg25
(irule
FeatureMatrix
p604
(dp605
g28
(lp606
(I00
S'liquid'
p607
tp608
a(I01
g548
tp609
a(I00
g550
tp610
asg22
Nsbsg35
(irule
Guard
p611
(dp612
g18
I00
sg19
(lp613
sg21
I00
sg22
Nsg23
I00
sg24
S'R'
sbsg49
(irule
FeatureMatrix
p614
(dp615
g28
(lp616
sg22
Nsbsg22
Nsba(irule
Rule
p617
(dp618
g15
(irule
Guard
p619
(dp620
g18
I00
sg19
(lp621
(irule
ConstantPhoneme
p622
(dp623
S'p'
Vd
sbasg21
I00
sg22
Nsg23
I00
sg24
S'L'
sbsg25
(irule
FeatureMatrix
p624
(dp625
g28
(lp626
(I01
g548
tp627
a(I00
g550
tp628
asg22
Nsbsg35
(irule
Guard
p629
(dp630
g18
I00
sg19
(lp631
sg21
I00
sg22
Nsg23
I00
sg24
S'R'
sbsg49
(irule
FeatureMatrix
p632
(dp633
g28
(lp634
(I00
S'anterior'
p635
tp636
asg22
Nsbsg22
Nsba(irule
Rule
p637
(dp638
g15
(irule
Guard
p639
(dp640
g18
I00
sg19
(lp641
(irule
ConstantPhoneme
p642
(dp643
S'p'
Vd
sbasg21
I00
sg22
Nsg23
I00
sg24
S'L'
sbsg25
(irule
FeatureMatrix
p644
(dp645
g28
(lp646
(I01
g548
tp647
a(I00
g550
tp648
asg22
Nsbsg35
(irule
Guard
p649
(dp650
g18
I00
sg19
(lp651
sg21
I00
sg22
Nsg23
I00
sg24
S'R'
sbsg49
(irule
FeatureMatrix
p652
(dp653
g28
(lp654
(I01
S'voice'
p655
tp656
asg22
Nsbsg22
Nsba(irule
Rule
p657
(dp658
g15
(irule
Guard
p659
(dp660
g18
I00
sg19
(lp661
(irule
ConstantPhoneme
p662
(dp663
S'p'
Vd
sbasg21
I00
sg22
Nsg23
I00
sg24
S'L'
sbsg25
(irule
FeatureMatrix
p664
(dp665
g28
(lp666
(I01
g548
tp667
a(I00
g550
tp668
asg22
Nsbsg35
(irule
Guard
p669
(dp670
g18
I00
sg19
(lp671
sg21
I00
sg22
Nsg23
I00
sg24
S'R'
sbsg49
(irule
FeatureMatrix
p672
(dp673
g28
(lp674
(I00
S'coronal'
p675
tp676
asg22
Nsbsg22
Nsba(irule
Rule
p677
(dp678
g15
(irule
Guard
p679
(dp680
g18
I00
sg19
(lp681
(irule
ConstantPhoneme
p682
(dp683
S'p'
Vd
sbasg21
I00
sg22
Nsg23
I00
sg24
S'L'
sbsg25
(irule
FeatureMatrix
p684
(dp685
g28
(lp686
(I01
g548
tp687
a(I00
g550
tp688
a(I01
g655
tp689
asg22
Nsbsg35
(irule
Guard
p690
(dp691
g18
I00
sg19
(lp692
sg21
I00
sg22
Nsg23
I00
sg24
S'R'
sbsg49
(irule
FeatureMatrix
p693
(dp694
g28
(lp695
sg22
Nsbsg22
Nsba(irule
Rule
p696
(dp697
g15
(irule
Guard
p698
(dp699
g18
I00
sg19
(lp700
(irule
ConstantPhoneme
p701
(dp702
S'p'
Vd
sbasg21
I00
sg22
Nsg23
I00
sg24
S'L'
sbsg25
(irule
FeatureMatrix
p703
(dp704
g28
(lp705
(I01
g548
tp706
a(I00
g550
tp707
asg22
Nsbsg35
(irule
Guard
p708
(dp709
g18
I00
sg19
(lp710
sg21
I00
sg22
Nsg23
I00
sg24
S'R'
sbsg49
(irule
FeatureMatrix
p711
(dp712
g28
(lp713
(I00
g548
tp714
asg22
Nsbsg22
Nsba(irule
Rule
p715
(dp716
g15
(irule
Guard
p717
(dp718
g18
I00
sg19
(lp719
(irule
ConstantPhoneme
p720
(dp721
S'p'
Vd
sbasg21
I00
sg22
Nsg23
I00
sg24
S'L'
sbsg25
(irule
FeatureMatrix
p722
(dp723
g28
(lp724
(I01
g548
tp725
a(I00
g550
tp726
asg22
Nsbsg35
(irule
Guard
p727
(dp728
g18
I00
sg19
(lp729
sg21
I00
sg22
Nsg23
I00
sg24
S'R'
sbsg49
(irule
FeatureMatrix
p730
(dp731
g28
(lp732
(I00
S'long'
p733
tp734
asg22
Nsbsg22
Nsba(irule
Rule
p735
(dp736
g15
(irule
Guard
p737
(dp738
g18
I00
sg19
(lp739
(irule
ConstantPhoneme
p740
(dp741
S'p'
Vd
sbasg21
I00
sg22
Nsg23
I00
sg24
S'L'
sbsg25
(irule
FeatureMatrix
p742
(dp743
g28
(lp744
(I01
g548
tp745
a(I01
S'tense'
p746
tp747
a(I00
g550
tp748
asg22
Nsbsg35
(irule
Guard
p749
(dp750
g18
I00
sg19
(lp751
sg21
I00
sg22
Nsg23
I00
sg24
S'R'
sbsg49
(irule
FeatureMatrix
p752
(dp753
g28
(lp754
sg22
Nsbsg22
Nsba(irule
Rule
p755
(dp756
g15
(irule
Guard
p757
(dp758
g18
I00
sg19
(lp759
(irule
ConstantPhoneme
p760
(dp761
S'p'
Vd
sbasg21
I00
sg22
Nsg23
I00
sg24
S'L'
sbsg25
(irule
FeatureMatrix
p762
(dp763
g28
(lp764
(I01
g548
tp765
a(I00
g550
tp766
asg22
Nsbsg35
(irule
Guard
p767
(dp768
g18
I00
sg19
(lp769
sg21
I00
sg22
Nsg23
I00
sg24
S'R'
sbsg49
(irule
FeatureMatrix
p770
(dp771
g28
(lp772
(I01
S'vowel'
p773
tp774
asg22
Nsbsg22
Nsba(irule
Rule
p775
(dp776
g15
(irule
Guard
p777
(dp778
g18
I00
sg19
(lp779
(irule
ConstantPhoneme
p780
(dp781
S'p'
Vd
sbasg21
I00
sg22
Nsg23
I00
sg24
S'L'
sbsg25
(irule
FeatureMatrix
p782
(dp783
g28
(lp784
(I01
g548
tp785
a(I00
g550
tp786
asg22
Nsbsg35
(irule
Guard
p787
(dp788
g18
I00
sg19
(lp789
sg21
I00
sg22
Nsg23
I00
sg24
S'R'
sbsg49
(irule
FeatureMatrix
p790
(dp791
g28
(lp792
(I00
g607
tp793
asg22
Nsbsg22
Nsba(irule
Rule
p794
(dp795
g15
(irule
Guard
p796
(dp797
g18
I00
sg19
(lp798
(irule
ConstantPhoneme
p799
(dp800
S'p'
Vd
sbasg21
I00
sg22
Nsg23
I00
sg24
S'L'
sbsg25
(irule
FeatureMatrix
p801
(dp802
g28
(lp803
(I01
g548
tp804
a(I00
g550
tp805
asg22
Nsbsg35
(irule
Guard
p806
(dp807
g18
I00
sg19
(lp808
sg21
I00
sg22
Nsg23
I00
sg24
S'R'
sbsg49
(irule
FeatureMatrix
p809
(dp810
g28
(lp811
(I01
g746
tp812
asg22
Nsbsg22
Nsba(irule
Rule
p813
(dp814
g15
(irule
Guard
p815
(dp816
g18
I00
sg19
(lp817
(irule
ConstantPhoneme
p818
(dp819
S'p'
Vd
sbasg21
I00
sg22
Nsg23
I00
sg24
S'L'
sbsg25
(irule
FeatureMatrix
p820
(dp821
g28
(lp822
(I01
g548
tp823
a(I00
g550
tp824
asg22
Nsbsg35
(irule
Guard
p825
(dp826
g18
I00
sg19
(lp827
sg21
I00
sg22
Nsg23
I00
sg24
S'R'
sbsg49
(irule
FeatureMatrix
p828
(dp829
g28
(lp830
(I00
S'nasal'
p831
tp832
asg22
Nsbsg22
Nsba(irule
Rule
p833
(dp834
g15
(irule
Guard
p835
(dp836
g18
I00
sg19
(lp837
(irule
ConstantPhoneme
p838
(dp839
S'p'
Vd
sbasg21
I00
sg22
Nsg23
I00
sg24
S'L'
sbsg25
(irule
FeatureMatrix
p840
(dp841
g28
(lp842
(I01
g548
tp843
a(I00
g675
tp844
a(I00
g550
tp845
asg22
Nsbsg35
(irule
Guard
p846
(dp847
g18
I00
sg19
(lp848
sg21
I00
sg22
Nsg23
I00
sg24
S'R'
sbsg49
(irule
FeatureMatrix
p849
(dp850
g28
(lp851
sg22
Nsbsg22
Nsba(irule
Rule
p852
(dp853
g15
(irule
Guard
p854
(dp855
g18
I00
sg19
(lp856
(irule
ConstantPhoneme
p857
(dp858
S'p'
Vd
sbasg21
I00
sg22
Nsg23
I00
sg24
S'L'
sbsg25
(irule
FeatureMatrix
p859
(dp860
g28
(lp861
(I01
g548
tp862
a(I00
g550
tp863
asg22
Nsbsg35
(irule
Guard
p864
(dp865
g18
I00
sg19
(lp866
sg21
I00
sg22
Nsg23
I00
sg24
S'R'
sbsg49
(irule
FeatureMatrix
p867
(dp868
g28
(lp869
(I01
S'sonorant'
p870
tp871
asg22
Nsbsg22
Nsba(irule
Rule
p872
(dp873
g15
(irule
Guard
p874
(dp875
g18
I00
sg19
(lp876
(irule
ConstantPhoneme
p877
(dp878
S'p'
Vd
sbasg21
I00
sg22
Nsg23
I00
sg24
S'L'
sbsg25
(irule
FeatureMatrix
p879
(dp880
g28
(lp881
(I00
g733
tp882
a(I01
g548
tp883
a(I00
g550
tp884
asg22
Nsbsg35
(irule
Guard
p885
(dp886
g18
I00
sg19
(lp887
sg21
I00
sg22
Nsg23
I00
sg24
S'R'
sbsg49
(irule
FeatureMatrix
p888
(dp889
g28
(lp890
sg22
Nsbsg22
Nsba(irule
Rule
p891
(dp892
g15
(irule
Guard
p893
(dp894
g18
I00
sg19
(lp895
(irule
ConstantPhoneme
p896
(dp897
S'p'
Vd
sbasg21
I00
sg22
Nsg23
I00
sg24
S'L'
sbsg25
(irule
FeatureMatrix
p898
(dp899
g28
(lp900
(I00
g831
tp901
a(I01
g548
tp902
a(I00
g550
tp903
asg22
Nsbsg35
(irule
Guard
p904
(dp905
g18
I00
sg19
(lp906
sg21
I00
sg22
Nsg23
I00
sg24
S'R'
sbsg49
(irule
FeatureMatrix
p907
(dp908
g28
(lp909
sg22
Nsbsg22
Nsba(irule
Rule
p910
(dp911
g15
(irule
Guard
p912
(dp913
g18
I00
sg19
(lp914
(irule
ConstantPhoneme
p915
(dp916
S'p'
Vd
sbasg21
I00
sg22
Nsg23
I00
sg24
S'L'
sbsg25
(irule
FeatureMatrix
p917
(dp918
g28
(lp919
(I01
g548
tp920
a(I00
g550
tp921
a(I01
g773
tp922
asg22
Nsbsg35
(irule
Guard
p923
(dp924
g18
I00
sg19
(lp925
sg21
I00
sg22
Nsg23
I00
sg24
S'R'
sbsg49
(irule
FeatureMatrix
p926
(dp927
g28
(lp928
sg22
Nsbsg22
Nsba(irule
Rule
p929
(dp930
g15
(irule
Guard
p931
(dp932
g18
I00
sg19
(lp933
(irule
ConstantPhoneme
p934
(dp935
S'p'
Vd
sbasg21
I00
sg22
Nsg23
I00
sg24
S'L'
sbsg25
(irule
FeatureMatrix
p936
(dp937
g28
(lp938
(I00
S'lateral'
p939
tp940
a(I01
g548
tp941
a(I00
g550
tp942
asg22
Nsbsg35
(irule
Guard
p943
(dp944
g18
I00
sg19
(lp945
sg21
I00
sg22
Nsg23
I00
sg24
S'R'
sbsg49
(irule
FeatureMatrix
p946
(dp947
g28
(lp948
sg22
Nsbsg22
Nsba(irule
Rule
p949
(dp950
g15
(irule
Guard
p951
(dp952
g18
I00
sg19
(lp953
(irule
ConstantPhoneme
p954
(dp955
S'p'
Vd
sbasg21
I00
sg22
Nsg23
I00
sg24
S'L'
sbsg25
(irule
FeatureMatrix
p956
(dp957
g28
(lp958
(I01
g870
tp959
a(I01
g548
tp960
a(I00
g550
tp961
asg22
Nsbsg35
(irule
Guard
p962
(dp963
g18
I00
sg19
(lp964
sg21
I00
sg22
Nsg23
I00
sg24
S'R'
sbsg49
(irule
FeatureMatrix
p965
(dp966
g28
(lp967
sg22
Nsbsg22
Nsba(irule
Rule
p968
(dp969
g15
(irule
Guard
p970
(dp971
g18
I00
sg19
(lp972
(irule
ConstantPhoneme
p973
(dp974
S'p'
Vd
sbasg21
I00
sg22
Nsg23
I00
sg24
S'L'
sbsg25
(irule
FeatureMatrix
p975
(dp976
g28
(lp977
(I01
g548
tp978
a(I00
g550
tp979
asg22
Nsbsg35
(irule
Guard
p980
(dp981
g18
I00
sg19
(lp982
sg21
I00
sg22
Nsg23
I00
sg24
S'R'
sbsg49
(irule
FeatureMatrix
p983
(dp984
g28
(lp985
(I00
S'rounded'
p986
tp987
asg22
Nsbsg22
Nsba(irule
Rule
p988
(dp989
g15
(irule
Guard
p990
(dp991
g18
I00
sg19
(lp992
(irule
ConstantPhoneme
p993
(dp994
S'p'
Vd
sbasg21
I00
sg22
Nsg23
I00
sg24
S'L'
sbsg25
(irule
FeatureMatrix
p995
(dp996
g28
(lp997
(I00
g635
tp998
a(I01
g548
tp999
a(I00
g550
tp1000
asg22
Nsbsg35
(irule
Guard
p1001
(dp1002
g18
I00
sg19
(lp1003
sg21
I00
sg22
Nsg23
I00
sg24
S'R'
sbsg49
(irule
FeatureMatrix
p1004
(dp1005
g28
(lp1006
sg22
Nsbsg22
Nsba(irule
Rule
p1007
(dp1008
g15
(irule
Guard
p1009
(dp1010
g18
I00
sg19
(lp1011
(irule
ConstantPhoneme
p1012
(dp1013
S'p'
Vd
sbasg21
I00
sg22
Nsg23
I00
sg24
S'L'
sbsg25
(irule
FeatureMatrix
p1014
(dp1015
g28
(lp1016
(I01
g548
tp1017
a(I00
g550
tp1018
asg22
Nsbsg35
(irule
Guard
p1019
(dp1020
g18
I00
sg19
(lp1021
sg21
I00
sg22
Nsg23
I00
sg24
S'R'
sbsg49
(irule
FeatureMatrix
p1022
(dp1023
g28
(lp1024
(I01
S'continuant'
p1025
tp1026
asg22
Nsbsg22
Nsba(irule
Rule
p1027
(dp1028
g15
(irule
Guard
p1029
(dp1030
g18
I00
sg19
(lp1031
(irule
ConstantPhoneme
p1032
(dp1033
S'p'
Vd
sbasg21
I00
sg22
Nsg23
I00
sg24
S'L'
sbsg25
(irule
FeatureMatrix
p1034
(dp1035
g28
(lp1036
(I01
g1025
tp1037
a(I01
g548
tp1038
a(I00
g550
tp1039
asg22
Nsbsg35
(irule
Guard
p1040
(dp1041
g18
I00
sg19
(lp1042
sg21
I00
sg22
Nsg23
I00
sg24
S'R'
sbsg49
(irule
FeatureMatrix
p1043
(dp1044
g28
(lp1045
sg22
Nsbsg22
Nsba(irule
Rule
p1046
(dp1047
g15
(irule
Guard
p1048
(dp1049
g18
I00
sg19
(lp1050
(irule
ConstantPhoneme
p1051
(dp1052
S'p'
Vd
sbasg21
I00
sg22
Nsg23
I00
sg24
S'L'
sbsg25
(irule
FeatureMatrix
p1053
(dp1054
g28
(lp1055
(I01
g548
tp1056
a(I00
g550
tp1057
asg22
Nsbsg35
(irule
Guard
p1058
(dp1059
g18
I00
sg19
(lp1060
sg21
I00
sg22
Nsg23
I00
sg24
S'R'
sbsg49
(irule
FeatureMatrix
p1061
(dp1062
g28
(lp1063
(I00
g939
tp1064
asg22
Nsbsg22
Nsba(irule
Rule
p1065
(dp1066
g15
(irule
Guard
p1067
(dp1068
g18
I00
sg19
(lp1069
(irule
FeatureMatrix
p1070
(dp1071
g28
(lp1072
(I00
g870
tp1073
asg22
Nsba(irule
ConstantPhoneme
p1074
(dp1075
S'p'
Ve:
p1076
sbasg21
I00
sg22
Nsg23
I00
sg24
S'L'
sbsg25
(irule
FeatureMatrix
p1077
(dp1078
g28
(lp1079
(I01
g548
tp1080
a(I00
g550
tp1081
asg22
Nsbsg35
(irule
Guard
p1082
(dp1083
g18
I00
sg19
(lp1084
sg21
I00
sg22
Nsg23
I00
sg24
S'R'
sbsg49
(irule
FeatureMatrix
p1085
(dp1086
g28
(lp1087
sg22
Nsbsg22
Nsba(irule
Rule
p1088
(dp1089
g15
(irule
Guard
p1090
(dp1091
g18
I00
sg19
(lp1092
(irule
FeatureMatrix
p1093
(dp1094
g28
(lp1095
(I00
g831
tp1096
asg22
Nsba(irule
FeatureMatrix
p1097
(dp1098
g28
(lp1099
(I01
g733
tp1100
asg22
Nsbasg21
I00
sg22
Nsg23
I00
sg24
S'L'
sbsg25
(irule
FeatureMatrix
p1101
(dp1102
g28
(lp1103
(I01
g548
tp1104
a(I00
g550
tp1105
asg22
Nsbsg35
(irule
Guard
p1106
(dp1107
g18
I00
sg19
(lp1108
sg21
I00
sg22
Nsg23
I00
sg24
S'R'
sbsg49
(irule
FeatureMatrix
p1109
(dp1110
g28
(lp1111
sg22
Nsbsg22
Nsba(irule
Rule
p1112
(dp1113
g15
(irule
Guard
p1114
(dp1115
g18
I00
sg19
(lp1116
(irule
ConstantPhoneme
p1117
(dp1118
S'p'
Vd
sbasg21
I00
sg22
Nsg23
I00
sg24
S'L'
sbsg25
(irule
FeatureMatrix
p1119
(dp1120
g28
(lp1121
(I00
g831
tp1122
a(I01
g548
tp1123
a(I00
g550
tp1124
asg22
Nsbsg35
(irule
Guard
p1125
(dp1126
g18
I00
sg19
(lp1127
sg21
I00
sg22
Nsg23
I00
sg24
S'R'
sbsg49
(irule
FeatureMatrix
p1128
(dp1129
g28
(lp1130
(I00
g607
tp1131
asg22
Nsbsg22
Nsba(irule
Rule
p1132
(dp1133
g15
(irule
Guard
p1134
(dp1135
g18
I00
sg19
(lp1136
(irule
FeatureMatrix
p1137
(dp1138
g28
(lp1139
(I00
g870
tp1140
asg22
Nsba(irule
FeatureMatrix
p1141
(dp1142
g28
(lp1143
(I00
g550
tp1144
asg22
Nsbasg21
I00
sg22
Nsg23
I00
sg24
S'L'
sbsg25
(irule
FeatureMatrix
p1145
(dp1146
g28
(lp1147
(I01
g548
tp1148
a(I00
g550
tp1149
asg22
Nsbsg35
(irule
Guard
p1150
(dp1151
g18
I00
sg19
(lp1152
sg21
I00
sg22
Nsg23
I00
sg24
S'R'
sbsg49
(irule
FeatureMatrix
p1153
(dp1154
g28
(lp1155
sg22
Nsbsg22
Nsba(irule
Rule
p1156
(dp1157
g15
(irule
Guard
p1158
(dp1159
g18
I00
sg19
(lp1160
(irule
FeatureMatrix
p1161
(dp1162
g28
(lp1163
(I00
g1025
tp1164
a(I00
g870
tp1165
a(I01
g675
tp1166
asg22
Nsbasg21
I00
sg22
Nsg23
I00
sg24
S'L'
sbsg25
(irule
FeatureMatrix
p1167
(dp1168
g28
(lp1169
(I01
g548
tp1170
a(I00
g550
tp1171
asg22
Nsbsg35
(irule
Guard
p1172
(dp1173
g18
I00
sg19
(lp1174
sg21
I00
sg22
Nsg23
I00
sg24
S'R'
sbsg49
(irule
FeatureMatrix
p1175
(dp1176
g28
(lp1177
sg22
Nsbsg22
Nsba(irule
Rule
p1178
(dp1179
g15
(irule
Guard
p1180
(dp1181
g18
I00
sg19
(lp1182
(irule
FeatureMatrix
p1183
(dp1184
g28
(lp1185
(I00
g831
tp1186
asg22
Nsba(irule
ConstantPhoneme
p1187
(dp1188
S'p'
g1076
sbasg21
I00
sg22
Nsg23
I00
sg24
S'L'
sbsg25
(irule
FeatureMatrix
p1189
(dp1190
g28
(lp1191
(I01
g548
tp1192
a(I00
g550
tp1193
asg22
Nsbsg35
(irule
Guard
p1194
(dp1195
g18
I00
sg19
(lp1196
sg21
I00
sg22
Nsg23
I00
sg24
S'R'
sbsg49
(irule
FeatureMatrix
p1197
(dp1198
g28
(lp1199
sg22
Nsbsg22
Nsba(irule
Rule
p1200
(dp1201
g15
(irule
Guard
p1202
(dp1203
g18
I00
sg19
(lp1204
(irule
FeatureMatrix
p1205
(dp1206
g28
(lp1207
(I00
g870
tp1208
a(I01
g655
tp1209
asg22
Nsba(irule
FeatureMatrix
p1210
(dp1211
g28
(lp1212
sg22
Nsbasg21
I00
sg22
Nsg23
I00
sg24
S'L'
sbsg25
(irule
FeatureMatrix
p1213
(dp1214
g28
(lp1215
(I01
g548
tp1216
a(I00
g550
tp1217
asg22
Nsbsg35
(irule
Guard
p1218
(dp1219
g18
I00
sg19
(lp1220
sg21
I00
sg22
Nsg23
I00
sg24
S'R'
sbsg49
(irule
FeatureMatrix
p1221
(dp1222
g28
(lp1223
sg22
Nsbsg22
Nsba(irule
Rule
p1224
(dp1225
g15
(irule
Guard
p1226
(dp1227
g18
I00
sg19
(lp1228
(irule
FeatureMatrix
p1229
(dp1230
g28
(lp1231
(I00
g870
tp1232
asg22
Nsba(irule
FeatureMatrix
p1233
(dp1234
g28
(lp1235
(I01
g733
tp1236
asg22
Nsbasg21
I00
sg22
Nsg23
I00
sg24
S'L'
sbsg25
(irule
FeatureMatrix
p1237
(dp1238
g28
(lp1239
(I01
g548
tp1240
a(I00
g550
tp1241
asg22
Nsbsg35
(irule
Guard
p1242
(dp1243
g18
I00
sg19
(lp1244
sg21
I00
sg22
Nsg23
I00
sg24
S'R'
sbsg49
(irule
FeatureMatrix
p1245
(dp1246
g28
(lp1247
sg22
Nsbsg22
Nsba(irule
Rule
p1248
(dp1249
g15
(irule
Guard
p1250
(dp1251
g18
I00
sg19
(lp1252
(irule
ConstantPhoneme
p1253
(dp1254
S'p'
Vd
sba(irule
FeatureMatrix
p1255
(dp1256
g28
(lp1257
sg22
Nsbasg21
I00
sg22
Nsg23
I00
sg24
S'L'
sbsg25
(irule
FeatureMatrix
p1258
(dp1259
g28
(lp1260
(I01
g548
tp1261
a(I00
g550
tp1262
asg22
Nsbsg35
(irule
Guard
p1263
(dp1264
g18
I00
sg19
(lp1265
sg21
I00
sg22
Nsg23
I00
sg24
S'R'
sbsg49
(irule
FeatureMatrix
p1266
(dp1267
g28
(lp1268
(I00
g635
tp1269
asg22
Nsbsg22
Nsba(irule
Rule
p1270
(dp1271
g15
(irule
Guard
p1272
(dp1273
g18
I00
sg19
(lp1274
(irule
BoundarySpecification
p1275
(dp1276
ba(irule
ConstantPhoneme
p1277
(dp1278
S'p'
Vd
sbasg21
I00
sg22
Nsg23
I00
sg24
S'L'
sbsg25
(irule
FeatureMatrix
p1279
(dp1280
g28
(lp1281
(I01
g548
tp1282
a(I00
g550
tp1283
asg22
Nsbsg35
(irule
Guard
p1284
(dp1285
g18
I00
sg19
(lp1286
sg21
I00
sg22
Nsg23
I00
sg24
S'R'
sbsg49
(irule
FeatureMatrix
p1287
(dp1288
g28
(lp1289
sg22
Nsbsg22
Nsba(irule
Rule
p1290
(dp1291
g15
(irule
Guard
p1292
(dp1293
g18
I00
sg19
(lp1294
(irule
ConstantPhoneme
p1295
(dp1296
S'p'
Vd
sbasg21
I00
sg22
Nsg23
I00
sg24
S'L'
sbsg25
(irule
FeatureMatrix
p1297
(dp1298
g28
(lp1299
(I01
g548
tp1300
a(I00
g550
tp1301
a(I01
g773
tp1302
asg22
Nsbsg35
(irule
Guard
p1303
(dp1304
g18
I00
sg19
(lp1305
sg21
I00
sg22
Nsg23
I00
sg24
S'R'
sbsg49
(irule
FeatureMatrix
p1306
(dp1307
g28
(lp1308
(I01
g773
tp1309
asg22
Nsbsg22
Nsba(irule
Rule
p1310
(dp1311
g15
(irule
Guard
p1312
(dp1313
g18
I00
sg19
(lp1314
(irule
FeatureMatrix
p1315
(dp1316
g28
(lp1317
(I00
g870
tp1318
asg22
Nsba(irule
FeatureMatrix
p1319
(dp1320
g28
(lp1321
(I00
S'back'
p1322
tp1323
asg22
Nsbasg21
I00
sg22
Nsg23
I00
sg24
S'L'
sbsg25
(irule
FeatureMatrix
p1324
(dp1325
g28
(lp1326
(I01
g548
tp1327
a(I00
g550
tp1328
asg22
Nsbsg35
(irule
Guard
p1329
(dp1330
g18
I00
sg19
(lp1331
sg21
I00
sg22
Nsg23
I00
sg24
S'R'
sbsg49
(irule
FeatureMatrix
p1332
(dp1333
g28
(lp1334
sg22
Nsbsg22
Nsba(irule
Rule
p1335
(dp1336
g15
(irule
Guard
p1337
(dp1338
g18
I00
sg19
(lp1339
(irule
ConstantPhoneme
p1340
(dp1341
S'p'
Vd
sbasg21
I00
sg22
Nsg23
I00
sg24
S'L'
sbsg25
(irule
FeatureMatrix
p1342
(dp1343
g28
(lp1344
(I01
g548
tp1345
a(I00
g550
tp1346
asg22
Nsbsg35
(irule
Guard
p1347
(dp1348
g18
I00
sg19
(lp1349
sg21
I00
sg22
Nsg23
I00
sg24
S'R'
sbsg49
(irule
FeatureMatrix
p1350
(dp1351
g28
(lp1352
(I00
g576
tp1353
a(I01
g655
tp1354
asg22
Nsbsg22
Nsba(irule
Rule
p1355
(dp1356
g15
(irule
Guard
p1357
(dp1358
g18
I00
sg19
(lp1359
(irule
FeatureMatrix
p1360
(dp1361
g28
(lp1362
(I01
g635
tp1363
a(I00
g831
tp1364
a(I01
g655
tp1365
asg22
Nsbasg21
I00
sg22
Nsg23
I00
sg24
S'L'
sbsg25
(irule
FeatureMatrix
p1366
(dp1367
g28
(lp1368
(I01
g548
tp1369
a(I00
g550
tp1370
asg22
Nsbsg35
(irule
Guard
p1371
(dp1372
g18
I00
sg19
(lp1373
sg21
I00
sg22
Nsg23
I00
sg24
S'R'
sbsg49
(irule
FeatureMatrix
p1374
(dp1375
g28
(lp1376
sg22
Nsbsg22
Nsba(irule
Rule
p1377
(dp1378
g15
(irule
Guard
p1379
(dp1380
g18
I00
sg19
(lp1381
(irule
ConstantPhoneme
p1382
(dp1383
S'p'
Vd
sba(irule
FeatureMatrix
p1384
(dp1385
g28
(lp1386
sg22
Nsbasg21
I00
sg22
Nsg23
I00
sg24
S'L'
sbsg25
(irule
FeatureMatrix
p1387
(dp1388
g28
(lp1389
(I01
g548
tp1390
a(I00
g550
tp1391
asg22
Nsbsg35
(irule
Guard
p1392
(dp1393
g18
I00
sg19
(lp1394
sg21
I00
sg22
Nsg23
I00
sg24
S'R'
sbsg49
(irule
FeatureMatrix
p1395
(dp1396
g28
(lp1397
(I01
g773
tp1398
asg22
Nsbsg22
Nsba(irule
Rule
p1399
(dp1400
g15
(irule
Guard
p1401
(dp1402
g18
I00
sg19
(lp1403
(irule
ConstantPhoneme
p1404
(dp1405
S'p'
Vd
sba(irule
FeatureMatrix
p1406
(dp1407
g28
(lp1408
sg22
Nsbasg21
I00
sg22
Nsg23
I00
sg24
S'L'
sbsg25
(irule
FeatureMatrix
p1409
(dp1410
g28
(lp1411
(I01
g548
tp1412
a(I00
g550
tp1413
asg22
Nsbsg35
(irule
Guard
p1414
(dp1415
g18
I00
sg19
(lp1416
sg21
I00
sg22
Nsg23
I00
sg24
S'R'
sbsg49
(irule
FeatureMatrix
p1417
(dp1418
g28
(lp1419
(I00
g733
tp1420
asg22
Nsbsg22
Nsba(irule
Rule
p1421
(dp1422
g15
(irule
Guard
p1423
(dp1424
g18
I00
sg19
(lp1425
(irule
ConstantPhoneme
p1426
(dp1427
S'p'
Vd
sba(irule
FeatureMatrix
p1428
(dp1429
g28
(lp1430
sg22
Nsbasg21
I00
sg22
Nsg23
I00
sg24
S'L'
sbsg25
(irule
FeatureMatrix
p1431
(dp1432
g28
(lp1433
(I01
g548
tp1434
a(I00
g550
tp1435
a(I01
g773
tp1436
asg22
Nsbsg35
(irule
Guard
p1437
(dp1438
g18
I00
sg19
(lp1439
sg21
I00
sg22
Nsg23
I00
sg24
S'R'
sbsg49
(irule
FeatureMatrix
p1440
(dp1441
g28
(lp1442
sg22
Nsbsg22
Nsba(irule
Rule
p1443
(dp1444
g15
(irule
Guard
p1445
(dp1446
g18
I00
sg19
(lp1447
(irule
ConstantPhoneme
p1448
(dp1449
S'p'
Vd
sba(irule
ConstantPhoneme
p1450
(dp1451
S'p'
g1076
sbasg21
I00
sg22
Nsg23
I00
sg24
S'L'
sbsg25
(irule
FeatureMatrix
p1452
(dp1453
g28
(lp1454
(I01
g548
tp1455
a(I00
g550
tp1456
asg22
Nsbsg35
(irule
Guard
p1457
(dp1458
g18
I00
sg19
(lp1459
sg21
I00
sg22
Nsg23
I00
sg24
S'R'
sbsg49
(irule
FeatureMatrix
p1460
(dp1461
g28
(lp1462
sg22
Nsbsg22
Nsba(irule
Rule
p1463
(dp1464
g15
(irule
Guard
p1465
(dp1466
g18
I00
sg19
(lp1467
(irule
ConstantPhoneme
p1468
(dp1469
S'p'
Vd
sba(irule
FeatureMatrix
p1470
(dp1471
g28
(lp1472
sg22
Nsbasg21
I00
sg22
Nsg23
I00
sg24
S'L'
sbsg25
(irule
FeatureMatrix
p1473
(dp1474
g28
(lp1475
(I01
g548
tp1476
a(I00
g550
tp1477
a(I01
g655
tp1478
asg22
Nsbsg35
(irule
Guard
p1479
(dp1480
g18
I00
sg19
(lp1481
sg21
I00
sg22
Nsg23
I00
sg24
S'R'
sbsg49
(irule
FeatureMatrix
p1482
(dp1483
g28
(lp1484
sg22
Nsbsg22
Nsba(irule
Rule
p1485
(dp1486
g15
(irule
Guard
p1487
(dp1488
g18
I00
sg19
(lp1489
(irule
ConstantPhoneme
p1490
(dp1491
S'p'
Vd
sba(irule
FeatureMatrix
p1492
(dp1493
g28
(lp1494
(I01
g773
tp1495
asg22
Nsbasg21
I00
sg22
Nsg23
I00
sg24
S'L'
sbsg25
(irule
FeatureMatrix
p1496
(dp1497
g28
(lp1498
(I01
g548
tp1499
a(I00
g550
tp1500
asg22
Nsbsg35
(irule
Guard
p1501
(dp1502
g18
I00
sg19
(lp1503
sg21
I00
sg22
Nsg23
I00
sg24
S'R'
sbsg49
(irule
FeatureMatrix
p1504
(dp1505
g28
(lp1506
sg22
Nsbsg22
Nsba(irule
Rule
p1507
(dp1508
g15
(irule
Guard
p1509
(dp1510
g18
I00
sg19
(lp1511
(irule
ConstantPhoneme
p1512
(dp1513
S'p'
Vd
sba(irule
FeatureMatrix
p1514
(dp1515
g28
(lp1516
(I00
g1322
tp1517
asg22
Nsbasg21
I00
sg22
Nsg23
I00
sg24
S'L'
sbsg25
(irule
FeatureMatrix
p1518
(dp1519
g28
(lp1520
(I01
g548
tp1521
a(I00
g550
tp1522
asg22
Nsbsg35
(irule
Guard
p1523
(dp1524
g18
I00
sg19
(lp1525
sg21
I00
sg22
Nsg23
I00
sg24
S'R'
sbsg49
(irule
FeatureMatrix
p1526
(dp1527
g28
(lp1528
sg22
Nsbsg22
Nsba(irule
Rule
p1529
(dp1530
g15
(irule
Guard
p1531
(dp1532
g18
I00
sg19
(lp1533
(irule
FeatureMatrix
p1534
(dp1535
g28
(lp1536
(I00
g870
tp1537
a(I00
g548
tp1538
a(I01
g655
tp1539
asg22
Nsbasg21
I00
sg22
Nsg23
I00
sg24
S'L'
sbsg25
(irule
FeatureMatrix
p1540
(dp1541
g28
(lp1542
(I01
g548
tp1543
a(I00
g550
tp1544
asg22
Nsbsg35
(irule
Guard
p1545
(dp1546
g18
I00
sg19
(lp1547
sg21
I00
sg22
Nsg23
I00
sg24
S'R'
sbsg49
(irule
FeatureMatrix
p1548
(dp1549
g28
(lp1550
sg22
Nsbsg22
Nsba(irule
Rule
p1551
(dp1552
g15
(irule
Guard
p1553
(dp1554
g18
I00
sg19
(lp1555
(irule
ConstantPhoneme
p1556
(dp1557
S'p'
Vd
sba(irule
FeatureMatrix
p1558
(dp1559
g28
(lp1560
sg22
Nsbasg21
I00
sg22
Nsg23
I00
sg24
S'L'
sbsg25
(irule
FeatureMatrix
p1561
(dp1562
g28
(lp1563
(I00
g733
tp1564
a(I01
g548
tp1565
a(I00
g550
tp1566
asg22
Nsbsg35
(irule
Guard
p1567
(dp1568
g18
I00
sg19
(lp1569
sg21
I00
sg22
Nsg23
I00
sg24
S'R'
sbsg49
(irule
FeatureMatrix
p1570
(dp1571
g28
(lp1572
sg22
Nsbsg22
Nsba(irule
Rule
p1573
(dp1574
g15
(irule
Guard
p1575
(dp1576
g18
I00
sg19
(lp1577
(irule
ConstantPhoneme
p1578
(dp1579
S'p'
Vd
sbasg21
I00
sg22
Nsg23
I00
sg24
S'L'
sbsg25
(irule
FeatureMatrix
p1580
(dp1581
g28
(lp1582
(I01
g548
tp1583
a(I00
g550
tp1584
a(I01
g655
tp1585
asg22
Nsbsg35
(irule
Guard
p1586
(dp1587
g18
I00
sg19
(lp1588
sg21
I00
sg22
Nsg23
I00
sg24
S'R'
sbsg49
(irule
FeatureMatrix
p1589
(dp1590
g28
(lp1591
(I00
g635
tp1592
asg22
Nsbsg22
Nsba(irule
Rule
p1593
(dp1594
g15
(irule
Guard
p1595
(dp1596
g18
I00
sg19
(lp1597
(irule
ConstantPhoneme
p1598
(dp1599
S'p'
Vd
sba(irule
FeatureMatrix
p1600
(dp1601
g28
(lp1602
(I01
g655
tp1603
asg22
Nsbasg21
I00
sg22
Nsg23
I00
sg24
S'L'
sbsg25
(irule
FeatureMatrix
p1604
(dp1605
g28
(lp1606
(I01
g548
tp1607
a(I00
g550
tp1608
asg22
Nsbsg35
(irule
Guard
p1609
(dp1610
g18
I00
sg19
(lp1611
sg21
I00
sg22
Nsg23
I00
sg24
S'R'
sbsg49
(irule
FeatureMatrix
p1612
(dp1613
g28
(lp1614
sg22
Nsbsg22
Nsba(irule
Rule
p1615
(dp1616
g15
(irule
Guard
p1617
(dp1618
g18
I00
sg19
(lp1619
(irule
FeatureMatrix
p1620
(dp1621
g28
(lp1622
(I00
g870
tp1623
a(I01
g655
tp1624
asg22
Nsbasg21
I00
sg22
Nsg23
I00
sg24
S'L'
sbsg25
(irule
FeatureMatrix
p1625
(dp1626
g28
(lp1627
(I01
g548
tp1628
a(I00
g550
tp1629
asg22
Nsbsg35
(irule
Guard
p1630
(dp1631
g18
I00
sg19
(lp1632
sg21
I00
sg22
Nsg23
I00
sg24
S'R'
sbsg49
(irule
FeatureMatrix
p1633
(dp1634
g28
(lp1635
(I00
g733
tp1636
asg22
Nsbsg22
Nsba(irule
Rule
p1637
(dp1638
g15
(irule
Guard
p1639
(dp1640
g18
I00
sg19
(lp1641
(irule
ConstantPhoneme
p1642
(dp1643
S'p'
Vd
sba(irule
FeatureMatrix
p1644
(dp1645
g28
(lp1646
(I00
g675
tp1647
asg22
Nsbasg21
I00
sg22
Nsg23
I00
sg24
S'L'
sbsg25
(irule
FeatureMatrix
p1648
(dp1649
g28
(lp1650
(I01
g548
tp1651
a(I00
g550
tp1652
asg22
Nsbsg35
(irule
Guard
p1653
(dp1654
g18
I00
sg19
(lp1655
sg21
I00
sg22
Nsg23
I00
sg24
S'R'
sbsg49
(irule
FeatureMatrix
p1656
(dp1657
g28
(lp1658
sg22
Nsbsg22
Nsba(irule
Rule
p1659
(dp1660
g15
(irule
Guard
p1661
(dp1662
g18
I00
sg19
(lp1663
(irule
ConstantPhoneme
p1664
(dp1665
S'p'
Vd
sba(irule
FeatureMatrix
p1666
(dp1667
g28
(lp1668
sg22
Nsbasg21
I00
sg22
Nsg23
I00
sg24
S'L'
sbsg25
(irule
FeatureMatrix
p1669
(dp1670
g28
(lp1671
(I01
g548
tp1672
a(I00
g675
tp1673
a(I00
g550
tp1674
asg22
Nsbsg35
(irule
Guard
p1675
(dp1676
g18
I00
sg19
(lp1677
sg21
I00
sg22
Nsg23
I00
sg24
S'R'
sbsg49
(irule
FeatureMatrix
p1678
(dp1679
g28
(lp1680
sg22
Nsbsg22
Nsba(irule
Rule
p1681
(dp1682
g15
(irule
Guard
p1683
(dp1684
g18
I00
sg19
(lp1685
(irule
ConstantPhoneme
p1686
(dp1687
S'p'
Vd
sba(irule
FeatureMatrix
p1688
(dp1689
g28
(lp1690
sg22
Nsbasg21
I00
sg22
Nsg23
I00
sg24
S'L'
sbsg25
(irule
FeatureMatrix
p1691
(dp1692
g28
(lp1693
(I01
g548
tp1694
a(I00
g550
tp1695
a(I00
g576
tp1696
asg22
Nsbsg35
(irule
Guard
p1697
(dp1698
g18
I00
sg19
(lp1699
sg21
I00
sg22
Nsg23
I00
sg24
S'R'
sbsg49
(irule
FeatureMatrix
p1700
(dp1701
g28
(lp1702
sg22
Nsbsg22
Nsba(irule
Rule
p1703
(dp1704
g15
(irule
Guard
p1705
(dp1706
g18
I00
sg19
(lp1707
(irule
FeatureMatrix
p1708
(dp1709
g28
(lp1710
(I00
g1322
tp1711
a(I00
g870
tp1712
a(I01
g655
tp1713
asg22
Nsbasg21
I00
sg22
Nsg23
I00
sg24
S'L'
sbsg25
(irule
FeatureMatrix
p1714
(dp1715
g28
(lp1716
(I01
g548
tp1717
a(I00
g550
tp1718
asg22
Nsbsg35
(irule
Guard
p1719
(dp1720
g18
I00
sg19
(lp1721
sg21
I00
sg22
Nsg23
I00
sg24
S'R'
sbsg49
(irule
FeatureMatrix
p1722
(dp1723
g28
(lp1724
sg22
Nsbsg22
Nsba(irule
Rule
p1725
(dp1726
g15
(irule
Guard
p1727
(dp1728
g18
I00
sg19
(lp1729
(irule
ConstantPhoneme
p1730
(dp1731
S'p'
Vd
sba(irule
FeatureMatrix
p1732
(dp1733
g28
(lp1734
(I01
g733
tp1735
asg22
Nsbasg21
I00
sg22
Nsg23
I00
sg24
S'L'
sbsg25
(irule
FeatureMatrix
p1736
(dp1737
g28
(lp1738
(I01
g548
tp1739
a(I00
g550
tp1740
asg22
Nsbsg35
(irule
Guard
p1741
(dp1742
g18
I00
sg19
(lp1743
sg21
I00
sg22
Nsg23
I00
sg24
S'R'
sbsg49
(irule
FeatureMatrix
p1744
(dp1745
g28
(lp1746
sg22
Nsbsg22
Nsba(irule
Rule
p1747
(dp1748
g15
(irule
Guard
p1749
(dp1750
g18
I00
sg19
(lp1751
(irule
ConstantPhoneme
p1752
(dp1753
S'p'
Vd
sba(irule
FeatureMatrix
p1754
(dp1755
g28
(lp1756
(I01
g1025
tp1757
asg22
Nsbasg21
I00
sg22
Nsg23
I00
sg24
S'L'
sbsg25
(irule
FeatureMatrix
p1758
(dp1759
g28
(lp1760
(I01
g548
tp1761
a(I00
g550
tp1762
asg22
Nsbsg35
(irule
Guard
p1763
(dp1764
g18
I00
sg19
(lp1765
sg21
I00
sg22
Nsg23
I00
sg24
S'R'
sbsg49
(irule
FeatureMatrix
p1766
(dp1767
g28
(lp1768
sg22
Nsbsg22
Nsba(irule
Rule
p1769
(dp1770
g15
(irule
Guard
p1771
(dp1772
g18
I00
sg19
(lp1773
(irule
ConstantPhoneme
p1774
(dp1775
S'p'
Vd
sba(irule
FeatureMatrix
p1776
(dp1777
g28
(lp1778
sg22
Nsbasg21
I00
sg22
Nsg23
I00
sg24
S'L'
sbsg25
(irule
FeatureMatrix
p1779
(dp1780
g28
(lp1781
(I01
g548
tp1782
a(I00
g550
tp1783
asg22
Nsbsg35
(irule
Guard
p1784
(dp1785
g18
I00
sg19
(lp1786
sg21
I00
sg22
Nsg23
I00
sg24
S'R'
sbsg49
(irule
FeatureMatrix
p1787
(dp1788
g28
(lp1789
(I01
g870
tp1790
asg22
Nsbsg22
Nsba(irule
Rule
p1791
(dp1792
g15
(irule
Guard
p1793
(dp1794
g18
I00
sg19
(lp1795
(irule
FeatureMatrix
p1796
(dp1797
g28
(lp1798
(I01
g635
tp1799
a(I00
g870
tp1800
a(I01
g655
tp1801
asg22
Nsbasg21
I00
sg22
Nsg23
I00
sg24
S'L'
sbsg25
(irule
FeatureMatrix
p1802
(dp1803
g28
(lp1804
(I01
g548
tp1805
a(I00
g550
tp1806
asg22
Nsbsg35
(irule
Guard
p1807
(dp1808
g18
I00
sg19
(lp1809
sg21
I00
sg22
Nsg23
I00
sg24
S'R'
sbsg49
(irule
FeatureMatrix
p1810
(dp1811
g28
(lp1812
sg22
Nsbsg22
Nsba(irule
Rule
p1813
(dp1814
g15
(irule
Guard
p1815
(dp1816
g18
I00
sg19
(lp1817
(irule
FeatureMatrix
p1818
(dp1819
g28
(lp1820
(I00
g870
tp1821
a(I01
g675
tp1822
a(I00
g576
tp1823
asg22
Nsbasg21
I00
sg22
Nsg23
I00
sg24
S'L'
sbsg25
(irule
FeatureMatrix
p1824
(dp1825
g28
(lp1826
(I01
g548
tp1827
a(I00
g550
tp1828
asg22
Nsbsg35
(irule
Guard
p1829
(dp1830
g18
I00
sg19
(lp1831
sg21
I00
sg22
Nsg23
I00
sg24
S'R'
sbsg49
(irule
FeatureMatrix
p1832
(dp1833
g28
(lp1834
sg22
Nsbsg22
Nsba(irule
Rule
p1835
(dp1836
g15
(irule
Guard
p1837
(dp1838
g18
I00
sg19
(lp1839
(irule
ConstantPhoneme
p1840
(dp1841
S'p'
Vd
sba(irule
FeatureMatrix
p1842
(dp1843
g28
(lp1844
sg22
Nsbasg21
I00
sg22
Nsg23
I00
sg24
S'L'
sbsg25
(irule
FeatureMatrix
p1845
(dp1846
g28
(lp1847
(I01
g548
tp1848
a(I00
g550
tp1849
asg22
Nsbsg35
(irule
Guard
p1850
(dp1851
g18
I00
sg19
(lp1852
sg21
I00
sg22
Nsg23
I00
sg24
S'R'
sbsg49
(irule
FeatureMatrix
p1853
(dp1854
g28
(lp1855
(I00
g576
tp1856
asg22
Nsbsg22
Nsba(irule
Rule
p1857
(dp1858
g15
(irule
Guard
p1859
(dp1860
g18
I00
sg19
(lp1861
(irule
ConstantPhoneme
p1862
(dp1863
S'p'
Vd
sba(irule
FeatureMatrix
p1864
(dp1865
g28
(lp1866
(I00
g576
tp1867
asg22
Nsbasg21
I00
sg22
Nsg23
I00
sg24
S'L'
sbsg25
(irule
FeatureMatrix
p1868
(dp1869
g28
(lp1870
(I01
g548
tp1871
a(I00
g550
tp1872
asg22
Nsbsg35
(irule
Guard
p1873
(dp1874
g18
I00
sg19
(lp1875
sg21
I00
sg22
Nsg23
I00
sg24
S'R'
sbsg49
(irule
FeatureMatrix
p1876
(dp1877
g28
(lp1878
sg22
Nsbsg22
Nsba(irule
Rule
p1879
(dp1880
g15
(irule
Guard
p1881
(dp1882
g18
I00
sg19
(lp1883
(irule
ConstantPhoneme
p1884
(dp1885
S'p'
Vd
sba(irule
FeatureMatrix
p1886
(dp1887
g28
(lp1888
sg22
Nsbasg21
I00
sg22
Nsg23
I00
sg24
S'L'
sbsg25
(irule
FeatureMatrix
p1889
(dp1890
g28
(lp1891
(I01
g548
tp1892
a(I01
g746
tp1893
a(I00
g550
tp1894
asg22
Nsbsg35
(irule
Guard
p1895
(dp1896
g18
I00
sg19
(lp1897
sg21
I00
sg22
Nsg23
I00
sg24
S'R'
sbsg49
(irule
FeatureMatrix
p1898
(dp1899
g28
(lp1900
sg22
Nsbsg22
Nsba(irule
Rule
p1901
(dp1902
g15
(irule
Guard
p1903
(dp1904
g18
I00
sg19
(lp1905
(irule
ConstantPhoneme
p1906
(dp1907
S'p'
Vd
sba(irule
FeatureMatrix
p1908
(dp1909
g28
(lp1910
sg22
Nsbasg21
I00
sg22
Nsg23
I00
sg24
S'L'
sbsg25
(irule
FeatureMatrix
p1911
(dp1912
g28
(lp1913
(I01
g548
tp1914
a(I00
g550
tp1915
asg22
Nsbsg35
(irule
Guard
p1916
(dp1917
g18
I00
sg19
(lp1918
sg21
I00
sg22
Nsg23
I00
sg24
S'R'
sbsg49
(irule
FeatureMatrix
p1919
(dp1920
g28
(lp1921
(I00
g831
tp1922
asg22
Nsbsg22
Nsba(irule
Rule
p1923
(dp1924
g15
(irule
Guard
p1925
(dp1926
g18
I00
sg19
(lp1927
(irule
ConstantPhoneme
p1928
(dp1929
S'p'
Vd
sba(irule
FeatureMatrix
p1930
(dp1931
g28
(lp1932
(I00
g550
tp1933
asg22
Nsbasg21
I00
sg22
Nsg23
I00
sg24
S'L'
sbsg25
(irule
FeatureMatrix
p1934
(dp1935
g28
(lp1936
(I01
g548
tp1937
a(I00
g550
tp1938
asg22
Nsbsg35
(irule
Guard
p1939
(dp1940
g18
I00
sg19
(lp1941
sg21
I00
sg22
Nsg23
I00
sg24
S'R'
sbsg49
(irule
FeatureMatrix
p1942
(dp1943
g28
(lp1944
sg22
Nsbsg22
Nsba(irule
Rule
p1945
(dp1946
g15
(irule
Guard
p1947
(dp1948
g18
I00
sg19
(lp1949
(irule
ConstantPhoneme
p1950
(dp1951
S'p'
Vd
sba(irule
FeatureMatrix
p1952
(dp1953
g28
(lp1954
(I00
g831
tp1955
asg22
Nsbasg21
I00
sg22
Nsg23
I00
sg24
S'L'
sbsg25
(irule
FeatureMatrix
p1956
(dp1957
g28
(lp1958
(I01
g548
tp1959
a(I00
g550
tp1960
asg22
Nsbsg35
(irule
Guard
p1961
(dp1962
g18
I00
sg19
(lp1963
sg21
I00
sg22
Nsg23
I00
sg24
S'R'
sbsg49
(irule
FeatureMatrix
p1964
(dp1965
g28
(lp1966
sg22
Nsbsg22
Nsba(irule
Rule
p1967
(dp1968
g15
(irule
Guard
p1969
(dp1970
g18
I00
sg19
(lp1971
(irule
ConstantPhoneme
p1972
(dp1973
S'p'
Vd
sba(irule
FeatureMatrix
p1974
(dp1975
g28
(lp1976
(I00
g548
tp1977
asg22
Nsbasg21
I00
sg22
Nsg23
I00
sg24
S'L'
sbsg25
(irule
FeatureMatrix
p1978
(dp1979
g28
(lp1980
(I01
g548
tp1981
a(I00
g550
tp1982
asg22
Nsbsg35
(irule
Guard
p1983
(dp1984
g18
I00
sg19
(lp1985
sg21
I00
sg22
Nsg23
I00
sg24
S'R'
sbsg49
(irule
FeatureMatrix
p1986
(dp1987
g28
(lp1988
sg22
Nsbsg22
Nsba(irule
Rule
p1989
(dp1990
g15
(irule
Guard
p1991
(dp1992
g18
I00
sg19
(lp1993
(irule
ConstantPhoneme
p1994
(dp1995
S'p'
Vd
sbasg21
I00
sg22
Nsg23
I00
sg24
S'L'
sbsg25
(irule
FeatureMatrix
p1996
(dp1997
g28
(lp1998
(I01
g548
tp1999
a(I00
g550
tp2000
a(I01
g655
tp2001
asg22
Nsbsg35
(irule
Guard
p2002
(dp2003
g18
I00
sg19
(lp2004
sg21
I00
sg22
Nsg23
I00
sg24
S'R'
sbsg49
(irule
FeatureMatrix
p2005
(dp2006
g28
(lp2007
(I01
g655
tp2008
asg22
Nsbsg22
Nsba(irule
Rule
p2009
(dp2010
g15
(irule
Guard
p2011
(dp2012
g18
I00
sg19
(lp2013
(irule
ConstantPhoneme
p2014
(dp2015
S'p'
Vd
sba(irule
FeatureMatrix
p2016
(dp2017
g28
(lp2018
sg22
Nsbasg21
I00
sg22
Nsg23
I00
sg24
S'L'
sbsg25
(irule
FeatureMatrix
p2019
(dp2020
g28
(lp2021
(I00
g607
tp2022
a(I01
g548
tp2023
a(I00
g550
tp2024
asg22
Nsbsg35
(irule
Guard
p2025
(dp2026
g18
I00
sg19
(lp2027
sg21
I00
sg22
Nsg23
I00
sg24
S'R'
sbsg49
(irule
FeatureMatrix
p2028
(dp2029
g28
(lp2030
sg22
Nsbsg22
Nsba(irule
Rule
p2031
(dp2032
g15
(irule
Guard
p2033
(dp2034
g18
I00
sg19
(lp2035
(irule
ConstantPhoneme
p2036
(dp2037
S'p'
Vd
sba(irule
FeatureMatrix
p2038
(dp2039
g28
(lp2040
sg22
Nsbasg21
I00
sg22
Nsg23
I00
sg24
S'L'
sbsg25
(irule
FeatureMatrix
p2041
(dp2042
g28
(lp2043
(I01
g548
tp2044
a(I00
g550
tp2045
asg22
Nsbsg35
(irule
Guard
p2046
(dp2047
g18
I00
sg19
(lp2048
sg21
I00
sg22
Nsg23
I00
sg24
S'R'
sbsg49
(irule
FeatureMatrix
p2049
(dp2050
g28
(lp2051
(I00
g939
tp2052
asg22
Nsbsg22
Nsba(irule
Rule
p2053
(dp2054
g15
(irule
Guard
p2055
(dp2056
g18
I00
sg19
(lp2057
(irule
FeatureMatrix
p2058
(dp2059
g28
(lp2060
(I00
g1025
tp2061
a(I00
g831
tp2062
a(I01
g675
tp2063
asg22
Nsbasg21
I00
sg22
Nsg23
I00
sg24
S'L'
sbsg25
(irule
FeatureMatrix
p2064
(dp2065
g28
(lp2066
(I01
g548
tp2067
a(I00
g550
tp2068
asg22
Nsbsg35
(irule
Guard
p2069
(dp2070
g18
I00
sg19
(lp2071
sg21
I00
sg22
Nsg23
I00
sg24
S'R'
sbsg49
(irule
FeatureMatrix
p2072
(dp2073
g28
(lp2074
sg22
Nsbsg22
Nsba(irule
Rule
p2075
(dp2076
g15
(irule
Guard
p2077
(dp2078
g18
I00
sg19
(lp2079
(irule
ConstantPhoneme
p2080
(dp2081
S'p'
Vd
sbasg21
I00
sg22
Nsg23
I00
sg24
S'L'
sbsg25
(irule
FeatureMatrix
p2082
(dp2083
g28
(lp2084
(I01
g548
tp2085
a(I00
g550
tp2086
asg22
Nsbsg35
(irule
Guard
p2087
(dp2088
g18
I00
sg19
(lp2089
sg21
I00
sg22
Nsg23
I00
sg24
S'R'
sbsg49
(irule
FeatureMatrix
p2090
(dp2091
g28
(lp2092
(I00
g986
tp2093
a(I01
g655
tp2094
asg22
Nsbsg22
Nsba(irule
Rule
p2095
(dp2096
g15
(irule
Guard
p2097
(dp2098
g18
I00
sg19
(lp2099
(irule
ConstantPhoneme
p2100
(dp2101
S'p'
Vd
sba(irule
FeatureMatrix
p2102
(dp2103
g28
(lp2104
sg22
Nsbasg21
I00
sg22
Nsg23
I00
sg24
S'L'
sbsg25
(irule
FeatureMatrix
p2105
(dp2106
g28
(lp2107
(I01
g548
tp2108
a(I00
g550
tp2109
asg22
Nsbsg35
(irule
Guard
p2110
(dp2111
g18
I00
sg19
(lp2112
sg21
I00
sg22
Nsg23
I00
sg24
S'R'
sbsg49
(irule
FeatureMatrix
p2113
(dp2114
g28
(lp2115
(I00
g986
tp2116
asg22
Nsbsg22
Nsba(irule
Rule
p2117
(dp2118
g15
(irule
Guard
p2119
(dp2120
g18
I00
sg19
(lp2121
(irule
ConstantPhoneme
p2122
(dp2123
S'p'
Vd
sba(irule
FeatureMatrix
p2124
(dp2125
g28
(lp2126
(I00
g635
tp2127
asg22
Nsbasg21
I00
sg22
Nsg23
I00
sg24
S'L'
sbsg25
(irule
FeatureMatrix
p2128
(dp2129
g28
(lp2130
(I01
g548
tp2131
a(I00
g550
tp2132
asg22
Nsbsg35
(irule
Guard
p2133
(dp2134
g18
I00
sg19
(lp2135
sg21
I00
sg22
Nsg23
I00
sg24
S'R'
sbsg49
(irule
FeatureMatrix
p2136
(dp2137
g28
(lp2138
sg22
Nsbsg22
Nsba(irule
Rule
p2139
(dp2140
g15
(irule
Guard
p2141
(dp2142
g18
I00
sg19
(lp2143
(irule
ConstantPhoneme
p2144
(dp2145
S'p'
Vd
sba(irule
FeatureMatrix
p2146
(dp2147
g28
(lp2148
(I00
g939
tp2149
asg22
Nsbasg21
I00
sg22
Nsg23
I00
sg24
S'L'
sbsg25
(irule
FeatureMatrix
p2150
(dp2151
g28
(lp2152
(I01
g548
tp2153
a(I00
g550
tp2154
asg22
Nsbsg35
(irule
Guard
p2155
(dp2156
g18
I00
sg19
(lp2157
sg21
I00
sg22
Nsg23
I00
sg24
S'R'
sbsg49
(irule
FeatureMatrix
p2158
(dp2159
g28
(lp2160
sg22
Nsbsg22
Nsba(irule
Rule
p2161
(dp2162
g15
(irule
Guard
p2163
(dp2164
g18
I00
sg19
(lp2165
(irule
FeatureMatrix
p2166
(dp2167
g28
(lp2168
(I00
g870
tp2169
a(I01
g675
tp2170
a(I01
g655
tp2171
asg22
Nsbasg21
I00
sg22
Nsg23
I00
sg24
S'L'
sbsg25
(irule
FeatureMatrix
p2172
(dp2173
g28
(lp2174
(I01
g548
tp2175
a(I00
g550
tp2176
asg22
Nsbsg35
(irule
Guard
p2177
(dp2178
g18
I00
sg19
(lp2179
sg21
I00
sg22
Nsg23
I00
sg24
S'R'
sbsg49
(irule
FeatureMatrix
p2180
(dp2181
g28
(lp2182
sg22
Nsbsg22
Nsba(irule
Rule
p2183
(dp2184
g15
(irule
Guard
p2185
(dp2186
g18
I00
sg19
(lp2187
(irule
ConstantPhoneme
p2188
(dp2189
S'p'
Vd
sba(irule
FeatureMatrix
p2190
(dp2191
g28
(lp2192
sg22
Nsbasg21
I00
sg22
Nsg23
I00
sg24
S'L'
sbsg25
(irule
FeatureMatrix
p2193
(dp2194
g28
(lp2195
(I01
g548
tp2196
a(I00
g550
tp2197
asg22
Nsbsg35
(irule
Guard
p2198
(dp2199
g18
I00
sg19
(lp2200
sg21
I00
sg22
Nsg23
I00
sg24
S'R'
sbsg49
(irule
FeatureMatrix
p2201
(dp2202
g28
(lp2203
(I00
g607
tp2204
asg22
Nsbsg22
Nsba(irule
Rule
p2205
(dp2206
g15
(irule
Guard
p2207
(dp2208
g18
I00
sg19
(lp2209
(irule
ConstantPhoneme
p2210
(dp2211
S'p'
Vd
sbasg21
I00
sg22
Nsg23
I00
sg24
S'L'
sbsg25
(irule
FeatureMatrix
p2212
(dp2213
g28
(lp2214
(I00
g986
tp2215
a(I01
g548
tp2216
a(I00
g550
tp2217
asg22
Nsbsg35
(irule
Guard
p2218
(dp2219
g18
I00
sg19
(lp2220
sg21
I00
sg22
Nsg23
I00
sg24
S'R'
sbsg49
(irule
FeatureMatrix
p2221
(dp2222
g28
(lp2223
(I00
g986
tp2224
asg22
Nsbsg22
Nsba(irule
Rule
p2225
(dp2226
g15
(irule
Guard
p2227
(dp2228
g18
I00
sg19
(lp2229
(irule
ConstantPhoneme
p2230
(dp2231
S'p'
Vd
sba(irule
FeatureMatrix
p2232
(dp2233
g28
(lp2234
(I00
g607
tp2235
asg22
Nsbasg21
I00
sg22
Nsg23
I00
sg24
S'L'
sbsg25
(irule
FeatureMatrix
p2236
(dp2237
g28
(lp2238
(I01
g548
tp2239
a(I00
g550
tp2240
asg22
Nsbsg35
(irule
Guard
p2241
(dp2242
g18
I00
sg19
(lp2243
sg21
I00
sg22
Nsg23
I00
sg24
S'R'
sbsg49
(irule
FeatureMatrix
p2244
(dp2245
g28
(lp2246
sg22
Nsbsg22
Nsba(irule
Rule
p2247
(dp2248
g15
(irule
Guard
p2249
(dp2250
g18
I00
sg19
(lp2251
(irule
ConstantPhoneme
p2252
(dp2253
S'p'
Vd
sba(irule
FeatureMatrix
p2254
(dp2255
g28
(lp2256
sg22
Nsbasg21
I00
sg22
Nsg23
I00
sg24
S'L'
sbsg25
(irule
FeatureMatrix
p2257
(dp2258
g28
(lp2259
(I01
g548
tp2260
a(I00
g550
tp2261
asg22
Nsbsg35
(irule
Guard
p2262
(dp2263
g18
I00
sg19
(lp2264
sg21
I00
sg22
Nsg23
I00
sg24
S'R'
sbsg49
(irule
FeatureMatrix
p2265
(dp2266
g28
(lp2267
(I01
g655
tp2268
asg22
Nsbsg22
Nsba(irule
Rule
p2269
(dp2270
g15
(irule
Guard
p2271
(dp2272
g18
I00
sg19
(lp2273
(irule
ConstantPhoneme
p2274
(dp2275
S'p'
Vd
sba(irule
FeatureMatrix
p2276
(dp2277
g28
(lp2278
sg22
Nsbasg21
I00
sg22
Nsg23
I00
sg24
S'L'
sbsg25
(irule
FeatureMatrix
p2279
(dp2280
g28
(lp2281
(I01
g548
tp2282
a(I00
g550
tp2283
asg22
Nsbsg35
(irule
Guard
p2284
(dp2285
g18
I00
sg19
(lp2286
sg21
I00
sg22
Nsg23
I00
sg24
S'R'
sbsg49
(irule
FeatureMatrix
p2287
(dp2288
g28
(lp2289
(I00
g548
tp2290
asg22
Nsbsg22
Nsba(irule
Rule
p2291
(dp2292
g15
(irule
Guard
p2293
(dp2294
g18
I00
sg19
(lp2295
(irule
ConstantPhoneme
p2296
(dp2297
S'p'
Vd
sba(irule
FeatureMatrix
p2298
(dp2299
g28
(lp2300
(I00
g986
tp2301
asg22
Nsbasg21
I00
sg22
Nsg23
I00
sg24
S'L'
sbsg25
(irule
FeatureMatrix
p2302
(dp2303
g28
(lp2304
(I01
g548
tp2305
a(I00
g550
tp2306
asg22
Nsbsg35
(irule
Guard
p2307
(dp2308
g18
I00
sg19
(lp2309
sg21
I00
sg22
Nsg23
I00
sg24
S'R'
sbsg49
(irule
FeatureMatrix
p2310
(dp2311
g28
(lp2312
sg22
Nsbsg22
Nsba(irule
Rule
p2313
(dp2314
g15
(irule
Guard
p2315
(dp2316
g18
I00
sg19
(lp2317
(irule
ConstantPhoneme
p2318
(dp2319
S'p'
Vd
sba(irule
FeatureMatrix
p2320
(dp2321
g28
(lp2322
sg22
Nsbasg21
I00
sg22
Nsg23
I00
sg24
S'L'
sbsg25
(irule
FeatureMatrix
p2323
(dp2324
g28
(lp2325
(I00
g831
tp2326
a(I01
g548
tp2327
a(I00
g550
tp2328
asg22
Nsbsg35
(irule
Guard
p2329
(dp2330
g18
I00
sg19
(lp2331
sg21
I00
sg22
Nsg23
I00
sg24
S'R'
sbsg49
(irule
FeatureMatrix
p2332
(dp2333
g28
(lp2334
sg22
Nsbsg22
Nsba(irule
Rule
p2335
(dp2336
g15
(irule
Guard
p2337
(dp2338
g18
I00
sg19
(lp2339
(irule
ConstantPhoneme
p2340
(dp2341
S'p'
Vd
sba(irule
FeatureMatrix
p2342
(dp2343
g28
(lp2344
sg22
Nsbasg21
I00
sg22
Nsg23
I00
sg24
S'L'
sbsg25
(irule
FeatureMatrix
p2345
(dp2346
g28
(lp2347
(I00
g939
tp2348
a(I01
g548
tp2349
a(I00
g550
tp2350
asg22
Nsbsg35
(irule
Guard
p2351
(dp2352
g18
I00
sg19
(lp2353
sg21
I00
sg22
Nsg23
I00
sg24
S'R'
sbsg49
(irule
FeatureMatrix
p2354
(dp2355
g28
(lp2356
sg22
Nsbsg22
Nsba(irule
Rule
p2357
(dp2358
g15
(irule
Guard
p2359
(dp2360
g18
I00
sg19
(lp2361
(irule
ConstantPhoneme
p2362
(dp2363
S'p'
Vd
sba(irule
FeatureMatrix
p2364
(dp2365
g28
(lp2366
sg22
Nsbasg21
I00
sg22
Nsg23
I00
sg24
S'L'
sbsg25
(irule
FeatureMatrix
p2367
(dp2368
g28
(lp2369
(I01
g548
tp2370
a(I00
g550
tp2371
asg22
Nsbsg35
(irule
Guard
p2372
(dp2373
g18
I00
sg19
(lp2374
sg21
I00
sg22
Nsg23
I00
sg24
S'R'
sbsg49
(irule
FeatureMatrix
p2375
(dp2376
g28
(lp2377
(I01
g746
tp2378
asg22
Nsbsg22
Nsba(irule
Rule
p2379
(dp2380
g15
(irule
Guard
p2381
(dp2382
g18
I00
sg19
(lp2383
(irule
ConstantPhoneme
p2384
(dp2385
S'p'
Vd
sbasg21
I00
sg22
Nsg23
I00
sg24
S'L'
sbsg25
(irule
FeatureMatrix
p2386
(dp2387
g28
(lp2388
(I01
g548
tp2389
a(I00
g550
tp2390
asg22
Nsbsg35
(irule
Guard
p2391
(dp2392
g18
I00
sg19
(lp2393
sg21
I00
sg22
Nsg23
I00
sg24
S'R'
sbsg49
(irule
FeatureMatrix
p2394
(dp2395
g28
(lp2396
(I00
g635
tp2397
a(I00
g733
tp2398
asg22
Nsbsg22
Nsba(irule
Rule
p2399
(dp2400
g15
(irule
Guard
p2401
(dp2402
g18
I00
sg19
(lp2403
(irule
ConstantPhoneme
p2404
(dp2405
S'p'
Vd
sbasg21
I00
sg22
Nsg23
I00
sg24
S'L'
sbsg25
(irule
FeatureMatrix
p2406
(dp2407
g28
(lp2408
(I00
g986
tp2409
a(I01
g548
tp2410
a(I00
g550
tp2411
asg22
Nsbsg35
(irule
Guard
p2412
(dp2413
g18
I00
sg19
(lp2414
sg21
I00
sg22
Nsg23
I00
sg24
S'R'
sbsg49
(irule
FeatureMatrix
p2415
(dp2416
g28
(lp2417
(I00
g548
tp2418
asg22
Nsbsg22
Nsba(irule
Rule
p2419
(dp2420
g15
(irule
Guard
p2421
(dp2422
g18
I00
sg19
(lp2423
(irule
ConstantPhoneme
p2424
(dp2425
S'p'
Vd
sba(irule
FeatureMatrix
p2426
(dp2427
g28
(lp2428
sg22
Nsbasg21
I00
sg22
Nsg23
I00
sg24
S'L'
sbsg25
(irule
FeatureMatrix
p2429
(dp2430
g28
(lp2431
(I01
g1025
tp2432
a(I01
g548
tp2433
a(I00
g550
tp2434
asg22
Nsbsg35
(irule
Guard
p2435
(dp2436
g18
I00
sg19
(lp2437
sg21
I00
sg22
Nsg23
I00
sg24
S'R'
sbsg49
(irule
FeatureMatrix
p2438
(dp2439
g28
(lp2440
sg22
Nsbsg22
Nsba(irule
Rule
p2441
(dp2442
g15
(irule
Guard
p2443
(dp2444
g18
I00
sg19
(lp2445
(irule
ConstantPhoneme
p2446
(dp2447
S'p'
Vd
sbasg21
I00
sg22
Nsg23
I00
sg24
S'L'
sbsg25
(irule
FeatureMatrix
p2448
(dp2449
g28
(lp2450
(I01
g548
tp2451
a(I00
g550
tp2452
a(I00
g576
tp2453
asg22
Nsbsg35
(irule
Guard
p2454
(dp2455
g18
I00
sg19
(lp2456
sg21
I00
sg22
Nsg23
I00
sg24
S'R'
sbsg49
(irule
FeatureMatrix
p2457
(dp2458
g28
(lp2459
(I00
g576
tp2460
asg22
Nsbsg22
Nsba(irule
Rule
p2461
(dp2462
g15
(irule
Guard
p2463
(dp2464
g18
I00
sg19
(lp2465
(irule
ConstantPhoneme
p2466
(dp2467
S'p'
Vd
sbasg21
I00
sg22
Nsg23
I00
sg24
S'L'
sbsg25
(irule
FeatureMatrix
p2468
(dp2469
g28
(lp2470
(I01
g548
tp2471
a(I00
g550
tp2472
asg22
Nsbsg35
(irule
Guard
p2473
(dp2474
g18
I00
sg19
(lp2475
sg21
I00
sg22
Nsg23
I00
sg24
S'R'
sbsg49
(irule
FeatureMatrix
p2476
(dp2477
g28
(lp2478
(I01
g773
tp2479
a(I00
g576
tp2480
asg22
Nsbsg22
Nsba(irule
Rule
p2481
(dp2482
g15
(irule
Guard
p2483
(dp2484
g18
I00
sg19
(lp2485
(irule
ConstantPhoneme
p2486
(dp2487
S'p'
Vd
sbasg21
I00
sg22
Nsg23
I00
sg24
S'L'
sbsg25
(irule
FeatureMatrix
p2488
(dp2489
g28
(lp2490
(I01
g548
tp2491
a(I01
g746
tp2492
a(I00
g550
tp2493
asg22
Nsbsg35
(irule
Guard
p2494
(dp2495
g18
I00
sg19
(lp2496
sg21
I00
sg22
Nsg23
I00
sg24
S'R'
sbsg49
(irule
FeatureMatrix
p2497
(dp2498
g28
(lp2499
(I00
g635
tp2500
asg22
Nsbsg22
Nsba(irule
Rule
p2501
(dp2502
g15
(irule
Guard
p2503
(dp2504
g18
I00
sg19
(lp2505
(irule
ConstantPhoneme
p2506
(dp2507
S'p'
Vd
sbasg21
I00
sg22
Nsg23
I00
sg24
S'L'
sbsg25
(irule
FeatureMatrix
p2508
(dp2509
g28
(lp2510
(I01
g548
tp2511
a(I00
g550
tp2512
asg22
Nsbsg35
(irule
Guard
p2513
(dp2514
g18
I00
sg19
(lp2515
sg21
I00
sg22
Nsg23
I00
sg24
S'R'
sbsg49
(irule
FeatureMatrix
p2516
(dp2517
g28
(lp2518
(I00
g548
tp2519
a(I01
g655
tp2520
asg22
Nsbsg22
Nsba(irule
Rule
p2521
(dp2522
g15
(irule
Guard
p2523
(dp2524
g18
I00
sg19
(lp2525
(irule
ConstantPhoneme
p2526
(dp2527
S'p'
Vd
sba(irule
FeatureMatrix
p2528
(dp2529
g28
(lp2530
sg22
Nsbasg21
I00
sg22
Nsg23
I00
sg24
S'L'
sbsg25
(irule
FeatureMatrix
p2531
(dp2532
g28
(lp2533
(I01
g870
tp2534
a(I01
g548
tp2535
a(I00
g550
tp2536
asg22
Nsbsg35
(irule
Guard
p2537
(dp2538
g18
I00
sg19
(lp2539
sg21
I00
sg22
Nsg23
I00
sg24
S'R'
sbsg49
(irule
FeatureMatrix
p2540
(dp2541
g28
(lp2542
sg22
Nsbsg22
Nsba(irule
Rule
p2543
(dp2544
g15
(irule
Guard
p2545
(dp2546
g18
I00
sg19
(lp2547
(irule
ConstantPhoneme
p2548
(dp2549
S'p'
Vd
sba(irule
FeatureMatrix
p2550
(dp2551
g28
(lp2552
(I01
g870
tp2553
asg22
Nsbasg21
I00
sg22
Nsg23
I00
sg24
S'L'
sbsg25
(irule
FeatureMatrix
p2554
(dp2555
g28
(lp2556
(I01
g548
tp2557
a(I00
g550
tp2558
asg22
Nsbsg35
(irule
Guard
p2559
(dp2560
g18
I00
sg19
(lp2561
sg21
I00
sg22
Nsg23
I00
sg24
S'R'
sbsg49
(irule
FeatureMatrix
p2562
(dp2563
g28
(lp2564
sg22
Nsbsg22
Nsba(irule
Rule
p2565
(dp2566
g15
(irule
Guard
p2567
(dp2568
g18
I00
sg19
(lp2569
(irule
ConstantPhoneme
p2570
(dp2571
S'p'
Vd
sba(irule
FeatureMatrix
p2572
(dp2573
g28
(lp2574
sg22
Nsbasg21
I00
sg22
Nsg23
I00
sg24
S'L'
sbsg25
(irule
FeatureMatrix
p2575
(dp2576
g28
(lp2577
(I01
g548
tp2578
a(I00
g550
tp2579
asg22
Nsbsg35
(irule
Guard
p2580
(dp2581
g18
I00
sg19
(lp2582
sg21
I00
sg22
Nsg23
I00
sg24
S'R'
sbsg49
(irule
FeatureMatrix
p2583
(dp2584
g28
(lp2585
(I00
g675
tp2586
asg22
Nsbsg22
Nsba(irule
Rule
p2587
(dp2588
g15
(irule
Guard
p2589
(dp2590
g18
I00
sg19
(lp2591
(irule
ConstantPhoneme
p2592
(dp2593
S'p'
Vd
sbasg21
I00
sg22
Nsg23
I00
sg24
S'L'
sbsg25
(irule
FeatureMatrix
p2594
(dp2595
g28
(lp2596
(I01
g548
tp2597
a(I00
g550
tp2598
asg22
Nsbsg35
(irule
Guard
p2599
(dp2600
g18
I00
sg19
(lp2601
sg21
I00
sg22
Nsg23
I00
sg24
S'R'
sbsg49
(irule
FeatureMatrix
p2602
(dp2603
g28
(lp2604
(I00
g548
tp2605
a(I00
g675
tp2606
asg22
Nsbsg22
Nsba(irule
Rule
p2607
(dp2608
g15
(irule
Guard
p2609
(dp2610
g18
I00
sg19
(lp2611
(irule
ConstantPhoneme
p2612
(dp2613
S'p'
Vd
sbasg21
I00
sg22
Nsg23
I00
sg24
S'L'
sbsg25
(irule
FeatureMatrix
p2614
(dp2615
g28
(lp2616
(I00
g733
tp2617
a(I01
g548
tp2618
a(I00
g550
tp2619
asg22
Nsbsg35
(irule
Guard
p2620
(dp2621
g18
I00
sg19
(lp2622
sg21
I00
sg22
Nsg23
I00
sg24
S'R'
sbsg49
(irule
FeatureMatrix
p2623
(dp2624
g28
(lp2625
(I00
g635
tp2626
asg22
Nsbsg22
Nsbaa(lp2627
(irule
Rule
p2628
(dp2629
g15
(irule
Guard
p2630
(dp2631
g18
I00
sg19
(lp2632
(irule
FeatureMatrix
p2633
(dp2634
g28
(lp2635
sg22
V[  ]
p2636
sba(irule
FeatureMatrix
p2637
(dp2638
g28
(lp2639
(I01
S'low'
tp2640
asg22
V[ +low ]
p2641
sbasg21
I00
sg22
V[ +low ] [  ]
p2642
sg23
I00
sg24
S'L'
sbsg25
(irule
OffsetSpecification
p2643
(dp2644
g221
I-2
sbsg35
(irule
Guard
p2645
(dp2646
g18
I00
sg19
(lp2647
sg21
I00
sg22
V
sg23
I00
sg24
S'R'
sbsg49
(irule
ConstantPhoneme
p2648
(dp2649
S'p'
Ve
sbsg22
Ve ---> -2 / [ +low ] [  ] _ 
p2650
sba(irule
Rule
p2651
(dp2652
g15
(irule
Guard
p2653
(dp2654
g18
I00
sg19
(lp2655
(irule
FeatureMatrix
p2656
(dp2657
g28
(lp2658
sg22
Nsba(irule
FeatureMatrix
p2659
(dp2660
g28
(lp2661
(I00
S'long'
p2662
tp2663
asg22
Nsbasg21
I00
sg22
Nsg23
I00
sg24
S'L'
sbsg25
(irule
OffsetSpecification
p2664
(dp2665
g221
I-2
sbsg35
(irule
Guard
p2666
(dp2667
g18
I00
sg19
(lp2668
sg21
I00
sg22
Nsg23
I00
sg24
S'R'
sbsg49
(irule
ConstantPhoneme
p2669
(dp2670
S'p'
Ve
sbsg22
Nsba(irule
Rule
p2671
(dp2672
g15
(irule
Guard
p2673
(dp2674
g18
I00
sg19
(lp2675
(irule
FeatureMatrix
p2676
(dp2677
g28
(lp2678
sg22
Nsba(irule
FeatureMatrix
p2679
(dp2680
g28
(lp2681
(I01
S'back'
p2682
tp2683
asg22
Nsbasg21
I00
sg22
Nsg23
I00
sg24
S'L'
sbsg25
(irule
OffsetSpecification
p2684
(dp2685
g221
I-2
sbsg35
(irule
Guard
p2686
(dp2687
g18
I00
sg19
(lp2688
sg21
I00
sg22
Nsg23
I00
sg24
S'R'
sbsg49
(irule
ConstantPhoneme
p2689
(dp2690
S'p'
Ve
sbsg22
Nsba(irule
Rule
p2691
(dp2692
g15
(irule
Guard
p2693
(dp2694
g18
I00
sg19
(lp2695
(irule
FeatureMatrix
p2696
(dp2697
g28
(lp2698
sg22
Nsba(irule
FeatureMatrix
p2699
(dp2700
g28
(lp2701
(I00
g2662
tp2702
a(I01
S'continuant'
p2703
tp2704
asg22
Nsbasg21
I00
sg22
Nsg23
I00
sg24
S'L'
sbsg25
(irule
OffsetSpecification
p2705
(dp2706
g221
I-2
sbsg35
(irule
Guard
p2707
(dp2708
g18
I00
sg19
(lp2709
sg21
I00
sg22
Nsg23
I00
sg24
S'R'
sbsg49
(irule
ConstantPhoneme
p2710
(dp2711
S'p'
Ve
sbsg22
Nsba(irule
Rule
p2712
(dp2713
g15
(irule
Guard
p2714
(dp2715
g18
I00
sg19
(lp2716
(irule
FeatureMatrix
p2717
(dp2718
g28
(lp2719
sg22
Nsba(irule
FeatureMatrix
p2720
(dp2721
g28
(lp2722
(I00
g2662
tp2723
a(I00
S'high'
p2724
tp2725
asg22
Nsbasg21
I00
sg22
Nsg23
I00
sg24
S'L'
sbsg25
(irule
OffsetSpecification
p2726
(dp2727
g221
I-2
sbsg35
(irule
Guard
p2728
(dp2729
g18
I00
sg19
(lp2730
sg21
I00
sg22
Nsg23
I00
sg24
S'R'
sbsg49
(irule
ConstantPhoneme
p2731
(dp2732
S'p'
Ve
sbsg22
Nsba(irule
Rule
p2733
(dp2734
g15
(irule
Guard
p2735
(dp2736
g18
I00
sg19
(lp2737
(irule
FeatureMatrix
p2738
(dp2739
g28
(lp2740
sg22
Nsba(irule
FeatureMatrix
p2741
(dp2742
g28
(lp2743
(I00
g2662
tp2744
asg22
Nsbasg21
I00
sg22
Nsg23
I00
sg24
S'L'
sbsg25
(irule
OffsetSpecification
p2745
(dp2746
g221
I-2
sbsg35
(irule
Guard
p2747
(dp2748
g18
I00
sg19
(lp2749
(irule
FeatureMatrix
p2750
(dp2751
g28
(lp2752
(I00
S'vowel'
p2753
tp2754
asg22
Nsbasg21
I00
sg22
Nsg23
I00
sg24
S'R'
sbsg49
(irule
FeatureMatrix
p2755
(dp2756
g28
(lp2757
sg22
Nsbsg22
Nsba(irule
Rule
p2758
(dp2759
g15
(irule
Guard
p2760
(dp2761
g18
I00
sg19
(lp2762
(irule
FeatureMatrix
p2763
(dp2764
g28
(lp2765
(I00
S'tense'
p2766
tp2767
asg22
Nsba(irule
FeatureMatrix
p2768
(dp2769
g28
(lp2770
(I00
g2662
tp2771
asg22
Nsbasg21
I00
sg22
Nsg23
I00
sg24
S'L'
sbsg25
(irule
OffsetSpecification
p2772
(dp2773
g221
I-2
sbsg35
(irule
Guard
p2774
(dp2775
g18
I00
sg19
(lp2776
(irule
FeatureMatrix
p2777
(dp2778
g28
(lp2779
sg22
Nsbasg21
I00
sg22
Nsg23
I00
sg24
S'R'
sbsg49
(irule
FeatureMatrix
p2780
(dp2781
g28
(lp2782
sg22
Nsbsg22
Nsba(irule
Rule
p2783
(dp2784
g15
(irule
Guard
p2785
(dp2786
g18
I00
sg19
(lp2787
(irule
FeatureMatrix
p2788
(dp2789
g28
(lp2790
(I00
g2682
tp2791
asg22
Nsba(irule
FeatureMatrix
p2792
(dp2793
g28
(lp2794
(I00
g2662
tp2795
asg22
Nsbasg21
I00
sg22
Nsg23
I00
sg24
S'L'
sbsg25
(irule
OffsetSpecification
p2796
(dp2797
g221
I-2
sbsg35
(irule
Guard
p2798
(dp2799
g18
I00
sg19
(lp2800
sg21
I00
sg22
Nsg23
I00
sg24
S'R'
sbsg49
(irule
ConstantPhoneme
p2801
(dp2802
S'p'
Ve
sbsg22
Nsba(irule
Rule
p2803
(dp2804
g15
(irule
Guard
p2805
(dp2806
g18
I00
sg19
(lp2807
(irule
FeatureMatrix
p2808
(dp2809
g28
(lp2810
sg22
Nsba(irule
FeatureMatrix
p2811
(dp2812
g28
(lp2813
(I00
g2662
tp2814
asg22
Nsbasg21
I00
sg22
Nsg23
I00
sg24
S'L'
sbsg25
(irule
OffsetSpecification
p2815
(dp2816
g221
I-2
sbsg35
(irule
Guard
p2817
(dp2818
g18
I00
sg19
(lp2819
(irule
FeatureMatrix
p2820
(dp2821
g28
(lp2822
sg22
Nsbasg21
I00
sg22
Nsg23
I00
sg24
S'R'
sbsg49
(irule
FeatureMatrix
p2823
(dp2824
g28
(lp2825
(I01
g2766
tp2826
asg22
Nsbsg22
Nsba(irule
Rule
p2827
(dp2828
g15
(irule
Guard
p2829
(dp2830
g18
I00
sg19
(lp2831
(irule
FeatureMatrix
p2832
(dp2833
g28
(lp2834
sg22
Nsba(irule
FeatureMatrix
p2835
(dp2836
g28
(lp2837
(I00
g2662
tp2838
a(I00
S'lateral'
p2839
tp2840
asg22
Nsbasg21
I00
sg22
Nsg23
I00
sg24
S'L'
sbsg25
(irule
OffsetSpecification
p2841
(dp2842
g221
I-2
sbsg35
(irule
Guard
p2843
(dp2844
g18
I00
sg19
(lp2845
sg21
I00
sg22
Nsg23
I00
sg24
S'R'
sbsg49
(irule
ConstantPhoneme
p2846
(dp2847
S'p'
Ve
sbsg22
Nsba(irule
Rule
p2848
(dp2849
g15
(irule
Guard
p2850
(dp2851
g18
I00
sg19
(lp2852
(irule
FeatureMatrix
p2853
(dp2854
g28
(lp2855
(I00
g2724
tp2856
asg22
Nsba(irule
FeatureMatrix
p2857
(dp2858
g28
(lp2859
(I00
g2662
tp2860
asg22
Nsbasg21
I00
sg22
Nsg23
I00
sg24
S'L'
sbsg25
(irule
OffsetSpecification
p2861
(dp2862
g221
I-2
sbsg35
(irule
Guard
p2863
(dp2864
g18
I00
sg19
(lp2865
sg21
I00
sg22
Nsg23
I00
sg24
S'R'
sbsg49
(irule
ConstantPhoneme
p2866
(dp2867
S'p'
Ve
sbsg22
Nsba(irule
Rule
p2868
(dp2869
g15
(irule
Guard
p2870
(dp2871
g18
I00
sg19
(lp2872
(irule
FeatureMatrix
p2873
(dp2874
g28
(lp2875
(I00
g2753
tp2876
asg22
Nsba(irule
FeatureMatrix
p2877
(dp2878
g28
(lp2879
(I00
g2662
tp2880
asg22
Nsbasg21
I00
sg22
Nsg23
I00
sg24
S'L'
sbsg25
(irule
OffsetSpecification
p2881
(dp2882
g221
I-2
sbsg35
(irule
Guard
p2883
(dp2884
g18
I00
sg19
(lp2885
(irule
FeatureMatrix
p2886
(dp2887
g28
(lp2888
sg22
Nsbasg21
I00
sg22
Nsg23
I00
sg24
S'R'
sbsg49
(irule
FeatureMatrix
p2889
(dp2890
g28
(lp2891
sg22
Nsbsg22
Nsba(irule
Rule
p2892
(dp2893
g15
(irule
Guard
p2894
(dp2895
g18
I00
sg19
(lp2896
(irule
FeatureMatrix
p2897
(dp2898
g28
(lp2899
sg22
Nsba(irule
FeatureMatrix
p2900
(dp2901
g28
(lp2902
(I00
g2662
tp2903
a(I01
g2766
tp2904
asg22
Nsbasg21
I00
sg22
Nsg23
I00
sg24
S'L'
sbsg25
(irule
OffsetSpecification
p2905
(dp2906
g221
I-2
sbsg35
(irule
Guard
p2907
(dp2908
g18
I00
sg19
(lp2909
(irule
FeatureMatrix
p2910
(dp2911
g28
(lp2912
sg22
Nsbasg21
I00
sg22
Nsg23
I00
sg24
S'R'
sbsg49
(irule
FeatureMatrix
p2913
(dp2914
g28
(lp2915
sg22
Nsbsg22
Nsba(irule
Rule
p2916
(dp2917
g15
(irule
Guard
p2918
(dp2919
g18
I00
sg19
(lp2920
(irule
FeatureMatrix
p2921
(dp2922
g28
(lp2923
sg22
Nsba(irule
FeatureMatrix
p2924
(dp2925
g28
(lp2926
(I00
g2662
tp2927
asg22
Nsbasg21
I00
sg22
Nsg23
I00
sg24
S'L'
sbsg25
(irule
OffsetSpecification
p2928
(dp2929
g221
I-2
sbsg35
(irule
Guard
p2930
(dp2931
g18
I00
sg19
(lp2932
(irule
FeatureMatrix
p2933
(dp2934
g28
(lp2935
sg22
Nsbasg21
I00
sg22
Nsg23
I00
sg24
S'R'
sbsg49
(irule
FeatureMatrix
p2936
(dp2937
g28
(lp2938
(I01
g2753
tp2939
asg22
Nsbsg22
Nsba(irule
Rule
p2940
(dp2941
g15
(irule
Guard
p2942
(dp2943
g18
I00
sg19
(lp2944
(irule
FeatureMatrix
p2945
(dp2946
g28
(lp2947
sg22
Nsba(irule
FeatureMatrix
p2948
(dp2949
g28
(lp2950
(I01
g2682
tp2951
asg22
Nsbasg21
I00
sg22
Nsg23
I00
sg24
S'L'
sbsg25
(irule
OffsetSpecification
p2952
(dp2953
g221
I-2
sbsg35
(irule
Guard
p2954
(dp2955
g18
I00
sg19
(lp2956
(irule
FeatureMatrix
p2957
(dp2958
g28
(lp2959
sg22
Nsbasg21
I00
sg22
Nsg23
I00
sg24
S'R'
sbsg49
(irule
ConstantPhoneme
p2960
(dp2961
S'p'
Ve
sbsg22
Nsba(irule
Rule
p2962
(dp2963
g15
(irule
Guard
p2964
(dp2965
g18
I00
sg19
(lp2966
(irule
FeatureMatrix
p2967
(dp2968
g28
(lp2969
sg22
Nsba(irule
FeatureMatrix
p2970
(dp2971
g28
(lp2972
(I00
g2662
tp2973
a(I00
S'nasal'
p2974
tp2975
asg22
Nsbasg21
I00
sg22
Nsg23
I00
sg24
S'L'
sbsg25
(irule
OffsetSpecification
p2976
(dp2977
g221
I-2
sbsg35
(irule
Guard
p2978
(dp2979
g18
I00
sg19
(lp2980
sg21
I00
sg22
Nsg23
I00
sg24
S'R'
sbsg49
(irule
ConstantPhoneme
p2981
(dp2982
S'p'
Ve
sbsg22
Nsba(irule
Rule
p2983
(dp2984
g15
(irule
Guard
p2985
(dp2986
g18
I00
sg19
(lp2987
(irule
FeatureMatrix
p2988
(dp2989
g28
(lp2990
sg22
Nsba(irule
FeatureMatrix
p2991
(dp2992
g28
(lp2993
(I00
g2662
tp2994
a(I01
S'sonorant'
p2995
tp2996
asg22
Nsbasg21
I00
sg22
Nsg23
I00
sg24
S'L'
sbsg25
(irule
OffsetSpecification
p2997
(dp2998
g221
I-2
sbsg35
(irule
Guard
p2999
(dp3000
g18
I00
sg19
(lp3001
sg21
I00
sg22
Nsg23
I00
sg24
S'R'
sbsg49
(irule
ConstantPhoneme
p3002
(dp3003
S'p'
Ve
sbsg22
Nsba(irule
Rule
p3004
(dp3005
g15
(irule
Guard
p3006
(dp3007
g18
I00
sg19
(lp3008
(irule
FeatureMatrix
p3009
(dp3010
g28
(lp3011
(I00
g2766
tp3012
asg22
Nsba(irule
FeatureMatrix
p3013
(dp3014
g28
(lp3015
(I00
g2662
tp3016
asg22
Nsbasg21
I00
sg22
Nsg23
I00
sg24
S'L'
sbsg25
(irule
OffsetSpecification
p3017
(dp3018
g221
I-2
sbsg35
(irule
Guard
p3019
(dp3020
g18
I00
sg19
(lp3021
sg21
I00
sg22
Nsg23
I00
sg24
S'R'
sbsg49
(irule
ConstantPhoneme
p3022
(dp3023
S'p'
Ve
sbsg22
Nsba(irule
Rule
p3024
(dp3025
g15
(irule
Guard
p3026
(dp3027
g18
I00
sg19
(lp3028
(irule
FeatureMatrix
p3029
(dp3030
g28
(lp3031
sg22
Nsba(irule
FeatureMatrix
p3032
(dp3033
g28
(lp3034
(I00
g2662
tp3035
asg22
Nsbasg21
I00
sg22
Nsg23
I00
sg24
S'L'
sbsg25
(irule
OffsetSpecification
p3036
(dp3037
g221
I-2
sbsg35
(irule
Guard
p3038
(dp3039
g18
I00
sg19
(lp3040
(irule
FeatureMatrix
p3041
(dp3042
g28
(lp3043
(I01
g2974
tp3044
asg22
Nsbasg21
I00
sg22
Nsg23
I00
sg24
S'R'
sbsg49
(irule
FeatureMatrix
p3045
(dp3046
g28
(lp3047
sg22
Nsbsg22
Nsba(irule
Rule
p3048
(dp3049
g15
(irule
Guard
p3050
(dp3051
g18
I00
sg19
(lp3052
(irule
FeatureMatrix
p3053
(dp3054
g28
(lp3055
(I00
g2753
tp3056
asg22
Nsba(irule
FeatureMatrix
p3057
(dp3058
g28
(lp3059
(I00
g2662
tp3060
asg22
Nsbasg21
I00
sg22
Nsg23
I00
sg24
S'L'
sbsg25
(irule
OffsetSpecification
p3061
(dp3062
g221
I-2
sbsg35
(irule
Guard
p3063
(dp3064
g18
I00
sg19
(lp3065
sg21
I00
sg22
Nsg23
I00
sg24
S'R'
sbsg49
(irule
ConstantPhoneme
p3066
(dp3067
S'p'
Ve
sbsg22
Nsba(irule
Rule
p3068
(dp3069
g15
(irule
Guard
p3070
(dp3071
g18
I00
sg19
(lp3072
(irule
FeatureMatrix
p3073
(dp3074
g28
(lp3075
sg22
Nsba(irule
FeatureMatrix
p3076
(dp3077
g28
(lp3078
(I00
g2662
tp3079
asg22
Nsbasg21
I00
sg22
Nsg23
I00
sg24
S'L'
sbsg25
(irule
OffsetSpecification
p3080
(dp3081
g221
I-2
sbsg35
(irule
Guard
p3082
(dp3083
g18
I00
sg19
(lp3084
(irule
FeatureMatrix
p3085
(dp3086
g28
(lp3087
(I00
g2766
tp3088
asg22
Nsbasg21
I00
sg22
Nsg23
I00
sg24
S'R'
sbsg49
(irule
FeatureMatrix
p3089
(dp3090
g28
(lp3091
sg22
Nsbsg22
Nsba(irule
Rule
p3092
(dp3093
g15
(irule
Guard
p3094
(dp3095
g18
I00
sg19
(lp3096
(irule
FeatureMatrix
p3097
(dp3098
g28
(lp3099
(I00
g2766
tp3100
asg22
Nsba(irule
FeatureMatrix
p3101
(dp3102
g28
(lp3103
(I01
S'low'
p3104
tp3105
asg22
Nsbasg21
I00
sg22
Nsg23
I00
sg24
S'L'
sbsg25
(irule
OffsetSpecification
p3106
(dp3107
g221
I-2
sbsg35
(irule
Guard
p3108
(dp3109
g18
I00
sg19
(lp3110
sg21
I00
sg22
Nsg23
I00
sg24
S'R'
sbsg49
(irule
ConstantPhoneme
p3111
(dp3112
S'p'
Ve
sbsg22
Nsba(irule
Rule
p3113
(dp3114
g15
(irule
Guard
p3115
(dp3116
g18
I00
sg19
(lp3117
(irule
FeatureMatrix
p3118
(dp3119
g28
(lp3120
sg22
Nsba(irule
FeatureMatrix
p3121
(dp3122
g28
(lp3123
(I00
g2662
tp3124
a(I01
g2753
tp3125
asg22
Nsbasg21
I00
sg22
Nsg23
I00
sg24
S'L'
sbsg25
(irule
OffsetSpecification
p3126
(dp3127
g221
I-2
sbsg35
(irule
Guard
p3128
(dp3129
g18
I00
sg19
(lp3130
(irule
FeatureMatrix
p3131
(dp3132
g28
(lp3133
sg22
Nsbasg21
I00
sg22
Nsg23
I00
sg24
S'R'
sbsg49
(irule
FeatureMatrix
p3134
(dp3135
g28
(lp3136
sg22
Nsbsg22
Nsba(irule
Rule
p3137
(dp3138
g15
(irule
Guard
p3139
(dp3140
g18
I00
sg19
(lp3141
(irule
FeatureMatrix
p3142
(dp3143
g28
(lp3144
(I00
g2766
tp3145
asg22
Nsba(irule
FeatureMatrix
p3146
(dp3147
g28
(lp3148
(I01
g3104
tp3149
asg22
Nsbasg21
I00
sg22
Nsg23
I00
sg24
S'L'
sbsg25
(irule
OffsetSpecification
p3150
(dp3151
g221
I-2
sbsg35
(irule
Guard
p3152
(dp3153
g18
I00
sg19
(lp3154
(irule
FeatureMatrix
p3155
(dp3156
g28
(lp3157
sg22
Nsbasg21
I00
sg22
Nsg23
I00
sg24
S'R'
sbsg49
(irule
FeatureMatrix
p3158
(dp3159
g28
(lp3160
sg22
Nsbsg22
Nsba(irule
Rule
p3161
(dp3162
g15
(irule
Guard
p3163
(dp3164
g18
I00
sg19
(lp3165
(irule
FeatureMatrix
p3166
(dp3167
g28
(lp3168
sg22
Nsba(irule
FeatureMatrix
p3169
(dp3170
g28
(lp3171
(I00
g2662
tp3172
a(I00
S'sibilant'
p3173
tp3174
asg22
Nsbasg21
I00
sg22
Nsg23
I00
sg24
S'L'
sbsg25
(irule
OffsetSpecification
p3175
(dp3176
g221
I-2
sbsg35
(irule
Guard
p3177
(dp3178
g18
I00
sg19
(lp3179
sg21
I00
sg22
Nsg23
I00
sg24
S'R'
sbsg49
(irule
ConstantPhoneme
p3180
(dp3181
S'p'
Ve
sbsg22
Nsba(irule
Rule
p3182
(dp3183
g15
(irule
Guard
p3184
(dp3185
g18
I00
sg19
(lp3186
(irule
FeatureMatrix
p3187
(dp3188
g28
(lp3189
(I00
g3104
tp3190
asg22
Nsba(irule
FeatureMatrix
p3191
(dp3192
g28
(lp3193
(I00
g2662
tp3194
asg22
Nsbasg21
I00
sg22
Nsg23
I00
sg24
S'L'
sbsg25
(irule
OffsetSpecification
p3195
(dp3196
g221
I-2
sbsg35
(irule
Guard
p3197
(dp3198
g18
I00
sg19
(lp3199
sg21
I00
sg22
Nsg23
I00
sg24
S'R'
sbsg49
(irule
ConstantPhoneme
p3200
(dp3201
S'p'
Ve
sbsg22
Nsba(irule
Rule
p3202
(dp3203
g15
(irule
Guard
p3204
(dp3205
g18
I00
sg19
(lp3206
(irule
FeatureMatrix
p3207
(dp3208
g28
(lp3209
(I00
g2766
tp3210
asg22
Nsba(irule
FeatureMatrix
p3211
(dp3212
g28
(lp3213
(I01
g2682
tp3214
asg22
Nsbasg21
I00
sg22
Nsg23
I00
sg24
S'L'
sbsg25
(irule
OffsetSpecification
p3215
(dp3216
g221
I-2
sbsg35
(irule
Guard
p3217
(dp3218
g18
I00
sg19
(lp3219
sg21
I00
sg22
Nsg23
I00
sg24
S'R'
sbsg49
(irule
ConstantPhoneme
p3220
(dp3221
S'p'
Ve
sbsg22
Nsba(irule
Rule
p3222
(dp3223
g15
(irule
Guard
p3224
(dp3225
g18
I00
sg19
(lp3226
(irule
FeatureMatrix
p3227
(dp3228
g28
(lp3229
sg22
Nsba(irule
FeatureMatrix
p3230
(dp3231
g28
(lp3232
(I00
g2662
tp3233
asg22
Nsbasg21
I00
sg22
Nsg23
I00
sg24
S'L'
sbsg25
(irule
OffsetSpecification
p3234
(dp3235
g221
I-2
sbsg35
(irule
Guard
p3236
(dp3237
g18
I00
sg19
(lp3238
(irule
FeatureMatrix
p3239
(dp3240
g28
(lp3241
sg22
Nsbasg21
I00
sg22
Nsg23
I00
sg24
S'R'
sbsg49
(irule
ConstantPhoneme
p3242
(dp3243
S'p'
Ve
sbsg22
Nsba(irule
Rule
p3244
(dp3245
g15
(irule
Guard
p3246
(dp3247
g18
I00
sg19
(lp3248
(irule
FeatureMatrix
p3249
(dp3250
g28
(lp3251
sg22
Nsba(irule
FeatureMatrix
p3252
(dp3253
g28
(lp3254
(I00
S'anterior'
p3255
tp3256
a(I00
g2662
tp3257
asg22
Nsbasg21
I00
sg22
Nsg23
I00
sg24
S'L'
sbsg25
(irule
OffsetSpecification
p3258
(dp3259
g221
I-2
sbsg35
(irule
Guard
p3260
(dp3261
g18
I00
sg19
(lp3262
sg21
I00
sg22
Nsg23
I00
sg24
S'R'
sbsg49
(irule
ConstantPhoneme
p3263
(dp3264
S'p'
Ve
sbsg22
Nsba(irule
Rule
p3265
(dp3266
g15
(irule
Guard
p3267
(dp3268
g18
I00
sg19
(lp3269
(irule
FeatureMatrix
p3270
(dp3271
g28
(lp3272
(I00
g2766
tp3273
asg22
Nsba(irule
FeatureMatrix
p3274
(dp3275
g28
(lp3276
(I01
g2682
tp3277
asg22
Nsbasg21
I00
sg22
Nsg23
I00
sg24
S'L'
sbsg25
(irule
OffsetSpecification
p3278
(dp3279
g221
I-2
sbsg35
(irule
Guard
p3280
(dp3281
g18
I00
sg19
(lp3282
(irule
FeatureMatrix
p3283
(dp3284
g28
(lp3285
sg22
Nsbasg21
I00
sg22
Nsg23
I00
sg24
S'R'
sbsg49
(irule
FeatureMatrix
p3286
(dp3287
g28
(lp3288
sg22
Nsbsg22
Nsba(irule
Rule
p3289
(dp3290
g15
(irule
Guard
p3291
(dp3292
g18
I00
sg19
(lp3293
(irule
FeatureMatrix
p3294
(dp3295
g28
(lp3296
sg22
Nsba(irule
FeatureMatrix
p3297
(dp3298
g28
(lp3299
(I01
g2682
tp3300
asg22
Nsbasg21
I00
sg22
Nsg23
I00
sg24
S'L'
sbsg25
(irule
OffsetSpecification
p3301
(dp3302
g221
I-2
sbsg35
(irule
Guard
p3303
(dp3304
g18
I00
sg19
(lp3305
(irule
FeatureMatrix
p3306
(dp3307
g28
(lp3308
sg22
Nsbasg21
I00
sg22
Nsg23
I00
sg24
S'R'
sbsg49
(irule
FeatureMatrix
p3309
(dp3310
g28
(lp3311
(I00
S'coronal'
p3312
tp3313
asg22
Nsbsg22
Nsba(irule
Rule
p3314
(dp3315
g15
(irule
Guard
p3316
(dp3317
g18
I00
sg19
(lp3318
(irule
FeatureMatrix
p3319
(dp3320
g28
(lp3321
sg22
Nsba(irule
FeatureMatrix
p3322
(dp3323
g28
(lp3324
(I00
g2662
tp3325
asg22
Nsbasg21
I00
sg22
Nsg23
I00
sg24
S'L'
sbsg25
(irule
OffsetSpecification
p3326
(dp3327
g221
I-2
sbsg35
(irule
Guard
p3328
(dp3329
g18
I00
sg19
(lp3330
(irule
FeatureMatrix
p3331
(dp3332
g28
(lp3333
(I00
g2703
tp3334
asg22
Nsbasg21
I00
sg22
Nsg23
I00
sg24
S'R'
sbsg49
(irule
FeatureMatrix
p3335
(dp3336
g28
(lp3337
sg22
Nsbsg22
Nsba(irule
Rule
p3338
(dp3339
g15
(irule
Guard
p3340
(dp3341
g18
I00
sg19
(lp3342
(irule
FeatureMatrix
p3343
(dp3344
g28
(lp3345
(I00
g2753
tp3346
asg22
Nsba(irule
FeatureMatrix
p3347
(dp3348
g28
(lp3349
(I01
g2682
tp3350
asg22
Nsbasg21
I00
sg22
Nsg23
I00
sg24
S'L'
sbsg25
(irule
OffsetSpecification
p3351
(dp3352
g221
I-2
sbsg35
(irule
Guard
p3353
(dp3354
g18
I00
sg19
(lp3355
(irule
FeatureMatrix
p3356
(dp3357
g28
(lp3358
sg22
Nsbasg21
I00
sg22
Nsg23
I00
sg24
S'R'
sbsg49
(irule
FeatureMatrix
p3359
(dp3360
g28
(lp3361
sg22
Nsbsg22
Nsba(irule
Rule
p3362
(dp3363
g15
(irule
Guard
p3364
(dp3365
g18
I00
sg19
(lp3366
(irule
FeatureMatrix
p3367
(dp3368
g28
(lp3369
sg22
Nsba(irule
FeatureMatrix
p3370
(dp3371
g28
(lp3372
(I00
g2662
tp3373
a(I00
S'liquid'
p3374
tp3375
asg22
Nsbasg21
I00
sg22
Nsg23
I00
sg24
S'L'
sbsg25
(irule
OffsetSpecification
p3376
(dp3377
g221
I-2
sbsg35
(irule
Guard
p3378
(dp3379
g18
I00
sg19
(lp3380
sg21
I00
sg22
Nsg23
I00
sg24
S'R'
sbsg49
(irule
ConstantPhoneme
p3381
(dp3382
S'p'
Ve
sbsg22
Nsba(irule
Rule
p3383
(dp3384
g15
(irule
Guard
p3385
(dp3386
g18
I00
sg19
(lp3387
(irule
FeatureMatrix
p3388
(dp3389
g28
(lp3390
sg22
Nsba(irule
FeatureMatrix
p3391
(dp3392
g28
(lp3393
(I01
g2682
tp3394
a(I00
g2724
tp3395
asg22
Nsbasg21
I00
sg22
Nsg23
I00
sg24
S'L'
sbsg25
(irule
OffsetSpecification
p3396
(dp3397
g221
I-2
sbsg35
(irule
Guard
p3398
(dp3399
g18
I00
sg19
(lp3400
sg21
I00
sg22
Nsg23
I00
sg24
S'R'
sbsg49
(irule
ConstantPhoneme
p3401
(dp3402
S'p'
Ve
sbsg22
Nsba(irule
Rule
p3403
(dp3404
g15
(irule
Guard
p3405
(dp3406
g18
I00
sg19
(lp3407
(irule
FeatureMatrix
p3408
(dp3409
g28
(lp3410
sg22
Nsba(irule
FeatureMatrix
p3411
(dp3412
g28
(lp3413
(I01
g3104
tp3414
asg22
Nsbasg21
I00
sg22
Nsg23
I00
sg24
S'L'
sbsg25
(irule
OffsetSpecification
p3415
(dp3416
g221
I-2
sbsg35
(irule
Guard
p3417
(dp3418
g18
I00
sg19
(lp3419
(irule
FeatureMatrix
p3420
(dp3421
g28
(lp3422
(I00
g2753
tp3423
asg22
Nsbasg21
I00
sg22
Nsg23
I00
sg24
S'R'
sbsg49
(irule
FeatureMatrix
p3424
(dp3425
g28
(lp3426
sg22
Nsbsg22
Nsba(irule
Rule
p3427
(dp3428
g15
(irule
Guard
p3429
(dp3430
g18
I00
sg19
(lp3431
(irule
FeatureMatrix
p3432
(dp3433
g28
(lp3434
sg22
Nsba(irule
FeatureMatrix
p3435
(dp3436
g28
(lp3437
(I01
g2682
tp3438
a(I01
g2995
tp3439
asg22
Nsbasg21
I00
sg22
Nsg23
I00
sg24
S'L'
sbsg25
(irule
OffsetSpecification
p3440
(dp3441
g221
I-2
sbsg35
(irule
Guard
p3442
(dp3443
g18
I00
sg19
(lp3444
(irule
FeatureMatrix
p3445
(dp3446
g28
(lp3447
sg22
Nsbasg21
I00
sg22
Nsg23
I00
sg24
S'R'
sbsg49
(irule
FeatureMatrix
p3448
(dp3449
g28
(lp3450
sg22
Nsbsg22
Nsba(irule
Rule
p3451
(dp3452
g15
(irule
Guard
p3453
(dp3454
g18
I00
sg19
(lp3455
(irule
FeatureMatrix
p3456
(dp3457
g28
(lp3458
sg22
Nsba(irule
FeatureMatrix
p3459
(dp3460
g28
(lp3461
(I01
g2703
tp3462
a(I01
g2682
tp3463
asg22
Nsbasg21
I00
sg22
Nsg23
I00
sg24
S'L'
sbsg25
(irule
OffsetSpecification
p3464
(dp3465
g221
I-2
sbsg35
(irule
Guard
p3466
(dp3467
g18
I00
sg19
(lp3468
(irule
FeatureMatrix
p3469
(dp3470
g28
(lp3471
sg22
Nsbasg21
I00
sg22
Nsg23
I00
sg24
S'R'
sbsg49
(irule
FeatureMatrix
p3472
(dp3473
g28
(lp3474
sg22
Nsbsg22
Nsba(irule
Rule
p3475
(dp3476
g15
(irule
Guard
p3477
(dp3478
g18
I00
sg19
(lp3479
(irule
FeatureMatrix
p3480
(dp3481
g28
(lp3482
sg22
Nsba(irule
FeatureMatrix
p3483
(dp3484
g28
(lp3485
(I01
g2682
tp3486
asg22
Nsbasg21
I00
sg22
Nsg23
I00
sg24
S'L'
sbsg25
(irule
OffsetSpecification
p3487
(dp3488
g221
I-2
sbsg35
(irule
Guard
p3489
(dp3490
g18
I00
sg19
(lp3491
(irule
FeatureMatrix
p3492
(dp3493
g28
(lp3494
sg22
Nsbasg21
I00
sg22
Nsg23
I00
sg24
S'R'
sbsg49
(irule
FeatureMatrix
p3495
(dp3496
g28
(lp3497
(I01
g2753
tp3498
asg22
Nsbsg22
Nsba(irule
Rule
p3499
(dp3500
g15
(irule
Guard
p3501
(dp3502
g18
I00
sg19
(lp3503
(irule
FeatureMatrix
p3504
(dp3505
g28
(lp3506
sg22
Nsba(irule
FeatureMatrix
p3507
(dp3508
g28
(lp3509
(I01
g2682
tp3510
asg22
Nsbasg21
I00
sg22
Nsg23
I00
sg24
S'L'
sbsg25
(irule
OffsetSpecification
p3511
(dp3512
g221
I-2
sbsg35
(irule
Guard
p3513
(dp3514
g18
I00
sg19
(lp3515
(irule
FeatureMatrix
p3516
(dp3517
g28
(lp3518
(I00
g2753
tp3519
asg22
Nsbasg21
I00
sg22
Nsg23
I00
sg24
S'R'
sbsg49
(irule
FeatureMatrix
p3520
(dp3521
g28
(lp3522
sg22
Nsbsg22
Nsba(irule
Rule
p3523
(dp3524
g15
(irule
Guard
p3525
(dp3526
g18
I00
sg19
(lp3527
(irule
FeatureMatrix
p3528
(dp3529
g28
(lp3530
sg22
Nsba(irule
FeatureMatrix
p3531
(dp3532
g28
(lp3533
(I01
g2682
tp3534
asg22
Nsbasg21
I00
sg22
Nsg23
I00
sg24
S'L'
sbsg25
(irule
OffsetSpecification
p3535
(dp3536
g221
I-2
sbsg35
(irule
Guard
p3537
(dp3538
g18
I00
sg19
(lp3539
(irule
FeatureMatrix
p3540
(dp3541
g28
(lp3542
sg22
Nsbasg21
I00
sg22
Nsg23
I00
sg24
S'R'
sbsg49
(irule
FeatureMatrix
p3543
(dp3544
g28
(lp3545
(I01
g2766
tp3546
asg22
Nsbsg22
Nsba(irule
Rule
p3547
(dp3548
g15
(irule
Guard
p3549
(dp3550
g18
I00
sg19
(lp3551
(irule
FeatureMatrix
p3552
(dp3553
g28
(lp3554
sg22
Nsba(irule
FeatureMatrix
p3555
(dp3556
g28
(lp3557
(I01
g2682
tp3558
asg22
Nsbasg21
I00
sg22
Nsg23
I00
sg24
S'L'
sbsg25
(irule
OffsetSpecification
p3559
(dp3560
g221
I-2
sbsg35
(irule
Guard
p3561
(dp3562
g18
I00
sg19
(lp3563
(irule
FeatureMatrix
p3564
(dp3565
g28
(lp3566
(I01
g2974
tp3567
asg22
Nsbasg21
I00
sg22
Nsg23
I00
sg24
S'R'
sbsg49
(irule
FeatureMatrix
p3568
(dp3569
g28
(lp3570
sg22
Nsbsg22
Nsba(irule
Rule
p3571
(dp3572
g15
(irule
Guard
p3573
(dp3574
g18
I00
sg19
(lp3575
(irule
FeatureMatrix
p3576
(dp3577
g28
(lp3578
sg22
Nsba(irule
FeatureMatrix
p3579
(dp3580
g28
(lp3581
(I01
g3104
tp3582
asg22
Nsbasg21
I00
sg22
Nsg23
I00
sg24
S'L'
sbsg25
(irule
OffsetSpecification
p3583
(dp3584
g221
I-2
sbsg35
(irule
Guard
p3585
(dp3586
g18
I00
sg19
(lp3587
(irule
FeatureMatrix
p3588
(dp3589
g28
(lp3590
(I00
g2766
tp3591
asg22
Nsbasg21
I00
sg22
Nsg23
I00
sg24
S'R'
sbsg49
(irule
FeatureMatrix
p3592
(dp3593
g28
(lp3594
sg22
Nsbsg22
Nsba(irule
Rule
p3595
(dp3596
g15
(irule
Guard
p3597
(dp3598
g18
I00
sg19
(lp3599
(irule
FeatureMatrix
p3600
(dp3601
g28
(lp3602
(I00
g2682
tp3603
asg22
Nsba(irule
FeatureMatrix
p3604
(dp3605
g28
(lp3606
(I01
g3104
tp3607
asg22
Nsbasg21
I00
sg22
Nsg23
I00
sg24
S'L'
sbsg25
(irule
OffsetSpecification
p3608
(dp3609
g221
I-2
sbsg35
(irule
Guard
p3610
(dp3611
g18
I00
sg19
(lp3612
(irule
FeatureMatrix
p3613
(dp3614
g28
(lp3615
sg22
Nsbasg21
I00
sg22
Nsg23
I00
sg24
S'R'
sbsg49
(irule
FeatureMatrix
p3616
(dp3617
g28
(lp3618
sg22
Nsbsg22
Nsba(irule
Rule
p3619
(dp3620
g15
(irule
Guard
p3621
(dp3622
g18
I00
sg19
(lp3623
(irule
FeatureMatrix
p3624
(dp3625
g28
(lp3626
(I00
S'rounded'
p3627
tp3628
asg22
Nsba(irule
FeatureMatrix
p3629
(dp3630
g28
(lp3631
(I00
g2662
tp3632
asg22
Nsbasg21
I00
sg22
Nsg23
I00
sg24
S'L'
sbsg25
(irule
OffsetSpecification
p3633
(dp3634
g221
I-2
sbsg35
(irule
Guard
p3635
(dp3636
g18
I00
sg19
(lp3637
sg21
I00
sg22
Nsg23
I00
sg24
S'R'
sbsg49
(irule
ConstantPhoneme
p3638
(dp3639
S'p'
Ve
sbsg22
Nsba(irule
Rule
p3640
(dp3641
g15
(irule
Guard
p3642
(dp3643
g18
I00
sg19
(lp3644
(irule
FeatureMatrix
p3645
(dp3646
g28
(lp3647
sg22
Nsba(irule
FeatureMatrix
p3648
(dp3649
g28
(lp3650
(I00
g2839
tp3651
a(I01
g2682
tp3652
asg22
Nsbasg21
I00
sg22
Nsg23
I00
sg24
S'L'
sbsg25
(irule
OffsetSpecification
p3653
(dp3654
g221
I-2
sbsg35
(irule
Guard
p3655
(dp3656
g18
I00
sg19
(lp3657
sg21
I00
sg22
Nsg23
I00
sg24
S'R'
sbsg49
(irule
ConstantPhoneme
p3658
(dp3659
S'p'
Ve
sbsg22
Nsba(irule
Rule
p3660
(dp3661
g15
(irule
Guard
p3662
(dp3663
g18
I00
sg19
(lp3664
(irule
FeatureMatrix
p3665
(dp3666
g28
(lp3667
sg22
Nsba(irule
FeatureMatrix
p3668
(dp3669
g28
(lp3670
(I01
g3104
tp3671
asg22
Nsbasg21
I00
sg22
Nsg23
I00
sg24
S'L'
sbsg25
(irule
OffsetSpecification
p3672
(dp3673
g221
I-2
sbsg35
(irule
Guard
p3674
(dp3675
g18
I00
sg19
(lp3676
(irule
FeatureMatrix
p3677
(dp3678
g28
(lp3679
sg22
Nsbasg21
I00
sg22
Nsg23
I00
sg24
S'R'
sbsg49
(irule
ConstantPhoneme
p3680
(dp3681
S'p'
Ve
sbsg22
Nsba(irule
Rule
p3682
(dp3683
g15
(irule
Guard
p3684
(dp3685
g18
I00
sg19
(lp3686
(irule
FeatureMatrix
p3687
(dp3688
g28
(lp3689
sg22
Nsba(irule
FeatureMatrix
p3690
(dp3691
g28
(lp3692
(I01
g3104
tp3693
asg22
Nsbasg21
I00
sg22
Nsg23
I00
sg24
S'L'
sbsg25
(irule
OffsetSpecification
p3694
(dp3695
g221
I-2
sbsg35
(irule
Guard
p3696
(dp3697
g18
I00
sg19
(lp3698
(irule
FeatureMatrix
p3699
(dp3700
g28
(lp3701
sg22
Nsbasg21
I00
sg22
Nsg23
I00
sg24
S'R'
sbsg49
(irule
FeatureMatrix
p3702
(dp3703
g28
(lp3704
(I01
g2753
tp3705
asg22
Nsbsg22
Nsba(irule
Rule
p3706
(dp3707
g15
(irule
Guard
p3708
(dp3709
g18
I00
sg19
(lp3710
(irule
FeatureMatrix
p3711
(dp3712
g28
(lp3713
sg22
Nsba(irule
FeatureMatrix
p3714
(dp3715
g28
(lp3716
(I00
g2662
tp3717
a(I00
g3312
tp3718
asg22
Nsbasg21
I00
sg22
Nsg23
I00
sg24
S'L'
sbsg25
(irule
OffsetSpecification
p3719
(dp3720
g221
I-2
sbsg35
(irule
Guard
p3721
(dp3722
g18
I00
sg19
(lp3723
sg21
I00
sg22
Nsg23
I00
sg24
S'R'
sbsg49
(irule
ConstantPhoneme
p3724
(dp3725
S'p'
Ve
sbsg22
Nsba(irule
Rule
p3726
(dp3727
g15
(irule
Guard
p3728
(dp3729
g18
I00
sg19
(lp3730
(irule
FeatureMatrix
p3731
(dp3732
g28
(lp3733
(I00
g3104
tp3734
asg22
Nsba(irule
FeatureMatrix
p3735
(dp3736
g28
(lp3737
(I01
g3104
tp3738
asg22
Nsbasg21
I00
sg22
Nsg23
I00
sg24
S'L'
sbsg25
(irule
OffsetSpecification
p3739
(dp3740
g221
I-2
sbsg35
(irule
Guard
p3741
(dp3742
g18
I00
sg19
(lp3743
(irule
FeatureMatrix
p3744
(dp3745
g28
(lp3746
sg22
Nsbasg21
I00
sg22
Nsg23
I00
sg24
S'R'
sbsg49
(irule
FeatureMatrix
p3747
(dp3748
g28
(lp3749
sg22
Nsbsg22
Nsba(irule
Rule
p3750
(dp3751
g15
(irule
Guard
p3752
(dp3753
g18
I00
sg19
(lp3754
(irule
FeatureMatrix
p3755
(dp3756
g28
(lp3757
sg22
Nsba(irule
FeatureMatrix
p3758
(dp3759
g28
(lp3760
(I00
g2662
tp3761
a(I01
g2682
tp3762
asg22
Nsbasg21
I00
sg22
Nsg23
I00
sg24
S'L'
sbsg25
(irule
OffsetSpecification
p3763
(dp3764
g221
I-2
sbsg35
(irule
Guard
p3765
(dp3766
g18
I00
sg19
(lp3767
sg21
I00
sg22
Nsg23
I00
sg24
S'R'
sbsg49
(irule
ConstantPhoneme
p3768
(dp3769
S'p'
Ve
sbsg22
Nsba(irule
Rule
p3770
(dp3771
g15
(irule
Guard
p3772
(dp3773
g18
I00
sg19
(lp3774
(irule
FeatureMatrix
p3775
(dp3776
g28
(lp3777
sg22
Nsba(irule
FeatureMatrix
p3778
(dp3779
g28
(lp3780
(I00
g2662
tp3781
a(I01
g2753
tp3782
asg22
Nsbasg21
I00
sg22
Nsg23
I00
sg24
S'L'
sbsg25
(irule
OffsetSpecification
p3783
(dp3784
g221
I-2
sbsg35
(irule
Guard
p3785
(dp3786
g18
I00
sg19
(lp3787
sg21
I00
sg22
Nsg23
I00
sg24
S'R'
sbsg49
(irule
ConstantPhoneme
p3788
(dp3789
S'p'
Ve
sbsg22
Nsba(irule
Rule
p3790
(dp3791
g15
(irule
Guard
p3792
(dp3793
g18
I00
sg19
(lp3794
(irule
FeatureMatrix
p3795
(dp3796
g28
(lp3797
(I00
g2662
tp3798
asg22
Nsba(irule
FeatureMatrix
p3799
(dp3800
g28
(lp3801
(I00
g2662
tp3802
asg22
Nsbasg21
I00
sg22
Nsg23
I00
sg24
S'L'
sbsg25
(irule
OffsetSpecification
p3803
(dp3804
g221
I-2
sbsg35
(irule
Guard
p3805
(dp3806
g18
I00
sg19
(lp3807
sg21
I00
sg22
Nsg23
I00
sg24
S'R'
sbsg49
(irule
ConstantPhoneme
p3808
(dp3809
S'p'
Ve
sbsg22
Nsba(irule
Rule
p3810
(dp3811
g15
(irule
Guard
p3812
(dp3813
g18
I00
sg19
(lp3814
(irule
FeatureMatrix
p3815
(dp3816
g28
(lp3817
sg22
Nsba(irule
FeatureMatrix
p3818
(dp3819
g28
(lp3820
(I01
g3104
tp3821
asg22
Nsbasg21
I00
sg22
Nsg23
I00
sg24
S'L'
sbsg25
(irule
OffsetSpecification
p3822
(dp3823
g221
I-2
sbsg35
(irule
Guard
p3824
(dp3825
g18
I00
sg19
(lp3826
(irule
FeatureMatrix
p3827
(dp3828
g28
(lp3829
sg22
Nsbasg21
I00
sg22
Nsg23
I00
sg24
S'R'
sbsg49
(irule
FeatureMatrix
p3830
(dp3831
g28
(lp3832
(I01
g2766
tp3833
asg22
Nsbsg22
Nsba(irule
Rule
p3834
(dp3835
g15
(irule
Guard
p3836
(dp3837
g18
I00
sg19
(lp3838
(irule
FeatureMatrix
p3839
(dp3840
g28
(lp3841
(I00
g3104
tp3842
asg22
Nsba(irule
FeatureMatrix
p3843
(dp3844
g28
(lp3845
(I01
g2682
tp3846
asg22
Nsbasg21
I00
sg22
Nsg23
I00
sg24
S'L'
sbsg25
(irule
OffsetSpecification
p3847
(dp3848
g221
I-2
sbsg35
(irule
Guard
p3849
(dp3850
g18
I00
sg19
(lp3851
sg21
I00
sg22
Nsg23
I00
sg24
S'R'
sbsg49
(irule
ConstantPhoneme
p3852
(dp3853
S'p'
Ve
sbsg22
Nsba(irule
Rule
p3854
(dp3855
g15
(irule
Guard
p3856
(dp3857
g18
I00
sg19
(lp3858
(irule
FeatureMatrix
p3859
(dp3860
g28
(lp3861
sg22
Nsba(irule
FeatureMatrix
p3862
(dp3863
g28
(lp3864
(I01
g2766
tp3865
a(I01
g3104
tp3866
asg22
Nsbasg21
I00
sg22
Nsg23
I00
sg24
S'L'
sbsg25
(irule
OffsetSpecification
p3867
(dp3868
g221
I-2
sbsg35
(irule
Guard
p3869
(dp3870
g18
I00
sg19
(lp3871
(irule
FeatureMatrix
p3872
(dp3873
g28
(lp3874
sg22
Nsbasg21
I00
sg22
Nsg23
I00
sg24
S'R'
sbsg49
(irule
FeatureMatrix
p3875
(dp3876
g28
(lp3877
sg22
Nsbsg22
Nsba(irule
Rule
p3878
(dp3879
g15
(irule
Guard
p3880
(dp3881
g18
I00
sg19
(lp3882
(irule
FeatureMatrix
p3883
(dp3884
g28
(lp3885
sg22
Nsba(irule
FeatureMatrix
p3886
(dp3887
g28
(lp3888
(I01
g2682
tp3889
a(I00
g2724
tp3890
asg22
Nsbasg21
I00
sg22
Nsg23
I00
sg24
S'L'
sbsg25
(irule
OffsetSpecification
p3891
(dp3892
g221
I-2
sbsg35
(irule
Guard
p3893
(dp3894
g18
I00
sg19
(lp3895
(irule
FeatureMatrix
p3896
(dp3897
g28
(lp3898
sg22
Nsbasg21
I00
sg22
Nsg23
I00
sg24
S'R'
sbsg49
(irule
FeatureMatrix
p3899
(dp3900
g28
(lp3901
sg22
Nsbsg22
Nsba(irule
Rule
p3902
(dp3903
g15
(irule
Guard
p3904
(dp3905
g18
I00
sg19
(lp3906
(irule
FeatureMatrix
p3907
(dp3908
g28
(lp3909
(I00
g3104
tp3910
asg22
Nsba(irule
FeatureMatrix
p3911
(dp3912
g28
(lp3913
(I01
g3104
tp3914
asg22
Nsbasg21
I00
sg22
Nsg23
I00
sg24
S'L'
sbsg25
(irule
OffsetSpecification
p3915
(dp3916
g221
I-2
sbsg35
(irule
Guard
p3917
(dp3918
g18
I00
sg19
(lp3919
sg21
I00
sg22
Nsg23
I00
sg24
S'R'
sbsg49
(irule
ConstantPhoneme
p3920
(dp3921
S'p'
Ve
sbsg22
Nsba(irule
Rule
p3922
(dp3923
g15
(irule
Guard
p3924
(dp3925
g18
I00
sg19
(lp3926
(irule
FeatureMatrix
p3927
(dp3928
g28
(lp3929
sg22
Nsba(irule
FeatureMatrix
p3930
(dp3931
g28
(lp3932
(I01
g2682
tp3933
a(I01
g2766
tp3934
asg22
Nsbasg21
I00
sg22
Nsg23
I00
sg24
S'L'
sbsg25
(irule
OffsetSpecification
p3935
(dp3936
g221
I-2
sbsg35
(irule
Guard
p3937
(dp3938
g18
I00
sg19
(lp3939
(irule
FeatureMatrix
p3940
(dp3941
g28
(lp3942
sg22
Nsbasg21
I00
sg22
Nsg23
I00
sg24
S'R'
sbsg49
(irule
FeatureMatrix
p3943
(dp3944
g28
(lp3945
sg22
Nsbsg22
Nsba(irule
Rule
p3946
(dp3947
g15
(irule
Guard
p3948
(dp3949
g18
I00
sg19
(lp3950
(irule
FeatureMatrix
p3951
(dp3952
g28
(lp3953
sg22
Nsba(irule
FeatureMatrix
p3954
(dp3955
g28
(lp3956
(I00
g2662
tp3957
a(I01
S'voice'
p3958
tp3959
asg22
Nsbasg21
I00
sg22
Nsg23
I00
sg24
S'L'
sbsg25
(irule
OffsetSpecification
p3960
(dp3961
g221
I-2
sbsg35
(irule
Guard
p3962
(dp3963
g18
I00
sg19
(lp3964
sg21
I00
sg22
Nsg23
I00
sg24
S'R'
sbsg49
(irule
ConstantPhoneme
p3965
(dp3966
S'p'
Ve
sbsg22
Nsba(irule
Rule
p3967
(dp3968
g15
(irule
Guard
p3969
(dp3970
g18
I00
sg19
(lp3971
(irule
FeatureMatrix
p3972
(dp3973
g28
(lp3974
sg22
Nsba(irule
FeatureMatrix
p3975
(dp3976
g28
(lp3977
(I00
g2839
tp3978
a(I01
g3104
tp3979
asg22
Nsbasg21
I00
sg22
Nsg23
I00
sg24
S'L'
sbsg25
(irule
OffsetSpecification
p3980
(dp3981
g221
I-2
sbsg35
(irule
Guard
p3982
(dp3983
g18
I00
sg19
(lp3984
sg21
I00
sg22
Nsg23
I00
sg24
S'R'
sbsg49
(irule
ConstantPhoneme
p3985
(dp3986
S'p'
Ve
sbsg22
Nsba(irule
Rule
p3987
(dp3988
g15
(irule
Guard
p3989
(dp3990
g18
I00
sg19
(lp3991
(irule
FeatureMatrix
p3992
(dp3993
g28
(lp3994
(I00
g2724
tp3995
asg22
Nsba(irule
FeatureMatrix
p3996
(dp3997
g28
(lp3998
(I01
g3104
tp3999
asg22
Nsbasg21
I00
sg22
Nsg23
I00
sg24
S'L'
sbsg25
(irule
OffsetSpecification
p4000
(dp4001
g221
I-2
sbsg35
(irule
Guard
p4002
(dp4003
g18
I00
sg19
(lp4004
sg21
I00
sg22
Nsg23
I00
sg24
S'R'
sbsg49
(irule
ConstantPhoneme
p4005
(dp4006
S'p'
Ve
sbsg22
Nsba(irule
Rule
p4007
(dp4008
g15
(irule
Guard
p4009
(dp4010
g18
I00
sg19
(lp4011
(irule
FeatureMatrix
p4012
(dp4013
g28
(lp4014
sg22
Nsba(irule
FeatureMatrix
p4015
(dp4016
g28
(lp4017
(I01
g2682
tp4018
a(I01
g2753
tp4019
asg22
Nsbasg21
I00
sg22
Nsg23
I00
sg24
S'L'
sbsg25
(irule
OffsetSpecification
p4020
(dp4021
g221
I-2
sbsg35
(irule
Guard
p4022
(dp4023
g18
I00
sg19
(lp4024
(irule
FeatureMatrix
p4025
(dp4026
g28
(lp4027
sg22
Nsbasg21
I00
sg22
Nsg23
I00
sg24
S'R'
sbsg49
(irule
FeatureMatrix
p4028
(dp4029
g28
(lp4030
sg22
Nsbsg22
Nsba(irule
Rule
p4031
(dp4032
g15
(irule
Guard
p4033
(dp4034
g18
I00
sg19
(lp4035
(irule
FeatureMatrix
p4036
(dp4037
g28
(lp4038
sg22
Nsba(irule
FeatureMatrix
p4039
(dp4040
g28
(lp4041
(I00
g2974
tp4042
a(I01
g3104
tp4043
asg22
Nsbasg21
I00
sg22
Nsg23
I00
sg24
S'L'
sbsg25
(irule
OffsetSpecification
p4044
(dp4045
g221
I-2
sbsg35
(irule
Guard
p4046
(dp4047
g18
I00
sg19
(lp4048
sg21
I00
sg22
Nsg23
I00
sg24
S'R'
sbsg49
(irule
ConstantPhoneme
p4049
(dp4050
S'p'
Ve
sbsg22
Nsba(irule
Rule
p4051
(dp4052
g15
(irule
Guard
p4053
(dp4054
g18
I00
sg19
(lp4055
(irule
FeatureMatrix
p4056
(dp4057
g28
(lp4058
(I00
g2724
tp4059
asg22
Nsba(irule
FeatureMatrix
p4060
(dp4061
g28
(lp4062
(I01
g2682
tp4063
asg22
Nsbasg21
I00
sg22
Nsg23
I00
sg24
S'L'
sbsg25
(irule
OffsetSpecification
p4064
(dp4065
g221
I-2
sbsg35
(irule
Guard
p4066
(dp4067
g18
I00
sg19
(lp4068
sg21
I00
sg22
Nsg23
I00
sg24
S'R'
sbsg49
(irule
ConstantPhoneme
p4069
(dp4070
S'p'
Ve
sbsg22
Nsba(irule
Rule
p4071
(dp4072
g15
(irule
Guard
p4073
(dp4074
g18
I00
sg19
(lp4075
(irule
FeatureMatrix
p4076
(dp4077
g28
(lp4078
(I00
g2682
tp4079
asg22
Nsba(irule
FeatureMatrix
p4080
(dp4081
g28
(lp4082
(I01
g3104
tp4083
asg22
Nsbasg21
I00
sg22
Nsg23
I00
sg24
S'L'
sbsg25
(irule
OffsetSpecification
p4084
(dp4085
g221
I-2
sbsg35
(irule
Guard
p4086
(dp4087
g18
I00
sg19
(lp4088
sg21
I00
sg22
Nsg23
I00
sg24
S'R'
sbsg49
(irule
ConstantPhoneme
p4089
(dp4090
S'p'
Ve
sbsg22
Nsba(irule
Rule
p4091
(dp4092
g15
(irule
Guard
p4093
(dp4094
g18
I00
sg19
(lp4095
(irule
FeatureMatrix
p4096
(dp4097
g28
(lp4098
sg22
Nsba(irule
FeatureMatrix
p4099
(dp4100
g28
(lp4101
(I00
g2662
tp4102
a(I01
g2766
tp4103
asg22
Nsbasg21
I00
sg22
Nsg23
I00
sg24
S'L'
sbsg25
(irule
OffsetSpecification
p4104
(dp4105
g221
I-2
sbsg35
(irule
Guard
p4106
(dp4107
g18
I00
sg19
(lp4108
sg21
I00
sg22
Nsg23
I00
sg24
S'R'
sbsg49
(irule
ConstantPhoneme
p4109
(dp4110
S'p'
Ve
sbsg22
Nsba(irule
Rule
p4111
(dp4112
g15
(irule
Guard
p4113
(dp4114
g18
I00
sg19
(lp4115
(irule
FeatureMatrix
p4116
(dp4117
g28
(lp4118
(I00
g2753
tp4119
asg22
Nsba(irule
FeatureMatrix
p4120
(dp4121
g28
(lp4122
(I01
g3104
tp4123
asg22
Nsbasg21
I00
sg22
Nsg23
I00
sg24
S'L'
sbsg25
(irule
OffsetSpecification
p4124
(dp4125
g221
I-2
sbsg35
(irule
Guard
p4126
(dp4127
g18
I00
sg19
(lp4128
sg21
I00
sg22
Nsg23
I00
sg24
S'R'
sbsg49
(irule
ConstantPhoneme
p4129
(dp4130
S'p'
Ve
sbsg22
Nsba(irule
Rule
p4131
(dp4132
g15
(irule
Guard
p4133
(dp4134
g18
I00
sg19
(lp4135
(irule
FeatureMatrix
p4136
(dp4137
g28
(lp4138
sg22
Nsba(irule
FeatureMatrix
p4139
(dp4140
g28
(lp4141
(I01
g2682
tp4142
a(I01
g3104
tp4143
asg22
Nsbasg21
I00
sg22
Nsg23
I00
sg24
S'L'
sbsg25
(irule
OffsetSpecification
p4144
(dp4145
g221
I-2
sbsg35
(irule
Guard
p4146
(dp4147
g18
I00
sg19
(lp4148
(irule
FeatureMatrix
p4149
(dp4150
g28
(lp4151
sg22
Nsbasg21
I00
sg22
Nsg23
I00
sg24
S'R'
sbsg49
(irule
FeatureMatrix
p4152
(dp4153
g28
(lp4154
sg22
Nsbsg22
Nsba(irule
Rule
p4155
(dp4156
g15
(irule
Guard
p4157
(dp4158
g18
I00
sg19
(lp4159
(irule
FeatureMatrix
p4160
(dp4161
g28
(lp4162
sg22
Nsba(irule
FeatureMatrix
p4163
(dp4164
g28
(lp4165
(I01
g3104
tp4166
asg22
Nsbasg21
I00
sg22
Nsg23
I00
sg24
S'L'
sbsg25
(irule
OffsetSpecification
p4167
(dp4168
g221
I-2
sbsg35
(irule
Guard
p4169
(dp4170
g18
I00
sg19
(lp4171
(irule
FeatureMatrix
p4172
(dp4173
g28
(lp4174
(I01
g2974
tp4175
asg22
Nsbasg21
I00
sg22
Nsg23
I00
sg24
S'R'
sbsg49
(irule
FeatureMatrix
p4176
(dp4177
g28
(lp4178
sg22
Nsbsg22
Nsba(irule
Rule
p4179
(dp4180
g15
(irule
Guard
p4181
(dp4182
g18
I00
sg19
(lp4183
(irule
FeatureMatrix
p4184
(dp4185
g28
(lp4186
sg22
Nsba(irule
FeatureMatrix
p4187
(dp4188
g28
(lp4189
(I01
g3104
tp4190
a(I01
g3958
tp4191
asg22
Nsbasg21
I00
sg22
Nsg23
I00
sg24
S'L'
sbsg25
(irule
OffsetSpecification
p4192
(dp4193
g221
I-2
sbsg35
(irule
Guard
p4194
(dp4195
g18
I00
sg19
(lp4196
(irule
FeatureMatrix
p4197
(dp4198
g28
(lp4199
sg22
Nsbasg21
I00
sg22
Nsg23
I00
sg24
S'R'
sbsg49
(irule
FeatureMatrix
p4200
(dp4201
g28
(lp4202
sg22
Nsbsg22
Nsba(irule
Rule
p4203
(dp4204
g15
(irule
Guard
p4205
(dp4206
g18
I00
sg19
(lp4207
(irule
FeatureMatrix
p4208
(dp4209
g28
(lp4210
sg22
Nsba(irule
FeatureMatrix
p4211
(dp4212
g28
(lp4213
(I01
g2682
tp4214
asg22
Nsbasg21
I00
sg22
Nsg23
I00
sg24
S'L'
sbsg25
(irule
OffsetSpecification
p4215
(dp4216
g221
I-2
sbsg35
(irule
Guard
p4217
(dp4218
g18
I00
sg19
(lp4219
(irule
FeatureMatrix
p4220
(dp4221
g28
(lp4222
(I00
g2766
tp4223
asg22
Nsbasg21
I00
sg22
Nsg23
I00
sg24
S'R'
sbsg49
(irule
FeatureMatrix
p4224
(dp4225
g28
(lp4226
sg22
Nsbsg22
Nsba(irule
Rule
p4227
(dp4228
g15
(irule
Guard
p4229
(dp4230
g18
I00
sg19
(lp4231
(irule
FeatureMatrix
p4232
(dp4233
g28
(lp4234
(I00
g2753
tp4235
asg22
Nsba(irule
FeatureMatrix
p4236
(dp4237
g28
(lp4238
(I01
g3104
tp4239
asg22
Nsbasg21
I00
sg22
Nsg23
I00
sg24
S'L'
sbsg25
(irule
OffsetSpecification
p4240
(dp4241
g221
I-2
sbsg35
(irule
Guard
p4242
(dp4243
g18
I00
sg19
(lp4244
(irule
FeatureMatrix
p4245
(dp4246
g28
(lp4247
sg22
Nsbasg21
I00
sg22
Nsg23
I00
sg24
S'R'
sbsg49
(irule
FeatureMatrix
p4248
(dp4249
g28
(lp4250
sg22
Nsbsg22
Nsba(irule
Rule
p4251
(dp4252
g15
(irule
Guard
p4253
(dp4254
g18
I00
sg19
(lp4255
(irule
FeatureMatrix
p4256
(dp4257
g28
(lp4258
sg22
Nsba(irule
FeatureMatrix
p4259
(dp4260
g28
(lp4261
(I01
g3104
tp4262
a(I01
g2753
tp4263
asg22
Nsbasg21
I00
sg22
Nsg23
I00
sg24
S'L'
sbsg25
(irule
OffsetSpecification
p4264
(dp4265
g221
I-2
sbsg35
(irule
Guard
p4266
(dp4267
g18
I00
sg19
(lp4268
(irule
FeatureMatrix
p4269
(dp4270
g28
(lp4271
sg22
Nsbasg21
I00
sg22
Nsg23
I00
sg24
S'R'
sbsg49
(irule
FeatureMatrix
p4272
(dp4273
g28
(lp4274
sg22
Nsbsg22
Nsba(irule
Rule
p4275
(dp4276
g15
(irule
Guard
p4277
(dp4278
g18
I00
sg19
(lp4279
(irule
FeatureMatrix
p4280
(dp4281
g28
(lp4282
sg22
Nsba(irule
FeatureMatrix
p4283
(dp4284
g28
(lp4285
(I01
g3104
tp4286
a(I00
g3173
tp4287
asg22
Nsbasg21
I00
sg22
Nsg23
I00
sg24
S'L'
sbsg25
(irule
OffsetSpecification
p4288
(dp4289
g221
I-2
sbsg35
(irule
Guard
p4290
(dp4291
g18
I00
sg19
(lp4292
sg21
I00
sg22
Nsg23
I00
sg24
S'R'
sbsg49
(irule
ConstantPhoneme
p4293
(dp4294
S'p'
Ve
sbsg22
Nsba(irule
Rule
p4295
(dp4296
g15
(irule
Guard
p4297
(dp4298
g18
I00
sg19
(lp4299
(irule
FeatureMatrix
p4300
(dp4301
g28
(lp4302
sg22
Nsba(irule
FeatureMatrix
p4303
(dp4304
g28
(lp4305
(I00
g2662
tp4306
a(I01
g3104
tp4307
asg22
Nsbasg21
I00
sg22
Nsg23
I00
sg24
S'L'
sbsg25
(irule
OffsetSpecification
p4308
(dp4309
g221
I-2
sbsg35
(irule
Guard
p4310
(dp4311
g18
I00
sg19
(lp4312
sg21
I00
sg22
Nsg23
I00
sg24
S'R'
sbsg49
(irule
ConstantPhoneme
p4313
(dp4314
S'p'
Ve
sbsg22
Nsba(irule
Rule
p4315
(dp4316
g15
(irule
Guard
p4317
(dp4318
g18
I00
sg19
(lp4319
(irule
FeatureMatrix
p4320
(dp4321
g28
(lp4322
sg22
Nsba(irule
FeatureMatrix
p4323
(dp4324
g28
(lp4325
(I01
g2995
tp4326
a(I01
g3104
tp4327
asg22
Nsbasg21
I00
sg22
Nsg23
I00
sg24
S'L'
sbsg25
(irule
OffsetSpecification
p4328
(dp4329
g221
I-2
sbsg35
(irule
Guard
p4330
(dp4331
g18
I00
sg19
(lp4332
sg21
I00
sg22
Nsg23
I00
sg24
S'R'
sbsg49
(irule
ConstantPhoneme
p4333
(dp4334
S'p'
Ve
sbsg22
Nsba(irule
Rule
p4335
(dp4336
g15
(irule
Guard
p4337
(dp4338
g18
I00
sg19
(lp4339
(irule
FeatureMatrix
p4340
(dp4341
g28
(lp4342
sg22
Nsba(irule
FeatureMatrix
p4343
(dp4344
g28
(lp4345
(I00
g3312
tp4346
a(I01
g3104
tp4347
asg22
Nsbasg21
I00
sg22
Nsg23
I00
sg24
S'L'
sbsg25
(irule
OffsetSpecification
p4348
(dp4349
g221
I-2
sbsg35
(irule
Guard
p4350
(dp4351
g18
I00
sg19
(lp4352
sg21
I00
sg22
Nsg23
I00
sg24
S'R'
sbsg49
(irule
ConstantPhoneme
p4353
(dp4354
S'p'
Ve
sbsg22
Nsba(irule
Rule
p4355
(dp4356
g15
(irule
Guard
p4357
(dp4358
g18
I00
sg19
(lp4359
(irule
FeatureMatrix
p4360
(dp4361
g28
(lp4362
(I00
g3627
tp4363
asg22
Nsba(irule
FeatureMatrix
p4364
(dp4365
g28
(lp4366
(I01
g3104
tp4367
asg22
Nsbasg21
I00
sg22
Nsg23
I00
sg24
S'L'
sbsg25
(irule
OffsetSpecification
p4368
(dp4369
g221
I-2
sbsg35
(irule
Guard
p4370
(dp4371
g18
I00
sg19
(lp4372
sg21
I00
sg22
Nsg23
I00
sg24
S'R'
sbsg49
(irule
ConstantPhoneme
p4373
(dp4374
S'p'
Ve
sbsg22
Nsba(irule
Rule
p4375
(dp4376
g15
(irule
Guard
p4377
(dp4378
g18
I00
sg19
(lp4379
(irule
FeatureMatrix
p4380
(dp4381
g28
(lp4382
sg22
Nsba(irule
FeatureMatrix
p4383
(dp4384
g28
(lp4385
(I01
g2682
tp4386
a(I01
g2753
tp4387
asg22
Nsbasg21
I00
sg22
Nsg23
I00
sg24
S'L'
sbsg25
(irule
OffsetSpecification
p4388
(dp4389
g221
I-2
sbsg35
(irule
Guard
p4390
(dp4391
g18
I00
sg19
(lp4392
sg21
I00
sg22
Nsg23
I00
sg24
S'R'
sbsg49
(irule
ConstantPhoneme
p4393
(dp4394
S'p'
Ve
sbsg22
Nsba(irule
Rule
p4395
(dp4396
g15
(irule
Guard
p4397
(dp4398
g18
I00
sg19
(lp4399
(irule
FeatureMatrix
p4400
(dp4401
g28
(lp4402
(I00
g2753
tp4403
asg22
Nsba(irule
FeatureMatrix
p4404
(dp4405
g28
(lp4406
(I01
g2682
tp4407
asg22
Nsbasg21
I00
sg22
Nsg23
I00
sg24
S'L'
sbsg25
(irule
OffsetSpecification
p4408
(dp4409
g221
I-2
sbsg35
(irule
Guard
p4410
(dp4411
g18
I00
sg19
(lp4412
sg21
I00
sg22
Nsg23
I00
sg24
S'R'
sbsg49
(irule
ConstantPhoneme
p4413
(dp4414
S'p'
Ve
sbsg22
Nsba(irule
Rule
p4415
(dp4416
g15
(irule
Guard
p4417
(dp4418
g18
I00
sg19
(lp4419
(irule
FeatureMatrix
p4420
(dp4421
g28
(lp4422
sg22
Nsba(irule
FeatureMatrix
p4423
(dp4424
g28
(lp4425
(I00
g3255
tp4426
a(I01
g2682
tp4427
asg22
Nsbasg21
I00
sg22
Nsg23
I00
sg24
S'L'
sbsg25
(irule
OffsetSpecification
p4428
(dp4429
g221
I-2
sbsg35
(irule
Guard
p4430
(dp4431
g18
I00
sg19
(lp4432
sg21
I00
sg22
Nsg23
I00
sg24
S'R'
sbsg49
(irule
ConstantPhoneme
p4433
(dp4434
S'p'
Ve
sbsg22
Nsba(irule
Rule
p4435
(dp4436
g15
(irule
Guard
p4437
(dp4438
g18
I00
sg19
(lp4439
(irule
FeatureMatrix
p4440
(dp4441
g28
(lp4442
sg22
Nsba(irule
FeatureMatrix
p4443
(dp4444
g28
(lp4445
(I00
g3374
tp4446
a(I01
g2682
tp4447
asg22
Nsbasg21
I00
sg22
Nsg23
I00
sg24
S'L'
sbsg25
(irule
OffsetSpecification
p4448
(dp4449
g221
I-2
sbsg35
(irule
Guard
p4450
(dp4451
g18
I00
sg19
(lp4452
sg21
I00
sg22
Nsg23
I00
sg24
S'R'
sbsg49
(irule
ConstantPhoneme
p4453
(dp4454
S'p'
Ve
sbsg22
Nsba(irule
Rule
p4455
(dp4456
g15
(irule
Guard
p4457
(dp4458
g18
I00
sg19
(lp4459
(irule
FeatureMatrix
p4460
(dp4461
g28
(lp4462
sg22
Nsba(irule
FeatureMatrix
p4463
(dp4464
g28
(lp4465
(I01
g2682
tp4466
asg22
Nsbasg21
I00
sg22
Nsg23
I00
sg24
S'L'
sbsg25
(irule
OffsetSpecification
p4467
(dp4468
g221
I-2
sbsg35
(irule
Guard
p4469
(dp4470
g18
I00
sg19
(lp4471
(irule
FeatureMatrix
p4472
(dp4473
g28
(lp4474
(I00
g2703
tp4475
asg22
Nsbasg21
I00
sg22
Nsg23
I00
sg24
S'R'
sbsg49
(irule
FeatureMatrix
p4476
(dp4477
g28
(lp4478
sg22
Nsbsg22
Nsba(irule
Rule
p4479
(dp4480
g15
(irule
Guard
p4481
(dp4482
g18
I00
sg19
(lp4483
(irule
FeatureMatrix
p4484
(dp4485
g28
(lp4486
sg22
Nsba(irule
FeatureMatrix
p4487
(dp4488
g28
(lp4489
(I01
g3104
tp4490
asg22
Nsbasg21
I00
sg22
Nsg23
I00
sg24
S'L'
sbsg25
(irule
OffsetSpecification
p4491
(dp4492
g221
I-2
sbsg35
(irule
Guard
p4493
(dp4494
g18
I00
sg19
(lp4495
(irule
FeatureMatrix
p4496
(dp4497
g28
(lp4498
(I00
g2703
tp4499
asg22
Nsbasg21
I00
sg22
Nsg23
I00
sg24
S'R'
sbsg49
(irule
FeatureMatrix
p4500
(dp4501
g28
(lp4502
sg22
Nsbsg22
Nsba(irule
Rule
p4503
(dp4504
g15
(irule
Guard
p4505
(dp4506
g18
I00
sg19
(lp4507
(irule
FeatureMatrix
p4508
(dp4509
g28
(lp4510
(I00
g2662
tp4511
asg22
Nsba(irule
FeatureMatrix
p4512
(dp4513
g28
(lp4514
(I01
g2682
tp4515
asg22
Nsbasg21
I00
sg22
Nsg23
I00
sg24
S'L'
sbsg25
(irule
OffsetSpecification
p4516
(dp4517
g221
I-2
sbsg35
(irule
Guard
p4518
(dp4519
g18
I00
sg19
(lp4520
sg21
I00
sg22
Nsg23
I00
sg24
S'R'
sbsg49
(irule
ConstantPhoneme
p4521
(dp4522
S'p'
Ve
sbsg22
Nsba(irule
Rule
p4523
(dp4524
g15
(irule
Guard
p4525
(dp4526
g18
I00
sg19
(lp4527
(irule
FeatureMatrix
p4528
(dp4529
g28
(lp4530
sg22
Nsba(irule
FeatureMatrix
p4531
(dp4532
g28
(lp4533
(I01
g2682
tp4534
a(I00
g3173
tp4535
asg22
Nsbasg21
I00
sg22
Nsg23
I00
sg24
S'L'
sbsg25
(irule
OffsetSpecification
p4536
(dp4537
g221
I-2
sbsg35
(irule
Guard
p4538
(dp4539
g18
I00
sg19
(lp4540
sg21
I00
sg22
Nsg23
I00
sg24
S'R'
sbsg49
(irule
ConstantPhoneme
p4541
(dp4542
S'p'
Ve
sbsg22
Nsba(irule
Rule
p4543
(dp4544
g15
(irule
Guard
p4545
(dp4546
g18
I00
sg19
(lp4547
(irule
FeatureMatrix
p4548
(dp4549
g28
(lp4550
(I00
g2682
tp4551
asg22
Nsba(irule
FeatureMatrix
p4552
(dp4553
g28
(lp4554
(I01
g2682
tp4555
asg22
Nsbasg21
I00
sg22
Nsg23
I00
sg24
S'L'
sbsg25
(irule
OffsetSpecification
p4556
(dp4557
g221
I-2
sbsg35
(irule
Guard
p4558
(dp4559
g18
I00
sg19
(lp4560
sg21
I00
sg22
Nsg23
I00
sg24
S'R'
sbsg49
(irule
ConstantPhoneme
p4561
(dp4562
S'p'
Ve
sbsg22
Nsba(irule
Rule
p4563
(dp4564
g15
(irule
Guard
p4565
(dp4566
g18
I00
sg19
(lp4567
(irule
FeatureMatrix
p4568
(dp4569
g28
(lp4570
(I00
g2662
tp4571
asg22
Nsba(irule
FeatureMatrix
p4572
(dp4573
g28
(lp4574
(I01
g3104
tp4575
asg22
Nsbasg21
I00
sg22
Nsg23
I00
sg24
S'L'
sbsg25
(irule
OffsetSpecification
p4576
(dp4577
g221
I-2
sbsg35
(irule
Guard
p4578
(dp4579
g18
I00
sg19
(lp4580
sg21
I00
sg22
Nsg23
I00
sg24
S'R'
sbsg49
(irule
ConstantPhoneme
p4581
(dp4582
S'p'
Ve
sbsg22
Nsba(irule
Rule
p4583
(dp4584
g15
(irule
Guard
p4585
(dp4586
g18
I00
sg19
(lp4587
(irule
FeatureMatrix
p4588
(dp4589
g28
(lp4590
sg22
Nsba(irule
FeatureMatrix
p4591
(dp4592
g28
(lp4593
(I00
g2724
tp4594
a(I01
g3104
tp4595
asg22
Nsbasg21
I00
sg22
Nsg23
I00
sg24
S'L'
sbsg25
(irule
OffsetSpecification
p4596
(dp4597
g221
I-2
sbsg35
(irule
Guard
p4598
(dp4599
g18
I00
sg19
(lp4600
sg21
I00
sg22
Nsg23
I00
sg24
S'R'
sbsg49
(irule
ConstantPhoneme
p4601
(dp4602
S'p'
Ve
sbsg22
Nsba(irule
Rule
p4603
(dp4604
g15
(irule
Guard
p4605
(dp4606
g18
I00
sg19
(lp4607
(irule
FeatureMatrix
p4608
(dp4609
g28
(lp4610
(I00
g3627
tp4611
asg22
Nsba(irule
FeatureMatrix
p4612
(dp4613
g28
(lp4614
(I01
g2682
tp4615
asg22
Nsbasg21
I00
sg22
Nsg23
I00
sg24
S'L'
sbsg25
(irule
OffsetSpecification
p4616
(dp4617
g221
I-2
sbsg35
(irule
Guard
p4618
(dp4619
g18
I00
sg19
(lp4620
sg21
I00
sg22
Nsg23
I00
sg24
S'R'
sbsg49
(irule
ConstantPhoneme
p4621
(dp4622
S'p'
Ve
sbsg22
Nsba(irule
Rule
p4623
(dp4624
g15
(irule
Guard
p4625
(dp4626
g18
I00
sg19
(lp4627
(irule
FeatureMatrix
p4628
(dp4629
g28
(lp4630
sg22
Nsba(irule
FeatureMatrix
p4631
(dp4632
g28
(lp4633
(I00
g2974
tp4634
a(I01
g2682
tp4635
asg22
Nsbasg21
I00
sg22
Nsg23
I00
sg24
S'L'
sbsg25
(irule
OffsetSpecification
p4636
(dp4637
g221
I-2
sbsg35
(irule
Guard
p4638
(dp4639
g18
I00
sg19
(lp4640
sg21
I00
sg22
Nsg23
I00
sg24
S'R'
sbsg49
(irule
ConstantPhoneme
p4641
(dp4642
S'p'
Ve
sbsg22
Nsba(irule
Rule
p4643
(dp4644
g15
(irule
Guard
p4645
(dp4646
g18
I00
sg19
(lp4647
(irule
FeatureMatrix
p4648
(dp4649
g28
(lp4650
sg22
Nsba(irule
FeatureMatrix
p4651
(dp4652
g28
(lp4653
(I01
g2682
tp4654
a(I00
g3312
tp4655
asg22
Nsbasg21
I00
sg22
Nsg23
I00
sg24
S'L'
sbsg25
(irule
OffsetSpecification
p4656
(dp4657
g221
I-2
sbsg35
(irule
Guard
p4658
(dp4659
g18
I00
sg19
(lp4660
sg21
I00
sg22
Nsg23
I00
sg24
S'R'
sbsg49
(irule
ConstantPhoneme
p4661
(dp4662
S'p'
Ve
sbsg22
Nsba(irule
Rule
p4663
(dp4664
g15
(irule
Guard
p4665
(dp4666
g18
I00
sg19
(lp4667
(irule
FeatureMatrix
p4668
(dp4669
g28
(lp4670
sg22
Nsba(irule
FeatureMatrix
p4671
(dp4672
g28
(lp4673
(I01
g2703
tp4674
a(I01
g2682
tp4675
asg22
Nsbasg21
I00
sg22
Nsg23
I00
sg24
S'L'
sbsg25
(irule
OffsetSpecification
p4676
(dp4677
g221
I-2
sbsg35
(irule
Guard
p4678
(dp4679
g18
I00
sg19
(lp4680
sg21
I00
sg22
Nsg23
I00
sg24
S'R'
sbsg49
(irule
ConstantPhoneme
p4681
(dp4682
S'p'
Ve
sbsg22
Nsba(irule
Rule
p4683
(dp4684
g15
(irule
Guard
p4685
(dp4686
g18
I00
sg19
(lp4687
(irule
FeatureMatrix
p4688
(dp4689
g28
(lp4690
sg22
Nsba(irule
FeatureMatrix
p4691
(dp4692
g28
(lp4693
(I00
g3255
tp4694
a(I01
g3104
tp4695
asg22
Nsbasg21
I00
sg22
Nsg23
I00
sg24
S'L'
sbsg25
(irule
OffsetSpecification
p4696
(dp4697
g221
I-2
sbsg35
(irule
Guard
p4698
(dp4699
g18
I00
sg19
(lp4700
sg21
I00
sg22
Nsg23
I00
sg24
S'R'
sbsg49
(irule
ConstantPhoneme
p4701
(dp4702
S'p'
Ve
sbsg22
Nsba(irule
Rule
p4703
(dp4704
g15
(irule
Guard
p4705
(dp4706
g18
I00
sg19
(lp4707
(irule
FeatureMatrix
p4708
(dp4709
g28
(lp4710
sg22
Nsba(irule
FeatureMatrix
p4711
(dp4712
g28
(lp4713
(I00
g3374
tp4714
a(I01
g3104
tp4715
asg22
Nsbasg21
I00
sg22
Nsg23
I00
sg24
S'L'
sbsg25
(irule
OffsetSpecification
p4716
(dp4717
g221
I-2
sbsg35
(irule
Guard
p4718
(dp4719
g18
I00
sg19
(lp4720
sg21
I00
sg22
Nsg23
I00
sg24
S'R'
sbsg49
(irule
ConstantPhoneme
p4721
(dp4722
S'p'
Ve
sbsg22
Nsba(irule
Rule
p4723
(dp4724
g15
(irule
Guard
p4725
(dp4726
g18
I00
sg19
(lp4727
(irule
FeatureMatrix
p4728
(dp4729
g28
(lp4730
sg22
Nsba(irule
FeatureMatrix
p4731
(dp4732
g28
(lp4733
(I01
g2682
tp4734
a(I01
g2995
tp4735
asg22
Nsbasg21
I00
sg22
Nsg23
I00
sg24
S'L'
sbsg25
(irule
OffsetSpecification
p4736
(dp4737
g221
I-2
sbsg35
(irule
Guard
p4738
(dp4739
g18
I00
sg19
(lp4740
sg21
I00
sg22
Nsg23
I00
sg24
S'R'
sbsg49
(irule
ConstantPhoneme
p4741
(dp4742
S'p'
Ve
sbsg22
Nsba(irule
Rule
p4743
(dp4744
g15
(irule
Guard
p4745
(dp4746
g18
I00
sg19
(lp4747
(irule
FeatureMatrix
p4748
(dp4749
g28
(lp4750
sg22
Nsba(irule
FeatureMatrix
p4751
(dp4752
g28
(lp4753
(I01
g2703
tp4754
a(I01
g3104
tp4755
asg22
Nsbasg21
I00
sg22
Nsg23
I00
sg24
S'L'
sbsg25
(irule
OffsetSpecification
p4756
(dp4757
g221
I-2
sbsg35
(irule
Guard
p4758
(dp4759
g18
I00
sg19
(lp4760
sg21
I00
sg22
Nsg23
I00
sg24
S'R'
sbsg49
(irule
ConstantPhoneme
p4761
(dp4762
S'p'
Ve
sbsg22
Nsba(irule
Rule
p4763
(dp4764
g15
(irule
Guard
p4765
(dp4766
g18
I00
sg19
(lp4767
(irule
FeatureMatrix
p4768
(dp4769
g28
(lp4770
sg22
Nsba(irule
FeatureMatrix
p4771
(dp4772
g28
(lp4773
(I01
g3104
tp4774
a(I01
g2753
tp4775
asg22
Nsbasg21
I00
sg22
Nsg23
I00
sg24
S'L'
sbsg25
(irule
OffsetSpecification
p4776
(dp4777
g221
I-2
sbsg35
(irule
Guard
p4778
(dp4779
g18
I00
sg19
(lp4780
sg21
I00
sg22
Nsg23
I00
sg24
S'R'
sbsg49
(irule
ConstantPhoneme
p4781
(dp4782
S'p'
Ve
sbsg22
Nsba(irule
Rule
p4783
(dp4784
g15
(irule
Guard
p4785
(dp4786
g18
I00
sg19
(lp4787
(irule
FeatureMatrix
p4788
(dp4789
g28
(lp4790
sg22
Nsba(irule
FeatureMatrix
p4791
(dp4792
g28
(lp4793
(I01
g2682
tp4794
a(I01
g2766
tp4795
asg22
Nsbasg21
I00
sg22
Nsg23
I00
sg24
S'L'
sbsg25
(irule
OffsetSpecification
p4796
(dp4797
g221
I-2
sbsg35
(irule
Guard
p4798
(dp4799
g18
I00
sg19
(lp4800
sg21
I00
sg22
Nsg23
I00
sg24
S'R'
sbsg49
(irule
ConstantPhoneme
p4801
(dp4802
S'p'
Ve
sbsg22
Nsbaa(lp4803
(irule
Rule
p4804
(dp4805
g15
(irule
Guard
p4806
(dp4807
g18
I00
sg19
(lp4808
sg21
I00
sg22
V
sg23
I00
sg24
S'L'
sbsg25
(irule
FeatureMatrix
p4809
(dp4810
g28
(lp4811
(I01
S'high'
p4812
tp4813
a(I00
S'low'
tp4814
asg22
V[ +high -low ]
p4815
sbsg35
(irule
Guard
p4816
(dp4817
g18
I00
sg19
(lp4818
(irule
FeatureMatrix
p4819
(dp4820
g28
(lp4821
(I00
S'tense'
tp4822
asg22
V[ -tense ]
p4823
sba(irule
FeatureMatrix
p4824
(dp4825
g28
(lp4826
(I01
g4812
tp4827
asg22
V[ +high ]
p4828
sbasg21
I00
sg22
V[ -tense ] [ +high ]
p4829
sg23
I00
sg24
S'R'
sbsg49
(irule
FeatureMatrix
p4830
(dp4831
g28
(lp4832
sg22
V[  ]
p4833
sbsg22
V[  ] ---> [ +high -low ] /  _ [ -tense ] [ +high ]
p4834
sba(irule
Rule
p4835
(dp4836
g15
(irule
Guard
p4837
(dp4838
g18
I00
sg19
(lp4839
sg21
I00
sg22
Nsg23
I00
sg24
S'L'
sbsg25
(irule
FeatureMatrix
p4840
(dp4841
g28
(lp4842
(I01
S'high'
p4843
tp4844
a(I00
S'low'
p4845
tp4846
asg22
Nsbsg35
(irule
Guard
p4847
(dp4848
g18
I00
sg19
(lp4849
(irule
FeatureMatrix
p4850
(dp4851
g28
(lp4852
sg22
Nsba(irule
FeatureMatrix
p4853
(dp4854
g28
(lp4855
(I01
g4843
tp4856
asg22
Nsbasg21
I00
sg22
Nsg23
I00
sg24
S'R'
sbsg49
(irule
FeatureMatrix
p4857
(dp4858
g28
(lp4859
(I01
S'vowel'
p4860
tp4861
asg22
Nsbsg22
Nsba(irule
Rule
p4862
(dp4863
g15
(irule
Guard
p4864
(dp4865
g18
I00
sg19
(lp4866
sg21
I00
sg22
Nsg23
I00
sg24
S'L'
sbsg25
(irule
FeatureMatrix
p4867
(dp4868
g28
(lp4869
(I01
g4843
tp4870
a(I00
g4845
tp4871
asg22
Nsbsg35
(irule
Guard
p4872
(dp4873
g18
I00
sg19
(lp4874
(irule
FeatureMatrix
p4875
(dp4876
g28
(lp4877
sg22
Nsba(irule
FeatureMatrix
p4878
(dp4879
g28
(lp4880
(I00
S'nasal'
p4881
tp4882
a(I01
g4843
tp4883
asg22
Nsbasg21
I00
sg22
Nsg23
I00
sg24
S'R'
sbsg49
(irule
FeatureMatrix
p4884
(dp4885
g28
(lp4886
sg22
Nsbsg22
Nsba(irule
Rule
p4887
(dp4888
g15
(irule
Guard
p4889
(dp4890
g18
I00
sg19
(lp4891
sg21
I00
sg22
Nsg23
I00
sg24
S'L'
sbsg25
(irule
FeatureMatrix
p4892
(dp4893
g28
(lp4894
(I01
g4843
tp4895
a(I00
g4845
tp4896
asg22
Nsbsg35
(irule
Guard
p4897
(dp4898
g18
I00
sg19
(lp4899
(irule
FeatureMatrix
p4900
(dp4901
g28
(lp4902
sg22
Nsba(irule
FeatureMatrix
p4903
(dp4904
g28
(lp4905
(I01
g4843
tp4906
asg22
Nsbasg21
I00
sg22
Nsg23
I00
sg24
S'R'
sbsg49
(irule
FeatureMatrix
p4907
(dp4908
g28
(lp4909
(I01
S'tense'
p4910
tp4911
asg22
Nsbsg22
Nsba(irule
Rule
p4912
(dp4913
g15
(irule
Guard
p4914
(dp4915
g18
I00
sg19
(lp4916
sg21
I00
sg22
Nsg23
I00
sg24
S'L'
sbsg25
(irule
FeatureMatrix
p4917
(dp4918
g28
(lp4919
(I01
g4843
tp4920
a(I00
g4845
tp4921
asg22
Nsbsg35
(irule
Guard
p4922
(dp4923
g18
I00
sg19
(lp4924
(irule
FeatureMatrix
p4925
(dp4926
g28
(lp4927
sg22
Nsba(irule
FeatureMatrix
p4928
(dp4929
g28
(lp4930
(I01
S'continuant'
p4931
tp4932
a(I01
g4843
tp4933
asg22
Nsbasg21
I00
sg22
Nsg23
I00
sg24
S'R'
sbsg49
(irule
FeatureMatrix
p4934
(dp4935
g28
(lp4936
sg22
Nsbsg22
Nsba(irule
Rule
p4937
(dp4938
g15
(irule
Guard
p4939
(dp4940
g18
I00
sg19
(lp4941
sg21
I00
sg22
Nsg23
I00
sg24
S'L'
sbsg25
(irule
FeatureMatrix
p4942
(dp4943
g28
(lp4944
(I01
g4843
tp4945
a(I00
g4845
tp4946
asg22
Nsbsg35
(irule
Guard
p4947
(dp4948
g18
I00
sg19
(lp4949
(irule
FeatureMatrix
p4950
(dp4951
g28
(lp4952
sg22
Nsba(irule
FeatureMatrix
p4953
(dp4954
g28
(lp4955
(I01
g4843
tp4956
a(I01
g4860
tp4957
asg22
Nsbasg21
I00
sg22
Nsg23
I00
sg24
S'R'
sbsg49
(irule
FeatureMatrix
p4958
(dp4959
g28
(lp4960
sg22
Nsbsg22
Nsba(irule
Rule
p4961
(dp4962
g15
(irule
Guard
p4963
(dp4964
g18
I00
sg19
(lp4965
sg21
I00
sg22
Nsg23
I00
sg24
S'L'
sbsg25
(irule
FeatureMatrix
p4966
(dp4967
g28
(lp4968
(I01
g4843
tp4969
a(I00
g4845
tp4970
asg22
Nsbsg35
(irule
Guard
p4971
(dp4972
g18
I00
sg19
(lp4973
(irule
FeatureMatrix
p4974
(dp4975
g28
(lp4976
(I00
g4860
tp4977
asg22
Nsba(irule
FeatureMatrix
p4978
(dp4979
g28
(lp4980
(I01
g4843
tp4981
asg22
Nsbasg21
I00
sg22
Nsg23
I00
sg24
S'R'
sbsg49
(irule
FeatureMatrix
p4982
(dp4983
g28
(lp4984
sg22
Nsbsg22
Nsba(irule
Rule
p4985
(dp4986
g15
(irule
Guard
p4987
(dp4988
g18
I00
sg19
(lp4989
sg21
I00
sg22
Nsg23
I00
sg24
S'L'
sbsg25
(irule
FeatureMatrix
p4990
(dp4991
g28
(lp4992
(I01
g4843
tp4993
a(I00
g4845
tp4994
asg22
Nsbsg35
(irule
Guard
p4995
(dp4996
g18
I00
sg19
(lp4997
(irule
FeatureMatrix
p4998
(dp4999
g28
(lp5000
sg22
Nsba(irule
FeatureMatrix
p5001
(dp5002
g28
(lp5003
(I01
g4843
tp5004
a(I01
g4910
tp5005
asg22
Nsbasg21
I00
sg22
Nsg23
I00
sg24
S'R'
sbsg49
(irule
FeatureMatrix
p5006
(dp5007
g28
(lp5008
sg22
Nsbsg22
Nsba(irule
Rule
p5009
(dp5010
g15
(irule
Guard
p5011
(dp5012
g18
I00
sg19
(lp5013
sg21
I00
sg22
Nsg23
I00
sg24
S'L'
sbsg25
(irule
FeatureMatrix
p5014
(dp5015
g28
(lp5016
(I01
g4843
tp5017
a(I00
g4845
tp5018
a(I01
S'voice'
p5019
tp5020
asg22
Nsbsg35
(irule
Guard
p5021
(dp5022
g18
I00
sg19
(lp5023
(irule
FeatureMatrix
p5024
(dp5025
g28
(lp5026
sg22
Nsba(irule
FeatureMatrix
p5027
(dp5028
g28
(lp5029
(I00
g4881
tp5030
a(I01
g4843
tp5031
asg22
Nsbasg21
I00
sg22
Nsg23
I00
sg24
S'R'
sbsg49
(irule
FeatureMatrix
p5032
(dp5033
g28
(lp5034
sg22
Nsbsg22
Nsba(irule
Rule
p5035
(dp5036
g15
(irule
Guard
p5037
(dp5038
g18
I00
sg19
(lp5039
sg21
I00
sg22
Nsg23
I00
sg24
S'L'
sbsg25
(irule
FeatureMatrix
p5040
(dp5041
g28
(lp5042
(I01
g4843
tp5043
a(I00
S'coronal'
p5044
tp5045
a(I00
g4845
tp5046
asg22
Nsbsg35
(irule
Guard
p5047
(dp5048
g18
I00
sg19
(lp5049
(irule
FeatureMatrix
p5050
(dp5051
g28
(lp5052
sg22
Nsba(irule
FeatureMatrix
p5053
(dp5054
g28
(lp5055
(I01
g4843
tp5056
asg22
Nsbasg21
I00
sg22
Nsg23
I00
sg24
S'R'
sbsg49
(irule
FeatureMatrix
p5057
(dp5058
g28
(lp5059
(I01
g4910
tp5060
asg22
Nsbsg22
Nsba(irule
Rule
p5061
(dp5062
g15
(irule
Guard
p5063
(dp5064
g18
I00
sg19
(lp5065
sg21
I00
sg22
Nsg23
I00
sg24
S'L'
sbsg25
(irule
FeatureMatrix
p5066
(dp5067
g28
(lp5068
(I01
g4843
tp5069
a(I00
g4845
tp5070
asg22
Nsbsg35
(irule
Guard
p5071
(dp5072
g18
I00
sg19
(lp5073
(irule
FeatureMatrix
p5074
(dp5075
g28
(lp5076
(I00
g4845
tp5077
asg22
Nsba(irule
FeatureMatrix
p5078
(dp5079
g28
(lp5080
(I00
g4881
tp5081
a(I01
g4843
tp5082
asg22
Nsbasg21
I00
sg22
Nsg23
I00
sg24
S'R'
sbsg49
(irule
FeatureMatrix
p5083
(dp5084
g28
(lp5085
sg22
Nsbsg22
Nsba(irule
Rule
p5086
(dp5087
g15
(irule
Guard
p5088
(dp5089
g18
I00
sg19
(lp5090
sg21
I00
sg22
Nsg23
I00
sg24
S'L'
sbsg25
(irule
FeatureMatrix
p5091
(dp5092
g28
(lp5093
(I01
g4843
tp5094
a(I00
g4845
tp5095
asg22
Nsbsg35
(irule
Guard
p5096
(dp5097
g18
I00
sg19
(lp5098
(irule
FeatureMatrix
p5099
(dp5100
g28
(lp5101
sg22
Nsba(irule
FeatureMatrix
p5102
(dp5103
g28
(lp5104
(I00
g4881
tp5105
a(I01
g4843
tp5106
asg22
Nsbasg21
I00
sg22
Nsg23
I00
sg24
S'R'
sbsg49
(irule
FeatureMatrix
p5107
(dp5108
g28
(lp5109
(I01
g4910
tp5110
asg22
Nsbsg22
Nsba(irule
Rule
p5111
(dp5112
g15
(irule
Guard
p5113
(dp5114
g18
I00
sg19
(lp5115
sg21
I00
sg22
Nsg23
I00
sg24
S'L'
sbsg25
(irule
FeatureMatrix
p5116
(dp5117
g28
(lp5118
(I01
g4843
tp5119
a(I00
g4845
tp5120
asg22
Nsbsg35
(irule
Guard
p5121
(dp5122
g18
I00
sg19
(lp5123
(irule
FeatureMatrix
p5124
(dp5125
g28
(lp5126
sg22
Nsba(irule
FeatureMatrix
p5127
(dp5128
g28
(lp5129
(I00
g4881
tp5130
a(I01
S'sonorant'
p5131
tp5132
a(I01
g4843
tp5133
asg22
Nsbasg21
I00
sg22
Nsg23
I00
sg24
S'R'
sbsg49
(irule
FeatureMatrix
p5134
(dp5135
g28
(lp5136
sg22
Nsbsg22
Nsba(irule
Rule
p5137
(dp5138
g15
(irule
Guard
p5139
(dp5140
g18
I00
sg19
(lp5141
sg21
I00
sg22
Nsg23
I00
sg24
S'L'
sbsg25
(irule
FeatureMatrix
p5142
(dp5143
g28
(lp5144
(I01
g4843
tp5145
a(I00
g4845
tp5146
asg22
Nsbsg35
(irule
Guard
p5147
(dp5148
g18
I00
sg19
(lp5149
(irule
FeatureMatrix
p5150
(dp5151
g28
(lp5152
sg22
Nsba(irule
FeatureMatrix
p5153
(dp5154
g28
(lp5155
(I00
g4881
tp5156
a(I01
g4843
tp5157
a(I00
g5044
tp5158
asg22
Nsbasg21
I00
sg22
Nsg23
I00
sg24
S'R'
sbsg49
(irule
FeatureMatrix
p5159
(dp5160
g28
(lp5161
sg22
Nsbsg22
Nsba(irule
Rule
p5162
(dp5163
g15
(irule
Guard
p5164
(dp5165
g18
I00
sg19
(lp5166
sg21
I00
sg22
Nsg23
I00
sg24
S'L'
sbsg25
(irule
FeatureMatrix
p5167
(dp5168
g28
(lp5169
(I01
g4843
tp5170
a(I00
g4845
tp5171
asg22
Nsbsg35
(irule
Guard
p5172
(dp5173
g18
I00
sg19
(lp5174
(irule
FeatureMatrix
p5175
(dp5176
g28
(lp5177
(I00
g4910
tp5178
asg22
Nsba(irule
FeatureMatrix
p5179
(dp5180
g28
(lp5181
(I00
S'liquid'
p5182
tp5183
a(I01
g4843
tp5184
asg22
Nsbasg21
I00
sg22
Nsg23
I00
sg24
S'R'
sbsg49
(irule
FeatureMatrix
p5185
(dp5186
g28
(lp5187
sg22
Nsbsg22
Nsba(irule
Rule
p5188
(dp5189
g15
(irule
Guard
p5190
(dp5191
g18
I00
sg19
(lp5192
sg21
I00
sg22
Nsg23
I00
sg24
S'L'
sbsg25
(irule
FeatureMatrix
p5193
(dp5194
g28
(lp5195
(I01
g4843
tp5196
a(I00
g4845
tp5197
asg22
Nsbsg35
(irule
Guard
p5198
(dp5199
g18
I00
sg19
(lp5200
(irule
FeatureMatrix
p5201
(dp5202
g28
(lp5203
(I00
g4860
tp5204
asg22
Nsba(irule
FeatureMatrix
p5205
(dp5206
g28
(lp5207
(I00
g4881
tp5208
a(I01
g4843
tp5209
asg22
Nsbasg21
I00
sg22
Nsg23
I00
sg24
S'R'
sbsg49
(irule
FeatureMatrix
p5210
(dp5211
g28
(lp5212
sg22
Nsbsg22
Nsba(irule
Rule
p5213
(dp5214
g15
(irule
Guard
p5215
(dp5216
g18
I00
sg19
(lp5217
sg21
I00
sg22
Nsg23
I00
sg24
S'L'
sbsg25
(irule
FeatureMatrix
p5218
(dp5219
g28
(lp5220
(I01
g4843
tp5221
a(I00
g4845
tp5222
asg22
Nsbsg35
(irule
Guard
p5223
(dp5224
g18
I00
sg19
(lp5225
(irule
FeatureMatrix
p5226
(dp5227
g28
(lp5228
(I00
g4860
tp5229
asg22
Nsba(irule
FeatureMatrix
p5230
(dp5231
g28
(lp5232
(I01
g4843
tp5233
a(I00
g4845
tp5234
asg22
Nsbasg21
I00
sg22
Nsg23
I00
sg24
S'R'
sbsg49
(irule
FeatureMatrix
p5235
(dp5236
g28
(lp5237
sg22
Nsbsg22
Nsba(irule
Rule
p5238
(dp5239
g15
(irule
Guard
p5240
(dp5241
g18
I00
sg19
(lp5242
(irule
FeatureMatrix
p5243
(dp5244
g28
(lp5245
sg22
Nsbasg21
I00
sg22
Nsg23
I00
sg24
S'L'
sbsg25
(irule
FeatureMatrix
p5246
(dp5247
g28
(lp5248
(I01
g4843
tp5249
a(I00
g4845
tp5250
asg22
Nsbsg35
(irule
Guard
p5251
(dp5252
g18
I00
sg19
(lp5253
(irule
FeatureMatrix
p5254
(dp5255
g28
(lp5256
sg22
Nsba(irule
FeatureMatrix
p5257
(dp5258
g28
(lp5259
(I01
g4843
tp5260
asg22
Nsbasg21
I00
sg22
Nsg23
I00
sg24
S'R'
sbsg49
(irule
FeatureMatrix
p5261
(dp5262
g28
(lp5263
(I01
g4910
tp5264
asg22
Nsbsg22
Nsba(irule
Rule
p5265
(dp5266
g15
(irule
Guard
p5267
(dp5268
g18
I00
sg19
(lp5269
sg21
I00
sg22
Nsg23
I00
sg24
S'L'
sbsg25
(irule
FeatureMatrix
p5270
(dp5271
g28
(lp5272
(I01
g4843
tp5273
a(I00
g4845
tp5274
asg22
Nsbsg35
(irule
Guard
p5275
(dp5276
g18
I00
sg19
(lp5277
(irule
FeatureMatrix
p5278
(dp5279
g28
(lp5280
(I00
g4843
tp5281
asg22
Nsba(irule
FeatureMatrix
p5282
(dp5283
g28
(lp5284
(I00
g4881
tp5285
a(I01
g4843
tp5286
asg22
Nsbasg21
I00
sg22
Nsg23
I00
sg24
S'R'
sbsg49
(irule
FeatureMatrix
p5287
(dp5288
g28
(lp5289
sg22
Nsbsg22
Nsba(irule
Rule
p5290
(dp5291
g15
(irule
Guard
p5292
(dp5293
g18
I00
sg19
(lp5294
sg21
I00
sg22
Nsg23
I00
sg24
S'L'
sbsg25
(irule
FeatureMatrix
p5295
(dp5296
g28
(lp5297
(I01
g4843
tp5298
a(I00
g4845
tp5299
asg22
Nsbsg35
(irule
Guard
p5300
(dp5301
g18
I00
sg19
(lp5302
(irule
FeatureMatrix
p5303
(dp5304
g28
(lp5305
(I00
g4860
tp5306
asg22
Nsba(irule
FeatureMatrix
p5307
(dp5308
g28
(lp5309
(I01
g4931
tp5310
a(I01
g4843
tp5311
asg22
Nsbasg21
I00
sg22
Nsg23
I00
sg24
S'R'
sbsg49
(irule
FeatureMatrix
p5312
(dp5313
g28
(lp5314
sg22
Nsbsg22
Nsba(irule
Rule
p5315
(dp5316
g15
(irule
Guard
p5317
(dp5318
g18
I00
sg19
(lp5319
sg21
I00
sg22
Nsg23
I00
sg24
S'L'
sbsg25
(irule
FeatureMatrix
p5320
(dp5321
g28
(lp5322
(I01
g4843
tp5323
a(I00
g4845
tp5324
a(I00
S'sibilant'
p5325
tp5326
asg22
Nsbsg35
(irule
Guard
p5327
(dp5328
g18
I00
sg19
(lp5329
(irule
FeatureMatrix
p5330
(dp5331
g28
(lp5332
sg22
Nsba(irule
FeatureMatrix
p5333
(dp5334
g28
(lp5335
(I01
g4843
tp5336
asg22
Nsbasg21
I00
sg22
Nsg23
I00
sg24
S'R'
sbsg49
(irule
FeatureMatrix
p5337
(dp5338
g28
(lp5339
(I01
g4910
tp5340
asg22
Nsbsg22
Nsba(irule
Rule
p5341
(dp5342
g15
(irule
Guard
p5343
(dp5344
g18
I00
sg19
(lp5345
sg21
I00
sg22
Nsg23
I00
sg24
S'L'
sbsg25
(irule
FeatureMatrix
p5346
(dp5347
g28
(lp5348
(I01
g4843
tp5349
a(I00
g4845
tp5350
asg22
Nsbsg35
(irule
Guard
p5351
(dp5352
g18
I00
sg19
(lp5353
(irule
FeatureMatrix
p5354
(dp5355
g28
(lp5356
sg22
Nsba(irule
FeatureMatrix
p5357
(dp5358
g28
(lp5359
(I00
g4881
tp5360
a(I01
g4843
tp5361
a(I00
g5325
tp5362
asg22
Nsbasg21
I00
sg22
Nsg23
I00
sg24
S'R'
sbsg49
(irule
FeatureMatrix
p5363
(dp5364
g28
(lp5365
sg22
Nsbsg22
Nsba(irule
Rule
p5366
(dp5367
g15
(irule
Guard
p5368
(dp5369
g18
I00
sg19
(lp5370
sg21
I00
sg22
Nsg23
I00
sg24
S'L'
sbsg25
(irule
FeatureMatrix
p5371
(dp5372
g28
(lp5373
(I01
g4843
tp5374
a(I00
g4845
tp5375
asg22
Nsbsg35
(irule
Guard
p5376
(dp5377
g18
I00
sg19
(lp5378
(irule
FeatureMatrix
p5379
(dp5380
g28
(lp5381
sg22
Nsba(irule
FeatureMatrix
p5382
(dp5383
g28
(lp5384
(I00
S'lateral'
p5385
tp5386
a(I00
g4881
tp5387
a(I01
g4843
tp5388
asg22
Nsbasg21
I00
sg22
Nsg23
I00
sg24
S'R'
sbsg49
(irule
FeatureMatrix
p5389
(dp5390
g28
(lp5391
sg22
Nsbsg22
Nsba(irule
Rule
p5392
(dp5393
g15
(irule
Guard
p5394
(dp5395
g18
I00
sg19
(lp5396
sg21
I00
sg22
Nsg23
I00
sg24
S'L'
sbsg25
(irule
FeatureMatrix
p5397
(dp5398
g28
(lp5399
(I01
g4843
tp5400
a(I00
g4845
tp5401
asg22
Nsbsg35
(irule
Guard
p5402
(dp5403
g18
I00
sg19
(lp5404
(irule
FeatureMatrix
p5405
(dp5406
g28
(lp5407
sg22
Nsba(irule
FeatureMatrix
p5408
(dp5409
g28
(lp5410
(I00
g4881
tp5411
a(I01
g4843
tp5412
asg22
Nsbasg21
I00
sg22
Nsg23
I00
sg24
S'R'
sbsg49
(irule
FeatureMatrix
p5413
(dp5414
g28
(lp5415
(I01
g4860
tp5416
asg22
Nsbsg22
Nsba(irule
Rule
p5417
(dp5418
g15
(irule
Guard
p5419
(dp5420
g18
I00
sg19
(lp5421
sg21
I00
sg22
Nsg23
I00
sg24
S'L'
sbsg25
(irule
FeatureMatrix
p5422
(dp5423
g28
(lp5424
(I00
g5182
tp5425
a(I01
g4843
tp5426
a(I00
g4845
tp5427
asg22
Nsbsg35
(irule
Guard
p5428
(dp5429
g18
I00
sg19
(lp5430
(irule
FeatureMatrix
p5431
(dp5432
g28
(lp5433
(I00
g4910
tp5434
asg22
Nsba(irule
FeatureMatrix
p5435
(dp5436
g28
(lp5437
(I01
g4843
tp5438
asg22
Nsbasg21
I00
sg22
Nsg23
I00
sg24
S'R'
sbsg49
(irule
FeatureMatrix
p5439
(dp5440
g28
(lp5441
sg22
Nsbsg22
Nsba(irule
Rule
p5442
(dp5443
g15
(irule
Guard
p5444
(dp5445
g18
I00
sg19
(lp5446
sg21
I00
sg22
Nsg23
I00
sg24
S'L'
sbsg25
(irule
FeatureMatrix
p5447
(dp5448
g28
(lp5449
(I01
g4843
tp5450
a(I00
g4845
tp5451
asg22
Nsbsg35
(irule
Guard
p5452
(dp5453
g18
I00
sg19
(lp5454
(irule
FeatureMatrix
p5455
(dp5456
g28
(lp5457
sg22
Nsba(irule
FeatureMatrix
p5458
(dp5459
g28
(lp5460
(I01
g4843
tp5461
asg22
Nsbasg21
I00
sg22
Nsg23
I00
sg24
S'R'
sbsg49
(irule
FeatureMatrix
p5462
(dp5463
g28
(lp5464
(I00
g4843
tp5465
a(I01
g4860
tp5466
asg22
Nsbsg22
Nsba(irule
Rule
p5467
(dp5468
g15
(irule
Guard
p5469
(dp5470
g18
I00
sg19
(lp5471
(irule
FeatureMatrix
p5472
(dp5473
g28
(lp5474
sg22
Nsbasg21
I00
sg22
Nsg23
I00
sg24
S'L'
sbsg25
(irule
FeatureMatrix
p5475
(dp5476
g28
(lp5477
(I01
g4843
tp5478
a(I00
g4845
tp5479
asg22
Nsbsg35
(irule
Guard
p5480
(dp5481
g18
I00
sg19
(lp5482
(irule
FeatureMatrix
p5483
(dp5484
g28
(lp5485
(I00
g4860
tp5486
asg22
Nsba(irule
FeatureMatrix
p5487
(dp5488
g28
(lp5489
(I01
g4843
tp5490
asg22
Nsbasg21
I00
sg22
Nsg23
I00
sg24
S'R'
sbsg49
(irule
FeatureMatrix
p5491
(dp5492
g28
(lp5493
sg22
Nsbsg22
Nsba(irule
Rule
p5494
(dp5495
g15
(irule
Guard
p5496
(dp5497
g18
I00
sg19
(lp5498
sg21
I00
sg22
Nsg23
I00
sg24
S'L'
sbsg25
(irule
FeatureMatrix
p5499
(dp5500
g28
(lp5501
(I00
g5182
tp5502
a(I01
g4843
tp5503
a(I00
g4845
tp5504
asg22
Nsbsg35
(irule
Guard
p5505
(dp5506
g18
I00
sg19
(lp5507
(irule
FeatureMatrix
p5508
(dp5509
g28
(lp5510
sg22
Nsba(irule
FeatureMatrix
p5511
(dp5512
g28
(lp5513
(I00
g4881
tp5514
a(I01
g4843
tp5515
asg22
Nsbasg21
I00
sg22
Nsg23
I00
sg24
S'R'
sbsg49
(irule
FeatureMatrix
p5516
(dp5517
g28
(lp5518
sg22
Nsbsg22
Nsba(irule
Rule
p5519
(dp5520
g15
(irule
Guard
p5521
(dp5522
g18
I00
sg19
(lp5523
sg21
I00
sg22
Nsg23
I00
sg24
S'L'
sbsg25
(irule
FeatureMatrix
p5524
(dp5525
g28
(lp5526
(I01
g4843
tp5527
a(I00
g4845
tp5528
a(I01
g4860
tp5529
asg22
Nsbsg35
(irule
Guard
p5530
(dp5531
g18
I00
sg19
(lp5532
(irule
FeatureMatrix
p5533
(dp5534
g28
(lp5535
sg22
Nsba(irule
FeatureMatrix
p5536
(dp5537
g28
(lp5538
(I00
g4881
tp5539
a(I01
g4843
tp5540
asg22
Nsbasg21
I00
sg22
Nsg23
I00
sg24
S'R'
sbsg49
(irule
FeatureMatrix
p5541
(dp5542
g28
(lp5543
sg22
Nsbsg22
Nsba(irule
Rule
p5544
(dp5545
g15
(irule
Guard
p5546
(dp5547
g18
I00
sg19
(lp5548
sg21
I00
sg22
Nsg23
I00
sg24
S'L'
sbsg25
(irule
FeatureMatrix
p5549
(dp5550
g28
(lp5551
(I01
g4843
tp5552
a(I00
g4845
tp5553
a(I00
g5325
tp5554
asg22
Nsbsg35
(irule
Guard
p5555
(dp5556
g18
I00
sg19
(lp5557
(irule
FeatureMatrix
p5558
(dp5559
g28
(lp5560
sg22
Nsba(irule
FeatureMatrix
p5561
(dp5562
g28
(lp5563
(I00
g4881
tp5564
a(I01
g4843
tp5565
asg22
Nsbasg21
I00
sg22
Nsg23
I00
sg24
S'R'
sbsg49
(irule
FeatureMatrix
p5566
(dp5567
g28
(lp5568
sg22
Nsbsg22
Nsba(irule
Rule
p5569
(dp5570
g15
(irule
Guard
p5571
(dp5572
g18
I00
sg19
(lp5573
sg21
I00
sg22
Nsg23
I00
sg24
S'L'
sbsg25
(irule
FeatureMatrix
p5574
(dp5575
g28
(lp5576
(I01
g4931
tp5577
a(I01
g4843
tp5578
a(I00
g4845
tp5579
asg22
Nsbsg35
(irule
Guard
p5580
(dp5581
g18
I00
sg19
(lp5582
(irule
FeatureMatrix
p5583
(dp5584
g28
(lp5585
sg22
Nsba(irule
FeatureMatrix
p5586
(dp5587
g28
(lp5588
(I01
g4843
tp5589
asg22
Nsbasg21
I00
sg22
Nsg23
I00
sg24
S'R'
sbsg49
(irule
FeatureMatrix
p5590
(dp5591
g28
(lp5592
(I01
g4910
tp5593
asg22
Nsbsg22
Nsba(irule
Rule
p5594
(dp5595
g15
(irule
Guard
p5596
(dp5597
g18
I00
sg19
(lp5598
sg21
I00
sg22
Nsg23
I00
sg24
S'L'
sbsg25
(irule
FeatureMatrix
p5599
(dp5600
g28
(lp5601
(I01
g4843
tp5602
a(I00
g4845
tp5603
asg22
Nsbsg35
(irule
Guard
p5604
(dp5605
g18
I00
sg19
(lp5606
(irule
FeatureMatrix
p5607
(dp5608
g28
(lp5609
sg22
Nsba(irule
FeatureMatrix
p5610
(dp5611
g28
(lp5612
(I01
g5131
tp5613
a(I01
g4843
tp5614
asg22
Nsbasg21
I00
sg22
Nsg23
I00
sg24
S'R'
sbsg49
(irule
FeatureMatrix
p5615
(dp5616
g28
(lp5617
(I01
g4910
tp5618
asg22
Nsbsg22
Nsba(irule
Rule
p5619
(dp5620
g15
(irule
Guard
p5621
(dp5622
g18
I00
sg19
(lp5623
sg21
I00
sg22
Nsg23
I00
sg24
S'L'
sbsg25
(irule
FeatureMatrix
p5624
(dp5625
g28
(lp5626
(I01
g4843
tp5627
a(I01
g4910
tp5628
a(I00
g4845
tp5629
asg22
Nsbsg35
(irule
Guard
p5630
(dp5631
g18
I00
sg19
(lp5632
(irule
FeatureMatrix
p5633
(dp5634
g28
(lp5635
sg22
Nsba(irule
FeatureMatrix
p5636
(dp5637
g28
(lp5638
(I01
g4843
tp5639
asg22
Nsbasg21
I00
sg22
Nsg23
I00
sg24
S'R'
sbsg49
(irule
FeatureMatrix
p5640
(dp5641
g28
(lp5642
(I01
g4910
tp5643
asg22
Nsbsg22
Nsba(irule
Rule
p5644
(dp5645
g15
(irule
Guard
p5646
(dp5647
g18
I00
sg19
(lp5648
sg21
I00
sg22
Nsg23
I00
sg24
S'L'
sbsg25
(irule
FeatureMatrix
p5649
(dp5650
g28
(lp5651
(I00
g5182
tp5652
a(I01
g4843
tp5653
a(I00
g4845
tp5654
asg22
Nsbsg35
(irule
Guard
p5655
(dp5656
g18
I00
sg19
(lp5657
(irule
FeatureMatrix
p5658
(dp5659
g28
(lp5660
(I00
g4860
tp5661
asg22
Nsba(irule
FeatureMatrix
p5662
(dp5663
g28
(lp5664
(I01
g4843
tp5665
asg22
Nsbasg21
I00
sg22
Nsg23
I00
sg24
S'R'
sbsg49
(irule
FeatureMatrix
p5666
(dp5667
g28
(lp5668
sg22
Nsbsg22
Nsba(irule
Rule
p5669
(dp5670
g15
(irule
Guard
p5671
(dp5672
g18
I00
sg19
(lp5673
sg21
I00
sg22
Nsg23
I00
sg24
S'L'
sbsg25
(irule
FeatureMatrix
p5674
(dp5675
g28
(lp5676
(I01
g4843
tp5677
a(I00
g4845
tp5678
asg22
Nsbsg35
(irule
Guard
p5679
(dp5680
g18
I00
sg19
(lp5681
(irule
FeatureMatrix
p5682
(dp5683
g28
(lp5684
sg22
Nsba(irule
FeatureMatrix
p5685
(dp5686
g28
(lp5687
(I00
g5182
tp5688
a(I00
g4881
tp5689
a(I01
g4843
tp5690
asg22
Nsbasg21
I00
sg22
Nsg23
I00
sg24
S'R'
sbsg49
(irule
FeatureMatrix
p5691
(dp5692
g28
(lp5693
sg22
Nsbsg22
Nsba(irule
Rule
p5694
(dp5695
g15
(irule
Guard
p5696
(dp5697
g18
I00
sg19
(lp5698
sg21
I00
sg22
Nsg23
I00
sg24
S'L'
sbsg25
(irule
FeatureMatrix
p5699
(dp5700
g28
(lp5701
(I01
g4843
tp5702
a(I00
g4845
tp5703
asg22
Nsbsg35
(irule
Guard
p5704
(dp5705
g18
I00
sg19
(lp5706
(irule
FeatureMatrix
p5707
(dp5708
g28
(lp5709
sg22
Nsba(irule
FeatureMatrix
p5710
(dp5711
g28
(lp5712
(I01
g4843
tp5713
a(I01
g4860
tp5714
a(I00
g5325
tp5715
asg22
Nsbasg21
I00
sg22
Nsg23
I00
sg24
S'R'
sbsg49
(irule
FeatureMatrix
p5716
(dp5717
g28
(lp5718
sg22
Nsbsg22
Nsba(irule
Rule
p5719
(dp5720
g15
(irule
Guard
p5721
(dp5722
g18
I00
sg19
(lp5723
sg21
I00
sg22
Nsg23
I00
sg24
S'L'
sbsg25
(irule
FeatureMatrix
p5724
(dp5725
g28
(lp5726
(I01
g4843
tp5727
a(I00
g4845
tp5728
asg22
Nsbsg35
(irule
Guard
p5729
(dp5730
g18
I00
sg19
(lp5731
(irule
FeatureMatrix
p5732
(dp5733
g28
(lp5734
(I00
S'back'
tp5735
asg22
Nsba(irule
FeatureMatrix
p5736
(dp5737
g28
(lp5738
(I00
g4881
tp5739
a(I01
g4843
tp5740
asg22
Nsbasg21
I00
sg22
Nsg23
I00
sg24
S'R'
sbsg49
(irule
FeatureMatrix
p5741
(dp5742
g28
(lp5743
sg22
Nsbsg22
Nsba(irule
Rule
p5744
(dp5745
g15
(irule
Guard
p5746
(dp5747
g18
I00
sg19
(lp5748
sg21
I00
sg22
Nsg23
I00
sg24
S'L'
sbsg25
(irule
FeatureMatrix
p5749
(dp5750
g28
(lp5751
(I01
g4843
tp5752
a(I00
g4845
tp5753
a(I01
g5019
tp5754
asg22
Nsbsg35
(irule
Guard
p5755
(dp5756
g18
I00
sg19
(lp5757
(irule
FeatureMatrix
p5758
(dp5759
g28
(lp5760
sg22
Nsba(irule
FeatureMatrix
p5761
(dp5762
g28
(lp5763
(I01
g4843
tp5764
asg22
Nsbasg21
I00
sg22
Nsg23
I00
sg24
S'R'
sbsg49
(irule
FeatureMatrix
p5765
(dp5766
g28
(lp5767
(I01
g4910
tp5768
asg22
Nsbsg22
Nsba(irule
Rule
p5769
(dp5770
g15
(irule
Guard
p5771
(dp5772
g18
I00
sg19
(lp5773
sg21
I00
sg22
Nsg23
I00
sg24
S'L'
sbsg25
(irule
FeatureMatrix
p5774
(dp5775
g28
(lp5776
(I01
g4843
tp5777
a(I00
g4845
tp5778
asg22
Nsbsg35
(irule
Guard
p5779
(dp5780
g18
I00
sg19
(lp5781
(irule
FeatureMatrix
p5782
(dp5783
g28
(lp5784
(I00
g4860
tp5785
asg22
Nsba(irule
FeatureMatrix
p5786
(dp5787
g28
(lp5788
(I01
g4843
tp5789
asg22
Nsbasg21
I00
sg22
Nsg23
I00
sg24
S'R'
sbsg49
(irule
FeatureMatrix
p5790
(dp5791
g28
(lp5792
(I01
g4910
tp5793
asg22
Nsbsg22
Nsba(irule
Rule
p5794
(dp5795
g15
(irule
Guard
p5796
(dp5797
g18
I00
sg19
(lp5798
sg21
I00
sg22
Nsg23
I00
sg24
S'L'
sbsg25
(irule
FeatureMatrix
p5799
(dp5800
g28
(lp5801
(I01
g4843
tp5802
a(I00
g4845
tp5803
asg22
Nsbsg35
(irule
Guard
p5804
(dp5805
g18
I00
sg19
(lp5806
(irule
FeatureMatrix
p5807
(dp5808
g28
(lp5809
sg22
Nsba(irule
FeatureMatrix
p5810
(dp5811
g28
(lp5812
(I00
g4881
tp5813
a(I01
g4843
tp5814
asg22
Nsbasg21
I00
sg22
Nsg23
I00
sg24
S'R'
sbsg49
(irule
FeatureMatrix
p5815
(dp5816
g28
(lp5817
(I00
g5044
tp5818
asg22
Nsbsg22
Nsba(irule
Rule
p5819
(dp5820
g15
(irule
Guard
p5821
(dp5822
g18
I00
sg19
(lp5823
sg21
I00
sg22
Nsg23
I00
sg24
S'L'
sbsg25
(irule
FeatureMatrix
p5824
(dp5825
g28
(lp5826
(I01
g4843
tp5827
a(I00
g4845
tp5828
asg22
Nsbsg35
(irule
Guard
p5829
(dp5830
g18
I00
sg19
(lp5831
(irule
FeatureMatrix
p5832
(dp5833
g28
(lp5834
sg22
Nsba(irule
FeatureMatrix
p5835
(dp5836
g28
(lp5837
(I00
g4881
tp5838
a(I01
g4843
tp5839
a(I01
g5019
tp5840
asg22
Nsbasg21
I00
sg22
Nsg23
I00
sg24
S'R'
sbsg49
(irule
FeatureMatrix
p5841
(dp5842
g28
(lp5843
sg22
Nsbsg22
Nsba(irule
Rule
p5844
(dp5845
g15
(irule
Guard
p5846
(dp5847
g18
I00
sg19
(lp5848
sg21
I00
sg22
Nsg23
I00
sg24
S'L'
sbsg25
(irule
FeatureMatrix
p5849
(dp5850
g28
(lp5851
(I01
g4843
tp5852
a(I00
g4845
tp5853
asg22
Nsbsg35
(irule
Guard
p5854
(dp5855
g18
I00
sg19
(lp5856
(irule
FeatureMatrix
p5857
(dp5858
g28
(lp5859
sg22
Nsba(irule
FeatureMatrix
p5860
(dp5861
g28
(lp5862
(I00
g4881
tp5863
a(I01
g4843
tp5864
asg22
Nsbasg21
I00
sg22
Nsg23
I00
sg24
S'R'
sbsg49
(irule
FeatureMatrix
p5865
(dp5866
g28
(lp5867
(I00
g4843
tp5868
asg22
Nsbsg22
Nsba(irule
Rule
p5869
(dp5870
g15
(irule
Guard
p5871
(dp5872
g18
I00
sg19
(lp5873
sg21
I00
sg22
Nsg23
I00
sg24
S'L'
sbsg25
(irule
FeatureMatrix
p5874
(dp5875
g28
(lp5876
(I01
g4843
tp5877
a(I00
g4845
tp5878
asg22
Nsbsg35
(irule
Guard
p5879
(dp5880
g18
I00
sg19
(lp5881
(irule
FeatureMatrix
p5882
(dp5883
g28
(lp5884
(I00
S'long'
p5885
tp5886
asg22
Nsba(irule
FeatureMatrix
p5887
(dp5888
g28
(lp5889
(I00
g4881
tp5890
a(I01
g4843
tp5891
asg22
Nsbasg21
I00
sg22
Nsg23
I00
sg24
S'R'
sbsg49
(irule
FeatureMatrix
p5892
(dp5893
g28
(lp5894
sg22
Nsbsg22
Nsba(irule
Rule
p5895
(dp5896
g15
(irule
Guard
p5897
(dp5898
g18
I00
sg19
(lp5899
sg21
I00
sg22
Nsg23
I00
sg24
S'L'
sbsg25
(irule
FeatureMatrix
p5900
(dp5901
g28
(lp5902
(I00
g5182
tp5903
a(I01
g4843
tp5904
a(I00
g4845
tp5905
asg22
Nsbsg35
(irule
Guard
p5906
(dp5907
g18
I00
sg19
(lp5908
(irule
FeatureMatrix
p5909
(dp5910
g28
(lp5911
sg22
Nsba(irule
FeatureMatrix
p5912
(dp5913
g28
(lp5914
(I01
g4843
tp5915
asg22
Nsbasg21
I00
sg22
Nsg23
I00
sg24
S'R'
sbsg49
(irule
FeatureMatrix
p5916
(dp5917
g28
(lp5918
(I01
g4860
tp5919
asg22
Nsbsg22
Nsba(irule
Rule
p5920
(dp5921
g15
(irule
Guard
p5922
(dp5923
g18
I00
sg19
(lp5924
sg21
I00
sg22
Nsg23
I00
sg24
S'L'
sbsg25
(irule
FeatureMatrix
p5925
(dp5926
g28
(lp5927
(I00
g4881
tp5928
a(I01
g4843
tp5929
a(I00
g4845
tp5930
asg22
Nsbsg35
(irule
Guard
p5931
(dp5932
g18
I00
sg19
(lp5933
(irule
FeatureMatrix
p5934
(dp5935
g28
(lp5936
sg22
Nsba(irule
FeatureMatrix
p5937
(dp5938
g28
(lp5939
(I01
g4843
tp5940
asg22
Nsbasg21
I00
sg22
Nsg23
I00
sg24
S'R'
sbsg49
(irule
FeatureMatrix
p5941
(dp5942
g28
(lp5943
(I01
g4910
tp5944
asg22
Nsbsg22
Nsba(irule
Rule
p5945
(dp5946
g15
(irule
Guard
p5947
(dp5948
g18
I00
sg19
(lp5949
sg21
I00
sg22
Nsg23
I00
sg24
S'L'
sbsg25
(irule
FeatureMatrix
p5950
(dp5951
g28
(lp5952
(I01
g4843
tp5953
a(I00
g4845
tp5954
asg22
Nsbsg35
(irule
Guard
p5955
(dp5956
g18
I00
sg19
(lp5957
(irule
FeatureMatrix
p5958
(dp5959
g28
(lp5960
(I00
S'rounded'
p5961
tp5962
asg22
Nsba(irule
FeatureMatrix
p5963
(dp5964
g28
(lp5965
(I00
g4881
tp5966
a(I01
g4843
tp5967
asg22
Nsbasg21
I00
sg22
Nsg23
I00
sg24
S'R'
sbsg49
(irule
FeatureMatrix
p5968
(dp5969
g28
(lp5970
sg22
Nsbsg22
Nsba(irule
Rule
p5971
(dp5972
g15
(irule
Guard
p5973
(dp5974
g18
I00
sg19
(lp5975
sg21
I00
sg22
Nsg23
I00
sg24
S'L'
sbsg25
(irule
FeatureMatrix
p5976
(dp5977
g28
(lp5978
(I01
g4843
tp5979
a(I00
g5044
tp5980
a(I00
g4845
tp5981
asg22
Nsbsg35
(irule
Guard
p5982
(dp5983
g18
I00
sg19
(lp5984
(irule
FeatureMatrix
p5985
(dp5986
g28
(lp5987
sg22
Nsba(irule
FeatureMatrix
p5988
(dp5989
g28
(lp5990
(I00
g4881
tp5991
a(I01
g4843
tp5992
asg22
Nsbasg21
I00
sg22
Nsg23
I00
sg24
S'R'
sbsg49
(irule
FeatureMatrix
p5993
(dp5994
g28
(lp5995
sg22
Nsbsg22
Nsba(irule
Rule
p5996
(dp5997
g15
(irule
Guard
p5998
(dp5999
g18
I00
sg19
(lp6000
(irule
FeatureMatrix
p6001
(dp6002
g28
(lp6003
sg22
Nsbasg21
I00
sg22
Nsg23
I00
sg24
S'L'
sbsg25
(irule
FeatureMatrix
p6004
(dp6005
g28
(lp6006
(I01
g4843
tp6007
a(I00
g4845
tp6008
asg22
Nsbsg35
(irule
Guard
p6009
(dp6010
g18
I00
sg19
(lp6011
(irule
FeatureMatrix
p6012
(dp6013
g28
(lp6014
sg22
Nsba(irule
FeatureMatrix
p6015
(dp6016
g28
(lp6017
(I01
g4843
tp6018
asg22
Nsbasg21
I00
sg22
Nsg23
I00
sg24
S'R'
sbsg49
(irule
FeatureMatrix
p6019
(dp6020
g28
(lp6021
(I01
g4860
tp6022
asg22
Nsbsg22
Nsba(irule
Rule
p6023
(dp6024
g15
(irule
Guard
p6025
(dp6026
g18
I00
sg19
(lp6027
sg21
I00
sg22
Nsg23
I00
sg24
S'L'
sbsg25
(irule
FeatureMatrix
p6028
(dp6029
g28
(lp6030
(I00
g5182
tp6031
a(I01
g4843
tp6032
a(I00
g4845
tp6033
asg22
Nsbsg35
(irule
Guard
p6034
(dp6035
g18
I00
sg19
(lp6036
(irule
FeatureMatrix
p6037
(dp6038
g28
(lp6039
sg22
Nsba(irule
FeatureMatrix
p6040
(dp6041
g28
(lp6042
(I01
g4843
tp6043
asg22
Nsbasg21
I00
sg22
Nsg23
I00
sg24
S'R'
sbsg49
(irule
FeatureMatrix
p6044
(dp6045
g28
(lp6046
(I01
g4910
tp6047
asg22
Nsbsg22
Nsba(irule
Rule
p6048
(dp6049
g15
(irule
Guard
p6050
(dp6051
g18
I00
sg19
(lp6052
sg21
I00
sg22
Nsg23
I00
sg24
S'L'
sbsg25
(irule
FeatureMatrix
p6053
(dp6054
g28
(lp6055
(I01
g4843
tp6056
a(I00
g4845
tp6057
asg22
Nsbsg35
(irule
Guard
p6058
(dp6059
g18
I00
sg19
(lp6060
(irule
FeatureMatrix
p6061
(dp6062
g28
(lp6063
(I00
g4910
tp6064
asg22
Nsba(irule
FeatureMatrix
p6065
(dp6066
g28
(lp6067
(I00
g4881
tp6068
a(I01
g4843
tp6069
asg22
Nsbasg21
I00
sg22
Nsg23
I00
sg24
S'R'
sbsg49
(irule
FeatureMatrix
p6070
(dp6071
g28
(lp6072
sg22
Nsbsg22
Nsba(irule
Rule
p6073
(dp6074
g15
(irule
Guard
p6075
(dp6076
g18
I00
sg19
(lp6077
sg21
I00
sg22
Nsg23
I00
sg24
S'L'
sbsg25
(irule
FeatureMatrix
p6078
(dp6079
g28
(lp6080
(I01
g4843
tp6081
a(I00
g5044
tp6082
a(I00
g4845
tp6083
asg22
Nsbsg35
(irule
Guard
p6084
(dp6085
g18
I00
sg19
(lp6086
(irule
FeatureMatrix
p6087
(dp6088
g28
(lp6089
sg22
Nsba(irule
FeatureMatrix
p6090
(dp6091
g28
(lp6092
(I01
g4931
tp6093
a(I01
g4843
tp6094
asg22
Nsbasg21
I00
sg22
Nsg23
I00
sg24
S'R'
sbsg49
(irule
FeatureMatrix
p6095
(dp6096
g28
(lp6097
sg22
Nsbsg22
Nsba(irule
Rule
p6098
(dp6099
g15
(irule
Guard
p6100
(dp6101
g18
I00
sg19
(lp6102
sg21
I00
sg22
Nsg23
I00
sg24
S'L'
sbsg25
(irule
FeatureMatrix
p6103
(dp6104
g28
(lp6105
(I01
g5131
tp6106
a(I01
g4843
tp6107
a(I00
g4845
tp6108
asg22
Nsbsg35
(irule
Guard
p6109
(dp6110
g18
I00
sg19
(lp6111
(irule
FeatureMatrix
p6112
(dp6113
g28
(lp6114
sg22
Nsba(irule
FeatureMatrix
p6115
(dp6116
g28
(lp6117
(I01
g4843
tp6118
asg22
Nsbasg21
I00
sg22
Nsg23
I00
sg24
S'R'
sbsg49
(irule
FeatureMatrix
p6119
(dp6120
g28
(lp6121
(I01
g4910
tp6122
asg22
Nsbsg22
Nsba(irule
Rule
p6123
(dp6124
g15
(irule
Guard
p6125
(dp6126
g18
I00
sg19
(lp6127
(irule
FeatureMatrix
p6128
(dp6129
g28
(lp6130
sg22
Nsbasg21
I00
sg22
Nsg23
I00
sg24
S'L'
sbsg25
(irule
FeatureMatrix
p6131
(dp6132
g28
(lp6133
(I01
g4843
tp6134
a(I00
g4845
tp6135
asg22
Nsbsg35
(irule
Guard
p6136
(dp6137
g18
I00
sg19
(lp6138
(irule
FeatureMatrix
p6139
(dp6140
g28
(lp6141
sg22
Nsba(irule
FeatureMatrix
p6142
(dp6143
g28
(lp6144
(I00
g4881
tp6145
a(I01
g4843
tp6146
asg22
Nsbasg21
I00
sg22
Nsg23
I00
sg24
S'R'
sbsg49
(irule
FeatureMatrix
p6147
(dp6148
g28
(lp6149
sg22
Nsbsg22
Nsba(irule
Rule
p6150
(dp6151
g15
(irule
Guard
p6152
(dp6153
g18
I00
sg19
(lp6154
sg21
I00
sg22
Nsg23
I00
sg24
S'L'
sbsg25
(irule
FeatureMatrix
p6155
(dp6156
g28
(lp6157
(I01
g4843
tp6158
a(I00
g4845
tp6159
asg22
Nsbsg35
(irule
Guard
p6160
(dp6161
g18
I00
sg19
(lp6162
(irule
FeatureMatrix
p6163
(dp6164
g28
(lp6165
(I00
g4860
tp6166
asg22
Nsba(irule
FeatureMatrix
p6167
(dp6168
g28
(lp6169
(I00
g5385
tp6170
a(I01
g4843
tp6171
asg22
Nsbasg21
I00
sg22
Nsg23
I00
sg24
S'R'
sbsg49
(irule
FeatureMatrix
p6172
(dp6173
g28
(lp6174
sg22
Nsbsg22
Nsba(irule
Rule
p6175
(dp6176
g15
(irule
Guard
p6177
(dp6178
g18
I00
sg19
(lp6179
sg21
I00
sg22
Nsg23
I00
sg24
S'L'
sbsg25
(irule
FeatureMatrix
p6180
(dp6181
g28
(lp6182
(I01
g4843
tp6183
a(I00
g4845
tp6184
asg22
Nsbsg35
(irule
Guard
p6185
(dp6186
g18
I00
sg19
(lp6187
(irule
FeatureMatrix
p6188
(dp6189
g28
(lp6190
(I00
g4910
tp6191
asg22
Nsba(irule
FeatureMatrix
p6192
(dp6193
g28
(lp6194
(I00
g5385
tp6195
a(I01
g4843
tp6196
asg22
Nsbasg21
I00
sg22
Nsg23
I00
sg24
S'R'
sbsg49
(irule
FeatureMatrix
p6197
(dp6198
g28
(lp6199
sg22
Nsbsg22
Nsba(irule
Rule
p6200
(dp6201
g15
(irule
Guard
p6202
(dp6203
g18
I00
sg19
(lp6204
sg21
I00
sg22
Nsg23
I00
sg24
S'L'
sbsg25
(irule
FeatureMatrix
p6205
(dp6206
g28
(lp6207
(I01
g4843
tp6208
a(I00
g4845
tp6209
a(I01
g5019
tp6210
asg22
Nsbsg35
(irule
Guard
p6211
(dp6212
g18
I00
sg19
(lp6213
(irule
FeatureMatrix
p6214
(dp6215
g28
(lp6216
sg22
Nsba(irule
FeatureMatrix
p6217
(dp6218
g28
(lp6219
(I01
g4931
tp6220
a(I01
g4843
tp6221
asg22
Nsbasg21
I00
sg22
Nsg23
I00
sg24
S'R'
sbsg49
(irule
FeatureMatrix
p6222
(dp6223
g28
(lp6224
sg22
Nsbsg22
Nsba(irule
Rule
p6225
(dp6226
g15
(irule
Guard
p6227
(dp6228
g18
I00
sg19
(lp6229
sg21
I00
sg22
Nsg23
I00
sg24
S'L'
sbsg25
(irule
FeatureMatrix
p6230
(dp6231
g28
(lp6232
(I00
g4881
tp6233
a(I01
g4843
tp6234
a(I00
g4845
tp6235
asg22
Nsbsg35
(irule
Guard
p6236
(dp6237
g18
I00
sg19
(lp6238
(irule
FeatureMatrix
p6239
(dp6240
g28
(lp6241
sg22
Nsba(irule
FeatureMatrix
p6242
(dp6243
g28
(lp6244
(I00
g4881
tp6245
a(I01
g4843
tp6246
asg22
Nsbasg21
I00
sg22
Nsg23
I00
sg24
S'R'
sbsg49
(irule
FeatureMatrix
p6247
(dp6248
g28
(lp6249
sg22
Nsbsg22
Nsba(irule
Rule
p6250
(dp6251
g15
(irule
Guard
p6252
(dp6253
g18
I00
sg19
(lp6254
sg21
I00
sg22
Nsg23
I00
sg24
S'L'
sbsg25
(irule
FeatureMatrix
p6255
(dp6256
g28
(lp6257
(I01
g4843
tp6258
a(I00
g4845
tp6259
asg22
Nsbsg35
(irule
Guard
p6260
(dp6261
g18
I00
sg19
(lp6262
(irule
FeatureMatrix
p6263
(dp6264
g28
(lp6265
sg22
Nsba(irule
FeatureMatrix
p6266
(dp6267
g28
(lp6268
(I00
g5385
tp6269
a(I01
g4843
tp6270
asg22
Nsbasg21
I00
sg22
Nsg23
I00
sg24
S'R'
sbsg49
(irule
FeatureMatrix
p6271
(dp6272
g28
(lp6273
(I01
g4910
tp6274
asg22
Nsbsg22
Nsba(irule
Rule
p6275
(dp6276
g15
(irule
Guard
p6277
(dp6278
g18
I00
sg19
(lp6279
sg21
I00
sg22
Nsg23
I00
sg24
S'L'
sbsg25
(irule
FeatureMatrix
p6280
(dp6281
g28
(lp6282
(I01
g4843
tp6283
a(I00
g4845
tp6284
asg22
Nsbsg35
(irule
Guard
p6285
(dp6286
g18
I00
sg19
(lp6287
(irule
FeatureMatrix
p6288
(dp6289
g28
(lp6290
(I00
g5961
tp6291
asg22
Nsba(irule
FeatureMatrix
p6292
(dp6293
g28
(lp6294
(I01
g4843
tp6295
asg22
Nsbasg21
I00
sg22
Nsg23
I00
sg24
S'R'
sbsg49
(irule
FeatureMatrix
p6296
(dp6297
g28
(lp6298
(I01
g4910
tp6299
asg22
Nsbsg22
Nsba(irule
Rule
p6300
(dp6301
g15
(irule
Guard
p6302
(dp6303
g18
I00
sg19
(lp6304
sg21
I00
sg22
Nsg23
I00
sg24
S'L'
sbsg25
(irule
FeatureMatrix
p6305
(dp6306
g28
(lp6307
(I01
g4843
tp6308
a(I00
g4845
tp6309
asg22
Nsbsg35
(irule
Guard
p6310
(dp6311
g18
I00
sg19
(lp6312
(irule
FeatureMatrix
p6313
(dp6314
g28
(lp6315
sg22
Nsba(irule
FeatureMatrix
p6316
(dp6317
g28
(lp6318
(I00
g5182
tp6319
a(I01
g4843
tp6320
asg22
Nsbasg21
I00
sg22
Nsg23
I00
sg24
S'R'
sbsg49
(irule
FeatureMatrix
p6321
(dp6322
g28
(lp6323
(I01
g4910
tp6324
asg22
Nsbsg22
Nsba(irule
Rule
p6325
(dp6326
g15
(irule
Guard
p6327
(dp6328
g18
I00
sg19
(lp6329
sg21
I00
sg22
Nsg23
I00
sg24
S'L'
sbsg25
(irule
FeatureMatrix
p6330
(dp6331
g28
(lp6332
(I01
g4843
tp6333
a(I00
g4845
tp6334
asg22
Nsbsg35
(irule
Guard
p6335
(dp6336
g18
I00
sg19
(lp6337
(irule
FeatureMatrix
p6338
(dp6339
g28
(lp6340
(I00
g5885
tp6341
asg22
Nsba(irule
FeatureMatrix
p6342
(dp6343
g28
(lp6344
(I01
g4931
tp6345
a(I01
g4843
tp6346
asg22
Nsbasg21
I00
sg22
Nsg23
I00
sg24
S'R'
sbsg49
(irule
FeatureMatrix
p6347
(dp6348
g28
(lp6349
sg22
Nsbsg22
Nsba(irule
Rule
p6350
(dp6351
g15
(irule
Guard
p6352
(dp6353
g18
I00
sg19
(lp6354
sg21
I00
sg22
Nsg23
I00
sg24
S'L'
sbsg25
(irule
FeatureMatrix
p6355
(dp6356
g28
(lp6357
(I01
g4843
tp6358
a(I00
g4845
tp6359
asg22
Nsbsg35
(irule
Guard
p6360
(dp6361
g18
I00
sg19
(lp6362
(irule
FeatureMatrix
p6363
(dp6364
g28
(lp6365
sg22
Nsba(irule
FeatureMatrix
p6366
(dp6367
g28
(lp6368
(I00
g5182
tp6369
a(I01
g4931
tp6370
a(I01
g4843
tp6371
asg22
Nsbasg21
I00
sg22
Nsg23
I00
sg24
S'R'
sbsg49
(irule
FeatureMatrix
p6372
(dp6373
g28
(lp6374
sg22
Nsbsg22
Nsba(irule
Rule
p6375
(dp6376
g15
(irule
Guard
p6377
(dp6378
g18
I00
sg19
(lp6379
sg21
I00
sg22
Nsg23
I00
sg24
S'L'
sbsg25
(irule
FeatureMatrix
p6380
(dp6381
g28
(lp6382
(I01
g4843
tp6383
a(I00
g4845
tp6384
asg22
Nsbsg35
(irule
Guard
p6385
(dp6386
g18
I00
sg19
(lp6387
(irule
FeatureMatrix
p6388
(dp6389
g28
(lp6390
sg22
Nsba(irule
FeatureMatrix
p6391
(dp6392
g28
(lp6393
(I01
g5131
tp6394
a(I01
g4843
tp6395
asg22
Nsbasg21
I00
sg22
Nsg23
I00
sg24
S'R'
sbsg49
(irule
FeatureMatrix
p6396
(dp6397
g28
(lp6398
(I01
g4860
tp6399
asg22
Nsbsg22
Nsba(irule
Rule
p6400
(dp6401
g15
(irule
Guard
p6402
(dp6403
g18
I00
sg19
(lp6404
(irule
FeatureMatrix
p6405
(dp6406
g28
(lp6407
sg22
Nsbasg21
I00
sg22
Nsg23
I00
sg24
S'L'
sbsg25
(irule
FeatureMatrix
p6408
(dp6409
g28
(lp6410
(I01
g4843
tp6411
a(I00
g4845
tp6412
asg22
Nsbsg35
(irule
Guard
p6413
(dp6414
g18
I00
sg19
(lp6415
(irule
FeatureMatrix
p6416
(dp6417
g28
(lp6418
sg22
Nsba(irule
FeatureMatrix
p6419
(dp6420
g28
(lp6421
(I01
g4843
tp6422
a(I01
g4860
tp6423
asg22
Nsbasg21
I00
sg22
Nsg23
I00
sg24
S'R'
sbsg49
(irule
FeatureMatrix
p6424
(dp6425
g28
(lp6426
sg22
Nsbsg22
Nsba(irule
Rule
p6427
(dp6428
g15
(irule
Guard
p6429
(dp6430
g18
I00
sg19
(lp6431
sg21
I00
sg22
Nsg23
I00
sg24
S'L'
sbsg25
(irule
FeatureMatrix
p6432
(dp6433
g28
(lp6434
(I01
g4843
tp6435
a(I00
g4845
tp6436
a(I01
g5019
tp6437
asg22
Nsbsg35
(irule
Guard
p6438
(dp6439
g18
I00
sg19
(lp6440
(irule
FeatureMatrix
p6441
(dp6442
g28
(lp6443
sg22
Nsba(irule
FeatureMatrix
p6444
(dp6445
g28
(lp6446
(I01
g4843
tp6447
asg22
Nsbasg21
I00
sg22
Nsg23
I00
sg24
S'R'
sbsg49
(irule
FeatureMatrix
p6448
(dp6449
g28
(lp6450
(I01
g4860
tp6451
asg22
Nsbsg22
Nsba(irule
Rule
p6452
(dp6453
g15
(irule
Guard
p6454
(dp6455
g18
I00
sg19
(lp6456
sg21
I00
sg22
Nsg23
I00
sg24
S'L'
sbsg25
(irule
FeatureMatrix
p6457
(dp6458
g28
(lp6459
(I01
g4843
tp6460
a(I00
g4845
tp6461
asg22
Nsbsg35
(irule
Guard
p6462
(dp6463
g18
I00
sg19
(lp6464
(irule
FeatureMatrix
p6465
(dp6466
g28
(lp6467
(I00
g4860
tp6468
asg22
Nsba(irule
FeatureMatrix
p6469
(dp6470
g28
(lp6471
(I00
g5182
tp6472
a(I01
g4843
tp6473
asg22
Nsbasg21
I00
sg22
Nsg23
I00
sg24
S'R'
sbsg49
(irule
FeatureMatrix
p6474
(dp6475
g28
(lp6476
sg22
Nsbsg22
Nsba(irule
Rule
p6477
(dp6478
g15
(irule
Guard
p6479
(dp6480
g18
I00
sg19
(lp6481
sg21
I00
sg22
Nsg23
I00
sg24
S'L'
sbsg25
(irule
FeatureMatrix
p6482
(dp6483
g28
(lp6484
(I00
g5182
tp6485
a(I01
g4843
tp6486
a(I00
g4845
tp6487
asg22
Nsbsg35
(irule
Guard
p6488
(dp6489
g18
I00
sg19
(lp6490
(irule
FeatureMatrix
p6491
(dp6492
g28
(lp6493
sg22
Nsba(irule
FeatureMatrix
p6494
(dp6495
g28
(lp6496
(I01
g4843
tp6497
a(I01
g4910
tp6498
asg22
Nsbasg21
I00
sg22
Nsg23
I00
sg24
S'R'
sbsg49
(irule
FeatureMatrix
p6499
(dp6500
g28
(lp6501
sg22
Nsbsg22
Nsba(irule
Rule
p6502
(dp6503
g15
(irule
Guard
p6504
(dp6505
g18
I00
sg19
(lp6506
sg21
I00
sg22
Nsg23
I00
sg24
S'L'
sbsg25
(irule
FeatureMatrix
p6507
(dp6508
g28
(lp6509
(I01
g4843
tp6510
a(I00
g4845
tp6511
asg22
Nsbsg35
(irule
Guard
p6512
(dp6513
g18
I00
sg19
(lp6514
(irule
FeatureMatrix
p6515
(dp6516
g28
(lp6517
sg22
Nsba(irule
FeatureMatrix
p6518
(dp6519
g28
(lp6520
(I01
g4931
tp6521
a(I01
g4843
tp6522
asg22
Nsbasg21
I00
sg22
Nsg23
I00
sg24
S'R'
sbsg49
(irule
FeatureMatrix
p6523
(dp6524
g28
(lp6525
(I01
g4910
tp6526
asg22
Nsbsg22
Nsba(irule
Rule
p6527
(dp6528
g15
(irule
Guard
p6529
(dp6530
g18
I00
sg19
(lp6531
sg21
I00
sg22
Nsg23
I00
sg24
S'L'
sbsg25
(irule
FeatureMatrix
p6532
(dp6533
g28
(lp6534
(I01
g4843
tp6535
a(I00
g4845
tp6536
asg22
Nsbsg35
(irule
Guard
p6537
(dp6538
g18
I00
sg19
(lp6539
(irule
FeatureMatrix
p6540
(dp6541
g28
(lp6542
sg22
Nsba(irule
FeatureMatrix
p6543
(dp6544
g28
(lp6545
(I01
g4843
tp6546
a(I00
g5325
tp6547
asg22
Nsbasg21
I00
sg22
Nsg23
I00
sg24
S'R'
sbsg49
(irule
FeatureMatrix
p6548
(dp6549
g28
(lp6550
(I01
g4910
tp6551
asg22
Nsbsg22
Nsba(irule
Rule
p6552
(dp6553
g15
(irule
Guard
p6554
(dp6555
g18
I00
sg19
(lp6556
sg21
I00
sg22
Nsg23
I00
sg24
S'L'
sbsg25
(irule
FeatureMatrix
p6557
(dp6558
g28
(lp6559
(I01
g4843
tp6560
a(I00
g4845
tp6561
asg22
Nsbsg35
(irule
Guard
p6562
(dp6563
g18
I00
sg19
(lp6564
(irule
FeatureMatrix
p6565
(dp6566
g28
(lp6567
sg22
Nsba(irule
FeatureMatrix
p6568
(dp6569
g28
(lp6570
(I01
g4843
tp6571
asg22
Nsbasg21
I00
sg22
Nsg23
I00
sg24
S'R'
sbsg49
(irule
FeatureMatrix
p6572
(dp6573
g28
(lp6574
(I01
g4910
tp6575
a(I00
g5325
tp6576
asg22
Nsbsg22
Nsba(irule
Rule
p6577
(dp6578
g15
(irule
Guard
p6579
(dp6580
g18
I00
sg19
(lp6581
sg21
I00
sg22
Nsg23
I00
sg24
S'L'
sbsg25
(irule
FeatureMatrix
p6582
(dp6583
g28
(lp6584
(I01
g4843
tp6585
a(I00
g4845
tp6586
a(I01
g4860
tp6587
asg22
Nsbsg35
(irule
Guard
p6588
(dp6589
g18
I00
sg19
(lp6590
(irule
FeatureMatrix
p6591
(dp6592
g28
(lp6593
sg22
Nsba(irule
FeatureMatrix
p6594
(dp6595
g28
(lp6596
(I01
g4843
tp6597
asg22
Nsbasg21
I00
sg22
Nsg23
I00
sg24
S'R'
sbsg49
(irule
FeatureMatrix
p6598
(dp6599
g28
(lp6600
(I01
g4910
tp6601
asg22
Nsbsg22
Nsba(irule
Rule
p6602
(dp6603
g15
(irule
Guard
p6604
(dp6605
g18
I00
sg19
(lp6606
sg21
I00
sg22
Nsg23
I00
sg24
S'L'
sbsg25
(irule
FeatureMatrix
p6607
(dp6608
g28
(lp6609
(I01
g4843
tp6610
a(I00
g4845
tp6611
a(I01
g4860
tp6612
asg22
Nsbsg35
(irule
Guard
p6613
(dp6614
g18
I00
sg19
(lp6615
(irule
FeatureMatrix
p6616
(dp6617
g28
(lp6618
sg22
Nsba(irule
FeatureMatrix
p6619
(dp6620
g28
(lp6621
(I01
g4931
tp6622
a(I01
g4843
tp6623
asg22
Nsbasg21
I00
sg22
Nsg23
I00
sg24
S'R'
sbsg49
(irule
FeatureMatrix
p6624
(dp6625
g28
(lp6626
sg22
Nsbsg22
Nsba(irule
Rule
p6627
(dp6628
g15
(irule
Guard
p6629
(dp6630
g18
I00
sg19
(lp6631
sg21
I00
sg22
Nsg23
I00
sg24
S'L'
sbsg25
(irule
FeatureMatrix
p6632
(dp6633
g28
(lp6634
(I01
g4843
tp6635
a(I00
g4845
tp6636
asg22
Nsbsg35
(irule
Guard
p6637
(dp6638
g18
I00
sg19
(lp6639
(irule
FeatureMatrix
p6640
(dp6641
g28
(lp6642
sg22
Nsba(irule
FeatureMatrix
p6643
(dp6644
g28
(lp6645
(I01
g4931
tp6646
a(I00
g4881
tp6647
a(I01
g4843
tp6648
asg22
Nsbasg21
I00
sg22
Nsg23
I00
sg24
S'R'
sbsg49
(irule
FeatureMatrix
p6649
(dp6650
g28
(lp6651
sg22
Nsbsg22
Nsba(irule
Rule
p6652
(dp6653
g15
(irule
Guard
p6654
(dp6655
g18
I00
sg19
(lp6656
sg21
I00
sg22
Nsg23
I00
sg24
S'L'
sbsg25
(irule
FeatureMatrix
p6657
(dp6658
g28
(lp6659
(I01
g4843
tp6660
a(I00
g4845
tp6661
a(I00
g5325
tp6662
asg22
Nsbsg35
(irule
Guard
p6663
(dp6664
g18
I00
sg19
(lp6665
(irule
FeatureMatrix
p6666
(dp6667
g28
(lp6668
(I00
g4860
tp6669
asg22
Nsba(irule
FeatureMatrix
p6670
(dp6671
g28
(lp6672
(I01
g4843
tp6673
asg22
Nsbasg21
I00
sg22
Nsg23
I00
sg24
S'R'
sbsg49
(irule
FeatureMatrix
p6674
(dp6675
g28
(lp6676
sg22
Nsbsg22
Nsba(irule
Rule
p6677
(dp6678
g15
(irule
Guard
p6679
(dp6680
g18
I00
sg19
(lp6681
sg21
I00
sg22
Nsg23
I00
sg24
S'L'
sbsg25
(irule
FeatureMatrix
p6682
(dp6683
g28
(lp6684
(I01
g4843
tp6685
a(I01
g4910
tp6686
a(I00
g4845
tp6687
asg22
Nsbsg35
(irule
Guard
p6688
(dp6689
g18
I00
sg19
(lp6690
(irule
FeatureMatrix
p6691
(dp6692
g28
(lp6693
sg22
Nsba(irule
FeatureMatrix
p6694
(dp6695
g28
(lp6696
(I00
g4881
tp6697
a(I01
g4843
tp6698
asg22
Nsbasg21
I00
sg22
Nsg23
I00
sg24
S'R'
sbsg49
(irule
FeatureMatrix
p6699
(dp6700
g28
(lp6701
sg22
Nsbsg22
Nsba(irule
Rule
p6702
(dp6703
g15
(irule
Guard
p6704
(dp6705
g18
I00
sg19
(lp6706
sg21
I00
sg22
Nsg23
I00
sg24
S'L'
sbsg25
(irule
FeatureMatrix
p6707
(dp6708
g28
(lp6709
(I01
g4843
tp6710
a(I00
g4845
tp6711
asg22
Nsbsg35
(irule
Guard
p6712
(dp6713
g18
I00
sg19
(lp6714
(irule
FeatureMatrix
p6715
(dp6716
g28
(lp6717
sg22
Nsba(irule
FeatureMatrix
p6718
(dp6719
g28
(lp6720
(I01
g4843
tp6721
asg22
Nsbasg21
I00
sg22
Nsg23
I00
sg24
S'R'
sbsg49
(irule
FeatureMatrix
p6722
(dp6723
g28
(lp6724
(I01
g4910
tp6725
a(I01
g5019
tp6726
asg22
Nsbsg22
Nsba(irule
Rule
p6727
(dp6728
g15
(irule
Guard
p6729
(dp6730
g18
I00
sg19
(lp6731
sg21
I00
sg22
Nsg23
I00
sg24
S'L'
sbsg25
(irule
FeatureMatrix
p6732
(dp6733
g28
(lp6734
(I01
g4843
tp6735
a(I00
g4845
tp6736
asg22
Nsbsg35
(irule
Guard
p6737
(dp6738
g18
I00
sg19
(lp6739
(irule
FeatureMatrix
p6740
(dp6741
g28
(lp6742
sg22
Nsba(irule
FeatureMatrix
p6743
(dp6744
g28
(lp6745
(I00
g4881
tp6746
a(I01
g4843
tp6747
asg22
Nsbasg21
I00
sg22
Nsg23
I00
sg24
S'R'
sbsg49
(irule
FeatureMatrix
p6748
(dp6749
g28
(lp6750
(I01
g5131
tp6751
asg22
Nsbsg22
Nsba(irule
Rule
p6752
(dp6753
g15
(irule
Guard
p6754
(dp6755
g18
I00
sg19
(lp6756
sg21
I00
sg22
Nsg23
I00
sg24
S'L'
sbsg25
(irule
FeatureMatrix
p6757
(dp6758
g28
(lp6759
(I01
g4843
tp6760
a(I00
g4845
tp6761
asg22
Nsbsg35
(irule
Guard
p6762
(dp6763
g18
I00
sg19
(lp6764
(irule
FeatureMatrix
p6765
(dp6766
g28
(lp6767
sg22
Nsba(irule
FeatureMatrix
p6768
(dp6769
g28
(lp6770
(I00
g5885
tp6771
a(I01
g4843
tp6772
asg22
Nsbasg21
I00
sg22
Nsg23
I00
sg24
S'R'
sbsg49
(irule
FeatureMatrix
p6773
(dp6774
g28
(lp6775
(I01
g4910
tp6776
asg22
Nsbsg22
Nsba(irule
Rule
p6777
(dp6778
g15
(irule
Guard
p6779
(dp6780
g18
I00
sg19
(lp6781
sg21
I00
sg22
Nsg23
I00
sg24
S'L'
sbsg25
(irule
FeatureMatrix
p6782
(dp6783
g28
(lp6784
(I00
g5385
tp6785
a(I01
g4843
tp6786
a(I00
g4845
tp6787
asg22
Nsbsg35
(irule
Guard
p6788
(dp6789
g18
I00
sg19
(lp6790
(irule
FeatureMatrix
p6791
(dp6792
g28
(lp6793
sg22
Nsba(irule
FeatureMatrix
p6794
(dp6795
g28
(lp6796
(I01
g4843
tp6797
asg22
Nsbasg21
I00
sg22
Nsg23
I00
sg24
S'R'
sbsg49
(irule
FeatureMatrix
p6798
(dp6799
g28
(lp6800
(I01
g4910
tp6801
asg22
Nsbsg22
Nsba(irule
Rule
p6802
(dp6803
g15
(irule
Guard
p6804
(dp6805
g18
I00
sg19
(lp6806
sg21
I00
sg22
Nsg23
I00
sg24
S'L'
sbsg25
(irule
FeatureMatrix
p6807
(dp6808
g28
(lp6809
(I01
g4843
tp6810
a(I00
g4845
tp6811
asg22
Nsbsg35
(irule
Guard
p6812
(dp6813
g18
I00
sg19
(lp6814
(irule
FeatureMatrix
p6815
(dp6816
g28
(lp6817
sg22
Nsba(irule
FeatureMatrix
p6818
(dp6819
g28
(lp6820
(I00
g4881
tp6821
a(I01
g4843
tp6822
a(I01
g4860
tp6823
asg22
Nsbasg21
I00
sg22
Nsg23
I00
sg24
S'R'
sbsg49
(irule
FeatureMatrix
p6824
(dp6825
g28
(lp6826
sg22
Nsbsg22
Nsba(irule
Rule
p6827
(dp6828
g15
(irule
Guard
p6829
(dp6830
g18
I00
sg19
(lp6831
sg21
I00
sg22
Nsg23
I00
sg24
S'L'
sbsg25
(irule
FeatureMatrix
p6832
(dp6833
g28
(lp6834
(I00
S'anterior'
p6835
tp6836
a(I01
g4843
tp6837
a(I00
g4845
tp6838
asg22
Nsbsg35
(irule
Guard
p6839
(dp6840
g18
I00
sg19
(lp6841
(irule
FeatureMatrix
p6842
(dp6843
g28
(lp6844
sg22
Nsba(irule
FeatureMatrix
p6845
(dp6846
g28
(lp6847
(I01
g4843
tp6848
asg22
Nsbasg21
I00
sg22
Nsg23
I00
sg24
S'R'
sbsg49
(irule
FeatureMatrix
p6849
(dp6850
g28
(lp6851
(I01
g4910
tp6852
asg22
Nsbsg22
Nsba(irule
Rule
p6853
(dp6854
g15
(irule
Guard
p6855
(dp6856
g18
I00
sg19
(lp6857
sg21
I00
sg22
Nsg23
I00
sg24
S'L'
sbsg25
(irule
FeatureMatrix
p6858
(dp6859
g28
(lp6860
(I01
g4843
tp6861
a(I00
g4845
tp6862
asg22
Nsbsg35
(irule
Guard
p6863
(dp6864
g18
I00
sg19
(lp6865
(irule
FeatureMatrix
p6866
(dp6867
g28
(lp6868
(I00
g5885
tp6869
asg22
Nsba(irule
FeatureMatrix
p6870
(dp6871
g28
(lp6872
(I01
g4843
tp6873
a(I01
g4910
tp6874
asg22
Nsbasg21
I00
sg22
Nsg23
I00
sg24
S'R'
sbsg49
(irule
FeatureMatrix
p6875
(dp6876
g28
(lp6877
sg22
Nsbsg22
Nsba(irule
Rule
p6878
(dp6879
g15
(irule
Guard
p6880
(dp6881
g18
I00
sg19
(lp6882
sg21
I00
sg22
Nsg23
I00
sg24
S'L'
sbsg25
(irule
FeatureMatrix
p6883
(dp6884
g28
(lp6885
(I01
g4843
tp6886
a(I00
g4845
tp6887
asg22
Nsbsg35
(irule
Guard
p6888
(dp6889
g18
I00
sg19
(lp6890
(irule
FeatureMatrix
p6891
(dp6892
g28
(lp6893
sg22
Nsba(irule
FeatureMatrix
p6894
(dp6895
g28
(lp6896
(I00
g4881
tp6897
a(I01
g4843
tp6898
a(I00
g4845
tp6899
asg22
Nsbasg21
I00
sg22
Nsg23
I00
sg24
S'R'
sbsg49
(irule
FeatureMatrix
p6900
(dp6901
g28
(lp6902
sg22
Nsbsg22
Nsba(irule
Rule
p6903
(dp6904
g15
(irule
Guard
p6905
(dp6906
g18
I00
sg19
(lp6907
sg21
I00
sg22
Nsg23
I00
sg24
S'L'
sbsg25
(irule
FeatureMatrix
p6908
(dp6909
g28
(lp6910
(I01
g4843
tp6911
a(I00
g5044
tp6912
a(I00
g4845
tp6913
asg22
Nsbsg35
(irule
Guard
p6914
(dp6915
g18
I00
sg19
(lp6916
(irule
FeatureMatrix
p6917
(dp6918
g28
(lp6919
sg22
Nsba(irule
FeatureMatrix
p6920
(dp6921
g28
(lp6922
(I01
g4843
tp6923
a(I01
g4860
tp6924
asg22
Nsbasg21
I00
sg22
Nsg23
I00
sg24
S'R'
sbsg49
(irule
FeatureMatrix
p6925
(dp6926
g28
(lp6927
sg22
Nsbsg22
Nsba(irule
Rule
p6928
(dp6929
g15
(irule
Guard
p6930
(dp6931
g18
I00
sg19
(lp6932
sg21
I00
sg22
Nsg23
I00
sg24
S'L'
sbsg25
(irule
FeatureMatrix
p6933
(dp6934
g28
(lp6935
(I01
g4843
tp6936
a(I00
g4845
tp6937
asg22
Nsbsg35
(irule
Guard
p6938
(dp6939
g18
I00
sg19
(lp6940
(irule
FeatureMatrix
p6941
(dp6942
g28
(lp6943
sg22
Nsba(irule
FeatureMatrix
p6944
(dp6945
g28
(lp6946
(I01
g4843
tp6947
a(I01
g4860
tp6948
asg22
Nsbasg21
I00
sg22
Nsg23
I00
sg24
S'R'
sbsg49
(irule
FeatureMatrix
p6949
(dp6950
g28
(lp6951
(I01
g4910
tp6952
asg22
Nsbsg22
Nsba(irule
Rule
p6953
(dp6954
g15
(irule
Guard
p6955
(dp6956
g18
I00
sg19
(lp6957
sg21
I00
sg22
Nsg23
I00
sg24
S'L'
sbsg25
(irule
FeatureMatrix
p6958
(dp6959
g28
(lp6960
(I01
g4843
tp6961
a(I00
g4845
tp6962
asg22
Nsbsg35
(irule
Guard
p6963
(dp6964
g18
I00
sg19
(lp6965
(irule
FeatureMatrix
p6966
(dp6967
g28
(lp6968
sg22
Nsba(irule
FeatureMatrix
p6969
(dp6970
g28
(lp6971
(I01
g4843
tp6972
a(I00
g5044
tp6973
asg22
Nsbasg21
I00
sg22
Nsg23
I00
sg24
S'R'
sbsg49
(irule
FeatureMatrix
p6974
(dp6975
g28
(lp6976
(I01
g4910
tp6977
asg22
Nsbsg22
Nsba(irule
Rule
p6978
(dp6979
g15
(irule
Guard
p6980
(dp6981
g18
I00
sg19
(lp6982
sg21
I00
sg22
Nsg23
I00
sg24
S'L'
sbsg25
(irule
FeatureMatrix
p6983
(dp6984
g28
(lp6985
(I01
g4843
tp6986
a(I00
g4845
tp6987
asg22
Nsbsg35
(irule
Guard
p6988
(dp6989
g18
I00
sg19
(lp6990
(irule
FeatureMatrix
p6991
(dp6992
g28
(lp6993
sg22
Nsba(irule
FeatureMatrix
p6994
(dp6995
g28
(lp6996
(I00
g6835
tp6997
a(I01
g4843
tp6998
asg22
Nsbasg21
I00
sg22
Nsg23
I00
sg24
S'R'
sbsg49
(irule
FeatureMatrix
p6999
(dp7000
g28
(lp7001
(I01
g4910
tp7002
asg22
Nsbsg22
Nsba(irule
Rule
p7003
(dp7004
g15
(irule
Guard
p7005
(dp7006
g18
I00
sg19
(lp7007
sg21
I00
sg22
Nsg23
I00
sg24
S'L'
sbsg25
(irule
FeatureMatrix
p7008
(dp7009
g28
(lp7010
(I01
g4843
tp7011
a(I00
g4845
tp7012
asg22
Nsbsg35
(irule
Guard
p7013
(dp7014
g18
I00
sg19
(lp7015
(irule
FeatureMatrix
p7016
(dp7017
g28
(lp7018
sg22
Nsba(irule
FeatureMatrix
p7019
(dp7020
g28
(lp7021
(I01
g4843
tp7022
a(I01
g4860
tp7023
a(I01
g5019
tp7024
asg22
Nsbasg21
I00
sg22
Nsg23
I00
sg24
S'R'
sbsg49
(irule
FeatureMatrix
p7025
(dp7026
g28
(lp7027
sg22
Nsbsg22
Nsba(irule
Rule
p7028
(dp7029
g15
(irule
Guard
p7030
(dp7031
g18
I00
sg19
(lp7032
sg21
I00
sg22
Nsg23
I00
sg24
S'L'
sbsg25
(irule
FeatureMatrix
p7033
(dp7034
g28
(lp7035
(I01
g4843
tp7036
a(I00
g4845
tp7037
asg22
Nsbsg35
(irule
Guard
p7038
(dp7039
g18
I00
sg19
(lp7040
(irule
FeatureMatrix
p7041
(dp7042
g28
(lp7043
sg22
Nsba(irule
FeatureMatrix
p7044
(dp7045
g28
(lp7046
(I01
g5131
tp7047
a(I01
g4843
tp7048
a(I01
g4860
tp7049
asg22
Nsbasg21
I00
sg22
Nsg23
I00
sg24
S'R'
sbsg49
(irule
FeatureMatrix
p7050
(dp7051
g28
(lp7052
sg22
Nsbsg22
Nsba(irule
Rule
p7053
(dp7054
g15
(irule
Guard
p7055
(dp7056
g18
I00
sg19
(lp7057
sg21
I00
sg22
Nsg23
I00
sg24
S'L'
sbsg25
(irule
FeatureMatrix
p7058
(dp7059
g28
(lp7060
(I01
g4843
tp7061
a(I00
g4845
tp7062
asg22
Nsbsg35
(irule
Guard
p7063
(dp7064
g18
I00
sg19
(lp7065
(irule
FeatureMatrix
p7066
(dp7067
g28
(lp7068
sg22
Nsba(irule
FeatureMatrix
p7069
(dp7070
g28
(lp7071
(I01
g4931
tp7072
a(I00
g5385
tp7073
a(I01
g4843
tp7074
asg22
Nsbasg21
I00
sg22
Nsg23
I00
sg24
S'R'
sbsg49
(irule
FeatureMatrix
p7075
(dp7076
g28
(lp7077
sg22
Nsbsg22
Nsba(irule
Rule
p7078
(dp7079
g15
(irule
Guard
p7080
(dp7081
g18
I00
sg19
(lp7082
sg21
I00
sg22
Nsg23
I00
sg24
S'L'
sbsg25
(irule
FeatureMatrix
p7083
(dp7084
g28
(lp7085
(I01
g4843
tp7086
a(I00
g4845
tp7087
asg22
Nsbsg35
(irule
Guard
p7088
(dp7089
g18
I00
sg19
(lp7090
(irule
FeatureMatrix
p7091
(dp7092
g28
(lp7093
(I00
g5961
tp7094
asg22
Nsba(irule
FeatureMatrix
p7095
(dp7096
g28
(lp7097
(I01
g4931
tp7098
a(I01
g4843
tp7099
asg22
Nsbasg21
I00
sg22
Nsg23
I00
sg24
S'R'
sbsg49
(irule
FeatureMatrix
p7100
(dp7101
g28
(lp7102
sg22
Nsbsg22
Nsba(irule
Rule
p7103
(dp7104
g15
(irule
Guard
p7105
(dp7106
g18
I00
sg19
(lp7107
sg21
I00
sg22
Nsg23
I00
sg24
S'L'
sbsg25
(irule
FeatureMatrix
p7108
(dp7109
g28
(lp7110
(I00
g5385
tp7111
a(I01
g4843
tp7112
a(I00
g4845
tp7113
asg22
Nsbsg35
(irule
Guard
p7114
(dp7115
g18
I00
sg19
(lp7116
(irule
FeatureMatrix
p7117
(dp7118
g28
(lp7119
sg22
Nsba(irule
FeatureMatrix
p7120
(dp7121
g28
(lp7122
(I00
g4881
tp7123
a(I01
g4843
tp7124
asg22
Nsbasg21
I00
sg22
Nsg23
I00
sg24
S'R'
sbsg49
(irule
FeatureMatrix
p7125
(dp7126
g28
(lp7127
sg22
Nsbsg22
Nsba(irule
Rule
p7128
(dp7129
g15
(irule
Guard
p7130
(dp7131
g18
I00
sg19
(lp7132
sg21
I00
sg22
Nsg23
I00
sg24
S'L'
sbsg25
(irule
FeatureMatrix
p7133
(dp7134
g28
(lp7135
(I01
g4843
tp7136
a(I00
g4845
tp7137
asg22
Nsbsg35
(irule
Guard
p7138
(dp7139
g18
I00
sg19
(lp7140
(irule
FeatureMatrix
p7141
(dp7142
g28
(lp7143
sg22
Nsba(irule
FeatureMatrix
p7144
(dp7145
g28
(lp7146
(I01
g4843
tp7147
asg22
Nsbasg21
I00
sg22
Nsg23
I00
sg24
S'R'
sbsg49
(irule
FeatureMatrix
p7148
(dp7149
g28
(lp7150
(I01
g4860
tp7151
a(I00
g5325
tp7152
asg22
Nsbsg22
Nsba(irule
Rule
p7153
(dp7154
g15
(irule
Guard
p7155
(dp7156
g18
I00
sg19
(lp7157
(irule
FeatureMatrix
p7158
(dp7159
g28
(lp7160
sg22
Nsbasg21
I00
sg22
Nsg23
I00
sg24
S'L'
sbsg25
(irule
FeatureMatrix
p7161
(dp7162
g28
(lp7163
(I01
g4843
tp7164
a(I00
g4845
tp7165
asg22
Nsbsg35
(irule
Guard
p7166
(dp7167
g18
I00
sg19
(lp7168
(irule
FeatureMatrix
p7169
(dp7170
g28
(lp7171
sg22
Nsba(irule
FeatureMatrix
p7172
(dp7173
g28
(lp7174
(I01
g4843
tp7175
a(I01
g4910
tp7176
asg22
Nsbasg21
I00
sg22
Nsg23
I00
sg24
S'R'
sbsg49
(irule
FeatureMatrix
p7177
(dp7178
g28
(lp7179
sg22
Nsbsg22
Nsba(irule
Rule
p7180
(dp7181
g15
(irule
Guard
p7182
(dp7183
g18
I00
sg19
(lp7184
sg21
I00
sg22
Nsg23
I00
sg24
S'L'
sbsg25
(irule
FeatureMatrix
p7185
(dp7186
g28
(lp7187
(I01
g4843
tp7188
a(I00
g4845
tp7189
asg22
Nsbsg35
(irule
Guard
p7190
(dp7191
g18
I00
sg19
(lp7192
(irule
FeatureMatrix
p7193
(dp7194
g28
(lp7195
(I00
g4910
tp7196
asg22
Nsba(irule
FeatureMatrix
p7197
(dp7198
g28
(lp7199
(I01
g4931
tp7200
a(I01
g4843
tp7201
asg22
Nsbasg21
I00
sg22
Nsg23
I00
sg24
S'R'
sbsg49
(irule
FeatureMatrix
p7202
(dp7203
g28
(lp7204
sg22
Nsbsg22
Nsba(irule
Rule
p7205
(dp7206
g15
(irule
Guard
p7207
(dp7208
g18
I00
sg19
(lp7209
sg21
I00
sg22
Nsg23
I00
sg24
S'L'
sbsg25
(irule
FeatureMatrix
p7210
(dp7211
g28
(lp7212
(I01
g4843
tp7213
a(I00
g4845
tp7214
asg22
Nsbsg35
(irule
Guard
p7215
(dp7216
g18
I00
sg19
(lp7217
(irule
FeatureMatrix
p7218
(dp7219
g28
(lp7220
(I00
g4845
tp7221
asg22
Nsba(irule
FeatureMatrix
p7222
(dp7223
g28
(lp7224
(I01
g4843
tp7225
asg22
Nsbasg21
I00
sg22
Nsg23
I00
sg24
S'R'
sbsg49
(irule
FeatureMatrix
p7226
(dp7227
g28
(lp7228
(I01
g4910
tp7229
asg22
Nsbsg22
Nsba(irule
Rule
p7230
(dp7231
g15
(irule
Guard
p7232
(dp7233
g18
I00
sg19
(lp7234
sg21
I00
sg22
Nsg23
I00
sg24
S'L'
sbsg25
(irule
FeatureMatrix
p7235
(dp7236
g28
(lp7237
(I01
g4843
tp7238
a(I00
g4845
tp7239
asg22
Nsbsg35
(irule
Guard
p7240
(dp7241
g18
I00
sg19
(lp7242
(irule
FeatureMatrix
p7243
(dp7244
g28
(lp7245
sg22
Nsba(irule
FeatureMatrix
p7246
(dp7247
g28
(lp7248
(I00
g4881
tp7249
a(I01
g4843
tp7250
a(I01
g4910
tp7251
asg22
Nsbasg21
I00
sg22
Nsg23
I00
sg24
S'R'
sbsg49
(irule
FeatureMatrix
p7252
(dp7253
g28
(lp7254
sg22
Nsbsg22
Nsba(irule
Rule
p7255
(dp7256
g15
(irule
Guard
p7257
(dp7258
g18
I00
sg19
(lp7259
sg21
I00
sg22
Nsg23
I00
sg24
S'L'
sbsg25
(irule
FeatureMatrix
p7260
(dp7261
g28
(lp7262
(I01
g4843
tp7263
a(I00
g4845
tp7264
asg22
Nsbsg35
(irule
Guard
p7265
(dp7266
g18
I00
sg19
(lp7267
(irule
FeatureMatrix
p7268
(dp7269
g28
(lp7270
sg22
Nsba(irule
FeatureMatrix
p7271
(dp7272
g28
(lp7273
(I00
g5385
tp7274
a(I01
g4843
tp7275
a(I01
g4860
tp7276
asg22
Nsbasg21
I00
sg22
Nsg23
I00
sg24
S'R'
sbsg49
(irule
FeatureMatrix
p7277
(dp7278
g28
(lp7279
sg22
Nsbsg22
Nsba(irule
Rule
p7280
(dp7281
g15
(irule
Guard
p7282
(dp7283
g18
I00
sg19
(lp7284
sg21
I00
sg22
Nsg23
I00
sg24
S'L'
sbsg25
(irule
FeatureMatrix
p7285
(dp7286
g28
(lp7287
(I01
g4843
tp7288
a(I01
g4910
tp7289
a(I00
g4845
tp7290
asg22
Nsbsg35
(irule
Guard
p7291
(dp7292
g18
I00
sg19
(lp7293
(irule
FeatureMatrix
p7294
(dp7295
g28
(lp7296
(I00
g4860
tp7297
asg22
Nsba(irule
FeatureMatrix
p7298
(dp7299
g28
(lp7300
(I01
g4843
tp7301
asg22
Nsbasg21
I00
sg22
Nsg23
I00
sg24
S'R'
sbsg49
(irule
FeatureMatrix
p7302
(dp7303
g28
(lp7304
sg22
Nsbsg22
Nsba(irule
Rule
p7305
(dp7306
g15
(irule
Guard
p7307
(dp7308
g18
I00
sg19
(lp7309
sg21
I00
sg22
Nsg23
I00
sg24
S'L'
sbsg25
(irule
FeatureMatrix
p7310
(dp7311
g28
(lp7312
(I01
g4843
tp7313
a(I00
g4845
tp7314
asg22
Nsbsg35
(irule
Guard
p7315
(dp7316
g18
I00
sg19
(lp7317
(irule
FeatureMatrix
p7318
(dp7319
g28
(lp7320
(I00
g4860
tp7321
asg22
Nsba(irule
FeatureMatrix
p7322
(dp7323
g28
(lp7324
(I00
g5885
tp7325
a(I01
g4843
tp7326
asg22
Nsbasg21
I00
sg22
Nsg23
I00
sg24
S'R'
sbsg49
(irule
FeatureMatrix
p7327
(dp7328
g28
(lp7329
sg22
Nsbsg22
NsbaasbsS'parameters'
p7330
g6
(cargparse
Namespace
p7331
g8
NtRp7332
(dp7333
S'dummy'
p7334
I00
sS'task'
p7335
S'CEGIS'
p7336
sS'features'
p7337
S'sophisticated'
p7338
sS'resume'
p7339
I00
sS'geometry'
p7340
I01
sS'top'
p7341
I100
sS'disableClean'
p7342
I00
sS'universal'
p7343
NsS'restrict'
p7344
NsS'window'
p7345
NsS'seed'
p7346
S'0'
sS'restore'
p7347
NsS'verbosity'
p7348
I0
sS'timeout'
p7349
F24
sS'debug'
p7350
NsS'cores'
p7351
I40
sg505
S'Odden_4.6_Kera'
p7352
sS'save'
p7353
NsS'serial'
p7354
I00
sS'alignment'
p7355
I00
sS'samples'
p7356
I30
sbsb.