(iresult
Result
p1
(dp2
S'startTime'
p3
F1555426289.591542
sS'solutionSequence'
p4
(lp5
(ccopy_reg
_reconstructor
p6
(csolution
Solution
p7
c__builtin__
object
p8
NtRp9
(dp10
S'rules'
p11
(lp12
(irule
Rule
p13
(dp14
S'leftTriggers'
p15
(irule
Guard
p16
(dp17
S'endOfString'
p18
I00
sS'specifications'
p19
(lp20
(irule
FeatureMatrix
p21
(dp22
S'featuresAndPolarities'
p23
(lp24
sS'representation'
p25
V[  ]
p26
sba(irule
FeatureMatrix
p27
(dp28
g23
(lp29
(I00
S'highTone'
p30
tp31
asg25
V[ -highTone ]
p32
sbasS'optionalEnding'
p33
I00
sg25
V[ -highTone ] [  ]
p34
sS'starred'
p35
I00
sS'side'
p36
S'L'
sbsS'structuralChange'
p37
(irule
FeatureMatrix
p38
(dp39
g23
(lp40
(I00
g30
tp41
asg25
V[ -highTone ]
p42
sbsS'rightTriggers'
p43
(irule
Guard
p44
(dp45
g18
I00
sg19
(lp46
sg33
I00
sg25
V
sg35
I00
sg36
S'R'
sbsS'focus'
p47
(irule
FeatureMatrix
p48
(dp49
g23
(lp50
sg25
V[  ]
p51
sbsg25
V[  ] ---> [ -highTone ] / [ -highTone ] [  ] _ 
p52
sbasS'prefixes'
p53
(lp54
(imorph
Morph
p55
(dp56
S'phonemes'
p57
(lp58
Vo
aVk
aVu
asba(imorph
Morph
p59
(dp60
g57
(lp61
Vo
aVk
aVu
asba(imorph
Morph
p62
(dp63
g57
(lp64
Vo
aVk
aVu
asba(imorph
Morph
p65
(dp66
g57
(lp67
Vo
aVk
aVu
asba(imorph
Morph
p68
(dp69
g57
(lp70
Vo
aVk
aVu
aVm
aVu\u0301
p71
asba(imorph
Morph
p72
(dp73
g57
(lp74
Vo
aVk
aVu
aVm
ag71
asba(imorph
Morph
p75
(dp76
g57
(lp77
Vo
aVk
aVu
aVc\u030c
p78
aVi\u0301
p79
asba(imorph
Morph
p80
(dp81
g57
(lp82
Vo
aVk
aVu
ag78
ag79
asbasS'underlyingForms'
p83
(dp84
((imorph
Morph
p85
(dp86
g57
(lp87
Vo
aVk
aVu
aVs
aVi
aV\u03b2
aVa
asb(imorph
Morph
p88
(dp89
g57
(lp90
Vo
aVk
aVu
aVs
aVi
aV\u03b2
aVi
aVr
aVa
asb(imorph
Morph
p91
(dp92
g57
(lp93
Vo
aVk
aVu
aVs
aVi
aV\u03b2
aVa
aVn
aVa
asb(imorph
Morph
p94
(dp95
g57
(lp96
Vo
aVk
aVu
aVs
aVi
aV\u03b2
aVi
aVr
aVa
aVn
aVa
asb(imorph
Morph
p97
(dp98
g57
(lp99
Vo
aVk
aVu
aVm
aVu
aVs
aVi\u0301
p100
aV\u03b2
aVa
asb(imorph
Morph
p101
(dp102
g57
(lp103
Vo
aVk
aVu
aVm
aVu
aVs
aVi\u0301
p104
aV\u03b2
aVi
aVr
aVa
asb(imorph
Morph
p105
(dp106
g57
(lp107
Vo
aVk
aVu
aVc\u030c
p108
aVi
aVs
aVi\u0301
p109
aV\u03b2
aVa
asb(imorph
Morph
p110
(dp111
g57
(lp112
Vo
aVk
aVu
aVc\u030c
p113
aVi
aVs
aVi\u0301
p114
aV\u03b2
aVi
aVr
aVa
asbtp115
(imorph
Morph
p116
(dp117
g57
(lp118
Vs
ag79
aV\u03b2
asbs((imorph
Morph
p119
(dp120
g57
(lp121
Vo
aVk
aVu
aV\u03b2
aVu
aVm
aVa
asb(imorph
Morph
p122
(dp123
g57
(lp124
Vo
aVk
aVu
aV\u03b2
aVu
aVm
aVi
aVr
aVa
asb(imorph
Morph
p125
(dp126
g57
(lp127
Vo
aVk
aVu
aV\u03b2
aVu
aVm
aVa
aVn
aVa
asb(imorph
Morph
p128
(dp129
g57
(lp130
Vo
aVk
aVu
aV\u03b2
aVu
aVm
aVi
aVr
aVa
aVn
aVa
asb(imorph
Morph
p131
(dp132
g57
(lp133
Vo
aVk
aVu
aVm
aVu
aV\u03b2
aVu\u0301
p134
aVm
aVa
asb(imorph
Morph
p135
(dp136
g57
(lp137
Vo
aVk
aVu
aVm
aVu
aV\u03b2
aVu\u0301
p138
aVm
aVi
aVr
aVa
asb(imorph
Morph
p139
(dp140
g57
(lp141
Vo
aVk
aVu
aVc\u030c
p142
aVi
aV\u03b2
aVu\u0301
p143
aVm
aVa
asb(imorph
Morph
p144
(dp145
g57
(lp146
Vo
aVk
aVu
aVc\u030c
p147
aVi
aV\u03b2
aVu\u0301
p148
aVm
aVi
aVr
aVa
asbtp149
(imorph
Morph
p150
(dp151
g57
(lp152
V\u03b2
ag71
aVm
asbssS'suffixes'
p153
(lp154
(imorph
Morph
p155
(dp156
g57
(lp157
Va
asba(imorph
Morph
p158
(dp159
g57
(lp160
Vi
aVr
aVa
asba(imorph
Morph
p161
(dp162
g57
(lp163
Va
aVn
aVa
asba(imorph
Morph
p164
(dp165
g57
(lp166
Vi
aVr
aVa\u0301
p167
aVn
aVa
asba(imorph
Morph
p168
(dp169
g57
(lp170
Va
asba(imorph
Morph
p171
(dp172
g57
(lp173
Vi
aVr
aVa
asba(imorph
Morph
p174
(dp175
g57
(lp176
Va
asba(imorph
Morph
p177
(dp178
g57
(lp179
Vi
aVr
aVa
asbasbF186.49152588844299
tp180
a(g6
(g7
g8
NtRp181
(dp182
g11
(lp183
(irule
Rule
p184
(dp185
g15
(irule
Guard
p186
(dp187
g18
I00
sg19
(lp188
(irule
FeatureMatrix
p189
(dp190
g23
(lp191
sg25
V[  ]
p192
sba(irule
FeatureMatrix
p193
(dp194
g23
(lp195
(I01
g30
tp196
asg25
V[ +highTone ]
p197
sbasg33
I00
sg25
V[ +highTone ] [  ]
p198
sg35
I00
sg36
S'L'
sbsg37
(irule
FeatureMatrix
p199
(dp200
g23
(lp201
(I01
g30
tp202
asg25
V[ +highTone ]
p203
sbsg43
(irule
Guard
p204
(dp205
g18
I00
sg19
(lp206
(irule
FeatureMatrix
p207
(dp208
g23
(lp209
sg25
V[  ]
p210
sbasg33
I00
sg25
g210
sg35
I00
sg36
S'R'
sbsg47
(irule
FeatureMatrix
p211
(dp212
g23
(lp213
sg25
V[  ]
p214
sbsg25
V[  ] ---> [ +highTone ] / [ +highTone ] [  ] _ [  ]
p215
sba(irule
Rule
p216
(dp217
g15
(irule
Guard
p218
(dp219
g18
I00
sg19
(lp220
sg33
I00
sg25
V
sg35
I00
sg36
S'L'
sbsg37
(irule
FeatureMatrix
p221
(dp222
g23
(lp223
(I00
g30
tp224
asg25
V[ -highTone ]
p225
sbsg43
(irule
Guard
p226
(dp227
g18
I00
sg19
(lp228
(irule
FeatureMatrix
p229
(dp230
g23
(lp231
sg25
V[  ]
p232
sba(irule
FeatureMatrix
p233
(dp234
g23
(lp235
(I01
g30
tp236
asg25
V[ +highTone ]
p237
sbasg33
I00
sg25
V[  ] [ +highTone ]
p238
sg35
I00
sg36
S'R'
sbsg47
(irule
FeatureMatrix
p239
(dp240
g23
(lp241
sg25
V[  ]
p242
sbsg25
V[  ] ---> [ -highTone ] /  _ [  ] [ +highTone ]
p243
sbasg53
(lp244
(imorph
Morph
p245
(dp246
g57
(lp247
Vo
aVk
aVu
asba(imorph
Morph
p248
(dp249
g57
(lp250
Vo
aVk
aVu
asba(imorph
Morph
p251
(dp252
g57
(lp253
Vo
aVk
aVu
asba(imorph
Morph
p254
(dp255
g57
(lp256
Vo
aVk
aVu
asba(imorph
Morph
p257
(dp258
g57
(lp259
Vo
aVk
ag71
aVm
ag71
asba(imorph
Morph
p260
(dp261
g57
(lp262
Vo
aVk
ag71
aVm
ag71
asba(imorph
Morph
p263
(dp264
g57
(lp265
Vo
aVk
ag71
ag78
ag79
asba(imorph
Morph
p266
(dp267
g57
(lp268
Vo
aVk
ag71
ag78
ag79
asbasg83
(dp269
((imorph
Morph
p270
(dp271
g57
(lp272
Vo
aVk
aVu
aVl
aVu\u0301
p273
aVm
aVa
asb(imorph
Morph
p274
(dp275
g57
(lp276
Vo
aVk
aVu
aVl
aVu
aVm
aVi\u0301
p277
aVr
aVa
asb(imorph
Morph
p278
(dp279
g57
(lp280
Vo
aVk
aVu
aVl
aVu
aVm
aVa\u0301
p281
aVn
aVa
asb(imorph
Morph
p282
(dp283
g57
(lp284
Vo
aVk
aVu
aVl
aVu
aVm
aVi\u0301
p285
aVr
aVa
aVn
aVa
asbNNNNtp286
(imorph
Morph
p287
(dp288
g57
(lp289
Vl
ag71
aVm
asbs(g85
g88
g91
g94
g97
g101
g105
g110
tp290
(imorph
Morph
p291
(dp292
g57
(lp293
Vs
aVi
aV\u03b2
asbs((imorph
Morph
(dp294
g57
(lp295
Vo
aVk
aVu
aVk
aVu\u0301
p296
aV\u03b2
aVa
asb(imorph
Morph
(dp297
g57
(lp298
Vo
aVk
aVu
aVk
aVu
aV\u03b2
aVi\u0301
p299
aVr
aVa
asb(imorph
Morph
(dp300
g57
(lp301
Vo
aVk
aVu
aVk
aVu
aV\u03b2
aVa\u0301
p302
aVn
aVa
asb(imorph
Morph
(dp303
g57
(lp304
Vo
aVk
aVu
aVk
aVu
aV\u03b2
aVi\u0301
p305
aVr
aVa
aVn
aVa
asbNNNNtp306
(imorph
Morph
p307
(dp308
g57
(lp309
Vk
ag71
aV\u03b2
asbs(g119
g122
g125
g128
g131
g135
g139
g144
tp310
(imorph
Morph
p311
(dp312
g57
(lp313
V\u03b2
aVu
aVm
asbssg153
(lp314
(imorph
Morph
p315
(dp316
g57
(lp317
Va
asba(imorph
Morph
p318
(dp319
g57
(lp320
Vi
aVr
aVa
asba(imorph
Morph
p321
(dp322
g57
(lp323
Va
aVn
aVa
asba(imorph
Morph
p324
(dp325
g57
(lp326
Vi
aVr
aVa
aVn
aVa
asba(imorph
Morph
p327
(dp328
g57
(lp329
Va
asba(imorph
Morph
p330
(dp331
g57
(lp332
Vi
aVr
aVa
asba(imorph
Morph
p333
(dp334
g57
(lp335
Va
asba(imorph
Morph
p336
(dp337
g57
(lp338
Vi
aVr
aVa
asbasbF11172.537919998169
tp339
asS'problem'
p340
S'Odden_79_Jita'
p341
sS'finalFrontier'
p342
g6
(csolution
Frontier
p343
g8
NtRp344
(dp345
g53
g244
sg153
g314
sg83
g269
sS'frontiers'
p346
(lp347
(lp348
(irule
Rule
p349
(dp350
g15
(irule
Guard
p351
(dp352
g18
I00
sg19
(lp353
(irule
FeatureMatrix
p354
(dp355
g23
(lp356
sg25
V[  ]
p357
sba(irule
FeatureMatrix
p358
(dp359
g23
(lp360
(I01
S'highTone'
p361
tp362
asg25
V[ +highTone ]
p363
sbasg33
I00
sg25
V[ +highTone ] [  ]
p364
sg35
I00
sg36
S'L'
sbsg37
(irule
FeatureMatrix
p365
(dp366
g23
(lp367
(I01
g361
tp368
asg25
V[ +highTone ]
p369
sbsg43
(irule
Guard
p370
(dp371
g18
I00
sg19
(lp372
(irule
FeatureMatrix
p373
(dp374
g23
(lp375
sg25
V[  ]
p376
sbasg33
I00
sg25
g376
sg35
I00
sg36
S'R'
sbsg47
(irule
FeatureMatrix
p377
(dp378
g23
(lp379
sg25
V[  ]
p380
sbsg25
V[  ] ---> [ +highTone ] / [ +highTone ] [  ] _ [  ]
p381
sba(irule
Rule
p382
(dp383
g15
(irule
Guard
p384
(dp385
g18
I00
sg19
(lp386
(irule
FeatureMatrix
p387
(dp388
g23
(lp389
sg25
Nsba(irule
FeatureMatrix
p390
(dp391
g23
(lp392
(I01
S'highTone'
p393
tp394
asg25
Nsbasg33
I00
sg25
Nsg35
I00
sg36
S'L'
sbsg37
(irule
FeatureMatrix
p395
(dp396
g23
(lp397
(I01
g393
tp398
asg25
Nsbsg43
(irule
Guard
p399
(dp400
g18
I00
sg19
(lp401
(irule
FeatureMatrix
p402
(dp403
g23
(lp404
sg25
Nsba(irule
FeatureMatrix
p405
(dp406
g23
(lp407
sg25
Nsbasg33
I00
sg25
Nsg35
I00
sg36
S'R'
sbsg47
(irule
FeatureMatrix
p408
(dp409
g23
(lp410
sg25
Nsbsg25
Nsba(irule
Rule
p411
(dp412
g15
(irule
Guard
p413
(dp414
g18
I00
sg19
(lp415
(irule
FeatureMatrix
p416
(dp417
g23
(lp418
sg25
Nsba(irule
FeatureMatrix
p419
(dp420
g23
(lp421
(I01
g393
tp422
asg25
Nsbasg33
I00
sg25
Nsg35
I00
sg36
S'L'
sbsg37
(irule
FeatureMatrix
p423
(dp424
g23
(lp425
(I01
g393
tp426
asg25
Nsbsg43
(irule
Guard
p427
(dp428
g18
I00
sg19
(lp429
(irule
FeatureMatrix
p430
(dp431
g23
(lp432
sg25
Nsbasg33
I00
sg25
Nsg35
I00
sg36
S'R'
sbsg47
(irule
FeatureMatrix
p433
(dp434
g23
(lp435
(I01
S'tense'
p436
tp437
asg25
Nsbsg25
Nsba(irule
Rule
p438
(dp439
g15
(irule
Guard
p440
(dp441
g18
I00
sg19
(lp442
(irule
FeatureMatrix
p443
(dp444
g23
(lp445
sg25
Nsba(irule
FeatureMatrix
p446
(dp447
g23
(lp448
(I00
S'lateral'
p449
tp450
a(I01
g393
tp451
asg25
Nsbasg33
I00
sg25
Nsg35
I00
sg36
S'L'
sbsg37
(irule
FeatureMatrix
p452
(dp453
g23
(lp454
(I01
g393
tp455
asg25
Nsbsg43
(irule
Guard
p456
(dp457
g18
I00
sg19
(lp458
(irule
FeatureMatrix
p459
(dp460
g23
(lp461
sg25
Nsbasg33
I00
sg25
Nsg35
I00
sg36
S'R'
sbsg47
(irule
FeatureMatrix
p462
(dp463
g23
(lp464
sg25
Nsbsg25
Nsba(irule
Rule
p465
(dp466
g15
(irule
Guard
p467
(dp468
g18
I00
sg19
(lp469
(irule
FeatureMatrix
p470
(dp471
g23
(lp472
(I00
S'vowel'
p473
tp474
asg25
Nsba(irule
FeatureMatrix
p475
(dp476
g23
(lp477
(I01
g393
tp478
asg25
Nsbasg33
I00
sg25
Nsg35
I00
sg36
S'L'
sbsg37
(irule
FeatureMatrix
p479
(dp480
g23
(lp481
(I01
g393
tp482
asg25
Nsbsg43
(irule
Guard
p483
(dp484
g18
I00
sg19
(lp485
(irule
FeatureMatrix
p486
(dp487
g23
(lp488
sg25
Nsbasg33
I00
sg25
Nsg35
I00
sg36
S'R'
sbsg47
(irule
FeatureMatrix
p489
(dp490
g23
(lp491
sg25
Nsbsg25
Nsba(irule
Rule
p492
(dp493
g15
(irule
Guard
p494
(dp495
g18
I00
sg19
(lp496
(irule
FeatureMatrix
p497
(dp498
g23
(lp499
sg25
Nsba(irule
FeatureMatrix
p500
(dp501
g23
(lp502
(I01
g393
tp503
asg25
Nsbasg33
I00
sg25
Nsg35
I00
sg36
S'L'
sbsg37
(irule
FeatureMatrix
p504
(dp505
g23
(lp506
(I01
g393
tp507
asg25
Nsbsg43
(irule
Guard
p508
(dp509
g18
I00
sg19
(lp510
(irule
FeatureMatrix
p511
(dp512
g23
(lp513
(I01
S'voice'
p514
tp515
asg25
Nsbasg33
I00
sg25
Nsg35
I00
sg36
S'R'
sbsg47
(irule
FeatureMatrix
p516
(dp517
g23
(lp518
sg25
Nsbsg25
Nsba(irule
Rule
p519
(dp520
g15
(irule
Guard
p521
(dp522
g18
I00
sg19
(lp523
(irule
FeatureMatrix
p524
(dp525
g23
(lp526
sg25
Nsba(irule
FeatureMatrix
p527
(dp528
g23
(lp529
(I01
g393
tp530
asg25
Nsbasg33
I00
sg25
Nsg35
I00
sg36
S'L'
sbsg37
(irule
FeatureMatrix
p531
(dp532
g23
(lp533
(I01
g393
tp534
asg25
Nsbsg43
(irule
Guard
p535
(dp536
g18
I00
sg19
(lp537
(irule
FeatureMatrix
p538
(dp539
g23
(lp540
(I00
S'sibilant'
p541
tp542
asg25
Nsbasg33
I00
sg25
Nsg35
I00
sg36
S'R'
sbsg47
(irule
FeatureMatrix
p543
(dp544
g23
(lp545
sg25
Nsbsg25
Nsba(irule
Rule
p546
(dp547
g15
(irule
Guard
p548
(dp549
g18
I00
sg19
(lp550
(irule
FeatureMatrix
p551
(dp552
g23
(lp553
sg25
Nsba(irule
FeatureMatrix
p554
(dp555
g23
(lp556
(I01
g393
tp557
asg25
Nsbasg33
I00
sg25
Nsg35
I00
sg36
S'L'
sbsg37
(irule
FeatureMatrix
p558
(dp559
g23
(lp560
(I01
g393
tp561
asg25
Nsbsg43
(irule
Guard
p562
(dp563
g18
I00
sg19
(lp564
(irule
FeatureMatrix
p565
(dp566
g23
(lp567
(I00
g473
tp568
asg25
Nsbasg33
I00
sg25
Nsg35
I00
sg36
S'R'
sbsg47
(irule
FeatureMatrix
p569
(dp570
g23
(lp571
sg25
Nsbsg25
Nsba(irule
Rule
p572
(dp573
g15
(irule
Guard
p574
(dp575
g18
I00
sg19
(lp576
(irule
FeatureMatrix
p577
(dp578
g23
(lp579
sg25
Nsba(irule
FeatureMatrix
p580
(dp581
g23
(lp582
(I00
S'anterior'
p583
tp584
a(I01
g393
tp585
asg25
Nsbasg33
I00
sg25
Nsg35
I00
sg36
S'L'
sbsg37
(irule
FeatureMatrix
p586
(dp587
g23
(lp588
(I01
g393
tp589
asg25
Nsbsg43
(irule
Guard
p590
(dp591
g18
I00
sg19
(lp592
(irule
FeatureMatrix
p593
(dp594
g23
(lp595
sg25
Nsbasg33
I00
sg25
Nsg35
I00
sg36
S'R'
sbsg47
(irule
FeatureMatrix
p596
(dp597
g23
(lp598
sg25
Nsbsg25
Nsba(irule
Rule
p599
(dp600
g15
(irule
Guard
p601
(dp602
g18
I00
sg19
(lp603
(irule
FeatureMatrix
p604
(dp605
g23
(lp606
sg25
Nsba(irule
FeatureMatrix
p607
(dp608
g23
(lp609
(I01
g393
tp610
asg25
Nsbasg33
I00
sg25
Nsg35
I00
sg36
S'L'
sbsg37
(irule
FeatureMatrix
p611
(dp612
g23
(lp613
(I01
g393
tp614
asg25
Nsbsg43
(irule
Guard
p615
(dp616
g18
I00
sg19
(lp617
(irule
FeatureMatrix
p618
(dp619
g23
(lp620
(I00
S'rounded'
p621
tp622
asg25
Nsbasg33
I00
sg25
Nsg35
I00
sg36
S'R'
sbsg47
(irule
FeatureMatrix
p623
(dp624
g23
(lp625
sg25
Nsbsg25
Nsba(irule
Rule
p626
(dp627
g15
(irule
Guard
p628
(dp629
g18
I00
sg19
(lp630
(irule
FeatureMatrix
p631
(dp632
g23
(lp633
sg25
Nsba(irule
FeatureMatrix
p634
(dp635
g23
(lp636
(I00
S'liquid'
p637
tp638
a(I01
g393
tp639
asg25
Nsbasg33
I00
sg25
Nsg35
I00
sg36
S'L'
sbsg37
(irule
FeatureMatrix
p640
(dp641
g23
(lp642
(I01
g393
tp643
asg25
Nsbsg43
(irule
Guard
p644
(dp645
g18
I00
sg19
(lp646
(irule
FeatureMatrix
p647
(dp648
g23
(lp649
sg25
Nsbasg33
I00
sg25
Nsg35
I00
sg36
S'R'
sbsg47
(irule
FeatureMatrix
p650
(dp651
g23
(lp652
sg25
Nsbsg25
Nsba(irule
Rule
p653
(dp654
g15
(irule
Guard
p655
(dp656
g18
I00
sg19
(lp657
(irule
FeatureMatrix
p658
(dp659
g23
(lp660
sg25
Nsba(irule
FeatureMatrix
p661
(dp662
g23
(lp663
(I00
S'nasal'
p664
tp665
a(I01
g393
tp666
asg25
Nsbasg33
I00
sg25
Nsg35
I00
sg36
S'L'
sbsg37
(irule
FeatureMatrix
p667
(dp668
g23
(lp669
(I01
g393
tp670
asg25
Nsbsg43
(irule
Guard
p671
(dp672
g18
I00
sg19
(lp673
(irule
FeatureMatrix
p674
(dp675
g23
(lp676
sg25
Nsbasg33
I00
sg25
Nsg35
I00
sg36
S'R'
sbsg47
(irule
FeatureMatrix
p677
(dp678
g23
(lp679
sg25
Nsbsg25
Nsba(irule
Rule
p680
(dp681
g15
(irule
Guard
p682
(dp683
g18
I00
sg19
(lp684
(irule
FeatureMatrix
p685
(dp686
g23
(lp687
sg25
Nsba(irule
FeatureMatrix
p688
(dp689
g23
(lp690
(I01
g393
tp691
asg25
Nsbasg33
I00
sg25
Nsg35
I00
sg36
S'L'
sbsg37
(irule
FeatureMatrix
p692
(dp693
g23
(lp694
(I01
g393
tp695
asg25
Nsbsg43
(irule
Guard
p696
(dp697
g18
I00
sg19
(lp698
(irule
FeatureMatrix
p699
(dp700
g23
(lp701
(I00
S'low'
p702
tp703
asg25
Nsbasg33
I00
sg25
Nsg35
I00
sg36
S'R'
sbsg47
(irule
FeatureMatrix
p704
(dp705
g23
(lp706
sg25
Nsbsg25
Nsba(irule
Rule
p707
(dp708
g15
(irule
Guard
p709
(dp710
g18
I00
sg19
(lp711
(irule
FeatureMatrix
p712
(dp713
g23
(lp714
(I00
g702
tp715
asg25
Nsba(irule
FeatureMatrix
p716
(dp717
g23
(lp718
(I01
g393
tp719
asg25
Nsbasg33
I00
sg25
Nsg35
I00
sg36
S'L'
sbsg37
(irule
FeatureMatrix
p720
(dp721
g23
(lp722
(I01
g393
tp723
asg25
Nsbsg43
(irule
Guard
p724
(dp725
g18
I00
sg19
(lp726
(irule
FeatureMatrix
p727
(dp728
g23
(lp729
sg25
Nsbasg33
I00
sg25
Nsg35
I00
sg36
S'R'
sbsg47
(irule
FeatureMatrix
p730
(dp731
g23
(lp732
sg25
Nsbsg25
Nsba(irule
Rule
p733
(dp734
g15
(irule
Guard
p735
(dp736
g18
I00
sg19
(lp737
(irule
FeatureMatrix
p738
(dp739
g23
(lp740
sg25
Nsba(irule
FeatureMatrix
p741
(dp742
g23
(lp743
(I01
g393
tp744
a(I01
g514
tp745
asg25
Nsbasg33
I00
sg25
Nsg35
I00
sg36
S'L'
sbsg37
(irule
FeatureMatrix
p746
(dp747
g23
(lp748
(I01
g393
tp749
asg25
Nsbsg43
(irule
Guard
p750
(dp751
g18
I00
sg19
(lp752
(irule
FeatureMatrix
p753
(dp754
g23
(lp755
sg25
Nsbasg33
I00
sg25
Nsg35
I00
sg36
S'R'
sbsg47
(irule
FeatureMatrix
p756
(dp757
g23
(lp758
sg25
Nsbsg25
Nsba(irule
Rule
p759
(dp760
g15
(irule
Guard
p761
(dp762
g18
I00
sg19
(lp763
(irule
FeatureMatrix
p764
(dp765
g23
(lp766
sg25
Nsba(irule
FeatureMatrix
p767
(dp768
g23
(lp769
(I01
g393
tp770
asg25
Nsbasg33
I00
sg25
Nsg35
I00
sg36
S'L'
sbsg37
(irule
FeatureMatrix
p771
(dp772
g23
(lp773
(I01
g393
tp774
asg25
Nsbsg43
(irule
Guard
p775
(dp776
g18
I00
sg19
(lp777
(irule
FeatureMatrix
p778
(dp779
g23
(lp780
(I00
g449
tp781
asg25
Nsbasg33
I00
sg25
Nsg35
I00
sg36
S'R'
sbsg47
(irule
FeatureMatrix
p782
(dp783
g23
(lp784
sg25
Nsbsg25
Nsba(irule
Rule
p785
(dp786
g15
(irule
Guard
p787
(dp788
g18
I00
sg19
(lp789
(irule
FeatureMatrix
p790
(dp791
g23
(lp792
sg25
Nsba(irule
FeatureMatrix
p793
(dp794
g23
(lp795
(I01
g393
tp796
asg25
Nsbasg33
I00
sg25
Nsg35
I00
sg36
S'L'
sbsg37
(irule
FeatureMatrix
p797
(dp798
g23
(lp799
(I01
g393
tp800
a(I00
g541
tp801
asg25
Nsbsg43
(irule
Guard
p802
(dp803
g18
I00
sg19
(lp804
(irule
FeatureMatrix
p805
(dp806
g23
(lp807
sg25
Nsbasg33
I00
sg25
Nsg35
I00
sg36
S'R'
sbsg47
(irule
FeatureMatrix
p808
(dp809
g23
(lp810
sg25
Nsbsg25
Nsba(irule
Rule
p811
(dp812
g15
(irule
Guard
p813
(dp814
g18
I00
sg19
(lp815
(irule
FeatureMatrix
p816
(dp817
g23
(lp818
sg25
Nsba(irule
FeatureMatrix
p819
(dp820
g23
(lp821
(I01
g393
tp822
asg25
Nsbasg33
I00
sg25
Nsg35
I00
sg36
S'L'
sbsg37
(irule
FeatureMatrix
p823
(dp824
g23
(lp825
(I01
g393
tp826
asg25
Nsbsg43
(irule
Guard
p827
(dp828
g18
I00
sg19
(lp829
(irule
FeatureMatrix
p830
(dp831
g23
(lp832
(I00
S'high'
p833
tp834
asg25
Nsbasg33
I00
sg25
Nsg35
I00
sg36
S'R'
sbsg47
(irule
FeatureMatrix
p835
(dp836
g23
(lp837
sg25
Nsbsg25
Nsba(irule
Rule
p838
(dp839
g15
(irule
Guard
p840
(dp841
g18
I00
sg19
(lp842
(irule
FeatureMatrix
p843
(dp844
g23
(lp845
sg25
Nsba(irule
FeatureMatrix
p846
(dp847
g23
(lp848
(I01
g393
tp849
a(I00
S'coronal'
p850
tp851
asg25
Nsbasg33
I00
sg25
Nsg35
I00
sg36
S'L'
sbsg37
(irule
FeatureMatrix
p852
(dp853
g23
(lp854
(I01
g393
tp855
asg25
Nsbsg43
(irule
Guard
p856
(dp857
g18
I00
sg19
(lp858
(irule
FeatureMatrix
p859
(dp860
g23
(lp861
sg25
Nsbasg33
I00
sg25
Nsg35
I00
sg36
S'R'
sbsg47
(irule
FeatureMatrix
p862
(dp863
g23
(lp864
sg25
Nsbsg25
Nsba(irule
Rule
p865
(dp866
g15
(irule
Guard
p867
(dp868
g18
I00
sg19
(lp869
(irule
FeatureMatrix
p870
(dp871
g23
(lp872
(I00
g436
tp873
asg25
Nsba(irule
FeatureMatrix
p874
(dp875
g23
(lp876
(I01
g393
tp877
asg25
Nsbasg33
I00
sg25
Nsg35
I00
sg36
S'L'
sbsg37
(irule
FeatureMatrix
p878
(dp879
g23
(lp880
(I01
g393
tp881
asg25
Nsbsg43
(irule
Guard
p882
(dp883
g18
I00
sg19
(lp884
(irule
FeatureMatrix
p885
(dp886
g23
(lp887
sg25
Nsbasg33
I00
sg25
Nsg35
I00
sg36
S'R'
sbsg47
(irule
FeatureMatrix
p888
(dp889
g23
(lp890
sg25
Nsbsg25
Nsba(irule
Rule
p891
(dp892
g15
(irule
Guard
p893
(dp894
g18
I00
sg19
(lp895
(irule
FeatureMatrix
p896
(dp897
g23
(lp898
(I00
g621
tp899
asg25
Nsba(irule
FeatureMatrix
p900
(dp901
g23
(lp902
(I01
g393
tp903
asg25
Nsbasg33
I00
sg25
Nsg35
I00
sg36
S'L'
sbsg37
(irule
FeatureMatrix
p904
(dp905
g23
(lp906
(I01
g393
tp907
asg25
Nsbsg43
(irule
Guard
p908
(dp909
g18
I00
sg19
(lp910
(irule
FeatureMatrix
p911
(dp912
g23
(lp913
sg25
Nsbasg33
I00
sg25
Nsg35
I00
sg36
S'R'
sbsg47
(irule
FeatureMatrix
p914
(dp915
g23
(lp916
sg25
Nsbsg25
Nsba(irule
Rule
p917
(dp918
g15
(irule
Guard
p919
(dp920
g18
I00
sg19
(lp921
(irule
FeatureMatrix
p922
(dp923
g23
(lp924
sg25
Nsba(irule
FeatureMatrix
p925
(dp926
g23
(lp927
(I01
g393
tp928
asg25
Nsbasg33
I00
sg25
Nsg35
I00
sg36
S'L'
sbsg37
(irule
FeatureMatrix
p929
(dp930
g23
(lp931
(I01
g393
tp932
asg25
Nsbsg43
(irule
Guard
p933
(dp934
g18
I00
sg19
(lp935
(irule
FeatureMatrix
p936
(dp937
g23
(lp938
(I00
S'back'
p939
tp940
asg25
Nsbasg33
I00
sg25
Nsg35
I00
sg36
S'R'
sbsg47
(irule
FeatureMatrix
p941
(dp942
g23
(lp943
sg25
Nsbsg25
Nsba(irule
Rule
p944
(dp945
g15
(irule
Guard
p946
(dp947
g18
I00
sg19
(lp948
(irule
FeatureMatrix
p949
(dp950
g23
(lp951
sg25
Nsba(irule
FeatureMatrix
p952
(dp953
g23
(lp954
(I01
g393
tp955
asg25
Nsbasg33
I00
sg25
Nsg35
I00
sg36
S'L'
sbsg37
(irule
FeatureMatrix
p956
(dp957
g23
(lp958
(I01
g393
tp959
asg25
Nsbsg43
(irule
Guard
p960
(dp961
g18
I00
sg19
(lp962
(irule
FeatureMatrix
p963
(dp964
g23
(lp965
(I00
g436
tp966
asg25
Nsbasg33
I00
sg25
Nsg35
I00
sg36
S'R'
sbsg47
(irule
FeatureMatrix
p967
(dp968
g23
(lp969
sg25
Nsbsg25
Nsba(irule
Rule
p970
(dp971
g15
(irule
Guard
p972
(dp973
g18
I00
sg19
(lp974
(irule
FeatureMatrix
p975
(dp976
g23
(lp977
sg25
Nsba(irule
FeatureMatrix
p978
(dp979
g23
(lp980
(I01
S'continuant'
p981
tp982
a(I01
g393
tp983
asg25
Nsbasg33
I00
sg25
Nsg35
I00
sg36
S'L'
sbsg37
(irule
FeatureMatrix
p984
(dp985
g23
(lp986
(I01
g393
tp987
asg25
Nsbsg43
(irule
Guard
p988
(dp989
g18
I00
sg19
(lp990
(irule
FeatureMatrix
p991
(dp992
g23
(lp993
sg25
Nsbasg33
I00
sg25
Nsg35
I00
sg36
S'R'
sbsg47
(irule
FeatureMatrix
p994
(dp995
g23
(lp996
sg25
Nsbsg25
Nsba(irule
Rule
p997
(dp998
g15
(irule
Guard
p999
(dp1000
g18
I00
sg19
(lp1001
(irule
FeatureMatrix
p1002
(dp1003
g23
(lp1004
sg25
Nsba(irule
FeatureMatrix
p1005
(dp1006
g23
(lp1007
(I01
g393
tp1008
asg25
Nsbasg33
I00
sg25
Nsg35
I00
sg36
S'L'
sbsg37
(irule
FeatureMatrix
p1009
(dp1010
g23
(lp1011
(I01
g393
tp1012
asg25
Nsbsg43
(irule
Guard
p1013
(dp1014
g18
I00
sg19
(lp1015
(irule
FeatureMatrix
p1016
(dp1017
g23
(lp1018
(I00
g393
tp1019
asg25
Nsbasg33
I00
sg25
Nsg35
I00
sg36
S'R'
sbsg47
(irule
FeatureMatrix
p1020
(dp1021
g23
(lp1022
sg25
Nsbsg25
Nsba(irule
Rule
p1023
(dp1024
g15
(irule
Guard
p1025
(dp1026
g18
I00
sg19
(lp1027
(irule
FeatureMatrix
p1028
(dp1029
g23
(lp1030
(I00
g833
tp1031
asg25
Nsba(irule
FeatureMatrix
p1032
(dp1033
g23
(lp1034
(I01
g393
tp1035
asg25
Nsbasg33
I00
sg25
Nsg35
I00
sg36
S'L'
sbsg37
(irule
FeatureMatrix
p1036
(dp1037
g23
(lp1038
(I01
g393
tp1039
asg25
Nsbsg43
(irule
Guard
p1040
(dp1041
g18
I00
sg19
(lp1042
(irule
FeatureMatrix
p1043
(dp1044
g23
(lp1045
sg25
Nsbasg33
I00
sg25
Nsg35
I00
sg36
S'R'
sbsg47
(irule
FeatureMatrix
p1046
(dp1047
g23
(lp1048
sg25
Nsbsg25
Nsba(irule
Rule
p1049
(dp1050
g15
(irule
Guard
p1051
(dp1052
g18
I00
sg19
(lp1053
(irule
FeatureMatrix
p1054
(dp1055
g23
(lp1056
sg25
Nsba(irule
FeatureMatrix
p1057
(dp1058
g23
(lp1059
(I01
g393
tp1060
asg25
Nsbasg33
I00
sg25
Nsg35
I00
sg36
S'L'
sbsg37
(irule
FeatureMatrix
p1061
(dp1062
g23
(lp1063
(I01
g393
tp1064
asg25
Nsbsg43
(irule
Guard
p1065
(dp1066
g18
I00
sg19
(lp1067
(irule
FeatureMatrix
p1068
(dp1069
g23
(lp1070
sg25
Nsbasg33
I00
sg25
Nsg35
I00
sg36
S'R'
sbsg47
(irule
FeatureMatrix
p1071
(dp1072
g23
(lp1073
(I00
g541
tp1074
asg25
Nsbsg25
Nsba(irule
Rule
p1075
(dp1076
g15
(irule
Guard
p1077
(dp1078
g18
I00
sg19
(lp1079
(irule
FeatureMatrix
p1080
(dp1081
g23
(lp1082
sg25
Nsba(irule
FeatureMatrix
p1083
(dp1084
g23
(lp1085
(I01
g393
tp1086
a(I00
g541
tp1087
asg25
Nsbasg33
I00
sg25
Nsg35
I00
sg36
S'L'
sbsg37
(irule
FeatureMatrix
p1088
(dp1089
g23
(lp1090
(I01
g393
tp1091
asg25
Nsbsg43
(irule
Guard
p1092
(dp1093
g18
I00
sg19
(lp1094
(irule
FeatureMatrix
p1095
(dp1096
g23
(lp1097
sg25
Nsbasg33
I00
sg25
Nsg35
I00
sg36
S'R'
sbsg47
(irule
FeatureMatrix
p1098
(dp1099
g23
(lp1100
sg25
Nsbsg25
Nsba(irule
Rule
p1101
(dp1102
g15
(irule
Guard
p1103
(dp1104
g18
I00
sg19
(lp1105
(irule
FeatureMatrix
p1106
(dp1107
g23
(lp1108
(I00
g637
tp1109
asg25
Nsba(irule
FeatureMatrix
p1110
(dp1111
g23
(lp1112
(I01
g393
tp1113
asg25
Nsbasg33
I00
sg25
Nsg35
I00
sg36
S'L'
sbsg37
(irule
FeatureMatrix
p1114
(dp1115
g23
(lp1116
(I01
g393
tp1117
asg25
Nsbsg43
(irule
Guard
p1118
(dp1119
g18
I00
sg19
(lp1120
(irule
FeatureMatrix
p1121
(dp1122
g23
(lp1123
sg25
Nsbasg33
I00
sg25
Nsg35
I00
sg36
S'R'
sbsg47
(irule
FeatureMatrix
p1124
(dp1125
g23
(lp1126
sg25
Nsbsg25
Nsba(irule
Rule
p1127
(dp1128
g15
(irule
Guard
p1129
(dp1130
g18
I00
sg19
(lp1131
(irule
FeatureMatrix
p1132
(dp1133
g23
(lp1134
sg25
Nsba(irule
FeatureMatrix
p1135
(dp1136
g23
(lp1137
(I01
g393
tp1138
a(I00
g702
tp1139
asg25
Nsbasg33
I00
sg25
Nsg35
I00
sg36
S'L'
sbsg37
(irule
FeatureMatrix
p1140
(dp1141
g23
(lp1142
(I01
g393
tp1143
asg25
Nsbsg43
(irule
Guard
p1144
(dp1145
g18
I00
sg19
(lp1146
(irule
FeatureMatrix
p1147
(dp1148
g23
(lp1149
sg25
Nsbasg33
I00
sg25
Nsg35
I00
sg36
S'R'
sbsg47
(irule
FeatureMatrix
p1150
(dp1151
g23
(lp1152
sg25
Nsbsg25
Nsba(irule
Rule
p1153
(dp1154
g15
(irule
Guard
p1155
(dp1156
g18
I00
sg19
(lp1157
(irule
FeatureMatrix
p1158
(dp1159
g23
(lp1160
sg25
Nsba(irule
FeatureMatrix
p1161
(dp1162
g23
(lp1163
(I01
g393
tp1164
a(I01
g473
tp1165
asg25
Nsbasg33
I00
sg25
Nsg35
I00
sg36
S'L'
sbsg37
(irule
FeatureMatrix
p1166
(dp1167
g23
(lp1168
(I01
g393
tp1169
asg25
Nsbsg43
(irule
Guard
p1170
(dp1171
g18
I00
sg19
(lp1172
(irule
FeatureMatrix
p1173
(dp1174
g23
(lp1175
sg25
Nsbasg33
I00
sg25
Nsg35
I00
sg36
S'R'
sbsg47
(irule
FeatureMatrix
p1176
(dp1177
g23
(lp1178
sg25
Nsbsg25
Nsba(irule
Rule
p1179
(dp1180
g15
(irule
Guard
p1181
(dp1182
g18
I00
sg19
(lp1183
(irule
FeatureMatrix
p1184
(dp1185
g23
(lp1186
sg25
Nsba(irule
FeatureMatrix
p1187
(dp1188
g23
(lp1189
(I01
g393
tp1190
asg25
Nsbasg33
I00
sg25
Nsg35
I00
sg36
S'L'
sbsg37
(irule
FeatureMatrix
p1191
(dp1192
g23
(lp1193
(I01
g393
tp1194
asg25
Nsbsg43
(irule
Guard
p1195
(dp1196
g18
I00
sg19
(lp1197
(irule
FeatureMatrix
p1198
(dp1199
g23
(lp1200
sg25
Nsbasg33
I00
sg25
Nsg35
I00
sg36
S'R'
sbsg47
(irule
FeatureMatrix
p1201
(dp1202
g23
(lp1203
(I01
g514
tp1204
asg25
Nsbsg25
Nsba(irule
Rule
p1205
(dp1206
g15
(irule
Guard
p1207
(dp1208
g18
I00
sg19
(lp1209
(irule
FeatureMatrix
p1210
(dp1211
g23
(lp1212
(I00
g939
tp1213
asg25
Nsba(irule
FeatureMatrix
p1214
(dp1215
g23
(lp1216
(I01
g393
tp1217
asg25
Nsbasg33
I00
sg25
Nsg35
I00
sg36
S'L'
sbsg37
(irule
FeatureMatrix
p1218
(dp1219
g23
(lp1220
(I01
g393
tp1221
asg25
Nsbsg43
(irule
Guard
p1222
(dp1223
g18
I00
sg19
(lp1224
(irule
FeatureMatrix
p1225
(dp1226
g23
(lp1227
sg25
Nsbasg33
I00
sg25
Nsg35
I00
sg36
S'R'
sbsg47
(irule
FeatureMatrix
p1228
(dp1229
g23
(lp1230
sg25
Nsbsg25
Nsba(irule
Rule
p1231
(dp1232
g15
(irule
Guard
p1233
(dp1234
g18
I00
sg19
(lp1235
(irule
FeatureMatrix
p1236
(dp1237
g23
(lp1238
(I00
g393
tp1239
asg25
Nsba(irule
FeatureMatrix
p1240
(dp1241
g23
(lp1242
(I01
g393
tp1243
asg25
Nsbasg33
I00
sg25
Nsg35
I00
sg36
S'L'
sbsg37
(irule
FeatureMatrix
p1244
(dp1245
g23
(lp1246
(I01
g393
tp1247
asg25
Nsbsg43
(irule
Guard
p1248
(dp1249
g18
I00
sg19
(lp1250
(irule
FeatureMatrix
p1251
(dp1252
g23
(lp1253
sg25
Nsbasg33
I00
sg25
Nsg35
I00
sg36
S'R'
sbsg47
(irule
FeatureMatrix
p1254
(dp1255
g23
(lp1256
sg25
Nsbsg25
Nsba(irule
Rule
p1257
(dp1258
g15
(irule
Guard
p1259
(dp1260
g18
I00
sg19
(lp1261
(irule
FeatureMatrix
p1262
(dp1263
g23
(lp1264
(I00
g449
tp1265
asg25
Nsba(irule
FeatureMatrix
p1266
(dp1267
g23
(lp1268
(I01
g393
tp1269
asg25
Nsbasg33
I00
sg25
Nsg35
I00
sg36
S'L'
sbsg37
(irule
FeatureMatrix
p1270
(dp1271
g23
(lp1272
(I01
g393
tp1273
asg25
Nsbsg43
(irule
Guard
p1274
(dp1275
g18
I00
sg19
(lp1276
(irule
FeatureMatrix
p1277
(dp1278
g23
(lp1279
sg25
Nsbasg33
I00
sg25
Nsg35
I00
sg36
S'R'
sbsg47
(irule
FeatureMatrix
p1280
(dp1281
g23
(lp1282
sg25
Nsbsg25
Nsba(irule
Rule
p1283
(dp1284
g15
(irule
Guard
p1285
(dp1286
g18
I00
sg19
(lp1287
(irule
FeatureMatrix
p1288
(dp1289
g23
(lp1290
sg25
Nsba(irule
FeatureMatrix
p1291
(dp1292
g23
(lp1293
(I01
g393
tp1294
asg25
Nsbasg33
I00
sg25
Nsg35
I00
sg36
S'L'
sbsg37
(irule
FeatureMatrix
p1295
(dp1296
g23
(lp1297
(I01
g393
tp1298
a(I01
g514
tp1299
asg25
Nsbsg43
(irule
Guard
p1300
(dp1301
g18
I00
sg19
(lp1302
(irule
FeatureMatrix
p1303
(dp1304
g23
(lp1305
sg25
Nsbasg33
I00
sg25
Nsg35
I00
sg36
S'R'
sbsg47
(irule
FeatureMatrix
p1306
(dp1307
g23
(lp1308
sg25
Nsbsg25
Nsba(irule
Rule
p1309
(dp1310
g15
(irule
Guard
p1311
(dp1312
g18
I00
sg19
(lp1313
(irule
FeatureMatrix
p1314
(dp1315
g23
(lp1316
sg25
Nsba(irule
FeatureMatrix
p1317
(dp1318
g23
(lp1319
(I01
g393
tp1320
asg25
Nsbasg33
I00
sg25
Nsg35
I00
sg36
S'L'
sbsg37
(irule
FeatureMatrix
p1321
(dp1322
g23
(lp1323
(I01
g393
tp1324
asg25
Nsbsg43
(irule
Guard
p1325
(dp1326
g18
I00
sg19
(lp1327
(irule
FeatureMatrix
p1328
(dp1329
g23
(lp1330
sg25
Nsbasg33
I00
sg25
Nsg35
I00
sg36
S'R'
sbsg47
(irule
FeatureMatrix
p1331
(dp1332
g23
(lp1333
(I00
g583
tp1334
asg25
Nsbsg25
Nsba(irule
Rule
p1335
(dp1336
g15
(irule
Guard
p1337
(dp1338
g18
I00
sg19
(lp1339
(irule
FeatureMatrix
p1340
(dp1341
g23
(lp1342
sg25
Nsba(irule
FeatureMatrix
p1343
(dp1344
g23
(lp1345
(I01
g393
tp1346
asg25
Nsbasg33
I00
sg25
Nsg35
I00
sg36
S'L'
sbsg37
(irule
FeatureMatrix
p1347
(dp1348
g23
(lp1349
(I01
g393
tp1350
a(I01
S'sonorant'
p1351
tp1352
asg25
Nsbsg43
(irule
Guard
p1353
(dp1354
g18
I00
sg19
(lp1355
(irule
FeatureMatrix
p1356
(dp1357
g23
(lp1358
sg25
Nsbasg33
I00
sg25
Nsg35
I00
sg36
S'R'
sbsg47
(irule
FeatureMatrix
p1359
(dp1360
g23
(lp1361
sg25
Nsbsg25
Nsba(irule
Rule
p1362
(dp1363
g15
(irule
Guard
p1364
(dp1365
g18
I00
sg19
(lp1366
(irule
FeatureMatrix
p1367
(dp1368
g23
(lp1369
sg25
Nsba(irule
FeatureMatrix
p1370
(dp1371
g23
(lp1372
(I01
g393
tp1373
asg25
Nsbasg33
I00
sg25
Nsg35
I00
sg36
S'L'
sbsg37
(irule
FeatureMatrix
p1374
(dp1375
g23
(lp1376
(I01
g393
tp1377
a(I01
g473
tp1378
asg25
Nsbsg43
(irule
Guard
p1379
(dp1380
g18
I00
sg19
(lp1381
(irule
FeatureMatrix
p1382
(dp1383
g23
(lp1384
sg25
Nsbasg33
I00
sg25
Nsg35
I00
sg36
S'R'
sbsg47
(irule
FeatureMatrix
p1385
(dp1386
g23
(lp1387
sg25
Nsbsg25
Nsba(irule
Rule
p1388
(dp1389
g15
(irule
Guard
p1390
(dp1391
g18
I00
sg19
(lp1392
(irule
FeatureMatrix
p1393
(dp1394
g23
(lp1395
(I01
g583
tp1396
asg25
Nsba(irule
FeatureMatrix
p1397
(dp1398
g23
(lp1399
(I01
g393
tp1400
asg25
Nsbasg33
I00
sg25
Nsg35
I00
sg36
S'L'
sbsg37
(irule
FeatureMatrix
p1401
(dp1402
g23
(lp1403
(I01
g393
tp1404
asg25
Nsbsg43
(irule
Guard
p1405
(dp1406
g18
I00
sg19
(lp1407
(irule
FeatureMatrix
p1408
(dp1409
g23
(lp1410
sg25
Nsbasg33
I00
sg25
Nsg35
I00
sg36
S'R'
sbsg47
(irule
FeatureMatrix
p1411
(dp1412
g23
(lp1413
sg25
Nsbsg25
Nsba(irule
Rule
p1414
(dp1415
g15
(irule
Guard
p1416
(dp1417
g18
I00
sg19
(lp1418
(irule
FeatureMatrix
p1419
(dp1420
g23
(lp1421
sg25
Nsba(irule
FeatureMatrix
p1422
(dp1423
g23
(lp1424
(I01
g393
tp1425
a(I01
g833
tp1426
asg25
Nsbasg33
I00
sg25
Nsg35
I00
sg36
S'L'
sbsg37
(irule
FeatureMatrix
p1427
(dp1428
g23
(lp1429
(I01
g393
tp1430
asg25
Nsbsg43
(irule
Guard
p1431
(dp1432
g18
I00
sg19
(lp1433
(irule
FeatureMatrix
p1434
(dp1435
g23
(lp1436
sg25
Nsbasg33
I00
sg25
Nsg35
I00
sg36
S'R'
sbsg47
(irule
FeatureMatrix
p1437
(dp1438
g23
(lp1439
sg25
Nsbsg25
Nsba(irule
Rule
p1440
(dp1441
g15
(irule
Guard
p1442
(dp1443
g18
I00
sg19
(lp1444
(irule
FeatureMatrix
p1445
(dp1446
g23
(lp1447
sg25
Nsba(irule
FeatureMatrix
p1448
(dp1449
g23
(lp1450
(I01
g393
tp1451
a(I01
g436
tp1452
asg25
Nsbasg33
I00
sg25
Nsg35
I00
sg36
S'L'
sbsg37
(irule
FeatureMatrix
p1453
(dp1454
g23
(lp1455
(I01
g393
tp1456
asg25
Nsbsg43
(irule
Guard
p1457
(dp1458
g18
I00
sg19
(lp1459
(irule
FeatureMatrix
p1460
(dp1461
g23
(lp1462
sg25
Nsbasg33
I00
sg25
Nsg35
I00
sg36
S'R'
sbsg47
(irule
FeatureMatrix
p1463
(dp1464
g23
(lp1465
sg25
Nsbsg25
Nsba(irule
Rule
p1466
(dp1467
g15
(irule
Guard
p1468
(dp1469
g18
I00
sg19
(lp1470
(irule
FeatureMatrix
p1471
(dp1472
g23
(lp1473
sg25
Nsba(irule
FeatureMatrix
p1474
(dp1475
g23
(lp1476
(I01
g393
tp1477
asg25
Nsbasg33
I00
sg25
Nsg35
I00
sg36
S'L'
sbsg37
(irule
FeatureMatrix
p1478
(dp1479
g23
(lp1480
(I01
g393
tp1481
a(I00
g850
tp1482
asg25
Nsbsg43
(irule
Guard
p1483
(dp1484
g18
I00
sg19
(lp1485
(irule
FeatureMatrix
p1486
(dp1487
g23
(lp1488
sg25
Nsbasg33
I00
sg25
Nsg35
I00
sg36
S'R'
sbsg47
(irule
FeatureMatrix
p1489
(dp1490
g23
(lp1491
sg25
Nsbsg25
Nsba(irule
Rule
p1492
(dp1493
g15
(irule
Guard
p1494
(dp1495
g18
I00
sg19
(lp1496
(irule
FeatureMatrix
p1497
(dp1498
g23
(lp1499
sg25
Nsba(irule
FeatureMatrix
p1500
(dp1501
g23
(lp1502
(I01
g393
tp1503
asg25
Nsbasg33
I00
sg25
Nsg35
I00
sg36
S'L'
sbsg37
(irule
FeatureMatrix
p1504
(dp1505
g23
(lp1506
(I01
g393
tp1507
a(I01
g436
tp1508
asg25
Nsbsg43
(irule
Guard
p1509
(dp1510
g18
I00
sg19
(lp1511
(irule
FeatureMatrix
p1512
(dp1513
g23
(lp1514
sg25
Nsbasg33
I00
sg25
Nsg35
I00
sg36
S'R'
sbsg47
(irule
FeatureMatrix
p1515
(dp1516
g23
(lp1517
sg25
Nsbsg25
Nsba(irule
Rule
p1518
(dp1519
g15
(irule
Guard
p1520
(dp1521
g18
I00
sg19
(lp1522
(irule
FeatureMatrix
p1523
(dp1524
g23
(lp1525
sg25
Nsba(irule
FeatureMatrix
p1526
(dp1527
g23
(lp1528
(I01
g393
tp1529
asg25
Nsbasg33
I00
sg25
Nsg35
I00
sg36
S'L'
sbsg37
(irule
FeatureMatrix
p1530
(dp1531
g23
(lp1532
(I00
g449
tp1533
a(I01
g393
tp1534
asg25
Nsbsg43
(irule
Guard
p1535
(dp1536
g18
I00
sg19
(lp1537
(irule
FeatureMatrix
p1538
(dp1539
g23
(lp1540
sg25
Nsbasg33
I00
sg25
Nsg35
I00
sg36
S'R'
sbsg47
(irule
FeatureMatrix
p1541
(dp1542
g23
(lp1543
sg25
Nsbsg25
Nsba(irule
Rule
p1544
(dp1545
g15
(irule
Guard
p1546
(dp1547
g18
I00
sg19
(lp1548
(irule
FeatureMatrix
p1549
(dp1550
g23
(lp1551
sg25
Nsba(irule
FeatureMatrix
p1552
(dp1553
g23
(lp1554
(I01
g393
tp1555
a(I01
g1351
tp1556
asg25
Nsbasg33
I00
sg25
Nsg35
I00
sg36
S'L'
sbsg37
(irule
FeatureMatrix
p1557
(dp1558
g23
(lp1559
(I01
g393
tp1560
asg25
Nsbsg43
(irule
Guard
p1561
(dp1562
g18
I00
sg19
(lp1563
(irule
FeatureMatrix
p1564
(dp1565
g23
(lp1566
sg25
Nsbasg33
I00
sg25
Nsg35
I00
sg36
S'R'
sbsg47
(irule
FeatureMatrix
p1567
(dp1568
g23
(lp1569
sg25
Nsbsg25
Nsba(irule
Rule
p1570
(dp1571
g15
(irule
Guard
p1572
(dp1573
g18
I00
sg19
(lp1574
(irule
FeatureMatrix
p1575
(dp1576
g23
(lp1577
sg25
Nsba(irule
FeatureMatrix
p1578
(dp1579
g23
(lp1580
(I01
g393
tp1581
asg25
Nsbasg33
I00
sg25
Nsg35
I00
sg36
S'L'
sbsg37
(irule
FeatureMatrix
p1582
(dp1583
g23
(lp1584
(I01
g393
tp1585
asg25
Nsbsg43
(irule
Guard
p1586
(dp1587
g18
I00
sg19
(lp1588
(irule
FeatureMatrix
p1589
(dp1590
g23
(lp1591
sg25
Nsbasg33
I00
sg25
Nsg35
I00
sg36
S'R'
sbsg47
(irule
FeatureMatrix
p1592
(dp1593
g23
(lp1594
(I00
g850
tp1595
asg25
Nsbsg25
Nsba(irule
Rule
p1596
(dp1597
g15
(irule
Guard
p1598
(dp1599
g18
I00
sg19
(lp1600
(irule
FeatureMatrix
p1601
(dp1602
g23
(lp1603
sg25
Nsba(irule
FeatureMatrix
p1604
(dp1605
g23
(lp1606
(I01
g393
tp1607
asg25
Nsbasg33
I00
sg25
Nsg35
I00
sg36
S'L'
sbsg37
(irule
FeatureMatrix
p1608
(dp1609
g23
(lp1610
(I01
g393
tp1611
asg25
Nsbsg43
(irule
Guard
p1612
(dp1613
g18
I00
sg19
(lp1614
(irule
FeatureMatrix
p1615
(dp1616
g23
(lp1617
sg25
Nsbasg33
I00
sg25
Nsg35
I00
sg36
S'R'
sbsg47
(irule
FeatureMatrix
p1618
(dp1619
g23
(lp1620
(I01
g473
tp1621
asg25
Nsbsg25
Nsba(irule
Rule
p1622
(dp1623
g15
(irule
Guard
p1624
(dp1625
g18
I00
sg19
(lp1626
(irule
FeatureMatrix
p1627
(dp1628
g23
(lp1629
sg25
Nsba(irule
FeatureMatrix
p1630
(dp1631
g23
(lp1632
(I01
g393
tp1633
asg25
Nsbasg33
I00
sg25
Nsg35
I00
sg36
S'L'
sbsg37
(irule
FeatureMatrix
p1634
(dp1635
g23
(lp1636
(I01
g393
tp1637
asg25
Nsbsg43
(irule
Guard
p1638
(dp1639
g18
I00
sg19
(lp1640
(irule
FeatureMatrix
p1641
(dp1642
g23
(lp1643
sg25
Nsbasg33
I00
sg25
Nsg35
I00
sg36
S'R'
sbsg47
(irule
FeatureMatrix
p1644
(dp1645
g23
(lp1646
(I00
g393
tp1647
asg25
Nsbsg25
Nsba(irule
Rule
p1648
(dp1649
g15
(irule
Guard
p1650
(dp1651
g18
I00
sg19
(lp1652
(irule
FeatureMatrix
p1653
(dp1654
g23
(lp1655
sg25
Nsba(irule
FeatureMatrix
p1656
(dp1657
g23
(lp1658
(I01
g393
tp1659
asg25
Nsbasg33
I00
sg25
Nsg35
I00
sg36
S'L'
sbsg37
(irule
FeatureMatrix
p1660
(dp1661
g23
(lp1662
(I01
g393
tp1663
asg25
Nsbsg43
(irule
Guard
p1664
(dp1665
g18
I00
sg19
(lp1666
(irule
FeatureMatrix
p1667
(dp1668
g23
(lp1669
sg25
Nsbasg33
I00
sg25
Nsg35
I00
sg36
S'R'
sbsg47
(irule
FeatureMatrix
p1670
(dp1671
g23
(lp1672
(I00
g449
tp1673
asg25
Nsbsg25
Nsba(irule
Rule
p1674
(dp1675
g15
(irule
Guard
p1676
(dp1677
g18
I00
sg19
(lp1678
(irule
FeatureMatrix
p1679
(dp1680
g23
(lp1681
sg25
Nsba(irule
FeatureMatrix
p1682
(dp1683
g23
(lp1684
(I01
g393
tp1685
asg25
Nsbasg33
I00
sg25
Nsg35
I00
sg36
S'L'
sbsg37
(irule
FeatureMatrix
p1686
(dp1687
g23
(lp1688
(I01
g393
tp1689
asg25
Nsbsg43
(irule
Guard
p1690
(dp1691
g18
I00
sg19
(lp1692
(irule
FeatureMatrix
p1693
(dp1694
g23
(lp1695
sg25
Nsbasg33
I00
sg25
Nsg35
I00
sg36
S'R'
sbsg47
(irule
FeatureMatrix
p1696
(dp1697
g23
(lp1698
(I00
g664
tp1699
asg25
Nsbsg25
Nsba(irule
Rule
p1700
(dp1701
g15
(irule
Guard
p1702
(dp1703
g18
I00
sg19
(lp1704
(irule
FeatureMatrix
p1705
(dp1706
g23
(lp1707
sg25
Nsba(irule
FeatureMatrix
p1708
(dp1709
g23
(lp1710
(I01
g393
tp1711
asg25
Nsbasg33
I00
sg25
Nsg35
I00
sg36
S'L'
sbsg37
(irule
FeatureMatrix
p1712
(dp1713
g23
(lp1714
(I00
g664
tp1715
a(I01
g393
tp1716
asg25
Nsbsg43
(irule
Guard
p1717
(dp1718
g18
I00
sg19
(lp1719
(irule
FeatureMatrix
p1720
(dp1721
g23
(lp1722
sg25
Nsbasg33
I00
sg25
Nsg35
I00
sg36
S'R'
sbsg47
(irule
FeatureMatrix
p1723
(dp1724
g23
(lp1725
sg25
Nsbsg25
Nsba(irule
Rule
p1726
(dp1727
g15
(irule
Guard
p1728
(dp1729
g18
I00
sg19
(lp1730
(irule
FeatureMatrix
p1731
(dp1732
g23
(lp1733
sg25
Nsba(irule
FeatureMatrix
p1734
(dp1735
g23
(lp1736
(I01
g393
tp1737
asg25
Nsbasg33
I00
sg25
Nsg35
I00
sg36
S'L'
sbsg37
(irule
FeatureMatrix
p1738
(dp1739
g23
(lp1740
(I00
g583
tp1741
a(I01
g393
tp1742
asg25
Nsbsg43
(irule
Guard
p1743
(dp1744
g18
I00
sg19
(lp1745
(irule
FeatureMatrix
p1746
(dp1747
g23
(lp1748
sg25
Nsbasg33
I00
sg25
Nsg35
I00
sg36
S'R'
sbsg47
(irule
FeatureMatrix
p1749
(dp1750
g23
(lp1751
sg25
Nsbsg25
Nsba(irule
Rule
p1752
(dp1753
g15
(irule
Guard
p1754
(dp1755
g18
I00
sg19
(lp1756
(irule
FeatureMatrix
p1757
(dp1758
g23
(lp1759
sg25
Nsba(irule
FeatureMatrix
p1760
(dp1761
g23
(lp1762
(I01
g393
tp1763
asg25
Nsbasg33
I00
sg25
Nsg35
I00
sg36
S'L'
sbsg37
(irule
FeatureMatrix
p1764
(dp1765
g23
(lp1766
(I01
g393
tp1767
asg25
Nsbsg43
(irule
Guard
p1768
(dp1769
g18
I00
sg19
(lp1770
(irule
FeatureMatrix
p1771
(dp1772
g23
(lp1773
sg25
Nsbasg33
I00
sg25
Nsg35
I00
sg36
S'R'
sbsg47
(irule
FeatureMatrix
p1774
(dp1775
g23
(lp1776
(I01
g1351
tp1777
asg25
Nsbsg25
Nsba(irule
Rule
p1778
(dp1779
g15
(irule
Guard
p1780
(dp1781
g18
I00
sg19
(lp1782
(irule
FeatureMatrix
p1783
(dp1784
g23
(lp1785
sg25
Nsba(irule
FeatureMatrix
p1786
(dp1787
g23
(lp1788
(I01
g393
tp1789
asg25
Nsbasg33
I00
sg25
Nsg35
I00
sg36
S'L'
sbsg37
(irule
FeatureMatrix
p1790
(dp1791
g23
(lp1792
(I00
g637
tp1793
a(I01
g393
tp1794
asg25
Nsbsg43
(irule
Guard
p1795
(dp1796
g18
I00
sg19
(lp1797
(irule
FeatureMatrix
p1798
(dp1799
g23
(lp1800
sg25
Nsbasg33
I00
sg25
Nsg35
I00
sg36
S'R'
sbsg47
(irule
FeatureMatrix
p1801
(dp1802
g23
(lp1803
sg25
Nsbsg25
Nsba(irule
Rule
p1804
(dp1805
g15
(irule
Guard
p1806
(dp1807
g18
I00
sg19
(lp1808
(irule
FeatureMatrix
p1809
(dp1810
g23
(lp1811
sg25
Nsba(irule
FeatureMatrix
p1812
(dp1813
g23
(lp1814
(I01
g393
tp1815
asg25
Nsbasg33
I00
sg25
Nsg35
I00
sg36
S'L'
sbsg37
(irule
FeatureMatrix
p1816
(dp1817
g23
(lp1818
(I01
g393
tp1819
asg25
Nsbsg43
(irule
Guard
p1820
(dp1821
g18
I00
sg19
(lp1822
(irule
FeatureMatrix
p1823
(dp1824
g23
(lp1825
sg25
Nsbasg33
I00
sg25
Nsg35
I00
sg36
S'R'
sbsg47
(irule
FeatureMatrix
p1826
(dp1827
g23
(lp1828
(I00
g637
tp1829
asg25
Nsbsg25
Nsba(irule
Rule
p1830
(dp1831
g15
(irule
Guard
p1832
(dp1833
g18
I00
sg19
(lp1834
(irule
FeatureMatrix
p1835
(dp1836
g23
(lp1837
sg25
Nsba(irule
FeatureMatrix
p1838
(dp1839
g23
(lp1840
(I01
g393
tp1841
asg25
Nsbasg33
I00
sg25
Nsg35
I00
sg36
S'L'
sbsg37
(irule
FeatureMatrix
p1842
(dp1843
g23
(lp1844
(I01
g981
tp1845
a(I01
g393
tp1846
asg25
Nsbsg43
(irule
Guard
p1847
(dp1848
g18
I00
sg19
(lp1849
(irule
FeatureMatrix
p1850
(dp1851
g23
(lp1852
sg25
Nsbasg33
I00
sg25
Nsg35
I00
sg36
S'R'
sbsg47
(irule
FeatureMatrix
p1853
(dp1854
g23
(lp1855
sg25
Nsbsg25
Nsba(irule
Rule
p1856
(dp1857
g15
(irule
Guard
p1858
(dp1859
g18
I00
sg19
(lp1860
(irule
FeatureMatrix
p1861
(dp1862
g23
(lp1863
sg25
Nsba(irule
FeatureMatrix
p1864
(dp1865
g23
(lp1866
(I01
g393
tp1867
asg25
Nsbasg33
I00
sg25
Nsg35
I00
sg36
S'L'
sbsg37
(irule
FeatureMatrix
p1868
(dp1869
g23
(lp1870
(I01
g393
tp1871
asg25
Nsbsg43
(irule
Guard
p1872
(dp1873
g18
I00
sg19
(lp1874
(irule
FeatureMatrix
p1875
(dp1876
g23
(lp1877
sg25
Nsbasg33
I00
sg25
Nsg35
I00
sg36
S'R'
sbsg47
(irule
FeatureMatrix
p1878
(dp1879
g23
(lp1880
(I01
g981
tp1881
asg25
Nsbsg25
Nsba(irule
Rule
p1882
(dp1883
g15
(irule
Guard
p1884
(dp1885
g18
I00
sg19
(lp1886
(irule
FeatureMatrix
p1887
(dp1888
g23
(lp1889
sg25
Nsba(irule
FeatureMatrix
p1890
(dp1891
g23
(lp1892
(I01
g393
tp1893
asg25
Nsbasg33
I00
sg25
Nsg35
I00
sg36
S'L'
sbsg37
(irule
FeatureMatrix
p1894
(dp1895
g23
(lp1896
(I01
g393
tp1897
asg25
Nsbsg43
(irule
Guard
p1898
(dp1899
g18
I00
sg19
(lp1900
(irule
FeatureMatrix
p1901
(dp1902
g23
(lp1903
sg25
Nsba(irule
FeatureMatrix
p1904
(dp1905
g23
(lp1906
sg25
Nsbasg33
I00
sg25
Nsg35
I01
sg36
S'R'
sbsg47
(irule
FeatureMatrix
p1907
(dp1908
g23
(lp1909
sg25
Nsbsg25
Nsba(irule
Rule
p1910
(dp1911
g15
(irule
Guard
p1912
(dp1913
g18
I00
sg19
(lp1914
(irule
FeatureMatrix
p1915
(dp1916
g23
(lp1917
sg25
Nsba(irule
FeatureMatrix
p1918
(dp1919
g23
(lp1920
(I01
g393
tp1921
asg25
Nsbasg33
I00
sg25
Nsg35
I00
sg36
S'L'
sbsg37
(irule
FeatureMatrix
p1922
(dp1923
g23
(lp1924
(I01
g393
tp1925
asg25
Nsbsg43
(irule
Guard
p1926
(dp1927
g18
I00
sg19
(lp1928
(irule
FeatureMatrix
p1929
(dp1930
g23
(lp1931
sg25
Nsba(irule
FeatureMatrix
p1932
(dp1933
g23
(lp1934
(I00
g393
tp1935
asg25
Nsbasg33
I00
sg25
Nsg35
I00
sg36
S'R'
sbsg47
(irule
FeatureMatrix
p1936
(dp1937
g23
(lp1938
sg25
Nsbsg25
Nsba(irule
Rule
p1939
(dp1940
g15
(irule
Guard
p1941
(dp1942
g18
I00
sg19
(lp1943
(irule
FeatureMatrix
p1944
(dp1945
g23
(lp1946
sg25
Nsba(irule
FeatureMatrix
p1947
(dp1948
g23
(lp1949
(I01
g393
tp1950
asg25
Nsbasg33
I00
sg25
Nsg35
I00
sg36
S'L'
sbsg37
(irule
FeatureMatrix
p1951
(dp1952
g23
(lp1953
(I01
g393
tp1954
asg25
Nsbsg43
(irule
Guard
p1955
(dp1956
g18
I00
sg19
(lp1957
(irule
FeatureMatrix
p1958
(dp1959
g23
(lp1960
(I00
g621
tp1961
asg25
Nsba(irule
FeatureMatrix
p1962
(dp1963
g23
(lp1964
sg25
Nsbasg33
I00
sg25
Nsg35
I00
sg36
S'R'
sbsg47
(irule
FeatureMatrix
p1965
(dp1966
g23
(lp1967
sg25
Nsbsg25
Nsba(irule
Rule
p1968
(dp1969
g15
(irule
Guard
p1970
(dp1971
g18
I00
sg19
(lp1972
(irule
FeatureMatrix
p1973
(dp1974
g23
(lp1975
sg25
Nsba(irule
FeatureMatrix
p1976
(dp1977
g23
(lp1978
(I01
g393
tp1979
asg25
Nsbasg33
I00
sg25
Nsg35
I00
sg36
S'L'
sbsg37
(irule
FeatureMatrix
p1980
(dp1981
g23
(lp1982
(I01
g393
tp1983
asg25
Nsbsg43
(irule
Guard
p1984
(dp1985
g18
I00
sg19
(lp1986
(irule
FeatureMatrix
p1987
(dp1988
g23
(lp1989
(I00
g449
tp1990
asg25
Nsba(irule
FeatureMatrix
p1991
(dp1992
g23
(lp1993
sg25
Nsbasg33
I00
sg25
Nsg35
I00
sg36
S'R'
sbsg47
(irule
FeatureMatrix
p1994
(dp1995
g23
(lp1996
sg25
Nsbsg25
Nsba(irule
Rule
p1997
(dp1998
g15
(irule
Guard
p1999
(dp2000
g18
I00
sg19
(lp2001
(irule
FeatureMatrix
p2002
(dp2003
g23
(lp2004
sg25
Nsba(irule
FeatureMatrix
p2005
(dp2006
g23
(lp2007
(I01
g393
tp2008
asg25
Nsbasg33
I00
sg25
Nsg35
I00
sg36
S'L'
sbsg37
(irule
FeatureMatrix
p2009
(dp2010
g23
(lp2011
(I01
g393
tp2012
asg25
Nsbsg43
(irule
Guard
p2013
(dp2014
g18
I00
sg19
(lp2015
(irule
FeatureMatrix
p2016
(dp2017
g23
(lp2018
(I00
g393
tp2019
asg25
Nsba(irule
FeatureMatrix
p2020
(dp2021
g23
(lp2022
sg25
Nsbasg33
I00
sg25
Nsg35
I00
sg36
S'R'
sbsg47
(irule
FeatureMatrix
p2023
(dp2024
g23
(lp2025
sg25
Nsbsg25
Nsba(irule
Rule
p2026
(dp2027
g15
(irule
Guard
p2028
(dp2029
g18
I00
sg19
(lp2030
(irule
FeatureMatrix
p2031
(dp2032
g23
(lp2033
sg25
Nsba(irule
FeatureMatrix
p2034
(dp2035
g23
(lp2036
(I01
g393
tp2037
asg25
Nsbasg33
I00
sg25
Nsg35
I00
sg36
S'L'
sbsg37
(irule
FeatureMatrix
p2038
(dp2039
g23
(lp2040
(I01
g393
tp2041
asg25
Nsbsg43
(irule
Guard
p2042
(dp2043
g18
I00
sg19
(lp2044
(irule
FeatureMatrix
p2045
(dp2046
g23
(lp2047
sg25
Nsba(irule
FeatureMatrix
p2048
(dp2049
g23
(lp2050
sg25
Nsbasg33
I00
sg25
Nsg35
I00
sg36
S'R'
sbsg47
(irule
FeatureMatrix
p2051
(dp2052
g23
(lp2053
(I00
g583
tp2054
asg25
Nsbsg25
Nsba(irule
Rule
p2055
(dp2056
g15
(irule
Guard
p2057
(dp2058
g18
I00
sg19
(lp2059
(irule
FeatureMatrix
p2060
(dp2061
g23
(lp2062
sg25
Nsba(irule
FeatureMatrix
p2063
(dp2064
g23
(lp2065
(I01
g393
tp2066
asg25
Nsbasg33
I00
sg25
Nsg35
I00
sg36
S'L'
sbsg37
(irule
FeatureMatrix
p2067
(dp2068
g23
(lp2069
(I01
g393
tp2070
asg25
Nsbsg43
(irule
Guard
p2071
(dp2072
g18
I00
sg19
(lp2073
(irule
FeatureMatrix
p2074
(dp2075
g23
(lp2076
sg25
Nsba(irule
FeatureMatrix
p2077
(dp2078
g23
(lp2079
sg25
Nsbasg33
I00
sg25
Nsg35
I00
sg36
S'R'
sbsg47
(irule
FeatureMatrix
p2080
(dp2081
g23
(lp2082
(I01
g473
tp2083
asg25
Nsbsg25
Nsba(irule
Rule
p2084
(dp2085
g15
(irule
Guard
p2086
(dp2087
g18
I00
sg19
(lp2088
(irule
FeatureMatrix
p2089
(dp2090
g23
(lp2091
(I00
g833
tp2092
asg25
Nsba(irule
FeatureMatrix
p2093
(dp2094
g23
(lp2095
(I01
g393
tp2096
asg25
Nsbasg33
I00
sg25
Nsg35
I00
sg36
S'L'
sbsg37
(irule
FeatureMatrix
p2097
(dp2098
g23
(lp2099
(I01
g393
tp2100
asg25
Nsbsg43
(irule
Guard
p2101
(dp2102
g18
I00
sg19
(lp2103
(irule
FeatureMatrix
p2104
(dp2105
g23
(lp2106
sg25
Nsba(irule
FeatureMatrix
p2107
(dp2108
g23
(lp2109
sg25
Nsbasg33
I00
sg25
Nsg35
I00
sg36
S'R'
sbsg47
(irule
FeatureMatrix
p2110
(dp2111
g23
(lp2112
sg25
Nsbsg25
Nsba(irule
Rule
p2113
(dp2114
g15
(irule
Guard
p2115
(dp2116
g18
I00
sg19
(lp2117
(irule
FeatureMatrix
p2118
(dp2119
g23
(lp2120
sg25
Nsba(irule
FeatureMatrix
p2121
(dp2122
g23
(lp2123
(I01
g393
tp2124
asg25
Nsbasg33
I00
sg25
Nsg35
I00
sg36
S'L'
sbsg37
(irule
FeatureMatrix
p2125
(dp2126
g23
(lp2127
(I01
g393
tp2128
asg25
Nsbsg43
(irule
Guard
p2129
(dp2130
g18
I00
sg19
(lp2131
(irule
FeatureMatrix
p2132
(dp2133
g23
(lp2134
(I00
g833
tp2135
asg25
Nsba(irule
FeatureMatrix
p2136
(dp2137
g23
(lp2138
sg25
Nsbasg33
I00
sg25
Nsg35
I00
sg36
S'R'
sbsg47
(irule
FeatureMatrix
p2139
(dp2140
g23
(lp2141
sg25
Nsbsg25
Nsba(irule
Rule
p2142
(dp2143
g15
(irule
Guard
p2144
(dp2145
g18
I00
sg19
(lp2146
(irule
FeatureMatrix
p2147
(dp2148
g23
(lp2149
sg25
Nsba(irule
FeatureMatrix
p2150
(dp2151
g23
(lp2152
(I01
g393
tp2153
asg25
Nsbasg33
I00
sg25
Nsg35
I00
sg36
S'L'
sbsg37
(irule
FeatureMatrix
p2154
(dp2155
g23
(lp2156
(I01
g393
tp2157
asg25
Nsbsg43
(irule
Guard
p2158
(dp2159
g18
I00
sg19
(lp2160
(irule
FeatureMatrix
p2161
(dp2162
g23
(lp2163
sg25
Nsbasg33
I00
sg25
Nsg35
I00
sg36
S'R'
sbsg47
(irule
FeatureMatrix
p2164
(dp2165
g23
(lp2166
(I00
g583
tp2167
a(I01
g473
tp2168
asg25
Nsbsg25
Nsba(irule
Rule
p2169
(dp2170
g15
(irule
Guard
p2171
(dp2172
g18
I00
sg19
(lp2173
(irule
FeatureMatrix
p2174
(dp2175
g23
(lp2176
sg25
Nsba(irule
FeatureMatrix
p2177
(dp2178
g23
(lp2179
(I01
g393
tp2180
asg25
Nsbasg33
I00
sg25
Nsg35
I00
sg36
S'L'
sbsg37
(irule
FeatureMatrix
p2181
(dp2182
g23
(lp2183
(I01
g393
tp2184
asg25
Nsbsg43
(irule
Guard
p2185
(dp2186
g18
I00
sg19
(lp2187
(irule
FeatureMatrix
p2188
(dp2189
g23
(lp2190
(I00
g939
tp2191
asg25
Nsba(irule
FeatureMatrix
p2192
(dp2193
g23
(lp2194
sg25
Nsbasg33
I00
sg25
Nsg35
I00
sg36
S'R'
sbsg47
(irule
FeatureMatrix
p2195
(dp2196
g23
(lp2197
sg25
Nsbsg25
Nsba(irule
Rule
p2198
(dp2199
g15
(irule
Guard
p2200
(dp2201
g18
I00
sg19
(lp2202
(irule
FeatureMatrix
p2203
(dp2204
g23
(lp2205
sg25
Nsba(irule
FeatureMatrix
p2206
(dp2207
g23
(lp2208
(I01
g393
tp2209
asg25
Nsbasg33
I00
sg25
Nsg35
I00
sg36
S'L'
sbsg37
(irule
FeatureMatrix
p2210
(dp2211
g23
(lp2212
(I01
g393
tp2213
asg25
Nsbsg43
(irule
Guard
p2214
(dp2215
g18
I00
sg19
(lp2216
(irule
FeatureMatrix
p2217
(dp2218
g23
(lp2219
(I00
g621
tp2220
a(I00
g449
tp2221
asg25
Nsbasg33
I00
sg25
Nsg35
I00
sg36
S'R'
sbsg47
(irule
FeatureMatrix
p2222
(dp2223
g23
(lp2224
sg25
Nsbsg25
Nsba(irule
Rule
p2225
(dp2226
g15
(irule
Guard
p2227
(dp2228
g18
I00
sg19
(lp2229
(irule
FeatureMatrix
p2230
(dp2231
g23
(lp2232
sg25
Nsba(irule
FeatureMatrix
p2233
(dp2234
g23
(lp2235
(I01
g393
tp2236
asg25
Nsbasg33
I00
sg25
Nsg35
I00
sg36
S'L'
sbsg37
(irule
FeatureMatrix
p2237
(dp2238
g23
(lp2239
(I01
g393
tp2240
asg25
Nsbsg43
(irule
Guard
p2241
(dp2242
g18
I00
sg19
(lp2243
(irule
FeatureMatrix
p2244
(dp2245
g23
(lp2246
sg25
Nsba(irule
FeatureMatrix
p2247
(dp2248
g23
(lp2249
(I01
g514
tp2250
asg25
Nsbasg33
I00
sg25
Nsg35
I00
sg36
S'R'
sbsg47
(irule
FeatureMatrix
p2251
(dp2252
g23
(lp2253
sg25
Nsbsg25
Nsba(irule
Rule
p2254
(dp2255
g15
(irule
Guard
p2256
(dp2257
g18
I00
sg19
(lp2258
(irule
FeatureMatrix
p2259
(dp2260
g23
(lp2261
(I00
g702
tp2262
asg25
Nsba(irule
FeatureMatrix
p2263
(dp2264
g23
(lp2265
(I01
g393
tp2266
asg25
Nsbasg33
I00
sg25
Nsg35
I00
sg36
S'L'
sbsg37
(irule
FeatureMatrix
p2267
(dp2268
g23
(lp2269
(I01
g393
tp2270
asg25
Nsbsg43
(irule
Guard
p2271
(dp2272
g18
I00
sg19
(lp2273
(irule
FeatureMatrix
p2274
(dp2275
g23
(lp2276
sg25
Nsba(irule
FeatureMatrix
p2277
(dp2278
g23
(lp2279
sg25
Nsbasg33
I00
sg25
Nsg35
I00
sg36
S'R'
sbsg47
(irule
FeatureMatrix
p2280
(dp2281
g23
(lp2282
sg25
Nsbsg25
Nsba(irule
Rule
p2283
(dp2284
g15
(irule
Guard
p2285
(dp2286
g18
I00
sg19
(lp2287
(irule
FeatureMatrix
p2288
(dp2289
g23
(lp2290
sg25
Nsba(irule
FeatureMatrix
p2291
(dp2292
g23
(lp2293
(I01
g393
tp2294
a(I01
g514
tp2295
asg25
Nsbasg33
I00
sg25
Nsg35
I00
sg36
S'L'
sbsg37
(irule
FeatureMatrix
p2296
(dp2297
g23
(lp2298
(I01
g393
tp2299
asg25
Nsbsg43
(irule
Guard
p2300
(dp2301
g18
I00
sg19
(lp2302
(irule
FeatureMatrix
p2303
(dp2304
g23
(lp2305
sg25
Nsba(irule
FeatureMatrix
p2306
(dp2307
g23
(lp2308
sg25
Nsbasg33
I00
sg25
Nsg35
I00
sg36
S'R'
sbsg47
(irule
FeatureMatrix
p2309
(dp2310
g23
(lp2311
sg25
Nsbsg25
Nsba(irule
Rule
p2312
(dp2313
g15
(irule
Guard
p2314
(dp2315
g18
I00
sg19
(lp2316
(irule
FeatureMatrix
p2317
(dp2318
g23
(lp2319
sg25
Nsba(irule
FeatureMatrix
p2320
(dp2321
g23
(lp2322
(I01
g393
tp2323
asg25
Nsbasg33
I00
sg25
Nsg35
I00
sg36
S'L'
sbsg37
(irule
FeatureMatrix
p2324
(dp2325
g23
(lp2326
(I01
g393
tp2327
asg25
Nsbsg43
(irule
Guard
p2328
(dp2329
g18
I00
sg19
(lp2330
(irule
FeatureMatrix
p2331
(dp2332
g23
(lp2333
sg25
Nsba(irule
FeatureMatrix
p2334
(dp2335
g23
(lp2336
sg25
Nsbasg33
I00
sg25
Nsg35
I00
sg36
S'R'
sbsg47
(irule
FeatureMatrix
p2337
(dp2338
g23
(lp2339
(I00
g541
tp2340
asg25
Nsbsg25
Nsba(irule
Rule
p2341
(dp2342
g15
(irule
Guard
p2343
(dp2344
g18
I00
sg19
(lp2345
(irule
FeatureMatrix
p2346
(dp2347
g23
(lp2348
sg25
Nsba(irule
FeatureMatrix
p2349
(dp2350
g23
(lp2351
(I01
g393
tp2352
asg25
Nsbasg33
I00
sg25
Nsg35
I00
sg36
S'L'
sbsg37
(irule
FeatureMatrix
p2353
(dp2354
g23
(lp2355
(I01
g393
tp2356
asg25
Nsbsg43
(irule
Guard
p2357
(dp2358
g18
I00
sg19
(lp2359
(irule
FeatureMatrix
p2360
(dp2361
g23
(lp2362
(I01
g514
tp2363
asg25
Nsbasg33
I00
sg25
Nsg35
I00
sg36
S'R'
sbsg47
(irule
FeatureMatrix
p2364
(dp2365
g23
(lp2366
(I00
g583
tp2367
asg25
Nsbsg25
Nsba(irule
Rule
p2368
(dp2369
g15
(irule
Guard
p2370
(dp2371
g18
I00
sg19
(lp2372
(irule
FeatureMatrix
p2373
(dp2374
g23
(lp2375
sg25
Nsba(irule
FeatureMatrix
p2376
(dp2377
g23
(lp2378
(I01
g393
tp2379
asg25
Nsbasg33
I00
sg25
Nsg35
I00
sg36
S'L'
sbsg37
(irule
FeatureMatrix
p2380
(dp2381
g23
(lp2382
(I01
g393
tp2383
asg25
Nsbsg43
(irule
Guard
p2384
(dp2385
g18
I00
sg19
(lp2386
(irule
FeatureMatrix
p2387
(dp2388
g23
(lp2389
sg25
Nsba(irule
FeatureMatrix
p2390
(dp2391
g23
(lp2392
(I00
g541
tp2393
asg25
Nsbasg33
I00
sg25
Nsg35
I00
sg36
S'R'
sbsg47
(irule
FeatureMatrix
p2394
(dp2395
g23
(lp2396
sg25
Nsbsg25
Nsba(irule
Rule
p2397
(dp2398
g15
(irule
Guard
p2399
(dp2400
g18
I00
sg19
(lp2401
(irule
FeatureMatrix
p2402
(dp2403
g23
(lp2404
sg25
Nsba(irule
FeatureMatrix
p2405
(dp2406
g23
(lp2407
(I01
g393
tp2408
asg25
Nsbasg33
I00
sg25
Nsg35
I00
sg36
S'L'
sbsg37
(irule
FeatureMatrix
p2409
(dp2410
g23
(lp2411
(I01
g393
tp2412
asg25
Nsbsg43
(irule
Guard
p2413
(dp2414
g18
I00
sg19
(lp2415
(irule
FeatureMatrix
p2416
(dp2417
g23
(lp2418
sg25
Nsba(irule
FeatureMatrix
p2419
(dp2420
g23
(lp2421
(I00
g637
tp2422
asg25
Nsbasg33
I00
sg25
Nsg35
I00
sg36
S'R'
sbsg47
(irule
FeatureMatrix
p2423
(dp2424
g23
(lp2425
sg25
Nsbsg25
Nsba(irule
Rule
p2426
(dp2427
g15
(irule
Guard
p2428
(dp2429
g18
I00
sg19
(lp2430
(irule
FeatureMatrix
p2431
(dp2432
g23
(lp2433
sg25
Nsba(irule
FeatureMatrix
p2434
(dp2435
g23
(lp2436
(I00
g449
tp2437
a(I01
g393
tp2438
asg25
Nsbasg33
I00
sg25
Nsg35
I00
sg36
S'L'
sbsg37
(irule
FeatureMatrix
p2439
(dp2440
g23
(lp2441
(I01
g393
tp2442
asg25
Nsbsg43
(irule
Guard
p2443
(dp2444
g18
I00
sg19
(lp2445
(irule
FeatureMatrix
p2446
(dp2447
g23
(lp2448
sg25
Nsba(irule
FeatureMatrix
p2449
(dp2450
g23
(lp2451
sg25
Nsbasg33
I00
sg25
Nsg35
I00
sg36
S'R'
sbsg47
(irule
FeatureMatrix
p2452
(dp2453
g23
(lp2454
sg25
Nsbsg25
Nsba(irule
Rule
p2455
(dp2456
g15
(irule
Guard
p2457
(dp2458
g18
I00
sg19
(lp2459
(irule
FeatureMatrix
p2460
(dp2461
g23
(lp2462
sg25
Nsba(irule
FeatureMatrix
p2463
(dp2464
g23
(lp2465
(I01
g393
tp2466
asg25
Nsbasg33
I00
sg25
Nsg35
I00
sg36
S'L'
sbsg37
(irule
FeatureMatrix
p2467
(dp2468
g23
(lp2469
(I01
g393
tp2470
a(I00
g541
tp2471
asg25
Nsbsg43
(irule
Guard
p2472
(dp2473
g18
I00
sg19
(lp2474
(irule
FeatureMatrix
p2475
(dp2476
g23
(lp2477
(I00
g621
tp2478
asg25
Nsbasg33
I00
sg25
Nsg35
I00
sg36
S'R'
sbsg47
(irule
FeatureMatrix
p2479
(dp2480
g23
(lp2481
sg25
Nsbsg25
Nsba(irule
Rule
p2482
(dp2483
g15
(irule
Guard
p2484
(dp2485
g18
I00
sg19
(lp2486
(irule
FeatureMatrix
p2487
(dp2488
g23
(lp2489
(I00
g393
tp2490
asg25
Nsba(irule
FeatureMatrix
p2491
(dp2492
g23
(lp2493
(I01
g393
tp2494
asg25
Nsbasg33
I00
sg25
Nsg35
I00
sg36
S'L'
sbsg37
(irule
FeatureMatrix
p2495
(dp2496
g23
(lp2497
(I01
g393
tp2498
asg25
Nsbsg43
(irule
Guard
p2499
(dp2500
g18
I00
sg19
(lp2501
(irule
FeatureMatrix
p2502
(dp2503
g23
(lp2504
sg25
Nsbasg33
I00
sg25
Nsg35
I00
sg36
S'R'
sbsg47
(irule
FeatureMatrix
p2505
(dp2506
g23
(lp2507
(I00
g583
tp2508
asg25
Nsbsg25
Nsba(irule
Rule
p2509
(dp2510
g15
(irule
Guard
p2511
(dp2512
g18
I00
sg19
(lp2513
(irule
FeatureMatrix
p2514
(dp2515
g23
(lp2516
sg25
Nsba(irule
FeatureMatrix
p2517
(dp2518
g23
(lp2519
(I01
g393
tp2520
asg25
Nsbasg33
I00
sg25
Nsg35
I00
sg36
S'L'
sbsg37
(irule
FeatureMatrix
p2521
(dp2522
g23
(lp2523
(I01
g393
tp2524
asg25
Nsbsg43
(irule
Guard
p2525
(dp2526
g18
I00
sg19
(lp2527
(irule
FeatureMatrix
p2528
(dp2529
g23
(lp2530
(I00
g436
tp2531
asg25
Nsba(irule
FeatureMatrix
p2532
(dp2533
g23
(lp2534
sg25
Nsbasg33
I00
sg25
Nsg35
I00
sg36
S'R'
sbsg47
(irule
FeatureMatrix
p2535
(dp2536
g23
(lp2537
sg25
Nsbsg25
Nsba(irule
Rule
p2538
(dp2539
g15
(irule
Guard
p2540
(dp2541
g18
I00
sg19
(lp2542
(irule
FeatureMatrix
p2543
(dp2544
g23
(lp2545
sg25
Nsba(irule
FeatureMatrix
p2546
(dp2547
g23
(lp2548
(I01
g393
tp2549
asg25
Nsbasg33
I00
sg25
Nsg35
I00
sg36
S'L'
sbsg37
(irule
FeatureMatrix
p2550
(dp2551
g23
(lp2552
(I01
g393
tp2553
asg25
Nsbsg43
(irule
Guard
p2554
(dp2555
g18
I00
sg19
(lp2556
(irule
FeatureMatrix
p2557
(dp2558
g23
(lp2559
(I00
g621
tp2560
a(I01
g514
tp2561
asg25
Nsbasg33
I00
sg25
Nsg35
I00
sg36
S'R'
sbsg47
(irule
FeatureMatrix
p2562
(dp2563
g23
(lp2564
sg25
Nsbsg25
Nsba(irule
Rule
p2565
(dp2566
g15
(irule
Guard
p2567
(dp2568
g18
I00
sg19
(lp2569
(irule
FeatureMatrix
p2570
(dp2571
g23
(lp2572
sg25
Nsba(irule
FeatureMatrix
p2573
(dp2574
g23
(lp2575
(I01
g393
tp2576
asg25
Nsbasg33
I00
sg25
Nsg35
I00
sg36
S'L'
sbsg37
(irule
FeatureMatrix
p2577
(dp2578
g23
(lp2579
(I01
g393
tp2580
asg25
Nsbsg43
(irule
Guard
p2581
(dp2582
g18
I00
sg19
(lp2583
(irule
FeatureMatrix
p2584
(dp2585
g23
(lp2586
(I00
g702
tp2587
asg25
Nsba(irule
FeatureMatrix
p2588
(dp2589
g23
(lp2590
sg25
Nsbasg33
I00
sg25
Nsg35
I00
sg36
S'R'
sbsg47
(irule
FeatureMatrix
p2591
(dp2592
g23
(lp2593
sg25
Nsbsg25
Nsba(irule
Rule
p2594
(dp2595
g15
(irule
Guard
p2596
(dp2597
g18
I00
sg19
(lp2598
(irule
FeatureMatrix
p2599
(dp2600
g23
(lp2601
sg25
Nsba(irule
FeatureMatrix
p2602
(dp2603
g23
(lp2604
(I01
g393
tp2605
asg25
Nsbasg33
I00
sg25
Nsg35
I00
sg36
S'L'
sbsg37
(irule
FeatureMatrix
p2606
(dp2607
g23
(lp2608
(I01
g393
tp2609
asg25
Nsbsg43
(irule
Guard
p2610
(dp2611
g18
I00
sg19
(lp2612
(irule
FeatureMatrix
p2613
(dp2614
g23
(lp2615
sg25
Nsba(irule
FeatureMatrix
p2616
(dp2617
g23
(lp2618
(I01
g473
tp2619
asg25
Nsbasg33
I00
sg25
Nsg35
I00
sg36
S'R'
sbsg47
(irule
FeatureMatrix
p2620
(dp2621
g23
(lp2622
sg25
Nsbsg25
Nsba(irule
Rule
p2623
(dp2624
g15
(irule
Guard
p2625
(dp2626
g18
I00
sg19
(lp2627
(irule
FeatureMatrix
p2628
(dp2629
g23
(lp2630
sg25
Nsba(irule
FeatureMatrix
p2631
(dp2632
g23
(lp2633
(I01
g393
tp2634
asg25
Nsbasg33
I00
sg25
Nsg35
I00
sg36
S'L'
sbsg37
(irule
FeatureMatrix
p2635
(dp2636
g23
(lp2637
(I01
g393
tp2638
asg25
Nsbsg43
(irule
Guard
p2639
(dp2640
g18
I00
sg19
(lp2641
(irule
FeatureMatrix
p2642
(dp2643
g23
(lp2644
(I00
g541
tp2645
asg25
Nsba(irule
FeatureMatrix
p2646
(dp2647
g23
(lp2648
sg25
Nsbasg33
I00
sg25
Nsg35
I00
sg36
S'R'
sbsg47
(irule
FeatureMatrix
p2649
(dp2650
g23
(lp2651
sg25
Nsbsg25
Nsba(irule
Rule
p2652
(dp2653
g15
(irule
Guard
p2654
(dp2655
g18
I00
sg19
(lp2656
(irule
FeatureMatrix
p2657
(dp2658
g23
(lp2659
sg25
Nsba(irule
FeatureMatrix
p2660
(dp2661
g23
(lp2662
(I01
g393
tp2663
asg25
Nsbasg33
I00
sg25
Nsg35
I00
sg36
S'L'
sbsg37
(irule
FeatureMatrix
p2664
(dp2665
g23
(lp2666
(I01
g393
tp2667
asg25
Nsbsg43
(irule
Guard
p2668
(dp2669
g18
I00
sg19
(lp2670
(irule
FeatureMatrix
p2671
(dp2672
g23
(lp2673
sg25
Nsba(irule
FeatureMatrix
p2674
(dp2675
g23
(lp2676
(I01
g436
tp2677
asg25
Nsbasg33
I00
sg25
Nsg35
I00
sg36
S'R'
sbsg47
(irule
FeatureMatrix
p2678
(dp2679
g23
(lp2680
sg25
Nsbsg25
Nsba(irule
Rule
p2681
(dp2682
g15
(irule
Guard
p2683
(dp2684
g18
I00
sg19
(lp2685
(irule
FeatureMatrix
p2686
(dp2687
g23
(lp2688
sg25
Nsba(irule
FeatureMatrix
p2689
(dp2690
g23
(lp2691
(I01
g393
tp2692
asg25
Nsbasg33
I00
sg25
Nsg35
I00
sg36
S'L'
sbsg37
(irule
FeatureMatrix
p2693
(dp2694
g23
(lp2695
(I01
g393
tp2696
asg25
Nsbsg43
(irule
Guard
p2697
(dp2698
g18
I00
sg19
(lp2699
(irule
FeatureMatrix
p2700
(dp2701
g23
(lp2702
(I00
g473
tp2703
asg25
Nsba(irule
FeatureMatrix
p2704
(dp2705
g23
(lp2706
sg25
Nsbasg33
I00
sg25
Nsg35
I00
sg36
S'R'
sbsg47
(irule
FeatureMatrix
p2707
(dp2708
g23
(lp2709
sg25
Nsbsg25
Nsba(irule
Rule
p2710
(dp2711
g15
(irule
Guard
p2712
(dp2713
g18
I00
sg19
(lp2714
(irule
FeatureMatrix
p2715
(dp2716
g23
(lp2717
sg25
Nsba(irule
FeatureMatrix
p2718
(dp2719
g23
(lp2720
(I01
g393
tp2721
asg25
Nsbasg33
I00
sg25
Nsg35
I00
sg36
S'L'
sbsg37
(irule
FeatureMatrix
p2722
(dp2723
g23
(lp2724
(I01
g393
tp2725
asg25
Nsbsg43
(irule
Guard
p2726
(dp2727
g18
I00
sg19
(lp2728
(irule
FeatureMatrix
p2729
(dp2730
g23
(lp2731
sg25
Nsba(irule
FeatureMatrix
p2732
(dp2733
g23
(lp2734
(I00
g850
tp2735
asg25
Nsbasg33
I00
sg25
Nsg35
I00
sg36
S'R'
sbsg47
(irule
FeatureMatrix
p2736
(dp2737
g23
(lp2738
sg25
Nsbsg25
Nsba(irule
Rule
p2739
(dp2740
g15
(irule
Guard
p2741
(dp2742
g18
I00
sg19
(lp2743
(irule
FeatureMatrix
p2744
(dp2745
g23
(lp2746
sg25
Nsba(irule
FeatureMatrix
p2747
(dp2748
g23
(lp2749
(I01
g393
tp2750
asg25
Nsbasg33
I00
sg25
Nsg35
I00
sg36
S'L'
sbsg37
(irule
FeatureMatrix
p2751
(dp2752
g23
(lp2753
(I01
g393
tp2754
asg25
Nsbsg43
(irule
Guard
p2755
(dp2756
g18
I00
sg19
(lp2757
(irule
FeatureMatrix
p2758
(dp2759
g23
(lp2760
sg25
Nsba(irule
FeatureMatrix
p2761
(dp2762
g23
(lp2763
(I00
g583
tp2764
asg25
Nsbasg33
I00
sg25
Nsg35
I00
sg36
S'R'
sbsg47
(irule
FeatureMatrix
p2765
(dp2766
g23
(lp2767
sg25
Nsbsg25
Nsba(irule
Rule
p2768
(dp2769
g15
(irule
Guard
p2770
(dp2771
g18
I00
sg19
(lp2772
(irule
FeatureMatrix
p2773
(dp2774
g23
(lp2775
(I00
g621
tp2776
asg25
Nsba(irule
FeatureMatrix
p2777
(dp2778
g23
(lp2779
(I01
g393
tp2780
asg25
Nsbasg33
I00
sg25
Nsg35
I00
sg36
S'L'
sbsg37
(irule
FeatureMatrix
p2781
(dp2782
g23
(lp2783
(I01
g393
tp2784
asg25
Nsbsg43
(irule
Guard
p2785
(dp2786
g18
I00
sg19
(lp2787
(irule
FeatureMatrix
p2788
(dp2789
g23
(lp2790
sg25
Nsba(irule
FeatureMatrix
p2791
(dp2792
g23
(lp2793
sg25
Nsbasg33
I00
sg25
Nsg35
I00
sg36
S'R'
sbsg47
(irule
FeatureMatrix
p2794
(dp2795
g23
(lp2796
sg25
Nsbsg25
Nsba(irule
Rule
p2797
(dp2798
g15
(irule
Guard
p2799
(dp2800
g18
I00
sg19
(lp2801
(irule
FeatureMatrix
p2802
(dp2803
g23
(lp2804
sg25
Nsba(irule
FeatureMatrix
p2805
(dp2806
g23
(lp2807
(I01
g393
tp2808
asg25
Nsbasg33
I00
sg25
Nsg35
I00
sg36
S'L'
sbsg37
(irule
FeatureMatrix
p2809
(dp2810
g23
(lp2811
(I01
g393
tp2812
asg25
Nsbsg43
(irule
Guard
p2813
(dp2814
g18
I00
sg19
(lp2815
(irule
FeatureMatrix
p2816
(dp2817
g23
(lp2818
(I01
g514
tp2819
asg25
Nsba(irule
FeatureMatrix
p2820
(dp2821
g23
(lp2822
sg25
Nsbasg33
I00
sg25
Nsg35
I00
sg36
S'R'
sbsg47
(irule
FeatureMatrix
p2823
(dp2824
g23
(lp2825
sg25
Nsbsg25
Nsba(irule
Rule
p2826
(dp2827
g15
(irule
Guard
p2828
(dp2829
g18
I00
sg19
(lp2830
(irule
FeatureMatrix
p2831
(dp2832
g23
(lp2833
sg25
Nsba(irule
FeatureMatrix
p2834
(dp2835
g23
(lp2836
(I01
g393
tp2837
asg25
Nsbasg33
I00
sg25
Nsg35
I00
sg36
S'L'
sbsg37
(irule
FeatureMatrix
p2838
(dp2839
g23
(lp2840
(I01
g393
tp2841
asg25
Nsbsg43
(irule
Guard
p2842
(dp2843
g18
I00
sg19
(lp2844
(irule
FeatureMatrix
p2845
(dp2846
g23
(lp2847
sg25
Nsba(irule
FeatureMatrix
p2848
(dp2849
g23
(lp2850
sg25
Nsbasg33
I00
sg25
Nsg35
I00
sg36
S'R'
sbsg47
(irule
FeatureMatrix
p2851
(dp2852
g23
(lp2853
(I00
g449
tp2854
asg25
Nsbsg25
Nsba(irule
Rule
p2855
(dp2856
g15
(irule
Guard
p2857
(dp2858
g18
I00
sg19
(lp2859
(irule
FeatureMatrix
p2860
(dp2861
g23
(lp2862
sg25
Nsba(irule
FeatureMatrix
p2863
(dp2864
g23
(lp2865
(I01
g393
tp2866
asg25
Nsbasg33
I00
sg25
Nsg35
I00
sg36
S'L'
sbsg37
(irule
FeatureMatrix
p2867
(dp2868
g23
(lp2869
(I01
g393
tp2870
asg25
Nsbsg43
(irule
Guard
p2871
(dp2872
g18
I00
sg19
(lp2873
(irule
FeatureMatrix
p2874
(dp2875
g23
(lp2876
sg25
Nsbasg33
I00
sg25
Nsg35
I00
sg36
S'R'
sbsg47
(irule
FeatureMatrix
p2877
(dp2878
g23
(lp2879
(I00
g583
tp2880
a(I00
g850
tp2881
asg25
Nsbsg25
Nsba(irule
Rule
p2882
(dp2883
g15
(irule
Guard
p2884
(dp2885
g18
I00
sg19
(lp2886
(irule
FeatureMatrix
p2887
(dp2888
g23
(lp2889
sg25
Nsba(irule
FeatureMatrix
p2890
(dp2891
g23
(lp2892
(I01
g393
tp2893
asg25
Nsbasg33
I00
sg25
Nsg35
I00
sg36
S'L'
sbsg37
(irule
FeatureMatrix
p2894
(dp2895
g23
(lp2896
(I01
g393
tp2897
asg25
Nsbsg43
(irule
Guard
p2898
(dp2899
g18
I00
sg19
(lp2900
(irule
FeatureMatrix
p2901
(dp2902
g23
(lp2903
sg25
Nsba(irule
FeatureMatrix
p2904
(dp2905
g23
(lp2906
(I00
g621
tp2907
asg25
Nsbasg33
I00
sg25
Nsg35
I00
sg36
S'R'
sbsg47
(irule
FeatureMatrix
p2908
(dp2909
g23
(lp2910
sg25
Nsbsg25
Nsba(irule
Rule
p2911
(dp2912
g15
(irule
Guard
p2913
(dp2914
g18
I00
sg19
(lp2915
(irule
FeatureMatrix
p2916
(dp2917
g23
(lp2918
sg25
Nsba(irule
FeatureMatrix
p2919
(dp2920
g23
(lp2921
(I01
g393
tp2922
asg25
Nsbasg33
I00
sg25
Nsg35
I00
sg36
S'L'
sbsg37
(irule
FeatureMatrix
p2923
(dp2924
g23
(lp2925
(I01
g393
tp2926
asg25
Nsbsg43
(irule
Guard
p2927
(dp2928
g18
I00
sg19
(lp2929
(irule
FeatureMatrix
p2930
(dp2931
g23
(lp2932
(I00
g702
tp2933
a(I00
g473
tp2934
asg25
Nsbasg33
I00
sg25
Nsg35
I00
sg36
S'R'
sbsg47
(irule
FeatureMatrix
p2935
(dp2936
g23
(lp2937
sg25
Nsbsg25
Nsba(irule
Rule
p2938
(dp2939
g15
(irule
Guard
p2940
(dp2941
g18
I00
sg19
(lp2942
(irule
FeatureMatrix
p2943
(dp2944
g23
(lp2945
sg25
Nsba(irule
FeatureMatrix
p2946
(dp2947
g23
(lp2948
(I01
g393
tp2949
asg25
Nsbasg33
I00
sg25
Nsg35
I00
sg36
S'L'
sbsg37
(irule
FeatureMatrix
p2950
(dp2951
g23
(lp2952
(I01
g393
tp2953
asg25
Nsbsg43
(irule
Guard
p2954
(dp2955
g18
I00
sg19
(lp2956
(irule
FeatureMatrix
p2957
(dp2958
g23
(lp2959
sg25
Nsba(irule
FeatureMatrix
p2960
(dp2961
g23
(lp2962
(I00
g449
tp2963
asg25
Nsbasg33
I00
sg25
Nsg35
I00
sg36
S'R'
sbsg47
(irule
FeatureMatrix
p2964
(dp2965
g23
(lp2966
sg25
Nsbsg25
Nsba(irule
Rule
p2967
(dp2968
g15
(irule
Guard
p2969
(dp2970
g18
I00
sg19
(lp2971
(irule
FeatureMatrix
p2972
(dp2973
g23
(lp2974
sg25
Nsba(irule
FeatureMatrix
p2975
(dp2976
g23
(lp2977
(I00
g664
tp2978
a(I01
g393
tp2979
asg25
Nsbasg33
I00
sg25
Nsg35
I00
sg36
S'L'
sbsg37
(irule
FeatureMatrix
p2980
(dp2981
g23
(lp2982
(I01
g393
tp2983
asg25
Nsbsg43
(irule
Guard
p2984
(dp2985
g18
I00
sg19
(lp2986
(irule
FeatureMatrix
p2987
(dp2988
g23
(lp2989
sg25
Nsba(irule
FeatureMatrix
p2990
(dp2991
g23
(lp2992
sg25
Nsbasg33
I00
sg25
Nsg35
I00
sg36
S'R'
sbsg47
(irule
FeatureMatrix
p2993
(dp2994
g23
(lp2995
sg25
Nsbsg25
Nsba(irule
Rule
p2996
(dp2997
g15
(irule
Guard
p2998
(dp2999
g18
I00
sg19
(lp3000
(irule
FeatureMatrix
p3001
(dp3002
g23
(lp3003
sg25
Nsba(irule
FeatureMatrix
p3004
(dp3005
g23
(lp3006
(I00
g637
tp3007
a(I01
g393
tp3008
asg25
Nsbasg33
I00
sg25
Nsg35
I00
sg36
S'L'
sbsg37
(irule
FeatureMatrix
p3009
(dp3010
g23
(lp3011
(I01
g393
tp3012
asg25
Nsbsg43
(irule
Guard
p3013
(dp3014
g18
I00
sg19
(lp3015
(irule
FeatureMatrix
p3016
(dp3017
g23
(lp3018
sg25
Nsbasg33
I00
sg25
Nsg35
I00
sg36
S'R'
sbsg47
(irule
FeatureMatrix
p3019
(dp3020
g23
(lp3021
(I00
g583
tp3022
asg25
Nsbsg25
Nsba(irule
Rule
p3023
(dp3024
g15
(irule
Guard
p3025
(dp3026
g18
I00
sg19
(lp3027
(irule
FeatureMatrix
p3028
(dp3029
g23
(lp3030
sg25
Nsba(irule
FeatureMatrix
p3031
(dp3032
g23
(lp3033
(I00
g583
tp3034
a(I01
g393
tp3035
asg25
Nsbasg33
I00
sg25
Nsg35
I00
sg36
S'L'
sbsg37
(irule
FeatureMatrix
p3036
(dp3037
g23
(lp3038
(I00
g449
tp3039
a(I01
g393
tp3040
asg25
Nsbsg43
(irule
Guard
p3041
(dp3042
g18
I00
sg19
(lp3043
(irule
FeatureMatrix
p3044
(dp3045
g23
(lp3046
sg25
Nsbasg33
I00
sg25
Nsg35
I00
sg36
S'R'
sbsg47
(irule
FeatureMatrix
p3047
(dp3048
g23
(lp3049
sg25
Nsbsg25
Nsba(irule
Rule
p3050
(dp3051
g15
(irule
Guard
p3052
(dp3053
g18
I00
sg19
(lp3054
(irule
FeatureMatrix
p3055
(dp3056
g23
(lp3057
sg25
Nsba(irule
FeatureMatrix
p3058
(dp3059
g23
(lp3060
(I01
g393
tp3061
asg25
Nsbasg33
I00
sg25
Nsg35
I00
sg36
S'L'
sbsg37
(irule
FeatureMatrix
p3062
(dp3063
g23
(lp3064
(I01
g393
tp3065
asg25
Nsbsg43
(irule
Guard
p3066
(dp3067
g18
I00
sg19
(lp3068
(irule
FeatureMatrix
p3069
(dp3070
g23
(lp3071
sg25
Nsba(irule
FeatureMatrix
p3072
(dp3073
g23
(lp3074
(I00
g664
tp3075
asg25
Nsbasg33
I00
sg25
Nsg35
I00
sg36
S'R'
sbsg47
(irule
FeatureMatrix
p3076
(dp3077
g23
(lp3078
sg25
Nsbsg25
Nsbaa(lp3079
(irule
Rule
p3080
(dp3081
g15
(irule
Guard
p3082
(dp3083
g18
I00
sg19
(lp3084
sg33
I00
sg25
V
sg35
I00
sg36
S'L'
sbsg37
(irule
FeatureMatrix
p3085
(dp3086
g23
(lp3087
(I00
S'highTone'
p3088
tp3089
asg25
V[ -highTone ]
p3090
sbsg43
(irule
Guard
p3091
(dp3092
g18
I00
sg19
(lp3093
(irule
FeatureMatrix
p3094
(dp3095
g23
(lp3096
sg25
V[  ]
p3097
sba(irule
FeatureMatrix
p3098
(dp3099
g23
(lp3100
(I01
g3088
tp3101
asg25
V[ +highTone ]
p3102
sbasg33
I00
sg25
V[  ] [ +highTone ]
p3103
sg35
I00
sg36
S'R'
sbsg47
(irule
FeatureMatrix
p3104
(dp3105
g23
(lp3106
sg25
V[  ]
p3107
sbsg25
V[  ] ---> [ -highTone ] /  _ [  ] [ +highTone ]
p3108
sba(irule
Rule
p3109
(dp3110
g15
(irule
Guard
p3111
(dp3112
g18
I00
sg19
(lp3113
(irule
FeatureMatrix
p3114
(dp3115
g23
(lp3116
sg25
Nsbasg33
I00
sg25
Nsg35
I00
sg36
S'L'
sbsg37
(irule
FeatureMatrix
p3117
(dp3118
g23
(lp3119
(I00
S'highTone'
p3120
tp3121
asg25
Nsbsg43
(irule
Guard
p3122
(dp3123
g18
I00
sg19
(lp3124
(irule
FeatureMatrix
p3125
(dp3126
g23
(lp3127
sg25
Nsba(irule
FeatureMatrix
p3128
(dp3129
g23
(lp3130
(I01
g3120
tp3131
asg25
Nsbasg33
I00
sg25
Nsg35
I00
sg36
S'R'
sbsg47
(irule
FeatureMatrix
p3132
(dp3133
g23
(lp3134
sg25
Nsbsg25
Nsba(irule
Rule
p3135
(dp3136
g15
(irule
Guard
p3137
(dp3138
g18
I00
sg19
(lp3139
sg33
I00
sg25
Nsg35
I00
sg36
S'L'
sbsg37
(irule
FeatureMatrix
p3140
(dp3141
g23
(lp3142
(I00
g3120
tp3143
asg25
Nsbsg43
(irule
Guard
p3144
(dp3145
g18
I00
sg19
(lp3146
(irule
FeatureMatrix
p3147
(dp3148
g23
(lp3149
sg25
Nsba(irule
FeatureMatrix
p3150
(dp3151
g23
(lp3152
(I01
g3120
tp3153
asg25
Nsbasg33
I00
sg25
Nsg35
I01
sg36
S'R'
sbsg47
(irule
FeatureMatrix
p3154
(dp3155
g23
(lp3156
sg25
Nsbsg25
Nsba(irule
Rule
p3157
(dp3158
g15
(irule
Guard
p3159
(dp3160
g18
I00
sg19
(lp3161
sg33
I00
sg25
Nsg35
I00
sg36
S'L'
sbsg37
(irule
FeatureMatrix
p3162
(dp3163
g23
(lp3164
(I00
g3120
tp3165
asg25
Nsbsg43
(irule
Guard
p3166
(dp3167
g18
I00
sg19
(lp3168
(irule
FeatureMatrix
p3169
(dp3170
g23
(lp3171
sg25
Nsba(irule
FeatureMatrix
p3172
(dp3173
g23
(lp3174
(I01
g3120
tp3175
asg25
Nsbasg33
I00
sg25
Nsg35
I00
sg36
S'R'
sbsg47
(irule
FeatureMatrix
p3176
(dp3177
g23
(lp3178
(I01
S'voice'
p3179
tp3180
asg25
Nsbsg25
Nsba(irule
Rule
p3181
(dp3182
g15
(irule
Guard
p3183
(dp3184
g18
I00
sg19
(lp3185
sg33
I00
sg25
Nsg35
I00
sg36
S'L'
sbsg37
(irule
FeatureMatrix
p3186
(dp3187
g23
(lp3188
(I00
g3120
tp3189
asg25
Nsbsg43
(irule
Guard
p3190
(dp3191
g18
I00
sg19
(lp3192
(irule
FeatureMatrix
p3193
(dp3194
g23
(lp3195
(I00
S'low'
p3196
tp3197
asg25
Nsba(irule
FeatureMatrix
p3198
(dp3199
g23
(lp3200
(I01
g3120
tp3201
asg25
Nsbasg33
I00
sg25
Nsg35
I00
sg36
S'R'
sbsg47
(irule
FeatureMatrix
p3202
(dp3203
g23
(lp3204
sg25
Nsbsg25
Nsba(irule
Rule
p3205
(dp3206
g15
(irule
Guard
p3207
(dp3208
g18
I00
sg19
(lp3209
sg33
I00
sg25
Nsg35
I00
sg36
S'L'
sbsg37
(irule
FeatureMatrix
p3210
(dp3211
g23
(lp3212
(I00
g3120
tp3213
asg25
Nsbsg43
(irule
Guard
p3214
(dp3215
g18
I00
sg19
(lp3216
(irule
FeatureMatrix
p3217
(dp3218
g23
(lp3219
sg25
Nsba(irule
FeatureMatrix
p3220
(dp3221
g23
(lp3222
(I00
S'anterior'
p3223
tp3224
a(I01
g3120
tp3225
asg25
Nsbasg33
I00
sg25
Nsg35
I00
sg36
S'R'
sbsg47
(irule
FeatureMatrix
p3226
(dp3227
g23
(lp3228
sg25
Nsbsg25
Nsba(irule
Rule
p3229
(dp3230
g15
(irule
Guard
p3231
(dp3232
g18
I00
sg19
(lp3233
sg33
I00
sg25
Nsg35
I00
sg36
S'L'
sbsg37
(irule
FeatureMatrix
p3234
(dp3235
g23
(lp3236
(I00
g3120
tp3237
asg25
Nsbsg43
(irule
Guard
p3238
(dp3239
g18
I00
sg19
(lp3240
(irule
FeatureMatrix
p3241
(dp3242
g23
(lp3243
sg25
Nsba(irule
FeatureMatrix
p3244
(dp3245
g23
(lp3246
(I01
g3120
tp3247
asg25
Nsbasg33
I00
sg25
Nsg35
I00
sg36
S'R'
sbsg47
(irule
FeatureMatrix
p3248
(dp3249
g23
(lp3250
(I00
S'nasal'
p3251
tp3252
asg25
Nsbsg25
Nsba(irule
Rule
p3253
(dp3254
g15
(irule
Guard
p3255
(dp3256
g18
I00
sg19
(lp3257
sg33
I00
sg25
Nsg35
I00
sg36
S'L'
sbsg37
(irule
FeatureMatrix
p3258
(dp3259
g23
(lp3260
(I00
g3120
tp3261
a(I00
S'sibilant'
p3262
tp3263
asg25
Nsbsg43
(irule
Guard
p3264
(dp3265
g18
I00
sg19
(lp3266
(irule
FeatureMatrix
p3267
(dp3268
g23
(lp3269
sg25
Nsba(irule
FeatureMatrix
p3270
(dp3271
g23
(lp3272
(I01
g3120
tp3273
asg25
Nsbasg33
I00
sg25
Nsg35
I00
sg36
S'R'
sbsg47
(irule
FeatureMatrix
p3274
(dp3275
g23
(lp3276
sg25
Nsbsg25
Nsba(irule
Rule
p3277
(dp3278
g15
(irule
Guard
p3279
(dp3280
g18
I00
sg19
(lp3281
sg33
I00
sg25
Nsg35
I00
sg36
S'L'
sbsg37
(irule
FeatureMatrix
p3282
(dp3283
g23
(lp3284
(I00
g3120
tp3285
a(I01
S'sonorant'
p3286
tp3287
asg25
Nsbsg43
(irule
Guard
p3288
(dp3289
g18
I00
sg19
(lp3290
(irule
FeatureMatrix
p3291
(dp3292
g23
(lp3293
sg25
Nsba(irule
FeatureMatrix
p3294
(dp3295
g23
(lp3296
(I01
g3120
tp3297
asg25
Nsbasg33
I00
sg25
Nsg35
I00
sg36
S'R'
sbsg47
(irule
FeatureMatrix
p3298
(dp3299
g23
(lp3300
sg25
Nsbsg25
Nsba(irule
Rule
p3301
(dp3302
g15
(irule
Guard
p3303
(dp3304
g18
I00
sg19
(lp3305
sg33
I00
sg25
Nsg35
I00
sg36
S'L'
sbsg37
(irule
FeatureMatrix
p3306
(dp3307
g23
(lp3308
(I00
g3120
tp3309
asg25
Nsbsg43
(irule
Guard
p3310
(dp3311
g18
I00
sg19
(lp3312
(irule
FeatureMatrix
p3313
(dp3314
g23
(lp3315
sg25
Nsba(irule
FeatureMatrix
p3316
(dp3317
g23
(lp3318
(I01
g3120
tp3319
a(I01
g3179
tp3320
asg25
Nsbasg33
I00
sg25
Nsg35
I00
sg36
S'R'
sbsg47
(irule
FeatureMatrix
p3321
(dp3322
g23
(lp3323
sg25
Nsbsg25
Nsba(irule
Rule
p3324
(dp3325
g15
(irule
Guard
p3326
(dp3327
g18
I00
sg19
(lp3328
sg33
I00
sg25
Nsg35
I00
sg36
S'L'
sbsg37
(irule
FeatureMatrix
p3329
(dp3330
g23
(lp3331
(I00
g3120
tp3332
asg25
Nsbsg43
(irule
Guard
p3333
(dp3334
g18
I00
sg19
(lp3335
(irule
FeatureMatrix
p3336
(dp3337
g23
(lp3338
(I00
S'vowel'
p3339
tp3340
asg25
Nsba(irule
FeatureMatrix
p3341
(dp3342
g23
(lp3343
(I01
g3120
tp3344
asg25
Nsbasg33
I00
sg25
Nsg35
I00
sg36
S'R'
sbsg47
(irule
FeatureMatrix
p3345
(dp3346
g23
(lp3347
sg25
Nsbsg25
Nsba(irule
Rule
p3348
(dp3349
g15
(irule
Guard
p3350
(dp3351
g18
I00
sg19
(lp3352
sg33
I00
sg25
Nsg35
I00
sg36
S'L'
sbsg37
(irule
FeatureMatrix
p3353
(dp3354
g23
(lp3355
(I00
g3120
tp3356
asg25
Nsbsg43
(irule
Guard
p3357
(dp3358
g18
I00
sg19
(lp3359
(irule
FeatureMatrix
p3360
(dp3361
g23
(lp3362
sg25
Nsba(irule
FeatureMatrix
p3363
(dp3364
g23
(lp3365
(I01
g3120
tp3366
asg25
Nsbasg33
I00
sg25
Nsg35
I00
sg36
S'R'
sbsg47
(irule
FeatureMatrix
p3367
(dp3368
g23
(lp3369
(I01
S'high'
p3370
tp3371
asg25
Nsbsg25
Nsba(irule
Rule
p3372
(dp3373
g15
(irule
Guard
p3374
(dp3375
g18
I00
sg19
(lp3376
sg33
I00
sg25
Nsg35
I00
sg36
S'L'
sbsg37
(irule
FeatureMatrix
p3377
(dp3378
g23
(lp3379
(I00
g3120
tp3380
asg25
Nsbsg43
(irule
Guard
p3381
(dp3382
g18
I00
sg19
(lp3383
(irule
FeatureMatrix
p3384
(dp3385
g23
(lp3386
sg25
Nsba(irule
FeatureMatrix
p3387
(dp3388
g23
(lp3389
(I01
g3120
tp3390
asg25
Nsbasg33
I00
sg25
Nsg35
I00
sg36
S'R'
sbsg47
(irule
FeatureMatrix
p3391
(dp3392
g23
(lp3393
(I00
S'liquid'
p3394
tp3395
asg25
Nsbsg25
Nsba(irule
Rule
p3396
(dp3397
g15
(irule
Guard
p3398
(dp3399
g18
I00
sg19
(lp3400
sg33
I00
sg25
Nsg35
I00
sg36
S'L'
sbsg37
(irule
FeatureMatrix
p3401
(dp3402
g23
(lp3403
(I00
g3120
tp3404
asg25
Nsbsg43
(irule
Guard
p3405
(dp3406
g18
I00
sg19
(lp3407
(irule
FeatureMatrix
p3408
(dp3409
g23
(lp3410
sg25
Nsba(irule
FeatureMatrix
p3411
(dp3412
g23
(lp3413
(I01
g3120
tp3414
asg25
Nsbasg33
I00
sg25
Nsg35
I00
sg36
S'R'
sbsg47
(irule
FeatureMatrix
p3415
(dp3416
g23
(lp3417
(I01
S'continuant'
p3418
tp3419
asg25
Nsbsg25
Nsba(irule
Rule
p3420
(dp3421
g15
(irule
Guard
p3422
(dp3423
g18
I00
sg19
(lp3424
sg33
I00
sg25
Nsg35
I00
sg36
S'L'
sbsg37
(irule
FeatureMatrix
p3425
(dp3426
g23
(lp3427
(I00
g3120
tp3428
asg25
Nsbsg43
(irule
Guard
p3429
(dp3430
g18
I00
sg19
(lp3431
(irule
FeatureMatrix
p3432
(dp3433
g23
(lp3434
(I00
S'tense'
p3435
tp3436
asg25
Nsba(irule
FeatureMatrix
p3437
(dp3438
g23
(lp3439
(I01
g3120
tp3440
asg25
Nsbasg33
I00
sg25
Nsg35
I00
sg36
S'R'
sbsg47
(irule
FeatureMatrix
p3441
(dp3442
g23
(lp3443
sg25
Nsbsg25
Nsba(irule
Rule
p3444
(dp3445
g15
(irule
Guard
p3446
(dp3447
g18
I00
sg19
(lp3448
sg33
I00
sg25
Nsg35
I00
sg36
S'L'
sbsg37
(irule
FeatureMatrix
p3449
(dp3450
g23
(lp3451
(I00
g3394
tp3452
a(I00
g3120
tp3453
asg25
Nsbsg43
(irule
Guard
p3454
(dp3455
g18
I00
sg19
(lp3456
(irule
FeatureMatrix
p3457
(dp3458
g23
(lp3459
sg25
Nsba(irule
FeatureMatrix
p3460
(dp3461
g23
(lp3462
(I01
g3120
tp3463
asg25
Nsbasg33
I00
sg25
Nsg35
I00
sg36
S'R'
sbsg47
(irule
FeatureMatrix
p3464
(dp3465
g23
(lp3466
sg25
Nsbsg25
Nsba(irule
Rule
p3467
(dp3468
g15
(irule
Guard
p3469
(dp3470
g18
I00
sg19
(lp3471
sg33
I00
sg25
Nsg35
I00
sg36
S'L'
sbsg37
(irule
FeatureMatrix
p3472
(dp3473
g23
(lp3474
(I00
g3120
tp3475
asg25
Nsbsg43
(irule
Guard
p3476
(dp3477
g18
I00
sg19
(lp3478
(irule
FeatureMatrix
p3479
(dp3480
g23
(lp3481
sg25
Nsba(irule
FeatureMatrix
p3482
(dp3483
g23
(lp3484
(I00
g3251
tp3485
a(I01
g3120
tp3486
asg25
Nsbasg33
I00
sg25
Nsg35
I00
sg36
S'R'
sbsg47
(irule
FeatureMatrix
p3487
(dp3488
g23
(lp3489
sg25
Nsbsg25
Nsba(irule
Rule
p3490
(dp3491
g15
(irule
Guard
p3492
(dp3493
g18
I00
sg19
(lp3494
sg33
I00
sg25
Nsg35
I00
sg36
S'L'
sbsg37
(irule
FeatureMatrix
p3495
(dp3496
g23
(lp3497
(I00
g3120
tp3498
asg25
Nsbsg43
(irule
Guard
p3499
(dp3500
g18
I00
sg19
(lp3501
(irule
FeatureMatrix
p3502
(dp3503
g23
(lp3504
(I00
g3120
tp3505
asg25
Nsba(irule
FeatureMatrix
p3506
(dp3507
g23
(lp3508
(I01
g3120
tp3509
asg25
Nsbasg33
I00
sg25
Nsg35
I00
sg36
S'R'
sbsg47
(irule
FeatureMatrix
p3510
(dp3511
g23
(lp3512
sg25
Nsbsg25
Nsba(irule
Rule
p3513
(dp3514
g15
(irule
Guard
p3515
(dp3516
g18
I00
sg19
(lp3517
sg33
I00
sg25
Nsg35
I00
sg36
S'L'
sbsg37
(irule
FeatureMatrix
p3518
(dp3519
g23
(lp3520
(I00
g3120
tp3521
asg25
Nsbsg43
(irule
Guard
p3522
(dp3523
g18
I00
sg19
(lp3524
(irule
FeatureMatrix
p3525
(dp3526
g23
(lp3527
sg25
Nsba(irule
FeatureMatrix
p3528
(dp3529
g23
(lp3530
(I00
S'lateral'
p3531
tp3532
a(I01
g3120
tp3533
asg25
Nsbasg33
I00
sg25
Nsg35
I00
sg36
S'R'
sbsg47
(irule
FeatureMatrix
p3534
(dp3535
g23
(lp3536
sg25
Nsbsg25
Nsba(irule
Rule
p3537
(dp3538
g15
(irule
Guard
p3539
(dp3540
g18
I00
sg19
(lp3541
sg33
I00
sg25
Nsg35
I00
sg36
S'L'
sbsg37
(irule
FeatureMatrix
p3542
(dp3543
g23
(lp3544
(I00
g3120
tp3545
asg25
Nsbsg43
(irule
Guard
p3546
(dp3547
g18
I00
sg19
(lp3548
(irule
FeatureMatrix
p3549
(dp3550
g23
(lp3551
sg25
Nsba(irule
FeatureMatrix
p3552
(dp3553
g23
(lp3554
(I01
g3120
tp3555
a(I00
g3262
tp3556
asg25
Nsbasg33
I00
sg25
Nsg35
I00
sg36
S'R'
sbsg47
(irule
FeatureMatrix
p3557
(dp3558
g23
(lp3559
sg25
Nsbsg25
Nsba(irule
Rule
p3560
(dp3561
g15
(irule
Guard
p3562
(dp3563
g18
I00
sg19
(lp3564
sg33
I00
sg25
Nsg35
I00
sg36
S'L'
sbsg37
(irule
FeatureMatrix
p3565
(dp3566
g23
(lp3567
(I00
g3120
tp3568
a(I01
g3435
tp3569
asg25
Nsbsg43
(irule
Guard
p3570
(dp3571
g18
I00
sg19
(lp3572
(irule
FeatureMatrix
p3573
(dp3574
g23
(lp3575
sg25
Nsba(irule
FeatureMatrix
p3576
(dp3577
g23
(lp3578
(I01
g3120
tp3579
asg25
Nsbasg33
I00
sg25
Nsg35
I00
sg36
S'R'
sbsg47
(irule
FeatureMatrix
p3580
(dp3581
g23
(lp3582
sg25
Nsbsg25
Nsba(irule
Rule
p3583
(dp3584
g15
(irule
Guard
p3585
(dp3586
g18
I00
sg19
(lp3587
sg33
I00
sg25
Nsg35
I00
sg36
S'L'
sbsg37
(irule
FeatureMatrix
p3588
(dp3589
g23
(lp3590
(I00
g3120
tp3591
asg25
Nsbsg43
(irule
Guard
p3592
(dp3593
g18
I00
sg19
(lp3594
(irule
FeatureMatrix
p3595
(dp3596
g23
(lp3597
sg25
Nsba(irule
FeatureMatrix
p3598
(dp3599
g23
(lp3600
(I01
g3120
tp3601
asg25
Nsbasg33
I00
sg25
Nsg35
I00
sg36
S'R'
sbsg47
(irule
FeatureMatrix
p3602
(dp3603
g23
(lp3604
(I00
g3262
tp3605
asg25
Nsbsg25
Nsba(irule
Rule
p3606
(dp3607
g15
(irule
Guard
p3608
(dp3609
g18
I00
sg19
(lp3610
sg33
I00
sg25
Nsg35
I00
sg36
S'L'
sbsg37
(irule
FeatureMatrix
p3611
(dp3612
g23
(lp3613
(I00
g3120
tp3614
a(I01
g3339
tp3615
asg25
Nsbsg43
(irule
Guard
p3616
(dp3617
g18
I00
sg19
(lp3618
(irule
FeatureMatrix
p3619
(dp3620
g23
(lp3621
sg25
Nsba(irule
FeatureMatrix
p3622
(dp3623
g23
(lp3624
(I01
g3120
tp3625
asg25
Nsbasg33
I00
sg25
Nsg35
I00
sg36
S'R'
sbsg47
(irule
FeatureMatrix
p3626
(dp3627
g23
(lp3628
sg25
Nsbsg25
Nsba(irule
Rule
p3629
(dp3630
g15
(irule
Guard
p3631
(dp3632
g18
I00
sg19
(lp3633
sg33
I00
sg25
Nsg35
I00
sg36
S'L'
sbsg37
(irule
FeatureMatrix
p3634
(dp3635
g23
(lp3636
(I00
g3120
tp3637
asg25
Nsbsg43
(irule
Guard
p3638
(dp3639
g18
I00
sg19
(lp3640
(irule
FeatureMatrix
p3641
(dp3642
g23
(lp3643
sg25
Nsba(irule
FeatureMatrix
p3644
(dp3645
g23
(lp3646
(I01
g3120
tp3647
asg25
Nsbasg33
I00
sg25
Nsg35
I00
sg36
S'R'
sbsg47
(irule
FeatureMatrix
p3648
(dp3649
g23
(lp3650
(I00
g3223
tp3651
asg25
Nsbsg25
Nsba(irule
Rule
p3652
(dp3653
g15
(irule
Guard
p3654
(dp3655
g18
I00
sg19
(lp3656
sg33
I00
sg25
Nsg35
I00
sg36
S'L'
sbsg37
(irule
FeatureMatrix
p3657
(dp3658
g23
(lp3659
(I00
g3120
tp3660
asg25
Nsbsg43
(irule
Guard
p3661
(dp3662
g18
I00
sg19
(lp3663
(irule
FeatureMatrix
p3664
(dp3665
g23
(lp3666
sg25
Nsba(irule
FeatureMatrix
p3667
(dp3668
g23
(lp3669
(I01
g3120
tp3670
asg25
Nsbasg33
I00
sg25
Nsg35
I00
sg36
S'R'
sbsg47
(irule
FeatureMatrix
p3671
(dp3672
g23
(lp3673
(I00
g3531
tp3674
asg25
Nsbsg25
Nsba(irule
Rule
p3675
(dp3676
g15
(irule
Guard
p3677
(dp3678
g18
I00
sg19
(lp3679
sg33
I00
sg25
Nsg35
I00
sg36
S'L'
sbsg37
(irule
FeatureMatrix
p3680
(dp3681
g23
(lp3682
(I00
g3120
tp3683
asg25
Nsbsg43
(irule
Guard
p3684
(dp3685
g18
I00
sg19
(lp3686
(irule
FeatureMatrix
p3687
(dp3688
g23
(lp3689
sg25
Nsba(irule
FeatureMatrix
p3690
(dp3691
g23
(lp3692
(I00
g3394
tp3693
a(I01
g3120
tp3694
asg25
Nsbasg33
I00
sg25
Nsg35
I00
sg36
S'R'
sbsg47
(irule
FeatureMatrix
p3695
(dp3696
g23
(lp3697
sg25
Nsbsg25
Nsba(irule
Rule
p3698
(dp3699
g15
(irule
Guard
p3700
(dp3701
g18
I00
sg19
(lp3702
sg33
I00
sg25
Nsg35
I00
sg36
S'L'
sbsg37
(irule
FeatureMatrix
p3703
(dp3704
g23
(lp3705
(I00
g3120
tp3706
a(I00
S'coronal'
p3707
tp3708
asg25
Nsbsg43
(irule
Guard
p3709
(dp3710
g18
I00
sg19
(lp3711
(irule
FeatureMatrix
p3712
(dp3713
g23
(lp3714
sg25
Nsba(irule
FeatureMatrix
p3715
(dp3716
g23
(lp3717
(I01
g3120
tp3718
asg25
Nsbasg33
I00
sg25
Nsg35
I00
sg36
S'R'
sbsg47
(irule
FeatureMatrix
p3719
(dp3720
g23
(lp3721
sg25
Nsbsg25
Nsba(irule
Rule
p3722
(dp3723
g15
(irule
Guard
p3724
(dp3725
g18
I00
sg19
(lp3726
sg33
I00
sg25
Nsg35
I00
sg36
S'L'
sbsg37
(irule
FeatureMatrix
p3727
(dp3728
g23
(lp3729
(I00
g3531
tp3730
a(I00
g3120
tp3731
asg25
Nsbsg43
(irule
Guard
p3732
(dp3733
g18
I00
sg19
(lp3734
(irule
FeatureMatrix
p3735
(dp3736
g23
(lp3737
sg25
Nsba(irule
FeatureMatrix
p3738
(dp3739
g23
(lp3740
(I01
g3120
tp3741
asg25
Nsbasg33
I00
sg25
Nsg35
I00
sg36
S'R'
sbsg47
(irule
FeatureMatrix
p3742
(dp3743
g23
(lp3744
sg25
Nsbsg25
Nsba(irule
Rule
p3745
(dp3746
g15
(irule
Guard
p3747
(dp3748
g18
I00
sg19
(lp3749
sg33
I00
sg25
Nsg35
I00
sg36
S'L'
sbsg37
(irule
FeatureMatrix
p3750
(dp3751
g23
(lp3752
(I00
g3120
tp3753
asg25
Nsbsg43
(irule
Guard
p3754
(dp3755
g18
I00
sg19
(lp3756
(irule
FeatureMatrix
p3757
(dp3758
g23
(lp3759
sg25
Nsba(irule
FeatureMatrix
p3760
(dp3761
g23
(lp3762
(I01
g3120
tp3763
a(I00
g3707
tp3764
asg25
Nsbasg33
I00
sg25
Nsg35
I00
sg36
S'R'
sbsg47
(irule
FeatureMatrix
p3765
(dp3766
g23
(lp3767
sg25
Nsbsg25
Nsba(irule
Rule
p3768
(dp3769
g15
(irule
Guard
p3770
(dp3771
g18
I00
sg19
(lp3772
sg33
I00
sg25
Nsg35
I00
sg36
S'L'
sbsg37
(irule
FeatureMatrix
p3773
(dp3774
g23
(lp3775
(I00
g3120
tp3776
asg25
Nsbsg43
(irule
Guard
p3777
(dp3778
g18
I00
sg19
(lp3779
(irule
FeatureMatrix
p3780
(dp3781
g23
(lp3782
(I00
S'rounded'
p3783
tp3784
asg25
Nsba(irule
FeatureMatrix
p3785
(dp3786
g23
(lp3787
(I01
g3120
tp3788
asg25
Nsbasg33
I00
sg25
Nsg35
I00
sg36
S'R'
sbsg47
(irule
FeatureMatrix
p3789
(dp3790
g23
(lp3791
sg25
Nsbsg25
Nsba(irule
Rule
p3792
(dp3793
g15
(irule
Guard
p3794
(dp3795
g18
I00
sg19
(lp3796
sg33
I00
sg25
Nsg35
I00
sg36
S'L'
sbsg37
(irule
FeatureMatrix
p3797
(dp3798
g23
(lp3799
(I00
g3120
tp3800
asg25
Nsbsg43
(irule
Guard
p3801
(dp3802
g18
I00
sg19
(lp3803
(irule
FeatureMatrix
p3804
(dp3805
g23
(lp3806
sg25
Nsba(irule
FeatureMatrix
p3807
(dp3808
g23
(lp3809
(I01
g3120
tp3810
asg25
Nsbasg33
I00
sg25
Nsg35
I00
sg36
S'R'
sbsg47
(irule
FeatureMatrix
p3811
(dp3812
g23
(lp3813
(I00
g3196
tp3814
asg25
Nsbsg25
Nsba(irule
Rule
p3815
(dp3816
g15
(irule
Guard
p3817
(dp3818
g18
I00
sg19
(lp3819
sg33
I00
sg25
Nsg35
I00
sg36
S'L'
sbsg37
(irule
FeatureMatrix
p3820
(dp3821
g23
(lp3822
(I00
g3120
tp3823
a(I01
g3179
tp3824
asg25
Nsbsg43
(irule
Guard
p3825
(dp3826
g18
I00
sg19
(lp3827
(irule
FeatureMatrix
p3828
(dp3829
g23
(lp3830
sg25
Nsba(irule
FeatureMatrix
p3831
(dp3832
g23
(lp3833
(I01
g3120
tp3834
asg25
Nsbasg33
I00
sg25
Nsg35
I00
sg36
S'R'
sbsg47
(irule
FeatureMatrix
p3835
(dp3836
g23
(lp3837
sg25
Nsbsg25
Nsba(irule
Rule
p3838
(dp3839
g15
(irule
Guard
p3840
(dp3841
g18
I00
sg19
(lp3842
sg33
I00
sg25
Nsg35
I00
sg36
S'L'
sbsg37
(irule
FeatureMatrix
p3843
(dp3844
g23
(lp3845
(I00
g3223
tp3846
a(I00
g3120
tp3847
asg25
Nsbsg43
(irule
Guard
p3848
(dp3849
g18
I00
sg19
(lp3850
(irule
FeatureMatrix
p3851
(dp3852
g23
(lp3853
sg25
Nsba(irule
FeatureMatrix
p3854
(dp3855
g23
(lp3856
(I01
g3120
tp3857
asg25
Nsbasg33
I00
sg25
Nsg35
I00
sg36
S'R'
sbsg47
(irule
FeatureMatrix
p3858
(dp3859
g23
(lp3860
sg25
Nsbsg25
Nsba(irule
Rule
p3861
(dp3862
g15
(irule
Guard
p3863
(dp3864
g18
I00
sg19
(lp3865
sg33
I00
sg25
Nsg35
I00
sg36
S'L'
sbsg37
(irule
FeatureMatrix
p3866
(dp3867
g23
(lp3868
(I00
g3120
tp3869
asg25
Nsbsg43
(irule
Guard
p3870
(dp3871
g18
I00
sg19
(lp3872
(irule
FeatureMatrix
p3873
(dp3874
g23
(lp3875
sg25
Nsba(irule
FeatureMatrix
p3876
(dp3877
g23
(lp3878
(I01
g3120
tp3879
asg25
Nsbasg33
I00
sg25
Nsg35
I00
sg36
S'R'
sbsg47
(irule
FeatureMatrix
p3880
(dp3881
g23
(lp3882
(I01
g3286
tp3883
asg25
Nsbsg25
Nsba(irule
Rule
p3884
(dp3885
g15
(irule
Guard
p3886
(dp3887
g18
I00
sg19
(lp3888
sg33
I00
sg25
Nsg35
I00
sg36
S'L'
sbsg37
(irule
FeatureMatrix
p3889
(dp3890
g23
(lp3891
(I00
g3120
tp3892
asg25
Nsbsg43
(irule
Guard
p3893
(dp3894
g18
I00
sg19
(lp3895
(irule
FeatureMatrix
p3896
(dp3897
g23
(lp3898
sg25
Nsba(irule
FeatureMatrix
p3899
(dp3900
g23
(lp3901
(I01
g3120
tp3902
asg25
Nsbasg33
I00
sg25
Nsg35
I00
sg36
S'R'
sbsg47
(irule
FeatureMatrix
p3903
(dp3904
g23
(lp3905
(I01
g3339
tp3906
asg25
Nsbsg25
Nsba(irule
Rule
p3907
(dp3908
g15
(irule
Guard
p3909
(dp3910
g18
I00
sg19
(lp3911
sg33
I00
sg25
Nsg35
I00
sg36
S'L'
sbsg37
(irule
FeatureMatrix
p3912
(dp3913
g23
(lp3914
(I00
g3251
tp3915
a(I00
g3120
tp3916
asg25
Nsbsg43
(irule
Guard
p3917
(dp3918
g18
I00
sg19
(lp3919
(irule
FeatureMatrix
p3920
(dp3921
g23
(lp3922
sg25
Nsba(irule
FeatureMatrix
p3923
(dp3924
g23
(lp3925
(I01
g3120
tp3926
asg25
Nsbasg33
I00
sg25
Nsg35
I00
sg36
S'R'
sbsg47
(irule
FeatureMatrix
p3927
(dp3928
g23
(lp3929
sg25
Nsbsg25
Nsba(irule
Rule
p3930
(dp3931
g15
(irule
Guard
p3932
(dp3933
g18
I00
sg19
(lp3934
sg33
I00
sg25
Nsg35
I00
sg36
S'L'
sbsg37
(irule
FeatureMatrix
p3935
(dp3936
g23
(lp3937
(I00
g3120
tp3938
asg25
Nsbsg43
(irule
Guard
p3939
(dp3940
g18
I00
sg19
(lp3941
(irule
FeatureMatrix
p3942
(dp3943
g23
(lp3944
sg25
Nsba(irule
FeatureMatrix
p3945
(dp3946
g23
(lp3947
(I01
g3120
tp3948
a(I01
g3339
tp3949
asg25
Nsbasg33
I00
sg25
Nsg35
I00
sg36
S'R'
sbsg47
(irule
FeatureMatrix
p3950
(dp3951
g23
(lp3952
sg25
Nsbsg25
Nsba(irule
Rule
p3953
(dp3954
g15
(irule
Guard
p3955
(dp3956
g18
I00
sg19
(lp3957
sg33
I00
sg25
Nsg35
I00
sg36
S'L'
sbsg37
(irule
FeatureMatrix
p3958
(dp3959
g23
(lp3960
(I01
g3418
tp3961
a(I00
g3120
tp3962
asg25
Nsbsg43
(irule
Guard
p3963
(dp3964
g18
I00
sg19
(lp3965
(irule
FeatureMatrix
p3966
(dp3967
g23
(lp3968
sg25
Nsba(irule
FeatureMatrix
p3969
(dp3970
g23
(lp3971
(I01
g3120
tp3972
asg25
Nsbasg33
I00
sg25
Nsg35
I00
sg36
S'R'
sbsg47
(irule
FeatureMatrix
p3973
(dp3974
g23
(lp3975
sg25
Nsbsg25
Nsba(irule
Rule
p3976
(dp3977
g15
(irule
Guard
p3978
(dp3979
g18
I00
sg19
(lp3980
sg33
I00
sg25
Nsg35
I00
sg36
S'L'
sbsg37
(irule
FeatureMatrix
p3981
(dp3982
g23
(lp3983
(I00
g3120
tp3984
asg25
Nsbsg43
(irule
Guard
p3985
(dp3986
g18
I00
sg19
(lp3987
(irule
FeatureMatrix
p3988
(dp3989
g23
(lp3990
sg25
Nsba(irule
FeatureMatrix
p3991
(dp3992
g23
(lp3993
(I01
g3418
tp3994
a(I01
g3120
tp3995
asg25
Nsbasg33
I00
sg25
Nsg35
I00
sg36
S'R'
sbsg47
(irule
FeatureMatrix
p3996
(dp3997
g23
(lp3998
sg25
Nsbsg25
Nsba(irule
Rule
p3999
(dp4000
g15
(irule
Guard
p4001
(dp4002
g18
I00
sg19
(lp4003
sg33
I00
sg25
Nsg35
I00
sg36
S'L'
sbsg37
(irule
FeatureMatrix
p4004
(dp4005
g23
(lp4006
(I00
g3120
tp4007
asg25
Nsbsg43
(irule
Guard
p4008
(dp4009
g18
I00
sg19
(lp4010
(irule
FeatureMatrix
p4011
(dp4012
g23
(lp4013
sg25
Nsba(irule
FeatureMatrix
p4014
(dp4015
g23
(lp4016
(I01
g3120
tp4017
asg25
Nsbasg33
I00
sg25
Nsg35
I00
sg36
S'R'
sbsg47
(irule
FeatureMatrix
p4018
(dp4019
g23
(lp4020
(I01
g3120
tp4021
asg25
Nsbsg25
Nsba(irule
Rule
p4022
(dp4023
g15
(irule
Guard
p4024
(dp4025
g18
I00
sg19
(lp4026
sg33
I00
sg25
Nsg35
I00
sg36
S'L'
sbsg37
(irule
FeatureMatrix
p4027
(dp4028
g23
(lp4029
(I00
g3120
tp4030
asg25
Nsbsg43
(irule
Guard
p4031
(dp4032
g18
I00
sg19
(lp4033
(irule
FeatureMatrix
p4034
(dp4035
g23
(lp4036
sg25
Nsba(irule
FeatureMatrix
p4037
(dp4038
g23
(lp4039
(I01
g3120
tp4040
asg25
Nsbasg33
I00
sg25
Nsg35
I00
sg36
S'R'
sbsg47
(irule
FeatureMatrix
p4041
(dp4042
g23
(lp4043
(I01
g3435
tp4044
asg25
Nsbsg25
Nsba(irule
Rule
p4045
(dp4046
g15
(irule
Guard
p4047
(dp4048
g18
I00
sg19
(lp4049
sg33
I00
sg25
Nsg35
I00
sg36
S'L'
sbsg37
(irule
FeatureMatrix
p4050
(dp4051
g23
(lp4052
(I00
g3120
tp4053
asg25
Nsbsg43
(irule
Guard
p4054
(dp4055
g18
I00
sg19
(lp4056
(irule
FeatureMatrix
p4057
(dp4058
g23
(lp4059
sg25
Nsba(irule
FeatureMatrix
p4060
(dp4061
g23
(lp4062
(I01
g3120
tp4063
asg25
Nsbasg33
I00
sg25
Nsg35
I00
sg36
S'R'
sbsg47
(irule
FeatureMatrix
p4064
(dp4065
g23
(lp4066
(I00
g3707
tp4067
asg25
Nsbsg25
Nsba(irule
Rule
p4068
(dp4069
g15
(irule
Guard
p4070
(dp4071
g18
I00
sg19
(lp4072
sg33
I00
sg25
Nsg35
I00
sg36
S'L'
sbsg37
(irule
FeatureMatrix
p4073
(dp4074
g23
(lp4075
(I00
g3120
tp4076
asg25
Nsbsg43
(irule
Guard
p4077
(dp4078
g18
I00
sg19
(lp4079
(irule
FeatureMatrix
p4080
(dp4081
g23
(lp4082
sg25
Nsba(irule
FeatureMatrix
p4083
(dp4084
g23
(lp4085
(I01
g3120
tp4086
a(I01
g3435
tp4087
asg25
Nsbasg33
I00
sg25
Nsg35
I00
sg36
S'R'
sbsg47
(irule
FeatureMatrix
p4088
(dp4089
g23
(lp4090
sg25
Nsbsg25
Nsba(irule
Rule
p4091
(dp4092
g15
(irule
Guard
p4093
(dp4094
g18
I00
sg19
(lp4095
sg33
I00
sg25
Nsg35
I00
sg36
S'L'
sbsg37
(irule
FeatureMatrix
p4096
(dp4097
g23
(lp4098
(I00
g3120
tp4099
asg25
Nsbsg43
(irule
Guard
p4100
(dp4101
g18
I00
sg19
(lp4102
(irule
FeatureMatrix
p4103
(dp4104
g23
(lp4105
sg25
Nsba(irule
FeatureMatrix
p4106
(dp4107
g23
(lp4108
(I01
g3120
tp4109
a(I01
g3286
tp4110
asg25
Nsbasg33
I00
sg25
Nsg35
I00
sg36
S'R'
sbsg47
(irule
FeatureMatrix
p4111
(dp4112
g23
(lp4113
sg25
Nsbsg25
Nsba(irule
Rule
p4114
(dp4115
g15
(irule
Guard
p4116
(dp4117
g18
I00
sg19
(lp4118
sg33
I00
sg25
Nsg35
I00
sg36
S'L'
sbsg37
(irule
FeatureMatrix
p4119
(dp4120
g23
(lp4121
(I00
g3251
tp4122
a(I00
g3531
tp4123
a(I00
g3120
tp4124
asg25
Nsbsg43
(irule
Guard
p4125
(dp4126
g18
I00
sg19
(lp4127
(irule
FeatureMatrix
p4128
(dp4129
g23
(lp4130
sg25
Nsba(irule
FeatureMatrix
p4131
(dp4132
g23
(lp4133
(I01
g3120
tp4134
asg25
Nsbasg33
I00
sg25
Nsg35
I00
sg36
S'R'
sbsg47
(irule
FeatureMatrix
p4135
(dp4136
g23
(lp4137
sg25
Nsbsg25
Nsba(irule
Rule
p4138
(dp4139
g15
(irule
Guard
p4140
(dp4141
g18
I00
sg19
(lp4142
(irule
FeatureMatrix
p4143
(dp4144
g23
(lp4145
sg25
Nsba(irule
FeatureMatrix
p4146
(dp4147
g23
(lp4148
sg25
Nsbasg33
I00
sg25
Nsg35
I00
sg36
S'L'
sbsg37
(irule
FeatureMatrix
p4149
(dp4150
g23
(lp4151
(I00
g3120
tp4152
asg25
Nsbsg43
(irule
Guard
p4153
(dp4154
g18
I00
sg19
(lp4155
(irule
FeatureMatrix
p4156
(dp4157
g23
(lp4158
sg25
Nsba(irule
FeatureMatrix
p4159
(dp4160
g23
(lp4161
(I01
g3120
tp4162
asg25
Nsbasg33
I00
sg25
Nsg35
I00
sg36
S'R'
sbsg47
(irule
FeatureMatrix
p4163
(dp4164
g23
(lp4165
sg25
Nsbsg25
Nsba(irule
Rule
p4166
(dp4167
g15
(irule
Guard
p4168
(dp4169
g18
I00
sg19
(lp4170
(irule
FeatureMatrix
p4171
(dp4172
g23
(lp4173
(I00
g3120
tp4174
asg25
Nsbasg33
I00
sg25
Nsg35
I00
sg36
S'L'
sbsg37
(irule
FeatureMatrix
p4175
(dp4176
g23
(lp4177
(I00
g3120
tp4178
asg25
Nsbsg43
(irule
Guard
p4179
(dp4180
g18
I00
sg19
(lp4181
(irule
FeatureMatrix
p4182
(dp4183
g23
(lp4184
sg25
Nsba(irule
FeatureMatrix
p4185
(dp4186
g23
(lp4187
(I01
g3120
tp4188
asg25
Nsbasg33
I00
sg25
Nsg35
I00
sg36
S'R'
sbsg47
(irule
FeatureMatrix
p4189
(dp4190
g23
(lp4191
sg25
Nsbsg25
Nsba(irule
Rule
p4192
(dp4193
g15
(irule
Guard
p4194
(dp4195
g18
I00
sg19
(lp4196
(irule
FeatureMatrix
p4197
(dp4198
g23
(lp4199
sg25
Nsbasg33
I00
sg25
Nsg35
I00
sg36
S'L'
sbsg37
(irule
FeatureMatrix
p4200
(dp4201
g23
(lp4202
(I00
g3120
tp4203
asg25
Nsbsg43
(irule
Guard
p4204
(dp4205
g18
I00
sg19
(lp4206
(irule
FeatureMatrix
p4207
(dp4208
g23
(lp4209
sg25
Nsba(irule
FeatureMatrix
p4210
(dp4211
g23
(lp4212
(I01
g3120
tp4213
a(I00
g3262
tp4214
asg25
Nsbasg33
I00
sg25
Nsg35
I00
sg36
S'R'
sbsg47
(irule
FeatureMatrix
p4215
(dp4216
g23
(lp4217
sg25
Nsbsg25
Nsba(irule
Rule
p4218
(dp4219
g15
(irule
Guard
p4220
(dp4221
g18
I00
sg19
(lp4222
(irule
FeatureMatrix
p4223
(dp4224
g23
(lp4225
sg25
Nsbasg33
I00
sg25
Nsg35
I00
sg36
S'L'
sbsg37
(irule
FeatureMatrix
p4226
(dp4227
g23
(lp4228
(I00
g3120
tp4229
a(I00
g3262
tp4230
asg25
Nsbsg43
(irule
Guard
p4231
(dp4232
g18
I00
sg19
(lp4233
(irule
FeatureMatrix
p4234
(dp4235
g23
(lp4236
sg25
Nsba(irule
FeatureMatrix
p4237
(dp4238
g23
(lp4239
(I01
g3120
tp4240
asg25
Nsbasg33
I00
sg25
Nsg35
I00
sg36
S'R'
sbsg47
(irule
FeatureMatrix
p4241
(dp4242
g23
(lp4243
sg25
Nsbsg25
Nsba(irule
Rule
p4244
(dp4245
g15
(irule
Guard
p4246
(dp4247
g18
I00
sg19
(lp4248
(irule
FeatureMatrix
p4249
(dp4250
g23
(lp4251
(I00
g3339
tp4252
asg25
Nsbasg33
I00
sg25
Nsg35
I00
sg36
S'L'
sbsg37
(irule
FeatureMatrix
p4253
(dp4254
g23
(lp4255
(I00
g3120
tp4256
asg25
Nsbsg43
(irule
Guard
p4257
(dp4258
g18
I00
sg19
(lp4259
(irule
FeatureMatrix
p4260
(dp4261
g23
(lp4262
sg25
Nsba(irule
FeatureMatrix
p4263
(dp4264
g23
(lp4265
(I01
g3120
tp4266
asg25
Nsbasg33
I00
sg25
Nsg35
I00
sg36
S'R'
sbsg47
(irule
FeatureMatrix
p4267
(dp4268
g23
(lp4269
sg25
Nsbsg25
Nsba(irule
Rule
p4270
(dp4271
g15
(irule
Guard
p4272
(dp4273
g18
I00
sg19
(lp4274
sg33
I00
sg25
Nsg35
I00
sg36
S'L'
sbsg37
(irule
FeatureMatrix
p4275
(dp4276
g23
(lp4277
(I00
g3120
tp4278
asg25
Nsbsg43
(irule
Guard
p4279
(dp4280
g18
I00
sg19
(lp4281
(irule
FeatureMatrix
p4282
(dp4283
g23
(lp4284
sg25
Nsba(irule
FeatureMatrix
p4285
(dp4286
g23
(lp4287
(I01
g3120
tp4288
asg25
Nsbasg33
I00
sg25
Nsg35
I00
sg36
S'R'
sbsg47
(irule
FeatureMatrix
p4289
(dp4290
g23
(lp4291
(I01
g3418
tp4292
a(I00
g3251
tp4293
asg25
Nsbsg25
Nsba(irule
Rule
p4294
(dp4295
g15
(irule
Guard
p4296
(dp4297
g18
I00
sg19
(lp4298
(irule
FeatureMatrix
p4299
(dp4300
g23
(lp4301
(I00
g3435
tp4302
asg25
Nsbasg33
I00
sg25
Nsg35
I00
sg36
S'L'
sbsg37
(irule
FeatureMatrix
p4303
(dp4304
g23
(lp4305
(I00
g3120
tp4306
asg25
Nsbsg43
(irule
Guard
p4307
(dp4308
g18
I00
sg19
(lp4309
(irule
FeatureMatrix
p4310
(dp4311
g23
(lp4312
sg25
Nsba(irule
FeatureMatrix
p4313
(dp4314
g23
(lp4315
(I01
g3120
tp4316
asg25
Nsbasg33
I00
sg25
Nsg35
I00
sg36
S'R'
sbsg47
(irule
FeatureMatrix
p4317
(dp4318
g23
(lp4319
sg25
Nsbsg25
Nsba(irule
Rule
p4320
(dp4321
g15
(irule
Guard
p4322
(dp4323
g18
I00
sg19
(lp4324
(irule
FeatureMatrix
p4325
(dp4326
g23
(lp4327
(I00
g3783
tp4328
asg25
Nsbasg33
I00
sg25
Nsg35
I00
sg36
S'L'
sbsg37
(irule
FeatureMatrix
p4329
(dp4330
g23
(lp4331
(I00
g3120
tp4332
asg25
Nsbsg43
(irule
Guard
p4333
(dp4334
g18
I00
sg19
(lp4335
(irule
FeatureMatrix
p4336
(dp4337
g23
(lp4338
sg25
Nsba(irule
FeatureMatrix
p4339
(dp4340
g23
(lp4341
(I01
g3120
tp4342
asg25
Nsbasg33
I00
sg25
Nsg35
I00
sg36
S'R'
sbsg47
(irule
FeatureMatrix
p4343
(dp4344
g23
(lp4345
sg25
Nsbsg25
Nsba(irule
Rule
p4346
(dp4347
g15
(irule
Guard
p4348
(dp4349
g18
I00
sg19
(lp4350
(irule
FeatureMatrix
p4351
(dp4352
g23
(lp4353
sg25
Nsbasg33
I00
sg25
Nsg35
I00
sg36
S'L'
sbsg37
(irule
FeatureMatrix
p4354
(dp4355
g23
(lp4356
(I00
g3120
tp4357
asg25
Nsbsg43
(irule
Guard
p4358
(dp4359
g18
I00
sg19
(lp4360
(irule
FeatureMatrix
p4361
(dp4362
g23
(lp4363
(I00
g3339
tp4364
asg25
Nsba(irule
FeatureMatrix
p4365
(dp4366
g23
(lp4367
(I01
g3120
tp4368
asg25
Nsbasg33
I00
sg25
Nsg35
I00
sg36
S'R'
sbsg47
(irule
FeatureMatrix
p4369
(dp4370
g23
(lp4371
sg25
Nsbsg25
Nsba(irule
Rule
p4372
(dp4373
g15
(irule
Guard
p4374
(dp4375
g18
I00
sg19
(lp4376
(irule
FeatureMatrix
p4377
(dp4378
g23
(lp4379
(I00
g3196
tp4380
asg25
Nsbasg33
I00
sg25
Nsg35
I00
sg36
S'L'
sbsg37
(irule
FeatureMatrix
p4381
(dp4382
g23
(lp4383
(I00
g3120
tp4384
asg25
Nsbsg43
(irule
Guard
p4385
(dp4386
g18
I00
sg19
(lp4387
(irule
FeatureMatrix
p4388
(dp4389
g23
(lp4390
sg25
Nsba(irule
FeatureMatrix
p4391
(dp4392
g23
(lp4393
(I01
g3120
tp4394
asg25
Nsbasg33
I00
sg25
Nsg35
I00
sg36
S'R'
sbsg47
(irule
FeatureMatrix
p4395
(dp4396
g23
(lp4397
sg25
Nsbsg25
Nsba(irule
Rule
p4398
(dp4399
g15
(irule
Guard
p4400
(dp4401
g18
I00
sg19
(lp4402
(irule
FeatureMatrix
p4403
(dp4404
g23
(lp4405
sg25
Nsbasg33
I00
sg25
Nsg35
I00
sg36
S'L'
sbsg37
(irule
FeatureMatrix
p4406
(dp4407
g23
(lp4408
(I00
g3120
tp4409
asg25
Nsbsg43
(irule
Guard
p4410
(dp4411
g18
I00
sg19
(lp4412
(irule
FeatureMatrix
p4413
(dp4414
g23
(lp4415
sg25
Nsba(irule
FeatureMatrix
p4416
(dp4417
g23
(lp4418
(I01
g3120
tp4419
asg25
Nsbasg33
I00
sg25
Nsg35
I00
sg36
S'R'
sbsg47
(irule
FeatureMatrix
p4420
(dp4421
g23
(lp4422
(I01
g3179
tp4423
asg25
Nsbsg25
Nsba(irule
Rule
p4424
(dp4425
g15
(irule
Guard
p4426
(dp4427
g18
I00
sg19
(lp4428
(irule
FeatureMatrix
p4429
(dp4430
g23
(lp4431
sg25
Nsbasg33
I00
sg25
Nsg35
I00
sg36
S'L'
sbsg37
(irule
FeatureMatrix
p4432
(dp4433
g23
(lp4434
(I00
g3120
tp4435
asg25
Nsbsg43
(irule
Guard
p4436
(dp4437
g18
I00
sg19
(lp4438
(irule
FeatureMatrix
p4439
(dp4440
g23
(lp4441
sg25
Nsba(irule
FeatureMatrix
p4442
(dp4443
g23
(lp4444
(I01
g3120
tp4445
asg25
Nsbasg33
I00
sg25
Nsg35
I00
sg36
S'R'
sbsg47
(irule
FeatureMatrix
p4446
(dp4447
g23
(lp4448
(I00
g3531
tp4449
asg25
Nsbsg25
Nsba(irule
Rule
p4450
(dp4451
g15
(irule
Guard
p4452
(dp4453
g18
I00
sg19
(lp4454
sg33
I00
sg25
Nsg35
I00
sg36
S'L'
sbsg37
(irule
FeatureMatrix
p4455
(dp4456
g23
(lp4457
(I00
g3120
tp4458
a(I01
g3339
tp4459
a(I00
g3262
tp4460
asg25
Nsbsg43
(irule
Guard
p4461
(dp4462
g18
I00
sg19
(lp4463
(irule
FeatureMatrix
p4464
(dp4465
g23
(lp4466
sg25
Nsba(irule
FeatureMatrix
p4467
(dp4468
g23
(lp4469
(I01
g3120
tp4470
asg25
Nsbasg33
I00
sg25
Nsg35
I00
sg36
S'R'
sbsg47
(irule
FeatureMatrix
p4471
(dp4472
g23
(lp4473
sg25
Nsbsg25
Nsba(irule
Rule
p4474
(dp4475
g15
(irule
Guard
p4476
(dp4477
g18
I00
sg19
(lp4478
sg33
I00
sg25
Nsg35
I00
sg36
S'L'
sbsg37
(irule
FeatureMatrix
p4479
(dp4480
g23
(lp4481
(I00
g3120
tp4482
asg25
Nsbsg43
(irule
Guard
p4483
(dp4484
g18
I00
sg19
(lp4485
(irule
FeatureMatrix
p4486
(dp4487
g23
(lp4488
sg25
Nsba(irule
FeatureMatrix
p4489
(dp4490
g23
(lp4491
(I01
g3120
tp4492
asg25
Nsbasg33
I00
sg25
Nsg35
I00
sg36
S'R'
sbsg47
(irule
FeatureMatrix
p4493
(dp4494
g23
(lp4495
(I01
g3418
tp4496
a(I00
g3196
tp4497
asg25
Nsbsg25
Nsba(irule
Rule
p4498
(dp4499
g15
(irule
Guard
p4500
(dp4501
g18
I00
sg19
(lp4502
(irule
FeatureMatrix
p4503
(dp4504
g23
(lp4505
sg25
Nsbasg33
I00
sg25
Nsg35
I00
sg36
S'L'
sbsg37
(irule
FeatureMatrix
p4506
(dp4507
g23
(lp4508
(I00
g3120
tp4509
a(I00
g3196
tp4510
asg25
Nsbsg43
(irule
Guard
p4511
(dp4512
g18
I00
sg19
(lp4513
(irule
FeatureMatrix
p4514
(dp4515
g23
(lp4516
sg25
Nsba(irule
FeatureMatrix
p4517
(dp4518
g23
(lp4519
(I01
g3120
tp4520
asg25
Nsbasg33
I00
sg25
Nsg35
I00
sg36
S'R'
sbsg47
(irule
FeatureMatrix
p4521
(dp4522
g23
(lp4523
sg25
Nsbsg25
Nsba(irule
Rule
p4524
(dp4525
g15
(irule
Guard
p4526
(dp4527
g18
I00
sg19
(lp4528
(irule
FeatureMatrix
p4529
(dp4530
g23
(lp4531
sg25
Nsbasg33
I00
sg25
Nsg35
I00
sg36
S'L'
sbsg37
(irule
FeatureMatrix
p4532
(dp4533
g23
(lp4534
(I00
g3120
tp4535
asg25
Nsbsg43
(irule
Guard
p4536
(dp4537
g18
I00
sg19
(lp4538
(irule
FeatureMatrix
p4539
(dp4540
g23
(lp4541
sg25
Nsba(irule
FeatureMatrix
p4542
(dp4543
g23
(lp4544
(I01
g3120
tp4545
asg25
Nsbasg33
I00
sg25
Nsg35
I00
sg36
S'R'
sbsg47
(irule
FeatureMatrix
p4546
(dp4547
g23
(lp4548
(I00
g3223
tp4549
asg25
Nsbsg25
Nsba(irule
Rule
p4550
(dp4551
g15
(irule
Guard
p4552
(dp4553
g18
I00
sg19
(lp4554
(irule
FeatureMatrix
p4555
(dp4556
g23
(lp4557
sg25
Nsbasg33
I00
sg25
Nsg35
I00
sg36
S'L'
sbsg37
(irule
FeatureMatrix
p4558
(dp4559
g23
(lp4560
(I00
g3120
tp4561
asg25
Nsbsg43
(irule
Guard
p4562
(dp4563
g18
I00
sg19
(lp4564
(irule
FeatureMatrix
p4565
(dp4566
g23
(lp4567
sg25
Nsba(irule
FeatureMatrix
p4568
(dp4569
g23
(lp4570
(I01
g3120
tp4571
asg25
Nsbasg33
I00
sg25
Nsg35
I00
sg36
S'R'
sbsg47
(irule
FeatureMatrix
p4572
(dp4573
g23
(lp4574
(I01
g3418
tp4575
asg25
Nsbsg25
Nsba(irule
Rule
p4576
(dp4577
g15
(irule
Guard
p4578
(dp4579
g18
I00
sg19
(lp4580
sg33
I00
sg25
Nsg35
I00
sg36
S'L'
sbsg37
(irule
FeatureMatrix
p4581
(dp4582
g23
(lp4583
(I00
g3120
tp4584
a(I00
g3707
tp4585
a(I00
g3262
tp4586
asg25
Nsbsg43
(irule
Guard
p4587
(dp4588
g18
I00
sg19
(lp4589
(irule
FeatureMatrix
p4590
(dp4591
g23
(lp4592
sg25
Nsba(irule
FeatureMatrix
p4593
(dp4594
g23
(lp4595
(I01
g3120
tp4596
asg25
Nsbasg33
I00
sg25
Nsg35
I00
sg36
S'R'
sbsg47
(irule
FeatureMatrix
p4597
(dp4598
g23
(lp4599
sg25
Nsbsg25
Nsba(irule
Rule
p4600
(dp4601
g15
(irule
Guard
p4602
(dp4603
g18
I00
sg19
(lp4604
(irule
FeatureMatrix
p4605
(dp4606
g23
(lp4607
sg25
Nsbasg33
I00
sg25
Nsg35
I00
sg36
S'L'
sbsg37
(irule
FeatureMatrix
p4608
(dp4609
g23
(lp4610
(I00
g3120
tp4611
a(I00
g3707
tp4612
asg25
Nsbsg43
(irule
Guard
p4613
(dp4614
g18
I00
sg19
(lp4615
(irule
FeatureMatrix
p4616
(dp4617
g23
(lp4618
sg25
Nsba(irule
FeatureMatrix
p4619
(dp4620
g23
(lp4621
(I01
g3120
tp4622
asg25
Nsbasg33
I00
sg25
Nsg35
I00
sg36
S'R'
sbsg47
(irule
FeatureMatrix
p4623
(dp4624
g23
(lp4625
sg25
Nsbsg25
Nsba(irule
Rule
p4626
(dp4627
g15
(irule
Guard
p4628
(dp4629
g18
I00
sg19
(lp4630
(irule
FeatureMatrix
p4631
(dp4632
g23
(lp4633
sg25
Nsbasg33
I00
sg25
Nsg35
I00
sg36
S'L'
sbsg37
(irule
FeatureMatrix
p4634
(dp4635
g23
(lp4636
(I00
g3120
tp4637
asg25
Nsbsg43
(irule
Guard
p4638
(dp4639
g18
I00
sg19
(lp4640
(irule
FeatureMatrix
p4641
(dp4642
g23
(lp4643
sg25
Nsba(irule
FeatureMatrix
p4644
(dp4645
g23
(lp4646
(I01
g3120
tp4647
asg25
Nsbasg33
I00
sg25
Nsg35
I00
sg36
S'R'
sbsg47
(irule
FeatureMatrix
p4648
(dp4649
g23
(lp4650
(I01
g3370
tp4651
asg25
Nsbsg25
Nsba(irule
Rule
p4652
(dp4653
g15
(irule
Guard
p4654
(dp4655
g18
I00
sg19
(lp4656
(irule
FeatureMatrix
p4657
(dp4658
g23
(lp4659
sg25
Nsbasg33
I00
sg25
Nsg35
I00
sg36
S'L'
sbsg37
(irule
FeatureMatrix
p4660
(dp4661
g23
(lp4662
(I00
g3120
tp4663
asg25
Nsbsg43
(irule
Guard
p4664
(dp4665
g18
I00
sg19
(lp4666
(irule
FeatureMatrix
p4667
(dp4668
g23
(lp4669
sg25
Nsba(irule
FeatureMatrix
p4670
(dp4671
g23
(lp4672
(I01
g3120
tp4673
a(I01
g3179
tp4674
asg25
Nsbasg33
I00
sg25
Nsg35
I00
sg36
S'R'
sbsg47
(irule
FeatureMatrix
p4675
(dp4676
g23
(lp4677
sg25
Nsbsg25
Nsba(irule
Rule
p4678
(dp4679
g15
(irule
Guard
p4680
(dp4681
g18
I00
sg19
(lp4682
(irule
FeatureMatrix
p4683
(dp4684
g23
(lp4685
sg25
Nsbasg33
I00
sg25
Nsg35
I00
sg36
S'L'
sbsg37
(irule
FeatureMatrix
p4686
(dp4687
g23
(lp4688
(I00
g3120
tp4689
asg25
Nsbsg43
(irule
Guard
p4690
(dp4691
g18
I00
sg19
(lp4692
(irule
FeatureMatrix
p4693
(dp4694
g23
(lp4695
(I00
g3196
tp4696
asg25
Nsba(irule
FeatureMatrix
p4697
(dp4698
g23
(lp4699
(I01
g3120
tp4700
asg25
Nsbasg33
I00
sg25
Nsg35
I00
sg36
S'R'
sbsg47
(irule
FeatureMatrix
p4701
(dp4702
g23
(lp4703
sg25
Nsbsg25
Nsba(irule
Rule
p4704
(dp4705
g15
(irule
Guard
p4706
(dp4707
g18
I00
sg19
(lp4708
(irule
FeatureMatrix
p4709
(dp4710
g23
(lp4711
sg25
Nsbasg33
I00
sg25
Nsg35
I00
sg36
S'L'
sbsg37
(irule
FeatureMatrix
p4712
(dp4713
g23
(lp4714
(I00
g3120
tp4715
asg25
Nsbsg43
(irule
Guard
p4716
(dp4717
g18
I00
sg19
(lp4718
(irule
FeatureMatrix
p4719
(dp4720
g23
(lp4721
(I00
g3783
tp4722
asg25
Nsba(irule
FeatureMatrix
p4723
(dp4724
g23
(lp4725
(I01
g3120
tp4726
asg25
Nsbasg33
I00
sg25
Nsg35
I00
sg36
S'R'
sbsg47
(irule
FeatureMatrix
p4727
(dp4728
g23
(lp4729
sg25
Nsbsg25
Nsba(irule
Rule
p4730
(dp4731
g15
(irule
Guard
p4732
(dp4733
g18
I00
sg19
(lp4734
sg33
I00
sg25
Nsg35
I00
sg36
S'L'
sbsg37
(irule
FeatureMatrix
p4735
(dp4736
g23
(lp4737
(I00
g3120
tp4738
asg25
Nsbsg43
(irule
Guard
p4739
(dp4740
g18
I00
sg19
(lp4741
(irule
FeatureMatrix
p4742
(dp4743
g23
(lp4744
(I00
g3339
tp4745
asg25
Nsba(irule
FeatureMatrix
p4746
(dp4747
g23
(lp4748
(I01
g3120
tp4749
asg25
Nsbasg33
I00
sg25
Nsg35
I00
sg36
S'R'
sbsg47
(irule
FeatureMatrix
p4750
(dp4751
g23
(lp4752
(I01
g3120
tp4753
asg25
Nsbsg25
Nsba(irule
Rule
p4754
(dp4755
g15
(irule
Guard
p4756
(dp4757
g18
I00
sg19
(lp4758
sg33
I00
sg25
Nsg35
I00
sg36
S'L'
sbsg37
(irule
FeatureMatrix
p4759
(dp4760
g23
(lp4761
(I00
g3531
tp4762
a(I00
g3120
tp4763
asg25
Nsbsg43
(irule
Guard
p4764
(dp4765
g18
I00
sg19
(lp4766
(irule
FeatureMatrix
p4767
(dp4768
g23
(lp4769
sg25
Nsba(irule
FeatureMatrix
p4770
(dp4771
g23
(lp4772
(I01
g3120
tp4773
a(I01
g3435
tp4774
asg25
Nsbasg33
I00
sg25
Nsg35
I00
sg36
S'R'
sbsg47
(irule
FeatureMatrix
p4775
(dp4776
g23
(lp4777
sg25
Nsbsg25
Nsba(irule
Rule
p4778
(dp4779
g15
(irule
Guard
p4780
(dp4781
g18
I00
sg19
(lp4782
(irule
FeatureMatrix
p4783
(dp4784
g23
(lp4785
sg25
Nsbasg33
I00
sg25
Nsg35
I00
sg36
S'L'
sbsg37
(irule
FeatureMatrix
p4786
(dp4787
g23
(lp4788
(I00
g3120
tp4789
asg25
Nsbsg43
(irule
Guard
p4790
(dp4791
g18
I00
sg19
(lp4792
(irule
FeatureMatrix
p4793
(dp4794
g23
(lp4795
(I00
g3435
tp4796
asg25
Nsba(irule
FeatureMatrix
p4797
(dp4798
g23
(lp4799
(I01
g3120
tp4800
asg25
Nsbasg33
I00
sg25
Nsg35
I00
sg36
S'R'
sbsg47
(irule
FeatureMatrix
p4801
(dp4802
g23
(lp4803
sg25
Nsbsg25
Nsba(irule
Rule
p4804
(dp4805
g15
(irule
Guard
p4806
(dp4807
g18
I00
sg19
(lp4808
(irule
FeatureMatrix
p4809
(dp4810
g23
(lp4811
sg25
Nsbasg33
I00
sg25
Nsg35
I00
sg36
S'L'
sbsg37
(irule
FeatureMatrix
p4812
(dp4813
g23
(lp4814
(I00
g3120
tp4815
a(I01
g3339
tp4816
asg25
Nsbsg43
(irule
Guard
p4817
(dp4818
g18
I00
sg19
(lp4819
(irule
FeatureMatrix
p4820
(dp4821
g23
(lp4822
sg25
Nsba(irule
FeatureMatrix
p4823
(dp4824
g23
(lp4825
(I01
g3120
tp4826
asg25
Nsbasg33
I00
sg25
Nsg35
I00
sg36
S'R'
sbsg47
(irule
FeatureMatrix
p4827
(dp4828
g23
(lp4829
sg25
Nsbsg25
Nsba(irule
Rule
p4830
(dp4831
g15
(irule
Guard
p4832
(dp4833
g18
I00
sg19
(lp4834
(irule
FeatureMatrix
p4835
(dp4836
g23
(lp4837
sg25
Nsbasg33
I00
sg25
Nsg35
I00
sg36
S'L'
sbsg37
(irule
FeatureMatrix
p4838
(dp4839
g23
(lp4840
(I00
g3120
tp4841
asg25
Nsbsg43
(irule
Guard
p4842
(dp4843
g18
I00
sg19
(lp4844
(irule
FeatureMatrix
p4845
(dp4846
g23
(lp4847
sg25
Nsba(irule
FeatureMatrix
p4848
(dp4849
g23
(lp4850
(I01
g3120
tp4851
asg25
Nsbasg33
I00
sg25
Nsg35
I00
sg36
S'R'
sbsg47
(irule
FeatureMatrix
p4852
(dp4853
g23
(lp4854
(I00
g3251
tp4855
asg25
Nsbsg25
Nsba(irule
Rule
p4856
(dp4857
g15
(irule
Guard
p4858
(dp4859
g18
I00
sg19
(lp4860
sg33
I00
sg25
Nsg35
I00
sg36
S'L'
sbsg37
(irule
FeatureMatrix
p4861
(dp4862
g23
(lp4863
(I00
g3120
tp4864
asg25
Nsbsg43
(irule
Guard
p4865
(dp4866
g18
I00
sg19
(lp4867
(irule
FeatureMatrix
p4868
(dp4869
g23
(lp4870
(I00
g3196
tp4871
asg25
Nsba(irule
FeatureMatrix
p4872
(dp4873
g23
(lp4874
(I01
g3120
tp4875
asg25
Nsbasg33
I00
sg25
Nsg35
I00
sg36
S'R'
sbsg47
(irule
FeatureMatrix
p4876
(dp4877
g23
(lp4878
(I00
g3394
tp4879
asg25
Nsbsg25
Nsba(irule
Rule
p4880
(dp4881
g15
(irule
Guard
p4882
(dp4883
g18
I00
sg19
(lp4884
(irule
FeatureMatrix
p4885
(dp4886
g23
(lp4887
sg25
Nsbasg33
I00
sg25
Nsg35
I00
sg36
S'L'
sbsg37
(irule
FeatureMatrix
p4888
(dp4889
g23
(lp4890
(I00
g3120
tp4891
asg25
Nsbsg43
(irule
Guard
p4892
(dp4893
g18
I00
sg19
(lp4894
(irule
FeatureMatrix
p4895
(dp4896
g23
(lp4897
sg25
Nsba(irule
FeatureMatrix
p4898
(dp4899
g23
(lp4900
(I01
g3120
tp4901
asg25
Nsbasg33
I00
sg25
Nsg35
I00
sg36
S'R'
sbsg47
(irule
FeatureMatrix
p4902
(dp4903
g23
(lp4904
(I00
g3262
tp4905
asg25
Nsbsg25
Nsba(irule
Rule
p4906
(dp4907
g15
(irule
Guard
p4908
(dp4909
g18
I00
sg19
(lp4910
sg33
I00
sg25
Nsg35
I00
sg36
S'L'
sbsg37
(irule
FeatureMatrix
p4911
(dp4912
g23
(lp4913
(I00
g3120
tp4914
asg25
Nsbsg43
(irule
Guard
p4915
(dp4916
g18
I00
sg19
(lp4917
(irule
FeatureMatrix
p4918
(dp4919
g23
(lp4920
sg25
Nsba(irule
FeatureMatrix
p4921
(dp4922
g23
(lp4923
(I01
g3120
tp4924
asg25
Nsbasg33
I00
sg25
Nsg35
I00
sg36
S'R'
sbsg47
(irule
FeatureMatrix
p4925
(dp4926
g23
(lp4927
(I01
g3339
tp4928
a(I01
g3179
tp4929
asg25
Nsbsg25
Nsba(irule
Rule
p4930
(dp4931
g15
(irule
Guard
p4932
(dp4933
g18
I00
sg19
(lp4934
(irule
FeatureMatrix
p4935
(dp4936
g23
(lp4937
sg25
Nsbasg33
I00
sg25
Nsg35
I00
sg36
S'L'
sbsg37
(irule
FeatureMatrix
p4938
(dp4939
g23
(lp4940
(I00
g3120
tp4941
asg25
Nsbsg43
(irule
Guard
p4942
(dp4943
g18
I00
sg19
(lp4944
(irule
FeatureMatrix
p4945
(dp4946
g23
(lp4947
sg25
Nsba(irule
FeatureMatrix
p4948
(dp4949
g23
(lp4950
(I01
g3418
tp4951
a(I01
g3120
tp4952
asg25
Nsbasg33
I00
sg25
Nsg35
I00
sg36
S'R'
sbsg47
(irule
FeatureMatrix
p4953
(dp4954
g23
(lp4955
sg25
Nsbsg25
Nsba(irule
Rule
p4956
(dp4957
g15
(irule
Guard
p4958
(dp4959
g18
I00
sg19
(lp4960
(irule
FeatureMatrix
p4961
(dp4962
g23
(lp4963
sg25
Nsbasg33
I00
sg25
Nsg35
I00
sg36
S'L'
sbsg37
(irule
FeatureMatrix
p4964
(dp4965
g23
(lp4966
(I00
g3120
tp4967
asg25
Nsbsg43
(irule
Guard
p4968
(dp4969
g18
I00
sg19
(lp4970
(irule
FeatureMatrix
p4971
(dp4972
g23
(lp4973
(I00
g3120
tp4974
asg25
Nsba(irule
FeatureMatrix
p4975
(dp4976
g23
(lp4977
(I01
g3120
tp4978
asg25
Nsbasg33
I00
sg25
Nsg35
I00
sg36
S'R'
sbsg47
(irule
FeatureMatrix
p4979
(dp4980
g23
(lp4981
sg25
Nsbsg25
Nsba(irule
Rule
p4982
(dp4983
g15
(irule
Guard
p4984
(dp4985
g18
I00
sg19
(lp4986
sg33
I00
sg25
Nsg35
I00
sg36
S'L'
sbsg37
(irule
FeatureMatrix
p4987
(dp4988
g23
(lp4989
(I00
g3120
tp4990
asg25
Nsbsg43
(irule
Guard
p4991
(dp4992
g18
I00
sg19
(lp4993
(irule
FeatureMatrix
p4994
(dp4995
g23
(lp4996
sg25
Nsba(irule
FeatureMatrix
p4997
(dp4998
g23
(lp4999
(I01
g3120
tp5000
asg25
Nsbasg33
I00
sg25
Nsg35
I00
sg36
S'R'
sbsg47
(irule
FeatureMatrix
p5001
(dp5002
g23
(lp5003
(I00
g3394
tp5004
a(I01
g3418
tp5005
asg25
Nsbsg25
Nsba(irule
Rule
p5006
(dp5007
g15
(irule
Guard
p5008
(dp5009
g18
I00
sg19
(lp5010
(irule
FeatureMatrix
p5011
(dp5012
g23
(lp5013
sg25
Nsbasg33
I00
sg25
Nsg35
I00
sg36
S'L'
sbsg37
(irule
FeatureMatrix
p5014
(dp5015
g23
(lp5016
(I00
g3120
tp5017
a(I01
g3370
tp5018
asg25
Nsbsg43
(irule
Guard
p5019
(dp5020
g18
I00
sg19
(lp5021
(irule
FeatureMatrix
p5022
(dp5023
g23
(lp5024
sg25
Nsba(irule
FeatureMatrix
p5025
(dp5026
g23
(lp5027
(I01
g3120
tp5028
asg25
Nsbasg33
I00
sg25
Nsg35
I00
sg36
S'R'
sbsg47
(irule
FeatureMatrix
p5029
(dp5030
g23
(lp5031
sg25
Nsbsg25
Nsba(irule
Rule
p5032
(dp5033
g15
(irule
Guard
p5034
(dp5035
g18
I00
sg19
(lp5036
sg33
I00
sg25
Nsg35
I00
sg36
S'L'
sbsg37
(irule
FeatureMatrix
p5037
(dp5038
g23
(lp5039
(I00
g3120
tp5040
a(I01
g3435
tp5041
a(I01
g3339
tp5042
asg25
Nsbsg43
(irule
Guard
p5043
(dp5044
g18
I00
sg19
(lp5045
(irule
FeatureMatrix
p5046
(dp5047
g23
(lp5048
sg25
Nsba(irule
FeatureMatrix
p5049
(dp5050
g23
(lp5051
(I01
g3120
tp5052
asg25
Nsbasg33
I00
sg25
Nsg35
I00
sg36
S'R'
sbsg47
(irule
FeatureMatrix
p5053
(dp5054
g23
(lp5055
sg25
Nsbsg25
Nsba(irule
Rule
p5056
(dp5057
g15
(irule
Guard
p5058
(dp5059
g18
I00
sg19
(lp5060
sg33
I00
sg25
Nsg35
I00
sg36
S'L'
sbsg37
(irule
FeatureMatrix
p5061
(dp5062
g23
(lp5063
(I00
g3120
tp5064
asg25
Nsbsg43
(irule
Guard
p5065
(dp5066
g18
I00
sg19
(lp5067
(irule
FeatureMatrix
p5068
(dp5069
g23
(lp5070
sg25
Nsba(irule
FeatureMatrix
p5071
(dp5072
g23
(lp5073
(I01
g3120
tp5074
asg25
Nsbasg33
I00
sg25
Nsg35
I00
sg36
S'R'
sbsg47
(irule
FeatureMatrix
p5075
(dp5076
g23
(lp5077
(I00
g3262
tp5078
a(I01
g3179
tp5079
asg25
Nsbsg25
Nsba(irule
Rule
p5080
(dp5081
g15
(irule
Guard
p5082
(dp5083
g18
I00
sg19
(lp5084
sg33
I00
sg25
Nsg35
I00
sg36
S'L'
sbsg37
(irule
FeatureMatrix
p5085
(dp5086
g23
(lp5087
(I00
g3120
tp5088
asg25
Nsbsg43
(irule
Guard
p5089
(dp5090
g18
I00
sg19
(lp5091
(irule
FeatureMatrix
p5092
(dp5093
g23
(lp5094
(I00
g3339
tp5095
asg25
Nsba(irule
FeatureMatrix
p5096
(dp5097
g23
(lp5098
(I01
g3120
tp5099
asg25
Nsbasg33
I00
sg25
Nsg35
I00
sg36
S'R'
sbsg47
(irule
FeatureMatrix
p5100
(dp5101
g23
(lp5102
(I01
g3370
tp5103
asg25
Nsbsg25
Nsba(irule
Rule
p5104
(dp5105
g15
(irule
Guard
p5106
(dp5107
g18
I00
sg19
(lp5108
(irule
FeatureMatrix
p5109
(dp5110
g23
(lp5111
sg25
Nsbasg33
I00
sg25
Nsg35
I00
sg36
S'L'
sbsg37
(irule
FeatureMatrix
p5112
(dp5113
g23
(lp5114
(I00
g3120
tp5115
asg25
Nsbsg43
(irule
Guard
p5116
(dp5117
g18
I00
sg19
(lp5118
(irule
FeatureMatrix
p5119
(dp5120
g23
(lp5121
sg25
Nsba(irule
FeatureMatrix
p5122
(dp5123
g23
(lp5124
(I00
g3531
tp5125
a(I01
g3120
tp5126
asg25
Nsbasg33
I00
sg25
Nsg35
I00
sg36
S'R'
sbsg47
(irule
FeatureMatrix
p5127
(dp5128
g23
(lp5129
sg25
Nsbsg25
Nsba(irule
Rule
p5130
(dp5131
g15
(irule
Guard
p5132
(dp5133
g18
I00
sg19
(lp5134
sg33
I00
sg25
Nsg35
I00
sg36
S'L'
sbsg37
(irule
FeatureMatrix
p5135
(dp5136
g23
(lp5137
(I00
g3120
tp5138
asg25
Nsbsg43
(irule
Guard
p5139
(dp5140
g18
I00
sg19
(lp5141
(irule
FeatureMatrix
p5142
(dp5143
g23
(lp5144
(I00
g3339
tp5145
asg25
Nsba(irule
FeatureMatrix
p5146
(dp5147
g23
(lp5148
(I01
g3120
tp5149
asg25
Nsbasg33
I00
sg25
Nsg35
I00
sg36
S'R'
sbsg47
(irule
FeatureMatrix
p5150
(dp5151
g23
(lp5152
(I00
g3223
tp5153
asg25
Nsbsg25
Nsba(irule
Rule
p5154
(dp5155
g15
(irule
Guard
p5156
(dp5157
g18
I00
sg19
(lp5158
sg33
I00
sg25
Nsg35
I00
sg36
S'L'
sbsg37
(irule
FeatureMatrix
p5159
(dp5160
g23
(lp5161
(I00
g3120
tp5162
a(I00
g3262
tp5163
asg25
Nsbsg43
(irule
Guard
p5164
(dp5165
g18
I00
sg19
(lp5166
(irule
FeatureMatrix
p5167
(dp5168
g23
(lp5169
sg25
Nsba(irule
FeatureMatrix
p5170
(dp5171
g23
(lp5172
(I01
g3120
tp5173
asg25
Nsbasg33
I00
sg25
Nsg35
I00
sg36
S'R'
sbsg47
(irule
FeatureMatrix
p5174
(dp5175
g23
(lp5176
(I01
g3370
tp5177
asg25
Nsbsg25
Nsba(irule
Rule
p5178
(dp5179
g15
(irule
Guard
p5180
(dp5181
g18
I00
sg19
(lp5182
(irule
FeatureMatrix
p5183
(dp5184
g23
(lp5185
sg25
Nsbasg33
I00
sg25
Nsg35
I00
sg36
S'L'
sbsg37
(irule
FeatureMatrix
p5186
(dp5187
g23
(lp5188
(I00
g3531
tp5189
a(I00
g3120
tp5190
asg25
Nsbsg43
(irule
Guard
p5191
(dp5192
g18
I00
sg19
(lp5193
(irule
FeatureMatrix
p5194
(dp5195
g23
(lp5196
sg25
Nsba(irule
FeatureMatrix
p5197
(dp5198
g23
(lp5199
(I01
g3120
tp5200
asg25
Nsbasg33
I00
sg25
Nsg35
I00
sg36
S'R'
sbsg47
(irule
FeatureMatrix
p5201
(dp5202
g23
(lp5203
sg25
Nsbsg25
Nsba(irule
Rule
p5204
(dp5205
g15
(irule
Guard
p5206
(dp5207
g18
I00
sg19
(lp5208
(irule
FeatureMatrix
p5209
(dp5210
g23
(lp5211
sg25
Nsbasg33
I00
sg25
Nsg35
I00
sg36
S'L'
sbsg37
(irule
FeatureMatrix
p5212
(dp5213
g23
(lp5214
(I00
g3120
tp5215
asg25
Nsbsg43
(irule
Guard
p5216
(dp5217
g18
I00
sg19
(lp5218
(irule
FeatureMatrix
p5219
(dp5220
g23
(lp5221
sg25
Nsba(irule
FeatureMatrix
p5222
(dp5223
g23
(lp5224
(I01
g3120
tp5225
asg25
Nsbasg33
I00
sg25
Nsg35
I00
sg36
S'R'
sbsg47
(irule
FeatureMatrix
p5226
(dp5227
g23
(lp5228
(I00
g3394
tp5229
asg25
Nsbsg25
Nsba(irule
Rule
p5230
(dp5231
g15
(irule
Guard
p5232
(dp5233
g18
I00
sg19
(lp5234
(irule
FeatureMatrix
p5235
(dp5236
g23
(lp5237
sg25
Nsbasg33
I00
sg25
Nsg35
I00
sg36
S'L'
sbsg37
(irule
FeatureMatrix
p5238
(dp5239
g23
(lp5240
(I00
g3120
tp5241
a(I01
g3435
tp5242
asg25
Nsbsg43
(irule
Guard
p5243
(dp5244
g18
I00
sg19
(lp5245
(irule
FeatureMatrix
p5246
(dp5247
g23
(lp5248
sg25
Nsba(irule
FeatureMatrix
p5249
(dp5250
g23
(lp5251
(I01
g3120
tp5252
asg25
Nsbasg33
I00
sg25
Nsg35
I00
sg36
S'R'
sbsg47
(irule
FeatureMatrix
p5253
(dp5254
g23
(lp5255
sg25
Nsbsg25
Nsba(irule
Rule
p5256
(dp5257
g15
(irule
Guard
p5258
(dp5259
g18
I00
sg19
(lp5260
(irule
FeatureMatrix
p5261
(dp5262
g23
(lp5263
sg25
Nsbasg33
I00
sg25
Nsg35
I00
sg36
S'L'
sbsg37
(irule
FeatureMatrix
p5264
(dp5265
g23
(lp5266
(I00
g3251
tp5267
a(I00
g3120
tp5268
asg25
Nsbsg43
(irule
Guard
p5269
(dp5270
g18
I00
sg19
(lp5271
(irule
FeatureMatrix
p5272
(dp5273
g23
(lp5274
sg25
Nsba(irule
FeatureMatrix
p5275
(dp5276
g23
(lp5277
(I01
g3120
tp5278
asg25
Nsbasg33
I00
sg25
Nsg35
I00
sg36
S'R'
sbsg47
(irule
FeatureMatrix
p5279
(dp5280
g23
(lp5281
sg25
Nsbsg25
Nsba(irule
Rule
p5282
(dp5283
g15
(irule
Guard
p5284
(dp5285
g18
I00
sg19
(lp5286
sg33
I00
sg25
Nsg35
I00
sg36
S'L'
sbsg37
(irule
FeatureMatrix
p5287
(dp5288
g23
(lp5289
(I00
g3120
tp5290
asg25
Nsbsg43
(irule
Guard
p5291
(dp5292
g18
I00
sg19
(lp5293
(irule
FeatureMatrix
p5294
(dp5295
g23
(lp5296
sg25
Nsba(irule
FeatureMatrix
p5297
(dp5298
g23
(lp5299
(I01
g3120
tp5300
asg25
Nsbasg33
I00
sg25
Nsg35
I00
sg36
S'R'
sbsg47
(irule
FeatureMatrix
p5301
(dp5302
g23
(lp5303
(I01
g3339
tp5304
a(I00
g3262
tp5305
asg25
Nsbsg25
Nsba(irule
Rule
p5306
(dp5307
g15
(irule
Guard
p5308
(dp5309
g18
I00
sg19
(lp5310
(irule
FeatureMatrix
p5311
(dp5312
g23
(lp5313
sg25
Nsbasg33
I00
sg25
Nsg35
I00
sg36
S'L'
sbsg37
(irule
FeatureMatrix
p5314
(dp5315
g23
(lp5316
(I00
g3120
tp5317
asg25
Nsbsg43
(irule
Guard
p5318
(dp5319
g18
I00
sg19
(lp5320
(irule
FeatureMatrix
p5321
(dp5322
g23
(lp5323
sg25
Nsba(irule
FeatureMatrix
p5324
(dp5325
g23
(lp5326
(I01
g3120
tp5327
a(I01
g3339
tp5328
asg25
Nsbasg33
I00
sg25
Nsg35
I00
sg36
S'R'
sbsg47
(irule
FeatureMatrix
p5329
(dp5330
g23
(lp5331
sg25
Nsbsg25
Nsba(irule
Rule
p5332
(dp5333
g15
(irule
Guard
p5334
(dp5335
g18
I00
sg19
(lp5336
sg33
I00
sg25
Nsg35
I00
sg36
S'L'
sbsg37
(irule
FeatureMatrix
p5337
(dp5338
g23
(lp5339
(I00
g3120
tp5340
a(I00
g3262
tp5341
a(I01
g3179
tp5342
asg25
Nsbsg43
(irule
Guard
p5343
(dp5344
g18
I00
sg19
(lp5345
(irule
FeatureMatrix
p5346
(dp5347
g23
(lp5348
sg25
Nsba(irule
FeatureMatrix
p5349
(dp5350
g23
(lp5351
(I01
g3120
tp5352
asg25
Nsbasg33
I00
sg25
Nsg35
I00
sg36
S'R'
sbsg47
(irule
FeatureMatrix
p5353
(dp5354
g23
(lp5355
sg25
Nsbsg25
Nsba(irule
Rule
p5356
(dp5357
g15
(irule
Guard
p5358
(dp5359
g18
I00
sg19
(lp5360
(irule
FeatureMatrix
p5361
(dp5362
g23
(lp5363
sg25
Nsbasg33
I00
sg25
Nsg35
I00
sg36
S'L'
sbsg37
(irule
FeatureMatrix
p5364
(dp5365
g23
(lp5366
(I00
g3120
tp5367
a(I01
g3179
tp5368
asg25
Nsbsg43
(irule
Guard
p5369
(dp5370
g18
I00
sg19
(lp5371
(irule
FeatureMatrix
p5372
(dp5373
g23
(lp5374
sg25
Nsba(irule
FeatureMatrix
p5375
(dp5376
g23
(lp5377
(I01
g3120
tp5378
asg25
Nsbasg33
I00
sg25
Nsg35
I00
sg36
S'R'
sbsg47
(irule
FeatureMatrix
p5379
(dp5380
g23
(lp5381
sg25
Nsbsg25
Nsba(irule
Rule
p5382
(dp5383
g15
(irule
Guard
p5384
(dp5385
g18
I00
sg19
(lp5386
sg33
I00
sg25
Nsg35
I00
sg36
S'L'
sbsg37
(irule
FeatureMatrix
p5387
(dp5388
g23
(lp5389
(I00
g3120
tp5390
asg25
Nsbsg43
(irule
Guard
p5391
(dp5392
g18
I00
sg19
(lp5393
(irule
FeatureMatrix
p5394
(dp5395
g23
(lp5396
(I00
g3339
tp5397
asg25
Nsba(irule
FeatureMatrix
p5398
(dp5399
g23
(lp5400
(I01
g3120
tp5401
asg25
Nsbasg33
I00
sg25
Nsg35
I00
sg36
S'R'
sbsg47
(irule
FeatureMatrix
p5402
(dp5403
g23
(lp5404
(I00
g3531
tp5405
asg25
Nsbsg25
Nsba(irule
Rule
p5406
(dp5407
g15
(irule
Guard
p5408
(dp5409
g18
I00
sg19
(lp5410
(irule
FeatureMatrix
p5411
(dp5412
g23
(lp5413
sg25
Nsbasg33
I00
sg25
Nsg35
I00
sg36
S'L'
sbsg37
(irule
FeatureMatrix
p5414
(dp5415
g23
(lp5416
(I00
g3120
tp5417
asg25
Nsbsg43
(irule
Guard
p5418
(dp5419
g18
I00
sg19
(lp5420
(irule
FeatureMatrix
p5421
(dp5422
g23
(lp5423
sg25
Nsba(irule
FeatureMatrix
p5424
(dp5425
g23
(lp5426
(I01
g3120
tp5427
asg25
Nsbasg33
I00
sg25
Nsg35
I00
sg36
S'R'
sbsg47
(irule
FeatureMatrix
p5428
(dp5429
g23
(lp5430
(I01
g3435
tp5431
asg25
Nsbsg25
Nsba(irule
Rule
p5432
(dp5433
g15
(irule
Guard
p5434
(dp5435
g18
I00
sg19
(lp5436
(irule
FeatureMatrix
p5437
(dp5438
g23
(lp5439
sg25
Nsbasg33
I00
sg25
Nsg35
I00
sg36
S'L'
sbsg37
(irule
FeatureMatrix
p5440
(dp5441
g23
(lp5442
(I00
g3120
tp5443
asg25
Nsbsg43
(irule
Guard
p5444
(dp5445
g18
I00
sg19
(lp5446
(irule
FeatureMatrix
p5447
(dp5448
g23
(lp5449
sg25
Nsba(irule
FeatureMatrix
p5450
(dp5451
g23
(lp5452
(I01
g3120
tp5453
asg25
Nsbasg33
I00
sg25
Nsg35
I00
sg36
S'R'
sbsg47
(irule
FeatureMatrix
p5454
(dp5455
g23
(lp5456
(I00
g3707
tp5457
asg25
Nsbsg25
Nsba(irule
Rule
p5458
(dp5459
g15
(irule
Guard
p5460
(dp5461
g18
I00
sg19
(lp5462
(irule
FeatureMatrix
p5463
(dp5464
g23
(lp5465
sg25
Nsbasg33
I00
sg25
Nsg35
I00
sg36
S'L'
sbsg37
(irule
FeatureMatrix
p5466
(dp5467
g23
(lp5468
(I00
g3120
tp5469
asg25
Nsbsg43
(irule
Guard
p5470
(dp5471
g18
I00
sg19
(lp5472
(irule
FeatureMatrix
p5473
(dp5474
g23
(lp5475
sg25
Nsba(irule
FeatureMatrix
p5476
(dp5477
g23
(lp5478
(I01
g3120
tp5479
asg25
Nsbasg33
I00
sg25
Nsg35
I00
sg36
S'R'
sbsg47
(irule
FeatureMatrix
p5480
(dp5481
g23
(lp5482
(I01
g3286
tp5483
asg25
Nsbsg25
Nsba(irule
Rule
p5484
(dp5485
g15
(irule
Guard
p5486
(dp5487
g18
I00
sg19
(lp5488
sg33
I00
sg25
Nsg35
I00
sg36
S'L'
sbsg37
(irule
FeatureMatrix
p5489
(dp5490
g23
(lp5491
(I00
g3120
tp5492
a(I01
g3339
tp5493
a(I01
g3179
tp5494
asg25
Nsbsg43
(irule
Guard
p5495
(dp5496
g18
I00
sg19
(lp5497
(irule
FeatureMatrix
p5498
(dp5499
g23
(lp5500
sg25
Nsba(irule
FeatureMatrix
p5501
(dp5502
g23
(lp5503
(I01
g3120
tp5504
asg25
Nsbasg33
I00
sg25
Nsg35
I00
sg36
S'R'
sbsg47
(irule
FeatureMatrix
p5505
(dp5506
g23
(lp5507
sg25
Nsbsg25
Nsba(irule
Rule
p5508
(dp5509
g15
(irule
Guard
p5510
(dp5511
g18
I00
sg19
(lp5512
sg33
I00
sg25
Nsg35
I00
sg36
S'L'
sbsg37
(irule
FeatureMatrix
p5513
(dp5514
g23
(lp5515
(I00
g3120
tp5516
asg25
Nsbsg43
(irule
Guard
p5517
(dp5518
g18
I00
sg19
(lp5519
(irule
FeatureMatrix
p5520
(dp5521
g23
(lp5522
sg25
Nsba(irule
FeatureMatrix
p5523
(dp5524
g23
(lp5525
(I01
g3120
tp5526
asg25
Nsbasg33
I00
sg25
Nsg35
I00
sg36
S'R'
sbsg47
(irule
FeatureMatrix
p5527
(dp5528
g23
(lp5529
(I00
g3251
tp5530
a(I00
g3196
tp5531
asg25
Nsbsg25
NsbaasbsS'parameters'
p5532
g6
(cargparse
Namespace
p5533
g8
NtRp5534
(dp5535
S'dummy'
p5536
I00
sS'task'
p5537
S'CEGIS'
p5538
sS'features'
p5539
S'sophisticated'
p5540
sS'resume'
p5541
I00
sS'geometry'
p5542
I01
sS'top'
p5543
I100
sS'disableClean'
p5544
I00
sS'universal'
p5545
NsS'restrict'
p5546
NsS'window'
p5547
NsS'seed'
p5548
S'0'
sS'restore'
p5549
NsS'verbosity'
p5550
I0
sS'timeout'
p5551
F24
sS'debug'
p5552
NsS'cores'
p5553
I40
sg340
S'Odden_79_Jita'
p5554
sS'save'
p5555
NsS'serial'
p5556
I00
sS'alignment'
p5557
I00
sS'samples'
p5558
I30
sbsb.