(iresult
Result
p1
(dp2
S'startTime'
p3
F1559660823.9106331
sS'solutionSequence'
p4
(lp5
(ccopy_reg
_reconstructor
p6
(csolution
Solution
p7
c__builtin__
object
p8
NtRp9
(dp10
S'rules'
p11
(lp12
(irule
Rule
p13
(dp14
S'leftTriggers'
p15
(irule
Guard
p16
(dp17
S'endOfString'
p18
I00
sS'specifications'
p19
(lp20
sS'optionalEnding'
p21
I00
sS'representation'
p22
V
sS'starred'
p23
I00
sS'side'
p24
S'L'
sbsS'structuralChange'
p25
(irule
FeatureMatrix
p26
(dp27
S'featuresAndPolarities'
p28
(lp29
sg22
V[  ]
p30
sbsS'rightTriggers'
p31
(irule
Guard
p32
(dp33
g18
I00
sg19
(lp34
sg21
I00
sg22
V
sg23
I00
sg24
S'R'
sbsS'focus'
p35
(irule
FeatureMatrix
p36
(dp37
g28
(lp38
sg22
V[  ]
p39
sbsg22
V[  ] ---> [  ] /  _ 
p40
sbasS'prefixes'
p41
(lp42
(imorph
Morph
p43
(dp44
S'phonemes'
p45
(lp46
Vc\u030c
p47
asba(imorph
Morph
p48
(dp49
g45
(lp50
V\u03b2
aVa
ag47
asba(imorph
Morph
p51
(dp52
g45
(lp53
Vn\u0303
p54
aVj\u030c
p55
asbasS'underlyingForms'
p56
(dp57
((imorph
Morph
p58
(dp59
g45
(lp60
Vc\u030c
p61
aVa
asb(imorph
Morph
p62
(dp63
g45
(lp64
V\u03b2
aVa
aVc\u030c
p65
aVa
asb(imorph
Morph
p66
(dp67
g45
(lp68
Vn\u0303
p69
aVj\u030c
p70
aVa
asbtp71
(imorph
Morph
p72
(dp73
g45
(lp74
Va
asbs((imorph
Morph
p75
(dp76
g45
(lp77
Vc\u030c
p78
aVe
aVx
aVa
asb(imorph
Morph
p79
(dp80
g45
(lp81
V\u03b2
aVa
aVc\u030c
p82
aVe
aVx
aVa
asb(imorph
Morph
p83
(dp84
g45
(lp85
Vn\u0303
p86
aVj\u030c
p87
aVe
aVx
aVa
asbtp88
(imorph
Morph
p89
(dp90
g45
(lp91
Ve
aVx
aVa
asbssS'suffixes'
p92
(lp93
(imorph
Morph
p94
(dp95
g45
(lp96
sba(imorph
Morph
p97
(dp98
g45
(lp99
sba(imorph
Morph
p100
(dp101
g45
(lp102
sbasbF33.507547855377197
tp103
a(g6
(g7
g8
NtRp104
(dp105
g11
(lp106
(irule
Rule
p107
(dp108
g15
(irule
Guard
p109
(dp110
g18
I00
sg19
(lp111
(irule
ConstantPhoneme
p112
(dp113
S'p'
Vn
sbasg21
I00
sg22
Vn
sg23
I00
sg24
S'L'
sbsg25
(irule
ConstantPhoneme
p114
(dp115
S'p'
g55
sbsg31
(irule
Guard
p116
(dp117
g18
I00
sg19
(lp118
sg21
I00
sg22
V
sg23
I00
sg24
S'R'
sbsg35
(irule
ConstantPhoneme
p119
(dp120
S'p'
g47
sbsg22
Vc\u030c ---> j\u030c / n _ 
p121
sba(irule
Rule
p122
(dp123
g15
(irule
Guard
p124
(dp125
g18
I00
sg19
(lp126
sg21
I00
sg22
V
sg23
I00
sg24
S'L'
sbsg25
(irule
ConstantPhoneme
p127
(dp128
S'p'
g54
sbsg31
(irule
Guard
p129
(dp130
g18
I00
sg19
(lp131
(irule
ConstantPhoneme
p132
(dp133
S'p'
g55
sbasg21
I00
sg22
g55
sg23
I00
sg24
S'R'
sbsg35
(irule
FeatureMatrix
p134
(dp135
g28
(lp136
sg22
V[  ]
p137
sbsg22
V[  ] ---> n\u0303 /  _ j\u030c
p138
sba(irule
Rule
p139
(dp140
g15
(irule
Guard
p141
(dp142
g18
I00
sg19
(lp143
(irule
ConstantPhoneme
p144
(dp145
S'p'
Vn
sbasg21
I00
sg22
Vn
sg23
I00
sg24
S'L'
sbsg25
(irule
ConstantPhoneme
p146
(dp147
S'p'
Vd
sbsg31
(irule
Guard
p148
(dp149
g18
I00
sg19
(lp150
sg21
I00
sg22
V
sg23
I00
sg24
S'R'
sbsg35
(irule
FeatureMatrix
p151
(dp152
g28
(lp153
sg22
V[  ]
p154
sbsg22
V[  ] ---> d / n _ 
p155
sbasg41
(lp156
(imorph
Morph
p157
(dp158
g45
(lp159
sba(imorph
Morph
p160
(dp161
g45
(lp162
V\u03b2
aVa
asba(imorph
Morph
p163
(dp164
g45
(lp165
Vn
asbasg56
(dp166
(g58
g62
g66
tp167
(imorph
Morph
p168
(dp169
g45
(lp170
g47
aVa
asbs((imorph
Morph
(dp171
g45
(lp172
Vt
aVe
aVe
aVx
aVa
asb(imorph
Morph
(dp173
g45
(lp174
V\u03b2
aVa
aVt
aVe
aVe
aVx
aVa
asb(imorph
Morph
(dp175
g45
(lp176
Vn
aVd
aVe
aVe
aVx
aVa
asbtp177
(imorph
Morph
p178
(dp179
g45
(lp180
Vt
aVe
aVe
aVx
aVa
asbs((imorph
Morph
(dp181
g45
(lp182
Vt
aVi
aVi
aVr
aVa
asb(imorph
Morph
(dp183
g45
(lp184
V\u03b2
aVa
aVt
aVi
aVi
aVr
aVa
asb(imorph
Morph
(dp185
g45
(lp186
Vn
aVd
aVi
aVi
aVr
aVa
asbtp187
(imorph
Morph
p188
(dp189
g45
(lp190
Vt
aVi
aVi
aVr
aVa
asbs((imorph
Morph
(dp191
g45
(lp192
Vc\u030c
p193
aVu
aVc\u030c
p194
aVu
aVu
aV\u014b
aVg
aVa
asb(imorph
Morph
(dp195
g45
(lp196
V\u03b2
aVa
aVc\u030c
p197
aVu
aVc\u030c
p198
aVu
aVu
aV\u014b
aVg
aVa
asb(imorph
Morph
(dp199
g45
(lp200
Vn\u0303
p201
aVj\u030c
p202
aVu
aVc\u030c
p203
aVu
aVu
aV\u014b
aVg
aVa
asbtp204
(imorph
Morph
p205
(dp206
g45
(lp207
g47
aVu
ag47
aVu
aVu
aV\u014b
aVg
aVa
asbs(g75
g79
g83
tp208
(imorph
Morph
p209
(dp210
g45
(lp211
g47
aVe
aVx
aVa
asbs((imorph
Morph
p212
(dp213
g45
(lp214
Vt
aVa
aVl
aVa
aVa
aVn
aVd
aVa
asb(imorph
Morph
p215
(dp216
g45
(lp217
V\u03b2
aVa
aVt
aVa
aVl
aVa
aVa
aVn
aVd
aVa
asb(imorph
Morph
p218
(dp219
g45
(lp220
Vn
aVd
aVa
aVl
aVa
aVa
aVn
aVd
aVa
asbtp221
(imorph
Morph
p222
(dp223
g45
(lp224
Vt
aVa
aVl
aVa
aVa
aVn
aVd
aVa
asbssg92
(lp225
(imorph
Morph
p226
(dp227
g45
(lp228
sba(imorph
Morph
p229
(dp230
g45
(lp231
sba(imorph
Morph
p232
(dp233
g45
(lp234
sbasbF26765.076118946075
tp235
asS'problem'
p236
S'Odden_105_Bukusu'
p237
sS'finalFrontier'
p238
g6
(csolution
Frontier
p239
g8
NtRp240
(dp241
g41
g156
sg92
g225
sg56
g166
sS'frontiers'
p242
(lp243
(lp244
g107
aa(lp245
g122
aa(lp246
g139
aasbsS'parameters'
p247
g6
(cargparse
Namespace
p248
g8
NtRp249
(dp250
S'restore'
p251
NsS'features'
p252
S'none'
p253
sS'universal'
p254
NsS'restrict'
p255
NsS'seed'
p256
S'0'
sS'serial'
p257
I00
sS'alignment'
p258
I00
sS'top'
p259
I1
sS'maximumDepth'
p260
I3
sS'window'
p261
NsS'minimizeBits'
p262
I5
sS'samples'
p263
I30
sS'save'
p264
NsS'resume'
p265
I00
sS'disableClean'
p266
I01
sS'stemBaseline'
p267
I30
sS'dummy'
p268
I00
sS'task'
p269
S'CEGIS'
p270
sS'geometry'
p271
NsS'verbosity'
p272
I0
sS'timeout'
p273
F24
sS'debug'
p274
NsS'cores'
p275
I64
sg236
S'Odden_105_Bukusu'
p276
sS'mergeFrontiers'
p277
I00
sbsb.