(iresult
Result
p1
(dp2
S'startTime'
p3
F1559660743.727653
sS'solutionSequence'
p4
(lp5
(ccopy_reg
_reconstructor
p6
(csolution
Solution
p7
c__builtin__
object
p8
NtRp9
(dp10
S'rules'
p11
(lp12
(irule
Rule
p13
(dp14
S'leftTriggers'
p15
(irule
Guard
p16
(dp17
S'endOfString'
p18
I00
sS'specifications'
p19
(lp20
sS'optionalEnding'
p21
I00
sS'representation'
p22
V
sS'starred'
p23
I00
sS'side'
p24
S'L'
sbsS'structuralChange'
p25
(irule
FeatureMatrix
p26
(dp27
S'featuresAndPolarities'
p28
(lp29
sg22
V[  ]
p30
sbsS'rightTriggers'
p31
(irule
Guard
p32
(dp33
g18
I00
sg19
(lp34
sg21
I00
sg22
V
sg23
I00
sg24
S'R'
sbsS'focus'
p35
(irule
FeatureMatrix
p36
(dp37
g28
(lp38
sg22
V[  ]
p39
sbsg22
V[  ] ---> [  ] /  _ 
p40
sbasS'prefixes'
p41
(lp42
(imorph
Morph
p43
(dp44
S'phonemes'
p45
(lp46
sba(imorph
Morph
p47
(dp48
g45
(lp49
sba(imorph
Morph
p50
(dp51
g45
(lp52
sba(imorph
Morph
p53
(dp54
g45
(lp55
sba(imorph
Morph
p56
(dp57
g45
(lp58
sba(imorph
Morph
p59
(dp60
g45
(lp61
sbasS'underlyingForms'
p62
(dp63
((imorph
Morph
p64
(dp65
g45
(lp66
Vd
aVa
aVa
aVr
asb(imorph
Morph
p67
(dp68
g45
(lp69
Vd
aVa
aVa
aVr
aVt
aVa
asb(imorph
Morph
p70
(dp71
g45
(lp72
Vd
aVa
aVa
aVr
aVo
asbNNNtp73
(imorph
Morph
p74
(dp75
g45
(lp76
Vd
aVa
aVa
aVr
asbs((imorph
Morph
p77
(dp78
g45
(lp79
Vg
aVe
aVe
aVs
asb(imorph
Morph
p80
(dp81
g45
(lp82
Vg
aVe
aVe
aVs
aVt
aVa
asb(imorph
Morph
p83
(dp84
g45
(lp85
Vg
aVe
aVe
aVs
aVo
asbNNNtp86
(imorph
Morph
p87
(dp88
g45
(lp89
Vg
aVe
aVe
aVs
asbssS'suffixes'
p90
(lp91
(imorph
Morph
p92
(dp93
g45
(lp94
sba(imorph
Morph
p95
(dp96
g45
(lp97
Vt
aVa
asba(imorph
Morph
p98
(dp99
g45
(lp100
Vo
asba(imorph
Morph
p101
(dp102
g45
(lp103
sba(imorph
Morph
p104
(dp105
g45
(lp106
sba(imorph
Morph
p107
(dp108
g45
(lp109
sbasbF22.715255975723267
tp110
a(g6
(g7
g8
NtRp111
(dp112
g11
(lp113
(irule
Rule
p114
(dp115
g15
(irule
Guard
p116
(dp117
g18
I00
sg19
(lp118
sg21
I00
sg22
V
sg23
I00
sg24
S'L'
sbsg25
(irule
ConstantPhoneme
p119
(dp120
S'p'
V\u0263
sbsg31
(irule
Guard
p121
(dp122
g18
I00
sg19
(lp123
(irule
ConstantPhoneme
p124
(dp125
S'p'
Vo
sbasg21
I00
sg22
Vo
sg23
I00
sg24
S'R'
sbsg35
(irule
ConstantPhoneme
p126
(dp127
S'p'
Vg
sbsg22
Vg ---> \u0263 /  _ o
p128
sbasg41
(lp129
(imorph
Morph
p130
(dp131
g45
(lp132
sba(imorph
Morph
p133
(dp134
g45
(lp135
sba(imorph
Morph
p136
(dp137
g45
(lp138
sba(imorph
Morph
p139
(dp140
g45
(lp141
sba(imorph
Morph
p142
(dp143
g45
(lp144
sba(imorph
Morph
p145
(dp146
g45
(lp147
sbasg62
(dp148
((imorph
Morph
p149
(dp150
g45
(lp151
Vl
aVu
aVg
asb(imorph
Morph
p152
(dp153
g45
(lp154
Vl
aVu
aVg
aVt
aVa
asb(imorph
Morph
p155
(dp156
g45
(lp157
Vl
aVu
aV\u0263
aVo
asbNNNtp158
(imorph
Morph
p159
(dp160
g45
(lp161
Vl
aVu
aVg
asbs(g64
g67
g70
NNNtp162
(imorph
Morph
p163
(dp164
g45
(lp165
Vd
aVa
aVa
aVr
asbs(g77
g80
g83
NNNtp166
(imorph
Morph
p167
(dp168
g45
(lp169
Vg
aVe
aVe
aVs
asbssg90
(lp170
(imorph
Morph
p171
(dp172
g45
(lp173
sba(imorph
Morph
p174
(dp175
g45
(lp176
Vt
aVa
asba(imorph
Morph
p177
(dp178
g45
(lp179
Vo
asba(imorph
Morph
p180
(dp181
g45
(lp182
sba(imorph
Morph
p183
(dp184
g45
(lp185
sba(imorph
Morph
p186
(dp187
g45
(lp188
sbasbF81.533328056335449
tp189
a(g6
(g7
g8
NtRp190
(dp191
g11
(lp192
(irule
Rule
p193
(dp194
g15
(irule
Guard
p195
(dp196
g18
I00
sg19
(lp197
sg21
I00
sg22
V
sg23
I00
sg24
S'L'
sbsg25
(irule
ConstantPhoneme
p198
(dp199
S'p'
V\u03b2
sbsg31
(irule
Guard
p200
(dp201
g18
I00
sg19
(lp202
(irule
ConstantPhoneme
p203
(dp204
S'p'
Vo
sbasg21
I00
sg22
Vo
sg23
I00
sg24
S'R'
sbsg35
(irule
ConstantPhoneme
p205
(dp206
S'p'
Vb
sbsg22
Vb ---> \u03b2 /  _ o
p207
sba(irule
Rule
p208
(dp209
g15
(irule
Guard
p210
(dp211
g18
I00
sg19
(lp212
sg21
I00
sg22
V
sg23
I00
sg24
S'L'
sbsg25
(irule
ConstantPhoneme
p213
(dp214
S'p'
V\u0263
sbsg31
(irule
Guard
p215
(dp216
g18
I01
sg19
(lp217
(irule
FeatureMatrix
p218
(dp219
g28
(lp220
sg22
V[  ]
p221
sbasg21
I00
sg22
V[  ] #
p222
sg23
I00
sg24
S'R'
sbsg35
(irule
ConstantPhoneme
p223
(dp224
S'p'
Vg
sbsg22
Vg ---> \u0263 /  _ [  ] #
p225
sbasg41
(lp226
(imorph
Morph
p227
(dp228
g45
(lp229
sba(imorph
Morph
p230
(dp231
g45
(lp232
sba(imorph
Morph
p233
(dp234
g45
(lp235
sba(imorph
Morph
p236
(dp237
g45
(lp238
sba(imorph
Morph
p239
(dp240
g45
(lp241
sba(imorph
Morph
p242
(dp243
g45
(lp244
sbasg62
(dp245
((imorph
Morph
(dp246
g45
(lp247
V\u0295
aVi
aVi
aVr
asb(imorph
Morph
(dp248
g45
(lp249
V\u0295
aVi
aVi
aVr
aVt
aVa
asb(imorph
Morph
(dp250
g45
(lp251
V\u0295
aVi
aVi
aVr
aVo
asbNNNtp252
(imorph
Morph
p253
(dp254
g45
(lp255
V\u0295
aVi
aVi
aVr
asbs((imorph
Morph
(dp256
g45
(lp257
Vs
aVa
aVb
asb(imorph
Morph
(dp258
g45
(lp259
Vs
aVa
aVb
aVt
aVa
asb(imorph
Morph
(dp260
g45
(lp261
Vs
aVa
aV\u03b2
aVo
asbNNNtp262
(imorph
Morph
p263
(dp264
g45
(lp265
Vs
aVa
aVb
asbs((imorph
Morph
(dp266
g45
(lp267
Vw
aVa
aV\u0127
aVa
aVr
asb(imorph
Morph
(dp268
g45
(lp269
Vw
aVa
aV\u0127
aVa
aVr
aVt
aVa
asb(imorph
Morph
(dp270
g45
(lp271
Vw
aVa
aV\u0127
aVa
aVr
aVo
asbNNNtp272
(imorph
Morph
p273
(dp274
g45
(lp275
Vw
aVa
aV\u0127
aVa
aVr
asbs(g149
g152
g155
NNNtp276
(imorph
Morph
p277
(dp278
g45
(lp279
Vl
aVu
aVg
asbs(g77
g80
g83
NNNtp280
(imorph
Morph
p281
(dp282
g45
(lp283
Vg
aVe
aVe
aVs
asbs(g64
g67
g70
NNNtp284
(imorph
Morph
p285
(dp286
g45
(lp287
Vd
aVa
aVa
aVr
asbs((imorph
Morph
(dp288
g45
(lp289
Vl
aVa
aVf
asb(imorph
Morph
(dp290
g45
(lp291
Vl
aVa
aVf
aVt
aVa
asb(imorph
Morph
(dp292
g45
(lp293
Vl
aVa
aVf
aVo
asbNNNtp294
(imorph
Morph
p295
(dp296
g45
(lp297
Vl
aVa
aVf
asbs((imorph
Morph
(dp298
g45
(lp299
Vs
aVa
aVa
aVn
asb(imorph
Morph
(dp300
g45
(lp301
Vs
aVa
aVa
aVn
aVt
aVa
asb(imorph
Morph
(dp302
g45
(lp303
Vs
aVa
aVa
aVn
aVo
asbNNNtp304
(imorph
Morph
p305
(dp306
g45
(lp307
Vs
aVa
aVa
aVn
asbs((imorph
Morph
(dp308
g45
(lp309
V\u0161
aVi
aVl
aVi
aVn
asb(imorph
Morph
(dp310
g45
(lp311
V\u0161
aVi
aVl
aVi
aVn
aVt
aVa
asb(imorph
Morph
(dp312
g45
(lp313
V\u0161
aVi
aVl
aVi
aVn
aVo
asbNNNtp314
(imorph
Morph
p315
(dp316
g45
(lp317
V\u0161
aVi
aVl
aVi
aVn
asbs((imorph
Morph
(dp318
g45
(lp319
Vn
aVa
aVa
aVg
asb(imorph
Morph
(dp320
g45
(lp321
Vn
aVa
aVa
aVg
aVt
aVa
asb(imorph
Morph
(dp322
g45
(lp323
Vn
aVa
aVa
aV\u0263
aVo
asbNNNtp324
(imorph
Morph
p325
(dp326
g45
(lp327
Vn
aVa
aVa
aVg
asbs((imorph
Morph
(dp328
g45
(lp329
V\u0294
aVi
aVn
aVa
aVn
asb(imorph
Morph
(dp330
g45
(lp331
V\u0294
aVi
aVn
aVa
aVn
aVt
aVa
asb(imorph
Morph
(dp332
g45
(lp333
V\u0294
aVi
aVn
aVa
aVn
aVo
asbNNNtp334
(imorph
Morph
p335
(dp336
g45
(lp337
V\u0294
aVi
aVn
aVa
aVn
asbs((imorph
Morph
(dp338
g45
(lp339
Vd
aVa
aVa
aVn
asb(imorph
Morph
(dp340
g45
(lp341
Vd
aVa
aVa
aVn
aVt
aVa
asb(imorph
Morph
(dp342
g45
(lp343
Vd
aVa
aVa
aVn
aVo
asbNNNtp344
(imorph
Morph
p345
(dp346
g45
(lp347
Vd
aVa
aVa
aVn
asbs((imorph
Morph
p348
(dp349
g45
(lp350
Vt
aVi
aVb
asb(imorph
Morph
p351
(dp352
g45
(lp353
Vt
aVi
aVb
aVt
aVa
asb(imorph
Morph
p354
(dp355
g45
(lp356
Vt
aVi
aV\u03b2
aVo
asbNNNtp357
(imorph
Morph
p358
(dp359
g45
(lp360
Vt
aVi
aVb
asbs((imorph
Morph
(dp361
g45
(lp362
Vd
aVa
aVn
asb(imorph
Morph
(dp363
g45
(lp364
Vd
aVa
aVn
aVt
aVa
asb(imorph
Morph
(dp365
g45
(lp366
Vd
aVa
aVn
aVo
asbNNNtp367
(imorph
Morph
p368
(dp369
g45
(lp370
Vd
aVa
aVn
asbssg90
(lp371
(imorph
Morph
p372
(dp373
g45
(lp374
sba(imorph
Morph
p375
(dp376
g45
(lp377
Vt
aVa
asba(imorph
Morph
p378
(dp379
g45
(lp380
Vo
asba(imorph
Morph
p381
(dp382
g45
(lp383
sba(imorph
Morph
p384
(dp385
g45
(lp386
sba(imorph
Morph
p387
(dp388
g45
(lp389
sbasbF1090.2948088645935
tp390
asS'problem'
p391
S'Odden_4.3_Somali'
p392
sS'finalFrontier'
p393
g6
(csolution
Frontier
p394
g8
NtRp395
(dp396
g41
g226
sg90
g371
sg62
g245
sS'frontiers'
p397
(lp398
(lp399
g193
aa(lp400
g208
aasbsS'parameters'
p401
g6
(cargparse
Namespace
p402
g8
NtRp403
(dp404
S'restore'
p405
NsS'features'
p406
S'none'
p407
sS'universal'
p408
NsS'restrict'
p409
NsS'seed'
p410
S'0'
sS'serial'
p411
I00
sS'alignment'
p412
I00
sS'top'
p413
I1
sS'maximumDepth'
p414
I3
sS'window'
p415
NsS'minimizeBits'
p416
I5
sS'samples'
p417
I30
sS'save'
p418
NsS'resume'
p419
I00
sS'disableClean'
p420
I01
sS'stemBaseline'
p421
I30
sS'dummy'
p422
I00
sS'task'
p423
S'CEGIS'
p424
sS'geometry'
p425
NsS'verbosity'
p426
I0
sS'timeout'
p427
F24
sS'debug'
p428
NsS'cores'
p429
I64
sg391
S'Odden_4.3_Somali'
p430
sS'mergeFrontiers'
p431
I00
sbsb.