(iresult
Result
p1
(dp2
S'startTime'
p3
F1575232053.108984
sS'solutionSequence'
p4
(lp5
(ccopy_reg
_reconstructor
p6
(csolution
Solution
p7
c__builtin__
object
p8
NtRp9
(dp10
S'rules'
p11
(lp12
(irule
Rule
p13
(dp14
S'leftTriggers'
p15
(irule
Guard
p16
(dp17
S'endOfString'
p18
I00
sS'specifications'
p19
(lp20
sS'optionalEnding'
p21
I00
sS'representation'
p22
V
sS'starred'
p23
I00
sS'side'
p24
S'L'
sbsS'structuralChange'
p25
(irule
ConstantPhoneme
p26
(dp27
S'p'
Vk^y
p28
sbsS'rightTriggers'
p29
(irule
Guard
p30
(dp31
g18
I00
sg19
(lp32
(irule
FeatureMatrix
p33
(dp34
S'featuresAndPolarities'
p35
(lp36
(I00
S'back'
p37
tp38
a(I01
S'vowel'
p39
tp40
asg22
V[ +vowel -back ]
p41
sbasg21
I00
sg22
g41
sg23
I00
sg24
S'R'
sbsS'focus'
p42
(irule
FeatureMatrix
p43
(dp44
g35
(lp45
(I00
S'voice'
p46
tp47
asg22
V[ -voice ]
p48
sbsg22
V[ -voice ] ---> k^y /  _ [ +vowel -back ]
p49
sba(irule
Rule
p50
(dp51
g15
(irule
Guard
p52
(dp53
g18
I00
sg19
(lp54
(irule
FeatureMatrix
p55
(dp56
g35
(lp57
(I01
g46
tp58
asg22
V[ +voice ]
p59
sbasg21
I00
sg22
g59
sg23
I00
sg24
S'L'
sbsg25
(irule
ConstantPhoneme
p60
(dp61
S'p'
Vs^y
p62
sbsg29
(irule
Guard
p63
(dp64
g18
I00
sg19
(lp65
(irule
FeatureMatrix
p66
(dp67
g35
(lp68
(I01
S'high'
p69
tp70
asg22
V[ +high ]
p71
sbasg21
I00
sg22
g71
sg23
I00
sg24
S'R'
sbsg42
(irule
FeatureMatrix
p72
(dp73
g35
(lp74
(I00
S'sonorant'
p75
tp76
asg22
V[ -sonorant ]
p77
sbsg22
V[ -sonorant ] ---> s^y / [ +voice ] _ [ +high ]
p78
sbasS'prefixes'
p79
(lp80
(imorph
Morph
p81
(dp82
S'phonemes'
p83
(lp84
sba(imorph
Morph
p85
(dp86
g83
(lp87
sba(imorph
Morph
p88
(dp89
g83
(lp90
sba(imorph
Morph
p91
(dp92
g83
(lp93
sba(imorph
Morph
p94
(dp95
g83
(lp96
sba(imorph
Morph
p97
(dp98
g83
(lp99
sba(imorph
Morph
p100
(dp101
g83
(lp102
sba(imorph
Morph
p103
(dp104
g83
(lp105
sbasS'underlyingForms'
p106
(dp107
((imorph
Morph
(dp108
g83
(lp109
Vl
aVe
aVs
aVt
asb(imorph
Morph
(dp110
g83
(lp111
Vl
aVe
aVs
aVt
aVa
asb(imorph
Morph
(dp112
g83
(lp113
Vl
aVe
aVs^y
p114
aVk^y
p115
aVi
asbNNNNNtp116
(imorph
Morph
p117
(dp118
g83
(lp119
Vl
aVe
aVs
aVt
asbs((imorph
Morph
p120
(dp121
g83
(lp122
V\u0263^y
p123
aVr^y
p124
aVi
aVx
asb(imorph
Morph
p125
(dp126
g83
(lp127
V\u0263^y
p128
aVr^y
p129
aVi
aVx
aVa
asb(imorph
Morph
p130
(dp131
g83
(lp132
V\u0263^y
p133
aVr^y
p134
aVi
aVs^y
p135
aVi
asbNNNNNtp136
(imorph
Morph
p137
(dp138
g83
(lp139
V\u0263^y
p140
aVr^y
p141
aVi
aVx
asbs((imorph
Morph
p142
(dp143
g83
(lp144
Vp
aVl
aVa
aVs
aVt
asb(imorph
Morph
p145
(dp146
g83
(lp147
Vp
aVl
aVa
aVs
aVt
aVa
asb(imorph
Morph
p148
(dp149
g83
(lp150
Vp
aVl
aVa
aVs^y
p151
aVk^y
p152
aVi
asbNNNNNtp153
(imorph
Morph
p154
(dp155
g83
(lp156
Vp
aVl
aVa
aVs
aVt
asbs((imorph
Morph
(dp157
g83
(lp158
Vm^y
p159
aVn^y
p160
aVu
aVx
asb(imorph
Morph
(dp161
g83
(lp162
Vm^y
p163
aVn^y
p164
aVu
aVx
aVa
asb(imorph
Morph
(dp165
g83
(lp166
Vm^y
p167
aVn^y
p168
aVu
aVs^y
p169
aVi
asbNNNNNtp170
(imorph
Morph
p171
(dp172
g83
(lp173
Vm^y
p174
aVn^y
p175
aVu
aVx
asbs((imorph
Morph
p176
(dp177
g83
(lp178
Vs
aVk
aVo
aVr
aVu
aVx
asb(imorph
Morph
p179
(dp180
g83
(lp181
Vs
aVk
aVo
aVr
aVu
aVx
aVa
asb(imorph
Morph
p182
(dp183
g83
(lp184
Vs
aVk
aVo
aVr
aVu
aVs^y
p185
aVi
asbNNNNNtp186
(imorph
Morph
p187
(dp188
g83
(lp189
Vs
aVk
aVo
aVr
aVu
aVx
asbs((imorph
Morph
(dp190
g83
(lp191
Vp
aVa
aVs
aVt
aVu
aVx
asb(imorph
Morph
(dp192
g83
(lp193
Vp
aVa
aVs
aVt
aVu
aVx
aVa
asb(imorph
Morph
(dp194
g83
(lp195
Vp
aVa
aVs
aVt
aVu
aVs^y
p196
aVi
asbNNNNNtp197
(imorph
Morph
p198
(dp199
g83
(lp200
Vp
aVa
aVs
aVt
aVu
aVx
asbssS'suffixes'
p201
(lp202
(imorph
Morph
p203
(dp204
g83
(lp205
sba(imorph
Morph
p206
(dp207
g83
(lp208
Va
asba(imorph
Morph
p209
(dp210
g83
(lp211
Vi
asba(imorph
Morph
p212
(dp213
g83
(lp214
sba(imorph
Morph
p215
(dp216
g83
(lp217
sba(imorph
Morph
p218
(dp219
g83
(lp220
sba(imorph
Morph
p221
(dp222
g83
(lp223
sba(imorph
Morph
p224
(dp225
g83
(lp226
sbasbF1531.2212519645691
tp227
asS'problem'
p228
S'Odden_4.11_Sadzava_Ukrainian'
p229
sS'finalFrontier'
p230
g6
(csolution
Frontier
p231
g8
NtRp232
(dp233
g79
g80
sg201
g202
sg106
g107
sS'frontiers'
p234
(lp235
(lp236
(irule
Rule
p237
(dp238
g15
(irule
Guard
p239
(dp240
g18
I00
sg19
(lp241
sg21
I00
sg22
V
sg23
I00
sg24
S'L'
sbsg25
(irule
ConstantPhoneme
p242
(dp243
S'p'
Vk^y
p244
sbsg29
(irule
Guard
p245
(dp246
g18
I00
sg19
(lp247
(irule
FeatureMatrix
p248
(dp249
g35
(lp250
(I00
S'back'
p251
tp252
a(I01
S'vowel'
p253
tp254
asg22
V[ +vowel -back ]
p255
sbasg21
I00
sg22
g255
sg23
I00
sg24
S'R'
sbsg42
(irule
FeatureMatrix
p256
(dp257
g35
(lp258
(I00
S'voice'
p259
tp260
asg22
V[ -voice ]
p261
sbsg22
V[ -voice ] ---> k^y /  _ [ +vowel -back ]
p262
sba(irule
Rule
p263
(dp264
g15
(irule
Guard
p265
(dp266
g18
I00
sg19
(lp267
sg21
I00
sg22
V
sg23
I00
sg24
S'L'
sbsg25
(irule
ConstantPhoneme
p268
(dp269
S'p'
g244
sbsg29
(irule
Guard
p270
(dp271
g18
I00
sg19
(lp272
(irule
FeatureMatrix
p273
(dp274
g35
(lp275
(I00
g251
tp276
a(I01
g253
tp277
asg22
V[ +vowel -back ]
p278
sbasg21
I00
sg22
g278
sg23
I00
sg24
S'R'
sbsg42
(irule
FeatureMatrix
p279
(dp280
g35
(lp281
(I00
S'sonorant'
p282
tp283
asg22
V[ -sonorant ]
p284
sbsg22
V[ -sonorant ] ---> k^y /  _ [ +vowel -back ]
p285
sba(irule
Rule
p286
(dp287
g15
(irule
Guard
p288
(dp289
g18
I00
sg19
(lp290
(irule
FeatureMatrix
p291
(dp292
g35
(lp293
(I00
g253
tp294
asg22
V[ -vowel ]
p295
sba(irule
FeatureMatrix
p296
(dp297
g35
(lp298
(I01
g253
tp299
asg22
V[ +vowel ]
p300
sbasg21
I00
sg22
V[ +vowel ] [ -vowel ]*
p301
sg23
I01
sg24
S'L'
sbsg25
(irule
ConstantPhoneme
p302
(dp303
S'p'
g244
sbsg29
(irule
Guard
p304
(dp305
g18
I00
sg19
(lp306
(irule
FeatureMatrix
p307
(dp308
g35
(lp309
(I00
g251
tp310
a(I01
g253
tp311
asg22
V[ +vowel -back ]
p312
sbasg21
I00
sg22
g312
sg23
I00
sg24
S'R'
sbsg42
(irule
FeatureMatrix
p313
(dp314
g35
(lp315
sg22
V[  ]
p316
sbsg22
V[  ] ---> k^y / [ +vowel ] [ -vowel ]* _ [ +vowel -back ]
p317
sba(irule
Rule
p318
(dp319
g15
(irule
Guard
p320
(dp321
g18
I00
sg19
(lp322
sg21
I00
sg22
V
sg23
I00
sg24
S'L'
sbsg25
(irule
ConstantPhoneme
p323
(dp324
S'p'
g244
sbsg29
(irule
Guard
p325
(dp326
g18
I00
sg19
(lp327
(irule
FeatureMatrix
p328
(dp329
g35
(lp330
(I00
g251
tp331
a(I01
g253
tp332
asg22
V[ +vowel -back ]
p333
sbasg21
I00
sg22
g333
sg23
I00
sg24
S'R'
sbsg42
(irule
FeatureMatrix
p334
(dp335
g35
(lp336
(I00
S'liquid'
p337
tp338
asg22
V[ -liquid ]
p339
sbsg22
V[ -liquid ] ---> k^y /  _ [ +vowel -back ]
p340
sba(irule
Rule
p341
(dp342
g15
(irule
Guard
p343
(dp344
g18
I00
sg19
(lp345
sg21
I00
sg22
V
sg23
I00
sg24
S'L'
sbsg25
(irule
ConstantPhoneme
p346
(dp347
S'p'
g244
sbsg29
(irule
Guard
p348
(dp349
g18
I00
sg19
(lp350
(irule
ConstantPhoneme
p351
(dp352
S'p'
Vi
sbasg21
I00
sg22
Vi
sg23
I00
sg24
S'R'
sbsg42
(irule
FeatureMatrix
p353
(dp354
g35
(lp355
(I00
g282
tp356
asg22
V[ -sonorant ]
p357
sbsg22
V[ -sonorant ] ---> k^y /  _ i
p358
sba(irule
Rule
p359
(dp360
g15
(irule
Guard
p361
(dp362
g18
I00
sg19
(lp363
(irule
FeatureMatrix
p364
(dp365
g35
(lp366
sg22
V[  ]
p367
sbasg21
I00
sg22
g367
sg23
I00
sg24
S'L'
sbsg25
(irule
ConstantPhoneme
p368
(dp369
S'p'
g244
sbsg29
(irule
Guard
p370
(dp371
g18
I00
sg19
(lp372
(irule
FeatureMatrix
p373
(dp374
g35
(lp375
(I00
g251
tp376
a(I01
g253
tp377
asg22
V[ +vowel -back ]
p378
sbasg21
I00
sg22
g378
sg23
I00
sg24
S'R'
sbsg42
(irule
FeatureMatrix
p379
(dp380
g35
(lp381
(I00
g259
tp382
asg22
V[ -voice ]
p383
sbsg22
V[ -voice ] ---> k^y / [  ] _ [ +vowel -back ]
p384
sba(irule
Rule
p385
(dp386
g15
(irule
Guard
p387
(dp388
g18
I00
sg19
(lp389
sg21
I00
sg22
V
sg23
I00
sg24
S'L'
sbsg25
(irule
ConstantPhoneme
p390
(dp391
S'p'
g244
sbsg29
(irule
Guard
p392
(dp393
g18
I00
sg19
(lp394
(irule
ConstantPhoneme
p395
(dp396
S'p'
Vi
sbasg21
I00
sg22
Vi
sg23
I00
sg24
S'R'
sbsg42
(irule
FeatureMatrix
p397
(dp398
g35
(lp399
(I00
g259
tp400
asg22
V[ -voice ]
p401
sbsg22
V[ -voice ] ---> k^y /  _ i
p402
sba(irule
Rule
p403
(dp404
g15
(irule
Guard
p405
(dp406
g18
I00
sg19
(lp407
(irule
FeatureMatrix
p408
(dp409
g35
(lp410
sg22
V[  ]
p411
sbasg21
I00
sg22
g411
sg23
I00
sg24
S'L'
sbsg25
(irule
ConstantPhoneme
p412
(dp413
S'p'
g244
sbsg29
(irule
Guard
p414
(dp415
g18
I00
sg19
(lp416
(irule
FeatureMatrix
p417
(dp418
g35
(lp419
(I00
g251
tp420
a(I01
g253
tp421
asg22
V[ +vowel -back ]
p422
sbasg21
I00
sg22
g422
sg23
I00
sg24
S'R'
sbsg42
(irule
FeatureMatrix
p423
(dp424
g35
(lp425
(I00
g282
tp426
asg22
V[ -sonorant ]
p427
sbsg22
V[ -sonorant ] ---> k^y / [  ] _ [ +vowel -back ]
p428
sba(irule
Rule
p429
(dp430
g15
(irule
Guard
p431
(dp432
g18
I00
sg19
(lp433
sg21
I00
sg22
V
sg23
I00
sg24
S'L'
sbsg25
(irule
ConstantPhoneme
p434
(dp435
S'p'
g244
sbsg29
(irule
Guard
p436
(dp437
g18
I01
sg19
(lp438
(irule
FeatureMatrix
p439
(dp440
g35
(lp441
(I00
g251
tp442
a(I01
g253
tp443
asg22
V[ +vowel -back ]
p444
sbasg21
I00
sg22
V[ +vowel -back ] #
p445
sg23
I00
sg24
S'R'
sbsg42
(irule
FeatureMatrix
p446
(dp447
g35
(lp448
(I00
g259
tp449
asg22
V[ -voice ]
p450
sbsg22
V[ -voice ] ---> k^y /  _ [ +vowel -back ] #
p451
sba(irule
Rule
p452
(dp453
g15
(irule
Guard
p454
(dp455
g18
I00
sg19
(lp456
(irule
FeatureMatrix
p457
(dp458
g35
(lp459
(I00
g253
tp460
asg22
V[ -vowel ]
p461
sba(irule
FeatureMatrix
p462
(dp463
g35
(lp464
(I01
g253
tp465
asg22
V[ +vowel ]
p466
sbasg21
I00
sg22
V[ +vowel ] [ -vowel ]*
p467
sg23
I01
sg24
S'L'
sbsg25
(irule
ConstantPhoneme
p468
(dp469
S'p'
g244
sbsg29
(irule
Guard
p470
(dp471
g18
I00
sg19
(lp472
(irule
FeatureMatrix
p473
(dp474
g35
(lp475
(I00
g251
tp476
a(I01
g253
tp477
asg22
V[ +vowel -back ]
p478
sbasg21
I00
sg22
g478
sg23
I00
sg24
S'R'
sbsg42
(irule
FeatureMatrix
p479
(dp480
g35
(lp481
(I00
g259
tp482
asg22
V[ -voice ]
p483
sbsg22
V[ -voice ] ---> k^y / [ +vowel ] [ -vowel ]* _ [ +vowel -back ]
p484
sba(irule
Rule
p485
(dp486
g15
(irule
Guard
p487
(dp488
g18
I00
sg19
(lp489
(irule
FeatureMatrix
p490
(dp491
g35
(lp492
(I00
g253
tp493
asg22
V[ -vowel ]
p494
sba(irule
FeatureMatrix
p495
(dp496
g35
(lp497
(I01
g253
tp498
asg22
V[ +vowel ]
p499
sbasg21
I00
sg22
V[ +vowel ] [ -vowel ]*
p500
sg23
I01
sg24
S'L'
sbsg25
(irule
ConstantPhoneme
p501
(dp502
S'p'
g244
sbsg29
(irule
Guard
p503
(dp504
g18
I00
sg19
(lp505
(irule
FeatureMatrix
p506
(dp507
g35
(lp508
(I00
g251
tp509
a(I01
g253
tp510
asg22
V[ +vowel -back ]
p511
sbasg21
I00
sg22
g511
sg23
I00
sg24
S'R'
sbsg42
(irule
FeatureMatrix
p512
(dp513
g35
(lp514
(I00
g253
tp515
asg22
V[ -vowel ]
p516
sbsg22
V[ -vowel ] ---> k^y / [ +vowel ] [ -vowel ]* _ [ +vowel -back ]
p517
sba(irule
Rule
p518
(dp519
g15
(irule
Guard
p520
(dp521
g18
I00
sg19
(lp522
(irule
FeatureMatrix
p523
(dp524
g35
(lp525
(I00
g253
tp526
asg22
V[ -vowel ]
p527
sba(irule
FeatureMatrix
p528
(dp529
g35
(lp530
(I01
g253
tp531
asg22
V[ +vowel ]
p532
sbasg21
I00
sg22
V[ +vowel ] [ -vowel ]*
p533
sg23
I01
sg24
S'L'
sbsg25
(irule
ConstantPhoneme
p534
(dp535
S'p'
g244
sbsg29
(irule
Guard
p536
(dp537
g18
I00
sg19
(lp538
(irule
FeatureMatrix
p539
(dp540
g35
(lp541
(I00
g251
tp542
a(I01
g253
tp543
asg22
V[ +vowel -back ]
p544
sbasg21
I00
sg22
g544
sg23
I00
sg24
S'R'
sbsg42
(irule
FeatureMatrix
p545
(dp546
g35
(lp547
(I00
g282
tp548
asg22
V[ -sonorant ]
p549
sbsg22
V[ -sonorant ] ---> k^y / [ +vowel ] [ -vowel ]* _ [ +vowel -back ]
p550
sba(irule
Rule
p551
(dp552
g15
(irule
Guard
p553
(dp554
g18
I00
sg19
(lp555
sg21
I00
sg22
V
sg23
I00
sg24
S'L'
sbsg25
(irule
ConstantPhoneme
p556
(dp557
S'p'
g244
sbsg29
(irule
Guard
p558
(dp559
g18
I01
sg19
(lp560
(irule
FeatureMatrix
p561
(dp562
g35
(lp563
(I00
g251
tp564
a(I01
g253
tp565
asg22
V[ +vowel -back ]
p566
sbasg21
I00
sg22
V[ +vowel -back ] #
p567
sg23
I00
sg24
S'R'
sbsg42
(irule
FeatureMatrix
p568
(dp569
g35
(lp570
(I00
g282
tp571
asg22
V[ -sonorant ]
p572
sbsg22
V[ -sonorant ] ---> k^y /  _ [ +vowel -back ] #
p573
sba(irule
Rule
p574
(dp575
g15
(irule
Guard
p576
(dp577
g18
I00
sg19
(lp578
sg21
I00
sg22
V
sg23
I00
sg24
S'L'
sbsg25
(irule
ConstantPhoneme
p579
(dp580
S'p'
g244
sbsg29
(irule
Guard
p581
(dp582
g18
I01
sg19
(lp583
(irule
FeatureMatrix
p584
(dp585
g35
(lp586
(I00
g251
tp587
a(I01
g253
tp588
asg22
V[ +vowel -back ]
p589
sbasg21
I00
sg22
V[ +vowel -back ] #
p590
sg23
I00
sg24
S'R'
sbsg42
(irule
FeatureMatrix
p591
(dp592
g35
(lp593
(I00
g253
tp594
asg22
V[ -vowel ]
p595
sbsg22
V[ -vowel ] ---> k^y /  _ [ +vowel -back ] #
p596
sba(irule
Rule
p597
(dp598
g15
(irule
Guard
p599
(dp600
g18
I00
sg19
(lp601
sg21
I00
sg22
V
sg23
I00
sg24
S'L'
sbsg25
(irule
ConstantPhoneme
p602
(dp603
S'p'
g244
sbsg29
(irule
Guard
p604
(dp605
g18
I01
sg19
(lp606
(irule
FeatureMatrix
p607
(dp608
g35
(lp609
(I00
g251
tp610
a(I01
g253
tp611
asg22
V[ +vowel -back ]
p612
sbasg21
I00
sg22
V[ +vowel -back ] #
p613
sg23
I00
sg24
S'R'
sbsg42
(irule
FeatureMatrix
p614
(dp615
g35
(lp616
sg22
V[  ]
p617
sbsg22
V[  ] ---> k^y /  _ [ +vowel -back ] #
p618
sba(irule
Rule
p619
(dp620
g15
(irule
Guard
p621
(dp622
g18
I00
sg19
(lp623
sg21
I00
sg22
V
sg23
I00
sg24
S'L'
sbsg25
(irule
ConstantPhoneme
p624
(dp625
S'p'
g244
sbsg29
(irule
Guard
p626
(dp627
g18
I00
sg19
(lp628
(irule
FeatureMatrix
p629
(dp630
g35
(lp631
(I00
g251
tp632
a(I01
S'high'
p633
tp634
asg22
V[ +high -back ]
p635
sbasg21
I00
sg22
g635
sg23
I00
sg24
S'R'
sbsg42
(irule
FeatureMatrix
p636
(dp637
g35
(lp638
(I00
g282
tp639
asg22
V[ -sonorant ]
p640
sbsg22
V[ -sonorant ] ---> k^y /  _ [ +high -back ]
p641
sba(irule
Rule
p642
(dp643
g15
(irule
Guard
p644
(dp645
g18
I00
sg19
(lp646
sg21
I00
sg22
V
sg23
I00
sg24
S'L'
sbsg25
(irule
ConstantPhoneme
p647
(dp648
S'p'
g244
sbsg29
(irule
Guard
p649
(dp650
g18
I00
sg19
(lp651
(irule
FeatureMatrix
p652
(dp653
g35
(lp654
(I00
g251
tp655
a(I01
g633
tp656
asg22
V[ +high -back ]
p657
sbasg21
I00
sg22
g657
sg23
I00
sg24
S'R'
sbsg42
(irule
FeatureMatrix
p658
(dp659
g35
(lp660
(I00
g259
tp661
asg22
V[ -voice ]
p662
sbsg22
V[ -voice ] ---> k^y /  _ [ +high -back ]
p663
sba(irule
Rule
p664
(dp665
g15
(irule
Guard
p666
(dp667
g18
I00
sg19
(lp668
(irule
FeatureMatrix
p669
(dp670
g35
(lp671
(I00
S'palletized'
p672
tp673
asg22
V[ -palletized ]
p674
sbasg21
I00
sg22
g674
sg23
I00
sg24
S'L'
sbsg25
(irule
ConstantPhoneme
p675
(dp676
S'p'
g244
sbsg29
(irule
Guard
p677
(dp678
g18
I00
sg19
(lp679
(irule
FeatureMatrix
p680
(dp681
g35
(lp682
(I00
g251
tp683
a(I01
g253
tp684
asg22
V[ +vowel -back ]
p685
sbasg21
I00
sg22
g685
sg23
I00
sg24
S'R'
sbsg42
(irule
FeatureMatrix
p686
(dp687
g35
(lp688
sg22
V[  ]
p689
sbsg22
V[  ] ---> k^y / [ -palletized ] _ [ +vowel -back ]
p690
sba(irule
Rule
p691
(dp692
g15
(irule
Guard
p693
(dp694
g18
I00
sg19
(lp695
(irule
FeatureMatrix
p696
(dp697
g35
(lp698
(I00
g253
tp699
asg22
V[ -vowel ]
p700
sba(irule
FeatureMatrix
p701
(dp702
g35
(lp703
(I01
g253
tp704
asg22
V[ +vowel ]
p705
sbasg21
I00
sg22
V[ +vowel ] [ -vowel ]*
p706
sg23
I01
sg24
S'L'
sbsg25
(irule
ConstantPhoneme
p707
(dp708
S'p'
g244
sbsg29
(irule
Guard
p709
(dp710
g18
I00
sg19
(lp711
(irule
ConstantPhoneme
p712
(dp713
S'p'
Vi
sbasg21
I00
sg22
Vi
sg23
I00
sg24
S'R'
sbsg42
(irule
FeatureMatrix
p714
(dp715
g35
(lp716
sg22
V[  ]
p717
sbsg22
V[  ] ---> k^y / [ +vowel ] [ -vowel ]* _ i
p718
sba(irule
Rule
p719
(dp720
g15
(irule
Guard
p721
(dp722
g18
I00
sg19
(lp723
sg21
I00
sg22
V
sg23
I00
sg24
S'L'
sbsg25
(irule
ConstantPhoneme
p724
(dp725
S'p'
g244
sbsg29
(irule
Guard
p726
(dp727
g18
I00
sg19
(lp728
(irule
FeatureMatrix
p729
(dp730
g35
(lp731
(I00
g251
tp732
a(I00
S'coronal'
p733
tp734
asg22
V[ -back -coronal ]
p735
sbasg21
I00
sg22
g735
sg23
I00
sg24
S'R'
sbsg42
(irule
FeatureMatrix
p736
(dp737
g35
(lp738
(I00
g282
tp739
asg22
V[ -sonorant ]
p740
sbsg22
V[ -sonorant ] ---> k^y /  _ [ -back -coronal ]
p741
sba(irule
Rule
p742
(dp743
g15
(irule
Guard
p744
(dp745
g18
I00
sg19
(lp746
sg21
I00
sg22
V
sg23
I00
sg24
S'L'
sbsg25
(irule
ConstantPhoneme
p747
(dp748
S'p'
g244
sbsg29
(irule
Guard
p749
(dp750
g18
I01
sg19
(lp751
(irule
ConstantPhoneme
p752
(dp753
S'p'
Vi
sbasg21
I00
sg22
Vi #
p754
sg23
I00
sg24
S'R'
sbsg42
(irule
FeatureMatrix
p755
(dp756
g35
(lp757
sg22
V[  ]
p758
sbsg22
V[  ] ---> k^y /  _ i #
p759
sba(irule
Rule
p760
(dp761
g15
(irule
Guard
p762
(dp763
g18
I00
sg19
(lp764
sg21
I00
sg22
V
sg23
I00
sg24
S'L'
sbsg25
(irule
ConstantPhoneme
p765
(dp766
S'p'
g244
sbsg29
(irule
Guard
p767
(dp768
g18
I00
sg19
(lp769
(irule
FeatureMatrix
p770
(dp771
g35
(lp772
(I00
g251
tp773
a(I01
S'tense'
p774
tp775
asg22
V[ +tense -back ]
p776
sbasg21
I00
sg22
g776
sg23
I00
sg24
S'R'
sbsg42
(irule
FeatureMatrix
p777
(dp778
g35
(lp779
(I00
g282
tp780
asg22
V[ -sonorant ]
p781
sbsg22
V[ -sonorant ] ---> k^y /  _ [ +tense -back ]
p782
sba(irule
Rule
p783
(dp784
g15
(irule
Guard
p785
(dp786
g18
I00
sg19
(lp787
sg21
I00
sg22
V
sg23
I00
sg24
S'L'
sbsg25
(irule
ConstantPhoneme
p788
(dp789
S'p'
g244
sbsg29
(irule
Guard
p790
(dp791
g18
I00
sg19
(lp792
(irule
ConstantPhoneme
p793
(dp794
S'p'
Vi
sbasg21
I00
sg22
Vi
sg23
I00
sg24
S'R'
sbsg42
(irule
FeatureMatrix
p795
(dp796
g35
(lp797
(I00
g672
tp798
asg22
V[ -palletized ]
p799
sbsg22
V[ -palletized ] ---> k^y /  _ i
p800
sba(irule
Rule
p801
(dp802
g15
(irule
Guard
p803
(dp804
g18
I00
sg19
(lp805
sg21
I00
sg22
V
sg23
I00
sg24
S'L'
sbsg25
(irule
ConstantPhoneme
p806
(dp807
S'p'
g244
sbsg29
(irule
Guard
p808
(dp809
g18
I00
sg19
(lp810
(irule
FeatureMatrix
p811
(dp812
g35
(lp813
(I00
g251
tp814
a(I00
g733
tp815
asg22
V[ -back -coronal ]
p816
sbasg21
I00
sg22
g816
sg23
I00
sg24
S'R'
sbsg42
(irule
FeatureMatrix
p817
(dp818
g35
(lp819
(I00
g259
tp820
asg22
V[ -voice ]
p821
sbsg22
V[ -voice ] ---> k^y /  _ [ -back -coronal ]
p822
sba(irule
Rule
p823
(dp824
g15
(irule
Guard
p825
(dp826
g18
I00
sg19
(lp827
(irule
FeatureMatrix
p828
(dp829
g35
(lp830
sg22
V[  ]
p831
sba(irule
FeatureMatrix
p832
(dp833
g35
(lp834
sg22
V[  ]
p835
sbasg21
I00
sg22
V[  ] [  ]
p836
sg23
I00
sg24
S'L'
sbsg25
(irule
ConstantPhoneme
p837
(dp838
S'p'
g244
sbsg29
(irule
Guard
p839
(dp840
g18
I00
sg19
(lp841
(irule
FeatureMatrix
p842
(dp843
g35
(lp844
(I00
g251
tp845
a(I01
g253
tp846
asg22
V[ +vowel -back ]
p847
sbasg21
I00
sg22
g847
sg23
I00
sg24
S'R'
sbsg42
(irule
FeatureMatrix
p848
(dp849
g35
(lp850
sg22
V[  ]
p851
sbsg22
V[  ] ---> k^y / [  ] [  ] _ [ +vowel -back ]
p852
sba(irule
Rule
p853
(dp854
g15
(irule
Guard
p855
(dp856
g18
I00
sg19
(lp857
sg21
I00
sg22
V
sg23
I00
sg24
S'L'
sbsg25
(irule
ConstantPhoneme
p858
(dp859
S'p'
g244
sbsg29
(irule
Guard
p860
(dp861
g18
I00
sg19
(lp862
(irule
FeatureMatrix
p863
(dp864
g35
(lp865
(I00
g251
tp866
a(I01
g253
tp867
asg22
V[ +vowel -back ]
p868
sbasg21
I00
sg22
g868
sg23
I00
sg24
S'R'
sbsg42
(irule
FeatureMatrix
p869
(dp870
g35
(lp871
(I00
g282
tp872
a(I00
g672
tp873
asg22
V[ -palletized -sonorant ]
p874
sbsg22
V[ -palletized -sonorant ] ---> k^y /  _ [ +vowel -back ]
p875
sba(irule
Rule
p876
(dp877
g15
(irule
Guard
p878
(dp879
g18
I00
sg19
(lp880
(irule
FeatureMatrix
p881
(dp882
g35
(lp883
(I00
g253
tp884
asg22
V[ -vowel ]
p885
sba(irule
FeatureMatrix
p886
(dp887
g35
(lp888
(I01
g253
tp889
asg22
V[ +vowel ]
p890
sbasg21
I00
sg22
V[ +vowel ] [ -vowel ]*
p891
sg23
I01
sg24
S'L'
sbsg25
(irule
ConstantPhoneme
p892
(dp893
S'p'
g244
sbsg29
(irule
Guard
p894
(dp895
g18
I00
sg19
(lp896
(irule
ConstantPhoneme
p897
(dp898
S'p'
Vi
sbasg21
I00
sg22
Vi
sg23
I00
sg24
S'R'
sbsg42
(irule
FeatureMatrix
p899
(dp900
g35
(lp901
(I00
g282
tp902
asg22
V[ -sonorant ]
p903
sbsg22
V[ -sonorant ] ---> k^y / [ +vowel ] [ -vowel ]* _ i
p904
sba(irule
Rule
p905
(dp906
g15
(irule
Guard
p907
(dp908
g18
I00
sg19
(lp909
sg21
I00
sg22
V
sg23
I00
sg24
S'L'
sbsg25
(irule
ConstantPhoneme
p910
(dp911
S'p'
g244
sbsg29
(irule
Guard
p912
(dp913
g18
I00
sg19
(lp914
(irule
ConstantPhoneme
p915
(dp916
S'p'
Vi
sbasg21
I00
sg22
Vi
sg23
I00
sg24
S'R'
sbsg42
(irule
FeatureMatrix
p917
(dp918
g35
(lp919
(I00
g337
tp920
asg22
V[ -liquid ]
p921
sbsg22
V[ -liquid ] ---> k^y /  _ i
p922
sba(irule
Rule
p923
(dp924
g15
(irule
Guard
p925
(dp926
g18
I00
sg19
(lp927
(irule
FeatureMatrix
p928
(dp929
g35
(lp930
sg22
V[  ]
p931
sbasg21
I00
sg22
g931
sg23
I00
sg24
S'L'
sbsg25
(irule
ConstantPhoneme
p932
(dp933
S'p'
g244
sbsg29
(irule
Guard
p934
(dp935
g18
I00
sg19
(lp936
(irule
FeatureMatrix
p937
(dp938
g35
(lp939
(I00
g251
tp940
a(I01
g253
tp941
asg22
V[ +vowel -back ]
p942
sbasg21
I00
sg22
g942
sg23
I00
sg24
S'R'
sbsg42
(irule
FeatureMatrix
p943
(dp944
g35
(lp945
(I00
g672
tp946
asg22
V[ -palletized ]
p947
sbsg22
V[ -palletized ] ---> k^y / [  ] _ [ +vowel -back ]
p948
sba(irule
Rule
p949
(dp950
g15
(irule
Guard
p951
(dp952
g18
I00
sg19
(lp953
sg21
I00
sg22
V
sg23
I00
sg24
S'L'
sbsg25
(irule
ConstantPhoneme
p954
(dp955
S'p'
g244
sbsg29
(irule
Guard
p956
(dp957
g18
I00
sg19
(lp958
(irule
FeatureMatrix
p959
(dp960
g35
(lp961
(I00
g251
tp962
a(I01
g774
tp963
asg22
V[ +tense -back ]
p964
sbasg21
I00
sg22
g964
sg23
I00
sg24
S'R'
sbsg42
(irule
FeatureMatrix
p965
(dp966
g35
(lp967
(I00
g259
tp968
asg22
V[ -voice ]
p969
sbsg22
V[ -voice ] ---> k^y /  _ [ +tense -back ]
p970
sba(irule
Rule
p971
(dp972
g15
(irule
Guard
p973
(dp974
g18
I00
sg19
(lp975
sg21
I00
sg22
V
sg23
I00
sg24
S'L'
sbsg25
(irule
ConstantPhoneme
p976
(dp977
S'p'
g244
sbsg29
(irule
Guard
p978
(dp979
g18
I00
sg19
(lp980
(irule
FeatureMatrix
p981
(dp982
g35
(lp983
(I00
g251
tp984
a(I01
g253
tp985
asg22
V[ +vowel -back ]
p986
sbasg21
I00
sg22
g986
sg23
I00
sg24
S'R'
sbsg42
(irule
FeatureMatrix
p987
(dp988
g35
(lp989
(I00
g282
tp990
a(I00
S'sibilant'
p991
tp992
asg22
V[ -sibilant -sonorant ]
p993
sbsg22
V[ -sibilant -sonorant ] ---> k^y /  _ [ +vowel -back ]
p994
sba(irule
Rule
p995
(dp996
g15
(irule
Guard
p997
(dp998
g18
I00
sg19
(lp999
(irule
FeatureMatrix
p1000
(dp1001
g35
(lp1002
(I00
g253
tp1003
asg22
V[ -vowel ]
p1004
sba(irule
FeatureMatrix
p1005
(dp1006
g35
(lp1007
(I01
g253
tp1008
asg22
V[ +vowel ]
p1009
sbasg21
I00
sg22
V[ +vowel ] [ -vowel ]*
p1010
sg23
I01
sg24
S'L'
sbsg25
(irule
ConstantPhoneme
p1011
(dp1012
S'p'
g244
sbsg29
(irule
Guard
p1013
(dp1014
g18
I00
sg19
(lp1015
(irule
FeatureMatrix
p1016
(dp1017
g35
(lp1018
(I00
g251
tp1019
a(I01
g253
tp1020
asg22
V[ +vowel -back ]
p1021
sbasg21
I00
sg22
g1021
sg23
I00
sg24
S'R'
sbsg42
(irule
FeatureMatrix
p1022
(dp1023
g35
(lp1024
(I00
g991
tp1025
asg22
V[ -sibilant ]
p1026
sbsg22
V[ -sibilant ] ---> k^y / [ +vowel ] [ -vowel ]* _ [ +vowel -back ]
p1027
sba(irule
Rule
p1028
(dp1029
g15
(irule
Guard
p1030
(dp1031
g18
I00
sg19
(lp1032
(irule
FeatureMatrix
p1033
(dp1034
g35
(lp1035
sg22
V[  ]
p1036
sbasg21
I00
sg22
g1036
sg23
I00
sg24
S'L'
sbsg25
(irule
ConstantPhoneme
p1037
(dp1038
S'p'
g244
sbsg29
(irule
Guard
p1039
(dp1040
g18
I00
sg19
(lp1041
(irule
FeatureMatrix
p1042
(dp1043
g35
(lp1044
(I00
g251
tp1045
a(I01
g253
tp1046
asg22
V[ +vowel -back ]
p1047
sbasg21
I00
sg22
g1047
sg23
I00
sg24
S'R'
sbsg42
(irule
FeatureMatrix
p1048
(dp1049
g35
(lp1050
(I00
g337
tp1051
asg22
V[ -liquid ]
p1052
sbsg22
V[ -liquid ] ---> k^y / [  ] _ [ +vowel -back ]
p1053
sba(irule
Rule
p1054
(dp1055
g15
(irule
Guard
p1056
(dp1057
g18
I00
sg19
(lp1058
sg21
I00
sg22
V
sg23
I00
sg24
S'L'
sbsg25
(irule
ConstantPhoneme
p1059
(dp1060
S'p'
g244
sbsg29
(irule
Guard
p1061
(dp1062
g18
I00
sg19
(lp1063
(irule
FeatureMatrix
p1064
(dp1065
g35
(lp1066
(I00
g251
tp1067
a(I01
g253
tp1068
asg22
V[ +vowel -back ]
p1069
sbasg21
I00
sg22
g1069
sg23
I00
sg24
S'R'
sbsg42
(irule
FeatureMatrix
p1070
(dp1071
g35
(lp1072
(I00
S'lateral'
p1073
tp1074
a(I00
g672
tp1075
asg22
V[ -lateral -palletized ]
p1076
sbsg22
V[ -lateral -palletized ] ---> k^y /  _ [ +vowel -back ]
p1077
sba(irule
Rule
p1078
(dp1079
g15
(irule
Guard
p1080
(dp1081
g18
I00
sg19
(lp1082
(irule
FeatureMatrix
p1083
(dp1084
g35
(lp1085
(I00
g253
tp1086
asg22
V[ -vowel ]
p1087
sba(irule
FeatureMatrix
p1088
(dp1089
g35
(lp1090
(I01
g253
tp1091
asg22
V[ +vowel ]
p1092
sbasg21
I00
sg22
V[ +vowel ] [ -vowel ]*
p1093
sg23
I01
sg24
S'L'
sbsg25
(irule
ConstantPhoneme
p1094
(dp1095
S'p'
g244
sbsg29
(irule
Guard
p1096
(dp1097
g18
I00
sg19
(lp1098
(irule
FeatureMatrix
p1099
(dp1100
g35
(lp1101
(I00
g251
tp1102
a(I01
g253
tp1103
asg22
V[ +vowel -back ]
p1104
sbasg21
I00
sg22
g1104
sg23
I00
sg24
S'R'
sbsg42
(irule
FeatureMatrix
p1105
(dp1106
g35
(lp1107
(I00
g672
tp1108
asg22
V[ -palletized ]
p1109
sbsg22
V[ -palletized ] ---> k^y / [ +vowel ] [ -vowel ]* _ [ +vowel -back ]
p1110
sba(irule
Rule
p1111
(dp1112
g15
(irule
Guard
p1113
(dp1114
g18
I00
sg19
(lp1115
sg21
I00
sg22
V
sg23
I00
sg24
S'L'
sbsg25
(irule
ConstantPhoneme
p1116
(dp1117
S'p'
g244
sbsg29
(irule
Guard
p1118
(dp1119
g18
I00
sg19
(lp1120
(irule
FeatureMatrix
p1121
(dp1122
g35
(lp1123
(I00
g251
tp1124
a(I01
g253
tp1125
asg22
V[ +vowel -back ]
p1126
sbasg21
I00
sg22
g1126
sg23
I00
sg24
S'R'
sbsg42
(irule
FeatureMatrix
p1127
(dp1128
g35
(lp1129
(I00
g282
tp1130
a(I00
S'low'
p1131
tp1132
asg22
V[ -low -sonorant ]
p1133
sbsg22
V[ -low -sonorant ] ---> k^y /  _ [ +vowel -back ]
p1134
sba(irule
Rule
p1135
(dp1136
g15
(irule
Guard
p1137
(dp1138
g18
I00
sg19
(lp1139
sg21
I00
sg22
V
sg23
I00
sg24
S'L'
sbsg25
(irule
ConstantPhoneme
p1140
(dp1141
S'p'
g244
sbsg29
(irule
Guard
p1142
(dp1143
g18
I00
sg19
(lp1144
(irule
FeatureMatrix
p1145
(dp1146
g35
(lp1147
(I00
g251
tp1148
a(I01
g253
tp1149
asg22
V[ +vowel -back ]
p1150
sbasg21
I00
sg22
g1150
sg23
I00
sg24
S'R'
sbsg42
(irule
FeatureMatrix
p1151
(dp1152
g35
(lp1153
(I00
g337
tp1154
a(I00
g259
tp1155
asg22
V[ -liquid -voice ]
p1156
sbsg22
V[ -liquid -voice ] ---> k^y /  _ [ +vowel -back ]
p1157
sba(irule
Rule
p1158
(dp1159
g15
(irule
Guard
p1160
(dp1161
g18
I00
sg19
(lp1162
(irule
FeatureMatrix
p1163
(dp1164
g35
(lp1165
(I00
g253
tp1166
asg22
V[ -vowel ]
p1167
sba(irule
FeatureMatrix
p1168
(dp1169
g35
(lp1170
(I01
g253
tp1171
asg22
V[ +vowel ]
p1172
sbasg21
I00
sg22
V[ +vowel ] [ -vowel ]*
p1173
sg23
I01
sg24
S'L'
sbsg25
(irule
ConstantPhoneme
p1174
(dp1175
S'p'
g244
sbsg29
(irule
Guard
p1176
(dp1177
g18
I00
sg19
(lp1178
(irule
FeatureMatrix
p1179
(dp1180
g35
(lp1181
(I00
g251
tp1182
a(I01
g253
tp1183
asg22
V[ +vowel -back ]
p1184
sbasg21
I00
sg22
g1184
sg23
I00
sg24
S'R'
sbsg42
(irule
FeatureMatrix
p1185
(dp1186
g35
(lp1187
(I00
g337
tp1188
asg22
V[ -liquid ]
p1189
sbsg22
V[ -liquid ] ---> k^y / [ +vowel ] [ -vowel ]* _ [ +vowel -back ]
p1190
sba(irule
Rule
p1191
(dp1192
g15
(irule
Guard
p1193
(dp1194
g18
I00
sg19
(lp1195
(irule
FeatureMatrix
p1196
(dp1197
g35
(lp1198
(I00
g253
tp1199
asg22
V[ -vowel ]
p1200
sba(irule
FeatureMatrix
p1201
(dp1202
g35
(lp1203
(I01
g253
tp1204
asg22
V[ +vowel ]
p1205
sbasg21
I00
sg22
V[ +vowel ] [ -vowel ]*
p1206
sg23
I01
sg24
S'L'
sbsg25
(irule
ConstantPhoneme
p1207
(dp1208
S'p'
g244
sbsg29
(irule
Guard
p1209
(dp1210
g18
I00
sg19
(lp1211
(irule
FeatureMatrix
p1212
(dp1213
g35
(lp1214
(I00
g251
tp1215
a(I01
g253
tp1216
asg22
V[ +vowel -back ]
p1217
sbasg21
I00
sg22
g1217
sg23
I00
sg24
S'R'
sbsg42
(irule
FeatureMatrix
p1218
(dp1219
g35
(lp1220
(I00
g774
tp1221
asg22
V[ -tense ]
p1222
sbsg22
V[ -tense ] ---> k^y / [ +vowel ] [ -vowel ]* _ [ +vowel -back ]
p1223
sba(irule
Rule
p1224
(dp1225
g15
(irule
Guard
p1226
(dp1227
g18
I00
sg19
(lp1228
(irule
FeatureMatrix
p1229
(dp1230
g35
(lp1231
(I00
g253
tp1232
asg22
V[ -vowel ]
p1233
sba(irule
FeatureMatrix
p1234
(dp1235
g35
(lp1236
(I01
g253
tp1237
asg22
V[ +vowel ]
p1238
sbasg21
I00
sg22
V[ +vowel ] [ -vowel ]*
p1239
sg23
I01
sg24
S'L'
sbsg25
(irule
ConstantPhoneme
p1240
(dp1241
S'p'
g244
sbsg29
(irule
Guard
p1242
(dp1243
g18
I00
sg19
(lp1244
(irule
FeatureMatrix
p1245
(dp1246
g35
(lp1247
(I00
g251
tp1248
a(I01
g253
tp1249
asg22
V[ +vowel -back ]
p1250
sbasg21
I00
sg22
g1250
sg23
I00
sg24
S'R'
sbsg42
(irule
FeatureMatrix
p1251
(dp1252
g35
(lp1253
(I00
g1131
tp1254
asg22
V[ -low ]
p1255
sbsg22
V[ -low ] ---> k^y / [ +vowel ] [ -vowel ]* _ [ +vowel -back ]
p1256
sba(irule
Rule
p1257
(dp1258
g15
(irule
Guard
p1259
(dp1260
g18
I00
sg19
(lp1261
(irule
FeatureMatrix
p1262
(dp1263
g35
(lp1264
(I00
g253
tp1265
asg22
V[ -vowel ]
p1266
sba(irule
FeatureMatrix
p1267
(dp1268
g35
(lp1269
(I01
g253
tp1270
asg22
V[ +vowel ]
p1271
sbasg21
I00
sg22
V[ +vowel ] [ -vowel ]*
p1272
sg23
I01
sg24
S'L'
sbsg25
(irule
ConstantPhoneme
p1273
(dp1274
S'p'
g244
sbsg29
(irule
Guard
p1275
(dp1276
g18
I00
sg19
(lp1277
(irule
FeatureMatrix
p1278
(dp1279
g35
(lp1280
(I00
g251
tp1281
a(I01
g253
tp1282
asg22
V[ +vowel -back ]
p1283
sbasg21
I00
sg22
g1283
sg23
I00
sg24
S'R'
sbsg42
(irule
FeatureMatrix
p1284
(dp1285
g35
(lp1286
(I00
S'nasal'
p1287
tp1288
asg22
V[ -nasal ]
p1289
sbsg22
V[ -nasal ] ---> k^y / [ +vowel ] [ -vowel ]* _ [ +vowel -back ]
p1290
sba(irule
Rule
p1291
(dp1292
g15
(irule
Guard
p1293
(dp1294
g18
I00
sg19
(lp1295
sg21
I00
sg22
V
sg23
I00
sg24
S'L'
sbsg25
(irule
ConstantPhoneme
p1296
(dp1297
S'p'
g244
sbsg29
(irule
Guard
p1298
(dp1299
g18
I00
sg19
(lp1300
(irule
FeatureMatrix
p1301
(dp1302
g35
(lp1303
(I00
g251
tp1304
a(I01
g253
tp1305
asg22
V[ +vowel -back ]
p1306
sbasg21
I00
sg22
g1306
sg23
I00
sg24
S'R'
sbsg42
(irule
FeatureMatrix
p1307
(dp1308
g35
(lp1309
(I00
g774
tp1310
a(I00
g259
tp1311
asg22
V[ -tense -voice ]
p1312
sbsg22
V[ -tense -voice ] ---> k^y /  _ [ +vowel -back ]
p1313
sba(irule
Rule
p1314
(dp1315
g15
(irule
Guard
p1316
(dp1317
g18
I00
sg19
(lp1318
(irule
FeatureMatrix
p1319
(dp1320
g35
(lp1321
(I00
g253
tp1322
asg22
V[ -vowel ]
p1323
sba(irule
FeatureMatrix
p1324
(dp1325
g35
(lp1326
(I01
g253
tp1327
asg22
V[ +vowel ]
p1328
sbasg21
I00
sg22
V[ +vowel ] [ -vowel ]*
p1329
sg23
I01
sg24
S'L'
sbsg25
(irule
ConstantPhoneme
p1330
(dp1331
S'p'
g244
sbsg29
(irule
Guard
p1332
(dp1333
g18
I00
sg19
(lp1334
(irule
FeatureMatrix
p1335
(dp1336
g35
(lp1337
(I00
g251
tp1338
a(I01
g253
tp1339
asg22
V[ +vowel -back ]
p1340
sbasg21
I00
sg22
g1340
sg23
I00
sg24
S'R'
sbsg42
(irule
FeatureMatrix
p1341
(dp1342
g35
(lp1343
(I00
S'glide'
p1344
tp1345
asg22
V[ -glide ]
p1346
sbsg22
V[ -glide ] ---> k^y / [ +vowel ] [ -vowel ]* _ [ +vowel -back ]
p1347
sba(irule
Rule
p1348
(dp1349
g15
(irule
Guard
p1350
(dp1351
g18
I00
sg19
(lp1352
sg21
I00
sg22
V
sg23
I00
sg24
S'L'
sbsg25
(irule
ConstantPhoneme
p1353
(dp1354
S'p'
g244
sbsg29
(irule
Guard
p1355
(dp1356
g18
I01
sg19
(lp1357
(irule
FeatureMatrix
p1358
(dp1359
g35
(lp1360
(I01
g633
tp1361
asg22
V[ +high ]
p1362
sbasg21
I00
sg22
V[ +high ] #
p1363
sg23
I00
sg24
S'R'
sbsg42
(irule
FeatureMatrix
p1364
(dp1365
g35
(lp1366
(I00
g282
tp1367
asg22
V[ -sonorant ]
p1368
sbsg22
V[ -sonorant ] ---> k^y /  _ [ +high ] #
p1369
sba(irule
Rule
p1370
(dp1371
g15
(irule
Guard
p1372
(dp1373
g18
I00
sg19
(lp1374
sg21
I00
sg22
V
sg23
I00
sg24
S'L'
sbsg25
(irule
ConstantPhoneme
p1375
(dp1376
S'p'
g244
sbsg29
(irule
Guard
p1377
(dp1378
g18
I00
sg19
(lp1379
(irule
FeatureMatrix
p1380
(dp1381
g35
(lp1382
(I00
g251
tp1383
a(I01
g253
tp1384
asg22
V[ +vowel -back ]
p1385
sbasg21
I00
sg22
g1385
sg23
I00
sg24
S'R'
sbsg42
(irule
FeatureMatrix
p1386
(dp1387
g35
(lp1388
(I00
g337
tp1389
a(I00
g991
tp1390
asg22
V[ -liquid -sibilant ]
p1391
sbsg22
V[ -liquid -sibilant ] ---> k^y /  _ [ +vowel -back ]
p1392
sba(irule
Rule
p1393
(dp1394
g15
(irule
Guard
p1395
(dp1396
g18
I00
sg19
(lp1397
sg21
I00
sg22
V
sg23
I00
sg24
S'L'
sbsg25
(irule
ConstantPhoneme
p1398
(dp1399
S'p'
g244
sbsg29
(irule
Guard
p1400
(dp1401
g18
I00
sg19
(lp1402
(irule
FeatureMatrix
p1403
(dp1404
g35
(lp1405
(I00
g251
tp1406
a(I01
g253
tp1407
asg22
V[ +vowel -back ]
p1408
sbasg21
I00
sg22
g1408
sg23
I00
sg24
S'R'
sbsg42
(irule
FeatureMatrix
p1409
(dp1410
g35
(lp1411
(I00
g337
tp1412
a(I00
g672
tp1413
asg22
V[ -liquid -palletized ]
p1414
sbsg22
V[ -liquid -palletized ] ---> k^y /  _ [ +vowel -back ]
p1415
sba(irule
Rule
p1416
(dp1417
g15
(irule
Guard
p1418
(dp1419
g18
I00
sg19
(lp1420
sg21
I00
sg22
V
sg23
I00
sg24
S'L'
sbsg25
(irule
ConstantPhoneme
p1421
(dp1422
S'p'
g244
sbsg29
(irule
Guard
p1423
(dp1424
g18
I00
sg19
(lp1425
(irule
FeatureMatrix
p1426
(dp1427
g35
(lp1428
(I00
g251
tp1429
a(I01
g253
tp1430
asg22
V[ +vowel -back ]
p1431
sbasg21
I00
sg22
g1431
sg23
I00
sg24
S'R'
sbsg42
(irule
FeatureMatrix
p1432
(dp1433
g35
(lp1434
(I00
g991
tp1435
a(I00
g259
tp1436
asg22
V[ -sibilant -voice ]
p1437
sbsg22
V[ -sibilant -voice ] ---> k^y /  _ [ +vowel -back ]
p1438
sba(irule
Rule
p1439
(dp1440
g15
(irule
Guard
p1441
(dp1442
g18
I00
sg19
(lp1443
(irule
FeatureMatrix
p1444
(dp1445
g35
(lp1446
sg22
V[  ]
p1447
sba(irule
FeatureMatrix
p1448
(dp1449
g35
(lp1450
sg22
V[  ]
p1451
sbasg21
I00
sg22
V[  ] [  ]
p1452
sg23
I00
sg24
S'L'
sbsg25
(irule
ConstantPhoneme
p1453
(dp1454
S'p'
g244
sbsg29
(irule
Guard
p1455
(dp1456
g18
I00
sg19
(lp1457
(irule
FeatureMatrix
p1458
(dp1459
g35
(lp1460
(I00
g251
tp1461
a(I01
g253
tp1462
asg22
V[ +vowel -back ]
p1463
sbasg21
I00
sg22
g1463
sg23
I00
sg24
S'R'
sbsg42
(irule
FeatureMatrix
p1464
(dp1465
g35
(lp1466
(I00
g282
tp1467
asg22
V[ -sonorant ]
p1468
sbsg22
V[ -sonorant ] ---> k^y / [  ] [  ] _ [ +vowel -back ]
p1469
sba(irule
Rule
p1470
(dp1471
g15
(irule
Guard
p1472
(dp1473
g18
I00
sg19
(lp1474
sg21
I00
sg22
V
sg23
I00
sg24
S'L'
sbsg25
(irule
ConstantPhoneme
p1475
(dp1476
S'p'
g244
sbsg29
(irule
Guard
p1477
(dp1478
g18
I01
sg19
(lp1479
(irule
FeatureMatrix
p1480
(dp1481
g35
(lp1482
(I00
g251
tp1483
a(I01
g253
tp1484
asg22
V[ +vowel -back ]
p1485
sbasg21
I00
sg22
V[ +vowel -back ] #
p1486
sg23
I00
sg24
S'R'
sbsg42
(irule
FeatureMatrix
p1487
(dp1488
g35
(lp1489
(I00
g991
tp1490
asg22
V[ -sibilant ]
p1491
sbsg22
V[ -sibilant ] ---> k^y /  _ [ +vowel -back ] #
p1492
sba(irule
Rule
p1493
(dp1494
g15
(irule
Guard
p1495
(dp1496
g18
I00
sg19
(lp1497
sg21
I00
sg22
V
sg23
I00
sg24
S'L'
sbsg25
(irule
ConstantPhoneme
p1498
(dp1499
S'p'
g244
sbsg29
(irule
Guard
p1500
(dp1501
g18
I00
sg19
(lp1502
(irule
FeatureMatrix
p1503
(dp1504
g35
(lp1505
(I00
g251
tp1506
a(I01
g253
tp1507
asg22
V[ +vowel -back ]
p1508
sbasg21
I00
sg22
g1508
sg23
I00
sg24
S'R'
sbsg42
(irule
FeatureMatrix
p1509
(dp1510
g35
(lp1511
(I00
g337
tp1512
a(I00
g774
tp1513
asg22
V[ -liquid -tense ]
p1514
sbsg22
V[ -liquid -tense ] ---> k^y /  _ [ +vowel -back ]
p1515
sba(irule
Rule
p1516
(dp1517
g15
(irule
Guard
p1518
(dp1519
g18
I00
sg19
(lp1520
(irule
FeatureMatrix
p1521
(dp1522
g35
(lp1523
(I00
g253
tp1524
asg22
V[ -vowel ]
p1525
sba(irule
FeatureMatrix
p1526
(dp1527
g35
(lp1528
(I01
g253
tp1529
asg22
V[ +vowel ]
p1530
sbasg21
I00
sg22
V[ +vowel ] [ -vowel ]*
p1531
sg23
I01
sg24
S'L'
sbsg25
(irule
ConstantPhoneme
p1532
(dp1533
S'p'
g244
sbsg29
(irule
Guard
p1534
(dp1535
g18
I01
sg19
(lp1536
(irule
FeatureMatrix
p1537
(dp1538
g35
(lp1539
(I00
g251
tp1540
a(I01
g253
tp1541
asg22
V[ +vowel -back ]
p1542
sbasg21
I00
sg22
V[ +vowel -back ] #
p1543
sg23
I00
sg24
S'R'
sbsg42
(irule
FeatureMatrix
p1544
(dp1545
g35
(lp1546
sg22
V[  ]
p1547
sbsg22
V[  ] ---> k^y / [ +vowel ] [ -vowel ]* _ [ +vowel -back ] #
p1548
sba(irule
Rule
p1549
(dp1550
g15
(irule
Guard
p1551
(dp1552
g18
I00
sg19
(lp1553
(irule
FeatureMatrix
p1554
(dp1555
g35
(lp1556
sg22
V[  ]
p1557
sbasg21
I00
sg22
g1557
sg23
I00
sg24
S'L'
sbsg25
(irule
ConstantPhoneme
p1558
(dp1559
S'p'
g244
sbsg29
(irule
Guard
p1560
(dp1561
g18
I01
sg19
(lp1562
(irule
FeatureMatrix
p1563
(dp1564
g35
(lp1565
(I00
g251
tp1566
a(I01
g253
tp1567
asg22
V[ +vowel -back ]
p1568
sbasg21
I00
sg22
V[ +vowel -back ] #
p1569
sg23
I00
sg24
S'R'
sbsg42
(irule
FeatureMatrix
p1570
(dp1571
g35
(lp1572
(I00
g259
tp1573
asg22
V[ -voice ]
p1574
sbsg22
V[ -voice ] ---> k^y / [  ] _ [ +vowel -back ] #
p1575
sba(irule
Rule
p1576
(dp1577
g15
(irule
Guard
p1578
(dp1579
g18
I00
sg19
(lp1580
sg21
I00
sg22
V
sg23
I00
sg24
S'L'
sbsg25
(irule
ConstantPhoneme
p1581
(dp1582
S'p'
g244
sbsg29
(irule
Guard
p1583
(dp1584
g18
I01
sg19
(lp1585
(irule
FeatureMatrix
p1586
(dp1587
g35
(lp1588
(I00
g251
tp1589
a(I01
g253
tp1590
asg22
V[ +vowel -back ]
p1591
sbasg21
I00
sg22
V[ +vowel -back ] #
p1592
sg23
I00
sg24
S'R'
sbsg42
(irule
FeatureMatrix
p1593
(dp1594
g35
(lp1595
(I00
g672
tp1596
asg22
V[ -palletized ]
p1597
sbsg22
V[ -palletized ] ---> k^y /  _ [ +vowel -back ] #
p1598
sba(irule
Rule
p1599
(dp1600
g15
(irule
Guard
p1601
(dp1602
g18
I00
sg19
(lp1603
sg21
I00
sg22
V
sg23
I00
sg24
S'L'
sbsg25
(irule
ConstantPhoneme
p1604
(dp1605
S'p'
g244
sbsg29
(irule
Guard
p1606
(dp1607
g18
I00
sg19
(lp1608
(irule
FeatureMatrix
p1609
(dp1610
g35
(lp1611
(I00
g251
tp1612
a(I01
g253
tp1613
asg22
V[ +vowel -back ]
p1614
sbasg21
I00
sg22
g1614
sg23
I00
sg24
S'R'
sbsg42
(irule
FeatureMatrix
p1615
(dp1616
g35
(lp1617
(I00
g1287
tp1618
a(I00
g282
tp1619
asg22
V[ -nasal -sonorant ]
p1620
sbsg22
V[ -nasal -sonorant ] ---> k^y /  _ [ +vowel -back ]
p1621
sba(irule
Rule
p1622
(dp1623
g15
(irule
Guard
p1624
(dp1625
g18
I00
sg19
(lp1626
(irule
FeatureMatrix
p1627
(dp1628
g35
(lp1629
sg22
V[  ]
p1630
sbasg21
I00
sg22
g1630
sg23
I00
sg24
S'L'
sbsg25
(irule
ConstantPhoneme
p1631
(dp1632
S'p'
g244
sbsg29
(irule
Guard
p1633
(dp1634
g18
I01
sg19
(lp1635
(irule
FeatureMatrix
p1636
(dp1637
g35
(lp1638
(I00
g251
tp1639
a(I01
g253
tp1640
asg22
V[ +vowel -back ]
p1641
sbasg21
I00
sg22
V[ +vowel -back ] #
p1642
sg23
I00
sg24
S'R'
sbsg42
(irule
FeatureMatrix
p1643
(dp1644
g35
(lp1645
sg22
V[  ]
p1646
sbsg22
V[  ] ---> k^y / [  ] _ [ +vowel -back ] #
p1647
sba(irule
Rule
p1648
(dp1649
g15
(irule
Guard
p1650
(dp1651
g18
I00
sg19
(lp1652
sg21
I00
sg22
V
sg23
I00
sg24
S'L'
sbsg25
(irule
ConstantPhoneme
p1653
(dp1654
S'p'
g244
sbsg29
(irule
Guard
p1655
(dp1656
g18
I01
sg19
(lp1657
(irule
FeatureMatrix
p1658
(dp1659
g35
(lp1660
(I01
g633
tp1661
asg22
V[ +high ]
p1662
sbasg21
I00
sg22
V[ +high ] #
p1663
sg23
I00
sg24
S'R'
sbsg42
(irule
FeatureMatrix
p1664
(dp1665
g35
(lp1666
(I00
g259
tp1667
asg22
V[ -voice ]
p1668
sbsg22
V[ -voice ] ---> k^y /  _ [ +high ] #
p1669
sba(irule
Rule
p1670
(dp1671
g15
(irule
Guard
p1672
(dp1673
g18
I00
sg19
(lp1674
sg21
I00
sg22
V
sg23
I00
sg24
S'L'
sbsg25
(irule
ConstantPhoneme
p1675
(dp1676
S'p'
g244
sbsg29
(irule
Guard
p1677
(dp1678
g18
I00
sg19
(lp1679
(irule
FeatureMatrix
p1680
(dp1681
g35
(lp1682
(I00
g251
tp1683
a(I01
g253
tp1684
asg22
V[ +vowel -back ]
p1685
sbasg21
I00
sg22
g1685
sg23
I00
sg24
S'R'
sbsg42
(irule
FeatureMatrix
p1686
(dp1687
g35
(lp1688
(I00
g282
tp1689
a(I00
g253
tp1690
asg22
V[ -sonorant -vowel ]
p1691
sbsg22
V[ -sonorant -vowel ] ---> k^y /  _ [ +vowel -back ]
p1692
sba(irule
Rule
p1693
(dp1694
g15
(irule
Guard
p1695
(dp1696
g18
I00
sg19
(lp1697
(irule
FeatureMatrix
p1698
(dp1699
g35
(lp1700
(I00
g253
tp1701
asg22
V[ -vowel ]
p1702
sba(irule
FeatureMatrix
p1703
(dp1704
g35
(lp1705
(I01
g253
tp1706
asg22
V[ +vowel ]
p1707
sbasg21
I00
sg22
V[ +vowel ] [ -vowel ]*
p1708
sg23
I01
sg24
S'L'
sbsg25
(irule
ConstantPhoneme
p1709
(dp1710
S'p'
g244
sbsg29
(irule
Guard
p1711
(dp1712
g18
I00
sg19
(lp1713
(irule
FeatureMatrix
p1714
(dp1715
g35
(lp1716
(I00
g251
tp1717
a(I01
g253
tp1718
asg22
V[ +vowel -back ]
p1719
sbasg21
I00
sg22
g1719
sg23
I00
sg24
S'R'
sbsg42
(irule
FeatureMatrix
p1720
(dp1721
g35
(lp1722
(I00
S'rounded'
p1723
tp1724
asg22
V[ -rounded ]
p1725
sbsg22
V[ -rounded ] ---> k^y / [ +vowel ] [ -vowel ]* _ [ +vowel -back ]
p1726
sba(irule
Rule
p1727
(dp1728
g15
(irule
Guard
p1729
(dp1730
g18
I00
sg19
(lp1731
(irule
FeatureMatrix
p1732
(dp1733
g35
(lp1734
(I00
g253
tp1735
asg22
V[ -vowel ]
p1736
sba(irule
FeatureMatrix
p1737
(dp1738
g35
(lp1739
(I01
g253
tp1740
asg22
V[ +vowel ]
p1741
sbasg21
I00
sg22
V[ +vowel ] [ -vowel ]*
p1742
sg23
I01
sg24
S'L'
sbsg25
(irule
ConstantPhoneme
p1743
(dp1744
S'p'
g244
sbsg29
(irule
Guard
p1745
(dp1746
g18
I01
sg19
(lp1747
(irule
FeatureMatrix
p1748
(dp1749
g35
(lp1750
(I00
g251
tp1751
a(I01
g253
tp1752
asg22
V[ +vowel -back ]
p1753
sbasg21
I00
sg22
V[ +vowel -back ] #
p1754
sg23
I00
sg24
S'R'
sbsg42
(irule
FeatureMatrix
p1755
(dp1756
g35
(lp1757
(I00
g253
tp1758
asg22
V[ -vowel ]
p1759
sbsg22
V[ -vowel ] ---> k^y / [ +vowel ] [ -vowel ]* _ [ +vowel -back ] #
p1760
sba(irule
Rule
p1761
(dp1762
g15
(irule
Guard
p1763
(dp1764
g18
I00
sg19
(lp1765
sg21
I00
sg22
V
sg23
I00
sg24
S'L'
sbsg25
(irule
ConstantPhoneme
p1766
(dp1767
S'p'
g244
sbsg29
(irule
Guard
p1768
(dp1769
g18
I01
sg19
(lp1770
(irule
FeatureMatrix
p1771
(dp1772
g35
(lp1773
(I01
g633
tp1774
asg22
V[ +high ]
p1775
sbasg21
I00
sg22
V[ +high ] #
p1776
sg23
I00
sg24
S'R'
sbsg42
(irule
FeatureMatrix
p1777
(dp1778
g35
(lp1779
(I00
g253
tp1780
asg22
V[ -vowel ]
p1781
sbsg22
V[ -vowel ] ---> k^y /  _ [ +high ] #
p1782
sba(irule
Rule
p1783
(dp1784
g15
(irule
Guard
p1785
(dp1786
g18
I00
sg19
(lp1787
(irule
FeatureMatrix
p1788
(dp1789
g35
(lp1790
(I00
g253
tp1791
asg22
V[ -vowel ]
p1792
sba(irule
FeatureMatrix
p1793
(dp1794
g35
(lp1795
(I01
g253
tp1796
asg22
V[ +vowel ]
p1797
sbasg21
I00
sg22
V[ +vowel ] [ -vowel ]*
p1798
sg23
I01
sg24
S'L'
sbsg25
(irule
ConstantPhoneme
p1799
(dp1800
S'p'
g244
sbsg29
(irule
Guard
p1801
(dp1802
g18
I01
sg19
(lp1803
(irule
FeatureMatrix
p1804
(dp1805
g35
(lp1806
(I00
g251
tp1807
a(I01
g253
tp1808
asg22
V[ +vowel -back ]
p1809
sbasg21
I00
sg22
V[ +vowel -back ] #
p1810
sg23
I00
sg24
S'R'
sbsg42
(irule
FeatureMatrix
p1811
(dp1812
g35
(lp1813
(I00
g282
tp1814
asg22
V[ -sonorant ]
p1815
sbsg22
V[ -sonorant ] ---> k^y / [ +vowel ] [ -vowel ]* _ [ +vowel -back ] #
p1816
sba(irule
Rule
p1817
(dp1818
g15
(irule
Guard
p1819
(dp1820
g18
I00
sg19
(lp1821
sg21
I00
sg22
V
sg23
I00
sg24
S'L'
sbsg25
(irule
ConstantPhoneme
p1822
(dp1823
S'p'
g244
sbsg29
(irule
Guard
p1824
(dp1825
g18
I01
sg19
(lp1826
(irule
FeatureMatrix
p1827
(dp1828
g35
(lp1829
(I00
g251
tp1830
a(I01
g253
tp1831
asg22
V[ +vowel -back ]
p1832
sbasg21
I00
sg22
V[ +vowel -back ] #
p1833
sg23
I00
sg24
S'R'
sbsg42
(irule
FeatureMatrix
p1834
(dp1835
g35
(lp1836
(I00
g337
tp1837
asg22
V[ -liquid ]
p1838
sbsg22
V[ -liquid ] ---> k^y /  _ [ +vowel -back ] #
p1839
sba(irule
Rule
p1840
(dp1841
g15
(irule
Guard
p1842
(dp1843
g18
I00
sg19
(lp1844
sg21
I00
sg22
V
sg23
I00
sg24
S'L'
sbsg25
(irule
ConstantPhoneme
p1845
(dp1846
S'p'
g244
sbsg29
(irule
Guard
p1847
(dp1848
g18
I00
sg19
(lp1849
(irule
FeatureMatrix
p1850
(dp1851
g35
(lp1852
(I00
g251
tp1853
a(I01
g253
tp1854
asg22
V[ +vowel -back ]
p1855
sbasg21
I00
sg22
g1855
sg23
I00
sg24
S'R'
sbsg42
(irule
FeatureMatrix
p1856
(dp1857
g35
(lp1858
(I00
g253
tp1859
a(I00
g259
tp1860
asg22
V[ -voice -vowel ]
p1861
sbsg22
V[ -voice -vowel ] ---> k^y /  _ [ +vowel -back ]
p1862
sba(irule
Rule
p1863
(dp1864
g15
(irule
Guard
p1865
(dp1866
g18
I00
sg19
(lp1867
(irule
FeatureMatrix
p1868
(dp1869
g35
(lp1870
(I00
g253
tp1871
asg22
V[ -vowel ]
p1872
sba(irule
FeatureMatrix
p1873
(dp1874
g35
(lp1875
(I01
g253
tp1876
asg22
V[ +vowel ]
p1877
sbasg21
I00
sg22
V[ +vowel ] [ -vowel ]*
p1878
sg23
I01
sg24
S'L'
sbsg25
(irule
ConstantPhoneme
p1879
(dp1880
S'p'
g244
sbsg29
(irule
Guard
p1881
(dp1882
g18
I00
sg19
(lp1883
(irule
FeatureMatrix
p1884
(dp1885
g35
(lp1886
(I00
g251
tp1887
a(I01
g253
tp1888
asg22
V[ +vowel -back ]
p1889
sbasg21
I00
sg22
g1889
sg23
I00
sg24
S'R'
sbsg42
(irule
FeatureMatrix
p1890
(dp1891
g35
(lp1892
(I00
g1073
tp1893
asg22
V[ -lateral ]
p1894
sbsg22
V[ -lateral ] ---> k^y / [ +vowel ] [ -vowel ]* _ [ +vowel -back ]
p1895
sba(irule
Rule
p1896
(dp1897
g15
(irule
Guard
p1898
(dp1899
g18
I00
sg19
(lp1900
(irule
FeatureMatrix
p1901
(dp1902
g35
(lp1903
sg22
V[  ]
p1904
sba(irule
FeatureMatrix
p1905
(dp1906
g35
(lp1907
sg22
V[  ]
p1908
sbasg21
I00
sg22
V[  ] [  ]
p1909
sg23
I00
sg24
S'L'
sbsg25
(irule
ConstantPhoneme
p1910
(dp1911
S'p'
g244
sbsg29
(irule
Guard
p1912
(dp1913
g18
I00
sg19
(lp1914
(irule
FeatureMatrix
p1915
(dp1916
g35
(lp1917
(I00
g251
tp1918
a(I01
g253
tp1919
asg22
V[ +vowel -back ]
p1920
sbasg21
I00
sg22
g1920
sg23
I00
sg24
S'R'
sbsg42
(irule
FeatureMatrix
p1921
(dp1922
g35
(lp1923
(I00
g259
tp1924
asg22
V[ -voice ]
p1925
sbsg22
V[ -voice ] ---> k^y / [  ] [  ] _ [ +vowel -back ]
p1926
sba(irule
Rule
p1927
(dp1928
g15
(irule
Guard
p1929
(dp1930
g18
I00
sg19
(lp1931
sg21
I00
sg22
V
sg23
I00
sg24
S'L'
sbsg25
(irule
ConstantPhoneme
p1932
(dp1933
S'p'
g244
sbsg29
(irule
Guard
p1934
(dp1935
g18
I00
sg19
(lp1936
(irule
FeatureMatrix
p1937
(dp1938
g35
(lp1939
(I00
g251
tp1940
a(I01
g253
tp1941
asg22
V[ +vowel -back ]
p1942
sbasg21
I00
sg22
g1942
sg23
I00
sg24
S'R'
sbsg42
(irule
FeatureMatrix
p1943
(dp1944
g35
(lp1945
(I00
g672
tp1946
a(I00
g259
tp1947
asg22
V[ -palletized -voice ]
p1948
sbsg22
V[ -palletized -voice ] ---> k^y /  _ [ +vowel -back ]
p1949
sba(irule
Rule
p1950
(dp1951
g15
(irule
Guard
p1952
(dp1953
g18
I00
sg19
(lp1954
(irule
FeatureMatrix
p1955
(dp1956
g35
(lp1957
sg22
V[  ]
p1958
sba(irule
FeatureMatrix
p1959
(dp1960
g35
(lp1961
sg22
V[  ]
p1962
sbasg21
I00
sg22
V[  ] [  ]
p1963
sg23
I00
sg24
S'L'
sbsg25
(irule
ConstantPhoneme
p1964
(dp1965
S'p'
g244
sbsg29
(irule
Guard
p1966
(dp1967
g18
I00
sg19
(lp1968
(irule
FeatureMatrix
p1969
(dp1970
g35
(lp1971
(I00
g251
tp1972
a(I01
g253
tp1973
asg22
V[ +vowel -back ]
p1974
sbasg21
I00
sg22
g1974
sg23
I00
sg24
S'R'
sbsg42
(irule
FeatureMatrix
p1975
(dp1976
g35
(lp1977
(I00
g253
tp1978
asg22
V[ -vowel ]
p1979
sbsg22
V[ -vowel ] ---> k^y / [  ] [  ] _ [ +vowel -back ]
p1980
sba(irule
Rule
p1981
(dp1982
g15
(irule
Guard
p1983
(dp1984
g18
I00
sg19
(lp1985
sg21
I00
sg22
V
sg23
I00
sg24
S'L'
sbsg25
(irule
ConstantPhoneme
p1986
(dp1987
S'p'
g244
sbsg29
(irule
Guard
p1988
(dp1989
g18
I01
sg19
(lp1990
(irule
FeatureMatrix
p1991
(dp1992
g35
(lp1993
(I00
g251
tp1994
a(I01
g253
tp1995
asg22
V[ +vowel -back ]
p1996
sbasg21
I00
sg22
V[ +vowel -back ] #
p1997
sg23
I00
sg24
S'R'
sbsg42
(irule
FeatureMatrix
p1998
(dp1999
g35
(lp2000
(I00
g1287
tp2001
asg22
V[ -nasal ]
p2002
sbsg22
V[ -nasal ] ---> k^y /  _ [ +vowel -back ] #
p2003
sba(irule
Rule
p2004
(dp2005
g15
(irule
Guard
p2006
(dp2007
g18
I00
sg19
(lp2008
sg21
I00
sg22
V
sg23
I00
sg24
S'L'
sbsg25
(irule
ConstantPhoneme
p2009
(dp2010
S'p'
g244
sbsg29
(irule
Guard
p2011
(dp2012
g18
I00
sg19
(lp2013
(irule
FeatureMatrix
p2014
(dp2015
g35
(lp2016
(I00
g251
tp2017
a(I01
g253
tp2018
asg22
V[ +vowel -back ]
p2019
sbasg21
I00
sg22
g2019
sg23
I00
sg24
S'R'
sbsg42
(irule
FeatureMatrix
p2020
(dp2021
g35
(lp2022
(I00
g282
tp2023
a(I00
g774
tp2024
asg22
V[ -sonorant -tense ]
p2025
sbsg22
V[ -sonorant -tense ] ---> k^y /  _ [ +vowel -back ]
p2026
sba(irule
Rule
p2027
(dp2028
g15
(irule
Guard
p2029
(dp2030
g18
I00
sg19
(lp2031
(irule
FeatureMatrix
p2032
(dp2033
g35
(lp2034
(I00
g1131
tp2035
asg22
V[ -low ]
p2036
sbasg21
I00
sg22
g2036
sg23
I00
sg24
S'L'
sbsg25
(irule
ConstantPhoneme
p2037
(dp2038
S'p'
g244
sbsg29
(irule
Guard
p2039
(dp2040
g18
I00
sg19
(lp2041
(irule
FeatureMatrix
p2042
(dp2043
g35
(lp2044
(I00
g251
tp2045
a(I01
g253
tp2046
asg22
V[ +vowel -back ]
p2047
sbasg21
I00
sg22
g2047
sg23
I00
sg24
S'R'
sbsg42
(irule
FeatureMatrix
p2048
(dp2049
g35
(lp2050
(I00
g282
tp2051
asg22
V[ -sonorant ]
p2052
sbsg22
V[ -sonorant ] ---> k^y / [ -low ] _ [ +vowel -back ]
p2053
sba(irule
Rule
p2054
(dp2055
g15
(irule
Guard
p2056
(dp2057
g18
I00
sg19
(lp2058
(irule
FeatureMatrix
p2059
(dp2060
g35
(lp2061
(I00
g1131
tp2062
asg22
V[ -low ]
p2063
sbasg21
I00
sg22
g2063
sg23
I00
sg24
S'L'
sbsg25
(irule
ConstantPhoneme
p2064
(dp2065
S'p'
g244
sbsg29
(irule
Guard
p2066
(dp2067
g18
I00
sg19
(lp2068
(irule
FeatureMatrix
p2069
(dp2070
g35
(lp2071
(I00
g251
tp2072
a(I01
g253
tp2073
asg22
V[ +vowel -back ]
p2074
sbasg21
I00
sg22
g2074
sg23
I00
sg24
S'R'
sbsg42
(irule
FeatureMatrix
p2075
(dp2076
g35
(lp2077
(I00
g259
tp2078
asg22
V[ -voice ]
p2079
sbsg22
V[ -voice ] ---> k^y / [ -low ] _ [ +vowel -back ]
p2080
sba(irule
Rule
p2081
(dp2082
g15
(irule
Guard
p2083
(dp2084
g18
I00
sg19
(lp2085
(irule
FeatureMatrix
p2086
(dp2087
g35
(lp2088
(I00
g672
tp2089
asg22
V[ -palletized ]
p2090
sbasg21
I00
sg22
g2090
sg23
I00
sg24
S'L'
sbsg25
(irule
ConstantPhoneme
p2091
(dp2092
S'p'
g244
sbsg29
(irule
Guard
p2093
(dp2094
g18
I00
sg19
(lp2095
(irule
FeatureMatrix
p2096
(dp2097
g35
(lp2098
(I00
g251
tp2099
a(I01
g253
tp2100
asg22
V[ +vowel -back ]
p2101
sbasg21
I00
sg22
g2101
sg23
I00
sg24
S'R'
sbsg42
(irule
FeatureMatrix
p2102
(dp2103
g35
(lp2104
(I00
g282
tp2105
asg22
V[ -sonorant ]
p2106
sbsg22
V[ -sonorant ] ---> k^y / [ -palletized ] _ [ +vowel -back ]
p2107
sba(irule
Rule
p2108
(dp2109
g15
(irule
Guard
p2110
(dp2111
g18
I00
sg19
(lp2112
sg21
I00
sg22
V
sg23
I00
sg24
S'L'
sbsg25
(irule
ConstantPhoneme
p2113
(dp2114
S'p'
g244
sbsg29
(irule
Guard
p2115
(dp2116
g18
I00
sg19
(lp2117
(irule
FeatureMatrix
p2118
(dp2119
g35
(lp2120
(I00
g251
tp2121
a(I01
g253
tp2122
asg22
V[ +vowel -back ]
p2123
sbasg21
I00
sg22
g2123
sg23
I00
sg24
S'R'
sbsg42
(irule
FeatureMatrix
p2124
(dp2125
g35
(lp2126
(I00
g282
tp2127
a(I00
g259
tp2128
asg22
V[ -sonorant -voice ]
p2129
sbsg22
V[ -sonorant -voice ] ---> k^y /  _ [ +vowel -back ]
p2130
sba(irule
Rule
p2131
(dp2132
g15
(irule
Guard
p2133
(dp2134
g18
I00
sg19
(lp2135
sg21
I00
sg22
V
sg23
I00
sg24
S'L'
sbsg25
(irule
ConstantPhoneme
p2136
(dp2137
S'p'
g244
sbsg29
(irule
Guard
p2138
(dp2139
g18
I00
sg19
(lp2140
(irule
FeatureMatrix
p2141
(dp2142
g35
(lp2143
(I00
g251
tp2144
a(I01
g253
tp2145
asg22
V[ +vowel -back ]
p2146
sbasg21
I00
sg22
g2146
sg23
I00
sg24
S'R'
sbsg42
(irule
FeatureMatrix
p2147
(dp2148
g35
(lp2149
(I00
g1073
tp2150
a(I00
g282
tp2151
asg22
V[ -lateral -sonorant ]
p2152
sbsg22
V[ -lateral -sonorant ] ---> k^y /  _ [ +vowel -back ]
p2153
sba(irule
Rule
p2154
(dp2155
g15
(irule
Guard
p2156
(dp2157
g18
I00
sg19
(lp2158
sg21
I00
sg22
V
sg23
I00
sg24
S'L'
sbsg25
(irule
ConstantPhoneme
p2159
(dp2160
S'p'
g244
sbsg29
(irule
Guard
p2161
(dp2162
g18
I01
sg19
(lp2163
(irule
ConstantPhoneme
p2164
(dp2165
S'p'
Vi
sbasg21
I00
sg22
Vi #
p2166
sg23
I00
sg24
S'R'
sbsg42
(irule
FeatureMatrix
p2167
(dp2168
g35
(lp2169
(I00
g259
tp2170
asg22
V[ -voice ]
p2171
sbsg22
V[ -voice ] ---> k^y /  _ i #
p2172
sba(irule
Rule
p2173
(dp2174
g15
(irule
Guard
p2175
(dp2176
g18
I00
sg19
(lp2177
(irule
FeatureMatrix
p2178
(dp2179
g35
(lp2180
(I00
g253
tp2181
asg22
V[ -vowel ]
p2182
sba(irule
FeatureMatrix
p2183
(dp2184
g35
(lp2185
(I01
g253
tp2186
asg22
V[ +vowel ]
p2187
sbasg21
I00
sg22
V[ +vowel ] [ -vowel ]*
p2188
sg23
I01
sg24
S'L'
sbsg25
(irule
ConstantPhoneme
p2189
(dp2190
S'p'
g244
sbsg29
(irule
Guard
p2191
(dp2192
g18
I00
sg19
(lp2193
(irule
ConstantPhoneme
p2194
(dp2195
S'p'
Vi
sbasg21
I00
sg22
Vi
sg23
I00
sg24
S'R'
sbsg42
(irule
FeatureMatrix
p2196
(dp2197
g35
(lp2198
(I00
g253
tp2199
asg22
V[ -vowel ]
p2200
sbsg22
V[ -vowel ] ---> k^y / [ +vowel ] [ -vowel ]* _ i
p2201
sba(irule
Rule
p2202
(dp2203
g15
(irule
Guard
p2204
(dp2205
g18
I00
sg19
(lp2206
sg21
I00
sg22
V
sg23
I00
sg24
S'L'
sbsg25
(irule
ConstantPhoneme
p2207
(dp2208
S'p'
g244
sbsg29
(irule
Guard
p2209
(dp2210
g18
I00
sg19
(lp2211
(irule
FeatureMatrix
p2212
(dp2213
g35
(lp2214
(I00
g251
tp2215
a(I01
g253
tp2216
asg22
V[ +vowel -back ]
p2217
sbasg21
I00
sg22
g2217
sg23
I00
sg24
S'R'
sbsg42
(irule
FeatureMatrix
p2218
(dp2219
g35
(lp2220
(I00
g337
tp2221
a(I00
g1073
tp2222
asg22
V[ -lateral -liquid ]
p2223
sbsg22
V[ -lateral -liquid ] ---> k^y /  _ [ +vowel -back ]
p2224
sba(irule
Rule
p2225
(dp2226
g15
(irule
Guard
p2227
(dp2228
g18
I00
sg19
(lp2229
sg21
I00
sg22
V
sg23
I00
sg24
S'L'
sbsg25
(irule
ConstantPhoneme
p2230
(dp2231
S'p'
g244
sbsg29
(irule
Guard
p2232
(dp2233
g18
I01
sg19
(lp2234
(irule
FeatureMatrix
p2235
(dp2236
g35
(lp2237
(I00
g251
tp2238
a(I01
g253
tp2239
asg22
V[ +vowel -back ]
p2240
sbasg21
I00
sg22
V[ +vowel -back ] #
p2241
sg23
I00
sg24
S'R'
sbsg42
(irule
FeatureMatrix
p2242
(dp2243
g35
(lp2244
(I00
g1131
tp2245
asg22
V[ -low ]
p2246
sbsg22
V[ -low ] ---> k^y /  _ [ +vowel -back ] #
p2247
sba(irule
Rule
p2248
(dp2249
g15
(irule
Guard
p2250
(dp2251
g18
I00
sg19
(lp2252
sg21
I00
sg22
V
sg23
I00
sg24
S'L'
sbsg25
(irule
ConstantPhoneme
p2253
(dp2254
S'p'
g244
sbsg29
(irule
Guard
p2255
(dp2256
g18
I01
sg19
(lp2257
(irule
FeatureMatrix
p2258
(dp2259
g35
(lp2260
(I00
g251
tp2261
a(I01
g253
tp2262
asg22
V[ +vowel -back ]
p2263
sbasg21
I00
sg22
V[ +vowel -back ] #
p2264
sg23
I00
sg24
S'R'
sbsg42
(irule
FeatureMatrix
p2265
(dp2266
g35
(lp2267
(I00
g1073
tp2268
asg22
V[ -lateral ]
p2269
sbsg22
V[ -lateral ] ---> k^y /  _ [ +vowel -back ] #
p2270
sba(irule
Rule
p2271
(dp2272
g15
(irule
Guard
p2273
(dp2274
g18
I00
sg19
(lp2275
sg21
I00
sg22
V
sg23
I00
sg24
S'L'
sbsg25
(irule
ConstantPhoneme
p2276
(dp2277
S'p'
g244
sbsg29
(irule
Guard
p2278
(dp2279
g18
I00
sg19
(lp2280
(irule
FeatureMatrix
p2281
(dp2282
g35
(lp2283
(I00
g251
tp2284
a(I01
g253
tp2285
asg22
V[ +vowel -back ]
p2286
sbasg21
I00
sg22
g2286
sg23
I00
sg24
S'R'
sbsg42
(irule
FeatureMatrix
p2287
(dp2288
g35
(lp2289
(I00
g1131
tp2290
a(I00
g259
tp2291
asg22
V[ -low -voice ]
p2292
sbsg22
V[ -low -voice ] ---> k^y /  _ [ +vowel -back ]
p2293
sba(irule
Rule
p2294
(dp2295
g15
(irule
Guard
p2296
(dp2297
g18
I00
sg19
(lp2298
sg21
I00
sg22
V
sg23
I00
sg24
S'L'
sbsg25
(irule
ConstantPhoneme
p2299
(dp2300
S'p'
g244
sbsg29
(irule
Guard
p2301
(dp2302
g18
I00
sg19
(lp2303
(irule
FeatureMatrix
p2304
(dp2305
g35
(lp2306
(I00
g251
tp2307
a(I01
g253
tp2308
asg22
V[ +vowel -back ]
p2309
sbasg21
I00
sg22
g2309
sg23
I00
sg24
S'R'
sbsg42
(irule
FeatureMatrix
p2310
(dp2311
g35
(lp2312
(I00
g1344
tp2313
a(I00
g282
tp2314
asg22
V[ -glide -sonorant ]
p2315
sbsg22
V[ -glide -sonorant ] ---> k^y /  _ [ +vowel -back ]
p2316
sba(irule
Rule
p2317
(dp2318
g15
(irule
Guard
p2319
(dp2320
g18
I00
sg19
(lp2321
(irule
FeatureMatrix
p2322
(dp2323
g35
(lp2324
sg22
V[  ]
p2325
sbasg21
I00
sg22
g2325
sg23
I00
sg24
S'L'
sbsg25
(irule
ConstantPhoneme
p2326
(dp2327
S'p'
g244
sbsg29
(irule
Guard
p2328
(dp2329
g18
I00
sg19
(lp2330
(irule
ConstantPhoneme
p2331
(dp2332
S'p'
Vi
sbasg21
I00
sg22
Vi
sg23
I00
sg24
S'R'
sbsg42
(irule
FeatureMatrix
p2333
(dp2334
g35
(lp2335
(I00
g282
tp2336
asg22
V[ -sonorant ]
p2337
sbsg22
V[ -sonorant ] ---> k^y / [  ] _ i
p2338
sba(irule
Rule
p2339
(dp2340
g15
(irule
Guard
p2341
(dp2342
g18
I00
sg19
(lp2343
(irule
FeatureMatrix
p2344
(dp2345
g35
(lp2346
sg22
V[  ]
p2347
sbasg21
I00
sg22
g2347
sg23
I00
sg24
S'L'
sbsg25
(irule
ConstantPhoneme
p2348
(dp2349
S'p'
g244
sbsg29
(irule
Guard
p2350
(dp2351
g18
I00
sg19
(lp2352
(irule
ConstantPhoneme
p2353
(dp2354
S'p'
Vi
sbasg21
I00
sg22
Vi
sg23
I00
sg24
S'R'
sbsg42
(irule
FeatureMatrix
p2355
(dp2356
g35
(lp2357
(I00
g259
tp2358
asg22
V[ -voice ]
p2359
sbsg22
V[ -voice ] ---> k^y / [  ] _ i
p2360
sba(irule
Rule
p2361
(dp2362
g15
(irule
Guard
p2363
(dp2364
g18
I00
sg19
(lp2365
sg21
I00
sg22
V
sg23
I00
sg24
S'L'
sbsg25
(irule
ConstantPhoneme
p2366
(dp2367
S'p'
g244
sbsg29
(irule
Guard
p2368
(dp2369
g18
I00
sg19
(lp2370
(irule
FeatureMatrix
p2371
(dp2372
g35
(lp2373
(I00
g251
tp2374
a(I01
g253
tp2375
asg22
V[ +vowel -back ]
p2376
sbasg21
I00
sg22
g2376
sg23
I00
sg24
S'R'
sbsg42
(irule
FeatureMatrix
p2377
(dp2378
g35
(lp2379
(I00
g1344
tp2380
a(I00
g259
tp2381
asg22
V[ -glide -voice ]
p2382
sbsg22
V[ -glide -voice ] ---> k^y /  _ [ +vowel -back ]
p2383
sba(irule
Rule
p2384
(dp2385
g15
(irule
Guard
p2386
(dp2387
g18
I00
sg19
(lp2388
(irule
FeatureMatrix
p2389
(dp2390
g35
(lp2391
(I00
g672
tp2392
asg22
V[ -palletized ]
p2393
sbasg21
I00
sg22
g2393
sg23
I00
sg24
S'L'
sbsg25
(irule
ConstantPhoneme
p2394
(dp2395
S'p'
g244
sbsg29
(irule
Guard
p2396
(dp2397
g18
I00
sg19
(lp2398
(irule
FeatureMatrix
p2399
(dp2400
g35
(lp2401
(I00
g251
tp2402
a(I01
g253
tp2403
asg22
V[ +vowel -back ]
p2404
sbasg21
I00
sg22
g2404
sg23
I00
sg24
S'R'
sbsg42
(irule
FeatureMatrix
p2405
(dp2406
g35
(lp2407
(I00
g253
tp2408
asg22
V[ -vowel ]
p2409
sbsg22
V[ -vowel ] ---> k^y / [ -palletized ] _ [ +vowel -back ]
p2410
sba(irule
Rule
p2411
(dp2412
g15
(irule
Guard
p2413
(dp2414
g18
I00
sg19
(lp2415
sg21
I00
sg22
V
sg23
I00
sg24
S'L'
sbsg25
(irule
ConstantPhoneme
p2416
(dp2417
S'p'
g244
sbsg29
(irule
Guard
p2418
(dp2419
g18
I00
sg19
(lp2420
(irule
FeatureMatrix
p2421
(dp2422
g35
(lp2423
(I01
S'continuant'
tp2424
a(I00
g633
tp2425
asg22
V[ +continuant -high ]
p2426
sba(irule
FeatureMatrix
p2427
(dp2428
g35
(lp2429
(I00
g251
tp2430
a(I01
g253
tp2431
asg22
V[ +vowel -back ]
p2432
sbasg21
I00
sg22
V[ +continuant -high ]* [ +vowel -back ]
p2433
sg23
I01
sg24
S'R'
sbsg42
(irule
FeatureMatrix
p2434
(dp2435
g35
(lp2436
(I00
g259
tp2437
asg22
V[ -voice ]
p2438
sbsg22
V[ -voice ] ---> k^y /  _ [ +continuant -high ]* [ +vowel -back ]
p2439
sba(irule
Rule
p2440
(dp2441
g15
(irule
Guard
p2442
(dp2443
g18
I00
sg19
(lp2444
sg21
I00
sg22
V
sg23
I00
sg24
S'L'
sbsg25
(irule
ConstantPhoneme
p2445
(dp2446
S'p'
g244
sbsg29
(irule
Guard
p2447
(dp2448
g18
I01
sg19
(lp2449
(irule
FeatureMatrix
p2450
(dp2451
g35
(lp2452
(I00
g251
tp2453
a(I01
g253
tp2454
asg22
V[ +vowel -back ]
p2455
sbasg21
I00
sg22
V[ +vowel -back ] #
p2456
sg23
I00
sg24
S'R'
sbsg42
(irule
FeatureMatrix
p2457
(dp2458
g35
(lp2459
(I00
g1344
tp2460
asg22
V[ -glide ]
p2461
sbsg22
V[ -glide ] ---> k^y /  _ [ +vowel -back ] #
p2462
sba(irule
Rule
p2463
(dp2464
g15
(irule
Guard
p2465
(dp2466
g18
I00
sg19
(lp2467
(irule
FeatureMatrix
p2468
(dp2469
g35
(lp2470
(I00
g253
tp2471
asg22
V[ -vowel ]
p2472
sba(irule
FeatureMatrix
p2473
(dp2474
g35
(lp2475
(I01
g253
tp2476
asg22
V[ +vowel ]
p2477
sbasg21
I00
sg22
V[ +vowel ] [ -vowel ]*
p2478
sg23
I01
sg24
S'L'
sbsg25
(irule
ConstantPhoneme
p2479
(dp2480
S'p'
g244
sbsg29
(irule
Guard
p2481
(dp2482
g18
I00
sg19
(lp2483
(irule
ConstantPhoneme
p2484
(dp2485
S'p'
Vi
sbasg21
I00
sg22
Vi
sg23
I00
sg24
S'R'
sbsg42
(irule
FeatureMatrix
p2486
(dp2487
g35
(lp2488
(I00
g259
tp2489
asg22
V[ -voice ]
p2490
sbsg22
V[ -voice ] ---> k^y / [ +vowel ] [ -vowel ]* _ i
p2491
sba(irule
Rule
p2492
(dp2493
g15
(irule
Guard
p2494
(dp2495
g18
I00
sg19
(lp2496
sg21
I00
sg22
V
sg23
I00
sg24
S'L'
sbsg25
(irule
ConstantPhoneme
p2497
(dp2498
S'p'
g244
sbsg29
(irule
Guard
p2499
(dp2500
g18
I01
sg19
(lp2501
(irule
FeatureMatrix
p2502
(dp2503
g35
(lp2504
(I00
g251
tp2505
a(I01
g253
tp2506
asg22
V[ +vowel -back ]
p2507
sbasg21
I00
sg22
V[ +vowel -back ] #
p2508
sg23
I00
sg24
S'R'
sbsg42
(irule
FeatureMatrix
p2509
(dp2510
g35
(lp2511
(I00
g774
tp2512
asg22
V[ -tense ]
p2513
sbsg22
V[ -tense ] ---> k^y /  _ [ +vowel -back ] #
p2514
sba(irule
Rule
p2515
(dp2516
g15
(irule
Guard
p2517
(dp2518
g18
I00
sg19
(lp2519
(irule
FeatureMatrix
p2520
(dp2521
g35
(lp2522
sg22
V[  ]
p2523
sbasg21
I00
sg22
g2523
sg23
I00
sg24
S'L'
sbsg25
(irule
ConstantPhoneme
p2524
(dp2525
S'p'
g244
sbsg29
(irule
Guard
p2526
(dp2527
g18
I01
sg19
(lp2528
(irule
FeatureMatrix
p2529
(dp2530
g35
(lp2531
(I00
g251
tp2532
a(I01
g253
tp2533
asg22
V[ +vowel -back ]
p2534
sbasg21
I00
sg22
V[ +vowel -back ] #
p2535
sg23
I00
sg24
S'R'
sbsg42
(irule
FeatureMatrix
p2536
(dp2537
g35
(lp2538
(I00
g253
tp2539
asg22
V[ -vowel ]
p2540
sbsg22
V[ -vowel ] ---> k^y / [  ] _ [ +vowel -back ] #
p2541
sba(irule
Rule
p2542
(dp2543
g15
(irule
Guard
p2544
(dp2545
g18
I00
sg19
(lp2546
sg21
I00
sg22
V
sg23
I00
sg24
S'L'
sbsg25
(irule
ConstantPhoneme
p2547
(dp2548
S'p'
g244
sbsg29
(irule
Guard
p2549
(dp2550
g18
I00
sg19
(lp2551
(irule
FeatureMatrix
p2552
(dp2553
g35
(lp2554
(I00
g251
tp2555
a(I01
g253
tp2556
asg22
V[ +vowel -back ]
p2557
sbasg21
I00
sg22
g2557
sg23
I00
sg24
S'R'
sbsg42
(irule
FeatureMatrix
p2558
(dp2559
g35
(lp2560
(I00
g1723
tp2561
a(I00
g282
tp2562
asg22
V[ -rounded -sonorant ]
p2563
sbsg22
V[ -rounded -sonorant ] ---> k^y /  _ [ +vowel -back ]
p2564
sba(irule
Rule
p2565
(dp2566
g15
(irule
Guard
p2567
(dp2568
g18
I00
sg19
(lp2569
sg21
I00
sg22
V
sg23
I00
sg24
S'L'
sbsg25
(irule
ConstantPhoneme
p2570
(dp2571
S'p'
g244
sbsg29
(irule
Guard
p2572
(dp2573
g18
I01
sg19
(lp2574
(irule
FeatureMatrix
p2575
(dp2576
g35
(lp2577
(I00
g251
tp2578
a(I01
g253
tp2579
asg22
V[ +vowel -back ]
p2580
sbasg21
I00
sg22
V[ +vowel -back ] #
p2581
sg23
I00
sg24
S'R'
sbsg42
(irule
FeatureMatrix
p2582
(dp2583
g35
(lp2584
(I00
g1723
tp2585
asg22
V[ -rounded ]
p2586
sbsg22
V[ -rounded ] ---> k^y /  _ [ +vowel -back ] #
p2587
sba(irule
Rule
p2588
(dp2589
g15
(irule
Guard
p2590
(dp2591
g18
I00
sg19
(lp2592
(irule
FeatureMatrix
p2593
(dp2594
g35
(lp2595
(I00
g253
tp2596
asg22
V[ -vowel ]
p2597
sba(irule
FeatureMatrix
p2598
(dp2599
g35
(lp2600
(I01
g253
tp2601
asg22
V[ +vowel ]
p2602
sbasg21
I00
sg22
V[ +vowel ] [ -vowel ]*
p2603
sg23
I01
sg24
S'L'
sbsg25
(irule
ConstantPhoneme
p2604
(dp2605
S'p'
g244
sbsg29
(irule
Guard
p2606
(dp2607
g18
I01
sg19
(lp2608
(irule
FeatureMatrix
p2609
(dp2610
g35
(lp2611
(I00
g251
tp2612
a(I01
g253
tp2613
asg22
V[ +vowel -back ]
p2614
sbasg21
I00
sg22
V[ +vowel -back ] #
p2615
sg23
I00
sg24
S'R'
sbsg42
(irule
FeatureMatrix
p2616
(dp2617
g35
(lp2618
(I00
g259
tp2619
asg22
V[ -voice ]
p2620
sbsg22
V[ -voice ] ---> k^y / [ +vowel ] [ -vowel ]* _ [ +vowel -back ] #
p2621
sba(irule
Rule
p2622
(dp2623
g15
(irule
Guard
p2624
(dp2625
g18
I00
sg19
(lp2626
(irule
FeatureMatrix
p2627
(dp2628
g35
(lp2629
(I00
g672
tp2630
asg22
V[ -palletized ]
p2631
sbasg21
I00
sg22
g2631
sg23
I00
sg24
S'L'
sbsg25
(irule
ConstantPhoneme
p2632
(dp2633
S'p'
g244
sbsg29
(irule
Guard
p2634
(dp2635
g18
I00
sg19
(lp2636
(irule
FeatureMatrix
p2637
(dp2638
g35
(lp2639
(I00
g251
tp2640
a(I01
g253
tp2641
asg22
V[ +vowel -back ]
p2642
sbasg21
I00
sg22
g2642
sg23
I00
sg24
S'R'
sbsg42
(irule
FeatureMatrix
p2643
(dp2644
g35
(lp2645
(I00
g259
tp2646
asg22
V[ -voice ]
p2647
sbsg22
V[ -voice ] ---> k^y / [ -palletized ] _ [ +vowel -back ]
p2648
sba(irule
Rule
p2649
(dp2650
g15
(irule
Guard
p2651
(dp2652
g18
I00
sg19
(lp2653
(irule
FeatureMatrix
p2654
(dp2655
g35
(lp2656
(I00
g1287
tp2657
asg22
V[ -nasal ]
p2658
sbasg21
I00
sg22
g2658
sg23
I00
sg24
S'L'
sbsg25
(irule
ConstantPhoneme
p2659
(dp2660
S'p'
g244
sbsg29
(irule
Guard
p2661
(dp2662
g18
I00
sg19
(lp2663
(irule
FeatureMatrix
p2664
(dp2665
g35
(lp2666
(I00
g251
tp2667
a(I01
g253
tp2668
asg22
V[ +vowel -back ]
p2669
sbasg21
I00
sg22
g2669
sg23
I00
sg24
S'R'
sbsg42
(irule
FeatureMatrix
p2670
(dp2671
g35
(lp2672
(I00
g259
tp2673
asg22
V[ -voice ]
p2674
sbsg22
V[ -voice ] ---> k^y / [ -nasal ] _ [ +vowel -back ]
p2675
sba(irule
Rule
p2676
(dp2677
g15
(irule
Guard
p2678
(dp2679
g18
I00
sg19
(lp2680
(irule
FeatureMatrix
p2681
(dp2682
g35
(lp2683
(I00
g1073
tp2684
asg22
V[ -lateral ]
p2685
sbasg21
I00
sg22
g2685
sg23
I00
sg24
S'L'
sbsg25
(irule
ConstantPhoneme
p2686
(dp2687
S'p'
g244
sbsg29
(irule
Guard
p2688
(dp2689
g18
I00
sg19
(lp2690
(irule
FeatureMatrix
p2691
(dp2692
g35
(lp2693
(I00
g251
tp2694
a(I01
g253
tp2695
asg22
V[ +vowel -back ]
p2696
sbasg21
I00
sg22
g2696
sg23
I00
sg24
S'R'
sbsg42
(irule
FeatureMatrix
p2697
(dp2698
g35
(lp2699
(I00
g259
tp2700
asg22
V[ -voice ]
p2701
sbsg22
V[ -voice ] ---> k^y / [ -lateral ] _ [ +vowel -back ]
p2702
sba(irule
Rule
p2703
(dp2704
g15
(irule
Guard
p2705
(dp2706
g18
I00
sg19
(lp2707
sg21
I00
sg22
V
sg23
I00
sg24
S'L'
sbsg25
(irule
ConstantPhoneme
p2708
(dp2709
S'p'
g244
sbsg29
(irule
Guard
p2710
(dp2711
g18
I00
sg19
(lp2712
(irule
FeatureMatrix
p2713
(dp2714
g35
(lp2715
(I00
g251
tp2716
a(I01
g253
tp2717
asg22
V[ +vowel -back ]
p2718
sbasg21
I00
sg22
g2718
sg23
I00
sg24
S'R'
sbsg42
(irule
FeatureMatrix
p2719
(dp2720
g35
(lp2721
(I00
g1287
tp2722
a(I00
g259
tp2723
asg22
V[ -nasal -voice ]
p2724
sbsg22
V[ -nasal -voice ] ---> k^y /  _ [ +vowel -back ]
p2725
sba(irule
Rule
p2726
(dp2727
g15
(irule
Guard
p2728
(dp2729
g18
I00
sg19
(lp2730
sg21
I00
sg22
V
sg23
I00
sg24
S'L'
sbsg25
(irule
ConstantPhoneme
p2731
(dp2732
S'p'
g244
sbsg29
(irule
Guard
p2733
(dp2734
g18
I01
sg19
(lp2735
(irule
ConstantPhoneme
p2736
(dp2737
S'p'
Vi
sbasg21
I00
sg22
Vi #
p2738
sg23
I00
sg24
S'R'
sbsg42
(irule
FeatureMatrix
p2739
(dp2740
g35
(lp2741
(I00
g282
tp2742
asg22
V[ -sonorant ]
p2743
sbsg22
V[ -sonorant ] ---> k^y /  _ i #
p2744
sba(irule
Rule
p2745
(dp2746
g15
(irule
Guard
p2747
(dp2748
g18
I00
sg19
(lp2749
(irule
FeatureMatrix
p2750
(dp2751
g35
(lp2752
sg22
V[  ]
p2753
sbasg21
I00
sg22
g2753
sg23
I00
sg24
S'L'
sbsg25
(irule
ConstantPhoneme
p2754
(dp2755
S'p'
g244
sbsg29
(irule
Guard
p2756
(dp2757
g18
I01
sg19
(lp2758
(irule
FeatureMatrix
p2759
(dp2760
g35
(lp2761
(I00
g251
tp2762
a(I01
g253
tp2763
asg22
V[ +vowel -back ]
p2764
sbasg21
I00
sg22
V[ +vowel -back ] #
p2765
sg23
I00
sg24
S'R'
sbsg42
(irule
FeatureMatrix
p2766
(dp2767
g35
(lp2768
(I00
g282
tp2769
asg22
V[ -sonorant ]
p2770
sbsg22
V[ -sonorant ] ---> k^y / [  ] _ [ +vowel -back ] #
p2771
sba(irule
Rule
p2772
(dp2773
g15
(irule
Guard
p2774
(dp2775
g18
I00
sg19
(lp2776
(irule
FeatureMatrix
p2777
(dp2778
g35
(lp2779
(I00
g1287
tp2780
asg22
V[ -nasal ]
p2781
sbasg21
I00
sg22
g2781
sg23
I00
sg24
S'L'
sbsg25
(irule
ConstantPhoneme
p2782
(dp2783
S'p'
g244
sbsg29
(irule
Guard
p2784
(dp2785
g18
I00
sg19
(lp2786
(irule
FeatureMatrix
p2787
(dp2788
g35
(lp2789
(I00
g251
tp2790
a(I01
g253
tp2791
asg22
V[ +vowel -back ]
p2792
sbasg21
I00
sg22
g2792
sg23
I00
sg24
S'R'
sbsg42
(irule
FeatureMatrix
p2793
(dp2794
g35
(lp2795
(I00
g282
tp2796
asg22
V[ -sonorant ]
p2797
sbsg22
V[ -sonorant ] ---> k^y / [ -nasal ] _ [ +vowel -back ]
p2798
sbaa(lp2799
(irule
Rule
p2800
(dp2801
g15
(irule
Guard
p2802
(dp2803
g18
I00
sg19
(lp2804
(irule
FeatureMatrix
p2805
(dp2806
g35
(lp2807
(I01
S'voice'
p2808
tp2809
asg22
V[ +voice ]
p2810
sbasg21
I00
sg22
g2810
sg23
I00
sg24
S'L'
sbsg25
(irule
ConstantPhoneme
p2811
(dp2812
S'p'
Vs^y
p2813
sbsg29
(irule
Guard
p2814
(dp2815
g18
I00
sg19
(lp2816
(irule
FeatureMatrix
p2817
(dp2818
g35
(lp2819
(I01
S'high'
p2820
tp2821
asg22
V[ +high ]
p2822
sbasg21
I00
sg22
g2822
sg23
I00
sg24
S'R'
sbsg42
(irule
FeatureMatrix
p2823
(dp2824
g35
(lp2825
(I00
S'sonorant'
p2826
tp2827
asg22
V[ -sonorant ]
p2828
sbsg22
V[ -sonorant ] ---> s^y / [ +voice ] _ [ +high ]
p2829
sba(irule
Rule
p2830
(dp2831
g15
(irule
Guard
p2832
(dp2833
g18
I00
sg19
(lp2834
(irule
FeatureMatrix
p2835
(dp2836
g35
(lp2837
(I01
S'vowel'
p2838
tp2839
asg22
V[ +vowel ]
p2840
sbasg21
I00
sg22
g2840
sg23
I00
sg24
S'L'
sbsg25
(irule
ConstantPhoneme
p2841
(dp2842
S'p'
g2813
sbsg29
(irule
Guard
p2843
(dp2844
g18
I00
sg19
(lp2845
(irule
FeatureMatrix
p2846
(dp2847
g35
(lp2848
(I01
g2820
tp2849
asg22
V[ +high ]
p2850
sbasg21
I00
sg22
g2850
sg23
I00
sg24
S'R'
sbsg42
(irule
FeatureMatrix
p2851
(dp2852
g35
(lp2853
(I00
g2808
tp2854
asg22
V[ -voice ]
p2855
sbsg22
V[ -voice ] ---> s^y / [ +vowel ] _ [ +high ]
p2856
sba(irule
Rule
p2857
(dp2858
g15
(irule
Guard
p2859
(dp2860
g18
I00
sg19
(lp2861
(irule
FeatureMatrix
p2862
(dp2863
g35
(lp2864
(I01
g2808
tp2865
asg22
V[ +voice ]
p2866
sbasg21
I00
sg22
g2866
sg23
I00
sg24
S'L'
sbsg25
(irule
ConstantPhoneme
p2867
(dp2868
S'p'
g2813
sbsg29
(irule
Guard
p2869
(dp2870
g18
I00
sg19
(lp2871
(irule
FeatureMatrix
p2872
(dp2873
g35
(lp2874
(I01
g2820
tp2875
asg22
V[ +high ]
p2876
sbasg21
I00
sg22
g2876
sg23
I00
sg24
S'R'
sbsg42
(irule
FeatureMatrix
p2877
(dp2878
g35
(lp2879
(I00
g2808
tp2880
asg22
V[ -voice ]
p2881
sbsg22
V[ -voice ] ---> s^y / [ +voice ] _ [ +high ]
p2882
sba(irule
Rule
p2883
(dp2884
g15
(irule
Guard
p2885
(dp2886
g18
I00
sg19
(lp2887
(irule
FeatureMatrix
p2888
(dp2889
g35
(lp2890
(I01
g2838
tp2891
asg22
V[ +vowel ]
p2892
sbasg21
I00
sg22
g2892
sg23
I00
sg24
S'L'
sbsg25
(irule
ConstantPhoneme
p2893
(dp2894
S'p'
g2813
sbsg29
(irule
Guard
p2895
(dp2896
g18
I00
sg19
(lp2897
(irule
FeatureMatrix
p2898
(dp2899
g35
(lp2900
(I01
g2820
tp2901
asg22
V[ +high ]
p2902
sbasg21
I00
sg22
g2902
sg23
I00
sg24
S'R'
sbsg42
(irule
FeatureMatrix
p2903
(dp2904
g35
(lp2905
(I00
g2826
tp2906
asg22
V[ -sonorant ]
p2907
sbsg22
V[ -sonorant ] ---> s^y / [ +vowel ] _ [ +high ]
p2908
sba(irule
Rule
p2909
(dp2910
g15
(irule
Guard
p2911
(dp2912
g18
I00
sg19
(lp2913
(irule
FeatureMatrix
p2914
(dp2915
g35
(lp2916
(I01
g2808
tp2917
asg22
V[ +voice ]
p2918
sbasg21
I00
sg22
g2918
sg23
I00
sg24
S'L'
sbsg25
(irule
ConstantPhoneme
p2919
(dp2920
S'p'
g2813
sbsg29
(irule
Guard
p2921
(dp2922
g18
I00
sg19
(lp2923
(irule
FeatureMatrix
p2924
(dp2925
g35
(lp2926
(I00
g2808
tp2927
asg22
V[ -voice ]
p2928
sba(irule
FeatureMatrix
p2929
(dp2930
g35
(lp2931
(I00
S'back'
p2932
tp2933
a(I01
g2838
tp2934
asg22
V[ +vowel -back ]
p2935
sbasg21
I00
sg22
V[ -voice ]* [ +vowel -back ]
p2936
sg23
I01
sg24
S'R'
sbsg42
(irule
FeatureMatrix
p2937
(dp2938
g35
(lp2939
(I00
g2808
tp2940
asg22
V[ -voice ]
p2941
sbsg22
V[ -voice ] ---> s^y / [ +voice ] _ [ -voice ]* [ +vowel -back ]
p2942
sba(irule
Rule
p2943
(dp2944
g15
(irule
Guard
p2945
(dp2946
g18
I00
sg19
(lp2947
(irule
FeatureMatrix
p2948
(dp2949
g35
(lp2950
(I01
g2808
tp2951
asg22
V[ +voice ]
p2952
sbasg21
I00
sg22
g2952
sg23
I00
sg24
S'L'
sbsg25
(irule
ConstantPhoneme
p2953
(dp2954
S'p'
g2813
sbsg29
(irule
Guard
p2955
(dp2956
g18
I00
sg19
(lp2957
(irule
FeatureMatrix
p2958
(dp2959
g35
(lp2960
(I00
g2838
tp2961
asg22
V[ -vowel ]
p2962
sba(irule
FeatureMatrix
p2963
(dp2964
g35
(lp2965
(I00
g2932
tp2966
a(I01
g2838
tp2967
asg22
V[ +vowel -back ]
p2968
sbasg21
I00
sg22
V[ -vowel ]* [ +vowel -back ]
p2969
sg23
I01
sg24
S'R'
sbsg42
(irule
FeatureMatrix
p2970
(dp2971
g35
(lp2972
(I00
g2808
tp2973
asg22
V[ -voice ]
p2974
sbsg22
V[ -voice ] ---> s^y / [ +voice ] _ [ -vowel ]* [ +vowel -back ]
p2975
sba(irule
Rule
p2976
(dp2977
g15
(irule
Guard
p2978
(dp2979
g18
I00
sg19
(lp2980
(irule
FeatureMatrix
p2981
(dp2982
g35
(lp2983
(I01
g2838
tp2984
asg22
V[ +vowel ]
p2985
sbasg21
I00
sg22
g2985
sg23
I00
sg24
S'L'
sbsg25
(irule
ConstantPhoneme
p2986
(dp2987
S'p'
g2813
sbsg29
(irule
Guard
p2988
(dp2989
g18
I00
sg19
(lp2990
(irule
FeatureMatrix
p2991
(dp2992
g35
(lp2993
(I00
g2826
tp2994
asg22
V[ -sonorant ]
p2995
sba(irule
FeatureMatrix
p2996
(dp2997
g35
(lp2998
(I00
g2932
tp2999
a(I01
g2838
tp3000
asg22
V[ +vowel -back ]
p3001
sbasg21
I00
sg22
V[ -sonorant ]* [ +vowel -back ]
p3002
sg23
I01
sg24
S'R'
sbsg42
(irule
FeatureMatrix
p3003
(dp3004
g35
(lp3005
(I00
g2808
tp3006
asg22
V[ -voice ]
p3007
sbsg22
V[ -voice ] ---> s^y / [ +vowel ] _ [ -sonorant ]* [ +vowel -back ]
p3008
sba(irule
Rule
p3009
(dp3010
g15
(irule
Guard
p3011
(dp3012
g18
I00
sg19
(lp3013
(irule
FeatureMatrix
p3014
(dp3015
g35
(lp3016
(I01
g2808
tp3017
asg22
V[ +voice ]
p3018
sbasg21
I00
sg22
g3018
sg23
I00
sg24
S'L'
sbsg25
(irule
ConstantPhoneme
p3019
(dp3020
S'p'
g2813
sbsg29
(irule
Guard
p3021
(dp3022
g18
I00
sg19
(lp3023
(irule
FeatureMatrix
p3024
(dp3025
g35
(lp3026
(I00
g2826
tp3027
asg22
V[ -sonorant ]
p3028
sba(irule
FeatureMatrix
p3029
(dp3030
g35
(lp3031
(I00
g2932
tp3032
a(I01
g2838
tp3033
asg22
V[ +vowel -back ]
p3034
sbasg21
I00
sg22
V[ -sonorant ]* [ +vowel -back ]
p3035
sg23
I01
sg24
S'R'
sbsg42
(irule
FeatureMatrix
p3036
(dp3037
g35
(lp3038
(I00
g2826
tp3039
asg22
V[ -sonorant ]
p3040
sbsg22
V[ -sonorant ] ---> s^y / [ +voice ] _ [ -sonorant ]* [ +vowel -back ]
p3041
sba(irule
Rule
p3042
(dp3043
g15
(irule
Guard
p3044
(dp3045
g18
I00
sg19
(lp3046
(irule
FeatureMatrix
p3047
(dp3048
g35
(lp3049
(I01
g2808
tp3050
asg22
V[ +voice ]
p3051
sbasg21
I00
sg22
g3051
sg23
I00
sg24
S'L'
sbsg25
(irule
ConstantPhoneme
p3052
(dp3053
S'p'
g2813
sbsg29
(irule
Guard
p3054
(dp3055
g18
I00
sg19
(lp3056
(irule
FeatureMatrix
p3057
(dp3058
g35
(lp3059
(I00
g2826
tp3060
asg22
V[ -sonorant ]
p3061
sba(irule
FeatureMatrix
p3062
(dp3063
g35
(lp3064
(I00
g2932
tp3065
a(I01
g2838
tp3066
asg22
V[ +vowel -back ]
p3067
sbasg21
I00
sg22
V[ -sonorant ]* [ +vowel -back ]
p3068
sg23
I01
sg24
S'R'
sbsg42
(irule
FeatureMatrix
p3069
(dp3070
g35
(lp3071
(I00
g2808
tp3072
asg22
V[ -voice ]
p3073
sbsg22
V[ -voice ] ---> s^y / [ +voice ] _ [ -sonorant ]* [ +vowel -back ]
p3074
sba(irule
Rule
p3075
(dp3076
g15
(irule
Guard
p3077
(dp3078
g18
I00
sg19
(lp3079
(irule
FeatureMatrix
p3080
(dp3081
g35
(lp3082
(I01
g2838
tp3083
asg22
V[ +vowel ]
p3084
sbasg21
I00
sg22
g3084
sg23
I00
sg24
S'L'
sbsg25
(irule
ConstantPhoneme
p3085
(dp3086
S'p'
g2813
sbsg29
(irule
Guard
p3087
(dp3088
g18
I00
sg19
(lp3089
(irule
FeatureMatrix
p3090
(dp3091
g35
(lp3092
(I01
g2820
tp3093
asg22
V[ +high ]
p3094
sbasg21
I00
sg22
g3094
sg23
I00
sg24
S'R'
sbsg42
(irule
FeatureMatrix
p3095
(dp3096
g35
(lp3097
(I00
S'liquid'
p3098
tp3099
asg22
V[ -liquid ]
p3100
sbsg22
V[ -liquid ] ---> s^y / [ +vowel ] _ [ +high ]
p3101
sba(irule
Rule
p3102
(dp3103
g15
(irule
Guard
p3104
(dp3105
g18
I00
sg19
(lp3106
(irule
FeatureMatrix
p3107
(dp3108
g35
(lp3109
(I01
g2808
tp3110
asg22
V[ +voice ]
p3111
sbasg21
I00
sg22
g3111
sg23
I00
sg24
S'L'
sbsg25
(irule
ConstantPhoneme
p3112
(dp3113
S'p'
g2813
sbsg29
(irule
Guard
p3114
(dp3115
g18
I00
sg19
(lp3116
(irule
FeatureMatrix
p3117
(dp3118
g35
(lp3119
(I00
g2838
tp3120
asg22
V[ -vowel ]
p3121
sba(irule
FeatureMatrix
p3122
(dp3123
g35
(lp3124
(I00
g2932
tp3125
a(I01
g2838
tp3126
asg22
V[ +vowel -back ]
p3127
sbasg21
I00
sg22
V[ -vowel ]* [ +vowel -back ]
p3128
sg23
I01
sg24
S'R'
sbsg42
(irule
FeatureMatrix
p3129
(dp3130
g35
(lp3131
(I00
g2826
tp3132
asg22
V[ -sonorant ]
p3133
sbsg22
V[ -sonorant ] ---> s^y / [ +voice ] _ [ -vowel ]* [ +vowel -back ]
p3134
sba(irule
Rule
p3135
(dp3136
g15
(irule
Guard
p3137
(dp3138
g18
I00
sg19
(lp3139
(irule
FeatureMatrix
p3140
(dp3141
g35
(lp3142
(I01
g2838
tp3143
asg22
V[ +vowel ]
p3144
sbasg21
I00
sg22
g3144
sg23
I00
sg24
S'L'
sbsg25
(irule
ConstantPhoneme
p3145
(dp3146
S'p'
g2813
sbsg29
(irule
Guard
p3147
(dp3148
g18
I00
sg19
(lp3149
(irule
FeatureMatrix
p3150
(dp3151
g35
(lp3152
(I00
g2808
tp3153
asg22
V[ -voice ]
p3154
sba(irule
FeatureMatrix
p3155
(dp3156
g35
(lp3157
(I00
g2932
tp3158
a(I01
g2838
tp3159
asg22
V[ +vowel -back ]
p3160
sbasg21
I00
sg22
V[ -voice ]* [ +vowel -back ]
p3161
sg23
I01
sg24
S'R'
sbsg42
(irule
FeatureMatrix
p3162
(dp3163
g35
(lp3164
(I00
g2808
tp3165
asg22
V[ -voice ]
p3166
sbsg22
V[ -voice ] ---> s^y / [ +vowel ] _ [ -voice ]* [ +vowel -back ]
p3167
sba(irule
Rule
p3168
(dp3169
g15
(irule
Guard
p3170
(dp3171
g18
I00
sg19
(lp3172
(irule
FeatureMatrix
p3173
(dp3174
g35
(lp3175
(I01
g2808
tp3176
asg22
V[ +voice ]
p3177
sbasg21
I00
sg22
g3177
sg23
I00
sg24
S'L'
sbsg25
(irule
ConstantPhoneme
p3178
(dp3179
S'p'
g2813
sbsg29
(irule
Guard
p3180
(dp3181
g18
I00
sg19
(lp3182
(irule
FeatureMatrix
p3183
(dp3184
g35
(lp3185
(I00
g2808
tp3186
asg22
V[ -voice ]
p3187
sba(irule
FeatureMatrix
p3188
(dp3189
g35
(lp3190
(I00
g2932
tp3191
a(I01
g2838
tp3192
asg22
V[ +vowel -back ]
p3193
sbasg21
I00
sg22
V[ -voice ]* [ +vowel -back ]
p3194
sg23
I01
sg24
S'R'
sbsg42
(irule
FeatureMatrix
p3195
(dp3196
g35
(lp3197
(I00
g2826
tp3198
asg22
V[ -sonorant ]
p3199
sbsg22
V[ -sonorant ] ---> s^y / [ +voice ] _ [ -voice ]* [ +vowel -back ]
p3200
sba(irule
Rule
p3201
(dp3202
g15
(irule
Guard
p3203
(dp3204
g18
I00
sg19
(lp3205
(irule
FeatureMatrix
p3206
(dp3207
g35
(lp3208
(I00
S'sibilant'
p3209
tp3210
asg22
V[ -sibilant ]
p3211
sbasg21
I00
sg22
g3211
sg23
I00
sg24
S'L'
sbsg25
(irule
ConstantPhoneme
p3212
(dp3213
S'p'
g2813
sbsg29
(irule
Guard
p3214
(dp3215
g18
I00
sg19
(lp3216
(irule
FeatureMatrix
p3217
(dp3218
g35
(lp3219
(I01
g2820
tp3220
asg22
V[ +high ]
p3221
sbasg21
I00
sg22
g3221
sg23
I00
sg24
S'R'
sbsg42
(irule
FeatureMatrix
p3222
(dp3223
g35
(lp3224
(I00
g2826
tp3225
asg22
V[ -sonorant ]
p3226
sbsg22
V[ -sonorant ] ---> s^y / [ -sibilant ] _ [ +high ]
p3227
sba(irule
Rule
p3228
(dp3229
g15
(irule
Guard
p3230
(dp3231
g18
I00
sg19
(lp3232
(irule
FeatureMatrix
p3233
(dp3234
g35
(lp3235
(I01
g2838
tp3236
asg22
V[ +vowel ]
p3237
sbasg21
I00
sg22
g3237
sg23
I00
sg24
S'L'
sbsg25
(irule
ConstantPhoneme
p3238
(dp3239
S'p'
g2813
sbsg29
(irule
Guard
p3240
(dp3241
g18
I00
sg19
(lp3242
(irule
FeatureMatrix
p3243
(dp3244
g35
(lp3245
(I00
g2826
tp3246
asg22
V[ -sonorant ]
p3247
sba(irule
FeatureMatrix
p3248
(dp3249
g35
(lp3250
(I00
g2932
tp3251
a(I01
g2838
tp3252
asg22
V[ +vowel -back ]
p3253
sbasg21
I00
sg22
V[ -sonorant ]* [ +vowel -back ]
p3254
sg23
I01
sg24
S'R'
sbsg42
(irule
FeatureMatrix
p3255
(dp3256
g35
(lp3257
(I00
g2826
tp3258
asg22
V[ -sonorant ]
p3259
sbsg22
V[ -sonorant ] ---> s^y / [ +vowel ] _ [ -sonorant ]* [ +vowel -back ]
p3260
sba(irule
Rule
p3261
(dp3262
g15
(irule
Guard
p3263
(dp3264
g18
I00
sg19
(lp3265
(irule
FeatureMatrix
p3266
(dp3267
g35
(lp3268
(I01
g2838
tp3269
asg22
V[ +vowel ]
p3270
sbasg21
I00
sg22
g3270
sg23
I00
sg24
S'L'
sbsg25
(irule
ConstantPhoneme
p3271
(dp3272
S'p'
g2813
sbsg29
(irule
Guard
p3273
(dp3274
g18
I00
sg19
(lp3275
(irule
FeatureMatrix
p3276
(dp3277
g35
(lp3278
(I00
S'rounded'
p3279
tp3280
a(I01
g2820
tp3281
asg22
V[ +high -rounded ]
p3282
sbasg21
I00
sg22
g3282
sg23
I00
sg24
S'R'
sbsg42
(irule
FeatureMatrix
p3283
(dp3284
g35
(lp3285
(I00
g2838
tp3286
asg22
V[ -vowel ]
p3287
sbsg22
V[ -vowel ] ---> s^y / [ +vowel ] _ [ +high -rounded ]
p3288
sba(irule
Rule
p3289
(dp3290
g15
(irule
Guard
p3291
(dp3292
g18
I00
sg19
(lp3293
(irule
FeatureMatrix
p3294
(dp3295
g35
(lp3296
(I01
g2838
tp3297
asg22
V[ +vowel ]
p3298
sbasg21
I00
sg22
g3298
sg23
I00
sg24
S'L'
sbsg25
(irule
ConstantPhoneme
p3299
(dp3300
S'p'
g2813
sbsg29
(irule
Guard
p3301
(dp3302
g18
I00
sg19
(lp3303
(irule
FeatureMatrix
p3304
(dp3305
g35
(lp3306
(I00
g2838
tp3307
asg22
V[ -vowel ]
p3308
sba(irule
FeatureMatrix
p3309
(dp3310
g35
(lp3311
(I00
g2932
tp3312
a(I01
g2838
tp3313
asg22
V[ +vowel -back ]
p3314
sbasg21
I00
sg22
V[ -vowel ]* [ +vowel -back ]
p3315
sg23
I01
sg24
S'R'
sbsg42
(irule
FeatureMatrix
p3316
(dp3317
g35
(lp3318
(I00
g2808
tp3319
asg22
V[ -voice ]
p3320
sbsg22
V[ -voice ] ---> s^y / [ +vowel ] _ [ -vowel ]* [ +vowel -back ]
p3321
sba(irule
Rule
p3322
(dp3323
g15
(irule
Guard
p3324
(dp3325
g18
I00
sg19
(lp3326
(irule
FeatureMatrix
p3327
(dp3328
g35
(lp3329
(I01
g2838
tp3330
asg22
V[ +vowel ]
p3331
sbasg21
I00
sg22
g3331
sg23
I00
sg24
S'L'
sbsg25
(irule
ConstantPhoneme
p3332
(dp3333
S'p'
g2813
sbsg29
(irule
Guard
p3334
(dp3335
g18
I00
sg19
(lp3336
(irule
FeatureMatrix
p3337
(dp3338
g35
(lp3339
(I00
g2826
tp3340
asg22
V[ -sonorant ]
p3341
sba(irule
FeatureMatrix
p3342
(dp3343
g35
(lp3344
(I00
g2932
tp3345
a(I01
g2838
tp3346
asg22
V[ +vowel -back ]
p3347
sbasg21
I00
sg22
V[ -sonorant ]* [ +vowel -back ]
p3348
sg23
I01
sg24
S'R'
sbsg42
(irule
FeatureMatrix
p3349
(dp3350
g35
(lp3351
(I00
g2838
tp3352
asg22
V[ -vowel ]
p3353
sbsg22
V[ -vowel ] ---> s^y / [ +vowel ] _ [ -sonorant ]* [ +vowel -back ]
p3354
sba(irule
Rule
p3355
(dp3356
g15
(irule
Guard
p3357
(dp3358
g18
I00
sg19
(lp3359
(irule
FeatureMatrix
p3360
(dp3361
g35
(lp3362
(I01
g2838
tp3363
asg22
V[ +vowel ]
p3364
sbasg21
I00
sg22
g3364
sg23
I00
sg24
S'L'
sbsg25
(irule
ConstantPhoneme
p3365
(dp3366
S'p'
g2813
sbsg29
(irule
Guard
p3367
(dp3368
g18
I00
sg19
(lp3369
(irule
FeatureMatrix
p3370
(dp3371
g35
(lp3372
(I00
g2838
tp3373
asg22
V[ -vowel ]
p3374
sba(irule
FeatureMatrix
p3375
(dp3376
g35
(lp3377
(I00
g2932
tp3378
a(I01
g2838
tp3379
asg22
V[ +vowel -back ]
p3380
sbasg21
I00
sg22
V[ -vowel ]* [ +vowel -back ]
p3381
sg23
I01
sg24
S'R'
sbsg42
(irule
FeatureMatrix
p3382
(dp3383
g35
(lp3384
(I00
g2838
tp3385
asg22
V[ -vowel ]
p3386
sbsg22
V[ -vowel ] ---> s^y / [ +vowel ] _ [ -vowel ]* [ +vowel -back ]
p3387
sba(irule
Rule
p3388
(dp3389
g15
(irule
Guard
p3390
(dp3391
g18
I00
sg19
(lp3392
(irule
FeatureMatrix
p3393
(dp3394
g35
(lp3395
(I01
g2838
tp3396
asg22
V[ +vowel ]
p3397
sbasg21
I00
sg22
g3397
sg23
I00
sg24
S'L'
sbsg25
(irule
ConstantPhoneme
p3398
(dp3399
S'p'
g2813
sbsg29
(irule
Guard
p3400
(dp3401
g18
I00
sg19
(lp3402
(irule
FeatureMatrix
p3403
(dp3404
g35
(lp3405
(I00
g2808
tp3406
asg22
V[ -voice ]
p3407
sba(irule
FeatureMatrix
p3408
(dp3409
g35
(lp3410
(I00
g2932
tp3411
a(I01
g2838
tp3412
asg22
V[ +vowel -back ]
p3413
sbasg21
I00
sg22
V[ -voice ]* [ +vowel -back ]
p3414
sg23
I01
sg24
S'R'
sbsg42
(irule
FeatureMatrix
p3415
(dp3416
g35
(lp3417
sg22
V[  ]
p3418
sbsg22
V[  ] ---> s^y / [ +vowel ] _ [ -voice ]* [ +vowel -back ]
p3419
sba(irule
Rule
p3420
(dp3421
g15
(irule
Guard
p3422
(dp3423
g18
I00
sg19
(lp3424
(irule
FeatureMatrix
p3425
(dp3426
g35
(lp3427
(I01
g2838
tp3428
asg22
V[ +vowel ]
p3429
sbasg21
I00
sg22
g3429
sg23
I00
sg24
S'L'
sbsg25
(irule
ConstantPhoneme
p3430
(dp3431
S'p'
g2813
sbsg29
(irule
Guard
p3432
(dp3433
g18
I00
sg19
(lp3434
(irule
FeatureMatrix
p3435
(dp3436
g35
(lp3437
(I00
g2808
tp3438
asg22
V[ -voice ]
p3439
sba(irule
FeatureMatrix
p3440
(dp3441
g35
(lp3442
(I00
g2932
tp3443
a(I01
g2838
tp3444
asg22
V[ +vowel -back ]
p3445
sbasg21
I00
sg22
V[ -voice ]* [ +vowel -back ]
p3446
sg23
I01
sg24
S'R'
sbsg42
(irule
FeatureMatrix
p3447
(dp3448
g35
(lp3449
(I00
g2826
tp3450
asg22
V[ -sonorant ]
p3451
sbsg22
V[ -sonorant ] ---> s^y / [ +vowel ] _ [ -voice ]* [ +vowel -back ]
p3452
sba(irule
Rule
p3453
(dp3454
g15
(irule
Guard
p3455
(dp3456
g18
I00
sg19
(lp3457
(irule
FeatureMatrix
p3458
(dp3459
g35
(lp3460
(I01
g2838
tp3461
asg22
V[ +vowel ]
p3462
sbasg21
I00
sg22
g3462
sg23
I00
sg24
S'L'
sbsg25
(irule
ConstantPhoneme
p3463
(dp3464
S'p'
g2813
sbsg29
(irule
Guard
p3465
(dp3466
g18
I00
sg19
(lp3467
(irule
FeatureMatrix
p3468
(dp3469
g35
(lp3470
(I00
g2838
tp3471
asg22
V[ -vowel ]
p3472
sba(irule
FeatureMatrix
p3473
(dp3474
g35
(lp3475
(I00
g2932
tp3476
a(I01
g2838
tp3477
asg22
V[ +vowel -back ]
p3478
sbasg21
I00
sg22
V[ -vowel ]* [ +vowel -back ]
p3479
sg23
I01
sg24
S'R'
sbsg42
(irule
FeatureMatrix
p3480
(dp3481
g35
(lp3482
(I00
g2826
tp3483
asg22
V[ -sonorant ]
p3484
sbsg22
V[ -sonorant ] ---> s^y / [ +vowel ] _ [ -vowel ]* [ +vowel -back ]
p3485
sba(irule
Rule
p3486
(dp3487
g15
(irule
Guard
p3488
(dp3489
g18
I00
sg19
(lp3490
(irule
FeatureMatrix
p3491
(dp3492
g35
(lp3493
(I01
g2838
tp3494
asg22
V[ +vowel ]
p3495
sbasg21
I00
sg22
g3495
sg23
I00
sg24
S'L'
sbsg25
(irule
ConstantPhoneme
p3496
(dp3497
S'p'
g2813
sbsg29
(irule
Guard
p3498
(dp3499
g18
I00
sg19
(lp3500
(irule
FeatureMatrix
p3501
(dp3502
g35
(lp3503
(I00
g2826
tp3504
asg22
V[ -sonorant ]
p3505
sba(irule
FeatureMatrix
p3506
(dp3507
g35
(lp3508
(I00
g2932
tp3509
a(I01
g2838
tp3510
asg22
V[ +vowel -back ]
p3511
sbasg21
I00
sg22
V[ -sonorant ]* [ +vowel -back ]
p3512
sg23
I01
sg24
S'R'
sbsg42
(irule
FeatureMatrix
p3513
(dp3514
g35
(lp3515
sg22
V[  ]
p3516
sbsg22
V[  ] ---> s^y / [ +vowel ] _ [ -sonorant ]* [ +vowel -back ]
p3517
sba(irule
Rule
p3518
(dp3519
g15
(irule
Guard
p3520
(dp3521
g18
I00
sg19
(lp3522
(irule
FeatureMatrix
p3523
(dp3524
g35
(lp3525
(I01
g2838
tp3526
asg22
V[ +vowel ]
p3527
sbasg21
I00
sg22
g3527
sg23
I00
sg24
S'L'
sbsg25
(irule
ConstantPhoneme
p3528
(dp3529
S'p'
g2813
sbsg29
(irule
Guard
p3530
(dp3531
g18
I00
sg19
(lp3532
(irule
FeatureMatrix
p3533
(dp3534
g35
(lp3535
(I00
g2808
tp3536
asg22
V[ -voice ]
p3537
sba(irule
FeatureMatrix
p3538
(dp3539
g35
(lp3540
(I00
g2932
tp3541
a(I01
g2838
tp3542
asg22
V[ +vowel -back ]
p3543
sbasg21
I00
sg22
V[ -voice ]* [ +vowel -back ]
p3544
sg23
I01
sg24
S'R'
sbsg42
(irule
FeatureMatrix
p3545
(dp3546
g35
(lp3547
(I00
g2838
tp3548
asg22
V[ -vowel ]
p3549
sbsg22
V[ -vowel ] ---> s^y / [ +vowel ] _ [ -voice ]* [ +vowel -back ]
p3550
sba(irule
Rule
p3551
(dp3552
g15
(irule
Guard
p3553
(dp3554
g18
I00
sg19
(lp3555
(irule
FeatureMatrix
p3556
(dp3557
g35
(lp3558
(I01
g2838
tp3559
asg22
V[ +vowel ]
p3560
sbasg21
I00
sg22
g3560
sg23
I00
sg24
S'L'
sbsg25
(irule
ConstantPhoneme
p3561
(dp3562
S'p'
g2813
sbsg29
(irule
Guard
p3563
(dp3564
g18
I00
sg19
(lp3565
(irule
FeatureMatrix
p3566
(dp3567
g35
(lp3568
(I00
g2838
tp3569
asg22
V[ -vowel ]
p3570
sba(irule
FeatureMatrix
p3571
(dp3572
g35
(lp3573
(I00
g2932
tp3574
a(I01
g2838
tp3575
asg22
V[ +vowel -back ]
p3576
sbasg21
I00
sg22
V[ -vowel ]* [ +vowel -back ]
p3577
sg23
I01
sg24
S'R'
sbsg42
(irule
FeatureMatrix
p3578
(dp3579
g35
(lp3580
sg22
V[  ]
p3581
sbsg22
V[  ] ---> s^y / [ +vowel ] _ [ -vowel ]* [ +vowel -back ]
p3582
sba(irule
Rule
p3583
(dp3584
g15
(irule
Guard
p3585
(dp3586
g18
I00
sg19
(lp3587
(irule
FeatureMatrix
p3588
(dp3589
g35
(lp3590
(I01
g2808
tp3591
asg22
V[ +voice ]
p3592
sbasg21
I00
sg22
g3592
sg23
I00
sg24
S'L'
sbsg25
(irule
ConstantPhoneme
p3593
(dp3594
S'p'
g2813
sbsg29
(irule
Guard
p3595
(dp3596
g18
I00
sg19
(lp3597
(irule
FeatureMatrix
p3598
(dp3599
g35
(lp3600
(I01
g2820
tp3601
a(I00
g3209
tp3602
asg22
V[ +high -sibilant ]
p3603
sbasg21
I00
sg22
g3603
sg23
I00
sg24
S'R'
sbsg42
(irule
FeatureMatrix
p3604
(dp3605
g35
(lp3606
(I00
g2826
tp3607
asg22
V[ -sonorant ]
p3608
sbsg22
V[ -sonorant ] ---> s^y / [ +voice ] _ [ +high -sibilant ]
p3609
sba(irule
Rule
p3610
(dp3611
g15
(irule
Guard
p3612
(dp3613
g18
I00
sg19
(lp3614
(irule
FeatureMatrix
p3615
(dp3616
g35
(lp3617
(I01
g2808
tp3618
asg22
V[ +voice ]
p3619
sbasg21
I00
sg22
g3619
sg23
I00
sg24
S'L'
sbsg25
(irule
ConstantPhoneme
p3620
(dp3621
S'p'
g2813
sbsg29
(irule
Guard
p3622
(dp3623
g18
I00
sg19
(lp3624
(irule
FeatureMatrix
p3625
(dp3626
g35
(lp3627
(I00
S'nasal'
p3628
tp3629
a(I01
g2820
tp3630
asg22
V[ +high -nasal ]
p3631
sbasg21
I00
sg22
g3631
sg23
I00
sg24
S'R'
sbsg42
(irule
FeatureMatrix
p3632
(dp3633
g35
(lp3634
(I00
g2826
tp3635
asg22
V[ -sonorant ]
p3636
sbsg22
V[ -sonorant ] ---> s^y / [ +voice ] _ [ +high -nasal ]
p3637
sba(irule
Rule
p3638
(dp3639
g15
(irule
Guard
p3640
(dp3641
g18
I00
sg19
(lp3642
(irule
FeatureMatrix
p3643
(dp3644
g35
(lp3645
(I01
g2838
tp3646
asg22
V[ +vowel ]
p3647
sbasg21
I00
sg22
g3647
sg23
I00
sg24
S'L'
sbsg25
(irule
ConstantPhoneme
p3648
(dp3649
S'p'
g2813
sbsg29
(irule
Guard
p3650
(dp3651
g18
I00
sg19
(lp3652
(irule
FeatureMatrix
p3653
(dp3654
g35
(lp3655
(I00
S'anterior'
p3656
tp3657
a(I00
S'low'
p3658
tp3659
asg22
V[ -anterior -low ]
p3660
sbasg21
I00
sg22
g3660
sg23
I00
sg24
S'R'
sbsg42
(irule
FeatureMatrix
p3661
(dp3662
g35
(lp3663
(I00
g2826
tp3664
asg22
V[ -sonorant ]
p3665
sbsg22
V[ -sonorant ] ---> s^y / [ +vowel ] _ [ -anterior -low ]
p3666
sba(irule
Rule
p3667
(dp3668
g15
(irule
Guard
p3669
(dp3670
g18
I00
sg19
(lp3671
(irule
FeatureMatrix
p3672
(dp3673
g35
(lp3674
(I01
g2838
tp3675
asg22
V[ +vowel ]
p3676
sbasg21
I00
sg22
g3676
sg23
I00
sg24
S'L'
sbsg25
(irule
ConstantPhoneme
p3677
(dp3678
S'p'
g2813
sbsg29
(irule
Guard
p3679
(dp3680
g18
I00
sg19
(lp3681
(irule
FeatureMatrix
p3682
(dp3683
g35
(lp3684
(I00
g3279
tp3685
a(I01
g2820
tp3686
asg22
V[ +high -rounded ]
p3687
sbasg21
I00
sg22
g3687
sg23
I00
sg24
S'R'
sbsg42
(irule
FeatureMatrix
p3688
(dp3689
g35
(lp3690
(I00
g2826
tp3691
asg22
V[ -sonorant ]
p3692
sbsg22
V[ -sonorant ] ---> s^y / [ +vowel ] _ [ +high -rounded ]
p3693
sba(irule
Rule
p3694
(dp3695
g15
(irule
Guard
p3696
(dp3697
g18
I00
sg19
(lp3698
(irule
FeatureMatrix
p3699
(dp3700
g35
(lp3701
(I01
g2808
tp3702
asg22
V[ +voice ]
p3703
sbasg21
I00
sg22
g3703
sg23
I00
sg24
S'L'
sbsg25
(irule
ConstantPhoneme
p3704
(dp3705
S'p'
g2813
sbsg29
(irule
Guard
p3706
(dp3707
g18
I00
sg19
(lp3708
(irule
FeatureMatrix
p3709
(dp3710
g35
(lp3711
(I01
g2820
tp3712
a(I00
g3209
tp3713
asg22
V[ +high -sibilant ]
p3714
sbasg21
I00
sg22
g3714
sg23
I00
sg24
S'R'
sbsg42
(irule
FeatureMatrix
p3715
(dp3716
g35
(lp3717
(I00
g2808
tp3718
asg22
V[ -voice ]
p3719
sbsg22
V[ -voice ] ---> s^y / [ +voice ] _ [ +high -sibilant ]
p3720
sba(irule
Rule
p3721
(dp3722
g15
(irule
Guard
p3723
(dp3724
g18
I00
sg19
(lp3725
(irule
FeatureMatrix
p3726
(dp3727
g35
(lp3728
(I01
g2808
tp3729
asg22
V[ +voice ]
p3730
sba(irule
FeatureMatrix
p3731
(dp3732
g35
(lp3733
sg22
V[  ]
p3734
sbasg21
I00
sg22
V[  ] [ +voice ]
p3735
sg23
I00
sg24
S'L'
sbsg25
(irule
ConstantPhoneme
p3736
(dp3737
S'p'
g2813
sbsg29
(irule
Guard
p3738
(dp3739
g18
I00
sg19
(lp3740
(irule
FeatureMatrix
p3741
(dp3742
g35
(lp3743
(I01
g2820
tp3744
asg22
V[ +high ]
p3745
sbasg21
I00
sg22
g3745
sg23
I00
sg24
S'R'
sbsg42
(irule
FeatureMatrix
p3746
(dp3747
g35
(lp3748
(I00
g2808
tp3749
asg22
V[ -voice ]
p3750
sbsg22
V[ -voice ] ---> s^y / [  ] [ +voice ] _ [ +high ]
p3751
sba(irule
Rule
p3752
(dp3753
g15
(irule
Guard
p3754
(dp3755
g18
I00
sg19
(lp3756
(irule
FeatureMatrix
p3757
(dp3758
g35
(lp3759
(I01
g2808
tp3760
asg22
V[ +voice ]
p3761
sbasg21
I00
sg22
g3761
sg23
I00
sg24
S'L'
sbsg25
(irule
ConstantPhoneme
p3762
(dp3763
S'p'
g2813
sbsg29
(irule
Guard
p3764
(dp3765
g18
I00
sg19
(lp3766
(irule
FeatureMatrix
p3767
(dp3768
g35
(lp3769
(I00
g3656
tp3770
a(I00
g3658
tp3771
asg22
V[ -anterior -low ]
p3772
sbasg21
I00
sg22
g3772
sg23
I00
sg24
S'R'
sbsg42
(irule
FeatureMatrix
p3773
(dp3774
g35
(lp3775
(I00
g2826
tp3776
asg22
V[ -sonorant ]
p3777
sbsg22
V[ -sonorant ] ---> s^y / [ +voice ] _ [ -anterior -low ]
p3778
sba(irule
Rule
p3779
(dp3780
g15
(irule
Guard
p3781
(dp3782
g18
I00
sg19
(lp3783
(irule
FeatureMatrix
p3784
(dp3785
g35
(lp3786
(I01
g2808
tp3787
asg22
V[ +voice ]
p3788
sbasg21
I00
sg22
g3788
sg23
I00
sg24
S'L'
sbsg25
(irule
ConstantPhoneme
p3789
(dp3790
S'p'
g2813
sbsg29
(irule
Guard
p3791
(dp3792
g18
I00
sg19
(lp3793
(irule
FeatureMatrix
p3794
(dp3795
g35
(lp3796
(I00
g3279
tp3797
a(I01
g2820
tp3798
asg22
V[ +high -rounded ]
p3799
sbasg21
I00
sg22
g3799
sg23
I00
sg24
S'R'
sbsg42
(irule
FeatureMatrix
p3800
(dp3801
g35
(lp3802
(I00
g2808
tp3803
asg22
V[ -voice ]
p3804
sbsg22
V[ -voice ] ---> s^y / [ +voice ] _ [ +high -rounded ]
p3805
sba(irule
Rule
p3806
(dp3807
g15
(irule
Guard
p3808
(dp3809
g18
I00
sg19
(lp3810
(irule
FeatureMatrix
p3811
(dp3812
g35
(lp3813
(I00
g3656
tp3814
asg22
V[ -anterior ]
p3815
sbasg21
I00
sg22
g3815
sg23
I00
sg24
S'L'
sbsg25
(irule
ConstantPhoneme
p3816
(dp3817
S'p'
g2813
sbsg29
(irule
Guard
p3818
(dp3819
g18
I00
sg19
(lp3820
(irule
FeatureMatrix
p3821
(dp3822
g35
(lp3823
(I01
g2820
tp3824
asg22
V[ +high ]
p3825
sbasg21
I00
sg22
g3825
sg23
I00
sg24
S'R'
sbsg42
(irule
FeatureMatrix
p3826
(dp3827
g35
(lp3828
(I00
g2808
tp3829
asg22
V[ -voice ]
p3830
sbsg22
V[ -voice ] ---> s^y / [ -anterior ] _ [ +high ]
p3831
sba(irule
Rule
p3832
(dp3833
g15
(irule
Guard
p3834
(dp3835
g18
I00
sg19
(lp3836
(irule
FeatureMatrix
p3837
(dp3838
g35
(lp3839
(I01
g2838
tp3840
asg22
V[ +vowel ]
p3841
sbasg21
I00
sg22
g3841
sg23
I00
sg24
S'L'
sbsg25
(irule
ConstantPhoneme
p3842
(dp3843
S'p'
g2813
sbsg29
(irule
Guard
p3844
(dp3845
g18
I00
sg19
(lp3846
(irule
FeatureMatrix
p3847
(dp3848
g35
(lp3849
(I00
S'coronal'
p3850
tp3851
a(I00
g3658
tp3852
asg22
V[ -coronal -low ]
p3853
sbasg21
I00
sg22
g3853
sg23
I00
sg24
S'R'
sbsg42
(irule
FeatureMatrix
p3854
(dp3855
g35
(lp3856
(I00
g2826
tp3857
asg22
V[ -sonorant ]
p3858
sbsg22
V[ -sonorant ] ---> s^y / [ +vowel ] _ [ -coronal -low ]
p3859
sba(irule
Rule
p3860
(dp3861
g15
(irule
Guard
p3862
(dp3863
g18
I00
sg19
(lp3864
(irule
FeatureMatrix
p3865
(dp3866
g35
(lp3867
(I01
g2838
tp3868
asg22
V[ +vowel ]
p3869
sba(irule
FeatureMatrix
p3870
(dp3871
g35
(lp3872
(I00
g2838
tp3873
asg22
V[ -vowel ]
p3874
sbasg21
I00
sg22
V[ -vowel ] [ +vowel ]
p3875
sg23
I00
sg24
S'L'
sbsg25
(irule
ConstantPhoneme
p3876
(dp3877
S'p'
g2813
sbsg29
(irule
Guard
p3878
(dp3879
g18
I00
sg19
(lp3880
(irule
FeatureMatrix
p3881
(dp3882
g35
(lp3883
(I01
g2820
tp3884
asg22
V[ +high ]
p3885
sbasg21
I00
sg22
g3885
sg23
I00
sg24
S'R'
sbsg42
(irule
FeatureMatrix
p3886
(dp3887
g35
(lp3888
(I00
g2808
tp3889
asg22
V[ -voice ]
p3890
sbsg22
V[ -voice ] ---> s^y / [ -vowel ] [ +vowel ] _ [ +high ]
p3891
sba(irule
Rule
p3892
(dp3893
g15
(irule
Guard
p3894
(dp3895
g18
I00
sg19
(lp3896
(irule
FeatureMatrix
p3897
(dp3898
g35
(lp3899
(I01
g2838
tp3900
asg22
V[ +vowel ]
p3901
sba(irule
FeatureMatrix
p3902
(dp3903
g35
(lp3904
sg22
V[  ]
p3905
sbasg21
I00
sg22
V[  ] [ +vowel ]
p3906
sg23
I00
sg24
S'L'
sbsg25
(irule
ConstantPhoneme
p3907
(dp3908
S'p'
g2813
sbsg29
(irule
Guard
p3909
(dp3910
g18
I00
sg19
(lp3911
(irule
FeatureMatrix
p3912
(dp3913
g35
(lp3914
(I01
g2820
tp3915
asg22
V[ +high ]
p3916
sbasg21
I00
sg22
g3916
sg23
I00
sg24
S'R'
sbsg42
(irule
FeatureMatrix
p3917
(dp3918
g35
(lp3919
(I00
g2808
tp3920
asg22
V[ -voice ]
p3921
sbsg22
V[ -voice ] ---> s^y / [  ] [ +vowel ] _ [ +high ]
p3922
sba(irule
Rule
p3923
(dp3924
g15
(irule
Guard
p3925
(dp3926
g18
I00
sg19
(lp3927
(irule
FeatureMatrix
p3928
(dp3929
g35
(lp3930
(I01
g2838
tp3931
asg22
V[ +vowel ]
p3932
sba(irule
FeatureMatrix
p3933
(dp3934
g35
(lp3935
(I00
g2838
tp3936
asg22
V[ -vowel ]
p3937
sbasg21
I00
sg22
V[ -vowel ] [ +vowel ]
p3938
sg23
I00
sg24
S'L'
sbsg25
(irule
ConstantPhoneme
p3939
(dp3940
S'p'
g2813
sbsg29
(irule
Guard
p3941
(dp3942
g18
I00
sg19
(lp3943
(irule
FeatureMatrix
p3944
(dp3945
g35
(lp3946
(I01
g2820
tp3947
asg22
V[ +high ]
p3948
sbasg21
I00
sg22
g3948
sg23
I00
sg24
S'R'
sbsg42
(irule
FeatureMatrix
p3949
(dp3950
g35
(lp3951
(I00
g2826
tp3952
asg22
V[ -sonorant ]
p3953
sbsg22
V[ -sonorant ] ---> s^y / [ -vowel ] [ +vowel ] _ [ +high ]
p3954
sba(irule
Rule
p3955
(dp3956
g15
(irule
Guard
p3957
(dp3958
g18
I00
sg19
(lp3959
(irule
FeatureMatrix
p3960
(dp3961
g35
(lp3962
(I01
g2838
tp3963
asg22
V[ +vowel ]
p3964
sbasg21
I00
sg22
g3964
sg23
I00
sg24
S'L'
sbsg25
(irule
ConstantPhoneme
p3965
(dp3966
S'p'
g2813
sbsg29
(irule
Guard
p3967
(dp3968
g18
I00
sg19
(lp3969
(irule
FeatureMatrix
p3970
(dp3971
g35
(lp3972
(I00
g3279
tp3973
a(I01
g2820
tp3974
asg22
V[ +high -rounded ]
p3975
sbasg21
I00
sg22
g3975
sg23
I00
sg24
S'R'
sbsg42
(irule
FeatureMatrix
p3976
(dp3977
g35
(lp3978
sg22
V[  ]
p3979
sbsg22
V[  ] ---> s^y / [ +vowel ] _ [ +high -rounded ]
p3980
sba(irule
Rule
p3981
(dp3982
g15
(irule
Guard
p3983
(dp3984
g18
I00
sg19
(lp3985
(irule
FeatureMatrix
p3986
(dp3987
g35
(lp3988
(I01
g2808
tp3989
asg22
V[ +voice ]
p3990
sbasg21
I00
sg22
g3990
sg23
I00
sg24
S'L'
sbsg25
(irule
ConstantPhoneme
p3991
(dp3992
S'p'
g2813
sbsg29
(irule
Guard
p3993
(dp3994
g18
I00
sg19
(lp3995
(irule
FeatureMatrix
p3996
(dp3997
g35
(lp3998
(I00
g3656
tp3999
a(I01
g2820
tp4000
asg22
V[ +high -anterior ]
p4001
sbasg21
I00
sg22
g4001
sg23
I00
sg24
S'R'
sbsg42
(irule
FeatureMatrix
p4002
(dp4003
g35
(lp4004
(I00
g2826
tp4005
asg22
V[ -sonorant ]
p4006
sbsg22
V[ -sonorant ] ---> s^y / [ +voice ] _ [ +high -anterior ]
p4007
sba(irule
Rule
p4008
(dp4009
g15
(irule
Guard
p4010
(dp4011
g18
I00
sg19
(lp4012
(irule
FeatureMatrix
p4013
(dp4014
g35
(lp4015
(I01
g2826
tp4016
asg22
V[ +sonorant ]
p4017
sbasg21
I00
sg22
g4017
sg23
I00
sg24
S'L'
sbsg25
(irule
ConstantPhoneme
p4018
(dp4019
S'p'
g2813
sbsg29
(irule
Guard
p4020
(dp4021
g18
I00
sg19
(lp4022
(irule
FeatureMatrix
p4023
(dp4024
g35
(lp4025
(I01
g2820
tp4026
asg22
V[ +high ]
p4027
sbasg21
I00
sg22
g4027
sg23
I00
sg24
S'R'
sbsg42
(irule
FeatureMatrix
p4028
(dp4029
g35
(lp4030
(I00
g2826
tp4031
asg22
V[ -sonorant ]
p4032
sbsg22
V[ -sonorant ] ---> s^y / [ +sonorant ] _ [ +high ]
p4033
sba(irule
Rule
p4034
(dp4035
g15
(irule
Guard
p4036
(dp4037
g18
I00
sg19
(lp4038
(irule
FeatureMatrix
p4039
(dp4040
g35
(lp4041
(I01
g2808
tp4042
asg22
V[ +voice ]
p4043
sbasg21
I00
sg22
g4043
sg23
I00
sg24
S'L'
sbsg25
(irule
ConstantPhoneme
p4044
(dp4045
S'p'
g2813
sbsg29
(irule
Guard
p4046
(dp4047
g18
I00
sg19
(lp4048
(irule
FeatureMatrix
p4049
(dp4050
g35
(lp4051
(I00
g3850
tp4052
a(I00
g3658
tp4053
asg22
V[ -coronal -low ]
p4054
sbasg21
I00
sg22
g4054
sg23
I00
sg24
S'R'
sbsg42
(irule
FeatureMatrix
p4055
(dp4056
g35
(lp4057
(I00
g2826
tp4058
asg22
V[ -sonorant ]
p4059
sbsg22
V[ -sonorant ] ---> s^y / [ +voice ] _ [ -coronal -low ]
p4060
sba(irule
Rule
p4061
(dp4062
g15
(irule
Guard
p4063
(dp4064
g18
I00
sg19
(lp4065
(irule
FeatureMatrix
p4066
(dp4067
g35
(lp4068
(I01
g2808
tp4069
asg22
V[ +voice ]
p4070
sbasg21
I00
sg22
g4070
sg23
I00
sg24
S'L'
sbsg25
(irule
ConstantPhoneme
p4071
(dp4072
S'p'
g2813
sbsg29
(irule
Guard
p4073
(dp4074
g18
I00
sg19
(lp4075
(irule
FeatureMatrix
p4076
(dp4077
g35
(lp4078
(I00
g3850
tp4079
a(I00
g3658
tp4080
asg22
V[ -coronal -low ]
p4081
sbasg21
I00
sg22
g4081
sg23
I00
sg24
S'R'
sbsg42
(irule
FeatureMatrix
p4082
(dp4083
g35
(lp4084
(I00
g2808
tp4085
asg22
V[ -voice ]
p4086
sbsg22
V[ -voice ] ---> s^y / [ +voice ] _ [ -coronal -low ]
p4087
sba(irule
Rule
p4088
(dp4089
g15
(irule
Guard
p4090
(dp4091
g18
I00
sg19
(lp4092
(irule
FeatureMatrix
p4093
(dp4094
g35
(lp4095
(I01
S'tense'
p4096
tp4097
asg22
V[ +tense ]
p4098
sbasg21
I00
sg22
g4098
sg23
I00
sg24
S'L'
sbsg25
(irule
ConstantPhoneme
p4099
(dp4100
S'p'
g2813
sbsg29
(irule
Guard
p4101
(dp4102
g18
I00
sg19
(lp4103
(irule
FeatureMatrix
p4104
(dp4105
g35
(lp4106
(I01
g2820
tp4107
asg22
V[ +high ]
p4108
sbasg21
I00
sg22
g4108
sg23
I00
sg24
S'R'
sbsg42
(irule
FeatureMatrix
p4109
(dp4110
g35
(lp4111
(I00
g2826
tp4112
asg22
V[ -sonorant ]
p4113
sbsg22
V[ -sonorant ] ---> s^y / [ +tense ] _ [ +high ]
p4114
sba(irule
Rule
p4115
(dp4116
g15
(irule
Guard
p4117
(dp4118
g18
I00
sg19
(lp4119
(irule
FeatureMatrix
p4120
(dp4121
g35
(lp4122
(I01
g2838
tp4123
asg22
V[ +vowel ]
p4124
sbasg21
I00
sg22
g4124
sg23
I00
sg24
S'L'
sbsg25
(irule
ConstantPhoneme
p4125
(dp4126
S'p'
g2813
sbsg29
(irule
Guard
p4127
(dp4128
g18
I00
sg19
(lp4129
(irule
FeatureMatrix
p4130
(dp4131
g35
(lp4132
(I00
g3850
tp4133
a(I00
g3658
tp4134
asg22
V[ -coronal -low ]
p4135
sbasg21
I00
sg22
g4135
sg23
I00
sg24
S'R'
sbsg42
(irule
FeatureMatrix
p4136
(dp4137
g35
(lp4138
(I00
g2808
tp4139
asg22
V[ -voice ]
p4140
sbsg22
V[ -voice ] ---> s^y / [ +vowel ] _ [ -coronal -low ]
p4141
sba(irule
Rule
p4142
(dp4143
g15
(irule
Guard
p4144
(dp4145
g18
I00
sg19
(lp4146
(irule
FeatureMatrix
p4147
(dp4148
g35
(lp4149
(I01
g2838
tp4150
asg22
V[ +vowel ]
p4151
sbasg21
I00
sg22
g4151
sg23
I00
sg24
S'L'
sbsg25
(irule
ConstantPhoneme
p4152
(dp4153
S'p'
g2813
sbsg29
(irule
Guard
p4154
(dp4155
g18
I00
sg19
(lp4156
(irule
FeatureMatrix
p4157
(dp4158
g35
(lp4159
(I00
g3656
tp4160
a(I00
g3658
tp4161
asg22
V[ -anterior -low ]
p4162
sbasg21
I00
sg22
g4162
sg23
I00
sg24
S'R'
sbsg42
(irule
FeatureMatrix
p4163
(dp4164
g35
(lp4165
(I00
g2808
tp4166
asg22
V[ -voice ]
p4167
sbsg22
V[ -voice ] ---> s^y / [ +vowel ] _ [ -anterior -low ]
p4168
sba(irule
Rule
p4169
(dp4170
g15
(irule
Guard
p4171
(dp4172
g18
I00
sg19
(lp4173
(irule
FeatureMatrix
p4174
(dp4175
g35
(lp4176
(I01
g2838
tp4177
asg22
V[ +vowel ]
p4178
sbasg21
I00
sg22
g4178
sg23
I00
sg24
S'L'
sbsg25
(irule
ConstantPhoneme
p4179
(dp4180
S'p'
g2813
sbsg29
(irule
Guard
p4181
(dp4182
g18
I00
sg19
(lp4183
(irule
FeatureMatrix
p4184
(dp4185
g35
(lp4186
(I01
g2820
tp4187
a(I00
g3850
tp4188
asg22
V[ +high -coronal ]
p4189
sbasg21
I00
sg22
g4189
sg23
I00
sg24
S'R'
sbsg42
(irule
FeatureMatrix
p4190
(dp4191
g35
(lp4192
(I00
g2808
tp4193
asg22
V[ -voice ]
p4194
sbsg22
V[ -voice ] ---> s^y / [ +vowel ] _ [ +high -coronal ]
p4195
sba(irule
Rule
p4196
(dp4197
g15
(irule
Guard
p4198
(dp4199
g18
I00
sg19
(lp4200
(irule
FeatureMatrix
p4201
(dp4202
g35
(lp4203
(I01
g2838
tp4204
asg22
V[ +vowel ]
p4205
sbasg21
I00
sg22
g4205
sg23
I00
sg24
S'L'
sbsg25
(irule
ConstantPhoneme
p4206
(dp4207
S'p'
g2813
sbsg29
(irule
Guard
p4208
(dp4209
g18
I00
sg19
(lp4210
(irule
FeatureMatrix
p4211
(dp4212
g35
(lp4213
(I00
g3279
tp4214
a(I01
g2820
tp4215
asg22
V[ +high -rounded ]
p4216
sbasg21
I00
sg22
g4216
sg23
I00
sg24
S'R'
sbsg42
(irule
FeatureMatrix
p4217
(dp4218
g35
(lp4219
(I00
g2808
tp4220
asg22
V[ -voice ]
p4221
sbsg22
V[ -voice ] ---> s^y / [ +vowel ] _ [ +high -rounded ]
p4222
sba(irule
Rule
p4223
(dp4224
g15
(irule
Guard
p4225
(dp4226
g18
I00
sg19
(lp4227
(irule
FeatureMatrix
p4228
(dp4229
g35
(lp4230
sg22
V[  ]
p4231
sba(irule
FeatureMatrix
p4232
(dp4233
g35
(lp4234
(I00
g2838
tp4235
asg22
V[ -vowel ]
p4236
sbasg21
I00
sg22
V[ -vowel ] [  ]
p4237
sg23
I00
sg24
S'L'
sbsg25
(irule
ConstantPhoneme
p4238
(dp4239
S'p'
g2813
sbsg29
(irule
Guard
p4240
(dp4241
g18
I00
sg19
(lp4242
(irule
FeatureMatrix
p4243
(dp4244
g35
(lp4245
(I01
g2820
tp4246
asg22
V[ +high ]
p4247
sbasg21
I00
sg22
g4247
sg23
I00
sg24
S'R'
sbsg42
(irule
FeatureMatrix
p4248
(dp4249
g35
(lp4250
(I00
g2808
tp4251
asg22
V[ -voice ]
p4252
sbsg22
V[ -voice ] ---> s^y / [ -vowel ] [  ] _ [ +high ]
p4253
sba(irule
Rule
p4254
(dp4255
g15
(irule
Guard
p4256
(dp4257
g18
I00
sg19
(lp4258
(irule
FeatureMatrix
p4259
(dp4260
g35
(lp4261
(I01
g2808
tp4262
asg22
V[ +voice ]
p4263
sbasg21
I00
sg22
g4263
sg23
I00
sg24
S'L'
sbsg25
(irule
ConstantPhoneme
p4264
(dp4265
S'p'
g2813
sbsg29
(irule
Guard
p4266
(dp4267
g18
I00
sg19
(lp4268
(irule
FeatureMatrix
p4269
(dp4270
g35
(lp4271
(I00
g3656
tp4272
a(I00
g3658
tp4273
asg22
V[ -anterior -low ]
p4274
sbasg21
I00
sg22
g4274
sg23
I00
sg24
S'R'
sbsg42
(irule
FeatureMatrix
p4275
(dp4276
g35
(lp4277
(I00
g2808
tp4278
asg22
V[ -voice ]
p4279
sbsg22
V[ -voice ] ---> s^y / [ +voice ] _ [ -anterior -low ]
p4280
sba(irule
Rule
p4281
(dp4282
g15
(irule
Guard
p4283
(dp4284
g18
I00
sg19
(lp4285
(irule
FeatureMatrix
p4286
(dp4287
g35
(lp4288
sg22
V[  ]
p4289
sba(irule
FeatureMatrix
p4290
(dp4291
g35
(lp4292
(I00
g2838
tp4293
asg22
V[ -vowel ]
p4294
sbasg21
I00
sg22
V[ -vowel ] [  ]
p4295
sg23
I00
sg24
S'L'
sbsg25
(irule
ConstantPhoneme
p4296
(dp4297
S'p'
g2813
sbsg29
(irule
Guard
p4298
(dp4299
g18
I00
sg19
(lp4300
(irule
FeatureMatrix
p4301
(dp4302
g35
(lp4303
(I01
g2820
tp4304
asg22
V[ +high ]
p4305
sbasg21
I00
sg22
g4305
sg23
I00
sg24
S'R'
sbsg42
(irule
FeatureMatrix
p4306
(dp4307
g35
(lp4308
(I00
g2826
tp4309
asg22
V[ -sonorant ]
p4310
sbsg22
V[ -sonorant ] ---> s^y / [ -vowel ] [  ] _ [ +high ]
p4311
sba(irule
Rule
p4312
(dp4313
g15
(irule
Guard
p4314
(dp4315
g18
I00
sg19
(lp4316
(irule
FeatureMatrix
p4317
(dp4318
g35
(lp4319
(I01
g2808
tp4320
asg22
V[ +voice ]
p4321
sbasg21
I00
sg22
g4321
sg23
I00
sg24
S'L'
sbsg25
(irule
ConstantPhoneme
p4322
(dp4323
S'p'
g2813
sbsg29
(irule
Guard
p4324
(dp4325
g18
I00
sg19
(lp4326
(irule
FeatureMatrix
p4327
(dp4328
g35
(lp4329
(I00
g3279
tp4330
a(I01
g2820
tp4331
asg22
V[ +high -rounded ]
p4332
sbasg21
I00
sg22
g4332
sg23
I00
sg24
S'R'
sbsg42
(irule
FeatureMatrix
p4333
(dp4334
g35
(lp4335
(I00
g2826
tp4336
asg22
V[ -sonorant ]
p4337
sbsg22
V[ -sonorant ] ---> s^y / [ +voice ] _ [ +high -rounded ]
p4338
sba(irule
Rule
p4339
(dp4340
g15
(irule
Guard
p4341
(dp4342
g18
I00
sg19
(lp4343
(irule
FeatureMatrix
p4344
(dp4345
g35
(lp4346
(I01
g2808
tp4347
asg22
V[ +voice ]
p4348
sba(irule
FeatureMatrix
p4349
(dp4350
g35
(lp4351
sg22
V[  ]
p4352
sbasg21
I00
sg22
V[  ] [ +voice ]
p4353
sg23
I00
sg24
S'L'
sbsg25
(irule
ConstantPhoneme
p4354
(dp4355
S'p'
g2813
sbsg29
(irule
Guard
p4356
(dp4357
g18
I00
sg19
(lp4358
(irule
FeatureMatrix
p4359
(dp4360
g35
(lp4361
(I01
g2820
tp4362
asg22
V[ +high ]
p4363
sbasg21
I00
sg22
g4363
sg23
I00
sg24
S'R'
sbsg42
(irule
FeatureMatrix
p4364
(dp4365
g35
(lp4366
(I00
g2826
tp4367
asg22
V[ -sonorant ]
p4368
sbsg22
V[ -sonorant ] ---> s^y / [  ] [ +voice ] _ [ +high ]
p4369
sba(irule
Rule
p4370
(dp4371
g15
(irule
Guard
p4372
(dp4373
g18
I00
sg19
(lp4374
(irule
FeatureMatrix
p4375
(dp4376
g35
(lp4377
(I01
g2808
tp4378
asg22
V[ +voice ]
p4379
sbasg21
I00
sg22
g4379
sg23
I00
sg24
S'L'
sbsg25
(irule
ConstantPhoneme
p4380
(dp4381
S'p'
g2813
sbsg29
(irule
Guard
p4382
(dp4383
g18
I00
sg19
(lp4384
(irule
FeatureMatrix
p4385
(dp4386
g35
(lp4387
(I01
g2820
tp4388
a(I00
g3658
tp4389
asg22
V[ +high -low ]
p4390
sbasg21
I00
sg22
g4390
sg23
I00
sg24
S'R'
sbsg42
(irule
FeatureMatrix
p4391
(dp4392
g35
(lp4393
(I00
g2826
tp4394
asg22
V[ -sonorant ]
p4395
sbsg22
V[ -sonorant ] ---> s^y / [ +voice ] _ [ +high -low ]
p4396
sba(irule
Rule
p4397
(dp4398
g15
(irule
Guard
p4399
(dp4400
g18
I00
sg19
(lp4401
(irule
FeatureMatrix
p4402
(dp4403
g35
(lp4404
(I01
g2838
tp4405
asg22
V[ +vowel ]
p4406
sbasg21
I00
sg22
g4406
sg23
I00
sg24
S'L'
sbsg25
(irule
ConstantPhoneme
p4407
(dp4408
S'p'
g2813
sbsg29
(irule
Guard
p4409
(dp4410
g18
I00
sg19
(lp4411
(irule
FeatureMatrix
p4412
(dp4413
g35
(lp4414
(I01
g2820
tp4415
a(I00
g3658
tp4416
asg22
V[ +high -low ]
p4417
sbasg21
I00
sg22
g4417
sg23
I00
sg24
S'R'
sbsg42
(irule
FeatureMatrix
p4418
(dp4419
g35
(lp4420
(I00
g2826
tp4421
asg22
V[ -sonorant ]
p4422
sbsg22
V[ -sonorant ] ---> s^y / [ +vowel ] _ [ +high -low ]
p4423
sba(irule
Rule
p4424
(dp4425
g15
(irule
Guard
p4426
(dp4427
g18
I00
sg19
(lp4428
(irule
FeatureMatrix
p4429
(dp4430
g35
(lp4431
(I01
g2808
tp4432
asg22
V[ +voice ]
p4433
sbasg21
I00
sg22
g4433
sg23
I00
sg24
S'L'
sbsg25
(irule
ConstantPhoneme
p4434
(dp4435
S'p'
g2813
sbsg29
(irule
Guard
p4436
(dp4437
g18
I00
sg19
(lp4438
(irule
FeatureMatrix
p4439
(dp4440
g35
(lp4441
(I00
S'lateral'
p4442
tp4443
a(I01
g2820
tp4444
asg22
V[ +high -lateral ]
p4445
sbasg21
I00
sg22
g4445
sg23
I00
sg24
S'R'
sbsg42
(irule
FeatureMatrix
p4446
(dp4447
g35
(lp4448
(I00
g2826
tp4449
asg22
V[ -sonorant ]
p4450
sbsg22
V[ -sonorant ] ---> s^y / [ +voice ] _ [ +high -lateral ]
p4451
sba(irule
Rule
p4452
(dp4453
g15
(irule
Guard
p4454
(dp4455
g18
I00
sg19
(lp4456
(irule
FeatureMatrix
p4457
(dp4458
g35
(lp4459
(I00
g3656
tp4460
asg22
V[ -anterior ]
p4461
sbasg21
I00
sg22
g4461
sg23
I00
sg24
S'L'
sbsg25
(irule
ConstantPhoneme
p4462
(dp4463
S'p'
g2813
sbsg29
(irule
Guard
p4464
(dp4465
g18
I00
sg19
(lp4466
(irule
FeatureMatrix
p4467
(dp4468
g35
(lp4469
(I01
g2820
tp4470
asg22
V[ +high ]
p4471
sbasg21
I00
sg22
g4471
sg23
I00
sg24
S'R'
sbsg42
(irule
FeatureMatrix
p4472
(dp4473
g35
(lp4474
(I00
g2826
tp4475
asg22
V[ -sonorant ]
p4476
sbsg22
V[ -sonorant ] ---> s^y / [ -anterior ] _ [ +high ]
p4477
sba(irule
Rule
p4478
(dp4479
g15
(irule
Guard
p4480
(dp4481
g18
I00
sg19
(lp4482
(irule
FeatureMatrix
p4483
(dp4484
g35
(lp4485
(I01
g4096
tp4486
asg22
V[ +tense ]
p4487
sbasg21
I00
sg22
g4487
sg23
I00
sg24
S'L'
sbsg25
(irule
ConstantPhoneme
p4488
(dp4489
S'p'
g2813
sbsg29
(irule
Guard
p4490
(dp4491
g18
I00
sg19
(lp4492
(irule
FeatureMatrix
p4493
(dp4494
g35
(lp4495
(I01
g2820
tp4496
asg22
V[ +high ]
p4497
sbasg21
I00
sg22
g4497
sg23
I00
sg24
S'R'
sbsg42
(irule
FeatureMatrix
p4498
(dp4499
g35
(lp4500
(I00
g2808
tp4501
asg22
V[ -voice ]
p4502
sbsg22
V[ -voice ] ---> s^y / [ +tense ] _ [ +high ]
p4503
sba(irule
Rule
p4504
(dp4505
g15
(irule
Guard
p4506
(dp4507
g18
I00
sg19
(lp4508
(irule
FeatureMatrix
p4509
(dp4510
g35
(lp4511
(I01
g2808
tp4512
asg22
V[ +voice ]
p4513
sbasg21
I00
sg22
g4513
sg23
I00
sg24
S'L'
sbsg25
(irule
ConstantPhoneme
p4514
(dp4515
S'p'
g2813
sbsg29
(irule
Guard
p4516
(dp4517
g18
I00
sg19
(lp4518
(irule
FeatureMatrix
p4519
(dp4520
g35
(lp4521
(I00
g3628
tp4522
a(I01
g2820
tp4523
asg22
V[ +high -nasal ]
p4524
sbasg21
I00
sg22
g4524
sg23
I00
sg24
S'R'
sbsg42
(irule
FeatureMatrix
p4525
(dp4526
g35
(lp4527
(I00
g2808
tp4528
asg22
V[ -voice ]
p4529
sbsg22
V[ -voice ] ---> s^y / [ +voice ] _ [ +high -nasal ]
p4530
sba(irule
Rule
p4531
(dp4532
g15
(irule
Guard
p4533
(dp4534
g18
I00
sg19
(lp4535
(irule
FeatureMatrix
p4536
(dp4537
g35
(lp4538
(I00
g3209
tp4539
asg22
V[ -sibilant ]
p4540
sbasg21
I00
sg22
g4540
sg23
I00
sg24
S'L'
sbsg25
(irule
ConstantPhoneme
p4541
(dp4542
S'p'
g2813
sbsg29
(irule
Guard
p4543
(dp4544
g18
I00
sg19
(lp4545
(irule
FeatureMatrix
p4546
(dp4547
g35
(lp4548
(I01
g2820
tp4549
asg22
V[ +high ]
p4550
sbasg21
I00
sg22
g4550
sg23
I00
sg24
S'R'
sbsg42
(irule
FeatureMatrix
p4551
(dp4552
g35
(lp4553
(I00
g2808
tp4554
asg22
V[ -voice ]
p4555
sbsg22
V[ -voice ] ---> s^y / [ -sibilant ] _ [ +high ]
p4556
sba(irule
Rule
p4557
(dp4558
g15
(irule
Guard
p4559
(dp4560
g18
I00
sg19
(lp4561
(irule
FeatureMatrix
p4562
(dp4563
g35
(lp4564
(I01
g2808
tp4565
asg22
V[ +voice ]
p4566
sba(irule
FeatureMatrix
p4567
(dp4568
g35
(lp4569
(I00
g2838
tp4570
asg22
V[ -vowel ]
p4571
sbasg21
I00
sg22
V[ -vowel ] [ +voice ]
p4572
sg23
I00
sg24
S'L'
sbsg25
(irule
ConstantPhoneme
p4573
(dp4574
S'p'
g2813
sbsg29
(irule
Guard
p4575
(dp4576
g18
I00
sg19
(lp4577
(irule
FeatureMatrix
p4578
(dp4579
g35
(lp4580
(I01
g2820
tp4581
asg22
V[ +high ]
p4582
sbasg21
I00
sg22
g4582
sg23
I00
sg24
S'R'
sbsg42
(irule
FeatureMatrix
p4583
(dp4584
g35
(lp4585
(I00
g2808
tp4586
asg22
V[ -voice ]
p4587
sbsg22
V[ -voice ] ---> s^y / [ -vowel ] [ +voice ] _ [ +high ]
p4588
sba(irule
Rule
p4589
(dp4590
g15
(irule
Guard
p4591
(dp4592
g18
I00
sg19
(lp4593
(irule
FeatureMatrix
p4594
(dp4595
g35
(lp4596
(I01
g2808
tp4597
asg22
V[ +voice ]
p4598
sbasg21
I00
sg22
g4598
sg23
I00
sg24
S'L'
sbsg25
(irule
ConstantPhoneme
p4599
(dp4600
S'p'
g2813
sbsg29
(irule
Guard
p4601
(dp4602
g18
I00
sg19
(lp4603
(irule
FeatureMatrix
p4604
(dp4605
g35
(lp4606
(I00
g4442
tp4607
a(I01
g2820
tp4608
asg22
V[ +high -lateral ]
p4609
sbasg21
I00
sg22
g4609
sg23
I00
sg24
S'R'
sbsg42
(irule
FeatureMatrix
p4610
(dp4611
g35
(lp4612
(I00
g2808
tp4613
asg22
V[ -voice ]
p4614
sbsg22
V[ -voice ] ---> s^y / [ +voice ] _ [ +high -lateral ]
p4615
sba(irule
Rule
p4616
(dp4617
g15
(irule
Guard
p4618
(dp4619
g18
I00
sg19
(lp4620
(irule
FeatureMatrix
p4621
(dp4622
g35
(lp4623
(I00
g3850
tp4624
asg22
V[ -coronal ]
p4625
sbasg21
I00
sg22
g4625
sg23
I00
sg24
S'L'
sbsg25
(irule
ConstantPhoneme
p4626
(dp4627
S'p'
g2813
sbsg29
(irule
Guard
p4628
(dp4629
g18
I00
sg19
(lp4630
(irule
FeatureMatrix
p4631
(dp4632
g35
(lp4633
(I01
g2820
tp4634
asg22
V[ +high ]
p4635
sbasg21
I00
sg22
g4635
sg23
I00
sg24
S'R'
sbsg42
(irule
FeatureMatrix
p4636
(dp4637
g35
(lp4638
(I00
g2808
tp4639
asg22
V[ -voice ]
p4640
sbsg22
V[ -voice ] ---> s^y / [ -coronal ] _ [ +high ]
p4641
sba(irule
Rule
p4642
(dp4643
g15
(irule
Guard
p4644
(dp4645
g18
I00
sg19
(lp4646
(irule
FeatureMatrix
p4647
(dp4648
g35
(lp4649
(I00
g3850
tp4650
asg22
V[ -coronal ]
p4651
sbasg21
I00
sg22
g4651
sg23
I00
sg24
S'L'
sbsg25
(irule
ConstantPhoneme
p4652
(dp4653
S'p'
g2813
sbsg29
(irule
Guard
p4654
(dp4655
g18
I00
sg19
(lp4656
(irule
FeatureMatrix
p4657
(dp4658
g35
(lp4659
(I01
g2820
tp4660
asg22
V[ +high ]
p4661
sbasg21
I00
sg22
g4661
sg23
I00
sg24
S'R'
sbsg42
(irule
FeatureMatrix
p4662
(dp4663
g35
(lp4664
(I00
g2826
tp4665
asg22
V[ -sonorant ]
p4666
sbsg22
V[ -sonorant ] ---> s^y / [ -coronal ] _ [ +high ]
p4667
sba(irule
Rule
p4668
(dp4669
g15
(irule
Guard
p4670
(dp4671
g18
I00
sg19
(lp4672
(irule
FeatureMatrix
p4673
(dp4674
g35
(lp4675
(I01
g2826
tp4676
asg22
V[ +sonorant ]
p4677
sbasg21
I00
sg22
g4677
sg23
I00
sg24
S'L'
sbsg25
(irule
ConstantPhoneme
p4678
(dp4679
S'p'
g2813
sbsg29
(irule
Guard
p4680
(dp4681
g18
I00
sg19
(lp4682
(irule
FeatureMatrix
p4683
(dp4684
g35
(lp4685
(I01
g2820
tp4686
asg22
V[ +high ]
p4687
sbasg21
I00
sg22
g4687
sg23
I00
sg24
S'R'
sbsg42
(irule
FeatureMatrix
p4688
(dp4689
g35
(lp4690
(I00
g2808
tp4691
asg22
V[ -voice ]
p4692
sbsg22
V[ -voice ] ---> s^y / [ +sonorant ] _ [ +high ]
p4693
sba(irule
Rule
p4694
(dp4695
g15
(irule
Guard
p4696
(dp4697
g18
I00
sg19
(lp4698
(irule
FeatureMatrix
p4699
(dp4700
g35
(lp4701
(I01
g2808
tp4702
asg22
V[ +voice ]
p4703
sba(irule
FeatureMatrix
p4704
(dp4705
g35
(lp4706
(I00
g2838
tp4707
asg22
V[ -vowel ]
p4708
sbasg21
I00
sg22
V[ -vowel ] [ +voice ]
p4709
sg23
I00
sg24
S'L'
sbsg25
(irule
ConstantPhoneme
p4710
(dp4711
S'p'
g2813
sbsg29
(irule
Guard
p4712
(dp4713
g18
I00
sg19
(lp4714
(irule
FeatureMatrix
p4715
(dp4716
g35
(lp4717
(I01
g2820
tp4718
asg22
V[ +high ]
p4719
sbasg21
I00
sg22
g4719
sg23
I00
sg24
S'R'
sbsg42
(irule
FeatureMatrix
p4720
(dp4721
g35
(lp4722
(I00
g2826
tp4723
asg22
V[ -sonorant ]
p4724
sbsg22
V[ -sonorant ] ---> s^y / [ -vowel ] [ +voice ] _ [ +high ]
p4725
sba(irule
Rule
p4726
(dp4727
g15
(irule
Guard
p4728
(dp4729
g18
I00
sg19
(lp4730
(irule
FeatureMatrix
p4731
(dp4732
g35
(lp4733
(I01
g2808
tp4734
asg22
V[ +voice ]
p4735
sbasg21
I00
sg22
g4735
sg23
I00
sg24
S'L'
sbsg25
(irule
ConstantPhoneme
p4736
(dp4737
S'p'
g2813
sbsg29
(irule
Guard
p4738
(dp4739
g18
I00
sg19
(lp4740
(irule
FeatureMatrix
p4741
(dp4742
g35
(lp4743
(I01
g2820
tp4744
a(I00
g3850
tp4745
asg22
V[ +high -coronal ]
p4746
sbasg21
I00
sg22
g4746
sg23
I00
sg24
S'R'
sbsg42
(irule
FeatureMatrix
p4747
(dp4748
g35
(lp4749
(I00
g2826
tp4750
asg22
V[ -sonorant ]
p4751
sbsg22
V[ -sonorant ] ---> s^y / [ +voice ] _ [ +high -coronal ]
p4752
sba(irule
Rule
p4753
(dp4754
g15
(irule
Guard
p4755
(dp4756
g18
I00
sg19
(lp4757
(irule
FeatureMatrix
p4758
(dp4759
g35
(lp4760
(I01
g2838
tp4761
asg22
V[ +vowel ]
p4762
sba(irule
FeatureMatrix
p4763
(dp4764
g35
(lp4765
sg22
V[  ]
p4766
sbasg21
I00
sg22
V[  ] [ +vowel ]
p4767
sg23
I00
sg24
S'L'
sbsg25
(irule
ConstantPhoneme
p4768
(dp4769
S'p'
g2813
sbsg29
(irule
Guard
p4770
(dp4771
g18
I00
sg19
(lp4772
(irule
FeatureMatrix
p4773
(dp4774
g35
(lp4775
(I01
g2820
tp4776
asg22
V[ +high ]
p4777
sbasg21
I00
sg22
g4777
sg23
I00
sg24
S'R'
sbsg42
(irule
FeatureMatrix
p4778
(dp4779
g35
(lp4780
(I00
g2826
tp4781
asg22
V[ -sonorant ]
p4782
sbsg22
V[ -sonorant ] ---> s^y / [  ] [ +vowel ] _ [ +high ]
p4783
sba(irule
Rule
p4784
(dp4785
g15
(irule
Guard
p4786
(dp4787
g18
I00
sg19
(lp4788
(irule
FeatureMatrix
p4789
(dp4790
g35
(lp4791
(I01
g2808
tp4792
asg22
V[ +voice ]
p4793
sbasg21
I00
sg22
g4793
sg23
I00
sg24
S'L'
sbsg25
(irule
ConstantPhoneme
p4794
(dp4795
S'p'
g2813
sbsg29
(irule
Guard
p4796
(dp4797
g18
I00
sg19
(lp4798
(irule
FeatureMatrix
p4799
(dp4800
g35
(lp4801
(I00
g3098
tp4802
a(I01
g2820
tp4803
asg22
V[ +high -liquid ]
p4804
sbasg21
I00
sg22
g4804
sg23
I00
sg24
S'R'
sbsg42
(irule
FeatureMatrix
p4805
(dp4806
g35
(lp4807
(I00
g2826
tp4808
asg22
V[ -sonorant ]
p4809
sbsg22
V[ -sonorant ] ---> s^y / [ +voice ] _ [ +high -liquid ]
p4810
sba(irule
Rule
p4811
(dp4812
g15
(irule
Guard
p4813
(dp4814
g18
I00
sg19
(lp4815
(irule
FeatureMatrix
p4816
(dp4817
g35
(lp4818
(I01
g2808
tp4819
asg22
V[ +voice ]
p4820
sbasg21
I00
sg22
g4820
sg23
I00
sg24
S'L'
sbsg25
(irule
ConstantPhoneme
p4821
(dp4822
S'p'
g2813
sbsg29
(irule
Guard
p4823
(dp4824
g18
I00
sg19
(lp4825
(irule
FeatureMatrix
p4826
(dp4827
g35
(lp4828
(I00
S'glide'
p4829
tp4830
a(I01
g2820
tp4831
asg22
V[ +high -glide ]
p4832
sbasg21
I00
sg22
g4832
sg23
I00
sg24
S'R'
sbsg42
(irule
FeatureMatrix
p4833
(dp4834
g35
(lp4835
(I00
g2826
tp4836
asg22
V[ -sonorant ]
p4837
sbsg22
V[ -sonorant ] ---> s^y / [ +voice ] _ [ +high -glide ]
p4838
sba(irule
Rule
p4839
(dp4840
g15
(irule
Guard
p4841
(dp4842
g18
I00
sg19
(lp4843
(irule
FeatureMatrix
p4844
(dp4845
g35
(lp4846
(I01
g2838
tp4847
asg22
V[ +vowel ]
p4848
sbasg21
I00
sg22
g4848
sg23
I00
sg24
S'L'
sbsg25
(irule
ConstantPhoneme
p4849
(dp4850
S'p'
g2813
sbsg29
(irule
Guard
p4851
(dp4852
g18
I00
sg19
(lp4853
(irule
FeatureMatrix
p4854
(dp4855
g35
(lp4856
(I01
g2820
tp4857
a(I00
g3209
tp4858
asg22
V[ +high -sibilant ]
p4859
sbasg21
I00
sg22
g4859
sg23
I00
sg24
S'R'
sbsg42
(irule
FeatureMatrix
p4860
(dp4861
g35
(lp4862
(I00
g2808
tp4863
asg22
V[ -voice ]
p4864
sbsg22
V[ -voice ] ---> s^y / [ +vowel ] _ [ +high -sibilant ]
p4865
sba(irule
Rule
p4866
(dp4867
g15
(irule
Guard
p4868
(dp4869
g18
I00
sg19
(lp4870
(irule
FeatureMatrix
p4871
(dp4872
g35
(lp4873
(I01
g2838
tp4874
asg22
V[ +vowel ]
p4875
sbasg21
I00
sg22
g4875
sg23
I00
sg24
S'L'
sbsg25
(irule
ConstantPhoneme
p4876
(dp4877
S'p'
g2813
sbsg29
(irule
Guard
p4878
(dp4879
g18
I00
sg19
(lp4880
(irule
FeatureMatrix
p4881
(dp4882
g35
(lp4883
(I01
g2820
tp4884
a(I00
g3209
tp4885
asg22
V[ +high -sibilant ]
p4886
sbasg21
I00
sg22
g4886
sg23
I00
sg24
S'R'
sbsg42
(irule
FeatureMatrix
p4887
(dp4888
g35
(lp4889
(I00
g2826
tp4890
asg22
V[ -sonorant ]
p4891
sbsg22
V[ -sonorant ] ---> s^y / [ +vowel ] _ [ +high -sibilant ]
p4892
sba(irule
Rule
p4893
(dp4894
g15
(irule
Guard
p4895
(dp4896
g18
I00
sg19
(lp4897
(irule
FeatureMatrix
p4898
(dp4899
g35
(lp4900
(I01
g2838
tp4901
asg22
V[ +vowel ]
p4902
sbasg21
I00
sg22
g4902
sg23
I00
sg24
S'L'
sbsg25
(irule
ConstantPhoneme
p4903
(dp4904
S'p'
g2813
sbsg29
(irule
Guard
p4905
(dp4906
g18
I00
sg19
(lp4907
(irule
FeatureMatrix
p4908
(dp4909
g35
(lp4910
(I00
g3628
tp4911
a(I01
g2820
tp4912
asg22
V[ +high -nasal ]
p4913
sbasg21
I00
sg22
g4913
sg23
I00
sg24
S'R'
sbsg42
(irule
FeatureMatrix
p4914
(dp4915
g35
(lp4916
(I00
g2826
tp4917
asg22
V[ -sonorant ]
p4918
sbsg22
V[ -sonorant ] ---> s^y / [ +vowel ] _ [ +high -nasal ]
p4919
sba(irule
Rule
p4920
(dp4921
g15
(irule
Guard
p4922
(dp4923
g18
I00
sg19
(lp4924
(irule
FeatureMatrix
p4925
(dp4926
g35
(lp4927
(I01
g2838
tp4928
asg22
V[ +vowel ]
p4929
sbasg21
I00
sg22
g4929
sg23
I00
sg24
S'L'
sbsg25
(irule
ConstantPhoneme
p4930
(dp4931
S'p'
g2813
sbsg29
(irule
Guard
p4932
(dp4933
g18
I00
sg19
(lp4934
(irule
FeatureMatrix
p4935
(dp4936
g35
(lp4937
(I00
g4442
tp4938
a(I01
g2820
tp4939
asg22
V[ +high -lateral ]
p4940
sbasg21
I00
sg22
g4940
sg23
I00
sg24
S'R'
sbsg42
(irule
FeatureMatrix
p4941
(dp4942
g35
(lp4943
(I00
g2826
tp4944
asg22
V[ -sonorant ]
p4945
sbsg22
V[ -sonorant ] ---> s^y / [ +vowel ] _ [ +high -lateral ]
p4946
sba(irule
Rule
p4947
(dp4948
g15
(irule
Guard
p4949
(dp4950
g18
I00
sg19
(lp4951
(irule
FeatureMatrix
p4952
(dp4953
g35
(lp4954
(I01
g2808
tp4955
asg22
V[ +voice ]
p4956
sbasg21
I00
sg22
g4956
sg23
I00
sg24
S'L'
sbsg25
(irule
ConstantPhoneme
p4957
(dp4958
S'p'
g2813
sbsg29
(irule
Guard
p4959
(dp4960
g18
I00
sg19
(lp4961
(irule
FeatureMatrix
p4962
(dp4963
g35
(lp4964
(I00
g4829
tp4965
a(I01
g2820
tp4966
asg22
V[ +high -glide ]
p4967
sbasg21
I00
sg22
g4967
sg23
I00
sg24
S'R'
sbsg42
(irule
FeatureMatrix
p4968
(dp4969
g35
(lp4970
(I00
g2808
tp4971
asg22
V[ -voice ]
p4972
sbsg22
V[ -voice ] ---> s^y / [ +voice ] _ [ +high -glide ]
p4973
sba(irule
Rule
p4974
(dp4975
g15
(irule
Guard
p4976
(dp4977
g18
I00
sg19
(lp4978
(irule
FeatureMatrix
p4979
(dp4980
g35
(lp4981
(I01
g2838
tp4982
asg22
V[ +vowel ]
p4983
sbasg21
I00
sg22
g4983
sg23
I00
sg24
S'L'
sbsg25
(irule
ConstantPhoneme
p4984
(dp4985
S'p'
g2813
sbsg29
(irule
Guard
p4986
(dp4987
g18
I00
sg19
(lp4988
(irule
FeatureMatrix
p4989
(dp4990
g35
(lp4991
(I01
g2820
tp4992
a(I00
g3850
tp4993
asg22
V[ +high -coronal ]
p4994
sbasg21
I00
sg22
g4994
sg23
I00
sg24
S'R'
sbsg42
(irule
FeatureMatrix
p4995
(dp4996
g35
(lp4997
(I00
g2826
tp4998
asg22
V[ -sonorant ]
p4999
sbsg22
V[ -sonorant ] ---> s^y / [ +vowel ] _ [ +high -coronal ]
p5000
sba(irule
Rule
p5001
(dp5002
g15
(irule
Guard
p5003
(dp5004
g18
I00
sg19
(lp5005
(irule
FeatureMatrix
p5006
(dp5007
g35
(lp5008
(I01
g2838
tp5009
asg22
V[ +vowel ]
p5010
sbasg21
I00
sg22
g5010
sg23
I00
sg24
S'L'
sbsg25
(irule
ConstantPhoneme
p5011
(dp5012
S'p'
g2813
sbsg29
(irule
Guard
p5013
(dp5014
g18
I00
sg19
(lp5015
(irule
FeatureMatrix
p5016
(dp5017
g35
(lp5018
(I01
g2820
tp5019
a(I00
g3658
tp5020
asg22
V[ +high -low ]
p5021
sbasg21
I00
sg22
g5021
sg23
I00
sg24
S'R'
sbsg42
(irule
FeatureMatrix
p5022
(dp5023
g35
(lp5024
(I00
g2808
tp5025
asg22
V[ -voice ]
p5026
sbsg22
V[ -voice ] ---> s^y / [ +vowel ] _ [ +high -low ]
p5027
sba(irule
Rule
p5028
(dp5029
g15
(irule
Guard
p5030
(dp5031
g18
I00
sg19
(lp5032
(irule
FeatureMatrix
p5033
(dp5034
g35
(lp5035
(I01
g2808
tp5036
asg22
V[ +voice ]
p5037
sbasg21
I00
sg22
g5037
sg23
I00
sg24
S'L'
sbsg25
(irule
ConstantPhoneme
p5038
(dp5039
S'p'
g2813
sbsg29
(irule
Guard
p5040
(dp5041
g18
I00
sg19
(lp5042
(irule
FeatureMatrix
p5043
(dp5044
g35
(lp5045
(I00
g3656
tp5046
a(I01
g2820
tp5047
asg22
V[ +high -anterior ]
p5048
sbasg21
I00
sg22
g5048
sg23
I00
sg24
S'R'
sbsg42
(irule
FeatureMatrix
p5049
(dp5050
g35
(lp5051
(I00
g2808
tp5052
asg22
V[ -voice ]
p5053
sbsg22
V[ -voice ] ---> s^y / [ +voice ] _ [ +high -anterior ]
p5054
sba(irule
Rule
p5055
(dp5056
g15
(irule
Guard
p5057
(dp5058
g18
I00
sg19
(lp5059
(irule
FeatureMatrix
p5060
(dp5061
g35
(lp5062
(I01
g2838
tp5063
asg22
V[ +vowel ]
p5064
sbasg21
I00
sg22
g5064
sg23
I00
sg24
S'L'
sbsg25
(irule
ConstantPhoneme
p5065
(dp5066
S'p'
g2813
sbsg29
(irule
Guard
p5067
(dp5068
g18
I00
sg19
(lp5069
(irule
FeatureMatrix
p5070
(dp5071
g35
(lp5072
(I00
g3098
tp5073
a(I01
g2820
tp5074
asg22
V[ +high -liquid ]
p5075
sbasg21
I00
sg22
g5075
sg23
I00
sg24
S'R'
sbsg42
(irule
FeatureMatrix
p5076
(dp5077
g35
(lp5078
(I00
g2826
tp5079
asg22
V[ -sonorant ]
p5080
sbsg22
V[ -sonorant ] ---> s^y / [ +vowel ] _ [ +high -liquid ]
p5081
sba(irule
Rule
p5082
(dp5083
g15
(irule
Guard
p5084
(dp5085
g18
I00
sg19
(lp5086
(irule
FeatureMatrix
p5087
(dp5088
g35
(lp5089
(I01
g2838
tp5090
asg22
V[ +vowel ]
p5091
sbasg21
I00
sg22
g5091
sg23
I00
sg24
S'L'
sbsg25
(irule
ConstantPhoneme
p5092
(dp5093
S'p'
g2813
sbsg29
(irule
Guard
p5094
(dp5095
g18
I00
sg19
(lp5096
(irule
FeatureMatrix
p5097
(dp5098
g35
(lp5099
(I00
g3628
tp5100
a(I01
g2820
tp5101
asg22
V[ +high -nasal ]
p5102
sbasg21
I00
sg22
g5102
sg23
I00
sg24
S'R'
sbsg42
(irule
FeatureMatrix
p5103
(dp5104
g35
(lp5105
(I00
g2808
tp5106
asg22
V[ -voice ]
p5107
sbsg22
V[ -voice ] ---> s^y / [ +vowel ] _ [ +high -nasal ]
p5108
sba(irule
Rule
p5109
(dp5110
g15
(irule
Guard
p5111
(dp5112
g18
I00
sg19
(lp5113
(irule
FeatureMatrix
p5114
(dp5115
g35
(lp5116
(I01
g2808
tp5117
asg22
V[ +voice ]
p5118
sbasg21
I00
sg22
g5118
sg23
I00
sg24
S'L'
sbsg25
(irule
ConstantPhoneme
p5119
(dp5120
S'p'
g2813
sbsg29
(irule
Guard
p5121
(dp5122
g18
I00
sg19
(lp5123
(irule
FeatureMatrix
p5124
(dp5125
g35
(lp5126
(I01
g2820
tp5127
a(I00
g3658
tp5128
asg22
V[ +high -low ]
p5129
sbasg21
I00
sg22
g5129
sg23
I00
sg24
S'R'
sbsg42
(irule
FeatureMatrix
p5130
(dp5131
g35
(lp5132
(I00
g2808
tp5133
asg22
V[ -voice ]
p5134
sbsg22
V[ -voice ] ---> s^y / [ +voice ] _ [ +high -low ]
p5135
sba(irule
Rule
p5136
(dp5137
g15
(irule
Guard
p5138
(dp5139
g18
I00
sg19
(lp5140
(irule
FeatureMatrix
p5141
(dp5142
g35
(lp5143
(I01
g2808
tp5144
asg22
V[ +voice ]
p5145
sbasg21
I00
sg22
g5145
sg23
I00
sg24
S'L'
sbsg25
(irule
ConstantPhoneme
p5146
(dp5147
S'p'
g2813
sbsg29
(irule
Guard
p5148
(dp5149
g18
I00
sg19
(lp5150
(irule
FeatureMatrix
p5151
(dp5152
g35
(lp5153
(I01
g2820
tp5154
a(I00
g3850
tp5155
asg22
V[ +high -coronal ]
p5156
sbasg21
I00
sg22
g5156
sg23
I00
sg24
S'R'
sbsg42
(irule
FeatureMatrix
p5157
(dp5158
g35
(lp5159
(I00
g2808
tp5160
asg22
V[ -voice ]
p5161
sbsg22
V[ -voice ] ---> s^y / [ +voice ] _ [ +high -coronal ]
p5162
sba(irule
Rule
p5163
(dp5164
g15
(irule
Guard
p5165
(dp5166
g18
I00
sg19
(lp5167
(irule
FeatureMatrix
p5168
(dp5169
g35
(lp5170
(I01
g2808
tp5171
asg22
V[ +voice ]
p5172
sbasg21
I00
sg22
g5172
sg23
I00
sg24
S'L'
sbsg25
(irule
ConstantPhoneme
p5173
(dp5174
S'p'
g2813
sbsg29
(irule
Guard
p5175
(dp5176
g18
I00
sg19
(lp5177
(irule
FeatureMatrix
p5178
(dp5179
g35
(lp5180
(I00
g3098
tp5181
a(I01
g2820
tp5182
asg22
V[ +high -liquid ]
p5183
sbasg21
I00
sg22
g5183
sg23
I00
sg24
S'R'
sbsg42
(irule
FeatureMatrix
p5184
(dp5185
g35
(lp5186
(I00
g2808
tp5187
asg22
V[ -voice ]
p5188
sbsg22
V[ -voice ] ---> s^y / [ +voice ] _ [ +high -liquid ]
p5189
sba(irule
Rule
p5190
(dp5191
g15
(irule
Guard
p5192
(dp5193
g18
I00
sg19
(lp5194
(irule
FeatureMatrix
p5195
(dp5196
g35
(lp5197
(I01
g2838
tp5198
asg22
V[ +vowel ]
p5199
sbasg21
I00
sg22
g5199
sg23
I00
sg24
S'L'
sbsg25
(irule
ConstantPhoneme
p5200
(dp5201
S'p'
g2813
sbsg29
(irule
Guard
p5202
(dp5203
g18
I00
sg19
(lp5204
(irule
FeatureMatrix
p5205
(dp5206
g35
(lp5207
(I00
g4442
tp5208
a(I01
g2820
tp5209
asg22
V[ +high -lateral ]
p5210
sbasg21
I00
sg22
g5210
sg23
I00
sg24
S'R'
sbsg42
(irule
FeatureMatrix
p5211
(dp5212
g35
(lp5213
(I00
g2808
tp5214
asg22
V[ -voice ]
p5215
sbsg22
V[ -voice ] ---> s^y / [ +vowel ] _ [ +high -lateral ]
p5216
sba(irule
Rule
p5217
(dp5218
g15
(irule
Guard
p5219
(dp5220
g18
I00
sg19
(lp5221
(irule
FeatureMatrix
p5222
(dp5223
g35
(lp5224
(I01
g2838
tp5225
asg22
V[ +vowel ]
p5226
sbasg21
I00
sg22
g5226
sg23
I00
sg24
S'L'
sbsg25
(irule
ConstantPhoneme
p5227
(dp5228
S'p'
g2813
sbsg29
(irule
Guard
p5229
(dp5230
g18
I00
sg19
(lp5231
(irule
FeatureMatrix
p5232
(dp5233
g35
(lp5234
(I00
g3098
tp5235
a(I01
g2820
tp5236
asg22
V[ +high -liquid ]
p5237
sbasg21
I00
sg22
g5237
sg23
I00
sg24
S'R'
sbsg42
(irule
FeatureMatrix
p5238
(dp5239
g35
(lp5240
(I00
g2808
tp5241
asg22
V[ -voice ]
p5242
sbsg22
V[ -voice ] ---> s^y / [ +vowel ] _ [ +high -liquid ]
p5243
sba(irule
Rule
p5244
(dp5245
g15
(irule
Guard
p5246
(dp5247
g18
I00
sg19
(lp5248
(irule
FeatureMatrix
p5249
(dp5250
g35
(lp5251
(I01
g2838
tp5252
asg22
V[ +vowel ]
p5253
sbasg21
I00
sg22
g5253
sg23
I00
sg24
S'L'
sbsg25
(irule
ConstantPhoneme
p5254
(dp5255
S'p'
g2813
sbsg29
(irule
Guard
p5256
(dp5257
g18
I00
sg19
(lp5258
(irule
FeatureMatrix
p5259
(dp5260
g35
(lp5261
(I00
g4829
tp5262
a(I01
g2820
tp5263
asg22
V[ +high -glide ]
p5264
sbasg21
I00
sg22
g5264
sg23
I00
sg24
S'R'
sbsg42
(irule
FeatureMatrix
p5265
(dp5266
g35
(lp5267
(I00
g2808
tp5268
asg22
V[ -voice ]
p5269
sbsg22
V[ -voice ] ---> s^y / [ +vowel ] _ [ +high -glide ]
p5270
sba(irule
Rule
p5271
(dp5272
g15
(irule
Guard
p5273
(dp5274
g18
I00
sg19
(lp5275
(irule
FeatureMatrix
p5276
(dp5277
g35
(lp5278
(I01
g2838
tp5279
asg22
V[ +vowel ]
p5280
sbasg21
I00
sg22
g5280
sg23
I00
sg24
S'L'
sbsg25
(irule
ConstantPhoneme
p5281
(dp5282
S'p'
g2813
sbsg29
(irule
Guard
p5283
(dp5284
g18
I00
sg19
(lp5285
(irule
FeatureMatrix
p5286
(dp5287
g35
(lp5288
(I00
g3656
tp5289
a(I01
g2820
tp5290
asg22
V[ +high -anterior ]
p5291
sbasg21
I00
sg22
g5291
sg23
I00
sg24
S'R'
sbsg42
(irule
FeatureMatrix
p5292
(dp5293
g35
(lp5294
(I00
g2808
tp5295
asg22
V[ -voice ]
p5296
sbsg22
V[ -voice ] ---> s^y / [ +vowel ] _ [ +high -anterior ]
p5297
sba(irule
Rule
p5298
(dp5299
g15
(irule
Guard
p5300
(dp5301
g18
I00
sg19
(lp5302
(irule
FeatureMatrix
p5303
(dp5304
g35
(lp5305
(I01
g2838
tp5306
asg22
V[ +vowel ]
p5307
sbasg21
I00
sg22
g5307
sg23
I00
sg24
S'L'
sbsg25
(irule
ConstantPhoneme
p5308
(dp5309
S'p'
g2813
sbsg29
(irule
Guard
p5310
(dp5311
g18
I00
sg19
(lp5312
(irule
FeatureMatrix
p5313
(dp5314
g35
(lp5315
(I00
g4829
tp5316
a(I01
g2820
tp5317
asg22
V[ +high -glide ]
p5318
sbasg21
I00
sg22
g5318
sg23
I00
sg24
S'R'
sbsg42
(irule
FeatureMatrix
p5319
(dp5320
g35
(lp5321
(I00
g2826
tp5322
asg22
V[ -sonorant ]
p5323
sbsg22
V[ -sonorant ] ---> s^y / [ +vowel ] _ [ +high -glide ]
p5324
sba(irule
Rule
p5325
(dp5326
g15
(irule
Guard
p5327
(dp5328
g18
I00
sg19
(lp5329
(irule
FeatureMatrix
p5330
(dp5331
g35
(lp5332
(I01
g2838
tp5333
asg22
V[ +vowel ]
p5334
sbasg21
I00
sg22
g5334
sg23
I00
sg24
S'L'
sbsg25
(irule
ConstantPhoneme
p5335
(dp5336
S'p'
g2813
sbsg29
(irule
Guard
p5337
(dp5338
g18
I00
sg19
(lp5339
(irule
FeatureMatrix
p5340
(dp5341
g35
(lp5342
(I00
g3656
tp5343
a(I01
g2820
tp5344
asg22
V[ +high -anterior ]
p5345
sbasg21
I00
sg22
g5345
sg23
I00
sg24
S'R'
sbsg42
(irule
FeatureMatrix
p5346
(dp5347
g35
(lp5348
(I00
g2826
tp5349
asg22
V[ -sonorant ]
p5350
sbsg22
V[ -sonorant ] ---> s^y / [ +vowel ] _ [ +high -anterior ]
p5351
sba(irule
Rule
p5352
(dp5353
g15
(irule
Guard
p5354
(dp5355
g18
I00
sg19
(lp5356
(irule
FeatureMatrix
p5357
(dp5358
g35
(lp5359
(I01
g2808
tp5360
asg22
V[ +voice ]
p5361
sbasg21
I00
sg22
g5361
sg23
I00
sg24
S'L'
sbsg25
(irule
ConstantPhoneme
p5362
(dp5363
S'p'
g2813
sbsg29
(irule
Guard
p5364
(dp5365
g18
I00
sg19
(lp5366
(irule
FeatureMatrix
p5367
(dp5368
g35
(lp5369
(I01
S'continuant'
p5370
tp5371
a(I00
g2820
tp5372
asg22
V[ +continuant -high ]
p5373
sba(irule
FeatureMatrix
p5374
(dp5375
g35
(lp5376
(I01
g2820
tp5377
asg22
V[ +high ]
p5378
sbasg21
I00
sg22
V[ +continuant -high ]* [ +high ]
p5379
sg23
I01
sg24
S'R'
sbsg42
(irule
FeatureMatrix
p5380
(dp5381
g35
(lp5382
(I00
g2826
tp5383
asg22
V[ -sonorant ]
p5384
sbsg22
V[ -sonorant ] ---> s^y / [ +voice ] _ [ +continuant -high ]* [ +high ]
p5385
sba(irule
Rule
p5386
(dp5387
g15
(irule
Guard
p5388
(dp5389
g18
I00
sg19
(lp5390
(irule
FeatureMatrix
p5391
(dp5392
g35
(lp5393
(I01
g2808
tp5394
asg22
V[ +voice ]
p5395
sbasg21
I00
sg22
g5395
sg23
I00
sg24
S'L'
sbsg25
(irule
ConstantPhoneme
p5396
(dp5397
S'p'
g2813
sbsg29
(irule
Guard
p5398
(dp5399
g18
I00
sg19
(lp5400
(irule
FeatureMatrix
p5401
(dp5402
g35
(lp5403
(I01
g5370
tp5404
a(I00
g2820
tp5405
asg22
V[ +continuant -high ]
p5406
sba(irule
FeatureMatrix
p5407
(dp5408
g35
(lp5409
(I01
g2820
tp5410
asg22
V[ +high ]
p5411
sbasg21
I00
sg22
V[ +continuant -high ]* [ +high ]
p5412
sg23
I01
sg24
S'R'
sbsg42
(irule
FeatureMatrix
p5413
(dp5414
g35
(lp5415
(I00
g2808
tp5416
asg22
V[ -voice ]
p5417
sbsg22
V[ -voice ] ---> s^y / [ +voice ] _ [ +continuant -high ]* [ +high ]
p5418
sba(irule
Rule
p5419
(dp5420
g15
(irule
Guard
p5421
(dp5422
g18
I00
sg19
(lp5423
(irule
FeatureMatrix
p5424
(dp5425
g35
(lp5426
(I01
g2808
tp5427
asg22
V[ +voice ]
p5428
sbasg21
I00
sg22
g5428
sg23
I00
sg24
S'L'
sbsg25
(irule
ConstantPhoneme
p5429
(dp5430
S'p'
g2813
sbsg29
(irule
Guard
p5431
(dp5432
g18
I00
sg19
(lp5433
(irule
FeatureMatrix
p5434
(dp5435
g35
(lp5436
(I00
g2932
tp5437
a(I01
g2838
tp5438
asg22
V[ +vowel -back ]
p5439
sba(irule
FeatureMatrix
p5440
(dp5441
g35
(lp5442
(I01
g2820
tp5443
asg22
V[ +high ]
p5444
sbasg21
I00
sg22
V[ +vowel -back ]* [ +high ]
p5445
sg23
I01
sg24
S'R'
sbsg42
(irule
FeatureMatrix
p5446
(dp5447
g35
(lp5448
(I00
g2826
tp5449
asg22
V[ -sonorant ]
p5450
sbsg22
V[ -sonorant ] ---> s^y / [ +voice ] _ [ +vowel -back ]* [ +high ]
p5451
sba(irule
Rule
p5452
(dp5453
g15
(irule
Guard
p5454
(dp5455
g18
I00
sg19
(lp5456
(irule
FeatureMatrix
p5457
(dp5458
g35
(lp5459
(I00
g3656
tp5460
asg22
V[ -anterior ]
p5461
sba(irule
FeatureMatrix
p5462
(dp5463
g35
(lp5464
sg22
V[  ]
p5465
sbasg21
I00
sg22
V[  ] [ -anterior ]
p5466
sg23
I00
sg24
S'L'
sbsg25
(irule
ConstantPhoneme
p5467
(dp5468
S'p'
g2813
sbsg29
(irule
Guard
p5469
(dp5470
g18
I00
sg19
(lp5471
(irule
FeatureMatrix
p5472
(dp5473
g35
(lp5474
(I01
g2820
tp5475
asg22
V[ +high ]
p5476
sbasg21
I00
sg22
g5476
sg23
I00
sg24
S'R'
sbsg42
(irule
FeatureMatrix
p5477
(dp5478
g35
(lp5479
(I00
g2826
tp5480
asg22
V[ -sonorant ]
p5481
sbsg22
V[ -sonorant ] ---> s^y / [  ] [ -anterior ] _ [ +high ]
p5482
sba(irule
Rule
p5483
(dp5484
g15
(irule
Guard
p5485
(dp5486
g18
I00
sg19
(lp5487
(irule
FeatureMatrix
p5488
(dp5489
g35
(lp5490
(I01
g2808
tp5491
asg22
V[ +voice ]
p5492
sbasg21
I00
sg22
g5492
sg23
I00
sg24
S'L'
sbsg25
(irule
ConstantPhoneme
p5493
(dp5494
S'p'
g2813
sbsg29
(irule
Guard
p5495
(dp5496
g18
I00
sg19
(lp5497
(irule
FeatureMatrix
p5498
(dp5499
g35
(lp5500
(I00
g3279
tp5501
asg22
V[ -rounded ]
p5502
sba(irule
FeatureMatrix
p5503
(dp5504
g35
(lp5505
(I00
g2932
tp5506
a(I01
g2838
tp5507
asg22
V[ +vowel -back ]
p5508
sbasg21
I00
sg22
V[ -rounded ]* [ +vowel -back ]
p5509
sg23
I01
sg24
S'R'
sbsg42
(irule
FeatureMatrix
p5510
(dp5511
g35
(lp5512
(I00
g2826
tp5513
asg22
V[ -sonorant ]
p5514
sbsg22
V[ -sonorant ] ---> s^y / [ +voice ] _ [ -rounded ]* [ +vowel -back ]
p5515
sba(irule
Rule
p5516
(dp5517
g15
(irule
Guard
p5518
(dp5519
g18
I00
sg19
(lp5520
(irule
FeatureMatrix
p5521
(dp5522
g35
(lp5523
(I00
g3209
tp5524
asg22
V[ -sibilant ]
p5525
sbasg21
I00
sg22
g5525
sg23
I00
sg24
S'L'
sbsg25
(irule
ConstantPhoneme
p5526
(dp5527
S'p'
g2813
sbsg29
(irule
Guard
p5528
(dp5529
g18
I00
sg19
(lp5530
(irule
FeatureMatrix
p5531
(dp5532
g35
(lp5533
(I00
g2826
tp5534
asg22
V[ -sonorant ]
p5535
sba(irule
FeatureMatrix
p5536
(dp5537
g35
(lp5538
(I00
g2932
tp5539
a(I01
g2838
tp5540
asg22
V[ +vowel -back ]
p5541
sbasg21
I00
sg22
V[ -sonorant ]* [ +vowel -back ]
p5542
sg23
I01
sg24
S'R'
sbsg42
(irule
FeatureMatrix
p5543
(dp5544
g35
(lp5545
(I00
g2808
tp5546
asg22
V[ -voice ]
p5547
sbsg22
V[ -voice ] ---> s^y / [ -sibilant ] _ [ -sonorant ]* [ +vowel -back ]
p5548
sba(irule
Rule
p5549
(dp5550
g15
(irule
Guard
p5551
(dp5552
g18
I00
sg19
(lp5553
(irule
FeatureMatrix
p5554
(dp5555
g35
(lp5556
(I01
g2808
tp5557
asg22
V[ +voice ]
p5558
sbasg21
I00
sg22
g5558
sg23
I00
sg24
S'L'
sbsg25
(irule
ConstantPhoneme
p5559
(dp5560
S'p'
g2813
sbsg29
(irule
Guard
p5561
(dp5562
g18
I00
sg19
(lp5563
(irule
FeatureMatrix
p5564
(dp5565
g35
(lp5566
(I00
g3279
tp5567
asg22
V[ -rounded ]
p5568
sba(irule
FeatureMatrix
p5569
(dp5570
g35
(lp5571
(I00
g2932
tp5572
a(I01
g2838
tp5573
asg22
V[ +vowel -back ]
p5574
sbasg21
I00
sg22
V[ -rounded ]* [ +vowel -back ]
p5575
sg23
I01
sg24
S'R'
sbsg42
(irule
FeatureMatrix
p5576
(dp5577
g35
(lp5578
(I00
g2808
tp5579
asg22
V[ -voice ]
p5580
sbsg22
V[ -voice ] ---> s^y / [ +voice ] _ [ -rounded ]* [ +vowel -back ]
p5581
sba(irule
Rule
p5582
(dp5583
g15
(irule
Guard
p5584
(dp5585
g18
I00
sg19
(lp5586
(irule
FeatureMatrix
p5587
(dp5588
g35
(lp5589
(I01
g2808
tp5590
asg22
V[ +voice ]
p5591
sbasg21
I00
sg22
g5591
sg23
I00
sg24
S'L'
sbsg25
(irule
ConstantPhoneme
p5592
(dp5593
S'p'
g2813
sbsg29
(irule
Guard
p5594
(dp5595
g18
I00
sg19
(lp5596
(irule
FeatureMatrix
p5597
(dp5598
g35
(lp5599
(I01
g3628
tp5600
asg22
V[ +nasal ]
p5601
sba(irule
FeatureMatrix
p5602
(dp5603
g35
(lp5604
(I01
g2820
tp5605
asg22
V[ +high ]
p5606
sbasg21
I00
sg22
V[ +nasal ]* [ +high ]
p5607
sg23
I01
sg24
S'R'
sbsg42
(irule
FeatureMatrix
p5608
(dp5609
g35
(lp5610
(I00
g2826
tp5611
asg22
V[ -sonorant ]
p5612
sbsg22
V[ -sonorant ] ---> s^y / [ +voice ] _ [ +nasal ]* [ +high ]
p5613
sba(irule
Rule
p5614
(dp5615
g15
(irule
Guard
p5616
(dp5617
g18
I00
sg19
(lp5618
(irule
FeatureMatrix
p5619
(dp5620
g35
(lp5621
(I01
g2838
tp5622
asg22
V[ +vowel ]
p5623
sbasg21
I00
sg22
g5623
sg23
I00
sg24
S'L'
sbsg25
(irule
ConstantPhoneme
p5624
(dp5625
S'p'
g2813
sbsg29
(irule
Guard
p5626
(dp5627
g18
I00
sg19
(lp5628
(irule
FeatureMatrix
p5629
(dp5630
g35
(lp5631
(I00
g2808
tp5632
asg22
V[ -voice ]
p5633
sba(irule
FeatureMatrix
p5634
(dp5635
g35
(lp5636
(I00
g2932
tp5637
a(I01
g2838
tp5638
asg22
V[ +vowel -back ]
p5639
sbasg21
I00
sg22
V[ -voice ]* [ +vowel -back ]
p5640
sg23
I01
sg24
S'R'
sbsg42
(irule
FeatureMatrix
p5641
(dp5642
g35
(lp5643
(I00
g4096
tp5644
asg22
V[ -tense ]
p5645
sbsg22
V[ -tense ] ---> s^y / [ +vowel ] _ [ -voice ]* [ +vowel -back ]
p5646
sba(irule
Rule
p5647
(dp5648
g15
(irule
Guard
p5649
(dp5650
g18
I00
sg19
(lp5651
(irule
FeatureMatrix
p5652
(dp5653
g35
(lp5654
(I01
g2838
tp5655
asg22
V[ +vowel ]
p5656
sbasg21
I00
sg22
g5656
sg23
I00
sg24
S'L'
sbsg25
(irule
ConstantPhoneme
p5657
(dp5658
S'p'
g2813
sbsg29
(irule
Guard
p5659
(dp5660
g18
I00
sg19
(lp5661
(irule
FeatureMatrix
p5662
(dp5663
g35
(lp5664
(I00
g3656
tp5665
a(I00
g3658
tp5666
asg22
V[ -anterior -low ]
p5667
sbasg21
I00
sg22
g5667
sg23
I00
sg24
S'R'
sbsg42
(irule
FeatureMatrix
p5668
(dp5669
g35
(lp5670
(I00
g3098
tp5671
asg22
V[ -liquid ]
p5672
sbsg22
V[ -liquid ] ---> s^y / [ +vowel ] _ [ -anterior -low ]
p5673
sba(irule
Rule
p5674
(dp5675
g15
(irule
Guard
p5676
(dp5677
g18
I00
sg19
(lp5678
(irule
FeatureMatrix
p5679
(dp5680
g35
(lp5681
(I01
g2826
tp5682
asg22
V[ +sonorant ]
p5683
sbasg21
I00
sg22
g5683
sg23
I00
sg24
S'L'
sbsg25
(irule
ConstantPhoneme
p5684
(dp5685
S'p'
g2813
sbsg29
(irule
Guard
p5686
(dp5687
g18
I00
sg19
(lp5688
(irule
FeatureMatrix
p5689
(dp5690
g35
(lp5691
(I00
g2808
tp5692
asg22
V[ -voice ]
p5693
sba(irule
FeatureMatrix
p5694
(dp5695
g35
(lp5696
(I00
g2932
tp5697
a(I01
g2838
tp5698
asg22
V[ +vowel -back ]
p5699
sbasg21
I00
sg22
V[ -voice ]* [ +vowel -back ]
p5700
sg23
I01
sg24
S'R'
sbsg42
(irule
FeatureMatrix
p5701
(dp5702
g35
(lp5703
(I00
g2838
tp5704
asg22
V[ -vowel ]
p5705
sbsg22
V[ -vowel ] ---> s^y / [ +sonorant ] _ [ -voice ]* [ +vowel -back ]
p5706
sbaasbsS'parameters'
p5707
g6
(cargparse
Namespace
p5708
g8
NtRp5709
(dp5710
S'restore'
p5711
NsS'features'
p5712
S'sophisticated'
p5713
sS'universal'
p5714
S'experimentOutputs/ug1.p'
p5715
sS'restrict'
p5716
NsS'seed'
p5717
S'0'
sS'serial'
p5718
I00
sS'cv'
p5719
I00
sS'alignment'
p5720
I00
sS'top'
p5721
I100
sS'maximumDepth'
p5722
I3
sS'window'
p5723
NsS'minimizeBits'
p5724
I5
sS'samples'
p5725
I30
sS'save'
p5726
NsS'resume'
p5727
I00
sS'disableClean'
p5728
I00
sS'stemBaseline'
p5729
I30
sS'dummy'
p5730
I00
sS'task'
p5731
S'incremental'
p5732
sS'geometry'
p5733
I01
sS'verbosity'
p5734
I0
sS'noConstant'
p5735
I00
sS'timeout'
p5736
F24
sS'debug'
p5737
NsS'cores'
p5738
I40
sg228
S'Odden_4.11_Sadzava_Ukrainian'
p5739
sS'mergeFrontiers'
p5740
I00
sbsb.