(iresult
Result
p1
(dp2
S'startTime'
p3
F1559578088.0312049
sS'solutionSequence'
p4
(lp5
(ccopy_reg
_reconstructor
p6
(csolution
Solution
p7
c__builtin__
object
p8
NtRp9
(dp10
S'rules'
p11
(lp12
(irule
Rule
p13
(dp14
S'leftTriggers'
p15
(irule
Guard
p16
(dp17
S'endOfString'
p18
I00
sS'specifications'
p19
(lp20
(irule
FeatureMatrix
p21
(dp22
S'featuresAndPolarities'
p23
(lp24
sS'representation'
p25
V[  ]
p26
sbasS'optionalEnding'
p27
I00
sg25
g26
sS'starred'
p28
I00
sS'side'
p29
S'L'
sbsS'structuralChange'
p30
(irule
ConstantPhoneme
p31
(dp32
S'p'
Vy
sbsS'rightTriggers'
p33
(irule
Guard
p34
(dp35
g18
I00
sg19
(lp36
sg27
I00
sg25
V
sg28
I00
sg29
S'R'
sbsS'focus'
p37
(irule
ConstantPhoneme
p38
(dp39
S'p'
Vk
sbsg25
Vk ---> y / [  ] _ 
p40
sbasS'prefixes'
p41
(lp42
(imorph
Morph
p43
(dp44
S'phonemes'
p45
(lp46
sba(imorph
Morph
p47
(dp48
g45
(lp49
Vn
aVo
asbasS'underlyingForms'
p50
(dp51
((imorph
Morph
p52
(dp53
g45
(lp54
Vt
aVo
aVn
aVi
aVr
aVo
asb(imorph
Morph
p55
(dp56
g45
(lp57
Vn
aVo
aVt
aVo
aVn
aVi
aVr
aVo
aVt
aVi
asbtp58
(imorph
Morph
p59
(dp60
g45
(lp61
Vt
aVo
aVn
aVi
aVr
aVo
asbs((imorph
Morph
p62
(dp63
g45
(lp64
Vy
aVa
aVa
aVr
aVa
aVt
aVo
asb(imorph
Morph
p65
(dp66
g45
(lp67
Vn
aVo
aVy
aVa
aVa
aVr
aVa
aVt
aVo
aVt
aVi
asbtp68
(imorph
Morph
p69
(dp70
g45
(lp71
Vy
aVa
aVa
aVr
aVa
aVt
aVo
asbs((imorph
Morph
(dp72
g45
(lp73
Vk
aVo
aVs
aVi
aVr
aVi
asb(imorph
Morph
(dp74
g45
(lp75
Vn
aVo
aVy
aVo
aVs
aVi
aVr
aVi
aVt
aVi
asbtp76
(imorph
Morph
p77
(dp78
g45
(lp79
Vk
aVo
aVs
aVi
aVr
aVi
asbs((imorph
Morph
p80
(dp81
g45
(lp82
Vk
aVa
aVn
aVa
aVr
aVi
asb(imorph
Morph
p83
(dp84
g45
(lp85
Vn
aVo
aVy
aVa
aVn
aVa
aVr
aVi
aVt
aVi
asbtp86
(imorph
Morph
p87
(dp88
g45
(lp89
Vk
aVa
aVn
aVa
aVr
aVi
asbssS'suffixes'
p90
(lp91
(imorph
Morph
p92
(dp93
g45
(lp94
sba(imorph
Morph
p95
(dp96
g45
(lp97
Vt
aVi
asbasbF19.216951131820679
tp98
a(g6
(g7
g8
NtRp99
(dp100
g11
(lp101
(irule
Rule
p102
(dp103
g15
(irule
Guard
p104
(dp105
g18
I00
sg19
(lp106
(irule
FeatureMatrix
p107
(dp108
g23
(lp109
sg25
V[  ]
p110
sbasg27
I00
sg25
g110
sg28
I00
sg29
S'L'
sbsg30
(irule
ConstantPhoneme
p111
(dp112
S'p'
Vy
sbsg33
(irule
Guard
p113
(dp114
g18
I00
sg19
(lp115
sg27
I00
sg25
V
sg28
I00
sg29
S'R'
sbsg37
(irule
ConstantPhoneme
p116
(dp117
S'p'
Vk
sbsg25
Vk ---> y / [  ] _ 
p118
sba(irule
Rule
p119
(dp120
g15
(irule
Guard
p121
(dp122
g18
I01
sg19
(lp123
sg27
I00
sg25
V#
sg28
I00
sg29
S'L'
sbsg30
(irule
ConstantPhoneme
p124
(dp125
S'p'
Vp
sbsg33
(irule
Guard
p126
(dp127
g18
I00
sg19
(lp128
sg27
I00
sg25
V
sg28
I00
sg29
S'R'
sbsg37
(irule
ConstantPhoneme
p129
(dp130
S'p'
Vw
sbsg25
Vw ---> p / # _ 
p131
sbasg41
(lp132
(imorph
Morph
p133
(dp134
g45
(lp135
sba(imorph
Morph
p136
(dp137
g45
(lp138
Vn
aVo
asbasg50
(dp139
((imorph
Morph
(dp140
g45
(lp141
Vk
aVa
aVn
aVa
aVr
aVi
asb(imorph
Morph
(dp142
g45
(lp143
Vn
aVo
aVy
aVa
aVn
aVa
aVr
aVi
aVt
aVi
asbtp144
(imorph
Morph
p145
(dp146
g45
(lp147
Vk
aVa
aVn
aVa
aVr
aVi
asbs((imorph
Morph
(dp148
g45
(lp149
Vt
aVo
aVn
aVi
aVr
aVo
asb(imorph
Morph
(dp150
g45
(lp151
Vn
aVo
aVt
aVo
aVn
aVi
aVr
aVo
aVt
aVi
asbtp152
(imorph
Morph
p153
(dp154
g45
(lp155
Vt
aVo
aVn
aVi
aVr
aVo
asbs((imorph
Morph
(dp156
g45
(lp157
Vp
aVo
aVr
aVi
aVt
aVa
asb(imorph
Morph
(dp158
g45
(lp159
Vn
aVo
aVw
aVo
aVr
aVi
aVt
aVa
aVt
aVi
asbtp160
(imorph
Morph
p161
(dp162
g45
(lp163
Vw
aVo
aVr
aVi
aVt
aVa
asbs((imorph
Morph
(dp164
g45
(lp165
Vy
aVa
aVa
aVr
aVa
aVt
aVo
asb(imorph
Morph
(dp166
g45
(lp167
Vn
aVo
aVy
aVa
aVa
aVr
aVa
aVt
aVo
aVt
aVi
asbtp168
(imorph
Morph
p169
(dp170
g45
(lp171
Vy
aVa
aVa
aVr
aVa
aVt
aVo
asbs((imorph
Morph
(dp172
g45
(lp173
Vp
aVi
aVs
aVi
aVr
aVo
asb(imorph
Morph
(dp174
g45
(lp175
Vn
aVo
aVw
aVi
aVs
aVi
aVr
aVo
aVt
aVi
asbtp176
(imorph
Morph
p177
(dp178
g45
(lp179
Vw
aVi
aVs
aVi
aVr
aVo
asbs((imorph
Morph
(dp180
g45
(lp181
Vk
aVo
aVs
aVi
aVr
aVi
asb(imorph
Morph
(dp182
g45
(lp183
Vn
aVo
aVy
aVo
aVs
aVi
aVr
aVi
aVt
aVi
asbtp184
(imorph
Morph
p185
(dp186
g45
(lp187
Vk
aVo
aVs
aVi
aVr
aVi
asbssg90
(lp188
(imorph
Morph
p189
(dp190
g45
(lp191
sba(imorph
Morph
p192
(dp193
g45
(lp194
Vt
aVi
asbasbF1026.401319026947
tp195
asS'problem'
p196
S'Odden_1.1_Axininca_Campa'
p197
sS'finalFrontier'
p198
g6
(csolution
Frontier
p199
g8
NtRp200
(dp201
g41
g132
sg90
g188
sg50
g139
sS'frontiers'
p202
(lp203
(lp204
g102
aa(lp205
g119
aasbsS'parameters'
p206
g6
(cargparse
Namespace
p207
g8
NtRp208
(dp209
S'restore'
p210
NsS'features'
p211
S'none'
p212
sS'universal'
p213
NsS'restrict'
p214
NsS'seed'
p215
S'0'
sS'serial'
p216
I00
sS'alignment'
p217
I00
sS'top'
p218
I1
sS'maximumDepth'
p219
I3
sS'window'
p220
NsS'minimizeBits'
p221
I5
sS'samples'
p222
I30
sS'save'
p223
NsS'resume'
p224
I00
sS'disableClean'
p225
I01
sS'stemBaseline'
p226
I30
sS'dummy'
p227
I00
sS'task'
p228
S'incremental'
p229
sS'geometry'
p230
NsS'verbosity'
p231
I0
sS'timeout'
p232
F24
sS'debug'
p233
NsS'cores'
p234
I40
sg196
S'Odden_1.1_Axininca_Campa'
p235
sbsb.