(iresult
Result
p1
(dp2
S'startTime'
p3
F1565820303.3166759
sS'solutionSequence'
p4
(lp5
(ccopy_reg
_reconstructor
p6
(csolution
Solution
p7
c__builtin__
object
p8
NtRp9
(dp10
S'rules'
p11
(lp12
(irule
Rule
p13
(dp14
S'leftTriggers'
p15
(irule
Guard
p16
(dp17
S'endOfString'
p18
I00
sS'specifications'
p19
(lp20
sS'optionalEnding'
p21
I00
sS'representation'
p22
V
sS'starred'
p23
I00
sS'side'
p24
S'L'
sbsS'structuralChange'
p25
(irule
FeatureMatrix
p26
(dp27
S'featuresAndPolarities'
p28
(lp29
sg22
V[  ]
p30
sbsS'rightTriggers'
p31
(irule
Guard
p32
(dp33
g18
I00
sg19
(lp34
sg21
I00
sg22
V
sg23
I00
sg24
S'R'
sbsS'focus'
p35
(irule
FeatureMatrix
p36
(dp37
g28
(lp38
sg22
V[  ]
p39
sbsg22
V[  ] ---> [  ] /  _ 
p40
sbasS'prefixes'
p41
(lp42
(imorph
Morph
p43
(dp44
S'phonemes'
p45
(lp46
sba(imorph
Morph
p47
(dp48
g45
(lp49
sbasS'underlyingForms'
p50
(dp51
((imorph
Morph
p52
(dp53
g45
(lp54
Vs
aVu
aVr
aVa
aVa
aV\u014b
aVg
aVa
asb(imorph
Morph
p55
(dp56
g45
(lp57
Vs
aVu
aVr
aVa
aVa
aV\u014b
aVg
aVe
aVr
aVa
asbtp58
(imorph
Morph
p59
(dp60
g45
(lp61
Vs
aVu
aVr
aVa
aVa
aV\u014b
aVg
asbs((imorph
Morph
p62
(dp63
g45
(lp64
Vb
aVa
aVa
aVm
aVb
aVa
asb(imorph
Morph
p65
(dp66
g45
(lp67
Vb
aVa
aVa
aVm
aVb
aVe
aVr
aVa
asbtp68
(imorph
Morph
p69
(dp70
g45
(lp71
Vb
aVa
aVa
aVm
aVb
asbs((imorph
Morph
p72
(dp73
g45
(lp74
Vt
aVa
aVa
aV\u014b
aVg
aVa
aVt
aVa
asb(imorph
Morph
p75
(dp76
g45
(lp77
Vt
aVa
aVa
aV\u014b
aVg
aVa
aVt
aVe
aVr
aVa
asbtp78
(imorph
Morph
p79
(dp80
g45
(lp81
Vt
aVa
aVa
aV\u014b
aVg
aVa
aVt
asbssS'suffixes'
p82
(lp83
(imorph
Morph
p84
(dp85
g45
(lp86
Va
asba(imorph
Morph
p87
(dp88
g45
(lp89
Ve
aVr
aVa
asbasbF28.934700012207031
tp90
a(g6
(g7
g8
NtRp91
(dp92
g11
(lp93
(irule
Rule
p94
(dp95
g15
(irule
Guard
p96
(dp97
g18
I00
sg19
(lp98
sg21
I00
sg22
V
sg23
I00
sg24
S'L'
sbsg25
(irule
ConstantPhoneme
p99
(dp100
S'p'
Ve
sbsg31
(irule
Guard
p101
(dp102
g18
I00
sg19
(lp103
(irule
FeatureMatrix
p104
(dp105
g28
(lp106
sg22
V[  ]
p107
sba(irule
FeatureMatrix
p108
(dp109
g28
(lp110
(I01
S'liquid'
p111
tp112
asg22
V[ +liquid ]
p113
sbasg21
I00
sg22
V[  ]* [ +liquid ]
p114
sg23
I01
sg24
S'R'
sbsg35
(irule
ConstantPhoneme
p115
(dp116
S'p'
Vi
sbsg22
Vi ---> e /  _ [  ]* [ +liquid ]
p117
sbasg41
(lp118
(imorph
Morph
p119
(dp120
g45
(lp121
sba(imorph
Morph
p122
(dp123
g45
(lp124
sbasg50
(dp125
(g52
g55
tp126
(imorph
Morph
p127
(dp128
g45
(lp129
Vs
aVu
aVr
aVa
aVa
aV\u014b
aVg
asbs(g62
g65
tp130
(imorph
Morph
p131
(dp132
g45
(lp133
Vb
aVa
aVa
aVm
aVb
asbs((imorph
Morph
p134
(dp135
g45
(lp136
Vs
aVi
aVi
aVk
aVa
asb(imorph
Morph
p137
(dp138
g45
(lp139
Vs
aVe
aVe
aVk
aVe
aVr
aVa
asbtp140
(imorph
Morph
p141
(dp142
g45
(lp143
Vs
aVi
aVi
aVk
asbs(g72
g75
tp144
(imorph
Morph
p145
(dp146
g45
(lp147
Vt
aVa
aVa
aV\u014b
aVg
aVa
aVt
asbssg82
(lp148
(imorph
Morph
p149
(dp150
g45
(lp151
Va
asba(imorph
Morph
p152
(dp153
g45
(lp154
Ve
aVr
aVa
asbasbF195.75707101821899
tp155
a(g6
(g7
g8
NtRp156
(dp157
g11
(lp158
(irule
Rule
p159
(dp160
g15
(irule
Guard
p161
(dp162
g18
I00
sg19
(lp163
sg21
I00
sg22
V
sg23
I00
sg24
S'L'
sbsg25
(irule
FeatureMatrix
p164
(dp165
g28
(lp166
(I00
S'high'
p167
tp168
a(I01
S'middle'
p169
tp170
asg22
V[ +middle -high ]
p171
sbsg31
(irule
Guard
p172
(dp173
g18
I00
sg19
(lp174
(irule
FeatureMatrix
p175
(dp176
g28
(lp177
(I00
g111
tp178
asg22
V[ -liquid ]
p179
sba(irule
FeatureMatrix
p180
(dp181
g28
(lp182
(I01
g169
tp183
asg22
V[ +middle ]
p184
sbasg21
I00
sg22
V[ -liquid ]* [ +middle ]
p185
sg23
I01
sg24
S'R'
sbsg35
(irule
FeatureMatrix
p186
(dp187
g28
(lp188
(I01
g167
tp189
asg22
V[ +high ]
p190
sbsg22
V[ +high ] ---> [ +middle -high ] /  _ [ -liquid ]* [ +middle ]
p191
sbasg41
(lp192
(imorph
Morph
p193
(dp194
g45
(lp195
sba(imorph
Morph
p196
(dp197
g45
(lp198
sbasg50
(dp199
((imorph
Morph
(dp200
g45
(lp201
Vs
aVi
aVi
aVn
aVd
aVa
asb(imorph
Morph
(dp202
g45
(lp203
Vs
aVe
aVe
aVn
aVd
aVe
aVr
aVa
asbtp204
(imorph
Morph
p205
(dp206
g45
(lp207
Vs
aVi
aVi
aVn
aVd
asbs((imorph
Morph
(dp208
g45
(lp209
Vr
aVo
aVm
aVa
asb(imorph
Morph
(dp210
g45
(lp211
Vr
aVo
aVm
aVe
aVr
aVa
asbtp212
(imorph
Morph
p213
(dp214
g45
(lp215
Vr
aVo
aVm
asbs((imorph
Morph
p216
(dp217
g45
(lp218
Vr
aVu
aVg
aVa
asb(imorph
Morph
p219
(dp220
g45
(lp221
Vr
aVo
aVg
aVe
aVr
aVa
asbtp222
(imorph
Morph
p223
(dp224
g45
(lp225
Vr
aVu
aVg
asbs((imorph
Morph
(dp226
g45
(lp227
Vs
aVo
aVo
aVk
aVa
asb(imorph
Morph
(dp228
g45
(lp229
Vs
aVo
aVo
aVk
aVe
aVr
aVa
asbtp230
(imorph
Morph
p231
(dp232
g45
(lp233
Vs
aVu
aVo
aVk
asbs((imorph
Morph
(dp234
g45
(lp235
Vh
aVu
aVu
aVt
aVa
asb(imorph
Morph
(dp236
g45
(lp237
Vh
aVo
aVo
aVt
aVe
aVr
aVa
asbtp238
(imorph
Morph
p239
(dp240
g45
(lp241
Vh
aVu
aVu
aVt
asbs((imorph
Morph
(dp242
g45
(lp243
Vt
aVi
aVg
aVa
asb(imorph
Morph
(dp244
g45
(lp245
Vt
aVe
aVg
aVe
aVr
aVa
asbtp246
(imorph
Morph
p247
(dp248
g45
(lp249
Vt
aVi
aVg
asbs((imorph
Morph
(dp250
g45
(lp251
Vr
aVe
aVm
aVa
asb(imorph
Morph
(dp252
g45
(lp253
Vr
aVe
aVm
aVe
aVr
aVa
asbtp254
(imorph
Morph
p255
(dp256
g45
(lp257
Vr
aVe
aVm
asbs(g72
g75
tp258
(imorph
Morph
p259
(dp260
g45
(lp261
Vt
aVa
aVa
aV\u014b
aVg
aVa
aVt
asbs((imorph
Morph
(dp262
g45
(lp263
Vr
aVe
aVe
aVn
aVd
aVa
asb(imorph
Morph
(dp264
g45
(lp265
Vr
aVe
aVe
aVn
aVd
aVe
aVr
aVa
asbtp266
(imorph
Morph
p267
(dp268
g45
(lp269
Vr
aVi
aVe
aVn
aVd
asbs(g62
g65
tp270
(imorph
Morph
p271
(dp272
g45
(lp273
Vb
aVa
aVa
aVm
aVb
asbs((imorph
Morph
(dp274
g45
(lp275
Vr
aVi
aVi
aV\u014b
aVg
aVa
asb(imorph
Morph
(dp276
g45
(lp277
Vr
aVe
aVe
aV\u014b
aVg
aVe
aVr
aVa
asbtp278
(imorph
Morph
p279
(dp280
g45
(lp281
Vr
aVi
aVi
aV\u014b
aVg
asbs((imorph
Morph
(dp282
g45
(lp283
Vh
aVo
aVo
aVr
aVa
asb(imorph
Morph
(dp284
g45
(lp285
Vh
aVo
aVo
aVr
aVe
aVr
aVa
asbtp286
(imorph
Morph
p287
(dp288
g45
(lp289
Vh
aVu
aVo
aVr
asbs(g52
g55
tp290
(imorph
Morph
p291
(dp292
g45
(lp293
Vs
aVu
aVr
aVa
aVa
aV\u014b
aVg
asbs((imorph
Morph
(dp294
g45
(lp295
Vt
aVa
aVc\u030c
p296
aVo
aVr
aVa
asb(imorph
Morph
(dp297
g45
(lp298
Vt
aVa
aVc\u030c
p299
aVo
aVr
aVe
aVr
aVa
asbtp300
(imorph
Morph
p301
(dp302
g45
(lp303
Vt
aVa
aVc\u030c
p304
aVo
aVr
asbs((imorph
Morph
(dp305
g45
(lp306
Vs
aVu
aVk
aVa
asb(imorph
Morph
(dp307
g45
(lp308
Vs
aVo
aVk
aVe
aVr
aVa
asbtp309
(imorph
Morph
p310
(dp311
g45
(lp312
Vs
aVu
aVk
asbs(g134
g137
tp313
(imorph
Morph
p314
(dp315
g45
(lp316
Vs
aVi
aVi
aVk
asbssg82
(lp317
(imorph
Morph
p318
(dp319
g45
(lp320
Va
asba(imorph
Morph
p321
(dp322
g45
(lp323
Ve
aVr
aVa
asbasbF2171.8189930915833
tp324
asS'problem'
p325
S'Odden_2.2_Kikuria'
p326
sS'finalFrontier'
p327
g6
(csolution
Frontier
p328
g8
NtRp329
(dp330
g41
g192
sg82
g317
sg50
g199
sS'frontiers'
p331
(lp332
(lp333
g159
aasbsS'parameters'
p334
g6
(cargparse
Namespace
p335
g8
NtRp336
(dp337
S'restore'
p338
NsS'features'
p339
S'simple'
p340
sS'universal'
p341
NsS'restrict'
p342
NsS'seed'
p343
S'0'
sS'serial'
p344
I00
sS'alignment'
p345
I00
sS'top'
p346
I1
sS'maximumDepth'
p347
I3
sS'window'
p348
NsS'minimizeBits'
p349
I5
sS'samples'
p350
I30
sS'save'
p351
NsS'resume'
p352
I00
sS'disableClean'
p353
I00
sS'stemBaseline'
p354
I30
sS'dummy'
p355
I00
sS'task'
p356
S'CEGIS'
p357
sS'geometry'
p358
NsS'verbosity'
p359
I0
sS'timeout'
p360
F24
sS'debug'
p361
NsS'cores'
p362
I40
sg325
S'Odden_2.2_Kikuria'
p363
sS'mergeFrontiers'
p364
I00
sbsb.