(iresult
Result
p1
(dp2
S'startTime'
p3
F1559594165.4874511
sS'solutionSequence'
p4
(lp5
(ccopy_reg
_reconstructor
p6
(csolution
Solution
p7
c__builtin__
object
p8
NtRp9
(dp10
S'rules'
p11
(lp12
(irule
Rule
p13
(dp14
S'leftTriggers'
p15
(irule
Guard
p16
(dp17
S'endOfString'
p18
I00
sS'specifications'
p19
(lp20
sS'optionalEnding'
p21
I00
sS'representation'
p22
V
sS'starred'
p23
I00
sS'side'
p24
S'L'
sbsS'structuralChange'
p25
(irule
FeatureMatrix
p26
(dp27
S'featuresAndPolarities'
p28
(lp29
sg22
V[  ]
p30
sbsS'rightTriggers'
p31
(irule
Guard
p32
(dp33
g18
I00
sg19
(lp34
sg21
I00
sg22
V
sg23
I00
sg24
S'R'
sbsS'focus'
p35
(irule
FeatureMatrix
p36
(dp37
g28
(lp38
sg22
V[  ]
p39
sbsg22
V[  ] ---> [  ] /  _ 
p40
sbasS'prefixes'
p41
(lp42
(imorph
Morph
p43
(dp44
S'phonemes'
p45
(lp46
sba(imorph
Morph
p47
(dp48
g45
(lp49
sba(imorph
Morph
p50
(dp51
g45
(lp52
sbasS'underlyingForms'
p53
(dp54
((imorph
Morph
p55
(dp56
g45
(lp57
Va
aV\u0263
aVa
asb(imorph
Morph
p58
(dp59
g45
(lp60
Va
aV\u0263
aVa
aVl
aVa
aVr
asb(imorph
Morph
p61
(dp62
g45
(lp63
Va
aV\u0263
aVa
aVl
aV\u0268
aV\u0268
aVn
asbtp64
(imorph
Morph
p65
(dp66
g45
(lp67
Va
aV\u0263
aVa
asbs((imorph
Morph
p68
(dp69
g45
(lp70
Vp
aVa
aVa
aVr
aVt
aVa
asb(imorph
Morph
p71
(dp72
g45
(lp73
Vp
aVa
aVa
aVr
aVt
aVa
aVl
aVa
aVr
asb(imorph
Morph
p74
(dp75
g45
(lp76
Vp
aVa
aVa
aVr
aVt
aVa
aVl
aV\u0268
aV\u0268
aVn
asbtp77
(imorph
Morph
p78
(dp79
g45
(lp80
Vp
aVa
aVa
aVr
aVt
aVa
asbssS'suffixes'
p81
(lp82
(imorph
Morph
p83
(dp84
g45
(lp85
sba(imorph
Morph
p86
(dp87
g45
(lp88
Vl
aVa
aVr
asba(imorph
Morph
p89
(dp90
g45
(lp91
Vl
aV\u0268
aV\u0268
aVn
asbasbF26.483186006546021
tp92
a(g6
(g7
g8
NtRp93
(dp94
g11
(lp95
(irule
Rule
p96
(dp97
g15
(irule
Guard
p98
(dp99
g18
I00
sg19
(lp100
(irule
FeatureMatrix
p101
(dp102
g28
(lp103
sg22
V[  ]
p104
sba(irule
ConstantPhoneme
p105
(dp106
S'p'
Vg
sbasg21
I00
sg22
Vg [  ]*
p107
sg23
I01
sg24
S'L'
sbsg25
(irule
FeatureMatrix
p108
(dp109
g28
(lp110
(I00
S'back'
p111
tp112
a(I00
S'low'
p113
tp114
asg22
V[ -back -low ]
p115
sbsg31
(irule
Guard
p116
(dp117
g18
I00
sg19
(lp118
sg21
I00
sg22
V
sg23
I00
sg24
S'R'
sbsg35
(irule
FeatureMatrix
p119
(dp120
g28
(lp121
sg22
V[  ]
p122
sbsg22
V[  ] ---> [ -back -low ] / g [  ]* _ 
p123
sbasg41
(lp124
(imorph
Morph
p125
(dp126
g45
(lp127
sba(imorph
Morph
p128
(dp129
g45
(lp130
sba(imorph
Morph
p131
(dp132
g45
(lp133
sbasg53
(dp134
(g55
g58
g61
tp135
(imorph
Morph
p136
(dp137
g45
(lp138
Va
aV\u0263
aVa
asbs(g68
g71
g74
tp139
(imorph
Morph
p140
(dp141
g45
(lp142
Vp
aVa
aVa
aVr
aVt
aVa
asbs((imorph
Morph
p143
(dp144
g45
(lp145
Vk
aVi
aVn
aVi
aVg
aVe
asb(imorph
Morph
p146
(dp147
g45
(lp148
Vk
aVi
aVn
aVi
aVg
aVe
aVl
aVe
aVr
asb(imorph
Morph
p149
(dp150
g45
(lp151
Vk
aVi
aVn
aVi
aVg
aVe
aVl
aVi
aVi
aVn
asbtp152
(imorph
Morph
p153
(dp154
g45
(lp155
Vk
aVi
aVn
aVi
aVg
aVe
asbssg81
(lp156
(imorph
Morph
p157
(dp158
g45
(lp159
sba(imorph
Morph
p160
(dp161
g45
(lp162
Vl
aVa
aVr
asba(imorph
Morph
p163
(dp164
g45
(lp165
Vl
aV\u0268
aV\u0268
aVn
asbasbF98.743975877761841
tp166
a(g6
(g7
g8
NtRp167
(dp168
g11
(lp169
(irule
Rule
p170
(dp171
g15
(irule
Guard
p172
(dp173
g18
I00
sg19
(lp174
(irule
FeatureMatrix
p175
(dp176
g28
(lp177
sg22
V[  ]
p178
sba(irule
ConstantPhoneme
p179
(dp180
S'p'
Ve
sbasg21
I00
sg22
Ve [  ]*
p181
sg23
I01
sg24
S'L'
sbsg25
(irule
FeatureMatrix
p182
(dp183
g28
(lp184
(I00
g111
tp185
a(I00
g113
tp186
asg22
V[ -back -low ]
p187
sbsg31
(irule
Guard
p188
(dp189
g18
I00
sg19
(lp190
sg21
I00
sg22
V
sg23
I00
sg24
S'R'
sbsg35
(irule
FeatureMatrix
p191
(dp192
g28
(lp193
sg22
V[  ]
p194
sbsg22
V[  ] ---> [ -back -low ] / e [  ]* _ 
p195
sbasg41
(lp196
(imorph
Morph
p197
(dp198
g45
(lp199
sba(imorph
Morph
p200
(dp201
g45
(lp202
sba(imorph
Morph
p203
(dp204
g45
(lp205
sbasg53
(dp206
(g55
g58
g61
tp207
(imorph
Morph
p208
(dp209
g45
(lp210
Va
aV\u0263
aVa
asbs((imorph
Morph
p211
(dp212
g45
(lp213
V\u0161
aVi
aVe
asb(imorph
Morph
p214
(dp215
g45
(lp216
V\u0161
aVi
aVe
aVl
aVe
aVr
asb(imorph
Morph
p217
(dp218
g45
(lp219
V\u0161
aVi
aVe
aVl
aVi
aVi
aVn
asbtp220
(imorph
Morph
p221
(dp222
g45
(lp223
V\u0161
aVi
aVe
asbs(g68
g71
g74
tp224
(imorph
Morph
p225
(dp226
g45
(lp227
Vp
aVa
aVa
aVr
aVt
aVa
asbs(g143
g146
g149
tp228
(imorph
Morph
p229
(dp230
g45
(lp231
Vk
aVi
aVn
aVi
aVg
aVe
asbssg81
(lp232
(imorph
Morph
p233
(dp234
g45
(lp235
sba(imorph
Morph
p236
(dp237
g45
(lp238
Vl
aVa
aVr
asba(imorph
Morph
p239
(dp240
g45
(lp241
Vl
aV\u0268
aV\u0268
aVn
asbasbF193.04006791114807
tp242
a(g6
(g7
g8
NtRp243
(dp244
g11
(lp245
(irule
Rule
p246
(dp247
g15
(irule
Guard
p248
(dp249
g18
I00
sg19
(lp250
(irule
FeatureMatrix
p251
(dp252
g28
(lp253
sg22
V[  ]
p254
sba(irule
ConstantPhoneme
p255
(dp256
S'p'
Vi
sbasg21
I00
sg22
Vi [  ]*
p257
sg23
I01
sg24
S'L'
sbsg25
(irule
FeatureMatrix
p258
(dp259
g28
(lp260
(I00
g111
tp261
a(I00
g113
tp262
asg22
V[ -back -low ]
p263
sbsg31
(irule
Guard
p264
(dp265
g18
I00
sg19
(lp266
sg21
I00
sg22
V
sg23
I00
sg24
S'R'
sbsg35
(irule
FeatureMatrix
p267
(dp268
g28
(lp269
(I01
S'continuant'
p270
tp271
asg22
V[ +continuant ]
p272
sbsg22
V[ +continuant ] ---> [ -back -low ] / i [  ]* _ 
p273
sbasg41
(lp274
(imorph
Morph
p275
(dp276
g45
(lp277
sba(imorph
Morph
p278
(dp279
g45
(lp280
sba(imorph
Morph
p281
(dp282
g45
(lp283
sbasg53
(dp284
(g55
g58
g61
tp285
(imorph
Morph
p286
(dp287
g45
(lp288
Va
aV\u0263
aVa
asbs(g211
g214
g217
tp289
(imorph
Morph
p290
(dp291
g45
(lp292
V\u0161
aVi
aVe
asbs((imorph
Morph
p293
(dp294
g45
(lp295
Vk
aVi
aVn
aVi
asb(imorph
Morph
p296
(dp297
g45
(lp298
Vk
aVi
aVn
aVi
aVl
aVe
aVr
asb(imorph
Morph
p299
(dp300
g45
(lp301
Vk
aVi
aVn
aVi
aVl
aVi
aVi
aVn
asbtp302
(imorph
Morph
p303
(dp304
g45
(lp305
Vk
aVi
aVn
aVi
asbs(g68
g71
g74
tp306
(imorph
Morph
p307
(dp308
g45
(lp309
Vp
aVa
aVa
aVr
aVt
aVa
asbs(g143
g146
g149
tp310
(imorph
Morph
p311
(dp312
g45
(lp313
Vk
aVi
aVn
aV\u0268
aVg
aVe
asbssg81
(lp314
(imorph
Morph
p315
(dp316
g45
(lp317
sba(imorph
Morph
p318
(dp319
g45
(lp320
Vl
aVa
aVr
asba(imorph
Morph
p321
(dp322
g45
(lp323
Vl
aV\u0268
aV\u0268
aVn
asbasbF342.87739181518555
tp324
a(g6
(g7
g8
NtRp325
(dp326
g11
(lp327
(irule
Rule
p328
(dp329
g15
(irule
Guard
p330
(dp331
g18
I00
sg19
(lp332
(irule
FeatureMatrix
p333
(dp334
g28
(lp335
sg22
V[  ]
p336
sba(irule
FeatureMatrix
p337
(dp338
g28
(lp339
(I01
S'rounded'
p340
tp341
a(I00
g111
tp342
asg22
V[ +rounded -back ]
p343
sbasg21
I00
sg22
V[ +rounded -back ] [  ]*
p344
sg23
I01
sg24
S'L'
sbsg25
(irule
FeatureMatrix
p345
(dp346
g28
(lp347
(I00
g111
tp348
a(I00
g113
tp349
asg22
V[ -back -low ]
p350
sbsg31
(irule
Guard
p351
(dp352
g18
I00
sg19
(lp353
sg21
I00
sg22
V
sg23
I00
sg24
S'R'
sbsg35
(irule
FeatureMatrix
p354
(dp355
g28
(lp356
sg22
V[  ]
p357
sbsg22
V[  ] ---> [ -back -low ] / [ +rounded -back ] [  ]* _ 
p358
sba(irule
Rule
p359
(dp360
g15
(irule
Guard
p361
(dp362
g18
I01
sg19
(lp363
(irule
FeatureMatrix
p364
(dp365
g28
(lp366
sg22
V[  ]
p367
sba(irule
FeatureMatrix
p368
(dp369
g28
(lp370
(I00
g340
tp371
asg22
V[ -rounded ]
p372
sbasg21
I00
sg22
V# [ -rounded ] [  ]*
p373
sg23
I01
sg24
S'L'
sbsg25
(irule
FeatureMatrix
p374
(dp375
g28
(lp376
(I00
g340
tp377
asg22
V[ -rounded ]
p378
sbsg31
(irule
Guard
p379
(dp380
g18
I00
sg19
(lp381
sg21
I00
sg22
V
sg23
I00
sg24
S'R'
sbsg35
(irule
FeatureMatrix
p382
(dp383
g28
(lp384
sg22
V[  ]
p385
sbsg22
V[  ] ---> [ -rounded ] / # [ -rounded ] [  ]* _ 
p386
sbasg41
(lp387
(imorph
Morph
p388
(dp389
g45
(lp390
sba(imorph
Morph
p391
(dp392
g45
(lp393
sba(imorph
Morph
p394
(dp395
g45
(lp396
sbasg53
(dp397
((imorph
Morph
p398
(dp399
g45
(lp400
Vo
aV\u0263
aVo
asb(imorph
Morph
p401
(dp402
g45
(lp403
Vo
aV\u0263
aVo
aVl
aVo
aVr
asb(imorph
Morph
p404
(dp405
g45
(lp406
Vo
aV\u0263
aVo
aVl
aVu
aVu
aVn
asbtp407
(imorph
Morph
p408
(dp409
g45
(lp410
Vo
aV\u0263
aVo
asbs(g68
g71
g74
tp411
(imorph
Morph
p412
(dp413
g45
(lp414
Vp
aVa
aVo
aVr
aVt
aVa
asbs(g293
g296
g299
tp415
(imorph
Morph
p416
(dp417
g45
(lp418
Vk
aVu\u0308
p419
aVn
aVi
asbs(g55
g58
g61
tp420
(imorph
Morph
p421
(dp422
g45
(lp423
Va
aV\u0263
aVo
asbs(g211
g214
g217
tp424
(imorph
Morph
p425
(dp426
g45
(lp427
V\u0161
ag419
aVe
asbs(g143
g146
g149
tp428
(imorph
Morph
p429
(dp430
g45
(lp431
Vk
aVi
aVn
aVi
aVg
aVo\u0308
p432
asbssg81
(lp433
(imorph
Morph
p434
(dp435
g45
(lp436
sba(imorph
Morph
p437
(dp438
g45
(lp439
Vl
aVo
aVr
asba(imorph
Morph
p440
(dp441
g45
(lp442
Vl
aVu
aVu
aVn
asbasbF1520.1369948387146
tp443
a(g6
(g7
g8
NtRp444
(dp445
g11
(lp446
(irule
Rule
p447
(dp448
g15
(irule
Guard
p449
(dp450
g18
I00
sg19
(lp451
(irule
FeatureMatrix
p452
(dp453
g28
(lp454
sg22
V[  ]
p455
sba(irule
FeatureMatrix
p456
(dp457
g28
(lp458
(I01
g340
tp459
asg22
V[ +rounded ]
p460
sbasg21
I00
sg22
V[ +rounded ] [  ]*
p461
sg23
I01
sg24
S'L'
sbsg25
(irule
FeatureMatrix
p462
(dp463
g28
(lp464
(I01
g340
tp465
asg22
V[ +rounded ]
p466
sbsg31
(irule
Guard
p467
(dp468
g18
I00
sg19
(lp469
sg21
I00
sg22
V
sg23
I00
sg24
S'R'
sbsg35
(irule
FeatureMatrix
p470
(dp471
g28
(lp472
(I01
S'tense'
p473
tp474
asg22
V[ +tense ]
p475
sbsg22
V[ +tense ] ---> [ +rounded ] / [ +rounded ] [  ]* _ 
p476
sba(irule
Rule
p477
(dp478
g15
(irule
Guard
p479
(dp480
g18
I00
sg19
(lp481
(irule
FeatureMatrix
p482
(dp483
g28
(lp484
sg22
V[  ]
p485
sba(irule
ConstantPhoneme
p486
(dp487
S'p'
Vi
sbasg21
I00
sg22
Vi [  ]*
p488
sg23
I01
sg24
S'L'
sbsg25
(irule
FeatureMatrix
p489
(dp490
g28
(lp491
(I00
g111
tp492
a(I00
g113
tp493
asg22
V[ -back -low ]
p494
sbsg31
(irule
Guard
p495
(dp496
g18
I00
sg19
(lp497
sg21
I00
sg22
V
sg23
I00
sg24
S'R'
sbsg35
(irule
FeatureMatrix
p498
(dp499
g28
(lp500
(I01
g270
tp501
asg22
V[ +continuant ]
p502
sbsg22
V[ +continuant ] ---> [ -back -low ] / i [  ]* _ 
p503
sbasg41
(lp504
(imorph
Morph
p505
(dp506
g45
(lp507
sba(imorph
Morph
p508
(dp509
g45
(lp510
sba(imorph
Morph
p511
(dp512
g45
(lp513
sbasg53
(dp514
(g398
g401
g404
tp515
(imorph
Morph
p516
(dp517
g45
(lp518
Vo
aV\u0263
aVo
asbs(g68
g71
g74
tp519
(imorph
Morph
p520
(dp521
g45
(lp522
Vp
aVa
aVa
aVr
aVt
aVa
asbs(g293
g296
g299
tp523
(imorph
Morph
p524
(dp525
g45
(lp526
Vk
aVi
aVn
aV\u0268
asbs(g55
g58
g61
tp527
(imorph
Morph
p528
(dp529
g45
(lp530
Va
aV\u0263
aVa
asbs(g211
g214
g217
tp531
(imorph
Morph
p532
(dp533
g45
(lp534
V\u0161
aVi
aVe
asbs((imorph
Morph
p535
(dp536
g45
(lp537
VX
aVo
aVp
aVt
aVo
asb(imorph
Morph
p538
(dp539
g45
(lp540
VX
aVo
aVp
aVt
aVo
aVl
aVo
aVr
asb(imorph
Morph
p541
(dp542
g45
(lp543
VX
aVo
aVp
aVt
aVo
aVl
aVu
aVu
aVn
asbtp544
(imorph
Morph
p545
(dp546
g45
(lp547
VX
aVo
aVp
aVt
aVo
asbs(g143
g146
g149
tp548
(imorph
Morph
p549
(dp550
g45
(lp551
Vk
aVi
aVn
aVi
aVg
aVe
asbssg81
(lp552
(imorph
Morph
p553
(dp554
g45
(lp555
sba(imorph
Morph
p556
(dp557
g45
(lp558
Vl
aVa
aVr
asba(imorph
Morph
p559
(dp560
g45
(lp561
Vl
aV\u0268
aV\u0268
aVn
asbasbF2940.2652759552002
tp562
a(g6
(g7
g8
NtRp563
(dp564
g11
(lp565
(irule
Rule
p566
(dp567
g15
(irule
Guard
p568
(dp569
g18
I00
sg19
(lp570
(irule
FeatureMatrix
p571
(dp572
g28
(lp573
sg22
V[  ]
p574
sba(irule
FeatureMatrix
p575
(dp576
g28
(lp577
(I01
g340
tp578
a(I00
g111
tp579
asg22
V[ +rounded -back ]
p580
sbasg21
I00
sg22
V[ +rounded -back ] [  ]*
p581
sg23
I01
sg24
S'L'
sbsg25
(irule
FeatureMatrix
p582
(dp583
g28
(lp584
(I00
g111
tp585
a(I00
g113
tp586
asg22
V[ -back -low ]
p587
sbsg31
(irule
Guard
p588
(dp589
g18
I00
sg19
(lp590
sg21
I00
sg22
V
sg23
I00
sg24
S'R'
sbsg35
(irule
FeatureMatrix
p591
(dp592
g28
(lp593
sg22
V[  ]
p594
sbsg22
V[  ] ---> [ -back -low ] / [ +rounded -back ] [  ]* _ 
p595
sba(irule
Rule
p596
(dp597
g15
(irule
Guard
p598
(dp599
g18
I00
sg19
(lp600
(irule
FeatureMatrix
p601
(dp602
g28
(lp603
sg22
V[  ]
p604
sba(irule
FeatureMatrix
p605
(dp606
g28
(lp607
(I00
g340
tp608
a(I01
g473
tp609
asg22
V[ +tense -rounded ]
p610
sbasg21
I00
sg22
V[ +tense -rounded ] [  ]*
p611
sg23
I01
sg24
S'L'
sbsg25
(irule
FeatureMatrix
p612
(dp613
g28
(lp614
(I00
g340
tp615
asg22
V[ -rounded ]
p616
sbsg31
(irule
Guard
p617
(dp618
g18
I00
sg19
(lp619
sg21
I00
sg22
V
sg23
I00
sg24
S'R'
sbsg35
(irule
FeatureMatrix
p620
(dp621
g28
(lp622
sg22
V[  ]
p623
sbsg22
V[  ] ---> [ -rounded ] / [ +tense -rounded ] [  ]* _ 
p624
sbasg41
(lp625
(imorph
Morph
p626
(dp627
g45
(lp628
sba(imorph
Morph
p629
(dp630
g45
(lp631
sba(imorph
Morph
p632
(dp633
g45
(lp634
sbasg53
(dp635
((imorph
Morph
p636
(dp637
g45
(lp638
Vb
aVo\u0308
p639
aVr
aVo\u0308
p640
asb(imorph
Morph
p641
(dp642
g45
(lp643
Vb
aVo\u0308
p644
aVr
aVo\u0308
p645
aVl
aVo\u0308
p646
aVr
asb(imorph
Morph
p647
(dp648
g45
(lp649
Vb
aVo\u0308
p650
aVr
aVo\u0308
p651
aVl
aVu\u0308
p652
aVu\u0308
p653
aVn
asbtp654
(imorph
Morph
p655
(dp656
g45
(lp657
Vb
ag432
aVr
ag432
asbs(g398
g401
g404
tp658
(imorph
Morph
p659
(dp660
g45
(lp661
Vo
aV\u0263
aVo
asbs(g68
g71
g74
tp662
(imorph
Morph
p663
(dp664
g45
(lp665
Vp
aVa
aVa
aVr
aVt
aVa
asbs(g293
g296
g299
tp666
(imorph
Morph
p667
(dp668
g45
(lp669
Vk
aVi
aVn
ag419
asbs(g55
g58
g61
tp670
(imorph
Morph
p671
(dp672
g45
(lp673
Va
aV\u0263
aVo
asbs(g211
g214
g217
tp674
(imorph
Morph
p675
(dp676
g45
(lp677
V\u0161
aVi
ag432
asbs(g535
g538
g541
tp678
(imorph
Morph
p679
(dp680
g45
(lp681
VX
aVo
aVp
aVt
aVo
asbs(g143
g146
g149
tp682
(imorph
Morph
p683
(dp684
g45
(lp685
Vk
aVi
aVn
aVi
aVg
ag432
asbssg81
(lp686
(imorph
Morph
p687
(dp688
g45
(lp689
sba(imorph
Morph
p690
(dp691
g45
(lp692
Vl
aVo
aVr
asba(imorph
Morph
p693
(dp694
g45
(lp695
Vl
aVu
aVu
aVn
asbasbF4473.1159138679504
tp696
a(g6
(g7
g8
NtRp697
(dp698
g11
(lp699
(irule
Rule
p700
(dp701
g15
(irule
Guard
p702
(dp703
g18
I00
sg19
(lp704
(irule
FeatureMatrix
p705
(dp706
g28
(lp707
sg22
V[  ]
p708
sba(irule
FeatureMatrix
p709
(dp710
g28
(lp711
(I01
S'vowel'
p712
tp713
asg22
V[ +vowel ]
p714
sbasg21
I00
sg22
V[ +vowel ] [  ]
p715
sg23
I00
sg24
S'L'
sbsg25
(irule
OffsetSpecification
p716
(dp717
S'offset'
p718
I-2
sbsg31
(irule
Guard
p719
(dp720
g18
I00
sg19
(lp721
sg21
I00
sg22
V
sg23
I00
sg24
S'R'
sbsg35
(irule
FeatureMatrix
p722
(dp723
g28
(lp724
(I00
S'coronal'
p725
tp726
asg22
V[ -coronal ]
p727
sbsg22
V[ -coronal ] ---> -2 / [ +vowel ] [  ] _ 
p728
sba(irule
Rule
p729
(dp730
g15
(irule
Guard
p731
(dp732
g18
I00
sg19
(lp733
sg21
I00
sg22
V
sg23
I00
sg24
S'L'
sbsg25
(irule
FeatureMatrix
p734
(dp735
g28
(lp736
(I01
S'high'
p737
tp738
a(I00
g113
tp739
asg22
V[ +high -low ]
p740
sbsg31
(irule
Guard
p741
(dp742
g18
I00
sg19
(lp743
(irule
FeatureMatrix
p744
(dp745
g28
(lp746
(I01
S'nasal'
p747
tp748
asg22
V[ +nasal ]
p749
sbasg21
I00
sg22
g749
sg23
I00
sg24
S'R'
sbsg35
(irule
FeatureMatrix
p750
(dp751
g28
(lp752
sg22
V[  ]
p753
sbsg22
V[  ] ---> [ +high -low ] /  _ [ +nasal ]
p754
sba(irule
Rule
p755
(dp756
g15
(irule
Guard
p757
(dp758
g18
I00
sg19
(lp759
(irule
FeatureMatrix
p760
(dp761
g28
(lp762
sg22
V[  ]
p763
sbasg21
I00
sg22
g763
sg23
I00
sg24
S'L'
sbsg25
(irule
OffsetSpecification
p764
(dp765
g718
I-1
sbsg31
(irule
Guard
p766
(dp767
g18
I00
sg19
(lp768
sg21
I00
sg22
V
sg23
I00
sg24
S'R'
sbsg35
(irule
ConstantPhoneme
p769
(dp770
S'p'
V\u014b
sbsg22
V\u014b ---> -1 / [  ] _ 
p771
sbasg41
(lp772
(imorph
Morph
p773
(dp774
g45
(lp775
sba(imorph
Morph
p776
(dp777
g45
(lp778
sba(imorph
Morph
p779
(dp780
g45
(lp781
sbasg53
(dp782
(g636
g641
g647
tp783
(imorph
Morph
p784
(dp785
g45
(lp786
Vb
ag432
aVr
ag432
asbs(g398
g401
g404
tp787
(imorph
Morph
p788
(dp789
g45
(lp790
Vo
aV\u0263
aVo
asbs(g68
g71
g74
tp791
(imorph
Morph
p792
(dp793
g45
(lp794
Vp
aVa
aVa
aVr
aVt
aVa
asbs(g293
g296
g299
tp795
(imorph
Morph
p796
(dp797
g45
(lp798
Vk
aVi
aVn
aVe
asbs((imorph
Morph
p799
(dp800
g45
(lp801
Vk
aVu
aVu
aVl
asb(imorph
Morph
p802
(dp803
g45
(lp804
Vk
aVu
aVu
aVl
aVl
aVa
aVr
asb(imorph
Morph
p805
(dp806
g45
(lp807
Vk
aVu
aVu
aVl
aVl
aVu
aVu
aVn
asbtp808
(imorph
Morph
p809
(dp810
g45
(lp811
Vk
aVu
aVu
aVl
asbs(g55
g58
g61
tp812
(imorph
Morph
p813
(dp814
g45
(lp815
Va
aV\u0263
aVa
asbs((imorph
Morph
(dp816
g45
(lp817
Vb
aVi
aVe
asb(imorph
Morph
(dp818
g45
(lp819
Vb
aVi
aVe
aVl
aVe
aVr
asb(imorph
Morph
(dp820
g45
(lp821
Vb
aVi
aVe
aVl
aVi
aVi
aVn
asbtp822
(imorph
Morph
p823
(dp824
g45
(lp825
Vb
aVi
aVe
asbs((imorph
Morph
(dp826
g45
(lp827
Vt
aV\u0268
aVa
asb(imorph
Morph
(dp828
g45
(lp829
Vt
aV\u0268
aVa
aVl
aVa
aVr
asb(imorph
Morph
(dp830
g45
(lp831
Vt
aV\u0268
aVa
aVl
aV\u0268
aV\u0268
aVn
asbtp832
(imorph
Morph
p833
(dp834
g45
(lp835
Vt
aV\u0268
aVa
asbs(g211
g214
g217
tp836
(imorph
Morph
p837
(dp838
g45
(lp839
V\u0161
aVi
aVe
asbs(g535
g538
g541
tp840
(imorph
Morph
p841
(dp842
g45
(lp843
VX
aVo
aVp
aVt
aVo
asbs(g143
g146
g149
tp844
(imorph
Morph
p845
(dp846
g45
(lp847
Vk
aVi
aVn
aVe
aVg
aVe
asbssg81
(lp848
(imorph
Morph
p849
(dp850
g45
(lp851
sba(imorph
Morph
p852
(dp853
g45
(lp854
Vl
aVa
aVr
asba(imorph
Morph
p855
(dp856
g45
(lp857
Vl
aVu
aV\u014b
aVn
asbasbF66066.693068981171
tp858
asS'problem'
p859
S'Odden_4.10_Sakha_Yakut'
p860
sS'finalFrontier'
p861
g6
(csolution
Frontier
p862
g8
NtRp863
(dp864
g41
g772
sg81
g848
sg53
g782
sS'frontiers'
p865
(lp866
(lp867
(irule
Rule
p868
(dp869
g15
(irule
Guard
p870
(dp871
g18
I00
sg19
(lp872
(irule
FeatureMatrix
p873
(dp874
g28
(lp875
sg22
V[  ]
p876
sba(irule
FeatureMatrix
p877
(dp878
g28
(lp879
(I01
S'vowel'
p880
tp881
asg22
V[ +vowel ]
p882
sbasg21
I00
sg22
V[ +vowel ] [  ]
p883
sg23
I00
sg24
S'L'
sbsg25
(irule
OffsetSpecification
p884
(dp885
g718
I-2
sbsg31
(irule
Guard
p886
(dp887
g18
I00
sg19
(lp888
sg21
I00
sg22
V
sg23
I00
sg24
S'R'
sbsg35
(irule
FeatureMatrix
p889
(dp890
g28
(lp891
(I00
S'coronal'
p892
tp893
asg22
V[ -coronal ]
p894
sbsg22
V[ -coronal ] ---> -2 / [ +vowel ] [  ] _ 
p895
sba(irule
Rule
p896
(dp897
g15
(irule
Guard
p898
(dp899
g18
I00
sg19
(lp900
(irule
FeatureMatrix
p901
(dp902
g28
(lp903
sg22
Nsba(irule
FeatureMatrix
p904
(dp905
g28
(lp906
(I01
g880
tp907
asg22
Nsbasg21
I00
sg22
Nsg23
I00
sg24
S'L'
sbsg25
(irule
OffsetSpecification
p908
(dp909
g718
I-2
sbsg31
(irule
Guard
p910
(dp911
g18
I00
sg19
(lp912
sg21
I00
sg22
Nsg23
I00
sg24
S'R'
sbsg35
(irule
FeatureMatrix
p913
(dp914
g28
(lp915
(I01
g880
tp916
asg22
Nsbsg22
Nsba(irule
Rule
p917
(dp918
g15
(irule
Guard
p919
(dp920
g18
I00
sg19
(lp921
(irule
FeatureMatrix
p922
(dp923
g28
(lp924
sg22
Nsba(irule
FeatureMatrix
p925
(dp926
g28
(lp927
(I01
S'tense'
p928
tp929
asg22
Nsbasg21
I00
sg22
Nsg23
I00
sg24
S'L'
sbsg25
(irule
OffsetSpecification
p930
(dp931
g718
I-2
sbsg31
(irule
Guard
p932
(dp933
g18
I00
sg19
(lp934
sg21
I00
sg22
Nsg23
I00
sg24
S'R'
sbsg35
(irule
FeatureMatrix
p935
(dp936
g28
(lp937
(I01
g928
tp938
asg22
Nsbsg22
Nsba(irule
Rule
p939
(dp940
g15
(irule
Guard
p941
(dp942
g18
I00
sg19
(lp943
(irule
FeatureMatrix
p944
(dp945
g28
(lp946
sg22
Nsba(irule
FeatureMatrix
p947
(dp948
g28
(lp949
(I01
g880
tp950
asg22
Nsbasg21
I00
sg22
Nsg23
I00
sg24
S'L'
sbsg25
(irule
OffsetSpecification
p951
(dp952
g718
I-2
sbsg31
(irule
Guard
p953
(dp954
g18
I00
sg19
(lp955
sg21
I00
sg22
Nsg23
I00
sg24
S'R'
sbsg35
(irule
FeatureMatrix
p956
(dp957
g28
(lp958
(I01
g928
tp959
asg22
Nsbsg22
Nsba(irule
Rule
p960
(dp961
g15
(irule
Guard
p962
(dp963
g18
I00
sg19
(lp964
(irule
FeatureMatrix
p965
(dp966
g28
(lp967
sg22
Nsba(irule
FeatureMatrix
p968
(dp969
g28
(lp970
(I01
g928
tp971
asg22
Nsbasg21
I00
sg22
Nsg23
I00
sg24
S'L'
sbsg25
(irule
OffsetSpecification
p972
(dp973
g718
I-2
sbsg31
(irule
Guard
p974
(dp975
g18
I00
sg19
(lp976
sg21
I00
sg22
Nsg23
I00
sg24
S'R'
sbsg35
(irule
FeatureMatrix
p977
(dp978
g28
(lp979
(I01
g880
tp980
asg22
Nsbsg22
Nsba(irule
Rule
p981
(dp982
g15
(irule
Guard
p983
(dp984
g18
I00
sg19
(lp985
(irule
FeatureMatrix
p986
(dp987
g28
(lp988
sg22
Nsba(irule
FeatureMatrix
p989
(dp990
g28
(lp991
(I01
g928
tp992
asg22
Nsbasg21
I00
sg22
Nsg23
I00
sg24
S'L'
sbsg25
(irule
OffsetSpecification
p993
(dp994
g718
I-2
sbsg31
(irule
Guard
p995
(dp996
g18
I00
sg19
(lp997
sg21
I00
sg22
Nsg23
I00
sg24
S'R'
sbsg35
(irule
FeatureMatrix
p998
(dp999
g28
(lp1000
(I00
g892
tp1001
asg22
Nsbsg22
Nsba(irule
Rule
p1002
(dp1003
g15
(irule
Guard
p1004
(dp1005
g18
I00
sg19
(lp1006
(irule
FeatureMatrix
p1007
(dp1008
g28
(lp1009
sg22
Nsba(irule
FeatureMatrix
p1010
(dp1011
g28
(lp1012
(I01
g880
tp1013
asg22
Nsbasg21
I00
sg22
Nsg23
I00
sg24
S'L'
sbsg25
(irule
OffsetSpecification
p1014
(dp1015
g718
I-2
sbsg31
(irule
Guard
p1016
(dp1017
g18
I00
sg19
(lp1018
sg21
I00
sg22
Nsg23
I00
sg24
S'R'
sbsg35
(irule
FeatureMatrix
p1019
(dp1020
g28
(lp1021
(I01
S'continuant'
p1022
tp1023
a(I00
g892
tp1024
asg22
Nsbsg22
Nsba(irule
Rule
p1025
(dp1026
g15
(irule
Guard
p1027
(dp1028
g18
I00
sg19
(lp1029
(irule
FeatureMatrix
p1030
(dp1031
g28
(lp1032
sg22
Nsba(irule
FeatureMatrix
p1033
(dp1034
g28
(lp1035
(I01
g1022
tp1036
a(I01
g928
tp1037
asg22
Nsbasg21
I00
sg22
Nsg23
I00
sg24
S'L'
sbsg25
(irule
OffsetSpecification
p1038
(dp1039
g718
I-2
sbsg31
(irule
Guard
p1040
(dp1041
g18
I00
sg19
(lp1042
sg21
I00
sg22
Nsg23
I00
sg24
S'R'
sbsg35
(irule
FeatureMatrix
p1043
(dp1044
g28
(lp1045
(I01
g928
tp1046
asg22
Nsbsg22
Nsba(irule
Rule
p1047
(dp1048
g15
(irule
Guard
p1049
(dp1050
g18
I00
sg19
(lp1051
(irule
FeatureMatrix
p1052
(dp1053
g28
(lp1054
sg22
Nsba(irule
FeatureMatrix
p1055
(dp1056
g28
(lp1057
(I01
g928
tp1058
asg22
Nsbasg21
I00
sg22
Nsg23
I00
sg24
S'L'
sbsg25
(irule
OffsetSpecification
p1059
(dp1060
g718
I-2
sbsg31
(irule
Guard
p1061
(dp1062
g18
I00
sg19
(lp1063
sg21
I00
sg22
Nsg23
I00
sg24
S'R'
sbsg35
(irule
FeatureMatrix
p1064
(dp1065
g28
(lp1066
(I01
g880
tp1067
a(I01
S'voice'
p1068
tp1069
asg22
Nsbsg22
Nsba(irule
Rule
p1070
(dp1071
g15
(irule
Guard
p1072
(dp1073
g18
I00
sg19
(lp1074
(irule
FeatureMatrix
p1075
(dp1076
g28
(lp1077
(I00
S'back'
p1078
tp1079
asg22
Nsba(irule
FeatureMatrix
p1080
(dp1081
g28
(lp1082
(I01
g880
tp1083
asg22
Nsbasg21
I00
sg22
Nsg23
I00
sg24
S'L'
sbsg25
(irule
OffsetSpecification
p1084
(dp1085
g718
I-2
sbsg31
(irule
Guard
p1086
(dp1087
g18
I00
sg19
(lp1088
sg21
I00
sg22
Nsg23
I00
sg24
S'R'
sbsg35
(irule
FeatureMatrix
p1089
(dp1090
g28
(lp1091
(I01
g880
tp1092
asg22
Nsbsg22
Nsba(irule
Rule
p1093
(dp1094
g15
(irule
Guard
p1095
(dp1096
g18
I00
sg19
(lp1097
(irule
FeatureMatrix
p1098
(dp1099
g28
(lp1100
sg22
Nsba(irule
FeatureMatrix
p1101
(dp1102
g28
(lp1103
(I00
S'anterior'
p1104
tp1105
a(I01
g928
tp1106
asg22
Nsbasg21
I00
sg22
Nsg23
I00
sg24
S'L'
sbsg25
(irule
OffsetSpecification
p1107
(dp1108
g718
I-2
sbsg31
(irule
Guard
p1109
(dp1110
g18
I00
sg19
(lp1111
sg21
I00
sg22
Nsg23
I00
sg24
S'R'
sbsg35
(irule
FeatureMatrix
p1112
(dp1113
g28
(lp1114
(I00
g892
tp1115
asg22
Nsbsg22
Nsba(irule
Rule
p1116
(dp1117
g15
(irule
Guard
p1118
(dp1119
g18
I00
sg19
(lp1120
(irule
FeatureMatrix
p1121
(dp1122
g28
(lp1123
sg22
Nsba(irule
FeatureMatrix
p1124
(dp1125
g28
(lp1126
(I01
g928
tp1127
asg22
Nsbasg21
I00
sg22
Nsg23
I00
sg24
S'L'
sbsg25
(irule
OffsetSpecification
p1128
(dp1129
g718
I-2
sbsg31
(irule
Guard
p1130
(dp1131
g18
I00
sg19
(lp1132
sg21
I00
sg22
Nsg23
I00
sg24
S'R'
sbsg35
(irule
FeatureMatrix
p1133
(dp1134
g28
(lp1135
(I01
S'sonorant'
p1136
tp1137
a(I00
g892
tp1138
asg22
Nsbsg22
Nsba(irule
Rule
p1139
(dp1140
g15
(irule
Guard
p1141
(dp1142
g18
I00
sg19
(lp1143
(irule
FeatureMatrix
p1144
(dp1145
g28
(lp1146
sg22
Nsba(irule
FeatureMatrix
p1147
(dp1148
g28
(lp1149
(I00
S'liquid'
p1150
tp1151
a(I01
g1136
tp1152
asg22
Nsbasg21
I00
sg22
Nsg23
I00
sg24
S'L'
sbsg25
(irule
OffsetSpecification
p1153
(dp1154
g718
I-2
sbsg31
(irule
Guard
p1155
(dp1156
g18
I00
sg19
(lp1157
sg21
I00
sg22
Nsg23
I00
sg24
S'R'
sbsg35
(irule
FeatureMatrix
p1158
(dp1159
g28
(lp1160
(I01
g880
tp1161
asg22
Nsbsg22
Nsba(irule
Rule
p1162
(dp1163
g15
(irule
Guard
p1164
(dp1165
g18
I00
sg19
(lp1166
(irule
FeatureMatrix
p1167
(dp1168
g28
(lp1169
sg22
Nsba(irule
FeatureMatrix
p1170
(dp1171
g28
(lp1172
(I01
g880
tp1173
a(I00
S'sibilant'
p1174
tp1175
asg22
Nsbasg21
I00
sg22
Nsg23
I00
sg24
S'L'
sbsg25
(irule
OffsetSpecification
p1176
(dp1177
g718
I-2
sbsg31
(irule
Guard
p1178
(dp1179
g18
I00
sg19
(lp1180
sg21
I00
sg22
Nsg23
I00
sg24
S'R'
sbsg35
(irule
FeatureMatrix
p1181
(dp1182
g28
(lp1183
(I01
g880
tp1184
asg22
Nsbsg22
Nsba(irule
Rule
p1185
(dp1186
g15
(irule
Guard
p1187
(dp1188
g18
I00
sg19
(lp1189
(irule
FeatureMatrix
p1190
(dp1191
g28
(lp1192
sg22
Nsba(irule
FeatureMatrix
p1193
(dp1194
g28
(lp1195
(I01
g928
tp1196
asg22
Nsbasg21
I00
sg22
Nsg23
I00
sg24
S'L'
sbsg25
(irule
OffsetSpecification
p1197
(dp1198
g718
I-2
sbsg31
(irule
Guard
p1199
(dp1200
g18
I00
sg19
(lp1201
sg21
I00
sg22
Nsg23
I00
sg24
S'R'
sbsg35
(irule
FeatureMatrix
p1202
(dp1203
g28
(lp1204
(I01
g1022
tp1205
a(I00
g892
tp1206
asg22
Nsbsg22
Nsba(irule
Rule
p1207
(dp1208
g15
(irule
Guard
p1209
(dp1210
g18
I00
sg19
(lp1211
(irule
FeatureMatrix
p1212
(dp1213
g28
(lp1214
sg22
Nsba(irule
FeatureMatrix
p1215
(dp1216
g28
(lp1217
(I01
g880
tp1218
asg22
Nsbasg21
I00
sg22
Nsg23
I00
sg24
S'L'
sbsg25
(irule
OffsetSpecification
p1219
(dp1220
g718
I-2
sbsg31
(irule
Guard
p1221
(dp1222
g18
I00
sg19
(lp1223
sg21
I00
sg22
Nsg23
I00
sg24
S'R'
sbsg35
(irule
FeatureMatrix
p1224
(dp1225
g28
(lp1226
(I00
g892
tp1227
a(I00
g1174
tp1228
asg22
Nsbsg22
Nsba(irule
Rule
p1229
(dp1230
g15
(irule
Guard
p1231
(dp1232
g18
I00
sg19
(lp1233
(irule
FeatureMatrix
p1234
(dp1235
g28
(lp1236
sg22
Nsba(irule
FeatureMatrix
p1237
(dp1238
g28
(lp1239
(I01
g928
tp1240
asg22
Nsbasg21
I00
sg22
Nsg23
I00
sg24
S'L'
sbsg25
(irule
OffsetSpecification
p1241
(dp1242
g718
I-2
sbsg31
(irule
Guard
p1243
(dp1244
g18
I00
sg19
(lp1245
sg21
I00
sg22
Nsg23
I00
sg24
S'R'
sbsg35
(irule
FeatureMatrix
p1246
(dp1247
g28
(lp1248
(I01
g880
tp1249
a(I00
g1174
tp1250
asg22
Nsbsg22
Nsba(irule
Rule
p1251
(dp1252
g15
(irule
Guard
p1253
(dp1254
g18
I00
sg19
(lp1255
(irule
FeatureMatrix
p1256
(dp1257
g28
(lp1258
sg22
Nsba(irule
FeatureMatrix
p1259
(dp1260
g28
(lp1261
(I00
g1150
tp1262
a(I01
g1136
tp1263
asg22
Nsbasg21
I00
sg22
Nsg23
I00
sg24
S'L'
sbsg25
(irule
OffsetSpecification
p1264
(dp1265
g718
I-2
sbsg31
(irule
Guard
p1266
(dp1267
g18
I00
sg19
(lp1268
sg21
I00
sg22
Nsg23
I00
sg24
S'R'
sbsg35
(irule
FeatureMatrix
p1269
(dp1270
g28
(lp1271
(I01
g928
tp1272
asg22
Nsbsg22
Nsba(irule
Rule
p1273
(dp1274
g15
(irule
Guard
p1275
(dp1276
g18
I00
sg19
(lp1277
(irule
FeatureMatrix
p1278
(dp1279
g28
(lp1280
sg22
Nsba(irule
FeatureMatrix
p1281
(dp1282
g28
(lp1283
(I01
g880
tp1284
asg22
Nsbasg21
I00
sg22
Nsg23
I00
sg24
S'L'
sbsg25
(irule
OffsetSpecification
p1285
(dp1286
g718
I-2
sbsg31
(irule
Guard
p1287
(dp1288
g18
I00
sg19
(lp1289
sg21
I00
sg22
Nsg23
I00
sg24
S'R'
sbsg35
(irule
FeatureMatrix
p1290
(dp1291
g28
(lp1292
(I00
g1104
tp1293
a(I01
g928
tp1294
asg22
Nsbsg22
Nsba(irule
Rule
p1295
(dp1296
g15
(irule
Guard
p1297
(dp1298
g18
I00
sg19
(lp1299
(irule
FeatureMatrix
p1300
(dp1301
g28
(lp1302
sg22
Nsba(irule
FeatureMatrix
p1303
(dp1304
g28
(lp1305
(I01
g1022
tp1306
a(I00
g892
tp1307
asg22
Nsbasg21
I00
sg22
Nsg23
I00
sg24
S'L'
sbsg25
(irule
OffsetSpecification
p1308
(dp1309
g718
I-2
sbsg31
(irule
Guard
p1310
(dp1311
g18
I00
sg19
(lp1312
sg21
I00
sg22
Nsg23
I00
sg24
S'R'
sbsg35
(irule
FeatureMatrix
p1313
(dp1314
g28
(lp1315
(I01
g880
tp1316
asg22
Nsbsg22
Nsba(irule
Rule
p1317
(dp1318
g15
(irule
Guard
p1319
(dp1320
g18
I00
sg19
(lp1321
(irule
FeatureMatrix
p1322
(dp1323
g28
(lp1324
sg22
Nsba(irule
FeatureMatrix
p1325
(dp1326
g28
(lp1327
(I00
g1150
tp1328
a(I01
g880
tp1329
asg22
Nsbasg21
I00
sg22
Nsg23
I00
sg24
S'L'
sbsg25
(irule
OffsetSpecification
p1330
(dp1331
g718
I-2
sbsg31
(irule
Guard
p1332
(dp1333
g18
I00
sg19
(lp1334
sg21
I00
sg22
Nsg23
I00
sg24
S'R'
sbsg35
(irule
FeatureMatrix
p1335
(dp1336
g28
(lp1337
(I00
g892
tp1338
asg22
Nsbsg22
Nsba(irule
Rule
p1339
(dp1340
g15
(irule
Guard
p1341
(dp1342
g18
I00
sg19
(lp1343
(irule
FeatureMatrix
p1344
(dp1345
g28
(lp1346
sg22
Nsba(irule
FeatureMatrix
p1347
(dp1348
g28
(lp1349
(I00
S'lateral'
p1350
tp1351
a(I01
g880
tp1352
asg22
Nsbasg21
I00
sg22
Nsg23
I00
sg24
S'L'
sbsg25
(irule
OffsetSpecification
p1353
(dp1354
g718
I-2
sbsg31
(irule
Guard
p1355
(dp1356
g18
I00
sg19
(lp1357
sg21
I00
sg22
Nsg23
I00
sg24
S'R'
sbsg35
(irule
FeatureMatrix
p1358
(dp1359
g28
(lp1360
(I00
g892
tp1361
asg22
Nsbsg22
Nsba(irule
Rule
p1362
(dp1363
g15
(irule
Guard
p1364
(dp1365
g18
I00
sg19
(lp1366
(irule
FeatureMatrix
p1367
(dp1368
g28
(lp1369
sg22
Nsba(irule
FeatureMatrix
p1370
(dp1371
g28
(lp1372
(I00
S'palletized'
p1373
tp1374
a(I01
g880
tp1375
asg22
Nsbasg21
I00
sg22
Nsg23
I00
sg24
S'L'
sbsg25
(irule
OffsetSpecification
p1376
(dp1377
g718
I-2
sbsg31
(irule
Guard
p1378
(dp1379
g18
I00
sg19
(lp1380
sg21
I00
sg22
Nsg23
I00
sg24
S'R'
sbsg35
(irule
FeatureMatrix
p1381
(dp1382
g28
(lp1383
(I01
g928
tp1384
asg22
Nsbsg22
Nsba(irule
Rule
p1385
(dp1386
g15
(irule
Guard
p1387
(dp1388
g18
I00
sg19
(lp1389
(irule
FeatureMatrix
p1390
(dp1391
g28
(lp1392
sg22
Nsba(irule
FeatureMatrix
p1393
(dp1394
g28
(lp1395
(I00
g1373
tp1396
a(I01
g880
tp1397
asg22
Nsbasg21
I00
sg22
Nsg23
I00
sg24
S'L'
sbsg25
(irule
OffsetSpecification
p1398
(dp1399
g718
I-2
sbsg31
(irule
Guard
p1400
(dp1401
g18
I00
sg19
(lp1402
sg21
I00
sg22
Nsg23
I00
sg24
S'R'
sbsg35
(irule
FeatureMatrix
p1403
(dp1404
g28
(lp1405
(I00
g892
tp1406
asg22
Nsbsg22
Nsba(irule
Rule
p1407
(dp1408
g15
(irule
Guard
p1409
(dp1410
g18
I00
sg19
(lp1411
(irule
FeatureMatrix
p1412
(dp1413
g28
(lp1414
sg22
Nsba(irule
FeatureMatrix
p1415
(dp1416
g28
(lp1417
(I01
g880
tp1418
a(I01
g1068
tp1419
asg22
Nsbasg21
I00
sg22
Nsg23
I00
sg24
S'L'
sbsg25
(irule
OffsetSpecification
p1420
(dp1421
g718
I-2
sbsg31
(irule
Guard
p1422
(dp1423
g18
I00
sg19
(lp1424
sg21
I00
sg22
Nsg23
I00
sg24
S'R'
sbsg35
(irule
FeatureMatrix
p1425
(dp1426
g28
(lp1427
(I00
g892
tp1428
asg22
Nsbsg22
Nsba(irule
Rule
p1429
(dp1430
g15
(irule
Guard
p1431
(dp1432
g18
I00
sg19
(lp1433
(irule
FeatureMatrix
p1434
(dp1435
g28
(lp1436
sg22
Nsba(irule
FeatureMatrix
p1437
(dp1438
g28
(lp1439
(I01
g928
tp1440
asg22
Nsbasg21
I00
sg22
Nsg23
I00
sg24
S'L'
sbsg25
(irule
OffsetSpecification
p1441
(dp1442
g718
I-2
sbsg31
(irule
Guard
p1443
(dp1444
g18
I00
sg19
(lp1445
sg21
I00
sg22
Nsg23
I00
sg24
S'R'
sbsg35
(irule
FeatureMatrix
p1446
(dp1447
g28
(lp1448
(I00
g1104
tp1449
a(I00
g1150
tp1450
asg22
Nsbsg22
Nsba(irule
Rule
p1451
(dp1452
g15
(irule
Guard
p1453
(dp1454
g18
I00
sg19
(lp1455
(irule
FeatureMatrix
p1456
(dp1457
g28
(lp1458
(I00
g880
tp1459
asg22
Nsba(irule
FeatureMatrix
p1460
(dp1461
g28
(lp1462
(I01
g880
tp1463
asg22
Nsbasg21
I00
sg22
Nsg23
I00
sg24
S'L'
sbsg25
(irule
OffsetSpecification
p1464
(dp1465
g718
I-2
sbsg31
(irule
Guard
p1466
(dp1467
g18
I00
sg19
(lp1468
sg21
I00
sg22
Nsg23
I00
sg24
S'R'
sbsg35
(irule
FeatureMatrix
p1469
(dp1470
g28
(lp1471
(I00
g892
tp1472
asg22
Nsbsg22
Nsba(irule
Rule
p1473
(dp1474
g15
(irule
Guard
p1475
(dp1476
g18
I00
sg19
(lp1477
(irule
FeatureMatrix
p1478
(dp1479
g28
(lp1480
sg22
Nsba(irule
FeatureMatrix
p1481
(dp1482
g28
(lp1483
(I01
g928
tp1484
asg22
Nsbasg21
I00
sg22
Nsg23
I00
sg24
S'L'
sbsg25
(irule
OffsetSpecification
p1485
(dp1486
g718
I-2
sbsg31
(irule
Guard
p1487
(dp1488
g18
I00
sg19
(lp1489
sg21
I00
sg22
Nsg23
I00
sg24
S'R'
sbsg35
(irule
FeatureMatrix
p1490
(dp1491
g28
(lp1492
(I00
g1150
tp1493
a(I01
g1022
tp1494
asg22
Nsbsg22
Nsba(irule
Rule
p1495
(dp1496
g15
(irule
Guard
p1497
(dp1498
g18
I00
sg19
(lp1499
(irule
FeatureMatrix
p1500
(dp1501
g28
(lp1502
sg22
Nsba(irule
FeatureMatrix
p1503
(dp1504
g28
(lp1505
(I01
g1022
tp1506
a(I01
g880
tp1507
asg22
Nsbasg21
I00
sg22
Nsg23
I00
sg24
S'L'
sbsg25
(irule
OffsetSpecification
p1508
(dp1509
g718
I-2
sbsg31
(irule
Guard
p1510
(dp1511
g18
I00
sg19
(lp1512
sg21
I00
sg22
Nsg23
I00
sg24
S'R'
sbsg35
(irule
FeatureMatrix
p1513
(dp1514
g28
(lp1515
(I00
g892
tp1516
asg22
Nsbsg22
Nsba(irule
Rule
p1517
(dp1518
g15
(irule
Guard
p1519
(dp1520
g18
I00
sg19
(lp1521
(irule
FeatureMatrix
p1522
(dp1523
g28
(lp1524
(I00
S'high'
p1525
tp1526
asg22
Nsba(irule
FeatureMatrix
p1527
(dp1528
g28
(lp1529
(I01
g928
tp1530
asg22
Nsbasg21
I00
sg22
Nsg23
I00
sg24
S'L'
sbsg25
(irule
OffsetSpecification
p1531
(dp1532
g718
I-2
sbsg31
(irule
Guard
p1533
(dp1534
g18
I00
sg19
(lp1535
sg21
I00
sg22
Nsg23
I00
sg24
S'R'
sbsg35
(irule
FeatureMatrix
p1536
(dp1537
g28
(lp1538
(I01
g880
tp1539
asg22
Nsbsg22
Nsba(irule
Rule
p1540
(dp1541
g15
(irule
Guard
p1542
(dp1543
g18
I00
sg19
(lp1544
(irule
FeatureMatrix
p1545
(dp1546
g28
(lp1547
(I00
g1525
tp1548
asg22
Nsba(irule
FeatureMatrix
p1549
(dp1550
g28
(lp1551
(I01
g880
tp1552
asg22
Nsbasg21
I00
sg22
Nsg23
I00
sg24
S'L'
sbsg25
(irule
OffsetSpecification
p1553
(dp1554
g718
I-2
sbsg31
(irule
Guard
p1555
(dp1556
g18
I00
sg19
(lp1557
sg21
I00
sg22
Nsg23
I00
sg24
S'R'
sbsg35
(irule
FeatureMatrix
p1558
(dp1559
g28
(lp1560
(I01
g928
tp1561
asg22
Nsbsg22
Nsba(irule
Rule
p1562
(dp1563
g15
(irule
Guard
p1564
(dp1565
g18
I00
sg19
(lp1566
(irule
FeatureMatrix
p1567
(dp1568
g28
(lp1569
sg22
Nsba(irule
FeatureMatrix
p1570
(dp1571
g28
(lp1572
(I01
g880
tp1573
asg22
Nsbasg21
I00
sg22
Nsg23
I00
sg24
S'L'
sbsg25
(irule
OffsetSpecification
p1574
(dp1575
g718
I-2
sbsg31
(irule
Guard
p1576
(dp1577
g18
I00
sg19
(lp1578
sg21
I00
sg22
Nsg23
I00
sg24
S'R'
sbsg35
(irule
FeatureMatrix
p1579
(dp1580
g28
(lp1581
(I01
g928
tp1582
a(I00
g1174
tp1583
asg22
Nsbsg22
Nsba(irule
Rule
p1584
(dp1585
g15
(irule
Guard
p1586
(dp1587
g18
I00
sg19
(lp1588
(irule
FeatureMatrix
p1589
(dp1590
g28
(lp1591
(I00
g880
tp1592
asg22
Nsba(irule
FeatureMatrix
p1593
(dp1594
g28
(lp1595
(I01
g928
tp1596
asg22
Nsbasg21
I00
sg22
Nsg23
I00
sg24
S'L'
sbsg25
(irule
OffsetSpecification
p1597
(dp1598
g718
I-2
sbsg31
(irule
Guard
p1599
(dp1600
g18
I00
sg19
(lp1601
sg21
I00
sg22
Nsg23
I00
sg24
S'R'
sbsg35
(irule
FeatureMatrix
p1602
(dp1603
g28
(lp1604
(I01
g880
tp1605
asg22
Nsbsg22
Nsba(irule
Rule
p1606
(dp1607
g15
(irule
Guard
p1608
(dp1609
g18
I00
sg19
(lp1610
(irule
FeatureMatrix
p1611
(dp1612
g28
(lp1613
sg22
Nsba(irule
FeatureMatrix
p1614
(dp1615
g28
(lp1616
(I01
g880
tp1617
asg22
Nsbasg21
I00
sg22
Nsg23
I00
sg24
S'L'
sbsg25
(irule
OffsetSpecification
p1618
(dp1619
g718
I-2
sbsg31
(irule
Guard
p1620
(dp1621
g18
I00
sg19
(lp1622
sg21
I00
sg22
Nsg23
I00
sg24
S'R'
sbsg35
(irule
FeatureMatrix
p1623
(dp1624
g28
(lp1625
(I01
g928
tp1626
a(I01
g880
tp1627
asg22
Nsbsg22
Nsba(irule
Rule
p1628
(dp1629
g15
(irule
Guard
p1630
(dp1631
g18
I00
sg19
(lp1632
(irule
FeatureMatrix
p1633
(dp1634
g28
(lp1635
(I01
g1136
tp1636
asg22
Nsba(irule
FeatureMatrix
p1637
(dp1638
g28
(lp1639
(I01
g928
tp1640
asg22
Nsbasg21
I00
sg22
Nsg23
I00
sg24
S'L'
sbsg25
(irule
OffsetSpecification
p1641
(dp1642
g718
I-2
sbsg31
(irule
Guard
p1643
(dp1644
g18
I00
sg19
(lp1645
sg21
I00
sg22
Nsg23
I00
sg24
S'R'
sbsg35
(irule
FeatureMatrix
p1646
(dp1647
g28
(lp1648
(I01
g928
tp1649
asg22
Nsbsg22
Nsba(irule
Rule
p1650
(dp1651
g15
(irule
Guard
p1652
(dp1653
g18
I00
sg19
(lp1654
(irule
FeatureMatrix
p1655
(dp1656
g28
(lp1657
(I00
g1525
tp1658
asg22
Nsba(irule
FeatureMatrix
p1659
(dp1660
g28
(lp1661
(I01
g928
tp1662
asg22
Nsbasg21
I00
sg22
Nsg23
I00
sg24
S'L'
sbsg25
(irule
OffsetSpecification
p1663
(dp1664
g718
I-2
sbsg31
(irule
Guard
p1665
(dp1666
g18
I00
sg19
(lp1667
sg21
I00
sg22
Nsg23
I00
sg24
S'R'
sbsg35
(irule
FeatureMatrix
p1668
(dp1669
g28
(lp1670
(I00
g892
tp1671
asg22
Nsbsg22
Nsba(irule
Rule
p1672
(dp1673
g15
(irule
Guard
p1674
(dp1675
g18
I00
sg19
(lp1676
(irule
FeatureMatrix
p1677
(dp1678
g28
(lp1679
(I01
g892
tp1680
asg22
Nsba(irule
FeatureMatrix
p1681
(dp1682
g28
(lp1683
(I01
g928
tp1684
asg22
Nsbasg21
I00
sg22
Nsg23
I00
sg24
S'L'
sbsg25
(irule
OffsetSpecification
p1685
(dp1686
g718
I-2
sbsg31
(irule
Guard
p1687
(dp1688
g18
I00
sg19
(lp1689
sg21
I00
sg22
Nsg23
I00
sg24
S'R'
sbsg35
(irule
FeatureMatrix
p1690
(dp1691
g28
(lp1692
(I01
g928
tp1693
asg22
Nsbsg22
Nsba(irule
Rule
p1694
(dp1695
g15
(irule
Guard
p1696
(dp1697
g18
I00
sg19
(lp1698
(irule
FeatureMatrix
p1699
(dp1700
g28
(lp1701
(I00
g1078
tp1702
asg22
Nsba(irule
FeatureMatrix
p1703
(dp1704
g28
(lp1705
(I01
g928
tp1706
asg22
Nsbasg21
I00
sg22
Nsg23
I00
sg24
S'L'
sbsg25
(irule
OffsetSpecification
p1707
(dp1708
g718
I-2
sbsg31
(irule
Guard
p1709
(dp1710
g18
I00
sg19
(lp1711
sg21
I00
sg22
Nsg23
I00
sg24
S'R'
sbsg35
(irule
FeatureMatrix
p1712
(dp1713
g28
(lp1714
(I01
g880
tp1715
asg22
Nsbsg22
Nsba(irule
Rule
p1716
(dp1717
g15
(irule
Guard
p1718
(dp1719
g18
I00
sg19
(lp1720
(irule
FeatureMatrix
p1721
(dp1722
g28
(lp1723
sg22
Nsba(irule
FeatureMatrix
p1724
(dp1725
g28
(lp1726
(I00
g1150
tp1727
a(I01
g928
tp1728
asg22
Nsbasg21
I00
sg22
Nsg23
I00
sg24
S'L'
sbsg25
(irule
OffsetSpecification
p1729
(dp1730
g718
I-2
sbsg31
(irule
Guard
p1731
(dp1732
g18
I00
sg19
(lp1733
sg21
I00
sg22
Nsg23
I00
sg24
S'R'
sbsg35
(irule
FeatureMatrix
p1734
(dp1735
g28
(lp1736
(I01
g880
tp1737
asg22
Nsbsg22
Nsba(irule
Rule
p1738
(dp1739
g15
(irule
Guard
p1740
(dp1741
g18
I00
sg19
(lp1742
(irule
FeatureMatrix
p1743
(dp1744
g28
(lp1745
(I01
g1136
tp1746
asg22
Nsba(irule
FeatureMatrix
p1747
(dp1748
g28
(lp1749
(I01
g928
tp1750
asg22
Nsbasg21
I00
sg22
Nsg23
I00
sg24
S'L'
sbsg25
(irule
OffsetSpecification
p1751
(dp1752
g718
I-2
sbsg31
(irule
Guard
p1753
(dp1754
g18
I00
sg19
(lp1755
sg21
I00
sg22
Nsg23
I00
sg24
S'R'
sbsg35
(irule
FeatureMatrix
p1756
(dp1757
g28
(lp1758
(I00
g892
tp1759
asg22
Nsbsg22
Nsba(irule
Rule
p1760
(dp1761
g15
(irule
Guard
p1762
(dp1763
g18
I00
sg19
(lp1764
(irule
FeatureMatrix
p1765
(dp1766
g28
(lp1767
sg22
Nsba(irule
FeatureMatrix
p1768
(dp1769
g28
(lp1770
(I00
g1150
tp1771
a(I01
g880
tp1772
asg22
Nsbasg21
I00
sg22
Nsg23
I00
sg24
S'L'
sbsg25
(irule
OffsetSpecification
p1773
(dp1774
g718
I-2
sbsg31
(irule
Guard
p1775
(dp1776
g18
I00
sg19
(lp1777
sg21
I00
sg22
Nsg23
I00
sg24
S'R'
sbsg35
(irule
FeatureMatrix
p1778
(dp1779
g28
(lp1780
(I01
g880
tp1781
asg22
Nsbsg22
Nsba(irule
Rule
p1782
(dp1783
g15
(irule
Guard
p1784
(dp1785
g18
I00
sg19
(lp1786
(irule
FeatureMatrix
p1787
(dp1788
g28
(lp1789
sg22
Nsba(irule
FeatureMatrix
p1790
(dp1791
g28
(lp1792
(I01
g928
tp1793
asg22
Nsbasg21
I00
sg22
Nsg23
I00
sg24
S'L'
sbsg25
(irule
OffsetSpecification
p1794
(dp1795
g718
I-2
sbsg31
(irule
Guard
p1796
(dp1797
g18
I00
sg19
(lp1798
sg21
I00
sg22
Nsg23
I00
sg24
S'R'
sbsg35
(irule
FeatureMatrix
p1799
(dp1800
g28
(lp1801
(I01
g928
tp1802
a(I01
g1068
tp1803
asg22
Nsbsg22
Nsba(irule
Rule
p1804
(dp1805
g15
(irule
Guard
p1806
(dp1807
g18
I00
sg19
(lp1808
(irule
FeatureMatrix
p1809
(dp1810
g28
(lp1811
(I01
g892
tp1812
asg22
Nsba(irule
FeatureMatrix
p1813
(dp1814
g28
(lp1815
(I01
g928
tp1816
asg22
Nsbasg21
I00
sg22
Nsg23
I00
sg24
S'L'
sbsg25
(irule
OffsetSpecification
p1817
(dp1818
g718
I-2
sbsg31
(irule
Guard
p1819
(dp1820
g18
I00
sg19
(lp1821
sg21
I00
sg22
Nsg23
I00
sg24
S'R'
sbsg35
(irule
FeatureMatrix
p1822
(dp1823
g28
(lp1824
(I01
g880
tp1825
asg22
Nsbsg22
Nsba(irule
Rule
p1826
(dp1827
g15
(irule
Guard
p1828
(dp1829
g18
I00
sg19
(lp1830
(irule
FeatureMatrix
p1831
(dp1832
g28
(lp1833
sg22
Nsba(irule
FeatureMatrix
p1834
(dp1835
g28
(lp1836
(I01
g880
tp1837
asg22
Nsbasg21
I00
sg22
Nsg23
I00
sg24
S'L'
sbsg25
(irule
OffsetSpecification
p1838
(dp1839
g718
I-2
sbsg31
(irule
Guard
p1840
(dp1841
g18
I00
sg19
(lp1842
sg21
I00
sg22
Nsg23
I00
sg24
S'R'
sbsg35
(irule
FeatureMatrix
p1843
(dp1844
g28
(lp1845
(I00
g1150
tp1846
a(I01
g1022
tp1847
asg22
Nsbsg22
Nsba(irule
Rule
p1848
(dp1849
g15
(irule
Guard
p1850
(dp1851
g18
I00
sg19
(lp1852
(irule
FeatureMatrix
p1853
(dp1854
g28
(lp1855
sg22
Nsba(irule
FeatureMatrix
p1856
(dp1857
g28
(lp1858
(I00
g1350
tp1859
a(I01
g928
tp1860
asg22
Nsbasg21
I00
sg22
Nsg23
I00
sg24
S'L'
sbsg25
(irule
OffsetSpecification
p1861
(dp1862
g718
I-2
sbsg31
(irule
Guard
p1863
(dp1864
g18
I00
sg19
(lp1865
sg21
I00
sg22
Nsg23
I00
sg24
S'R'
sbsg35
(irule
FeatureMatrix
p1866
(dp1867
g28
(lp1868
(I01
g880
tp1869
asg22
Nsbsg22
Nsba(irule
Rule
p1870
(dp1871
g15
(irule
Guard
p1872
(dp1873
g18
I00
sg19
(lp1874
(irule
FeatureMatrix
p1875
(dp1876
g28
(lp1877
sg22
Nsba(irule
FeatureMatrix
p1878
(dp1879
g28
(lp1880
(I01
g928
tp1881
asg22
Nsbasg21
I00
sg22
Nsg23
I00
sg24
S'L'
sbsg25
(irule
OffsetSpecification
p1882
(dp1883
g718
I-2
sbsg31
(irule
Guard
p1884
(dp1885
g18
I00
sg19
(lp1886
sg21
I00
sg22
Nsg23
I00
sg24
S'R'
sbsg35
(irule
FeatureMatrix
p1887
(dp1888
g28
(lp1889
(I01
g928
tp1890
a(I00
g1174
tp1891
asg22
Nsbsg22
Nsba(irule
Rule
p1892
(dp1893
g15
(irule
Guard
p1894
(dp1895
g18
I00
sg19
(lp1896
(irule
FeatureMatrix
p1897
(dp1898
g28
(lp1899
(I01
g1068
tp1900
asg22
Nsba(irule
FeatureMatrix
p1901
(dp1902
g28
(lp1903
(I01
g928
tp1904
asg22
Nsbasg21
I00
sg22
Nsg23
I00
sg24
S'L'
sbsg25
(irule
OffsetSpecification
p1905
(dp1906
g718
I-2
sbsg31
(irule
Guard
p1907
(dp1908
g18
I00
sg19
(lp1909
sg21
I00
sg22
Nsg23
I00
sg24
S'R'
sbsg35
(irule
FeatureMatrix
p1910
(dp1911
g28
(lp1912
(I01
g880
tp1913
asg22
Nsbsg22
Nsba(irule
Rule
p1914
(dp1915
g15
(irule
Guard
p1916
(dp1917
g18
I00
sg19
(lp1918
(irule
FeatureMatrix
p1919
(dp1920
g28
(lp1921
(I01
g892
tp1922
asg22
Nsba(irule
FeatureMatrix
p1923
(dp1924
g28
(lp1925
(I01
g880
tp1926
asg22
Nsbasg21
I00
sg22
Nsg23
I00
sg24
S'L'
sbsg25
(irule
OffsetSpecification
p1927
(dp1928
g718
I-2
sbsg31
(irule
Guard
p1929
(dp1930
g18
I00
sg19
(lp1931
sg21
I00
sg22
Nsg23
I00
sg24
S'R'
sbsg35
(irule
FeatureMatrix
p1932
(dp1933
g28
(lp1934
(I01
g928
tp1935
asg22
Nsbsg22
Nsba(irule
Rule
p1936
(dp1937
g15
(irule
Guard
p1938
(dp1939
g18
I00
sg19
(lp1940
(irule
FeatureMatrix
p1941
(dp1942
g28
(lp1943
sg22
Nsba(irule
FeatureMatrix
p1944
(dp1945
g28
(lp1946
(I01
g928
tp1947
asg22
Nsbasg21
I00
sg22
Nsg23
I00
sg24
S'L'
sbsg25
(irule
OffsetSpecification
p1948
(dp1949
g718
I-2
sbsg31
(irule
Guard
p1950
(dp1951
g18
I00
sg19
(lp1952
sg21
I00
sg22
Nsg23
I00
sg24
S'R'
sbsg35
(irule
FeatureMatrix
p1953
(dp1954
g28
(lp1955
(I00
g892
tp1956
a(I00
g1174
tp1957
asg22
Nsbsg22
Nsba(irule
Rule
p1958
(dp1959
g15
(irule
Guard
p1960
(dp1961
g18
I00
sg19
(lp1962
(irule
FeatureMatrix
p1963
(dp1964
g28
(lp1965
(I00
g928
tp1966
asg22
Nsba(irule
FeatureMatrix
p1967
(dp1968
g28
(lp1969
(I01
g880
tp1970
asg22
Nsbasg21
I00
sg22
Nsg23
I00
sg24
S'L'
sbsg25
(irule
OffsetSpecification
p1971
(dp1972
g718
I-2
sbsg31
(irule
Guard
p1973
(dp1974
g18
I00
sg19
(lp1975
sg21
I00
sg22
Nsg23
I00
sg24
S'R'
sbsg35
(irule
FeatureMatrix
p1976
(dp1977
g28
(lp1978
(I01
g880
tp1979
asg22
Nsbsg22
Nsba(irule
Rule
p1980
(dp1981
g15
(irule
Guard
p1982
(dp1983
g18
I00
sg19
(lp1984
(irule
FeatureMatrix
p1985
(dp1986
g28
(lp1987
sg22
Nsba(irule
FeatureMatrix
p1988
(dp1989
g28
(lp1990
(I01
g880
tp1991
asg22
Nsbasg21
I00
sg22
Nsg23
I00
sg24
S'L'
sbsg25
(irule
OffsetSpecification
p1992
(dp1993
g718
I-2
sbsg31
(irule
Guard
p1994
(dp1995
g18
I00
sg19
(lp1996
sg21
I00
sg22
Nsg23
I00
sg24
S'R'
sbsg35
(irule
FeatureMatrix
p1997
(dp1998
g28
(lp1999
(I00
g1104
tp2000
a(I00
g1150
tp2001
asg22
Nsbsg22
Nsba(irule
Rule
p2002
(dp2003
g15
(irule
Guard
p2004
(dp2005
g18
I00
sg19
(lp2006
(irule
FeatureMatrix
p2007
(dp2008
g28
(lp2009
sg22
Nsba(irule
FeatureMatrix
p2010
(dp2011
g28
(lp2012
(I00
g1150
tp2013
a(I01
g880
tp2014
asg22
Nsbasg21
I00
sg22
Nsg23
I00
sg24
S'L'
sbsg25
(irule
OffsetSpecification
p2015
(dp2016
g718
I-2
sbsg31
(irule
Guard
p2017
(dp2018
g18
I00
sg19
(lp2019
sg21
I00
sg22
Nsg23
I00
sg24
S'R'
sbsg35
(irule
FeatureMatrix
p2020
(dp2021
g28
(lp2022
(I01
g928
tp2023
asg22
Nsbsg22
Nsba(irule
Rule
p2024
(dp2025
g15
(irule
Guard
p2026
(dp2027
g18
I00
sg19
(lp2028
(irule
FeatureMatrix
p2029
(dp2030
g28
(lp2031
sg22
Nsba(irule
FeatureMatrix
p2032
(dp2033
g28
(lp2034
(I01
g928
tp2035
a(I01
g1068
tp2036
asg22
Nsbasg21
I00
sg22
Nsg23
I00
sg24
S'L'
sbsg25
(irule
OffsetSpecification
p2037
(dp2038
g718
I-2
sbsg31
(irule
Guard
p2039
(dp2040
g18
I00
sg19
(lp2041
sg21
I00
sg22
Nsg23
I00
sg24
S'R'
sbsg35
(irule
FeatureMatrix
p2042
(dp2043
g28
(lp2044
(I01
g880
tp2045
asg22
Nsbsg22
Nsba(irule
Rule
p2046
(dp2047
g15
(irule
Guard
p2048
(dp2049
g18
I00
sg19
(lp2050
(irule
FeatureMatrix
p2051
(dp2052
g28
(lp2053
sg22
Nsba(irule
FeatureMatrix
p2054
(dp2055
g28
(lp2056
(I00
g1150
tp2057
a(I01
g928
tp2058
asg22
Nsbasg21
I00
sg22
Nsg23
I00
sg24
S'L'
sbsg25
(irule
OffsetSpecification
p2059
(dp2060
g718
I-2
sbsg31
(irule
Guard
p2061
(dp2062
g18
I00
sg19
(lp2063
sg21
I00
sg22
Nsg23
I00
sg24
S'R'
sbsg35
(irule
FeatureMatrix
p2064
(dp2065
g28
(lp2066
(I01
g928
tp2067
asg22
Nsbsg22
Nsba(irule
Rule
p2068
(dp2069
g15
(irule
Guard
p2070
(dp2071
g18
I00
sg19
(lp2072
(irule
FeatureMatrix
p2073
(dp2074
g28
(lp2075
(I01
g1068
tp2076
asg22
Nsba(irule
FeatureMatrix
p2077
(dp2078
g28
(lp2079
(I01
g880
tp2080
asg22
Nsbasg21
I00
sg22
Nsg23
I00
sg24
S'L'
sbsg25
(irule
OffsetSpecification
p2081
(dp2082
g718
I-2
sbsg31
(irule
Guard
p2083
(dp2084
g18
I00
sg19
(lp2085
sg21
I00
sg22
Nsg23
I00
sg24
S'R'
sbsg35
(irule
FeatureMatrix
p2086
(dp2087
g28
(lp2088
(I00
g892
tp2089
asg22
Nsbsg22
Nsba(irule
Rule
p2090
(dp2091
g15
(irule
Guard
p2092
(dp2093
g18
I00
sg19
(lp2094
(irule
FeatureMatrix
p2095
(dp2096
g28
(lp2097
sg22
Nsba(irule
FeatureMatrix
p2098
(dp2099
g28
(lp2100
(I01
g880
tp2101
asg22
Nsbasg21
I00
sg22
Nsg23
I00
sg24
S'L'
sbsg25
(irule
OffsetSpecification
p2102
(dp2103
g718
I-2
sbsg31
(irule
Guard
p2104
(dp2105
g18
I00
sg19
(lp2106
sg21
I00
sg22
Nsg23
I00
sg24
S'R'
sbsg35
(irule
FeatureMatrix
p2107
(dp2108
g28
(lp2109
(I01
g1136
tp2110
a(I00
g892
tp2111
asg22
Nsbsg22
Nsba(irule
Rule
p2112
(dp2113
g15
(irule
Guard
p2114
(dp2115
g18
I00
sg19
(lp2116
(irule
FeatureMatrix
p2117
(dp2118
g28
(lp2119
sg22
Nsba(irule
FeatureMatrix
p2120
(dp2121
g28
(lp2122
(I01
g880
tp2123
asg22
Nsbasg21
I00
sg22
Nsg23
I00
sg24
S'L'
sbsg25
(irule
OffsetSpecification
p2124
(dp2125
g718
I-2
sbsg31
(irule
Guard
p2126
(dp2127
g18
I00
sg19
(lp2128
sg21
I00
sg22
Nsg23
I00
sg24
S'R'
sbsg35
(irule
FeatureMatrix
p2129
(dp2130
g28
(lp2131
(I01
g880
tp2132
a(I00
g1174
tp2133
asg22
Nsbsg22
Nsba(irule
Rule
p2134
(dp2135
g15
(irule
Guard
p2136
(dp2137
g18
I00
sg19
(lp2138
(irule
FeatureMatrix
p2139
(dp2140
g28
(lp2141
sg22
Nsba(irule
FeatureMatrix
p2142
(dp2143
g28
(lp2144
(I01
g880
tp2145
asg22
Nsbasg21
I00
sg22
Nsg23
I00
sg24
S'L'
sbsg25
(irule
OffsetSpecification
p2146
(dp2147
g718
I-2
sbsg31
(irule
Guard
p2148
(dp2149
g18
I00
sg19
(lp2150
sg21
I00
sg22
Nsg23
I00
sg24
S'R'
sbsg35
(irule
FeatureMatrix
p2151
(dp2152
g28
(lp2153
(I01
g1022
tp2154
a(I01
g880
tp2155
asg22
Nsbsg22
Nsba(irule
Rule
p2156
(dp2157
g15
(irule
Guard
p2158
(dp2159
g18
I00
sg19
(lp2160
(irule
FeatureMatrix
p2161
(dp2162
g28
(lp2163
sg22
Nsba(irule
FeatureMatrix
p2164
(dp2165
g28
(lp2166
(I00
g892
tp2167
a(I01
g880
tp2168
asg22
Nsbasg21
I00
sg22
Nsg23
I00
sg24
S'L'
sbsg25
(irule
OffsetSpecification
p2169
(dp2170
g718
I-2
sbsg31
(irule
Guard
p2171
(dp2172
g18
I00
sg19
(lp2173
sg21
I00
sg22
Nsg23
I00
sg24
S'R'
sbsg35
(irule
FeatureMatrix
p2174
(dp2175
g28
(lp2176
(I01
g928
tp2177
asg22
Nsbsg22
Nsba(irule
Rule
p2178
(dp2179
g15
(irule
Guard
p2180
(dp2181
g18
I00
sg19
(lp2182
(irule
FeatureMatrix
p2183
(dp2184
g28
(lp2185
sg22
Nsba(irule
FeatureMatrix
p2186
(dp2187
g28
(lp2188
(I00
g1150
tp2189
a(I01
g928
tp2190
asg22
Nsbasg21
I00
sg22
Nsg23
I00
sg24
S'L'
sbsg25
(irule
OffsetSpecification
p2191
(dp2192
g718
I-2
sbsg31
(irule
Guard
p2193
(dp2194
g18
I00
sg19
(lp2195
sg21
I00
sg22
Nsg23
I00
sg24
S'R'
sbsg35
(irule
FeatureMatrix
p2196
(dp2197
g28
(lp2198
(I00
g892
tp2199
asg22
Nsbsg22
Nsba(irule
Rule
p2200
(dp2201
g15
(irule
Guard
p2202
(dp2203
g18
I00
sg19
(lp2204
(irule
FeatureMatrix
p2205
(dp2206
g28
(lp2207
sg22
Nsba(irule
FeatureMatrix
p2208
(dp2209
g28
(lp2210
(I00
g892
tp2211
a(I01
g880
tp2212
asg22
Nsbasg21
I00
sg22
Nsg23
I00
sg24
S'L'
sbsg25
(irule
OffsetSpecification
p2213
(dp2214
g718
I-2
sbsg31
(irule
Guard
p2215
(dp2216
g18
I00
sg19
(lp2217
sg21
I00
sg22
Nsg23
I00
sg24
S'R'
sbsg35
(irule
FeatureMatrix
p2218
(dp2219
g28
(lp2220
(I00
g892
tp2221
asg22
Nsbsg22
Nsba(irule
Rule
p2222
(dp2223
g15
(irule
Guard
p2224
(dp2225
g18
I00
sg19
(lp2226
(irule
FeatureMatrix
p2227
(dp2228
g28
(lp2229
sg22
Nsba(irule
FeatureMatrix
p2230
(dp2231
g28
(lp2232
(I01
g928
tp2233
asg22
Nsbasg21
I00
sg22
Nsg23
I00
sg24
S'L'
sbsg25
(irule
OffsetSpecification
p2234
(dp2235
g718
I-2
sbsg31
(irule
Guard
p2236
(dp2237
g18
I00
sg19
(lp2238
sg21
I00
sg22
Nsg23
I00
sg24
S'R'
sbsg35
(irule
FeatureMatrix
p2239
(dp2240
g28
(lp2241
(I00
g892
tp2242
a(I01
g1068
tp2243
asg22
Nsbsg22
Nsba(irule
Rule
p2244
(dp2245
g15
(irule
Guard
p2246
(dp2247
g18
I00
sg19
(lp2248
(irule
FeatureMatrix
p2249
(dp2250
g28
(lp2251
sg22
Nsba(irule
FeatureMatrix
p2252
(dp2253
g28
(lp2254
(I01
g1022
tp2255
a(I00
g892
tp2256
asg22
Nsbasg21
I00
sg22
Nsg23
I00
sg24
S'L'
sbsg25
(irule
OffsetSpecification
p2257
(dp2258
g718
I-2
sbsg31
(irule
Guard
p2259
(dp2260
g18
I00
sg19
(lp2261
sg21
I00
sg22
Nsg23
I00
sg24
S'R'
sbsg35
(irule
FeatureMatrix
p2262
(dp2263
g28
(lp2264
(I01
g928
tp2265
asg22
Nsbsg22
Nsba(irule
Rule
p2266
(dp2267
g15
(irule
Guard
p2268
(dp2269
g18
I00
sg19
(lp2270
(irule
FeatureMatrix
p2271
(dp2272
g28
(lp2273
sg22
Nsba(irule
FeatureMatrix
p2274
(dp2275
g28
(lp2276
(I00
S'glide'
p2277
tp2278
a(I01
g928
tp2279
asg22
Nsbasg21
I00
sg22
Nsg23
I00
sg24
S'L'
sbsg25
(irule
OffsetSpecification
p2280
(dp2281
g718
I-2
sbsg31
(irule
Guard
p2282
(dp2283
g18
I00
sg19
(lp2284
sg21
I00
sg22
Nsg23
I00
sg24
S'R'
sbsg35
(irule
FeatureMatrix
p2285
(dp2286
g28
(lp2287
(I00
g892
tp2288
asg22
Nsbsg22
Nsba(irule
Rule
p2289
(dp2290
g15
(irule
Guard
p2291
(dp2292
g18
I00
sg19
(lp2293
(irule
FeatureMatrix
p2294
(dp2295
g28
(lp2296
sg22
Nsba(irule
FeatureMatrix
p2297
(dp2298
g28
(lp2299
(I01
g880
tp2300
asg22
Nsbasg21
I00
sg22
Nsg23
I00
sg24
S'L'
sbsg25
(irule
OffsetSpecification
p2301
(dp2302
g718
I-2
sbsg31
(irule
Guard
p2303
(dp2304
g18
I00
sg19
(lp2305
sg21
I00
sg22
Nsg23
I00
sg24
S'R'
sbsg35
(irule
FeatureMatrix
p2306
(dp2307
g28
(lp2308
(I01
g880
tp2309
a(I01
g1068
tp2310
asg22
Nsbsg22
Nsba(irule
Rule
p2311
(dp2312
g15
(irule
Guard
p2313
(dp2314
g18
I00
sg19
(lp2315
(irule
FeatureMatrix
p2316
(dp2317
g28
(lp2318
sg22
Nsba(irule
FeatureMatrix
p2319
(dp2320
g28
(lp2321
(I01
g928
tp2322
asg22
Nsbasg21
I00
sg22
Nsg23
I00
sg24
S'L'
sbsg25
(irule
OffsetSpecification
p2323
(dp2324
g718
I-2
sbsg31
(irule
Guard
p2325
(dp2326
g18
I00
sg19
(lp2327
sg21
I00
sg22
Nsg23
I00
sg24
S'R'
sbsg35
(irule
FeatureMatrix
p2328
(dp2329
g28
(lp2330
(I01
g1136
tp2331
a(I01
g928
tp2332
asg22
Nsbsg22
Nsba(irule
Rule
p2333
(dp2334
g15
(irule
Guard
p2335
(dp2336
g18
I00
sg19
(lp2337
(irule
FeatureMatrix
p2338
(dp2339
g28
(lp2340
sg22
Nsba(irule
FeatureMatrix
p2341
(dp2342
g28
(lp2343
(I01
g880
tp2344
a(I01
g1068
tp2345
asg22
Nsbasg21
I00
sg22
Nsg23
I00
sg24
S'L'
sbsg25
(irule
OffsetSpecification
p2346
(dp2347
g718
I-2
sbsg31
(irule
Guard
p2348
(dp2349
g18
I00
sg19
(lp2350
sg21
I00
sg22
Nsg23
I00
sg24
S'R'
sbsg35
(irule
FeatureMatrix
p2351
(dp2352
g28
(lp2353
(I01
g880
tp2354
asg22
Nsbsg22
Nsba(irule
Rule
p2355
(dp2356
g15
(irule
Guard
p2357
(dp2358
g18
I00
sg19
(lp2359
(irule
FeatureMatrix
p2360
(dp2361
g28
(lp2362
sg22
Nsba(irule
FeatureMatrix
p2363
(dp2364
g28
(lp2365
(I00
g2277
tp2366
a(I01
g880
tp2367
asg22
Nsbasg21
I00
sg22
Nsg23
I00
sg24
S'L'
sbsg25
(irule
OffsetSpecification
p2368
(dp2369
g718
I-2
sbsg31
(irule
Guard
p2370
(dp2371
g18
I00
sg19
(lp2372
sg21
I00
sg22
Nsg23
I00
sg24
S'R'
sbsg35
(irule
FeatureMatrix
p2373
(dp2374
g28
(lp2375
(I00
g892
tp2376
asg22
Nsbsg22
Nsba(irule
Rule
p2377
(dp2378
g15
(irule
Guard
p2379
(dp2380
g18
I00
sg19
(lp2381
(irule
FeatureMatrix
p2382
(dp2383
g28
(lp2384
(I01
g1136
tp2385
asg22
Nsba(irule
FeatureMatrix
p2386
(dp2387
g28
(lp2388
(I01
g928
tp2389
asg22
Nsbasg21
I00
sg22
Nsg23
I00
sg24
S'L'
sbsg25
(irule
OffsetSpecification
p2390
(dp2391
g718
I-2
sbsg31
(irule
Guard
p2392
(dp2393
g18
I00
sg19
(lp2394
sg21
I00
sg22
Nsg23
I00
sg24
S'R'
sbsg35
(irule
FeatureMatrix
p2395
(dp2396
g28
(lp2397
(I01
g880
tp2398
asg22
Nsbsg22
Nsba(irule
Rule
p2399
(dp2400
g15
(irule
Guard
p2401
(dp2402
g18
I00
sg19
(lp2403
(irule
FeatureMatrix
p2404
(dp2405
g28
(lp2406
(I00
g1525
tp2407
asg22
Nsba(irule
FeatureMatrix
p2408
(dp2409
g28
(lp2410
(I01
g880
tp2411
asg22
Nsbasg21
I00
sg22
Nsg23
I00
sg24
S'L'
sbsg25
(irule
OffsetSpecification
p2412
(dp2413
g718
I-2
sbsg31
(irule
Guard
p2414
(dp2415
g18
I00
sg19
(lp2416
sg21
I00
sg22
Nsg23
I00
sg24
S'R'
sbsg35
(irule
FeatureMatrix
p2417
(dp2418
g28
(lp2419
(I00
g892
tp2420
asg22
Nsbsg22
Nsba(irule
Rule
p2421
(dp2422
g15
(irule
Guard
p2423
(dp2424
g18
I00
sg19
(lp2425
(irule
FeatureMatrix
p2426
(dp2427
g28
(lp2428
sg22
Nsba(irule
FeatureMatrix
p2429
(dp2430
g28
(lp2431
(I01
g928
tp2432
asg22
Nsbasg21
I00
sg22
Nsg23
I00
sg24
S'L'
sbsg25
(irule
OffsetSpecification
p2433
(dp2434
g718
I-2
sbsg31
(irule
Guard
p2435
(dp2436
g18
I00
sg19
(lp2437
sg21
I00
sg22
Nsg23
I00
sg24
S'R'
sbsg35
(irule
FeatureMatrix
p2438
(dp2439
g28
(lp2440
(I00
g892
tp2441
a(I01
g880
tp2442
asg22
Nsbsg22
Nsba(irule
Rule
p2443
(dp2444
g15
(irule
Guard
p2445
(dp2446
g18
I00
sg19
(lp2447
(irule
FeatureMatrix
p2448
(dp2449
g28
(lp2450
(I00
g1078
tp2451
asg22
Nsba(irule
FeatureMatrix
p2452
(dp2453
g28
(lp2454
(I01
g928
tp2455
asg22
Nsbasg21
I00
sg22
Nsg23
I00
sg24
S'L'
sbsg25
(irule
OffsetSpecification
p2456
(dp2457
g718
I-2
sbsg31
(irule
Guard
p2458
(dp2459
g18
I00
sg19
(lp2460
sg21
I00
sg22
Nsg23
I00
sg24
S'R'
sbsg35
(irule
FeatureMatrix
p2461
(dp2462
g28
(lp2463
(I01
g928
tp2464
asg22
Nsbsg22
Nsba(irule
Rule
p2465
(dp2466
g15
(irule
Guard
p2467
(dp2468
g18
I00
sg19
(lp2469
(irule
FeatureMatrix
p2470
(dp2471
g28
(lp2472
sg22
Nsba(irule
FeatureMatrix
p2473
(dp2474
g28
(lp2475
(I01
g880
tp2476
a(I00
g1174
tp2477
asg22
Nsbasg21
I00
sg22
Nsg23
I00
sg24
S'L'
sbsg25
(irule
OffsetSpecification
p2478
(dp2479
g718
I-2
sbsg31
(irule
Guard
p2480
(dp2481
g18
I00
sg19
(lp2482
sg21
I00
sg22
Nsg23
I00
sg24
S'R'
sbsg35
(irule
FeatureMatrix
p2483
(dp2484
g28
(lp2485
(I00
g892
tp2486
asg22
Nsbsg22
Nsba(irule
Rule
p2487
(dp2488
g15
(irule
Guard
p2489
(dp2490
g18
I00
sg19
(lp2491
(irule
FeatureMatrix
p2492
(dp2493
g28
(lp2494
(I01
g1136
tp2495
asg22
Nsba(irule
FeatureMatrix
p2496
(dp2497
g28
(lp2498
(I01
g880
tp2499
asg22
Nsbasg21
I00
sg22
Nsg23
I00
sg24
S'L'
sbsg25
(irule
OffsetSpecification
p2500
(dp2501
g718
I-2
sbsg31
(irule
Guard
p2502
(dp2503
g18
I00
sg19
(lp2504
sg21
I00
sg22
Nsg23
I00
sg24
S'R'
sbsg35
(irule
FeatureMatrix
p2505
(dp2506
g28
(lp2507
(I01
g880
tp2508
asg22
Nsbsg22
Nsba(irule
Rule
p2509
(dp2510
g15
(irule
Guard
p2511
(dp2512
g18
I00
sg19
(lp2513
(irule
FeatureMatrix
p2514
(dp2515
g28
(lp2516
sg22
Nsba(irule
FeatureMatrix
p2517
(dp2518
g28
(lp2519
(I00
g1350
tp2520
a(I01
g880
tp2521
asg22
Nsbasg21
I00
sg22
Nsg23
I00
sg24
S'L'
sbsg25
(irule
OffsetSpecification
p2522
(dp2523
g718
I-2
sbsg31
(irule
Guard
p2524
(dp2525
g18
I00
sg19
(lp2526
sg21
I00
sg22
Nsg23
I00
sg24
S'R'
sbsg35
(irule
FeatureMatrix
p2527
(dp2528
g28
(lp2529
(I01
g928
tp2530
asg22
Nsbsg22
Nsba(irule
Rule
p2531
(dp2532
g15
(irule
Guard
p2533
(dp2534
g18
I00
sg19
(lp2535
(irule
FeatureMatrix
p2536
(dp2537
g28
(lp2538
(I01
g1068
tp2539
asg22
Nsba(irule
FeatureMatrix
p2540
(dp2541
g28
(lp2542
(I01
g880
tp2543
asg22
Nsbasg21
I00
sg22
Nsg23
I00
sg24
S'L'
sbsg25
(irule
OffsetSpecification
p2544
(dp2545
g718
I-2
sbsg31
(irule
Guard
p2546
(dp2547
g18
I00
sg19
(lp2548
sg21
I00
sg22
Nsg23
I00
sg24
S'R'
sbsg35
(irule
FeatureMatrix
p2549
(dp2550
g28
(lp2551
(I01
g880
tp2552
asg22
Nsbsg22
Nsba(irule
Rule
p2553
(dp2554
g15
(irule
Guard
p2555
(dp2556
g18
I00
sg19
(lp2557
(irule
FeatureMatrix
p2558
(dp2559
g28
(lp2560
(I00
g1174
tp2561
asg22
Nsba(irule
FeatureMatrix
p2562
(dp2563
g28
(lp2564
(I01
g928
tp2565
asg22
Nsbasg21
I00
sg22
Nsg23
I00
sg24
S'L'
sbsg25
(irule
OffsetSpecification
p2566
(dp2567
g718
I-2
sbsg31
(irule
Guard
p2568
(dp2569
g18
I00
sg19
(lp2570
sg21
I00
sg22
Nsg23
I00
sg24
S'R'
sbsg35
(irule
FeatureMatrix
p2571
(dp2572
g28
(lp2573
(I01
g880
tp2574
asg22
Nsbsg22
Nsba(irule
Rule
p2575
(dp2576
g15
(irule
Guard
p2577
(dp2578
g18
I00
sg19
(lp2579
(irule
FeatureMatrix
p2580
(dp2581
g28
(lp2582
sg22
Nsba(irule
FeatureMatrix
p2583
(dp2584
g28
(lp2585
(I00
g1104
tp2586
a(I01
g880
tp2587
asg22
Nsbasg21
I00
sg22
Nsg23
I00
sg24
S'L'
sbsg25
(irule
OffsetSpecification
p2588
(dp2589
g718
I-2
sbsg31
(irule
Guard
p2590
(dp2591
g18
I00
sg19
(lp2592
sg21
I00
sg22
Nsg23
I00
sg24
S'R'
sbsg35
(irule
FeatureMatrix
p2593
(dp2594
g28
(lp2595
(I00
g892
tp2596
asg22
Nsbsg22
Nsba(irule
Rule
p2597
(dp2598
g15
(irule
Guard
p2599
(dp2600
g18
I00
sg19
(lp2601
(irule
FeatureMatrix
p2602
(dp2603
g28
(lp2604
sg22
Nsba(irule
FeatureMatrix
p2605
(dp2606
g28
(lp2607
(I00
g1350
tp2608
a(I01
g880
tp2609
asg22
Nsbasg21
I00
sg22
Nsg23
I00
sg24
S'L'
sbsg25
(irule
OffsetSpecification
p2610
(dp2611
g718
I-2
sbsg31
(irule
Guard
p2612
(dp2613
g18
I00
sg19
(lp2614
sg21
I00
sg22
Nsg23
I00
sg24
S'R'
sbsg35
(irule
FeatureMatrix
p2615
(dp2616
g28
(lp2617
(I01
g880
tp2618
asg22
Nsbsg22
Nsba(irule
Rule
p2619
(dp2620
g15
(irule
Guard
p2621
(dp2622
g18
I00
sg19
(lp2623
(irule
FeatureMatrix
p2624
(dp2625
g28
(lp2626
(I00
g1525
tp2627
asg22
Nsba(irule
FeatureMatrix
p2628
(dp2629
g28
(lp2630
(I01
g928
tp2631
asg22
Nsbasg21
I00
sg22
Nsg23
I00
sg24
S'L'
sbsg25
(irule
OffsetSpecification
p2632
(dp2633
g718
I-2
sbsg31
(irule
Guard
p2634
(dp2635
g18
I00
sg19
(lp2636
sg21
I00
sg22
Nsg23
I00
sg24
S'R'
sbsg35
(irule
FeatureMatrix
p2637
(dp2638
g28
(lp2639
(I01
g928
tp2640
asg22
Nsbsg22
Nsba(irule
Rule
p2641
(dp2642
g15
(irule
Guard
p2643
(dp2644
g18
I00
sg19
(lp2645
(irule
FeatureMatrix
p2646
(dp2647
g28
(lp2648
sg22
Nsba(irule
FeatureMatrix
p2649
(dp2650
g28
(lp2651
(I01
g880
tp2652
asg22
Nsbasg21
I00
sg22
Nsg23
I00
sg24
S'L'
sbsg25
(irule
OffsetSpecification
p2653
(dp2654
g718
I-2
sbsg31
(irule
Guard
p2655
(dp2656
g18
I00
sg19
(lp2657
sg21
I00
sg22
Nsg23
I00
sg24
S'R'
sbsg35
(irule
FeatureMatrix
p2658
(dp2659
g28
(lp2660
(I00
g1150
tp2661
a(I01
g880
tp2662
asg22
Nsbsg22
Nsba(irule
Rule
p2663
(dp2664
g15
(irule
Guard
p2665
(dp2666
g18
I00
sg19
(lp2667
(irule
FeatureMatrix
p2668
(dp2669
g28
(lp2670
sg22
Nsba(irule
FeatureMatrix
p2671
(dp2672
g28
(lp2673
(I01
g1136
tp2674
a(I00
g892
tp2675
asg22
Nsbasg21
I00
sg22
Nsg23
I00
sg24
S'L'
sbsg25
(irule
OffsetSpecification
p2676
(dp2677
g718
I-2
sbsg31
(irule
Guard
p2678
(dp2679
g18
I00
sg19
(lp2680
sg21
I00
sg22
Nsg23
I00
sg24
S'R'
sbsg35
(irule
FeatureMatrix
p2681
(dp2682
g28
(lp2683
(I00
g892
tp2684
asg22
Nsbsg22
Nsba(irule
Rule
p2685
(dp2686
g15
(irule
Guard
p2687
(dp2688
g18
I00
sg19
(lp2689
(irule
FeatureMatrix
p2690
(dp2691
g28
(lp2692
sg22
Nsba(irule
FeatureMatrix
p2693
(dp2694
g28
(lp2695
(I01
g928
tp2696
asg22
Nsbasg21
I00
sg22
Nsg23
I00
sg24
S'L'
sbsg25
(irule
OffsetSpecification
p2697
(dp2698
g718
I-2
sbsg31
(irule
Guard
p2699
(dp2700
g18
I00
sg19
(lp2701
sg21
I00
sg22
Nsg23
I00
sg24
S'R'
sbsg35
(irule
FeatureMatrix
p2702
(dp2703
g28
(lp2704
(I00
g892
tp2705
a(I01
g928
tp2706
asg22
Nsbsg22
Nsba(irule
Rule
p2707
(dp2708
g15
(irule
Guard
p2709
(dp2710
g18
I00
sg19
(lp2711
(irule
FeatureMatrix
p2712
(dp2713
g28
(lp2714
(I01
g892
tp2715
asg22
Nsba(irule
FeatureMatrix
p2716
(dp2717
g28
(lp2718
(I01
g928
tp2719
asg22
Nsbasg21
I00
sg22
Nsg23
I00
sg24
S'L'
sbsg25
(irule
OffsetSpecification
p2720
(dp2721
g718
I-2
sbsg31
(irule
Guard
p2722
(dp2723
g18
I00
sg19
(lp2724
sg21
I00
sg22
Nsg23
I00
sg24
S'R'
sbsg35
(irule
FeatureMatrix
p2725
(dp2726
g28
(lp2727
(I00
g892
tp2728
asg22
Nsbsg22
Nsba(irule
Rule
p2729
(dp2730
g15
(irule
Guard
p2731
(dp2732
g18
I00
sg19
(lp2733
(irule
FeatureMatrix
p2734
(dp2735
g28
(lp2736
sg22
Nsba(irule
FeatureMatrix
p2737
(dp2738
g28
(lp2739
(I00
S'nasal'
tp2740
a(I01
g880
tp2741
asg22
Nsbasg21
I00
sg22
Nsg23
I00
sg24
S'L'
sbsg25
(irule
OffsetSpecification
p2742
(dp2743
g718
I-2
sbsg31
(irule
Guard
p2744
(dp2745
g18
I00
sg19
(lp2746
sg21
I00
sg22
Nsg23
I00
sg24
S'R'
sbsg35
(irule
FeatureMatrix
p2747
(dp2748
g28
(lp2749
(I00
g892
tp2750
asg22
Nsbsg22
Nsba(irule
Rule
p2751
(dp2752
g15
(irule
Guard
p2753
(dp2754
g18
I00
sg19
(lp2755
(irule
FeatureMatrix
p2756
(dp2757
g28
(lp2758
sg22
Nsba(irule
FeatureMatrix
p2759
(dp2760
g28
(lp2761
(I01
g880
tp2762
asg22
Nsbasg21
I00
sg22
Nsg23
I00
sg24
S'L'
sbsg25
(irule
OffsetSpecification
p2763
(dp2764
g718
I-2
sbsg31
(irule
Guard
p2765
(dp2766
g18
I00
sg19
(lp2767
sg21
I00
sg22
Nsg23
I00
sg24
S'R'
sbsg35
(irule
FeatureMatrix
p2768
(dp2769
g28
(lp2770
(I00
g892
tp2771
a(I01
g1068
tp2772
asg22
Nsbsg22
Nsba(irule
Rule
p2773
(dp2774
g15
(irule
Guard
p2775
(dp2776
g18
I00
sg19
(lp2777
(irule
FeatureMatrix
p2778
(dp2779
g28
(lp2780
sg22
Nsba(irule
FeatureMatrix
p2781
(dp2782
g28
(lp2783
(I01
g880
tp2784
asg22
Nsbasg21
I00
sg22
Nsg23
I00
sg24
S'L'
sbsg25
(irule
OffsetSpecification
p2785
(dp2786
g718
I-2
sbsg31
(irule
Guard
p2787
(dp2788
g18
I00
sg19
(lp2789
sg21
I00
sg22
Nsg23
I00
sg24
S'R'
sbsg35
(irule
FeatureMatrix
p2790
(dp2791
g28
(lp2792
(I00
g1150
tp2793
a(I01
g928
tp2794
asg22
Nsbsg22
Nsba(irule
Rule
p2795
(dp2796
g15
(irule
Guard
p2797
(dp2798
g18
I00
sg19
(lp2799
(irule
FeatureMatrix
p2800
(dp2801
g28
(lp2802
sg22
Nsba(irule
FeatureMatrix
p2803
(dp2804
g28
(lp2805
(I00
g1350
tp2806
a(I01
g928
tp2807
asg22
Nsbasg21
I00
sg22
Nsg23
I00
sg24
S'L'
sbsg25
(irule
OffsetSpecification
p2808
(dp2809
g718
I-2
sbsg31
(irule
Guard
p2810
(dp2811
g18
I00
sg19
(lp2812
sg21
I00
sg22
Nsg23
I00
sg24
S'R'
sbsg35
(irule
FeatureMatrix
p2813
(dp2814
g28
(lp2815
(I01
g928
tp2816
asg22
Nsbsg22
Nsba(irule
Rule
p2817
(dp2818
g15
(irule
Guard
p2819
(dp2820
g18
I00
sg19
(lp2821
(irule
FeatureMatrix
p2822
(dp2823
g28
(lp2824
(I00
g880
tp2825
asg22
Nsba(irule
FeatureMatrix
p2826
(dp2827
g28
(lp2828
(I01
g880
tp2829
asg22
Nsbasg21
I00
sg22
Nsg23
I00
sg24
S'L'
sbsg25
(irule
OffsetSpecification
p2830
(dp2831
g718
I-2
sbsg31
(irule
Guard
p2832
(dp2833
g18
I00
sg19
(lp2834
sg21
I00
sg22
Nsg23
I00
sg24
S'R'
sbsg35
(irule
FeatureMatrix
p2835
(dp2836
g28
(lp2837
(I01
g880
tp2838
asg22
Nsbsg22
Nsba(irule
Rule
p2839
(dp2840
g15
(irule
Guard
p2841
(dp2842
g18
I00
sg19
(lp2843
(irule
FeatureMatrix
p2844
(dp2845
g28
(lp2846
sg22
Nsba(irule
FeatureMatrix
p2847
(dp2848
g28
(lp2849
(I01
g880
tp2850
asg22
Nsbasg21
I00
sg22
Nsg23
I00
sg24
S'L'
sbsg25
(irule
OffsetSpecification
p2851
(dp2852
g718
I-2
sbsg31
(irule
Guard
p2853
(dp2854
g18
I00
sg19
(lp2855
sg21
I00
sg22
Nsg23
I00
sg24
S'R'
sbsg35
(irule
FeatureMatrix
p2856
(dp2857
g28
(lp2858
(I01
g928
tp2859
a(I01
g1068
tp2860
asg22
Nsbsg22
Nsba(irule
Rule
p2861
(dp2862
g15
(irule
Guard
p2863
(dp2864
g18
I00
sg19
(lp2865
(irule
FeatureMatrix
p2866
(dp2867
g28
(lp2868
sg22
Nsba(irule
FeatureMatrix
p2869
(dp2870
g28
(lp2871
(I01
g880
tp2872
asg22
Nsbasg21
I00
sg22
Nsg23
I00
sg24
S'L'
sbsg25
(irule
OffsetSpecification
p2873
(dp2874
g718
I-2
sbsg31
(irule
Guard
p2875
(dp2876
g18
I00
sg19
(lp2877
sg21
I00
sg22
Nsg23
I00
sg24
S'R'
sbsg35
(irule
FeatureMatrix
p2878
(dp2879
g28
(lp2880
(I00
g1150
tp2881
a(I00
g892
tp2882
asg22
Nsbsg22
Nsba(irule
Rule
p2883
(dp2884
g15
(irule
Guard
p2885
(dp2886
g18
I00
sg19
(lp2887
(irule
FeatureMatrix
p2888
(dp2889
g28
(lp2890
sg22
Nsba(irule
FeatureMatrix
p2891
(dp2892
g28
(lp2893
(I01
g1136
tp2894
a(I00
g892
tp2895
asg22
Nsbasg21
I00
sg22
Nsg23
I00
sg24
S'L'
sbsg25
(irule
OffsetSpecification
p2896
(dp2897
g718
I-2
sbsg31
(irule
Guard
p2898
(dp2899
g18
I00
sg19
(lp2900
sg21
I00
sg22
Nsg23
I00
sg24
S'R'
sbsg35
(irule
FeatureMatrix
p2901
(dp2902
g28
(lp2903
(I01
g928
tp2904
asg22
Nsbsg22
Nsba(irule
Rule
p2905
(dp2906
g15
(irule
Guard
p2907
(dp2908
g18
I00
sg19
(lp2909
(irule
FeatureMatrix
p2910
(dp2911
g28
(lp2912
sg22
Nsba(irule
FeatureMatrix
p2913
(dp2914
g28
(lp2915
(I01
g880
tp2916
asg22
Nsbasg21
I00
sg22
Nsg23
I00
sg24
S'L'
sbsg25
(irule
OffsetSpecification
p2917
(dp2918
g718
I-2
sbsg31
(irule
Guard
p2919
(dp2920
g18
I00
sg19
(lp2921
sg21
I00
sg22
Nsg23
I00
sg24
S'R'
sbsg35
(irule
FeatureMatrix
p2922
(dp2923
g28
(lp2924
(I00
g1104
tp2925
a(I01
g880
tp2926
asg22
Nsbsg22
Nsba(irule
Rule
p2927
(dp2928
g15
(irule
Guard
p2929
(dp2930
g18
I00
sg19
(lp2931
(irule
FeatureMatrix
p2932
(dp2933
g28
(lp2934
sg22
Nsba(irule
FeatureMatrix
p2935
(dp2936
g28
(lp2937
(I00
g2277
tp2938
a(I01
g880
tp2939
asg22
Nsbasg21
I00
sg22
Nsg23
I00
sg24
S'L'
sbsg25
(irule
OffsetSpecification
p2940
(dp2941
g718
I-2
sbsg31
(irule
Guard
p2942
(dp2943
g18
I00
sg19
(lp2944
sg21
I00
sg22
Nsg23
I00
sg24
S'R'
sbsg35
(irule
FeatureMatrix
p2945
(dp2946
g28
(lp2947
(I01
g880
tp2948
asg22
Nsbsg22
Nsba(irule
Rule
p2949
(dp2950
g15
(irule
Guard
p2951
(dp2952
g18
I00
sg19
(lp2953
(irule
FeatureMatrix
p2954
(dp2955
g28
(lp2956
(I00
g1373
tp2957
asg22
Nsba(irule
FeatureMatrix
p2958
(dp2959
g28
(lp2960
(I01
g928
tp2961
asg22
Nsbasg21
I00
sg22
Nsg23
I00
sg24
S'L'
sbsg25
(irule
OffsetSpecification
p2962
(dp2963
g718
I-2
sbsg31
(irule
Guard
p2964
(dp2965
g18
I00
sg19
(lp2966
sg21
I00
sg22
Nsg23
I00
sg24
S'R'
sbsg35
(irule
FeatureMatrix
p2967
(dp2968
g28
(lp2969
(I01
g880
tp2970
asg22
Nsbsg22
Nsba(irule
Rule
p2971
(dp2972
g15
(irule
Guard
p2973
(dp2974
g18
I00
sg19
(lp2975
(irule
FeatureMatrix
p2976
(dp2977
g28
(lp2978
(I01
g1068
tp2979
asg22
Nsba(irule
FeatureMatrix
p2980
(dp2981
g28
(lp2982
(I01
g928
tp2983
asg22
Nsbasg21
I00
sg22
Nsg23
I00
sg24
S'L'
sbsg25
(irule
OffsetSpecification
p2984
(dp2985
g718
I-2
sbsg31
(irule
Guard
p2986
(dp2987
g18
I00
sg19
(lp2988
sg21
I00
sg22
Nsg23
I00
sg24
S'R'
sbsg35
(irule
FeatureMatrix
p2989
(dp2990
g28
(lp2991
(I01
g928
tp2992
asg22
Nsbsg22
Nsba(irule
Rule
p2993
(dp2994
g15
(irule
Guard
p2995
(dp2996
g18
I00
sg19
(lp2997
(irule
FeatureMatrix
p2998
(dp2999
g28
(lp3000
sg22
Nsba(irule
FeatureMatrix
p3001
(dp3002
g28
(lp3003
(I01
g928
tp3004
a(I00
g1174
tp3005
asg22
Nsbasg21
I00
sg22
Nsg23
I00
sg24
S'L'
sbsg25
(irule
OffsetSpecification
p3006
(dp3007
g718
I-2
sbsg31
(irule
Guard
p3008
(dp3009
g18
I00
sg19
(lp3010
sg21
I00
sg22
Nsg23
I00
sg24
S'R'
sbsg35
(irule
FeatureMatrix
p3011
(dp3012
g28
(lp3013
(I01
g880
tp3014
asg22
Nsbsg22
Nsba(irule
Rule
p3015
(dp3016
g15
(irule
Guard
p3017
(dp3018
g18
I00
sg19
(lp3019
(irule
FeatureMatrix
p3020
(dp3021
g28
(lp3022
sg22
Nsba(irule
FeatureMatrix
p3023
(dp3024
g28
(lp3025
(I00
g1104
tp3026
a(I01
g880
tp3027
asg22
Nsbasg21
I00
sg22
Nsg23
I00
sg24
S'L'
sbsg25
(irule
OffsetSpecification
p3028
(dp3029
g718
I-2
sbsg31
(irule
Guard
p3030
(dp3031
g18
I00
sg19
(lp3032
sg21
I00
sg22
Nsg23
I00
sg24
S'R'
sbsg35
(irule
FeatureMatrix
p3033
(dp3034
g28
(lp3035
(I01
g880
tp3036
asg22
Nsbsg22
Nsba(irule
Rule
p3037
(dp3038
g15
(irule
Guard
p3039
(dp3040
g18
I00
sg19
(lp3041
(irule
FeatureMatrix
p3042
(dp3043
g28
(lp3044
sg22
Nsba(irule
FeatureMatrix
p3045
(dp3046
g28
(lp3047
(I01
g880
tp3048
asg22
Nsbasg21
I00
sg22
Nsg23
I00
sg24
S'L'
sbsg25
(irule
OffsetSpecification
p3049
(dp3050
g718
I-2
sbsg31
(irule
Guard
p3051
(dp3052
g18
I00
sg19
(lp3053
sg21
I00
sg22
Nsg23
I00
sg24
S'R'
sbsg35
(irule
FeatureMatrix
p3054
(dp3055
g28
(lp3056
(I00
g892
tp3057
a(I01
g880
tp3058
asg22
Nsbsg22
Nsba(irule
Rule
p3059
(dp3060
g15
(irule
Guard
p3061
(dp3062
g18
I00
sg19
(lp3063
(irule
FeatureMatrix
p3064
(dp3065
g28
(lp3066
sg22
Nsba(irule
FeatureMatrix
p3067
(dp3068
g28
(lp3069
(I00
g2277
tp3070
a(I01
g880
tp3071
asg22
Nsbasg21
I00
sg22
Nsg23
I00
sg24
S'L'
sbsg25
(irule
OffsetSpecification
p3072
(dp3073
g718
I-2
sbsg31
(irule
Guard
p3074
(dp3075
g18
I00
sg19
(lp3076
sg21
I00
sg22
Nsg23
I00
sg24
S'R'
sbsg35
(irule
FeatureMatrix
p3077
(dp3078
g28
(lp3079
(I01
g928
tp3080
asg22
Nsbsg22
Nsbaa(lp3081
(irule
Rule
p3082
(dp3083
g15
(irule
Guard
p3084
(dp3085
g18
I00
sg19
(lp3086
sg21
I00
sg22
V
sg23
I00
sg24
S'L'
sbsg25
(irule
FeatureMatrix
p3087
(dp3088
g28
(lp3089
(I01
S'high'
p3090
tp3091
a(I00
S'low'
p3092
tp3093
asg22
V[ +high -low ]
p3094
sbsg31
(irule
Guard
p3095
(dp3096
g18
I00
sg19
(lp3097
(irule
FeatureMatrix
p3098
(dp3099
g28
(lp3100
(I01
S'nasal'
p3101
tp3102
asg22
V[ +nasal ]
p3103
sbasg21
I00
sg22
g3103
sg23
I00
sg24
S'R'
sbsg35
(irule
FeatureMatrix
p3104
(dp3105
g28
(lp3106
sg22
V[  ]
p3107
sbsg22
V[  ] ---> [ +high -low ] /  _ [ +nasal ]
p3108
sba(irule
Rule
p3109
(dp3110
g15
(irule
Guard
p3111
(dp3112
g18
I00
sg19
(lp3113
sg21
I00
sg22
Nsg23
I00
sg24
S'L'
sbsg25
(irule
FeatureMatrix
p3114
(dp3115
g28
(lp3116
(I01
g3090
tp3117
a(I00
g3092
tp3118
asg22
Nsbsg31
(irule
Guard
p3119
(dp3120
g18
I00
sg19
(lp3121
(irule
ConstantPhoneme
p3122
(dp3123
S'p'
V\u014b
sbasg21
I00
sg22
Nsg23
I00
sg24
S'R'
sbsg35
(irule
FeatureMatrix
p3124
(dp3125
g28
(lp3126
sg22
Nsbsg22
Nsba(irule
Rule
p3127
(dp3128
g15
(irule
Guard
p3129
(dp3130
g18
I00
sg19
(lp3131
sg21
I00
sg22
Nsg23
I00
sg24
S'L'
sbsg25
(irule
FeatureMatrix
p3132
(dp3133
g28
(lp3134
(I01
g3090
tp3135
a(I00
g3092
tp3136
asg22
Nsbsg31
(irule
Guard
p3137
(dp3138
g18
I00
sg19
(lp3139
(irule
FeatureMatrix
p3140
(dp3141
g28
(lp3142
(I01
g3101
tp3143
a(I01
S'sonorant'
p3144
tp3145
asg22
Nsbasg21
I00
sg22
Nsg23
I00
sg24
S'R'
sbsg35
(irule
FeatureMatrix
p3146
(dp3147
g28
(lp3148
sg22
Nsbsg22
Nsba(irule
Rule
p3149
(dp3150
g15
(irule
Guard
p3151
(dp3152
g18
I00
sg19
(lp3153
sg21
I00
sg22
Nsg23
I00
sg24
S'L'
sbsg25
(irule
FeatureMatrix
p3154
(dp3155
g28
(lp3156
(I01
g3090
tp3157
a(I00
g3092
tp3158
asg22
Nsbsg31
(irule
Guard
p3159
(dp3160
g18
I00
sg19
(lp3161
(irule
FeatureMatrix
p3162
(dp3163
g28
(lp3164
(I01
g3101
tp3165
asg22
Nsbasg21
I00
sg22
Nsg23
I00
sg24
S'R'
sbsg35
(irule
FeatureMatrix
p3166
(dp3167
g28
(lp3168
(I01
S'tense'
p3169
tp3170
asg22
Nsbsg22
Nsba(irule
Rule
p3171
(dp3172
g15
(irule
Guard
p3173
(dp3174
g18
I00
sg19
(lp3175
sg21
I00
sg22
Nsg23
I00
sg24
S'L'
sbsg25
(irule
FeatureMatrix
p3176
(dp3177
g28
(lp3178
(I01
g3090
tp3179
a(I00
S'palletized'
p3180
tp3181
a(I00
g3092
tp3182
asg22
Nsbsg31
(irule
Guard
p3183
(dp3184
g18
I00
sg19
(lp3185
(irule
FeatureMatrix
p3186
(dp3187
g28
(lp3188
(I01
g3101
tp3189
asg22
Nsbasg21
I00
sg22
Nsg23
I00
sg24
S'R'
sbsg35
(irule
FeatureMatrix
p3190
(dp3191
g28
(lp3192
sg22
Nsbsg22
Nsba(irule
Rule
p3193
(dp3194
g15
(irule
Guard
p3195
(dp3196
g18
I00
sg19
(lp3197
sg21
I00
sg22
Nsg23
I00
sg24
S'L'
sbsg25
(irule
FeatureMatrix
p3198
(dp3199
g28
(lp3200
(I00
S'lateral'
p3201
tp3202
a(I01
g3090
tp3203
a(I00
g3092
tp3204
asg22
Nsbsg31
(irule
Guard
p3205
(dp3206
g18
I00
sg19
(lp3207
(irule
FeatureMatrix
p3208
(dp3209
g28
(lp3210
(I01
g3101
tp3211
asg22
Nsbasg21
I00
sg22
Nsg23
I00
sg24
S'R'
sbsg35
(irule
FeatureMatrix
p3212
(dp3213
g28
(lp3214
sg22
Nsbsg22
Nsba(irule
Rule
p3215
(dp3216
g15
(irule
Guard
p3217
(dp3218
g18
I00
sg19
(lp3219
sg21
I00
sg22
Nsg23
I00
sg24
S'L'
sbsg25
(irule
FeatureMatrix
p3220
(dp3221
g28
(lp3222
(I01
g3090
tp3223
a(I00
g3092
tp3224
asg22
Nsbsg31
(irule
Guard
p3225
(dp3226
g18
I00
sg19
(lp3227
(irule
ConstantPhoneme
p3228
(dp3229
S'p'
V\u014b
sbasg21
I00
sg22
Nsg23
I00
sg24
S'R'
sbsg35
(irule
FeatureMatrix
p3230
(dp3231
g28
(lp3232
(I00
g3180
tp3233
asg22
Nsbsg22
Nsba(irule
Rule
p3234
(dp3235
g15
(irule
Guard
p3236
(dp3237
g18
I00
sg19
(lp3238
sg21
I00
sg22
Nsg23
I00
sg24
S'L'
sbsg25
(irule
FeatureMatrix
p3239
(dp3240
g28
(lp3241
(I01
g3090
tp3242
a(I00
g3092
tp3243
asg22
Nsbsg31
(irule
Guard
p3244
(dp3245
g18
I00
sg19
(lp3246
(irule
FeatureMatrix
p3247
(dp3248
g28
(lp3249
(I01
g3101
tp3250
asg22
Nsbasg21
I00
sg22
Nsg23
I00
sg24
S'R'
sbsg35
(irule
FeatureMatrix
p3251
(dp3252
g28
(lp3253
(I00
g3090
tp3254
asg22
Nsbsg22
Nsba(irule
Rule
p3255
(dp3256
g15
(irule
Guard
p3257
(dp3258
g18
I00
sg19
(lp3259
sg21
I00
sg22
Nsg23
I00
sg24
S'L'
sbsg25
(irule
FeatureMatrix
p3260
(dp3261
g28
(lp3262
(I01
g3090
tp3263
a(I00
g3092
tp3264
a(I01
S'voice'
p3265
tp3266
asg22
Nsbsg31
(irule
Guard
p3267
(dp3268
g18
I00
sg19
(lp3269
(irule
FeatureMatrix
p3270
(dp3271
g28
(lp3272
(I01
g3101
tp3273
asg22
Nsbasg21
I00
sg22
Nsg23
I00
sg24
S'R'
sbsg35
(irule
FeatureMatrix
p3274
(dp3275
g28
(lp3276
sg22
Nsbsg22
Nsba(irule
Rule
p3277
(dp3278
g15
(irule
Guard
p3279
(dp3280
g18
I00
sg19
(lp3281
sg21
I00
sg22
Nsg23
I00
sg24
S'L'
sbsg25
(irule
FeatureMatrix
p3282
(dp3283
g28
(lp3284
(I00
S'glide'
p3285
tp3286
a(I01
g3090
tp3287
a(I00
g3092
tp3288
asg22
Nsbsg31
(irule
Guard
p3289
(dp3290
g18
I00
sg19
(lp3291
(irule
FeatureMatrix
p3292
(dp3293
g28
(lp3294
(I01
g3101
tp3295
asg22
Nsbasg21
I00
sg22
Nsg23
I00
sg24
S'R'
sbsg35
(irule
FeatureMatrix
p3296
(dp3297
g28
(lp3298
sg22
Nsbsg22
Nsba(irule
Rule
p3299
(dp3300
g15
(irule
Guard
p3301
(dp3302
g18
I00
sg19
(lp3303
sg21
I00
sg22
Nsg23
I00
sg24
S'L'
sbsg25
(irule
FeatureMatrix
p3304
(dp3305
g28
(lp3306
(I01
g3090
tp3307
a(I00
g3092
tp3308
asg22
Nsbsg31
(irule
Guard
p3309
(dp3310
g18
I00
sg19
(lp3311
(irule
FeatureMatrix
p3312
(dp3313
g28
(lp3314
(I00
S'continuant'
p3315
tp3316
a(I01
g3144
tp3317
asg22
Nsbasg21
I00
sg22
Nsg23
I00
sg24
S'R'
sbsg35
(irule
FeatureMatrix
p3318
(dp3319
g28
(lp3320
sg22
Nsbsg22
Nsba(irule
Rule
p3321
(dp3322
g15
(irule
Guard
p3323
(dp3324
g18
I00
sg19
(lp3325
sg21
I00
sg22
Nsg23
I00
sg24
S'L'
sbsg25
(irule
FeatureMatrix
p3326
(dp3327
g28
(lp3328
(I01
g3090
tp3329
a(I00
g3092
tp3330
a(I00
S'sibilant'
p3331
tp3332
asg22
Nsbsg31
(irule
Guard
p3333
(dp3334
g18
I00
sg19
(lp3335
(irule
FeatureMatrix
p3336
(dp3337
g28
(lp3338
(I01
g3101
tp3339
asg22
Nsbasg21
I00
sg22
Nsg23
I00
sg24
S'R'
sbsg35
(irule
FeatureMatrix
p3340
(dp3341
g28
(lp3342
sg22
Nsbsg22
Nsba(irule
Rule
p3343
(dp3344
g15
(irule
Guard
p3345
(dp3346
g18
I00
sg19
(lp3347
sg21
I00
sg22
Nsg23
I00
sg24
S'L'
sbsg25
(irule
FeatureMatrix
p3348
(dp3349
g28
(lp3350
(I00
S'liquid'
p3351
tp3352
a(I01
g3090
tp3353
a(I00
g3092
tp3354
asg22
Nsbsg31
(irule
Guard
p3355
(dp3356
g18
I00
sg19
(lp3357
(irule
FeatureMatrix
p3358
(dp3359
g28
(lp3360
(I01
g3101
tp3361
asg22
Nsbasg21
I00
sg22
Nsg23
I00
sg24
S'R'
sbsg35
(irule
FeatureMatrix
p3362
(dp3363
g28
(lp3364
sg22
Nsbsg22
Nsba(irule
Rule
p3365
(dp3366
g15
(irule
Guard
p3367
(dp3368
g18
I00
sg19
(lp3369
sg21
I00
sg22
Nsg23
I00
sg24
S'L'
sbsg25
(irule
FeatureMatrix
p3370
(dp3371
g28
(lp3372
(I01
g3090
tp3373
a(I00
g3092
tp3374
asg22
Nsbsg31
(irule
Guard
p3375
(dp3376
g18
I00
sg19
(lp3377
(irule
FeatureMatrix
p3378
(dp3379
g28
(lp3380
sg22
Nsba(irule
ConstantPhoneme
p3381
(dp3382
S'p'
Vn
sbasg21
I00
sg22
Nsg23
I00
sg24
S'R'
sbsg35
(irule
FeatureMatrix
p3383
(dp3384
g28
(lp3385
sg22
Nsbsg22
Nsba(irule
Rule
p3386
(dp3387
g15
(irule
Guard
p3388
(dp3389
g18
I00
sg19
(lp3390
sg21
I00
sg22
Nsg23
I00
sg24
S'L'
sbsg25
(irule
FeatureMatrix
p3391
(dp3392
g28
(lp3393
(I01
g3090
tp3394
a(I00
g3092
tp3395
asg22
Nsbsg31
(irule
Guard
p3396
(dp3397
g18
I00
sg19
(lp3398
(irule
FeatureMatrix
p3399
(dp3400
g28
(lp3401
(I01
g3101
tp3402
asg22
Nsba(irule
FeatureMatrix
p3403
(dp3404
g28
(lp3405
sg22
Nsbasg21
I00
sg22
Nsg23
I00
sg24
S'R'
sbsg35
(irule
FeatureMatrix
p3406
(dp3407
g28
(lp3408
sg22
Nsbsg22
Nsba(irule
Rule
p3409
(dp3410
g15
(irule
Guard
p3411
(dp3412
g18
I00
sg19
(lp3413
sg21
I00
sg22
Nsg23
I00
sg24
S'L'
sbsg25
(irule
FeatureMatrix
p3414
(dp3415
g28
(lp3416
(I00
S'anterior'
p3417
tp3418
a(I01
g3090
tp3419
a(I00
g3092
tp3420
asg22
Nsbsg31
(irule
Guard
p3421
(dp3422
g18
I00
sg19
(lp3423
(irule
FeatureMatrix
p3424
(dp3425
g28
(lp3426
(I01
g3101
tp3427
asg22
Nsbasg21
I00
sg22
Nsg23
I00
sg24
S'R'
sbsg35
(irule
FeatureMatrix
p3428
(dp3429
g28
(lp3430
sg22
Nsbsg22
Nsba(irule
Rule
p3431
(dp3432
g15
(irule
Guard
p3433
(dp3434
g18
I00
sg19
(lp3435
sg21
I00
sg22
Nsg23
I00
sg24
S'L'
sbsg25
(irule
FeatureMatrix
p3436
(dp3437
g28
(lp3438
(I01
g3090
tp3439
a(I00
g3092
tp3440
asg22
Nsbsg31
(irule
Guard
p3441
(dp3442
g18
I00
sg19
(lp3443
(irule
FeatureMatrix
p3444
(dp3445
g28
(lp3446
(I00
g3417
tp3447
a(I00
g3315
tp3448
asg22
Nsbasg21
I00
sg22
Nsg23
I00
sg24
S'R'
sbsg35
(irule
FeatureMatrix
p3449
(dp3450
g28
(lp3451
sg22
Nsbsg22
Nsba(irule
Rule
p3452
(dp3453
g15
(irule
Guard
p3454
(dp3455
g18
I00
sg19
(lp3456
sg21
I00
sg22
Nsg23
I00
sg24
S'L'
sbsg25
(irule
FeatureMatrix
p3457
(dp3458
g28
(lp3459
(I01
g3090
tp3460
a(I00
S'coronal'
p3461
tp3462
a(I00
g3092
tp3463
asg22
Nsbsg31
(irule
Guard
p3464
(dp3465
g18
I00
sg19
(lp3466
(irule
FeatureMatrix
p3467
(dp3468
g28
(lp3469
(I01
g3101
tp3470
asg22
Nsbasg21
I00
sg22
Nsg23
I00
sg24
S'R'
sbsg35
(irule
FeatureMatrix
p3471
(dp3472
g28
(lp3473
sg22
Nsbsg22
Nsba(irule
Rule
p3474
(dp3475
g15
(irule
Guard
p3476
(dp3477
g18
I00
sg19
(lp3478
sg21
I00
sg22
Nsg23
I00
sg24
S'L'
sbsg25
(irule
FeatureMatrix
p3479
(dp3480
g28
(lp3481
(I01
g3144
tp3482
a(I01
g3090
tp3483
a(I00
g3092
tp3484
asg22
Nsbsg31
(irule
Guard
p3485
(dp3486
g18
I00
sg19
(lp3487
(irule
FeatureMatrix
p3488
(dp3489
g28
(lp3490
(I01
g3101
tp3491
asg22
Nsbasg21
I00
sg22
Nsg23
I00
sg24
S'R'
sbsg35
(irule
FeatureMatrix
p3492
(dp3493
g28
(lp3494
sg22
Nsbsg22
Nsba(irule
Rule
p3495
(dp3496
g15
(irule
Guard
p3497
(dp3498
g18
I00
sg19
(lp3499
sg21
I00
sg22
Nsg23
I00
sg24
S'L'
sbsg25
(irule
FeatureMatrix
p3500
(dp3501
g28
(lp3502
(I01
g3090
tp3503
a(I00
g3092
tp3504
asg22
Nsbsg31
(irule
Guard
p3505
(dp3506
g18
I00
sg19
(lp3507
(irule
FeatureMatrix
p3508
(dp3509
g28
(lp3510
(I01
g3101
tp3511
asg22
Nsbasg21
I00
sg22
Nsg23
I00
sg24
S'R'
sbsg35
(irule
FeatureMatrix
p3512
(dp3513
g28
(lp3514
(I00
g3180
tp3515
asg22
Nsbsg22
Nsba(irule
Rule
p3516
(dp3517
g15
(irule
Guard
p3518
(dp3519
g18
I00
sg19
(lp3520
sg21
I00
sg22
Nsg23
I00
sg24
S'L'
sbsg25
(irule
FeatureMatrix
p3521
(dp3522
g28
(lp3523
(I01
g3090
tp3524
a(I00
g3092
tp3525
asg22
Nsbsg31
(irule
Guard
p3526
(dp3527
g18
I00
sg19
(lp3528
(irule
FeatureMatrix
p3529
(dp3530
g28
(lp3531
(I01
g3101
tp3532
asg22
Nsbasg21
I00
sg22
Nsg23
I00
sg24
S'R'
sbsg35
(irule
FeatureMatrix
p3533
(dp3534
g28
(lp3535
(I00
g3461
tp3536
asg22
Nsbsg22
Nsba(irule
Rule
p3537
(dp3538
g15
(irule
Guard
p3539
(dp3540
g18
I00
sg19
(lp3541
sg21
I00
sg22
Nsg23
I00
sg24
S'L'
sbsg25
(irule
FeatureMatrix
p3542
(dp3543
g28
(lp3544
(I01
g3090
tp3545
a(I00
g3092
tp3546
asg22
Nsbsg31
(irule
Guard
p3547
(dp3548
g18
I00
sg19
(lp3549
(irule
FeatureMatrix
p3550
(dp3551
g28
(lp3552
(I01
g3101
tp3553
asg22
Nsbasg21
I00
sg22
Nsg23
I00
sg24
S'R'
sbsg35
(irule
FeatureMatrix
p3554
(dp3555
g28
(lp3556
(I01
S'vowel'
p3557
tp3558
asg22
Nsbsg22
Nsba(irule
Rule
p3559
(dp3560
g15
(irule
Guard
p3561
(dp3562
g18
I00
sg19
(lp3563
sg21
I00
sg22
Nsg23
I00
sg24
S'L'
sbsg25
(irule
FeatureMatrix
p3564
(dp3565
g28
(lp3566
(I01
g3090
tp3567
a(I00
g3092
tp3568
asg22
Nsbsg31
(irule
Guard
p3569
(dp3570
g18
I00
sg19
(lp3571
(irule
ConstantPhoneme
p3572
(dp3573
S'p'
V\u014b
sba(irule
FeatureMatrix
p3574
(dp3575
g28
(lp3576
sg22
Nsbasg21
I00
sg22
Nsg23
I00
sg24
S'R'
sbsg35
(irule
FeatureMatrix
p3577
(dp3578
g28
(lp3579
sg22
Nsbsg22
Nsba(irule
Rule
p3580
(dp3581
g15
(irule
Guard
p3582
(dp3583
g18
I00
sg19
(lp3584
sg21
I00
sg22
Nsg23
I00
sg24
S'L'
sbsg25
(irule
FeatureMatrix
p3585
(dp3586
g28
(lp3587
(I01
g3090
tp3588
a(I00
g3092
tp3589
asg22
Nsbsg31
(irule
Guard
p3590
(dp3591
g18
I00
sg19
(lp3592
(irule
FeatureMatrix
p3593
(dp3594
g28
(lp3595
(I01
g3101
tp3596
asg22
Nsbasg21
I00
sg22
Nsg23
I00
sg24
S'R'
sbsg35
(irule
FeatureMatrix
p3597
(dp3598
g28
(lp3599
(I01
g3265
tp3600
asg22
Nsbsg22
Nsba(irule
Rule
p3601
(dp3602
g15
(irule
Guard
p3603
(dp3604
g18
I00
sg19
(lp3605
sg21
I00
sg22
Nsg23
I00
sg24
S'L'
sbsg25
(irule
FeatureMatrix
p3606
(dp3607
g28
(lp3608
(I01
g3090
tp3609
a(I00
g3092
tp3610
asg22
Nsbsg31
(irule
Guard
p3611
(dp3612
g18
I00
sg19
(lp3613
(irule
FeatureMatrix
p3614
(dp3615
g28
(lp3616
(I01
g3101
tp3617
asg22
Nsbasg21
I00
sg22
Nsg23
I00
sg24
S'R'
sbsg35
(irule
FeatureMatrix
p3618
(dp3619
g28
(lp3620
(I00
g3351
tp3621
asg22
Nsbsg22
Nsba(irule
Rule
p3622
(dp3623
g15
(irule
Guard
p3624
(dp3625
g18
I00
sg19
(lp3626
sg21
I00
sg22
Nsg23
I00
sg24
S'L'
sbsg25
(irule
FeatureMatrix
p3627
(dp3628
g28
(lp3629
(I01
g3090
tp3630
a(I00
g3092
tp3631
asg22
Nsbsg31
(irule
Guard
p3632
(dp3633
g18
I00
sg19
(lp3634
(irule
FeatureMatrix
p3635
(dp3636
g28
(lp3637
(I01
g3101
tp3638
asg22
Nsbasg21
I00
sg22
Nsg23
I00
sg24
S'R'
sbsg35
(irule
FeatureMatrix
p3639
(dp3640
g28
(lp3641
(I01
g3144
tp3642
asg22
Nsbsg22
Nsba(irule
Rule
p3643
(dp3644
g15
(irule
Guard
p3645
(dp3646
g18
I00
sg19
(lp3647
sg21
I00
sg22
Nsg23
I00
sg24
S'L'
sbsg25
(irule
FeatureMatrix
p3648
(dp3649
g28
(lp3650
(I01
g3090
tp3651
a(I00
g3092
tp3652
asg22
Nsbsg31
(irule
Guard
p3653
(dp3654
g18
I00
sg19
(lp3655
(irule
ConstantPhoneme
p3656
(dp3657
S'p'
V\u014b
sbasg21
I00
sg22
Nsg23
I00
sg24
S'R'
sbsg35
(irule
FeatureMatrix
p3658
(dp3659
g28
(lp3660
(I01
g3557
tp3661
asg22
Nsbsg22
Nsba(irule
Rule
p3662
(dp3663
g15
(irule
Guard
p3664
(dp3665
g18
I00
sg19
(lp3666
sg21
I00
sg22
Nsg23
I00
sg24
S'L'
sbsg25
(irule
FeatureMatrix
p3667
(dp3668
g28
(lp3669
(I01
g3090
tp3670
a(I00
g3092
tp3671
asg22
Nsbsg31
(irule
Guard
p3672
(dp3673
g18
I00
sg19
(lp3674
(irule
FeatureMatrix
p3675
(dp3676
g28
(lp3677
(I01
g3101
tp3678
asg22
Nsbasg21
I00
sg22
Nsg23
I00
sg24
S'R'
sbsg35
(irule
FeatureMatrix
p3679
(dp3680
g28
(lp3681
(I01
g3315
tp3682
asg22
Nsbsg22
Nsba(irule
Rule
p3683
(dp3684
g15
(irule
Guard
p3685
(dp3686
g18
I00
sg19
(lp3687
sg21
I00
sg22
Nsg23
I00
sg24
S'L'
sbsg25
(irule
FeatureMatrix
p3688
(dp3689
g28
(lp3690
(I01
g3090
tp3691
a(I00
g3092
tp3692
asg22
Nsbsg31
(irule
Guard
p3693
(dp3694
g18
I00
sg19
(lp3695
(irule
FeatureMatrix
p3696
(dp3697
g28
(lp3698
(I00
g3351
tp3699
a(I01
g3101
tp3700
asg22
Nsbasg21
I00
sg22
Nsg23
I00
sg24
S'R'
sbsg35
(irule
FeatureMatrix
p3701
(dp3702
g28
(lp3703
sg22
Nsbsg22
Nsba(irule
Rule
p3704
(dp3705
g15
(irule
Guard
p3706
(dp3707
g18
I00
sg19
(lp3708
sg21
I00
sg22
Nsg23
I00
sg24
S'L'
sbsg25
(irule
FeatureMatrix
p3709
(dp3710
g28
(lp3711
(I00
g3101
tp3712
a(I01
g3090
tp3713
a(I00
g3092
tp3714
asg22
Nsbsg31
(irule
Guard
p3715
(dp3716
g18
I00
sg19
(lp3717
(irule
ConstantPhoneme
p3718
(dp3719
S'p'
V\u014b
sbasg21
I00
sg22
Nsg23
I00
sg24
S'R'
sbsg35
(irule
FeatureMatrix
p3720
(dp3721
g28
(lp3722
sg22
Nsbsg22
Nsba(irule
Rule
p3723
(dp3724
g15
(irule
Guard
p3725
(dp3726
g18
I00
sg19
(lp3727
sg21
I00
sg22
Nsg23
I00
sg24
S'L'
sbsg25
(irule
FeatureMatrix
p3728
(dp3729
g28
(lp3730
(I01
g3090
tp3731
a(I00
g3092
tp3732
asg22
Nsbsg31
(irule
Guard
p3733
(dp3734
g18
I00
sg19
(lp3735
(irule
FeatureMatrix
p3736
(dp3737
g28
(lp3738
(I01
g3101
tp3739
a(I00
g3461
tp3740
asg22
Nsbasg21
I00
sg22
Nsg23
I00
sg24
S'R'
sbsg35
(irule
FeatureMatrix
p3741
(dp3742
g28
(lp3743
sg22
Nsbsg22
Nsba(irule
Rule
p3744
(dp3745
g15
(irule
Guard
p3746
(dp3747
g18
I00
sg19
(lp3748
(irule
FeatureMatrix
p3749
(dp3750
g28
(lp3751
sg22
Nsbasg21
I00
sg22
Nsg23
I00
sg24
S'L'
sbsg25
(irule
FeatureMatrix
p3752
(dp3753
g28
(lp3754
(I01
g3090
tp3755
a(I00
g3092
tp3756
asg22
Nsbsg31
(irule
Guard
p3757
(dp3758
g18
I00
sg19
(lp3759
(irule
ConstantPhoneme
p3760
(dp3761
S'p'
V\u014b
sbasg21
I00
sg22
Nsg23
I00
sg24
S'R'
sbsg35
(irule
FeatureMatrix
p3762
(dp3763
g28
(lp3764
sg22
Nsbsg22
Nsba(irule
Rule
p3765
(dp3766
g15
(irule
Guard
p3767
(dp3768
g18
I00
sg19
(lp3769
sg21
I00
sg22
Nsg23
I00
sg24
S'L'
sbsg25
(irule
FeatureMatrix
p3770
(dp3771
g28
(lp3772
(I01
g3090
tp3773
a(I00
g3092
tp3774
asg22
Nsbsg31
(irule
Guard
p3775
(dp3776
g18
I00
sg19
(lp3777
(irule
FeatureMatrix
p3778
(dp3779
g28
(lp3780
(I01
g3101
tp3781
asg22
Nsbasg21
I00
sg22
Nsg23
I00
sg24
S'R'
sbsg35
(irule
FeatureMatrix
p3782
(dp3783
g28
(lp3784
(I00
g3331
tp3785
asg22
Nsbsg22
Nsba(irule
Rule
p3786
(dp3787
g15
(irule
Guard
p3788
(dp3789
g18
I00
sg19
(lp3790
sg21
I00
sg22
Nsg23
I00
sg24
S'L'
sbsg25
(irule
FeatureMatrix
p3791
(dp3792
g28
(lp3793
(I01
g3090
tp3794
a(I00
g3092
tp3795
asg22
Nsbsg31
(irule
Guard
p3796
(dp3797
g18
I00
sg19
(lp3798
(irule
FeatureMatrix
p3799
(dp3800
g28
(lp3801
(I00
g3315
tp3802
a(I01
g3265
tp3803
asg22
Nsbasg21
I00
sg22
Nsg23
I00
sg24
S'R'
sbsg35
(irule
FeatureMatrix
p3804
(dp3805
g28
(lp3806
sg22
Nsbsg22
Nsba(irule
Rule
p3807
(dp3808
g15
(irule
Guard
p3809
(dp3810
g18
I00
sg19
(lp3811
(irule
FeatureMatrix
p3812
(dp3813
g28
(lp3814
sg22
Nsbasg21
I00
sg22
Nsg23
I00
sg24
S'L'
sbsg25
(irule
FeatureMatrix
p3815
(dp3816
g28
(lp3817
(I01
g3090
tp3818
a(I00
g3092
tp3819
asg22
Nsbsg31
(irule
Guard
p3820
(dp3821
g18
I00
sg19
(lp3822
(irule
FeatureMatrix
p3823
(dp3824
g28
(lp3825
(I01
g3101
tp3826
asg22
Nsbasg21
I00
sg22
Nsg23
I00
sg24
S'R'
sbsg35
(irule
FeatureMatrix
p3827
(dp3828
g28
(lp3829
sg22
Nsbsg22
Nsba(irule
Rule
p3830
(dp3831
g15
(irule
Guard
p3832
(dp3833
g18
I00
sg19
(lp3834
sg21
I00
sg22
Nsg23
I00
sg24
S'L'
sbsg25
(irule
FeatureMatrix
p3835
(dp3836
g28
(lp3837
(I01
g3090
tp3838
a(I00
g3092
tp3839
a(I00
g3331
tp3840
asg22
Nsbsg31
(irule
Guard
p3841
(dp3842
g18
I00
sg19
(lp3843
(irule
ConstantPhoneme
p3844
(dp3845
S'p'
V\u014b
sbasg21
I00
sg22
Nsg23
I00
sg24
S'R'
sbsg35
(irule
FeatureMatrix
p3846
(dp3847
g28
(lp3848
sg22
Nsbsg22
Nsba(irule
Rule
p3849
(dp3850
g15
(irule
Guard
p3851
(dp3852
g18
I00
sg19
(lp3853
sg21
I00
sg22
Nsg23
I00
sg24
S'L'
sbsg25
(irule
FeatureMatrix
p3854
(dp3855
g28
(lp3856
(I01
g3090
tp3857
a(I00
g3092
tp3858
asg22
Nsbsg31
(irule
Guard
p3859
(dp3860
g18
I00
sg19
(lp3861
(irule
FeatureMatrix
p3862
(dp3863
g28
(lp3864
(I01
g3101
tp3865
asg22
Nsbasg21
I00
sg22
Nsg23
I00
sg24
S'R'
sbsg35
(irule
FeatureMatrix
p3866
(dp3867
g28
(lp3868
(I00
g3101
tp3869
asg22
Nsbsg22
Nsba(irule
Rule
p3870
(dp3871
g15
(irule
Guard
p3872
(dp3873
g18
I00
sg19
(lp3874
sg21
I00
sg22
Nsg23
I00
sg24
S'L'
sbsg25
(irule
FeatureMatrix
p3875
(dp3876
g28
(lp3877
(I01
g3090
tp3878
a(I00
g3092
tp3879
asg22
Nsbsg31
(irule
Guard
p3880
(dp3881
g18
I00
sg19
(lp3882
(irule
FeatureMatrix
p3883
(dp3884
g28
(lp3885
(I01
g3101
tp3886
a(I00
g3092
tp3887
asg22
Nsbasg21
I00
sg22
Nsg23
I00
sg24
S'R'
sbsg35
(irule
FeatureMatrix
p3888
(dp3889
g28
(lp3890
sg22
Nsbsg22
Nsba(irule
Rule
p3891
(dp3892
g15
(irule
Guard
p3893
(dp3894
g18
I00
sg19
(lp3895
sg21
I00
sg22
Nsg23
I00
sg24
S'L'
sbsg25
(irule
FeatureMatrix
p3896
(dp3897
g28
(lp3898
(I01
g3090
tp3899
a(I00
g3092
tp3900
asg22
Nsbsg31
(irule
Guard
p3901
(dp3902
g18
I00
sg19
(lp3903
(irule
FeatureMatrix
p3904
(dp3905
g28
(lp3906
(I00
g3315
tp3907
a(I01
S'back'
p3908
tp3909
asg22
Nsbasg21
I00
sg22
Nsg23
I00
sg24
S'R'
sbsg35
(irule
FeatureMatrix
p3910
(dp3911
g28
(lp3912
sg22
Nsbsg22
Nsba(irule
Rule
p3913
(dp3914
g15
(irule
Guard
p3915
(dp3916
g18
I00
sg19
(lp3917
sg21
I00
sg22
Nsg23
I00
sg24
S'L'
sbsg25
(irule
FeatureMatrix
p3918
(dp3919
g28
(lp3920
(I01
g3090
tp3921
a(I00
g3092
tp3922
asg22
Nsbsg31
(irule
Guard
p3923
(dp3924
g18
I00
sg19
(lp3925
(irule
ConstantPhoneme
p3926
(dp3927
S'p'
V\u014b
sbasg21
I00
sg22
Nsg23
I00
sg24
S'R'
sbsg35
(irule
FeatureMatrix
p3928
(dp3929
g28
(lp3930
(I01
g3169
tp3931
asg22
Nsbsg22
Nsba(irule
Rule
p3932
(dp3933
g15
(irule
Guard
p3934
(dp3935
g18
I00
sg19
(lp3936
sg21
I00
sg22
Nsg23
I00
sg24
S'L'
sbsg25
(irule
FeatureMatrix
p3937
(dp3938
g28
(lp3939
(I01
g3090
tp3940
a(I00
g3092
tp3941
asg22
Nsbsg31
(irule
Guard
p3942
(dp3943
g18
I00
sg19
(lp3944
(irule
FeatureMatrix
p3945
(dp3946
g28
(lp3947
(I01
g3101
tp3948
asg22
Nsbasg21
I00
sg22
Nsg23
I00
sg24
S'R'
sbsg35
(irule
FeatureMatrix
p3949
(dp3950
g28
(lp3951
(I00
g3201
tp3952
asg22
Nsbsg22
Nsba(irule
Rule
p3953
(dp3954
g15
(irule
Guard
p3955
(dp3956
g18
I00
sg19
(lp3957
sg21
I00
sg22
Nsg23
I00
sg24
S'L'
sbsg25
(irule
FeatureMatrix
p3958
(dp3959
g28
(lp3960
(I01
g3090
tp3961
a(I00
g3092
tp3962
asg22
Nsbsg31
(irule
Guard
p3963
(dp3964
g18
I00
sg19
(lp3965
(irule
FeatureMatrix
p3966
(dp3967
g28
(lp3968
(I01
g3101
tp3969
asg22
Nsbasg21
I00
sg22
Nsg23
I00
sg24
S'R'
sbsg35
(irule
FeatureMatrix
p3970
(dp3971
g28
(lp3972
(I00
g3417
tp3973
asg22
Nsbsg22
Nsba(irule
Rule
p3974
(dp3975
g15
(irule
Guard
p3976
(dp3977
g18
I00
sg19
(lp3978
sg21
I00
sg22
Nsg23
I00
sg24
S'L'
sbsg25
(irule
FeatureMatrix
p3979
(dp3980
g28
(lp3981
(I01
g3090
tp3982
a(I00
g3092
tp3983
asg22
Nsbsg31
(irule
Guard
p3984
(dp3985
g18
I00
sg19
(lp3986
(irule
FeatureMatrix
p3987
(dp3988
g28
(lp3989
(I01
g3101
tp3990
asg22
Nsbasg21
I00
sg22
Nsg23
I00
sg24
S'R'
sbsg35
(irule
FeatureMatrix
p3991
(dp3992
g28
(lp3993
(I00
g3285
tp3994
asg22
Nsbsg22
Nsba(irule
Rule
p3995
(dp3996
g15
(irule
Guard
p3997
(dp3998
g18
I00
sg19
(lp3999
sg21
I00
sg22
Nsg23
I00
sg24
S'L'
sbsg25
(irule
FeatureMatrix
p4000
(dp4001
g28
(lp4002
(I01
g3315
tp4003
a(I01
g3090
tp4004
a(I00
g3092
tp4005
asg22
Nsbsg31
(irule
Guard
p4006
(dp4007
g18
I00
sg19
(lp4008
(irule
ConstantPhoneme
p4009
(dp4010
S'p'
V\u014b
sbasg21
I00
sg22
Nsg23
I00
sg24
S'R'
sbsg35
(irule
FeatureMatrix
p4011
(dp4012
g28
(lp4013
sg22
Nsbsg22
Nsba(irule
Rule
p4014
(dp4015
g15
(irule
Guard
p4016
(dp4017
g18
I00
sg19
(lp4018
sg21
I00
sg22
Nsg23
I00
sg24
S'L'
sbsg25
(irule
FeatureMatrix
p4019
(dp4020
g28
(lp4021
(I01
g3090
tp4022
a(I00
g3092
tp4023
asg22
Nsbsg31
(irule
Guard
p4024
(dp4025
g18
I00
sg19
(lp4026
(irule
FeatureMatrix
p4027
(dp4028
g28
(lp4029
(I00
g3315
tp4030
a(I01
g3090
tp4031
asg22
Nsbasg21
I00
sg22
Nsg23
I00
sg24
S'R'
sbsg35
(irule
FeatureMatrix
p4032
(dp4033
g28
(lp4034
sg22
Nsbsg22
Nsba(irule
Rule
p4035
(dp4036
g15
(irule
Guard
p4037
(dp4038
g18
I00
sg19
(lp4039
sg21
I00
sg22
Nsg23
I00
sg24
S'L'
sbsg25
(irule
FeatureMatrix
p4040
(dp4041
g28
(lp4042
(I01
g3090
tp4043
a(I00
g3092
tp4044
asg22
Nsbsg31
(irule
Guard
p4045
(dp4046
g18
I00
sg19
(lp4047
(irule
FeatureMatrix
p4048
(dp4049
g28
(lp4050
(I01
g3101
tp4051
a(I00
g3169
tp4052
asg22
Nsbasg21
I00
sg22
Nsg23
I00
sg24
S'R'
sbsg35
(irule
FeatureMatrix
p4053
(dp4054
g28
(lp4055
sg22
Nsbsg22
Nsba(irule
Rule
p4056
(dp4057
g15
(irule
Guard
p4058
(dp4059
g18
I00
sg19
(lp4060
sg21
I00
sg22
Nsg23
I00
sg24
S'L'
sbsg25
(irule
FeatureMatrix
p4061
(dp4062
g28
(lp4063
(I01
g3090
tp4064
a(I00
g3092
tp4065
asg22
Nsbsg31
(irule
Guard
p4066
(dp4067
g18
I00
sg19
(lp4068
(irule
FeatureMatrix
p4069
(dp4070
g28
(lp4071
(I01
g3101
tp4072
a(I01
g3090
tp4073
asg22
Nsbasg21
I00
sg22
Nsg23
I00
sg24
S'R'
sbsg35
(irule
FeatureMatrix
p4074
(dp4075
g28
(lp4076
sg22
Nsbsg22
Nsba(irule
Rule
p4077
(dp4078
g15
(irule
Guard
p4079
(dp4080
g18
I00
sg19
(lp4081
sg21
I00
sg22
Nsg23
I00
sg24
S'L'
sbsg25
(irule
FeatureMatrix
p4082
(dp4083
g28
(lp4084
(I01
g3090
tp4085
a(I00
g3092
tp4086
a(I01
g3265
tp4087
asg22
Nsbsg31
(irule
Guard
p4088
(dp4089
g18
I00
sg19
(lp4090
(irule
ConstantPhoneme
p4091
(dp4092
S'p'
V\u014b
sbasg21
I00
sg22
Nsg23
I00
sg24
S'R'
sbsg35
(irule
FeatureMatrix
p4093
(dp4094
g28
(lp4095
sg22
Nsbsg22
Nsba(irule
Rule
p4096
(dp4097
g15
(irule
Guard
p4098
(dp4099
g18
I00
sg19
(lp4100
sg21
I00
sg22
Nsg23
I00
sg24
S'L'
sbsg25
(irule
FeatureMatrix
p4101
(dp4102
g28
(lp4103
(I01
g3090
tp4104
a(I00
g3092
tp4105
asg22
Nsbsg31
(irule
Guard
p4106
(dp4107
g18
I00
sg19
(lp4108
(irule
FeatureMatrix
p4109
(dp4110
g28
(lp4111
(I01
g3101
tp4112
a(I01
g3265
tp4113
asg22
Nsbasg21
I00
sg22
Nsg23
I00
sg24
S'R'
sbsg35
(irule
FeatureMatrix
p4114
(dp4115
g28
(lp4116
sg22
Nsbsg22
Nsba(irule
Rule
p4117
(dp4118
g15
(irule
Guard
p4119
(dp4120
g18
I00
sg19
(lp4121
sg21
I00
sg22
Nsg23
I00
sg24
S'L'
sbsg25
(irule
FeatureMatrix
p4122
(dp4123
g28
(lp4124
(I01
g3090
tp4125
a(I00
g3092
tp4126
asg22
Nsbsg31
(irule
Guard
p4127
(dp4128
g18
I00
sg19
(lp4129
(irule
FeatureMatrix
p4130
(dp4131
g28
(lp4132
(I01
g3101
tp4133
a(I00
g3180
tp4134
asg22
Nsbasg21
I00
sg22
Nsg23
I00
sg24
S'R'
sbsg35
(irule
FeatureMatrix
p4135
(dp4136
g28
(lp4137
sg22
Nsbsg22
Nsba(irule
Rule
p4138
(dp4139
g15
(irule
Guard
p4140
(dp4141
g18
I00
sg19
(lp4142
sg21
I00
sg22
Nsg23
I00
sg24
S'L'
sbsg25
(irule
FeatureMatrix
p4143
(dp4144
g28
(lp4145
(I01
g3090
tp4146
a(I00
g3092
tp4147
asg22
Nsbsg31
(irule
Guard
p4148
(dp4149
g18
I00
sg19
(lp4150
(irule
ConstantPhoneme
p4151
(dp4152
S'p'
V\u014b
sbasg21
I00
sg22
Nsg23
I00
sg24
S'R'
sbsg35
(irule
FeatureMatrix
p4153
(dp4154
g28
(lp4155
(I00
g3090
tp4156
asg22
Nsbsg22
Nsba(irule
Rule
p4157
(dp4158
g15
(irule
Guard
p4159
(dp4160
g18
I00
sg19
(lp4161
sg21
I00
sg22
Nsg23
I00
sg24
S'L'
sbsg25
(irule
FeatureMatrix
p4162
(dp4163
g28
(lp4164
(I01
g3144
tp4165
a(I01
g3090
tp4166
a(I00
g3092
tp4167
asg22
Nsbsg31
(irule
Guard
p4168
(dp4169
g18
I00
sg19
(lp4170
(irule
ConstantPhoneme
p4171
(dp4172
S'p'
V\u014b
sbasg21
I00
sg22
Nsg23
I00
sg24
S'R'
sbsg35
(irule
FeatureMatrix
p4173
(dp4174
g28
(lp4175
sg22
Nsbsg22
Nsba(irule
Rule
p4176
(dp4177
g15
(irule
Guard
p4178
(dp4179
g18
I00
sg19
(lp4180
sg21
I00
sg22
Nsg23
I00
sg24
S'L'
sbsg25
(irule
FeatureMatrix
p4181
(dp4182
g28
(lp4183
(I01
g3090
tp4184
a(I00
g3092
tp4185
asg22
Nsbsg31
(irule
Guard
p4186
(dp4187
g18
I00
sg19
(lp4188
(irule
ConstantPhoneme
p4189
(dp4190
S'p'
V\u014b
sbasg21
I00
sg22
Nsg23
I00
sg24
S'R'
sbsg35
(irule
FeatureMatrix
p4191
(dp4192
g28
(lp4193
(I01
g3265
tp4194
asg22
Nsbsg22
Nsba(irule
Rule
p4195
(dp4196
g15
(irule
Guard
p4197
(dp4198
g18
I00
sg19
(lp4199
sg21
I00
sg22
Nsg23
I00
sg24
S'L'
sbsg25
(irule
FeatureMatrix
p4200
(dp4201
g28
(lp4202
(I01
g3090
tp4203
a(I00
g3092
tp4204
asg22
Nsbsg31
(irule
Guard
p4205
(dp4206
g18
I00
sg19
(lp4207
(irule
FeatureMatrix
p4208
(dp4209
g28
(lp4210
(I00
g3417
tp4211
a(I01
g3101
tp4212
asg22
Nsbasg21
I00
sg22
Nsg23
I00
sg24
S'R'
sbsg35
(irule
FeatureMatrix
p4213
(dp4214
g28
(lp4215
sg22
Nsbsg22
Nsba(irule
Rule
p4216
(dp4217
g15
(irule
Guard
p4218
(dp4219
g18
I00
sg19
(lp4220
sg21
I00
sg22
Nsg23
I00
sg24
S'L'
sbsg25
(irule
FeatureMatrix
p4221
(dp4222
g28
(lp4223
(I01
g3090
tp4224
a(I00
g3092
tp4225
asg22
Nsbsg31
(irule
Guard
p4226
(dp4227
g18
I00
sg19
(lp4228
(irule
FeatureMatrix
p4229
(dp4230
g28
(lp4231
(I00
g3285
tp4232
a(I01
g3101
tp4233
asg22
Nsbasg21
I00
sg22
Nsg23
I00
sg24
S'R'
sbsg35
(irule
FeatureMatrix
p4234
(dp4235
g28
(lp4236
sg22
Nsbsg22
Nsba(irule
Rule
p4237
(dp4238
g15
(irule
Guard
p4239
(dp4240
g18
I00
sg19
(lp4241
sg21
I00
sg22
Nsg23
I00
sg24
S'L'
sbsg25
(irule
FeatureMatrix
p4242
(dp4243
g28
(lp4244
(I01
g3090
tp4245
a(I01
g3169
tp4246
a(I00
g3092
tp4247
asg22
Nsbsg31
(irule
Guard
p4248
(dp4249
g18
I00
sg19
(lp4250
(irule
ConstantPhoneme
p4251
(dp4252
S'p'
V\u014b
sbasg21
I00
sg22
Nsg23
I00
sg24
S'R'
sbsg35
(irule
FeatureMatrix
p4253
(dp4254
g28
(lp4255
sg22
Nsbsg22
Nsba(irule
Rule
p4256
(dp4257
g15
(irule
Guard
p4258
(dp4259
g18
I00
sg19
(lp4260
sg21
I00
sg22
Nsg23
I00
sg24
S'L'
sbsg25
(irule
FeatureMatrix
p4261
(dp4262
g28
(lp4263
(I01
g3090
tp4264
a(I00
g3092
tp4265
asg22
Nsbsg31
(irule
Guard
p4266
(dp4267
g18
I00
sg19
(lp4268
(irule
FeatureMatrix
p4269
(dp4270
g28
(lp4271
(I01
g3101
tp4272
a(I00
g3331
tp4273
asg22
Nsbasg21
I00
sg22
Nsg23
I00
sg24
S'R'
sbsg35
(irule
FeatureMatrix
p4274
(dp4275
g28
(lp4276
sg22
Nsbsg22
Nsba(irule
Rule
p4277
(dp4278
g15
(irule
Guard
p4279
(dp4280
g18
I00
sg19
(lp4281
sg21
I00
sg22
Nsg23
I00
sg24
S'L'
sbsg25
(irule
FeatureMatrix
p4282
(dp4283
g28
(lp4284
(I01
g3090
tp4285
a(I00
g3461
tp4286
a(I00
g3092
tp4287
asg22
Nsbsg31
(irule
Guard
p4288
(dp4289
g18
I00
sg19
(lp4290
(irule
ConstantPhoneme
p4291
(dp4292
S'p'
V\u014b
sbasg21
I00
sg22
Nsg23
I00
sg24
S'R'
sbsg35
(irule
FeatureMatrix
p4293
(dp4294
g28
(lp4295
sg22
Nsbsg22
Nsba(irule
Rule
p4296
(dp4297
g15
(irule
Guard
p4298
(dp4299
g18
I00
sg19
(lp4300
sg21
I00
sg22
Nsg23
I00
sg24
S'L'
sbsg25
(irule
FeatureMatrix
p4301
(dp4302
g28
(lp4303
(I01
g3090
tp4304
a(I00
g3092
tp4305
a(I01
g3557
tp4306
asg22
Nsbsg31
(irule
Guard
p4307
(dp4308
g18
I00
sg19
(lp4309
(irule
ConstantPhoneme
p4310
(dp4311
S'p'
V\u014b
sbasg21
I00
sg22
Nsg23
I00
sg24
S'R'
sbsg35
(irule
FeatureMatrix
p4312
(dp4313
g28
(lp4314
sg22
Nsbsg22
Nsba(irule
Rule
p4315
(dp4316
g15
(irule
Guard
p4317
(dp4318
g18
I00
sg19
(lp4319
sg21
I00
sg22
Nsg23
I00
sg24
S'L'
sbsg25
(irule
FeatureMatrix
p4320
(dp4321
g28
(lp4322
(I01
g3090
tp4323
a(I00
g3092
tp4324
asg22
Nsbsg31
(irule
Guard
p4325
(dp4326
g18
I00
sg19
(lp4327
(irule
FeatureMatrix
p4328
(dp4329
g28
(lp4330
(I01
g3101
tp4331
a(I00
g3557
tp4332
asg22
Nsbasg21
I00
sg22
Nsg23
I00
sg24
S'R'
sbsg35
(irule
FeatureMatrix
p4333
(dp4334
g28
(lp4335
sg22
Nsbsg22
Nsba(irule
Rule
p4336
(dp4337
g15
(irule
Guard
p4338
(dp4339
g18
I00
sg19
(lp4340
sg21
I00
sg22
Nsg23
I00
sg24
S'L'
sbsg25
(irule
FeatureMatrix
p4341
(dp4342
g28
(lp4343
(I00
g3417
tp4344
a(I01
g3090
tp4345
a(I00
g3092
tp4346
asg22
Nsbsg31
(irule
Guard
p4347
(dp4348
g18
I00
sg19
(lp4349
(irule
ConstantPhoneme
p4350
(dp4351
S'p'
V\u014b
sbasg21
I00
sg22
Nsg23
I00
sg24
S'R'
sbsg35
(irule
FeatureMatrix
p4352
(dp4353
g28
(lp4354
sg22
Nsbsg22
Nsba(irule
Rule
p4355
(dp4356
g15
(irule
Guard
p4357
(dp4358
g18
I00
sg19
(lp4359
sg21
I00
sg22
Nsg23
I00
sg24
S'L'
sbsg25
(irule
FeatureMatrix
p4360
(dp4361
g28
(lp4362
(I00
g3285
tp4363
a(I01
g3090
tp4364
a(I00
g3092
tp4365
asg22
Nsbsg31
(irule
Guard
p4366
(dp4367
g18
I00
sg19
(lp4368
(irule
ConstantPhoneme
p4369
(dp4370
S'p'
V\u014b
sbasg21
I00
sg22
Nsg23
I00
sg24
S'R'
sbsg35
(irule
FeatureMatrix
p4371
(dp4372
g28
(lp4373
sg22
Nsbsg22
Nsba(irule
Rule
p4374
(dp4375
g15
(irule
Guard
p4376
(dp4377
g18
I00
sg19
(lp4378
sg21
I00
sg22
Nsg23
I00
sg24
S'L'
sbsg25
(irule
FeatureMatrix
p4379
(dp4380
g28
(lp4381
(I01
g3090
tp4382
a(I00
g3092
tp4383
asg22
Nsbsg31
(irule
Guard
p4384
(dp4385
g18
I00
sg19
(lp4386
(irule
FeatureMatrix
p4387
(dp4388
g28
(lp4389
(I00
g3201
tp4390
a(I01
g3101
tp4391
asg22
Nsbasg21
I00
sg22
Nsg23
I00
sg24
S'R'
sbsg35
(irule
FeatureMatrix
p4392
(dp4393
g28
(lp4394
sg22
Nsbsg22
Nsba(irule
Rule
p4395
(dp4396
g15
(irule
Guard
p4397
(dp4398
g18
I00
sg19
(lp4399
sg21
I00
sg22
Nsg23
I00
sg24
S'L'
sbsg25
(irule
FeatureMatrix
p4400
(dp4401
g28
(lp4402
(I01
g3090
tp4403
a(I00
g3180
tp4404
a(I00
g3092
tp4405
asg22
Nsbsg31
(irule
Guard
p4406
(dp4407
g18
I00
sg19
(lp4408
(irule
ConstantPhoneme
p4409
(dp4410
S'p'
V\u014b
sbasg21
I00
sg22
Nsg23
I00
sg24
S'R'
sbsg35
(irule
FeatureMatrix
p4411
(dp4412
g28
(lp4413
sg22
Nsbsg22
Nsba(irule
Rule
p4414
(dp4415
g15
(irule
Guard
p4416
(dp4417
g18
I00
sg19
(lp4418
sg21
I00
sg22
Nsg23
I00
sg24
S'L'
sbsg25
(irule
FeatureMatrix
p4419
(dp4420
g28
(lp4421
(I00
g3201
tp4422
a(I01
g3090
tp4423
a(I00
g3092
tp4424
asg22
Nsbsg31
(irule
Guard
p4425
(dp4426
g18
I00
sg19
(lp4427
(irule
ConstantPhoneme
p4428
(dp4429
S'p'
V\u014b
sbasg21
I00
sg22
Nsg23
I00
sg24
S'R'
sbsg35
(irule
FeatureMatrix
p4430
(dp4431
g28
(lp4432
sg22
Nsbsg22
Nsba(irule
Rule
p4433
(dp4434
g15
(irule
Guard
p4435
(dp4436
g18
I00
sg19
(lp4437
sg21
I00
sg22
Nsg23
I00
sg24
S'L'
sbsg25
(irule
FeatureMatrix
p4438
(dp4439
g28
(lp4440
(I01
g3090
tp4441
a(I00
g3092
tp4442
asg22
Nsbsg31
(irule
Guard
p4443
(dp4444
g18
I00
sg19
(lp4445
(irule
FeatureMatrix
p4446
(dp4447
g28
(lp4448
(I00
S'rounded'
tp4449
a(I01
g3101
tp4450
asg22
Nsbasg21
I00
sg22
Nsg23
I00
sg24
S'R'
sbsg35
(irule
FeatureMatrix
p4451
(dp4452
g28
(lp4453
sg22
Nsbsg22
Nsba(irule
Rule
p4454
(dp4455
g15
(irule
Guard
p4456
(dp4457
g18
I00
sg19
(lp4458
sg21
I00
sg22
Nsg23
I00
sg24
S'L'
sbsg25
(irule
FeatureMatrix
p4459
(dp4460
g28
(lp4461
(I00
g3351
tp4462
a(I01
g3090
tp4463
a(I00
g3092
tp4464
asg22
Nsbsg31
(irule
Guard
p4465
(dp4466
g18
I00
sg19
(lp4467
(irule
ConstantPhoneme
p4468
(dp4469
S'p'
V\u014b
sbasg21
I00
sg22
Nsg23
I00
sg24
S'R'
sbsg35
(irule
FeatureMatrix
p4470
(dp4471
g28
(lp4472
sg22
Nsbsg22
Nsba(irule
Rule
p4473
(dp4474
g15
(irule
Guard
p4475
(dp4476
g18
I00
sg19
(lp4477
sg21
I00
sg22
Nsg23
I00
sg24
S'L'
sbsg25
(irule
FeatureMatrix
p4478
(dp4479
g28
(lp4480
(I01
g3090
tp4481
a(I00
g3092
tp4482
asg22
Nsbsg31
(irule
Guard
p4483
(dp4484
g18
I00
sg19
(lp4485
(irule
FeatureMatrix
p4486
(dp4487
g28
(lp4488
(I01
g3101
tp4489
a(I01
g3908
tp4490
asg22
Nsbasg21
I00
sg22
Nsg23
I00
sg24
S'R'
sbsg35
(irule
FeatureMatrix
p4491
(dp4492
g28
(lp4493
sg22
Nsbsg22
Nsba(irule
Rule
p4494
(dp4495
g15
(irule
Guard
p4496
(dp4497
g18
I00
sg19
(lp4498
sg21
I00
sg22
Nsg23
I00
sg24
S'L'
sbsg25
(irule
FeatureMatrix
p4499
(dp4500
g28
(lp4501
(I01
g3090
tp4502
a(I00
g3092
tp4503
asg22
Nsbsg31
(irule
Guard
p4504
(dp4505
g18
I00
sg19
(lp4506
(irule
FeatureMatrix
p4507
(dp4508
g28
(lp4509
(I00
g3315
tp4510
a(I01
g3101
tp4511
asg22
Nsbasg21
I00
sg22
Nsg23
I00
sg24
S'R'
sbsg35
(irule
FeatureMatrix
p4512
(dp4513
g28
(lp4514
sg22
Nsbsg22
Nsba(irule
Rule
p4515
(dp4516
g15
(irule
Guard
p4517
(dp4518
g18
I00
sg19
(lp4519
sg21
I00
sg22
Nsg23
I00
sg24
S'L'
sbsg25
(irule
FeatureMatrix
p4520
(dp4521
g28
(lp4522
(I01
g3090
tp4523
a(I00
g3092
tp4524
asg22
Nsbsg31
(irule
Guard
p4525
(dp4526
g18
I00
sg19
(lp4527
(irule
ConstantPhoneme
p4528
(dp4529
S'p'
V\u014b
sbasg21
I00
sg22
Nsg23
I00
sg24
S'R'
sbsg35
(irule
FeatureMatrix
p4530
(dp4531
g28
(lp4532
(I01
g3144
tp4533
asg22
Nsbsg22
Nsba(irule
Rule
p4534
(dp4535
g15
(irule
Guard
p4536
(dp4537
g18
I00
sg19
(lp4538
sg21
I00
sg22
Nsg23
I00
sg24
S'L'
sbsg25
(irule
FeatureMatrix
p4539
(dp4540
g28
(lp4541
(I01
g3090
tp4542
a(I00
g3092
tp4543
asg22
Nsbsg31
(irule
Guard
p4544
(dp4545
g18
I00
sg19
(lp4546
(irule
ConstantPhoneme
p4547
(dp4548
S'p'
V\u014b
sbasg21
I00
sg22
Nsg23
I00
sg24
S'R'
sbsg35
(irule
FeatureMatrix
p4549
(dp4550
g28
(lp4551
(I00
g3331
tp4552
asg22
Nsbsg22
Nsba(irule
Rule
p4553
(dp4554
g15
(irule
Guard
p4555
(dp4556
g18
I00
sg19
(lp4557
sg21
I00
sg22
Nsg23
I00
sg24
S'L'
sbsg25
(irule
FeatureMatrix
p4558
(dp4559
g28
(lp4560
(I01
g3090
tp4561
a(I00
g3092
tp4562
asg22
Nsbsg31
(irule
Guard
p4563
(dp4564
g18
I00
sg19
(lp4565
(irule
ConstantPhoneme
p4566
(dp4567
S'p'
V\u014b
sbasg21
I00
sg22
Nsg23
I00
sg24
S'R'
sbsg35
(irule
FeatureMatrix
p4568
(dp4569
g28
(lp4570
(I00
g3351
tp4571
asg22
Nsbsg22
Nsba(irule
Rule
p4572
(dp4573
g15
(irule
Guard
p4574
(dp4575
g18
I00
sg19
(lp4576
sg21
I00
sg22
Nsg23
I00
sg24
S'L'
sbsg25
(irule
FeatureMatrix
p4577
(dp4578
g28
(lp4579
(I01
g3090
tp4580
a(I00
g3092
tp4581
asg22
Nsbsg31
(irule
Guard
p4582
(dp4583
g18
I00
sg19
(lp4584
(irule
ConstantPhoneme
p4585
(dp4586
S'p'
V\u014b
sbasg21
I00
sg22
Nsg23
I00
sg24
S'R'
sbsg35
(irule
FeatureMatrix
p4587
(dp4588
g28
(lp4589
(I00
g3101
tp4590
asg22
Nsbsg22
Nsba(irule
Rule
p4591
(dp4592
g15
(irule
Guard
p4593
(dp4594
g18
I00
sg19
(lp4595
sg21
I00
sg22
Nsg23
I00
sg24
S'L'
sbsg25
(irule
FeatureMatrix
p4596
(dp4597
g28
(lp4598
(I01
g3090
tp4599
a(I00
g3092
tp4600
asg22
Nsbsg31
(irule
Guard
p4601
(dp4602
g18
I00
sg19
(lp4603
(irule
ConstantPhoneme
p4604
(dp4605
S'p'
V\u014b
sbasg21
I00
sg22
Nsg23
I00
sg24
S'R'
sbsg35
(irule
FeatureMatrix
p4606
(dp4607
g28
(lp4608
(I00
g3285
tp4609
asg22
Nsbsg22
Nsba(irule
Rule
p4610
(dp4611
g15
(irule
Guard
p4612
(dp4613
g18
I00
sg19
(lp4614
sg21
I00
sg22
Nsg23
I00
sg24
S'L'
sbsg25
(irule
FeatureMatrix
p4615
(dp4616
g28
(lp4617
(I01
g3090
tp4618
a(I00
g3092
tp4619
asg22
Nsbsg31
(irule
Guard
p4620
(dp4621
g18
I00
sg19
(lp4622
(irule
ConstantPhoneme
p4623
(dp4624
S'p'
V\u014b
sbasg21
I00
sg22
Nsg23
I00
sg24
S'R'
sbsg35
(irule
FeatureMatrix
p4625
(dp4626
g28
(lp4627
(I00
g3417
tp4628
asg22
Nsbsg22
Nsba(irule
Rule
p4629
(dp4630
g15
(irule
Guard
p4631
(dp4632
g18
I00
sg19
(lp4633
sg21
I00
sg22
Nsg23
I00
sg24
S'L'
sbsg25
(irule
FeatureMatrix
p4634
(dp4635
g28
(lp4636
(I01
g3090
tp4637
a(I00
g3092
tp4638
asg22
Nsbsg31
(irule
Guard
p4639
(dp4640
g18
I00
sg19
(lp4641
(irule
ConstantPhoneme
p4642
(dp4643
S'p'
V\u014b
sbasg21
I00
sg22
Nsg23
I00
sg24
S'R'
sbsg35
(irule
FeatureMatrix
p4644
(dp4645
g28
(lp4646
(I01
g3315
tp4647
asg22
Nsbsg22
Nsba(irule
Rule
p4648
(dp4649
g15
(irule
Guard
p4650
(dp4651
g18
I00
sg19
(lp4652
sg21
I00
sg22
Nsg23
I00
sg24
S'L'
sbsg25
(irule
FeatureMatrix
p4653
(dp4654
g28
(lp4655
(I01
g3090
tp4656
a(I00
g3092
tp4657
asg22
Nsbsg31
(irule
Guard
p4658
(dp4659
g18
I00
sg19
(lp4660
(irule
ConstantPhoneme
p4661
(dp4662
S'p'
V\u014b
sbasg21
I00
sg22
Nsg23
I00
sg24
S'R'
sbsg35
(irule
FeatureMatrix
p4663
(dp4664
g28
(lp4665
(I00
g3201
tp4666
asg22
Nsbsg22
Nsba(irule
Rule
p4667
(dp4668
g15
(irule
Guard
p4669
(dp4670
g18
I00
sg19
(lp4671
sg21
I00
sg22
Nsg23
I00
sg24
S'L'
sbsg25
(irule
FeatureMatrix
p4672
(dp4673
g28
(lp4674
(I01
g3090
tp4675
a(I00
g3092
tp4676
asg22
Nsbsg31
(irule
Guard
p4677
(dp4678
g18
I00
sg19
(lp4679
(irule
ConstantPhoneme
p4680
(dp4681
S'p'
V\u014b
sbasg21
I00
sg22
Nsg23
I00
sg24
S'R'
sbsg35
(irule
FeatureMatrix
p4682
(dp4683
g28
(lp4684
(I00
g3461
tp4685
asg22
Nsbsg22
Nsba(irule
Rule
p4686
(dp4687
g15
(irule
Guard
p4688
(dp4689
g18
I00
sg19
(lp4690
sg21
I00
sg22
Nsg23
I00
sg24
S'L'
sbsg25
(irule
FeatureMatrix
p4691
(dp4692
g28
(lp4693
(I01
g3090
tp4694
a(I00
g3092
tp4695
asg22
Nsbsg31
(irule
Guard
p4696
(dp4697
g18
I00
sg19
(lp4698
(irule
FeatureMatrix
p4699
(dp4700
g28
(lp4701
(I01
g3101
tp4702
asg22
Nsbasg21
I00
sg22
Nsg23
I00
sg24
S'R'
sbsg35
(irule
FeatureMatrix
p4703
(dp4704
g28
(lp4705
(I00
g3090
tp4706
a(I01
g3557
tp4707
asg22
Nsbsg22
Nsba(irule
Rule
p4708
(dp4709
g15
(irule
Guard
p4710
(dp4711
g18
I00
sg19
(lp4712
sg21
I00
sg22
Nsg23
I00
sg24
S'L'
sbsg25
(irule
FeatureMatrix
p4713
(dp4714
g28
(lp4715
(I01
g3090
tp4716
a(I00
g3092
tp4717
asg22
Nsbsg31
(irule
Guard
p4718
(dp4719
g18
I00
sg19
(lp4720
(irule
FeatureMatrix
p4721
(dp4722
g28
(lp4723
(I01
g3144
tp4724
a(I00
g3461
tp4725
a(I00
g3169
tp4726
asg22
Nsbasg21
I00
sg22
Nsg23
I00
sg24
S'R'
sbsg35
(irule
FeatureMatrix
p4727
(dp4728
g28
(lp4729
sg22
Nsbsg22
Nsba(irule
Rule
p4730
(dp4731
g15
(irule
Guard
p4732
(dp4733
g18
I00
sg19
(lp4734
sg21
I00
sg22
Nsg23
I00
sg24
S'L'
sbsg25
(irule
FeatureMatrix
p4735
(dp4736
g28
(lp4737
(I01
g3090
tp4738
a(I00
g3092
tp4739
asg22
Nsbsg31
(irule
Guard
p4740
(dp4741
g18
I00
sg19
(lp4742
(irule
FeatureMatrix
p4743
(dp4744
g28
(lp4745
(I01
g3101
tp4746
a(I01
g3144
tp4747
a(I00
g3092
tp4748
asg22
Nsbasg21
I00
sg22
Nsg23
I00
sg24
S'R'
sbsg35
(irule
FeatureMatrix
p4749
(dp4750
g28
(lp4751
sg22
Nsbsg22
Nsba(irule
Rule
p4752
(dp4753
g15
(irule
Guard
p4754
(dp4755
g18
I00
sg19
(lp4756
sg21
I00
sg22
Nsg23
I00
sg24
S'L'
sbsg25
(irule
FeatureMatrix
p4757
(dp4758
g28
(lp4759
(I01
g3090
tp4760
a(I00
g3092
tp4761
asg22
Nsbsg31
(irule
Guard
p4762
(dp4763
g18
I00
sg19
(lp4764
(irule
FeatureMatrix
p4765
(dp4766
g28
(lp4767
sg22
Nsba(irule
FeatureMatrix
p4768
(dp4769
g28
(lp4770
(I01
g3101
tp4771
asg22
Nsbasg21
I00
sg22
Nsg23
I00
sg24
S'R'
sbsg35
(irule
FeatureMatrix
p4772
(dp4773
g28
(lp4774
(I00
g3351
tp4775
asg22
Nsbsg22
Nsba(irule
Rule
p4776
(dp4777
g15
(irule
Guard
p4778
(dp4779
g18
I00
sg19
(lp4780
sg21
I00
sg22
Nsg23
I00
sg24
S'L'
sbsg25
(irule
FeatureMatrix
p4781
(dp4782
g28
(lp4783
(I01
g3090
tp4784
a(I00
g3092
tp4785
asg22
Nsbsg31
(irule
Guard
p4786
(dp4787
g18
I00
sg19
(lp4788
(irule
FeatureMatrix
p4789
(dp4790
g28
(lp4791
(I01
g3101
tp4792
asg22
Nsbasg21
I00
sg22
Nsg23
I00
sg24
S'R'
sbsg35
(irule
FeatureMatrix
p4793
(dp4794
g28
(lp4795
(I00
g3180
tp4796
a(I01
g3557
tp4797
asg22
Nsbsg22
Nsba(irule
Rule
p4798
(dp4799
g15
(irule
Guard
p4800
(dp4801
g18
I00
sg19
(lp4802
sg21
I00
sg22
Nsg23
I00
sg24
S'L'
sbsg25
(irule
FeatureMatrix
p4803
(dp4804
g28
(lp4805
(I01
g3090
tp4806
a(I00
g3092
tp4807
asg22
Nsbsg31
(irule
Guard
p4808
(dp4809
g18
I00
sg19
(lp4810
(irule
FeatureMatrix
p4811
(dp4812
g28
(lp4813
(I01
g3101
tp4814
asg22
Nsbasg21
I00
sg22
Nsg23
I00
sg24
S'R'
sbsg35
(irule
FeatureMatrix
p4815
(dp4816
g28
(lp4817
(I00
g3417
tp4818
a(I00
g3351
tp4819
asg22
Nsbsg22
Nsba(irule
Rule
p4820
(dp4821
g15
(irule
Guard
p4822
(dp4823
g18
I00
sg19
(lp4824
sg21
I00
sg22
Nsg23
I00
sg24
S'L'
sbsg25
(irule
FeatureMatrix
p4825
(dp4826
g28
(lp4827
(I01
g3090
tp4828
a(I00
g3092
tp4829
asg22
Nsbsg31
(irule
Guard
p4830
(dp4831
g18
I00
sg19
(lp4832
(irule
FeatureMatrix
p4833
(dp4834
g28
(lp4835
(I01
g3101
tp4836
asg22
Nsba(irule
FeatureMatrix
p4837
(dp4838
g28
(lp4839
sg22
Nsbasg21
I00
sg22
Nsg23
I00
sg24
S'R'
sbsg35
(irule
FeatureMatrix
p4840
(dp4841
g28
(lp4842
(I00
g3351
tp4843
asg22
Nsbsg22
Nsba(irule
Rule
p4844
(dp4845
g15
(irule
Guard
p4846
(dp4847
g18
I00
sg19
(lp4848
sg21
I00
sg22
Nsg23
I00
sg24
S'L'
sbsg25
(irule
FeatureMatrix
p4849
(dp4850
g28
(lp4851
(I01
g3090
tp4852
a(I00
g3092
tp4853
asg22
Nsbsg31
(irule
Guard
p4854
(dp4855
g18
I00
sg19
(lp4856
(irule
FeatureMatrix
p4857
(dp4858
g28
(lp4859
(I00
g3315
tp4860
a(I01
g3144
tp4861
asg22
Nsbasg21
I00
sg22
Nsg23
I00
sg24
S'R'
sbsg35
(irule
FeatureMatrix
p4862
(dp4863
g28
(lp4864
(I01
g3169
tp4865
asg22
Nsbsg22
Nsba(irule
Rule
p4866
(dp4867
g15
(irule
Guard
p4868
(dp4869
g18
I00
sg19
(lp4870
sg21
I00
sg22
Nsg23
I00
sg24
S'L'
sbsg25
(irule
FeatureMatrix
p4871
(dp4872
g28
(lp4873
(I01
g3090
tp4874
a(I00
g3092
tp4875
asg22
Nsbsg31
(irule
Guard
p4876
(dp4877
g18
I00
sg19
(lp4878
(irule
FeatureMatrix
p4879
(dp4880
g28
(lp4881
(I00
g3417
tp4882
a(I00
g3315
tp4883
a(I00
g3092
tp4884
asg22
Nsbasg21
I00
sg22
Nsg23
I00
sg24
S'R'
sbsg35
(irule
FeatureMatrix
p4885
(dp4886
g28
(lp4887
sg22
Nsbsg22
Nsba(irule
Rule
p4888
(dp4889
g15
(irule
Guard
p4890
(dp4891
g18
I00
sg19
(lp4892
sg21
I00
sg22
Nsg23
I00
sg24
S'L'
sbsg25
(irule
FeatureMatrix
p4893
(dp4894
g28
(lp4895
(I01
g3090
tp4896
a(I00
g3092
tp4897
asg22
Nsbsg31
(irule
Guard
p4898
(dp4899
g18
I00
sg19
(lp4900
(irule
FeatureMatrix
p4901
(dp4902
g28
(lp4903
(I00
g3351
tp4904
a(I01
g3144
tp4905
a(I00
g3169
tp4906
asg22
Nsbasg21
I00
sg22
Nsg23
I00
sg24
S'R'
sbsg35
(irule
FeatureMatrix
p4907
(dp4908
g28
(lp4909
sg22
Nsbsg22
Nsba(irule
Rule
p4910
(dp4911
g15
(irule
Guard
p4912
(dp4913
g18
I00
sg19
(lp4914
sg21
I00
sg22
Nsg23
I00
sg24
S'L'
sbsg25
(irule
FeatureMatrix
p4915
(dp4916
g28
(lp4917
(I01
g3090
tp4918
a(I00
g3092
tp4919
a(I00
g3331
tp4920
asg22
Nsbsg31
(irule
Guard
p4921
(dp4922
g18
I00
sg19
(lp4923
(irule
FeatureMatrix
p4924
(dp4925
g28
(lp4926
sg22
Nsba(irule
ConstantPhoneme
p4927
(dp4928
S'p'
Vn
sbasg21
I00
sg22
Nsg23
I00
sg24
S'R'
sbsg35
(irule
FeatureMatrix
p4929
(dp4930
g28
(lp4931
sg22
Nsbsg22
Nsba(irule
Rule
p4932
(dp4933
g15
(irule
Guard
p4934
(dp4935
g18
I00
sg19
(lp4936
sg21
I00
sg22
Nsg23
I00
sg24
S'L'
sbsg25
(irule
FeatureMatrix
p4937
(dp4938
g28
(lp4939
(I01
g3090
tp4940
a(I00
g3092
tp4941
asg22
Nsbsg31
(irule
Guard
p4942
(dp4943
g18
I00
sg19
(lp4944
(irule
FeatureMatrix
p4945
(dp4946
g28
(lp4947
(I01
g3101
tp4948
asg22
Nsbasg21
I00
sg22
Nsg23
I00
sg24
S'R'
sbsg35
(irule
FeatureMatrix
p4949
(dp4950
g28
(lp4951
(I01
g3557
tp4952
a(I00
g3331
tp4953
asg22
Nsbsg22
Nsba(irule
Rule
p4954
(dp4955
g15
(irule
Guard
p4956
(dp4957
g18
I00
sg19
(lp4958
sg21
I00
sg22
Nsg23
I00
sg24
S'L'
sbsg25
(irule
FeatureMatrix
p4959
(dp4960
g28
(lp4961
(I01
g3090
tp4962
a(I00
g3092
tp4963
asg22
Nsbsg31
(irule
Guard
p4964
(dp4965
g18
I00
sg19
(lp4966
(irule
FeatureMatrix
p4967
(dp4968
g28
(lp4969
(I01
g3101
tp4970
asg22
Nsbasg21
I00
sg22
Nsg23
I00
sg24
S'R'
sbsg35
(irule
FeatureMatrix
p4971
(dp4972
g28
(lp4973
(I00
g3090
tp4974
a(I00
g3331
tp4975
asg22
Nsbsg22
Nsba(irule
Rule
p4976
(dp4977
g15
(irule
Guard
p4978
(dp4979
g18
I00
sg19
(lp4980
sg21
I00
sg22
Nsg23
I00
sg24
S'L'
sbsg25
(irule
FeatureMatrix
p4981
(dp4982
g28
(lp4983
(I01
g3090
tp4984
a(I00
g3092
tp4985
asg22
Nsbsg31
(irule
Guard
p4986
(dp4987
g18
I00
sg19
(lp4988
(irule
FeatureMatrix
p4989
(dp4990
g28
(lp4991
(I01
g3101
tp4992
asg22
Nsbasg21
I00
sg22
Nsg23
I00
sg24
S'R'
sbsg35
(irule
FeatureMatrix
p4993
(dp4994
g28
(lp4995
(I01
g3144
tp4996
a(I01
g3557
tp4997
asg22
Nsbsg22
Nsba(irule
Rule
p4998
(dp4999
g15
(irule
Guard
p5000
(dp5001
g18
I00
sg19
(lp5002
sg21
I00
sg22
Nsg23
I00
sg24
S'L'
sbsg25
(irule
FeatureMatrix
p5003
(dp5004
g28
(lp5005
(I01
g3090
tp5006
a(I00
g3092
tp5007
a(I00
g3331
tp5008
asg22
Nsbsg31
(irule
Guard
p5009
(dp5010
g18
I00
sg19
(lp5011
(irule
ConstantPhoneme
p5012
(dp5013
S'p'
V\u014b
sbasg21
I00
sg22
Nsg23
I00
sg24
S'R'
sbsg35
(irule
FeatureMatrix
p5014
(dp5015
g28
(lp5016
(I01
g3265
tp5017
asg22
Nsbsg22
Nsba(irule
Rule
p5018
(dp5019
g15
(irule
Guard
p5020
(dp5021
g18
I00
sg19
(lp5022
sg21
I00
sg22
Nsg23
I00
sg24
S'L'
sbsg25
(irule
FeatureMatrix
p5023
(dp5024
g28
(lp5025
(I01
g3090
tp5026
a(I00
g3092
tp5027
asg22
Nsbsg31
(irule
Guard
p5028
(dp5029
g18
I00
sg19
(lp5030
(irule
FeatureMatrix
p5031
(dp5032
g28
(lp5033
(I01
g3101
tp5034
asg22
Nsbasg21
I00
sg22
Nsg23
I00
sg24
S'R'
sbsg35
(irule
FeatureMatrix
p5035
(dp5036
g28
(lp5037
(I00
g3101
tp5038
a(I01
g3557
tp5039
asg22
Nsbsg22
Nsba(irule
Rule
p5040
(dp5041
g15
(irule
Guard
p5042
(dp5043
g18
I00
sg19
(lp5044
sg21
I00
sg22
Nsg23
I00
sg24
S'L'
sbsg25
(irule
FeatureMatrix
p5045
(dp5046
g28
(lp5047
(I01
g3090
tp5048
a(I00
g3092
tp5049
asg22
Nsbsg31
(irule
Guard
p5050
(dp5051
g18
I00
sg19
(lp5052
(irule
FeatureMatrix
p5053
(dp5054
g28
(lp5055
(I00
g3351
tp5056
a(I00
g3315
tp5057
a(I01
g3144
tp5058
asg22
Nsbasg21
I00
sg22
Nsg23
I00
sg24
S'R'
sbsg35
(irule
FeatureMatrix
p5059
(dp5060
g28
(lp5061
sg22
Nsbsg22
Nsba(irule
Rule
p5062
(dp5063
g15
(irule
Guard
p5064
(dp5065
g18
I00
sg19
(lp5066
sg21
I00
sg22
Nsg23
I00
sg24
S'L'
sbsg25
(irule
FeatureMatrix
p5067
(dp5068
g28
(lp5069
(I01
g3090
tp5070
a(I00
g3092
tp5071
asg22
Nsbsg31
(irule
Guard
p5072
(dp5073
g18
I00
sg19
(lp5074
(irule
FeatureMatrix
p5075
(dp5076
g28
(lp5077
(I01
g3101
tp5078
asg22
Nsba(irule
FeatureMatrix
p5079
(dp5080
g28
(lp5081
sg22
Nsbasg21
I00
sg22
Nsg23
I00
sg24
S'R'
sbsg35
(irule
FeatureMatrix
p5082
(dp5083
g28
(lp5084
(I01
g3265
tp5085
asg22
Nsbsg22
Nsba(irule
Rule
p5086
(dp5087
g15
(irule
Guard
p5088
(dp5089
g18
I00
sg19
(lp5090
sg21
I00
sg22
Nsg23
I00
sg24
S'L'
sbsg25
(irule
FeatureMatrix
p5091
(dp5092
g28
(lp5093
(I01
g3090
tp5094
a(I00
g3092
tp5095
asg22
Nsbsg31
(irule
Guard
p5096
(dp5097
g18
I00
sg19
(lp5098
(irule
FeatureMatrix
p5099
(dp5100
g28
(lp5101
(I01
g3101
tp5102
asg22
Nsbasg21
I00
sg22
Nsg23
I00
sg24
S'R'
sbsg35
(irule
FeatureMatrix
p5103
(dp5104
g28
(lp5105
(I00
g3090
tp5106
a(I01
g3169
tp5107
asg22
Nsbsg22
Nsba(irule
Rule
p5108
(dp5109
g15
(irule
Guard
p5110
(dp5111
g18
I00
sg19
(lp5112
sg21
I00
sg22
Nsg23
I00
sg24
S'L'
sbsg25
(irule
FeatureMatrix
p5113
(dp5114
g28
(lp5115
(I01
g3090
tp5116
a(I00
g3092
tp5117
asg22
Nsbsg31
(irule
Guard
p5118
(dp5119
g18
I00
sg19
(lp5120
(irule
ConstantPhoneme
p5121
(dp5122
S'p'
V\u014b
sbasg21
I00
sg22
Nsg23
I00
sg24
S'R'
sbsg35
(irule
FeatureMatrix
p5123
(dp5124
g28
(lp5125
(I00
g3090
tp5126
a(I01
g3557
tp5127
asg22
Nsbsg22
Nsba(irule
Rule
p5128
(dp5129
g15
(irule
Guard
p5130
(dp5131
g18
I00
sg19
(lp5132
sg21
I00
sg22
Nsg23
I00
sg24
S'L'
sbsg25
(irule
FeatureMatrix
p5133
(dp5134
g28
(lp5135
(I00
g3351
tp5136
a(I01
g3090
tp5137
a(I00
g3092
tp5138
asg22
Nsbsg31
(irule
Guard
p5139
(dp5140
g18
I00
sg19
(lp5141
(irule
FeatureMatrix
p5142
(dp5143
g28
(lp5144
(I01
g3101
tp5145
asg22
Nsbasg21
I00
sg22
Nsg23
I00
sg24
S'R'
sbsg35
(irule
FeatureMatrix
p5146
(dp5147
g28
(lp5148
(I00
g3351
tp5149
asg22
Nsbsg22
Nsba(irule
Rule
p5150
(dp5151
g15
(irule
Guard
p5152
(dp5153
g18
I00
sg19
(lp5154
(irule
FeatureMatrix
p5155
(dp5156
g28
(lp5157
(I00
g3169
tp5158
asg22
Nsbasg21
I00
sg22
Nsg23
I00
sg24
S'L'
sbsg25
(irule
FeatureMatrix
p5159
(dp5160
g28
(lp5161
(I01
g3090
tp5162
a(I00
g3092
tp5163
asg22
Nsbsg31
(irule
Guard
p5164
(dp5165
g18
I00
sg19
(lp5166
(irule
FeatureMatrix
p5167
(dp5168
g28
(lp5169
(I01
g3101
tp5170
asg22
Nsbasg21
I00
sg22
Nsg23
I00
sg24
S'R'
sbsg35
(irule
FeatureMatrix
p5171
(dp5172
g28
(lp5173
sg22
Nsbsg22
Nsbaa(lp5174
(irule
Rule
p5175
(dp5176
g15
(irule
Guard
p5177
(dp5178
g18
I00
sg19
(lp5179
(irule
FeatureMatrix
p5180
(dp5181
g28
(lp5182
sg22
V[  ]
p5183
sbasg21
I00
sg22
g5183
sg23
I00
sg24
S'L'
sbsg25
(irule
OffsetSpecification
p5184
(dp5185
g718
I-1
sbsg31
(irule
Guard
p5186
(dp5187
g18
I00
sg19
(lp5188
sg21
I00
sg22
V
sg23
I00
sg24
S'R'
sbsg35
(irule
ConstantPhoneme
p5189
(dp5190
S'p'
V\u014b
sbsg22
V\u014b ---> -1 / [  ] _ 
p5191
sba(irule
Rule
p5192
(dp5193
g15
(irule
Guard
p5194
(dp5195
g18
I00
sg19
(lp5196
(irule
FeatureMatrix
p5197
(dp5198
g28
(lp5199
sg22
Nsbasg21
I00
sg22
Nsg23
I00
sg24
S'L'
sbsg25
(irule
OffsetSpecification
p5200
(dp5201
g718
I-1
sbsg31
(irule
Guard
p5202
(dp5203
g18
I00
sg19
(lp5204
sg21
I00
sg22
Nsg23
I00
sg24
S'R'
sbsg35
(irule
FeatureMatrix
p5205
(dp5206
g28
(lp5207
(I01
S'nasal'
p5208
tp5209
a(I00
S'coronal'
p5210
tp5211
asg22
Nsbsg22
Nsba(irule
Rule
p5212
(dp5213
g15
(irule
Guard
p5214
(dp5215
g18
I00
sg19
(lp5216
(irule
FeatureMatrix
p5217
(dp5218
g28
(lp5219
sg22
Nsbasg21
I00
sg22
Nsg23
I00
sg24
S'L'
sbsg25
(irule
OffsetSpecification
p5220
(dp5221
g718
I-1
sbsg31
(irule
Guard
p5222
(dp5223
g18
I00
sg19
(lp5224
sg21
I00
sg22
Nsg23
I00
sg24
S'R'
sbsg35
(irule
FeatureMatrix
p5225
(dp5226
g28
(lp5227
(I00
S'anterior'
p5228
tp5229
a(I01
g5208
tp5230
asg22
Nsbsg22
Nsba(irule
Rule
p5231
(dp5232
g15
(irule
Guard
p5233
(dp5234
g18
I00
sg19
(lp5235
(irule
FeatureMatrix
p5236
(dp5237
g28
(lp5238
(I00
g5208
tp5239
asg22
Nsbasg21
I00
sg22
Nsg23
I00
sg24
S'L'
sbsg25
(irule
OffsetSpecification
p5240
(dp5241
g718
I-1
sbsg31
(irule
Guard
p5242
(dp5243
g18
I00
sg19
(lp5244
sg21
I00
sg22
Nsg23
I00
sg24
S'R'
sbsg35
(irule
ConstantPhoneme
p5245
(dp5246
S'p'
V\u014b
sbsg22
Nsba(irule
Rule
p5247
(dp5248
g15
(irule
Guard
p5249
(dp5250
g18
I00
sg19
(lp5251
(irule
FeatureMatrix
p5252
(dp5253
g28
(lp5254
(I01
S'voice'
p5255
tp5256
asg22
Nsbasg21
I00
sg22
Nsg23
I00
sg24
S'L'
sbsg25
(irule
OffsetSpecification
p5257
(dp5258
g718
I-1
sbsg31
(irule
Guard
p5259
(dp5260
g18
I00
sg19
(lp5261
sg21
I00
sg22
Nsg23
I00
sg24
S'R'
sbsg35
(irule
ConstantPhoneme
p5262
(dp5263
S'p'
V\u014b
sbsg22
Nsba(irule
Rule
p5264
(dp5265
g15
(irule
Guard
p5266
(dp5267
g18
I00
sg19
(lp5268
(irule
FeatureMatrix
p5269
(dp5270
g28
(lp5271
sg22
Nsbasg21
I00
sg22
Nsg23
I00
sg24
S'L'
sbsg25
(irule
OffsetSpecification
p5272
(dp5273
g718
I-1
sbsg31
(irule
Guard
p5274
(dp5275
g18
I00
sg19
(lp5276
sg21
I00
sg22
Nsg23
I00
sg24
S'R'
sbsg35
(irule
FeatureMatrix
p5277
(dp5278
g28
(lp5279
(I01
g5208
tp5280
a(I01
S'high'
p5281
tp5282
asg22
Nsbsg22
Nsba(irule
Rule
p5283
(dp5284
g15
(irule
Guard
p5285
(dp5286
g18
I00
sg19
(lp5287
(irule
FeatureMatrix
p5288
(dp5289
g28
(lp5290
sg22
Nsbasg21
I00
sg22
Nsg23
I00
sg24
S'L'
sbsg25
(irule
OffsetSpecification
p5291
(dp5292
g718
I-1
sbsg31
(irule
Guard
p5293
(dp5294
g18
I00
sg19
(lp5295
(irule
FeatureMatrix
p5296
(dp5297
g28
(lp5298
sg22
Nsbasg21
I00
sg22
Nsg23
I00
sg24
S'R'
sbsg35
(irule
ConstantPhoneme
p5299
(dp5300
S'p'
V\u014b
sbsg22
Nsba(irule
Rule
p5301
(dp5302
g15
(irule
Guard
p5303
(dp5304
g18
I00
sg19
(lp5305
(irule
FeatureMatrix
p5306
(dp5307
g28
(lp5308
sg22
Nsbasg21
I00
sg22
Nsg23
I00
sg24
S'L'
sbsg25
(irule
OffsetSpecification
p5309
(dp5310
g718
I-1
sbsg31
(irule
Guard
p5311
(dp5312
g18
I00
sg19
(lp5313
sg21
I00
sg22
Nsg23
I00
sg24
S'R'
sbsg35
(irule
FeatureMatrix
p5314
(dp5315
g28
(lp5316
(I01
g5208
tp5317
a(I01
S'back'
p5318
tp5319
asg22
Nsbsg22
Nsba(irule
Rule
p5320
(dp5321
g15
(irule
Guard
p5322
(dp5323
g18
I00
sg19
(lp5324
(irule
FeatureMatrix
p5325
(dp5326
g28
(lp5327
(I00
S'sibilant'
p5328
tp5329
asg22
Nsbasg21
I00
sg22
Nsg23
I00
sg24
S'L'
sbsg25
(irule
OffsetSpecification
p5330
(dp5331
g718
I-1
sbsg31
(irule
Guard
p5332
(dp5333
g18
I00
sg19
(lp5334
sg21
I00
sg22
Nsg23
I00
sg24
S'R'
sbsg35
(irule
ConstantPhoneme
p5335
(dp5336
S'p'
V\u014b
sbsg22
Nsba(irule
Rule
p5337
(dp5338
g15
(irule
Guard
p5339
(dp5340
g18
I00
sg19
(lp5341
(irule
FeatureMatrix
p5342
(dp5343
g28
(lp5344
sg22
Nsba(irule
FeatureMatrix
p5345
(dp5346
g28
(lp5347
sg22
Nsbasg21
I00
sg22
Nsg23
I00
sg24
S'L'
sbsg25
(irule
OffsetSpecification
p5348
(dp5349
g718
I-1
sbsg31
(irule
Guard
p5350
(dp5351
g18
I00
sg19
(lp5352
sg21
I00
sg22
Nsg23
I00
sg24
S'R'
sbsg35
(irule
ConstantPhoneme
p5353
(dp5354
S'p'
V\u014b
sbsg22
Nsba(irule
Rule
p5355
(dp5356
g15
(irule
Guard
p5357
(dp5358
g18
I00
sg19
(lp5359
(irule
FeatureMatrix
p5360
(dp5361
g28
(lp5362
(I01
g5281
tp5363
asg22
Nsbasg21
I00
sg22
Nsg23
I00
sg24
S'L'
sbsg25
(irule
OffsetSpecification
p5364
(dp5365
g718
I-1
sbsg31
(irule
Guard
p5366
(dp5367
g18
I00
sg19
(lp5368
sg21
I00
sg22
Nsg23
I00
sg24
S'R'
sbsg35
(irule
ConstantPhoneme
p5369
(dp5370
S'p'
V\u014b
sbsg22
Nsba(irule
Rule
p5371
(dp5372
g15
(irule
Guard
p5373
(dp5374
g18
I00
sg19
(lp5375
(irule
FeatureMatrix
p5376
(dp5377
g28
(lp5378
(I01
S'vowel'
p5379
tp5380
asg22
Nsbasg21
I00
sg22
Nsg23
I00
sg24
S'L'
sbsg25
(irule
OffsetSpecification
p5381
(dp5382
g718
I-1
sbsg31
(irule
Guard
p5383
(dp5384
g18
I00
sg19
(lp5385
sg21
I00
sg22
Nsg23
I00
sg24
S'R'
sbsg35
(irule
ConstantPhoneme
p5386
(dp5387
S'p'
V\u014b
sbsg22
Nsba(irule
Rule
p5388
(dp5389
g15
(irule
Guard
p5390
(dp5391
g18
I00
sg19
(lp5392
(irule
FeatureMatrix
p5393
(dp5394
g28
(lp5395
(I00
S'palletized'
tp5396
asg22
Nsbasg21
I00
sg22
Nsg23
I00
sg24
S'L'
sbsg25
(irule
OffsetSpecification
p5397
(dp5398
g718
I-1
sbsg31
(irule
Guard
p5399
(dp5400
g18
I00
sg19
(lp5401
sg21
I00
sg22
Nsg23
I00
sg24
S'R'
sbsg35
(irule
ConstantPhoneme
p5402
(dp5403
S'p'
V\u014b
sbsg22
Nsba(irule
Rule
p5404
(dp5405
g15
(irule
Guard
p5406
(dp5407
g18
I00
sg19
(lp5408
(irule
FeatureMatrix
p5409
(dp5410
g28
(lp5411
(I01
S'sonorant'
p5412
tp5413
asg22
Nsbasg21
I00
sg22
Nsg23
I00
sg24
S'L'
sbsg25
(irule
OffsetSpecification
p5414
(dp5415
g718
I-1
sbsg31
(irule
Guard
p5416
(dp5417
g18
I00
sg19
(lp5418
sg21
I00
sg22
Nsg23
I00
sg24
S'R'
sbsg35
(irule
ConstantPhoneme
p5419
(dp5420
S'p'
V\u014b
sbsg22
Nsba(irule
Rule
p5421
(dp5422
g15
(irule
Guard
p5423
(dp5424
g18
I00
sg19
(lp5425
(irule
FeatureMatrix
p5426
(dp5427
g28
(lp5428
(I00
S'low'
p5429
tp5430
asg22
Nsbasg21
I00
sg22
Nsg23
I00
sg24
S'L'
sbsg25
(irule
OffsetSpecification
p5431
(dp5432
g718
I-1
sbsg31
(irule
Guard
p5433
(dp5434
g18
I00
sg19
(lp5435
sg21
I00
sg22
Nsg23
I00
sg24
S'R'
sbsg35
(irule
ConstantPhoneme
p5436
(dp5437
S'p'
V\u014b
sbsg22
Nsba(irule
Rule
p5438
(dp5439
g15
(irule
Guard
p5440
(dp5441
g18
I00
sg19
(lp5442
(irule
FeatureMatrix
p5443
(dp5444
g28
(lp5445
(I01
S'tense'
p5446
tp5447
asg22
Nsbasg21
I00
sg22
Nsg23
I00
sg24
S'L'
sbsg25
(irule
OffsetSpecification
p5448
(dp5449
g718
I-1
sbsg31
(irule
Guard
p5450
(dp5451
g18
I00
sg19
(lp5452
sg21
I00
sg22
Nsg23
I00
sg24
S'R'
sbsg35
(irule
ConstantPhoneme
p5453
(dp5454
S'p'
V\u014b
sbsg22
Nsba(irule
Rule
p5455
(dp5456
g15
(irule
Guard
p5457
(dp5458
g18
I00
sg19
(lp5459
(irule
FeatureMatrix
p5460
(dp5461
g28
(lp5462
(I00
g5210
tp5463
asg22
Nsbasg21
I00
sg22
Nsg23
I00
sg24
S'L'
sbsg25
(irule
OffsetSpecification
p5464
(dp5465
g718
I-1
sbsg31
(irule
Guard
p5466
(dp5467
g18
I00
sg19
(lp5468
sg21
I00
sg22
Nsg23
I00
sg24
S'R'
sbsg35
(irule
ConstantPhoneme
p5469
(dp5470
S'p'
V\u014b
sbsg22
Nsba(irule
Rule
p5471
(dp5472
g15
(irule
Guard
p5473
(dp5474
g18
I00
sg19
(lp5475
(irule
FeatureMatrix
p5476
(dp5477
g28
(lp5478
(I00
S'lateral'
p5479
tp5480
asg22
Nsbasg21
I00
sg22
Nsg23
I00
sg24
S'L'
sbsg25
(irule
OffsetSpecification
p5481
(dp5482
g718
I-1
sbsg31
(irule
Guard
p5483
(dp5484
g18
I00
sg19
(lp5485
sg21
I00
sg22
Nsg23
I00
sg24
S'R'
sbsg35
(irule
ConstantPhoneme
p5486
(dp5487
S'p'
V\u014b
sbsg22
Nsba(irule
Rule
p5488
(dp5489
g15
(irule
Guard
p5490
(dp5491
g18
I00
sg19
(lp5492
(irule
FeatureMatrix
p5493
(dp5494
g28
(lp5495
(I00
S'liquid'
p5496
tp5497
asg22
Nsbasg21
I00
sg22
Nsg23
I00
sg24
S'L'
sbsg25
(irule
OffsetSpecification
p5498
(dp5499
g718
I-1
sbsg31
(irule
Guard
p5500
(dp5501
g18
I00
sg19
(lp5502
sg21
I00
sg22
Nsg23
I00
sg24
S'R'
sbsg35
(irule
ConstantPhoneme
p5503
(dp5504
S'p'
V\u014b
sbsg22
Nsba(irule
Rule
p5505
(dp5506
g15
(irule
Guard
p5507
(dp5508
g18
I00
sg19
(lp5509
(irule
FeatureMatrix
p5510
(dp5511
g28
(lp5512
(I00
S'glide'
p5513
tp5514
asg22
Nsbasg21
I00
sg22
Nsg23
I00
sg24
S'L'
sbsg25
(irule
OffsetSpecification
p5515
(dp5516
g718
I-1
sbsg31
(irule
Guard
p5517
(dp5518
g18
I00
sg19
(lp5519
sg21
I00
sg22
Nsg23
I00
sg24
S'R'
sbsg35
(irule
ConstantPhoneme
p5520
(dp5521
S'p'
V\u014b
sbsg22
Nsba(irule
Rule
p5522
(dp5523
g15
(irule
Guard
p5524
(dp5525
g18
I00
sg19
(lp5526
(irule
FeatureMatrix
p5527
(dp5528
g28
(lp5529
(I01
S'continuant'
p5530
tp5531
asg22
Nsbasg21
I00
sg22
Nsg23
I00
sg24
S'L'
sbsg25
(irule
OffsetSpecification
p5532
(dp5533
g718
I-1
sbsg31
(irule
Guard
p5534
(dp5535
g18
I00
sg19
(lp5536
sg21
I00
sg22
Nsg23
I00
sg24
S'R'
sbsg35
(irule
ConstantPhoneme
p5537
(dp5538
S'p'
V\u014b
sbsg22
Nsba(irule
Rule
p5539
(dp5540
g15
(irule
Guard
p5541
(dp5542
g18
I00
sg19
(lp5543
(irule
FeatureMatrix
p5544
(dp5545
g28
(lp5546
(I00
g5228
tp5547
asg22
Nsbasg21
I00
sg22
Nsg23
I00
sg24
S'L'
sbsg25
(irule
OffsetSpecification
p5548
(dp5549
g718
I-1
sbsg31
(irule
Guard
p5550
(dp5551
g18
I00
sg19
(lp5552
sg21
I00
sg22
Nsg23
I00
sg24
S'R'
sbsg35
(irule
ConstantPhoneme
p5553
(dp5554
S'p'
V\u014b
sbsg22
Nsba(irule
Rule
p5555
(dp5556
g15
(irule
Guard
p5557
(dp5558
g18
I00
sg19
(lp5559
(irule
FeatureMatrix
p5560
(dp5561
g28
(lp5562
sg22
Nsbasg21
I00
sg22
Nsg23
I00
sg24
S'L'
sbsg25
(irule
OffsetSpecification
p5563
(dp5564
g718
I-1
sbsg31
(irule
Guard
p5565
(dp5566
g18
I00
sg19
(lp5567
sg21
I00
sg22
Nsg23
I00
sg24
S'R'
sbsg35
(irule
FeatureMatrix
p5568
(dp5569
g28
(lp5570
(I01
g5318
tp5571
a(I01
g5412
tp5572
a(I00
g5446
tp5573
asg22
Nsbsg22
Nsba(irule
Rule
p5574
(dp5575
g15
(irule
Guard
p5576
(dp5577
g18
I00
sg19
(lp5578
(irule
FeatureMatrix
p5579
(dp5580
g28
(lp5581
sg22
Nsba(irule
ConstantPhoneme
p5582
(dp5583
S'p'
Vl
sbasg21
I00
sg22
Nsg23
I00
sg24
S'L'
sbsg25
(irule
OffsetSpecification
p5584
(dp5585
g718
I-1
sbsg31
(irule
Guard
p5586
(dp5587
g18
I00
sg19
(lp5588
sg21
I00
sg22
Nsg23
I00
sg24
S'R'
sbsg35
(irule
ConstantPhoneme
p5589
(dp5590
S'p'
V\u014b
sbsg22
Nsba(irule
Rule
p5591
(dp5592
g15
(irule
Guard
p5593
(dp5594
g18
I00
sg19
(lp5595
(irule
FeatureMatrix
p5596
(dp5597
g28
(lp5598
sg22
Nsbasg21
I00
sg22
Nsg23
I00
sg24
S'L'
sbsg25
(irule
OffsetSpecification
p5599
(dp5600
g718
I-1
sbsg31
(irule
Guard
p5601
(dp5602
g18
I00
sg19
(lp5603
sg21
I00
sg22
Nsg23
I00
sg24
S'R'
sbsg35
(irule
FeatureMatrix
p5604
(dp5605
g28
(lp5606
(I01
g5412
tp5607
a(I01
g5281
tp5608
a(I00
g5379
tp5609
asg22
Nsbsg22
Nsba(irule
Rule
p5610
(dp5611
g15
(irule
Guard
p5612
(dp5613
g18
I00
sg19
(lp5614
(irule
FeatureMatrix
p5615
(dp5616
g28
(lp5617
sg22
Nsbasg21
I00
sg22
Nsg23
I00
sg24
S'L'
sbsg25
(irule
OffsetSpecification
p5618
(dp5619
g718
I-1
sbsg31
(irule
Guard
p5620
(dp5621
g18
I00
sg19
(lp5622
sg21
I00
sg22
Nsg23
I00
sg24
S'R'
sbsg35
(irule
FeatureMatrix
p5623
(dp5624
g28
(lp5625
(I00
g5228
tp5626
a(I00
g5496
tp5627
a(I01
g5208
tp5628
asg22
Nsbsg22
Nsba(irule
Rule
p5629
(dp5630
g15
(irule
Guard
p5631
(dp5632
g18
I00
sg19
(lp5633
(irule
FeatureMatrix
p5634
(dp5635
g28
(lp5636
(I01
g5281
tp5637
asg22
Nsba(irule
ConstantPhoneme
p5638
(dp5639
S'p'
Vl
sbasg21
I00
sg22
Nsg23
I00
sg24
S'L'
sbsg25
(irule
OffsetSpecification
p5640
(dp5641
g718
I-1
sbsg31
(irule
Guard
p5642
(dp5643
g18
I00
sg19
(lp5644
sg21
I00
sg22
Nsg23
I00
sg24
S'R'
sbsg35
(irule
FeatureMatrix
p5645
(dp5646
g28
(lp5647
sg22
Nsbsg22
Nsba(irule
Rule
p5648
(dp5649
g15
(irule
Guard
p5650
(dp5651
g18
I00
sg19
(lp5652
(irule
FeatureMatrix
p5653
(dp5654
g28
(lp5655
(I01
g5379
tp5656
asg22
Nsbasg21
I00
sg22
Nsg23
I00
sg24
S'L'
sbsg25
(irule
OffsetSpecification
p5657
(dp5658
g718
I-1
sbsg31
(irule
Guard
p5659
(dp5660
g18
I00
sg19
(lp5661
sg21
I00
sg22
Nsg23
I00
sg24
S'R'
sbsg35
(irule
FeatureMatrix
p5662
(dp5663
g28
(lp5664
(I01
g5412
tp5665
a(I01
g5281
tp5666
asg22
Nsbsg22
Nsba(irule
Rule
p5667
(dp5668
g15
(irule
Guard
p5669
(dp5670
g18
I00
sg19
(lp5671
(irule
FeatureMatrix
p5672
(dp5673
g28
(lp5674
(I01
g5446
tp5675
asg22
Nsbasg21
I00
sg22
Nsg23
I00
sg24
S'L'
sbsg25
(irule
OffsetSpecification
p5676
(dp5677
g718
I-1
sbsg31
(irule
Guard
p5678
(dp5679
g18
I00
sg19
(lp5680
sg21
I00
sg22
Nsg23
I00
sg24
S'R'
sbsg35
(irule
FeatureMatrix
p5681
(dp5682
g28
(lp5683
(I01
g5412
tp5684
a(I01
g5281
tp5685
asg22
Nsbsg22
Nsba(irule
Rule
p5686
(dp5687
g15
(irule
Guard
p5688
(dp5689
g18
I00
sg19
(lp5690
(irule
FeatureMatrix
p5691
(dp5692
g28
(lp5693
sg22
Nsbasg21
I00
sg22
Nsg23
I00
sg24
S'L'
sbsg25
(irule
OffsetSpecification
p5694
(dp5695
g718
I-1
sbsg31
(irule
Guard
p5696
(dp5697
g18
I01
sg19
(lp5698
(irule
ConstantPhoneme
p5699
(dp5700
S'p'
Vn
sbasg21
I00
sg22
Nsg23
I00
sg24
S'R'
sbsg35
(irule
FeatureMatrix
p5701
(dp5702
g28
(lp5703
sg22
Nsbsg22
Nsba(irule
Rule
p5704
(dp5705
g15
(irule
Guard
p5706
(dp5707
g18
I00
sg19
(lp5708
(irule
FeatureMatrix
p5709
(dp5710
g28
(lp5711
sg22
Nsbasg21
I00
sg22
Nsg23
I00
sg24
S'L'
sbsg25
(irule
OffsetSpecification
p5712
(dp5713
g718
I-1
sbsg31
(irule
Guard
p5714
(dp5715
g18
I00
sg19
(lp5716
sg21
I00
sg22
Nsg23
I00
sg24
S'R'
sbsg35
(irule
FeatureMatrix
p5717
(dp5718
g28
(lp5719
(I01
g5412
tp5720
a(I01
g5281
tp5721
a(I00
g5446
tp5722
asg22
Nsbsg22
Nsba(irule
Rule
p5723
(dp5724
g15
(irule
Guard
p5725
(dp5726
g18
I00
sg19
(lp5727
(irule
FeatureMatrix
p5728
(dp5729
g28
(lp5730
sg22
Nsba(irule
FeatureMatrix
p5731
(dp5732
g28
(lp5733
sg22
Nsbasg21
I00
sg22
Nsg23
I00
sg24
S'L'
sbsg25
(irule
OffsetSpecification
p5734
(dp5735
g718
I-1
sbsg31
(irule
Guard
p5736
(dp5737
g18
I00
sg19
(lp5738
(irule
FeatureMatrix
p5739
(dp5740
g28
(lp5741
sg22
Nsbasg21
I00
sg22
Nsg23
I00
sg24
S'R'
sbsg35
(irule
ConstantPhoneme
p5742
(dp5743
S'p'
V\u014b
sbsg22
Nsba(irule
Rule
p5744
(dp5745
g15
(irule
Guard
p5746
(dp5747
g18
I00
sg19
(lp5748
(irule
FeatureMatrix
p5749
(dp5750
g28
(lp5751
sg22
Nsbasg21
I00
sg22
Nsg23
I00
sg24
S'L'
sbsg25
(irule
OffsetSpecification
p5752
(dp5753
g718
I-1
sbsg31
(irule
Guard
p5754
(dp5755
g18
I00
sg19
(lp5756
(irule
FeatureMatrix
p5757
(dp5758
g28
(lp5759
sg22
Nsbasg21
I00
sg22
Nsg23
I00
sg24
S'R'
sbsg35
(irule
FeatureMatrix
p5760
(dp5761
g28
(lp5762
(I01
g5208
tp5763
a(I01
g5281
tp5764
asg22
Nsbsg22
Nsba(irule
Rule
p5765
(dp5766
g15
(irule
Guard
p5767
(dp5768
g18
I00
sg19
(lp5769
(irule
FeatureMatrix
p5770
(dp5771
g28
(lp5772
sg22
Nsbasg21
I00
sg22
Nsg23
I00
sg24
S'L'
sbsg25
(irule
OffsetSpecification
p5773
(dp5774
g718
I-1
sbsg31
(irule
Guard
p5775
(dp5776
g18
I00
sg19
(lp5777
(irule
FeatureMatrix
p5778
(dp5779
g28
(lp5780
sg22
Nsbasg21
I00
sg22
Nsg23
I00
sg24
S'R'
sbsg35
(irule
FeatureMatrix
p5781
(dp5782
g28
(lp5783
(I01
g5208
tp5784
a(I00
g5210
tp5785
asg22
Nsbsg22
Nsba(irule
Rule
p5786
(dp5787
g15
(irule
Guard
p5788
(dp5789
g18
I00
sg19
(lp5790
(irule
FeatureMatrix
p5791
(dp5792
g28
(lp5793
(I01
g5412
tp5794
asg22
Nsbasg21
I00
sg22
Nsg23
I00
sg24
S'L'
sbsg25
(irule
OffsetSpecification
p5795
(dp5796
g718
I-1
sbsg31
(irule
Guard
p5797
(dp5798
g18
I00
sg19
(lp5799
(irule
FeatureMatrix
p5800
(dp5801
g28
(lp5802
sg22
Nsbasg21
I00
sg22
Nsg23
I00
sg24
S'R'
sbsg35
(irule
ConstantPhoneme
p5803
(dp5804
S'p'
V\u014b
sbsg22
Nsba(irule
Rule
p5805
(dp5806
g15
(irule
Guard
p5807
(dp5808
g18
I00
sg19
(lp5809
(irule
FeatureMatrix
p5810
(dp5811
g28
(lp5812
sg22
Nsba(irule
FeatureMatrix
p5813
(dp5814
g28
(lp5815
sg22
Nsbasg21
I00
sg22
Nsg23
I00
sg24
S'L'
sbsg25
(irule
OffsetSpecification
p5816
(dp5817
g718
I-1
sbsg31
(irule
Guard
p5818
(dp5819
g18
I00
sg19
(lp5820
sg21
I00
sg22
Nsg23
I00
sg24
S'R'
sbsg35
(irule
FeatureMatrix
p5821
(dp5822
g28
(lp5823
(I00
g5228
tp5824
a(I01
g5208
tp5825
asg22
Nsbsg22
Nsba(irule
Rule
p5826
(dp5827
g15
(irule
Guard
p5828
(dp5829
g18
I00
sg19
(lp5830
(irule
FeatureMatrix
p5831
(dp5832
g28
(lp5833
sg22
Nsbasg21
I00
sg22
Nsg23
I00
sg24
S'L'
sbsg25
(irule
OffsetSpecification
p5834
(dp5835
g718
I-1
sbsg31
(irule
Guard
p5836
(dp5837
g18
I00
sg19
(lp5838
(irule
FeatureMatrix
p5839
(dp5840
g28
(lp5841
sg22
Nsbasg21
I00
sg22
Nsg23
I00
sg24
S'R'
sbsg35
(irule
FeatureMatrix
p5842
(dp5843
g28
(lp5844
(I01
g5208
tp5845
a(I01
g5318
tp5846
asg22
Nsbsg22
Nsba(irule
Rule
p5847
(dp5848
g15
(irule
Guard
p5849
(dp5850
g18
I00
sg19
(lp5851
(irule
FeatureMatrix
p5852
(dp5853
g28
(lp5854
sg22
Nsbasg21
I00
sg22
Nsg23
I00
sg24
S'L'
sbsg25
(irule
OffsetSpecification
p5855
(dp5856
g718
I-1
sbsg31
(irule
Guard
p5857
(dp5858
g18
I00
sg19
(lp5859
(irule
ConstantPhoneme
p5860
(dp5861
S'p'
Vn
sbasg21
I00
sg22
Nsg23
I00
sg24
S'R'
sbsg35
(irule
FeatureMatrix
p5862
(dp5863
g28
(lp5864
(I01
g5318
tp5865
asg22
Nsbsg22
Nsba(irule
Rule
p5866
(dp5867
g15
(irule
Guard
p5868
(dp5869
g18
I00
sg19
(lp5870
(irule
FeatureMatrix
p5871
(dp5872
g28
(lp5873
sg22
Nsba(irule
FeatureMatrix
p5874
(dp5875
g28
(lp5876
sg22
Nsbasg21
I00
sg22
Nsg23
I00
sg24
S'L'
sbsg25
(irule
OffsetSpecification
p5877
(dp5878
g718
I-1
sbsg31
(irule
Guard
p5879
(dp5880
g18
I00
sg19
(lp5881
sg21
I00
sg22
Nsg23
I00
sg24
S'R'
sbsg35
(irule
FeatureMatrix
p5882
(dp5883
g28
(lp5884
(I01
g5208
tp5885
a(I00
g5210
tp5886
asg22
Nsbsg22
Nsba(irule
Rule
p5887
(dp5888
g15
(irule
Guard
p5889
(dp5890
g18
I00
sg19
(lp5891
(irule
FeatureMatrix
p5892
(dp5893
g28
(lp5894
sg22
Nsbasg21
I00
sg22
Nsg23
I00
sg24
S'L'
sbsg25
(irule
OffsetSpecification
p5895
(dp5896
g718
I-1
sbsg31
(irule
Guard
p5897
(dp5898
g18
I01
sg19
(lp5899
(irule
FeatureMatrix
p5900
(dp5901
g28
(lp5902
(I01
g5228
tp5903
asg22
Nsbasg21
I00
sg22
Nsg23
I00
sg24
S'R'
sbsg35
(irule
FeatureMatrix
p5904
(dp5905
g28
(lp5906
sg22
Nsbsg22
Nsba(irule
Rule
p5907
(dp5908
g15
(irule
Guard
p5909
(dp5910
g18
I00
sg19
(lp5911
(irule
FeatureMatrix
p5912
(dp5913
g28
(lp5914
sg22
Nsbasg21
I00
sg22
Nsg23
I00
sg24
S'L'
sbsg25
(irule
OffsetSpecification
p5915
(dp5916
g718
I-1
sbsg31
(irule
Guard
p5917
(dp5918
g18
I00
sg19
(lp5919
sg21
I00
sg22
Nsg23
I00
sg24
S'R'
sbsg35
(irule
FeatureMatrix
p5920
(dp5921
g28
(lp5922
(I01
g5412
tp5923
a(I00
g5210
tp5924
a(I00
g5446
tp5925
asg22
Nsbsg22
Nsba(irule
Rule
p5926
(dp5927
g15
(irule
Guard
p5928
(dp5929
g18
I00
sg19
(lp5930
(irule
FeatureMatrix
p5931
(dp5932
g28
(lp5933
(I01
g5281
tp5934
asg22
Nsba(irule
FeatureMatrix
p5935
(dp5936
g28
(lp5937
(I01
g5496
tp5938
asg22
Nsbasg21
I00
sg22
Nsg23
I00
sg24
S'L'
sbsg25
(irule
OffsetSpecification
p5939
(dp5940
g718
I-1
sbsg31
(irule
Guard
p5941
(dp5942
g18
I00
sg19
(lp5943
sg21
I00
sg22
Nsg23
I00
sg24
S'R'
sbsg35
(irule
FeatureMatrix
p5944
(dp5945
g28
(lp5946
sg22
Nsbsg22
Nsba(irule
Rule
p5947
(dp5948
g15
(irule
Guard
p5949
(dp5950
g18
I00
sg19
(lp5951
(irule
FeatureMatrix
p5952
(dp5953
g28
(lp5954
(I01
g5281
tp5955
asg22
Nsba(irule
FeatureMatrix
p5956
(dp5957
g28
(lp5958
(I01
g5479
tp5959
asg22
Nsbasg21
I00
sg22
Nsg23
I00
sg24
S'L'
sbsg25
(irule
OffsetSpecification
p5960
(dp5961
g718
I-1
sbsg31
(irule
Guard
p5962
(dp5963
g18
I00
sg19
(lp5964
sg21
I00
sg22
Nsg23
I00
sg24
S'R'
sbsg35
(irule
FeatureMatrix
p5965
(dp5966
g28
(lp5967
sg22
Nsbsg22
Nsba(irule
Rule
p5968
(dp5969
g15
(irule
Guard
p5970
(dp5971
g18
I00
sg19
(lp5972
(irule
FeatureMatrix
p5973
(dp5974
g28
(lp5975
(I00
g5429
tp5976
asg22
Nsba(irule
FeatureMatrix
p5977
(dp5978
g28
(lp5979
sg22
Nsbasg21
I00
sg22
Nsg23
I00
sg24
S'L'
sbsg25
(irule
OffsetSpecification
p5980
(dp5981
g718
I-1
sbsg31
(irule
Guard
p5982
(dp5983
g18
I00
sg19
(lp5984
sg21
I00
sg22
Nsg23
I00
sg24
S'R'
sbsg35
(irule
ConstantPhoneme
p5985
(dp5986
S'p'
V\u014b
sbsg22
Nsba(irule
Rule
p5987
(dp5988
g15
(irule
Guard
p5989
(dp5990
g18
I00
sg19
(lp5991
(irule
FeatureMatrix
p5992
(dp5993
g28
(lp5994
(I01
g5446
tp5995
asg22
Nsbasg21
I00
sg22
Nsg23
I00
sg24
S'L'
sbsg25
(irule
OffsetSpecification
p5996
(dp5997
g718
I-1
sbsg31
(irule
Guard
p5998
(dp5999
g18
I00
sg19
(lp6000
(irule
FeatureMatrix
p6001
(dp6002
g28
(lp6003
(I01
g5208
tp6004
asg22
Nsbasg21
I00
sg22
Nsg23
I00
sg24
S'R'
sbsg35
(irule
FeatureMatrix
p6005
(dp6006
g28
(lp6007
sg22
Nsbsg22
Nsba(irule
Rule
p6008
(dp6009
g15
(irule
Guard
p6010
(dp6011
g18
I00
sg19
(lp6012
(irule
FeatureMatrix
p6013
(dp6014
g28
(lp6015
(I00
g5429
tp6016
asg22
Nsbasg21
I00
sg22
Nsg23
I00
sg24
S'L'
sbsg25
(irule
OffsetSpecification
p6017
(dp6018
g718
I-1
sbsg31
(irule
Guard
p6019
(dp6020
g18
I00
sg19
(lp6021
sg21
I00
sg22
Nsg23
I00
sg24
S'R'
sbsg35
(irule
FeatureMatrix
p6022
(dp6023
g28
(lp6024
(I00
g5228
tp6025
a(I01
g5208
tp6026
asg22
Nsbsg22
Nsba(irule
Rule
p6027
(dp6028
g15
(irule
Guard
p6029
(dp6030
g18
I00
sg19
(lp6031
(irule
FeatureMatrix
p6032
(dp6033
g28
(lp6034
sg22
Nsbasg21
I01
sg22
Nsg23
I00
sg24
S'L'
sbsg25
(irule
OffsetSpecification
p6035
(dp6036
g718
I-1
sbsg31
(irule
Guard
p6037
(dp6038
g18
I00
sg19
(lp6039
sg21
I00
sg22
Nsg23
I00
sg24
S'R'
sbsg35
(irule
ConstantPhoneme
p6040
(dp6041
S'p'
V\u014b
sbsg22
Nsba(irule
Rule
p6042
(dp6043
g15
(irule
Guard
p6044
(dp6045
g18
I00
sg19
(lp6046
(irule
FeatureMatrix
p6047
(dp6048
g28
(lp6049
sg22
Nsbasg21
I00
sg22
Nsg23
I00
sg24
S'L'
sbsg25
(irule
OffsetSpecification
p6050
(dp6051
g718
I-1
sbsg31
(irule
Guard
p6052
(dp6053
g18
I00
sg19
(lp6054
(irule
FeatureMatrix
p6055
(dp6056
g28
(lp6057
sg22
Nsbasg21
I00
sg22
Nsg23
I00
sg24
S'R'
sbsg35
(irule
FeatureMatrix
p6058
(dp6059
g28
(lp6060
(I00
g5228
tp6061
a(I01
g5208
tp6062
asg22
Nsbsg22
Nsba(irule
Rule
p6063
(dp6064
g15
(irule
Guard
p6065
(dp6066
g18
I00
sg19
(lp6067
(irule
FeatureMatrix
p6068
(dp6069
g28
(lp6070
sg22
Nsbasg21
I00
sg22
Nsg23
I00
sg24
S'L'
sbsg25
(irule
OffsetSpecification
p6071
(dp6072
g718
I-1
sbsg31
(irule
Guard
p6073
(dp6074
g18
I00
sg19
(lp6075
(irule
ConstantPhoneme
p6076
(dp6077
S'p'
Vn
sbasg21
I00
sg22
Nsg23
I00
sg24
S'R'
sbsg35
(irule
FeatureMatrix
p6078
(dp6079
g28
(lp6080
(I01
g5208
tp6081
asg22
Nsbsg22
Nsba(irule
Rule
p6082
(dp6083
g15
(irule
Guard
p6084
(dp6085
g18
I00
sg19
(lp6086
(irule
FeatureMatrix
p6087
(dp6088
g28
(lp6089
sg22
Nsbasg21
I00
sg22
Nsg23
I00
sg24
S'L'
sbsg25
(irule
OffsetSpecification
p6090
(dp6091
g718
I-1
sbsg31
(irule
Guard
p6092
(dp6093
g18
I00
sg19
(lp6094
(irule
FeatureMatrix
p6095
(dp6096
g28
(lp6097
(I01
g5208
tp6098
asg22
Nsbasg21
I00
sg22
Nsg23
I00
sg24
S'R'
sbsg35
(irule
FeatureMatrix
p6099
(dp6100
g28
(lp6101
(I00
g5379
tp6102
asg22
Nsbsg22
Nsba(irule
Rule
p6103
(dp6104
g15
(irule
Guard
p6105
(dp6106
g18
I00
sg19
(lp6107
(irule
FeatureMatrix
p6108
(dp6109
g28
(lp6110
sg22
Nsbasg21
I00
sg22
Nsg23
I00
sg24
S'L'
sbsg25
(irule
OffsetSpecification
p6111
(dp6112
g718
I-1
sbsg31
(irule
Guard
p6113
(dp6114
g18
I00
sg19
(lp6115
sg21
I00
sg22
Nsg23
I00
sg24
S'R'
sbsg35
(irule
FeatureMatrix
p6116
(dp6117
g28
(lp6118
(I00
g5228
tp6119
a(I00
S'rounded'
tp6120
a(I01
g5208
tp6121
asg22
Nsbsg22
Nsba(irule
Rule
p6122
(dp6123
g15
(irule
Guard
p6124
(dp6125
g18
I00
sg19
(lp6126
(irule
FeatureMatrix
p6127
(dp6128
g28
(lp6129
(I01
g5379
tp6130
asg22
Nsbasg21
I00
sg22
Nsg23
I00
sg24
S'L'
sbsg25
(irule
OffsetSpecification
p6131
(dp6132
g718
I-1
sbsg31
(irule
Guard
p6133
(dp6134
g18
I00
sg19
(lp6135
(irule
FeatureMatrix
p6136
(dp6137
g28
(lp6138
(I01
g5208
tp6139
asg22
Nsbasg21
I00
sg22
Nsg23
I00
sg24
S'R'
sbsg35
(irule
FeatureMatrix
p6140
(dp6141
g28
(lp6142
sg22
Nsbsg22
Nsba(irule
Rule
p6143
(dp6144
g15
(irule
Guard
p6145
(dp6146
g18
I00
sg19
(lp6147
(irule
FeatureMatrix
p6148
(dp6149
g28
(lp6150
sg22
Nsba(irule
ConstantPhoneme
p6151
(dp6152
S'p'
Vl
sbasg21
I00
sg22
Nsg23
I00
sg24
S'L'
sbsg25
(irule
OffsetSpecification
p6153
(dp6154
g718
I-1
sbsg31
(irule
Guard
p6155
(dp6156
g18
I00
sg19
(lp6157
sg21
I00
sg22
Nsg23
I00
sg24
S'R'
sbsg35
(irule
FeatureMatrix
p6158
(dp6159
g28
(lp6160
(I00
g5530
tp6161
asg22
Nsbsg22
Nsba(irule
Rule
p6162
(dp6163
g15
(irule
Guard
p6164
(dp6165
g18
I00
sg19
(lp6166
(irule
FeatureMatrix
p6167
(dp6168
g28
(lp6169
(I00
g5328
tp6170
asg22
Nsbasg21
I00
sg22
Nsg23
I00
sg24
S'L'
sbsg25
(irule
OffsetSpecification
p6171
(dp6172
g718
I-1
sbsg31
(irule
Guard
p6173
(dp6174
g18
I00
sg19
(lp6175
sg21
I00
sg22
Nsg23
I00
sg24
S'R'
sbsg35
(irule
FeatureMatrix
p6176
(dp6177
g28
(lp6178
(I01
g5208
tp6179
a(I00
g5210
tp6180
asg22
Nsbsg22
Nsba(irule
Rule
p6181
(dp6182
g15
(irule
Guard
p6183
(dp6184
g18
I00
sg19
(lp6185
(irule
FeatureMatrix
p6186
(dp6187
g28
(lp6188
sg22
Nsba(irule
FeatureMatrix
p6189
(dp6190
g28
(lp6191
sg22
Nsbasg21
I00
sg22
Nsg23
I00
sg24
S'L'
sbsg25
(irule
OffsetSpecification
p6192
(dp6193
g718
I-1
sbsg31
(irule
Guard
p6194
(dp6195
g18
I00
sg19
(lp6196
(irule
ConstantPhoneme
p6197
(dp6198
S'p'
Vn
sbasg21
I00
sg22
Nsg23
I00
sg24
S'R'
sbsg35
(irule
FeatureMatrix
p6199
(dp6200
g28
(lp6201
sg22
Nsbsg22
Nsba(irule
Rule
p6202
(dp6203
g15
(irule
Guard
p6204
(dp6205
g18
I00
sg19
(lp6206
(irule
FeatureMatrix
p6207
(dp6208
g28
(lp6209
sg22
Nsbasg21
I00
sg22
Nsg23
I00
sg24
S'L'
sbsg25
(irule
OffsetSpecification
p6210
(dp6211
g718
I-1
sbsg31
(irule
Guard
p6212
(dp6213
g18
I00
sg19
(lp6214
sg21
I00
sg22
Nsg23
I00
sg24
S'R'
sbsg35
(irule
FeatureMatrix
p6215
(dp6216
g28
(lp6217
(I00
g5228
tp6218
a(I00
g5530
tp6219
a(I01
g5412
tp6220
asg22
Nsbsg22
Nsba(irule
Rule
p6221
(dp6222
g15
(irule
Guard
p6223
(dp6224
g18
I00
sg19
(lp6225
(irule
FeatureMatrix
p6226
(dp6227
g28
(lp6228
sg22
Nsbasg21
I00
sg22
Nsg23
I00
sg24
S'L'
sbsg25
(irule
OffsetSpecification
p6229
(dp6230
g718
I-1
sbsg31
(irule
Guard
p6231
(dp6232
g18
I00
sg19
(lp6233
sg21
I00
sg22
Nsg23
I00
sg24
S'R'
sbsg35
(irule
FeatureMatrix
p6234
(dp6235
g28
(lp6236
(I01
g5412
tp6237
a(I00
g5210
tp6238
a(I00
g5379
tp6239
asg22
Nsbsg22
Nsba(irule
Rule
p6240
(dp6241
g15
(irule
Guard
p6242
(dp6243
g18
I00
sg19
(lp6244
(irule
FeatureMatrix
p6245
(dp6246
g28
(lp6247
(I00
g5208
tp6248
asg22
Nsbasg21
I00
sg22
Nsg23
I00
sg24
S'L'
sbsg25
(irule
OffsetSpecification
p6249
(dp6250
g718
I-1
sbsg31
(irule
Guard
p6251
(dp6252
g18
I00
sg19
(lp6253
(irule
FeatureMatrix
p6254
(dp6255
g28
(lp6256
sg22
Nsbasg21
I00
sg22
Nsg23
I00
sg24
S'R'
sbsg35
(irule
ConstantPhoneme
p6257
(dp6258
S'p'
V\u014b
sbsg22
Nsba(irule
Rule
p6259
(dp6260
g15
(irule
Guard
p6261
(dp6262
g18
I00
sg19
(lp6263
(irule
FeatureMatrix
p6264
(dp6265
g28
(lp6266
(I01
g5255
tp6267
asg22
Nsbasg21
I00
sg22
Nsg23
I00
sg24
S'L'
sbsg25
(irule
OffsetSpecification
p6268
(dp6269
g718
I-1
sbsg31
(irule
Guard
p6270
(dp6271
g18
I00
sg19
(lp6272
sg21
I00
sg22
Nsg23
I00
sg24
S'R'
sbsg35
(irule
FeatureMatrix
p6273
(dp6274
g28
(lp6275
(I00
g5228
tp6276
a(I01
g5208
tp6277
asg22
Nsbsg22
Nsba(irule
Rule
p6278
(dp6279
g15
(irule
Guard
p6280
(dp6281
g18
I00
sg19
(lp6282
(irule
FeatureMatrix
p6283
(dp6284
g28
(lp6285
(I01
g5412
tp6286
a(I00
g5328
tp6287
asg22
Nsbasg21
I00
sg22
Nsg23
I00
sg24
S'L'
sbsg25
(irule
OffsetSpecification
p6288
(dp6289
g718
I-1
sbsg31
(irule
Guard
p6290
(dp6291
g18
I00
sg19
(lp6292
sg21
I00
sg22
Nsg23
I00
sg24
S'R'
sbsg35
(irule
ConstantPhoneme
p6293
(dp6294
S'p'
V\u014b
sbsg22
Nsba(irule
Rule
p6295
(dp6296
g15
(irule
Guard
p6297
(dp6298
g18
I00
sg19
(lp6299
(irule
FeatureMatrix
p6300
(dp6301
g28
(lp6302
sg22
Nsba(irule
ConstantPhoneme
p6303
(dp6304
S'p'
Vl
sbasg21
I00
sg22
Nsg23
I00
sg24
S'L'
sbsg25
(irule
OffsetSpecification
p6305
(dp6306
g718
I-1
sbsg31
(irule
Guard
p6307
(dp6308
g18
I00
sg19
(lp6309
sg21
I00
sg22
Nsg23
I00
sg24
S'R'
sbsg35
(irule
FeatureMatrix
p6310
(dp6311
g28
(lp6312
(I01
g5208
tp6313
asg22
Nsbsg22
Nsba(irule
Rule
p6314
(dp6315
g15
(irule
Guard
p6316
(dp6317
g18
I00
sg19
(lp6318
(irule
FeatureMatrix
p6319
(dp6320
g28
(lp6321
sg22
Nsbasg21
I00
sg22
Nsg23
I00
sg24
S'L'
sbsg25
(irule
OffsetSpecification
p6322
(dp6323
g718
I-1
sbsg31
(irule
Guard
p6324
(dp6325
g18
I00
sg19
(lp6326
sg21
I00
sg22
Nsg23
I00
sg24
S'R'
sbsg35
(irule
FeatureMatrix
p6327
(dp6328
g28
(lp6329
(I00
g5530
tp6330
a(I01
g5412
tp6331
a(I00
g5210
tp6332
asg22
Nsbsg22
Nsba(irule
Rule
p6333
(dp6334
g15
(irule
Guard
p6335
(dp6336
g18
I00
sg19
(lp6337
(irule
FeatureMatrix
p6338
(dp6339
g28
(lp6340
sg22
Nsba(irule
FeatureMatrix
p6341
(dp6342
g28
(lp6343
(I01
g5210
tp6344
asg22
Nsbasg21
I00
sg22
Nsg23
I00
sg24
S'L'
sbsg25
(irule
OffsetSpecification
p6345
(dp6346
g718
I-1
sbsg31
(irule
Guard
p6347
(dp6348
g18
I00
sg19
(lp6349
sg21
I00
sg22
Nsg23
I00
sg24
S'R'
sbsg35
(irule
FeatureMatrix
p6350
(dp6351
g28
(lp6352
(I01
g5208
tp6353
asg22
Nsbsg22
Nsba(irule
Rule
p6354
(dp6355
g15
(irule
Guard
p6356
(dp6357
g18
I00
sg19
(lp6358
(irule
FeatureMatrix
p6359
(dp6360
g28
(lp6361
sg22
Nsba(irule
FeatureMatrix
p6362
(dp6363
g28
(lp6364
(I01
g5479
tp6365
asg22
Nsbasg21
I00
sg22
Nsg23
I00
sg24
S'L'
sbsg25
(irule
OffsetSpecification
p6366
(dp6367
g718
I-1
sbsg31
(irule
Guard
p6368
(dp6369
g18
I00
sg19
(lp6370
sg21
I00
sg22
Nsg23
I00
sg24
S'R'
sbsg35
(irule
FeatureMatrix
p6371
(dp6372
g28
(lp6373
(I00
g5530
tp6374
asg22
Nsbsg22
Nsba(irule
Rule
p6375
(dp6376
g15
(irule
Guard
p6377
(dp6378
g18
I00
sg19
(lp6379
(irule
FeatureMatrix
p6380
(dp6381
g28
(lp6382
sg22
Nsba(irule
FeatureMatrix
p6383
(dp6384
g28
(lp6385
(I01
g5255
tp6386
asg22
Nsbasg21
I00
sg22
Nsg23
I00
sg24
S'L'
sbsg25
(irule
OffsetSpecification
p6387
(dp6388
g718
I-1
sbsg31
(irule
Guard
p6389
(dp6390
g18
I00
sg19
(lp6391
sg21
I00
sg22
Nsg23
I00
sg24
S'R'
sbsg35
(irule
ConstantPhoneme
p6392
(dp6393
S'p'
V\u014b
sbsg22
Nsba(irule
Rule
p6394
(dp6395
g15
(irule
Guard
p6396
(dp6397
g18
I00
sg19
(lp6398
(irule
FeatureMatrix
p6399
(dp6400
g28
(lp6401
sg22
Nsbasg21
I00
sg22
Nsg23
I00
sg24
S'L'
sbsg25
(irule
OffsetSpecification
p6402
(dp6403
g718
I-1
sbsg31
(irule
Guard
p6404
(dp6405
g18
I01
sg19
(lp6406
(irule
FeatureMatrix
p6407
(dp6408
g28
(lp6409
(I00
g5530
tp6410
asg22
Nsbasg21
I00
sg22
Nsg23
I00
sg24
S'R'
sbsg35
(irule
FeatureMatrix
p6411
(dp6412
g28
(lp6413
sg22
Nsbsg22
Nsba(irule
Rule
p6414
(dp6415
g15
(irule
Guard
p6416
(dp6417
g18
I00
sg19
(lp6418
(irule
FeatureMatrix
p6419
(dp6420
g28
(lp6421
(I01
g5446
tp6422
asg22
Nsbasg21
I00
sg22
Nsg23
I00
sg24
S'L'
sbsg25
(irule
OffsetSpecification
p6423
(dp6424
g718
I-1
sbsg31
(irule
Guard
p6425
(dp6426
g18
I00
sg19
(lp6427
sg21
I00
sg22
Nsg23
I00
sg24
S'R'
sbsg35
(irule
FeatureMatrix
p6428
(dp6429
g28
(lp6430
(I01
g5208
tp6431
a(I01
g5281
tp6432
asg22
Nsbsg22
Nsba(irule
Rule
p6433
(dp6434
g15
(irule
Guard
p6435
(dp6436
g18
I00
sg19
(lp6437
(irule
FeatureMatrix
p6438
(dp6439
g28
(lp6440
(I01
g5412
tp6441
asg22
Nsbasg21
I00
sg22
Nsg23
I00
sg24
S'L'
sbsg25
(irule
OffsetSpecification
p6442
(dp6443
g718
I-1
sbsg31
(irule
Guard
p6444
(dp6445
g18
I00
sg19
(lp6446
(irule
ConstantPhoneme
p6447
(dp6448
S'p'
Vn
sbasg21
I00
sg22
Nsg23
I00
sg24
S'R'
sbsg35
(irule
FeatureMatrix
p6449
(dp6450
g28
(lp6451
sg22
Nsbsg22
Nsba(irule
Rule
p6452
(dp6453
g15
(irule
Guard
p6454
(dp6455
g18
I00
sg19
(lp6456
(irule
FeatureMatrix
p6457
(dp6458
g28
(lp6459
(I01
g5446
tp6460
asg22
Nsbasg21
I00
sg22
Nsg23
I00
sg24
S'L'
sbsg25
(irule
OffsetSpecification
p6461
(dp6462
g718
I-1
sbsg31
(irule
Guard
p6463
(dp6464
g18
I00
sg19
(lp6465
(irule
FeatureMatrix
p6466
(dp6467
g28
(lp6468
sg22
Nsbasg21
I00
sg22
Nsg23
I00
sg24
S'R'
sbsg35
(irule
ConstantPhoneme
p6469
(dp6470
S'p'
V\u014b
sbsg22
Nsba(irule
Rule
p6471
(dp6472
g15
(irule
Guard
p6473
(dp6474
g18
I00
sg19
(lp6475
(irule
FeatureMatrix
p6476
(dp6477
g28
(lp6478
sg22
Nsbasg21
I00
sg22
Nsg23
I00
sg24
S'L'
sbsg25
(irule
OffsetSpecification
p6479
(dp6480
g718
I-1
sbsg31
(irule
Guard
p6481
(dp6482
g18
I00
sg19
(lp6483
(irule
FeatureMatrix
p6484
(dp6485
g28
(lp6486
(I00
g5479
tp6487
asg22
Nsbasg21
I00
sg22
Nsg23
I00
sg24
S'R'
sbsg35
(irule
ConstantPhoneme
p6488
(dp6489
S'p'
V\u014b
sbsg22
Nsba(irule
Rule
p6490
(dp6491
g15
(irule
Guard
p6492
(dp6493
g18
I00
sg19
(lp6494
(irule
FeatureMatrix
p6495
(dp6496
g28
(lp6497
sg22
Nsbasg21
I00
sg22
Nsg23
I00
sg24
S'L'
sbsg25
(irule
OffsetSpecification
p6498
(dp6499
g718
I-1
sbsg31
(irule
Guard
p6500
(dp6501
g18
I00
sg19
(lp6502
sg21
I00
sg22
Nsg23
I00
sg24
S'R'
sbsg35
(irule
FeatureMatrix
p6503
(dp6504
g28
(lp6505
(I00
g5228
tp6506
a(I00
g5479
tp6507
a(I01
g5208
tp6508
asg22
Nsbsg22
Nsba(irule
Rule
p6509
(dp6510
g15
(irule
Guard
p6511
(dp6512
g18
I00
sg19
(lp6513
(irule
FeatureMatrix
p6514
(dp6515
g28
(lp6516
sg22
Nsbasg21
I00
sg22
Nsg23
I00
sg24
S'L'
sbsg25
(irule
OffsetSpecification
p6517
(dp6518
g718
I-1
sbsg31
(irule
Guard
p6519
(dp6520
g18
I01
sg19
(lp6521
(irule
FeatureMatrix
p6522
(dp6523
g28
(lp6524
(I01
g5208
tp6525
asg22
Nsbasg21
I00
sg22
Nsg23
I00
sg24
S'R'
sbsg35
(irule
FeatureMatrix
p6526
(dp6527
g28
(lp6528
sg22
Nsbsg22
Nsba(irule
Rule
p6529
(dp6530
g15
(irule
Guard
p6531
(dp6532
g18
I00
sg19
(lp6533
(irule
FeatureMatrix
p6534
(dp6535
g28
(lp6536
sg22
Nsbasg21
I00
sg22
Nsg23
I00
sg24
S'L'
sbsg25
(irule
OffsetSpecification
p6537
(dp6538
g718
I-1
sbsg31
(irule
Guard
p6539
(dp6540
g18
I00
sg19
(lp6541
sg21
I00
sg22
Nsg23
I00
sg24
S'R'
sbsg35
(irule
FeatureMatrix
p6542
(dp6543
g28
(lp6544
(I01
g5318
tp6545
a(I01
g5412
tp6546
a(I00
g5379
tp6547
asg22
Nsbsg22
Nsba(irule
Rule
p6548
(dp6549
g15
(irule
Guard
p6550
(dp6551
g18
I00
sg19
(lp6552
(irule
FeatureMatrix
p6553
(dp6554
g28
(lp6555
sg22
Nsba(irule
FeatureMatrix
p6556
(dp6557
g28
(lp6558
sg22
Nsbasg21
I00
sg22
Nsg23
I00
sg24
S'L'
sbsg25
(irule
OffsetSpecification
p6559
(dp6560
g718
I-1
sbsg31
(irule
Guard
p6561
(dp6562
g18
I00
sg19
(lp6563
sg21
I00
sg22
Nsg23
I00
sg24
S'R'
sbsg35
(irule
FeatureMatrix
p6564
(dp6565
g28
(lp6566
(I01
g5208
tp6567
a(I01
g5318
tp6568
asg22
Nsbsg22
Nsba(irule
Rule
p6569
(dp6570
g15
(irule
Guard
p6571
(dp6572
g18
I00
sg19
(lp6573
(irule
FeatureMatrix
p6574
(dp6575
g28
(lp6576
sg22
Nsba(irule
FeatureMatrix
p6577
(dp6578
g28
(lp6579
(I01
g5496
tp6580
asg22
Nsbasg21
I00
sg22
Nsg23
I00
sg24
S'L'
sbsg25
(irule
OffsetSpecification
p6581
(dp6582
g718
I-1
sbsg31
(irule
Guard
p6583
(dp6584
g18
I00
sg19
(lp6585
sg21
I00
sg22
Nsg23
I00
sg24
S'R'
sbsg35
(irule
FeatureMatrix
p6586
(dp6587
g28
(lp6588
(I00
g5530
tp6589
asg22
Nsbsg22
Nsba(irule
Rule
p6590
(dp6591
g15
(irule
Guard
p6592
(dp6593
g18
I00
sg19
(lp6594
(irule
FeatureMatrix
p6595
(dp6596
g28
(lp6597
sg22
Nsba(irule
FeatureMatrix
p6598
(dp6599
g28
(lp6600
(I01
g5210
tp6601
asg22
Nsbasg21
I00
sg22
Nsg23
I00
sg24
S'L'
sbsg25
(irule
OffsetSpecification
p6602
(dp6603
g718
I-1
sbsg31
(irule
Guard
p6604
(dp6605
g18
I00
sg19
(lp6606
sg21
I00
sg22
Nsg23
I00
sg24
S'R'
sbsg35
(irule
ConstantPhoneme
p6607
(dp6608
S'p'
V\u014b
sbsg22
Nsba(irule
Rule
p6609
(dp6610
g15
(irule
Guard
p6611
(dp6612
g18
I00
sg19
(lp6613
(irule
FeatureMatrix
p6614
(dp6615
g28
(lp6616
(I00
g5210
tp6617
asg22
Nsbasg21
I00
sg22
Nsg23
I00
sg24
S'L'
sbsg25
(irule
OffsetSpecification
p6618
(dp6619
g718
I-1
sbsg31
(irule
Guard
p6620
(dp6621
g18
I00
sg19
(lp6622
(irule
FeatureMatrix
p6623
(dp6624
g28
(lp6625
sg22
Nsbasg21
I00
sg22
Nsg23
I00
sg24
S'R'
sbsg35
(irule
ConstantPhoneme
p6626
(dp6627
S'p'
V\u014b
sbsg22
Nsba(irule
Rule
p6628
(dp6629
g15
(irule
Guard
p6630
(dp6631
g18
I00
sg19
(lp6632
(irule
FeatureMatrix
p6633
(dp6634
g28
(lp6635
sg22
Nsbasg21
I00
sg22
Nsg23
I00
sg24
S'L'
sbsg25
(irule
OffsetSpecification
p6636
(dp6637
g718
I-1
sbsg31
(irule
Guard
p6638
(dp6639
g18
I00
sg19
(lp6640
sg21
I00
sg22
Nsg23
I00
sg24
S'R'
sbsg35
(irule
FeatureMatrix
p6641
(dp6642
g28
(lp6643
(I00
g5530
tp6644
a(I01
g5412
tp6645
a(I01
g5281
tp6646
asg22
Nsbsg22
Nsba(irule
Rule
p6647
(dp6648
g15
(irule
Guard
p6649
(dp6650
g18
I00
sg19
(lp6651
(irule
FeatureMatrix
p6652
(dp6653
g28
(lp6654
sg22
Nsbasg21
I00
sg22
Nsg23
I00
sg24
S'L'
sbsg25
(irule
OffsetSpecification
p6655
(dp6656
g718
I-1
sbsg31
(irule
Guard
p6657
(dp6658
g18
I00
sg19
(lp6659
sg21
I00
sg22
Nsg23
I00
sg24
S'R'
sbsg35
(irule
FeatureMatrix
p6660
(dp6661
g28
(lp6662
(I00
g5530
tp6663
a(I01
g5318
tp6664
a(I01
g5412
tp6665
asg22
Nsbsg22
Nsba(irule
Rule
p6666
(dp6667
g15
(irule
Guard
p6668
(dp6669
g18
I00
sg19
(lp6670
(irule
FeatureMatrix
p6671
(dp6672
g28
(lp6673
sg22
Nsba(irule
FeatureMatrix
p6674
(dp6675
g28
(lp6676
sg22
Nsbasg21
I00
sg22
Nsg23
I00
sg24
S'L'
sbsg25
(irule
OffsetSpecification
p6677
(dp6678
g718
I-1
sbsg31
(irule
Guard
p6679
(dp6680
g18
I00
sg19
(lp6681
sg21
I00
sg22
Nsg23
I00
sg24
S'R'
sbsg35
(irule
FeatureMatrix
p6682
(dp6683
g28
(lp6684
(I01
g5208
tp6685
a(I01
g5281
tp6686
asg22
Nsbsg22
Nsba(irule
Rule
p6687
(dp6688
g15
(irule
Guard
p6689
(dp6690
g18
I00
sg19
(lp6691
(irule
FeatureMatrix
p6692
(dp6693
g28
(lp6694
sg22
Nsba(irule
FeatureMatrix
p6695
(dp6696
g28
(lp6697
(I00
g5281
tp6698
asg22
Nsbasg21
I00
sg22
Nsg23
I00
sg24
S'L'
sbsg25
(irule
OffsetSpecification
p6699
(dp6700
g718
I-1
sbsg31
(irule
Guard
p6701
(dp6702
g18
I00
sg19
(lp6703
sg21
I00
sg22
Nsg23
I00
sg24
S'R'
sbsg35
(irule
FeatureMatrix
p6704
(dp6705
g28
(lp6706
(I01
g5208
tp6707
asg22
Nsbsg22
Nsba(irule
Rule
p6708
(dp6709
g15
(irule
Guard
p6710
(dp6711
g18
I00
sg19
(lp6712
(irule
FeatureMatrix
p6713
(dp6714
g28
(lp6715
(I01
g5255
tp6716
asg22
Nsbasg21
I00
sg22
Nsg23
I00
sg24
S'L'
sbsg25
(irule
OffsetSpecification
p6717
(dp6718
g718
I-1
sbsg31
(irule
Guard
p6719
(dp6720
g18
I00
sg19
(lp6721
(irule
FeatureMatrix
p6722
(dp6723
g28
(lp6724
sg22
Nsbasg21
I00
sg22
Nsg23
I00
sg24
S'R'
sbsg35
(irule
ConstantPhoneme
p6725
(dp6726
S'p'
V\u014b
sbsg22
Nsba(irule
Rule
p6727
(dp6728
g15
(irule
Guard
p6729
(dp6730
g18
I00
sg19
(lp6731
(irule
FeatureMatrix
p6732
(dp6733
g28
(lp6734
sg22
Nsba(irule
FeatureMatrix
p6735
(dp6736
g28
(lp6737
(I01
g5479
tp6738
asg22
Nsbasg21
I00
sg22
Nsg23
I00
sg24
S'L'
sbsg25
(irule
OffsetSpecification
p6739
(dp6740
g718
I-1
sbsg31
(irule
Guard
p6741
(dp6742
g18
I00
sg19
(lp6743
sg21
I00
sg22
Nsg23
I00
sg24
S'R'
sbsg35
(irule
FeatureMatrix
p6744
(dp6745
g28
(lp6746
(I01
g5208
tp6747
asg22
Nsbsg22
Nsba(irule
Rule
p6748
(dp6749
g15
(irule
Guard
p6750
(dp6751
g18
I00
sg19
(lp6752
(irule
FeatureMatrix
p6753
(dp6754
g28
(lp6755
(I00
g5328
tp6756
asg22
Nsbasg21
I00
sg22
Nsg23
I00
sg24
S'L'
sbsg25
(irule
OffsetSpecification
p6757
(dp6758
g718
I-1
sbsg31
(irule
Guard
p6759
(dp6760
g18
I00
sg19
(lp6761
sg21
I00
sg22
Nsg23
I00
sg24
S'R'
sbsg35
(irule
FeatureMatrix
p6762
(dp6763
g28
(lp6764
(I01
g5208
tp6765
a(I01
g5281
tp6766
asg22
Nsbsg22
Nsba(irule
Rule
p6767
(dp6768
g15
(irule
Guard
p6769
(dp6770
g18
I00
sg19
(lp6771
(irule
FeatureMatrix
p6772
(dp6773
g28
(lp6774
sg22
Nsba(irule
FeatureMatrix
p6775
(dp6776
g28
(lp6777
(I01
g5496
tp6778
asg22
Nsbasg21
I00
sg22
Nsg23
I00
sg24
S'L'
sbsg25
(irule
OffsetSpecification
p6779
(dp6780
g718
I-1
sbsg31
(irule
Guard
p6781
(dp6782
g18
I00
sg19
(lp6783
sg21
I00
sg22
Nsg23
I00
sg24
S'R'
sbsg35
(irule
FeatureMatrix
p6784
(dp6785
g28
(lp6786
(I01
g5208
tp6787
asg22
Nsbsg22
Nsba(irule
Rule
p6788
(dp6789
g15
(irule
Guard
p6790
(dp6791
g18
I00
sg19
(lp6792
(irule
FeatureMatrix
p6793
(dp6794
g28
(lp6795
(I01
g5412
tp6796
a(I01
g5281
tp6797
asg22
Nsbasg21
I00
sg22
Nsg23
I00
sg24
S'L'
sbsg25
(irule
OffsetSpecification
p6798
(dp6799
g718
I-1
sbsg31
(irule
Guard
p6800
(dp6801
g18
I00
sg19
(lp6802
sg21
I00
sg22
Nsg23
I00
sg24
S'R'
sbsg35
(irule
ConstantPhoneme
p6803
(dp6804
S'p'
V\u014b
sbsg22
Nsba(irule
Rule
p6805
(dp6806
g15
(irule
Guard
p6807
(dp6808
g18
I00
sg19
(lp6809
(irule
FeatureMatrix
p6810
(dp6811
g28
(lp6812
sg22
Nsbasg21
I00
sg22
Nsg23
I00
sg24
S'L'
sbsg25
(irule
OffsetSpecification
p6813
(dp6814
g718
I-1
sbsg31
(irule
Guard
p6815
(dp6816
g18
I00
sg19
(lp6817
(irule
ConstantPhoneme
p6818
(dp6819
S'p'
Vn
sbasg21
I00
sg22
Nsg23
I00
sg24
S'R'
sbsg35
(irule
FeatureMatrix
p6820
(dp6821
g28
(lp6822
(I00
g5379
tp6823
asg22
Nsbsg22
Nsba(irule
Rule
p6824
(dp6825
g15
(irule
Guard
p6826
(dp6827
g18
I00
sg19
(lp6828
(irule
FeatureMatrix
p6829
(dp6830
g28
(lp6831
sg22
Nsbasg21
I00
sg22
Nsg23
I00
sg24
S'L'
sbsg25
(irule
OffsetSpecification
p6832
(dp6833
g718
I-1
sbsg31
(irule
Guard
p6834
(dp6835
g18
I00
sg19
(lp6836
(irule
FeatureMatrix
p6837
(dp6838
g28
(lp6839
(I01
g5208
tp6840
asg22
Nsbasg21
I00
sg22
Nsg23
I00
sg24
S'R'
sbsg35
(irule
FeatureMatrix
p6841
(dp6842
g28
(lp6843
(I01
g5208
tp6844
asg22
Nsbsg22
Nsba(irule
Rule
p6845
(dp6846
g15
(irule
Guard
p6847
(dp6848
g18
I00
sg19
(lp6849
(irule
FeatureMatrix
p6850
(dp6851
g28
(lp6852
(I00
g5328
tp6853
asg22
Nsbasg21
I00
sg22
Nsg23
I00
sg24
S'L'
sbsg25
(irule
OffsetSpecification
p6854
(dp6855
g718
I-1
sbsg31
(irule
Guard
p6856
(dp6857
g18
I00
sg19
(lp6858
(irule
FeatureMatrix
p6859
(dp6860
g28
(lp6861
sg22
Nsbasg21
I00
sg22
Nsg23
I00
sg24
S'R'
sbsg35
(irule
ConstantPhoneme
p6862
(dp6863
S'p'
V\u014b
sbsg22
Nsba(irule
Rule
p6864
(dp6865
g15
(irule
Guard
p6866
(dp6867
g18
I00
sg19
(lp6868
(irule
FeatureMatrix
p6869
(dp6870
g28
(lp6871
sg22
Nsba(irule
FeatureMatrix
p6872
(dp6873
g28
(lp6874
(I00
g5208
tp6875
asg22
Nsbasg21
I00
sg22
Nsg23
I00
sg24
S'L'
sbsg25
(irule
OffsetSpecification
p6876
(dp6877
g718
I-1
sbsg31
(irule
Guard
p6878
(dp6879
g18
I00
sg19
(lp6880
sg21
I00
sg22
Nsg23
I00
sg24
S'R'
sbsg35
(irule
ConstantPhoneme
p6881
(dp6882
S'p'
V\u014b
sbsg22
Nsba(irule
Rule
p6883
(dp6884
g15
(irule
Guard
p6885
(dp6886
g18
I00
sg19
(lp6887
(irule
FeatureMatrix
p6888
(dp6889
g28
(lp6890
(I01
g5255
tp6891
asg22
Nsba(irule
FeatureMatrix
p6892
(dp6893
g28
(lp6894
sg22
Nsbasg21
I00
sg22
Nsg23
I00
sg24
S'L'
sbsg25
(irule
OffsetSpecification
p6895
(dp6896
g718
I-1
sbsg31
(irule
Guard
p6897
(dp6898
g18
I00
sg19
(lp6899
sg21
I00
sg22
Nsg23
I00
sg24
S'R'
sbsg35
(irule
ConstantPhoneme
p6900
(dp6901
S'p'
V\u014b
sbsg22
Nsba(irule
Rule
p6902
(dp6903
g15
(irule
Guard
p6904
(dp6905
g18
I00
sg19
(lp6906
(irule
FeatureMatrix
p6907
(dp6908
g28
(lp6909
(I00
g5513
tp6910
a(I00
g5479
tp6911
asg22
Nsbasg21
I00
sg22
Nsg23
I00
sg24
S'L'
sbsg25
(irule
OffsetSpecification
p6912
(dp6913
g718
I-1
sbsg31
(irule
Guard
p6914
(dp6915
g18
I00
sg19
(lp6916
sg21
I00
sg22
Nsg23
I00
sg24
S'R'
sbsg35
(irule
ConstantPhoneme
p6917
(dp6918
S'p'
V\u014b
sbsg22
Nsba(irule
Rule
p6919
(dp6920
g15
(irule
Guard
p6921
(dp6922
g18
I00
sg19
(lp6923
(irule
FeatureMatrix
p6924
(dp6925
g28
(lp6926
sg22
Nsba(irule
FeatureMatrix
p6927
(dp6928
g28
(lp6929
(I00
g5328
tp6930
asg22
Nsbasg21
I00
sg22
Nsg23
I00
sg24
S'L'
sbsg25
(irule
OffsetSpecification
p6931
(dp6932
g718
I-1
sbsg31
(irule
Guard
p6933
(dp6934
g18
I00
sg19
(lp6935
sg21
I00
sg22
Nsg23
I00
sg24
S'R'
sbsg35
(irule
ConstantPhoneme
p6936
(dp6937
S'p'
V\u014b
sbsg22
Nsba(irule
Rule
p6938
(dp6939
g15
(irule
Guard
p6940
(dp6941
g18
I00
sg19
(lp6942
(irule
FeatureMatrix
p6943
(dp6944
g28
(lp6945
(I01
g5255
tp6946
asg22
Nsbasg21
I00
sg22
Nsg23
I00
sg24
S'L'
sbsg25
(irule
OffsetSpecification
p6947
(dp6948
g718
I-1
sbsg31
(irule
Guard
p6949
(dp6950
g18
I00
sg19
(lp6951
(irule
ConstantPhoneme
p6952
(dp6953
S'p'
Vn
sbasg21
I00
sg22
Nsg23
I00
sg24
S'R'
sbsg35
(irule
FeatureMatrix
p6954
(dp6955
g28
(lp6956
sg22
Nsbsg22
Nsba(irule
Rule
p6957
(dp6958
g15
(irule
Guard
p6959
(dp6960
g18
I00
sg19
(lp6961
(irule
FeatureMatrix
p6962
(dp6963
g28
(lp6964
sg22
Nsba(irule
FeatureMatrix
p6965
(dp6966
g28
(lp6967
(I00
g5281
tp6968
asg22
Nsbasg21
I00
sg22
Nsg23
I00
sg24
S'L'
sbsg25
(irule
OffsetSpecification
p6969
(dp6970
g718
I-1
sbsg31
(irule
Guard
p6971
(dp6972
g18
I00
sg19
(lp6973
sg21
I00
sg22
Nsg23
I00
sg24
S'R'
sbsg35
(irule
ConstantPhoneme
p6974
(dp6975
S'p'
V\u014b
sbsg22
Nsba(irule
Rule
p6976
(dp6977
g15
(irule
Guard
p6978
(dp6979
g18
I00
sg19
(lp6980
(irule
FeatureMatrix
p6981
(dp6982
g28
(lp6983
(I01
g5379
tp6984
asg22
Nsba(irule
FeatureMatrix
p6985
(dp6986
g28
(lp6987
sg22
Nsbasg21
I00
sg22
Nsg23
I00
sg24
S'L'
sbsg25
(irule
OffsetSpecification
p6988
(dp6989
g718
I-1
sbsg31
(irule
Guard
p6990
(dp6991
g18
I00
sg19
(lp6992
sg21
I00
sg22
Nsg23
I00
sg24
S'R'
sbsg35
(irule
ConstantPhoneme
p6993
(dp6994
S'p'
V\u014b
sbsg22
Nsba(irule
Rule
p6995
(dp6996
g15
(irule
Guard
p6997
(dp6998
g18
I00
sg19
(lp6999
(irule
FeatureMatrix
p7000
(dp7001
g28
(lp7002
sg22
Nsbasg21
I00
sg22
Nsg23
I00
sg24
S'L'
sbsg25
(irule
OffsetSpecification
p7003
(dp7004
g718
I-1
sbsg31
(irule
Guard
p7005
(dp7006
g18
I00
sg19
(lp7007
sg21
I00
sg22
Nsg23
I00
sg24
S'R'
sbsg35
(irule
FeatureMatrix
p7008
(dp7009
g28
(lp7010
(I01
g5208
tp7011
a(I01
g5281
tp7012
a(I01
g5255
tp7013
asg22
Nsbsg22
Nsba(irule
Rule
p7014
(dp7015
g15
(irule
Guard
p7016
(dp7017
g18
I00
sg19
(lp7018
(irule
FeatureMatrix
p7019
(dp7020
g28
(lp7021
(I01
g5412
tp7022
asg22
Nsbasg21
I00
sg22
Nsg23
I00
sg24
S'L'
sbsg25
(irule
OffsetSpecification
p7023
(dp7024
g718
I-1
sbsg31
(irule
Guard
p7025
(dp7026
g18
I00
sg19
(lp7027
sg21
I00
sg22
Nsg23
I00
sg24
S'R'
sbsg35
(irule
FeatureMatrix
p7028
(dp7029
g28
(lp7030
(I01
g5208
tp7031
a(I01
g5281
tp7032
asg22
Nsbsg22
Nsba(irule
Rule
p7033
(dp7034
g15
(irule
Guard
p7035
(dp7036
g18
I00
sg19
(lp7037
(irule
FeatureMatrix
p7038
(dp7039
g28
(lp7040
sg22
Nsbasg21
I00
sg22
Nsg23
I00
sg24
S'L'
sbsg25
(irule
OffsetSpecification
p7041
(dp7042
g718
I-1
sbsg31
(irule
Guard
p7043
(dp7044
g18
I00
sg19
(lp7045
sg21
I00
sg22
Nsg23
I00
sg24
S'R'
sbsg35
(irule
FeatureMatrix
p7046
(dp7047
g28
(lp7048
(I00
g5228
tp7049
a(I00
g5530
tp7050
a(I01
g5208
tp7051
asg22
Nsbsg22
Nsba(irule
Rule
p7052
(dp7053
g15
(irule
Guard
p7054
(dp7055
g18
I00
sg19
(lp7056
(irule
FeatureMatrix
p7057
(dp7058
g28
(lp7059
sg22
Nsbasg21
I00
sg22
Nsg23
I00
sg24
S'L'
sbsg25
(irule
OffsetSpecification
p7060
(dp7061
g718
I-1
sbsg31
(irule
Guard
p7062
(dp7063
g18
I00
sg19
(lp7064
sg21
I00
sg22
Nsg23
I00
sg24
S'R'
sbsg35
(irule
FeatureMatrix
p7065
(dp7066
g28
(lp7067
(I00
g5479
tp7068
a(I01
g5208
tp7069
a(I00
g5210
tp7070
asg22
Nsbsg22
NsbaasbsS'parameters'
p7071
g6
(cargparse
Namespace
p7072
g8
NtRp7073
(dp7074
S'restore'
p7075
NsS'features'
p7076
S'sophisticated'
p7077
sS'universal'
p7078
NsS'restrict'
p7079
NsS'seed'
p7080
S'0'
sS'serial'
p7081
I00
sS'alignment'
p7082
I00
sS'top'
p7083
I100
sS'maximumDepth'
p7084
I3
sS'window'
p7085
NsS'minimizeBits'
p7086
I5
sS'samples'
p7087
I30
sS'save'
p7088
NsS'resume'
p7089
I00
sS'disableClean'
p7090
I00
sS'stemBaseline'
p7091
I30
sS'dummy'
p7092
I00
sS'task'
p7093
S'CEGIS'
p7094
sS'geometry'
p7095
I01
sS'verbosity'
p7096
I0
sS'timeout'
p7097
F24
sS'debug'
p7098
NsS'cores'
p7099
I40
sg859
S'Odden_4.10_Sakha_Yakut'
p7100
sbsb.