(iresult
Result
p1
(dp2
S'startTime'
p3
F1549634430.0039859
sS'solutionSequence'
p4
(lp5
(ccopy_reg
_reconstructor
p6
(csolution
Solution
p7
c__builtin__
object
p8
NtRp9
(dp10
S'rules'
p11
(lp12
(irule
Rule
p13
(dp14
S'leftTriggers'
p15
(irule
Guard
p16
(dp17
S'endOfString'
p18
I00
sS'specifications'
p19
(lp20
sS'optionalEnding'
p21
I00
sS'representation'
p22
V
sS'starred'
p23
I00
sS'side'
p24
S'L'
sbsS'structuralChange'
p25
(irule
FeatureMatrix
p26
(dp27
S'featuresAndPolarities'
p28
(lp29
(I01
S'nasal'
p30
tp31
asg22
V[ +nasal ]
p32
sbsS'rightTriggers'
p33
(irule
Guard
p34
(dp35
g18
I00
sg19
(lp36
(irule
FeatureMatrix
p37
(dp38
g28
(lp39
(I01
g30
tp40
asg22
V[ +nasal ]
p41
sbasg21
I00
sg22
g41
sg23
I00
sg24
S'R'
sbsS'focus'
p42
(irule
ConstantPhoneme
p43
(dp44
S'p'
Vp
sbsg22
Vp ---> [ +nasal ] /  _ [ +nasal ]
p45
sbasS'prefixes'
p46
(lp47
(imorph
Morph
p48
(dp49
S'phonemes'
p50
(lp51
sba(imorph
Morph
p52
(dp53
g50
(lp54
sba(imorph
Morph
p55
(dp56
g50
(lp57
sba(imorph
Morph
p58
(dp59
g50
(lp60
sba(imorph
Morph
p61
(dp62
g50
(lp63
sba(imorph
Morph
p64
(dp65
g50
(lp66
sba(imorph
Morph
p67
(dp68
g50
(lp69
sba(imorph
Morph
p70
(dp71
g50
(lp72
sba(imorph
Morph
p73
(dp74
g50
(lp75
sba(imorph
Morph
p76
(dp77
g50
(lp78
sba(imorph
Morph
p79
(dp80
g50
(lp81
sba(imorph
Morph
p82
(dp83
g50
(lp84
sba(imorph
Morph
p85
(dp86
g50
(lp87
sbasS'underlyingForms'
p88
(dp89
((imorph
Morph
p90
(dp91
g50
(lp92
Vp
aVa
aVm
aVm
aVa
aVn
asb(imorph
Morph
p93
(dp94
g50
(lp95
Vp
aVa
aVm
aVm
aVa
aV\u014b
aVk^h
p96
aV\u0268
aVm
asb(imorph
Morph
p97
(dp98
g50
(lp99
Vp
aVa
aVm
aVn
aVa
aVr
aV\u0268
aVm
asb(imorph
Morph
p100
(dp101
g50
(lp102
Vp
aVa
aVp
asb(imorph
Morph
p103
(dp104
g50
(lp105
Vp
aVa
aVp
aVt
aVe
aVr
aVo
asb(imorph
Morph
p106
(dp107
g50
(lp108
Vp
aVa
aVp
aVk
aVw
aVa
asb(imorph
Morph
p109
(dp110
g50
(lp111
Vp
aVa
aVp
aVp
aVo
aVt
aVa
asb(imorph
Morph
p112
(dp113
g50
(lp114
Vp
aVa
aVp
aVk
aVa
aVc\u030c
p115
aVi
asb(imorph
Morph
p116
(dp117
g50
(lp118
Vp
aVa
aVp
aVi
asb(imorph
Morph
p119
(dp120
g50
(lp121
Vp
aVa
aVp
aV\u0268
aVn
asb(imorph
Morph
p122
(dp123
g50
(lp124
Vp
aVa
aVp
aVe
asb(imorph
Morph
p125
(dp126
g50
(lp127
Vp
aVa
aVp
aVi
aVt
aVa
asb(imorph
Morph
p128
(dp129
g50
(lp130
Vp
aVa
aVp
aV\u0268
aVr
aVo
asbtp131
(imorph
Morph
p132
(dp133
g50
(lp134
Vp
aVa
aVp
asbssS'suffixes'
p135
(lp136
(imorph
Morph
p137
(dp138
g50
(lp139
Vm
aVa
aVn
asba(imorph
Morph
p140
(dp141
g50
(lp142
Vm
aVa
aV\u014b
aVk^h
p143
aV\u0268
aVm
asba(imorph
Morph
p144
(dp145
g50
(lp146
Vn
aVa
aVr
aV\u0268
aVm
asba(imorph
Morph
p147
(dp148
g50
(lp149
sba(imorph
Morph
p150
(dp151
g50
(lp152
Vt
aVe
aVr
aVo
asba(imorph
Morph
p153
(dp154
g50
(lp155
Vk
aVw
aVa
asba(imorph
Morph
p156
(dp157
g50
(lp158
Vp
aVo
aVt
aVa
asba(imorph
Morph
p159
(dp160
g50
(lp161
Vk
aVa
aVc\u030c
p162
aVi
asba(imorph
Morph
p163
(dp164
g50
(lp165
Vi
asba(imorph
Morph
p166
(dp167
g50
(lp168
V\u0268
aVn
asba(imorph
Morph
p169
(dp170
g50
(lp171
Ve
asba(imorph
Morph
p172
(dp173
g50
(lp174
Vi
aVt
aVa
asba(imorph
Morph
p175
(dp176
g50
(lp177
V\u0268
aVr
aVo
asbasbF108.86973714828491
tp178
a(g6
(g7
g8
NtRp179
(dp180
g11
(lp181
(irule
Rule
p182
(dp183
g15
(irule
Guard
p184
(dp185
g18
I00
sg19
(lp186
sg21
I00
sg22
V
sg23
I00
sg24
S'L'
sbsg25
(irule
FeatureMatrix
p187
(dp188
g28
(lp189
(I00
S'aspirated'
tp190
asg22
V[ -aspirated ]
p191
sbsg33
(irule
Guard
p192
(dp193
g18
I00
sg19
(lp194
(irule
FeatureMatrix
p195
(dp196
g28
(lp197
(I00
S'voice'
tp198
asg22
V[ -voice ]
p199
sbasg21
I01
sg22
V{#,[ -voice ]}
p200
sg23
I00
sg24
S'R'
sbsg42
(irule
FeatureMatrix
p201
(dp202
g28
(lp203
sg22
V[  ]
p204
sbsg22
V[  ] ---> [ -aspirated ] /  _ {#,[ -voice ]}
p205
sba(irule
Rule
p206
(dp207
g15
(irule
Guard
p208
(dp209
g18
I00
sg19
(lp210
sg21
I00
sg22
V
sg23
I00
sg24
S'L'
sbsg25
(irule
FeatureMatrix
p211
(dp212
g28
(lp213
(I01
S'nasal'
p214
tp215
asg22
V[ +nasal ]
p216
sbsg33
(irule
Guard
p217
(dp218
g18
I00
sg19
(lp219
(irule
FeatureMatrix
p220
(dp221
g28
(lp222
(I01
g214
tp223
asg22
V[ +nasal ]
p224
sbasg21
I00
sg22
g224
sg23
I00
sg24
S'R'
sbsg42
(irule
FeatureMatrix
p225
(dp226
g28
(lp227
(I00
S'vowel'
tp228
asg22
V[ -vowel ]
p229
sbsg22
V[ -vowel ] ---> [ +nasal ] /  _ [ +nasal ]
p230
sbasg46
(lp231
(imorph
Morph
p232
(dp233
g50
(lp234
sba(imorph
Morph
p235
(dp236
g50
(lp237
sba(imorph
Morph
p238
(dp239
g50
(lp240
sba(imorph
Morph
p241
(dp242
g50
(lp243
sba(imorph
Morph
p244
(dp245
g50
(lp246
sba(imorph
Morph
p247
(dp248
g50
(lp249
sba(imorph
Morph
p250
(dp251
g50
(lp252
sba(imorph
Morph
p253
(dp254
g50
(lp255
sba(imorph
Morph
p256
(dp257
g50
(lp258
sba(imorph
Morph
p259
(dp260
g50
(lp261
sba(imorph
Morph
p262
(dp263
g50
(lp264
sba(imorph
Morph
p265
(dp266
g50
(lp267
sba(imorph
Morph
p268
(dp269
g50
(lp270
sbasg88
(dp271
((imorph
Morph
(dp272
g50
(lp273
Vp
aVa
aVm
aVm
aVa
aVn
asb(imorph
Morph
(dp274
g50
(lp275
Vp
aVa
aVm
aVm
aVa
aV\u014b
aVk^h
p276
aV\u0268
aVm
asb(imorph
Morph
(dp277
g50
(lp278
Vp
aVa
aVm
aVn
aVa
aVr
aV\u0268
aVm
asb(imorph
Morph
(dp279
g50
(lp280
Vp
aVa
aVp
asb(imorph
Morph
(dp281
g50
(lp282
Vp
aVa
aVp
aVt
aVe
aVr
aVo
asb(imorph
Morph
(dp283
g50
(lp284
Vp
aVa
aVp
aVk
aVw
aVa
asb(imorph
Morph
(dp285
g50
(lp286
Vp
aVa
aVp
aVp
aVo
aVt
aVa
asb(imorph
Morph
(dp287
g50
(lp288
Vp
aVa
aVp
aVk
aVa
aVc\u030c
p289
aVi
asb(imorph
Morph
(dp290
g50
(lp291
Vp
aVa
aVp
aVi
asb(imorph
Morph
(dp292
g50
(lp293
Vp
aVa
aVp
aV\u0268
aVn
asb(imorph
Morph
(dp294
g50
(lp295
Vp
aVa
aVp
aVe
asb(imorph
Morph
(dp296
g50
(lp297
Vp
aVa
aVp
aVi
aVt
aVa
asb(imorph
Morph
(dp298
g50
(lp299
Vp
aVa
aVp
aV\u0268
aVr
aVo
asbtp300
(imorph
Morph
p301
(dp302
g50
(lp303
Vp
aVa
aVp
asbs((imorph
Morph
(dp304
g50
(lp305
Vs
aVu
aVm
aVm
aVa
aVn
asb(imorph
Morph
(dp306
g50
(lp307
Vs
aVu
aVm
aVm
aVa
aV\u014b
aVk^h
p308
aV\u0268
aVm
asb(imorph
Morph
(dp309
g50
(lp310
Vs
aVu
aVm
aVn
aVa
aVr
aV\u0268
aVm
asb(imorph
Morph
(dp311
g50
(lp312
Vs
aVu
aVp
asb(imorph
Morph
(dp313
g50
(lp314
Vs
aVu
aVp
aVt
aVe
aVr
aVo
asb(imorph
Morph
(dp315
g50
(lp316
Vs
aVu
aVp
aVk
aVw
aVa
asb(imorph
Morph
(dp317
g50
(lp318
Vs
aVu
aVp
aVp
aVo
aVt
aVa
asb(imorph
Morph
(dp319
g50
(lp320
Vs
aVu
aVp
aVk
aVa
aVc\u030c
p321
aVi
asb(imorph
Morph
(dp322
g50
(lp323
Vs
aVu
aVp^h
p324
aVi
asb(imorph
Morph
(dp325
g50
(lp326
Vs
aVu
aVp^h
p327
aV\u0268
aVn
asb(imorph
Morph
(dp328
g50
(lp329
Vs
aVu
aVp^h
p330
aVe
asb(imorph
Morph
(dp331
g50
(lp332
Vs
aVu
aVp^h
p333
aVi
aVt
aVa
asb(imorph
Morph
(dp334
g50
(lp335
Vs
aVu
aVp^h
p336
aV\u0268
aVr
aVo
asbtp337
(imorph
Morph
p338
(dp339
g50
(lp340
Vs
aVu
aVp^h
p341
asbssg135
(lp342
(imorph
Morph
p343
(dp344
g50
(lp345
Vm
aVa
aVn
asba(imorph
Morph
p346
(dp347
g50
(lp348
Vm
aVa
aV\u014b
aVk^h
p349
aV\u0268
aVm
asba(imorph
Morph
p350
(dp351
g50
(lp352
Vn
aVa
aVr
aV\u0268
aVm
asba(imorph
Morph
p353
(dp354
g50
(lp355
sba(imorph
Morph
p356
(dp357
g50
(lp358
Vt
aVe
aVr
aVo
asba(imorph
Morph
p359
(dp360
g50
(lp361
Vk
aVw
aVa
asba(imorph
Morph
p362
(dp363
g50
(lp364
Vp
aVo
aVt
aVa
asba(imorph
Morph
p365
(dp366
g50
(lp367
Vk
aVa
aVc\u030c
p368
aVi
asba(imorph
Morph
p369
(dp370
g50
(lp371
Vi
asba(imorph
Morph
p372
(dp373
g50
(lp374
V\u0268
aVn
asba(imorph
Morph
p375
(dp376
g50
(lp377
Ve
asba(imorph
Morph
p378
(dp379
g50
(lp380
Vi
aVt
aVa
asba(imorph
Morph
p381
(dp382
g50
(lp383
V\u0268
aVr
aVo
asbasbF5502.7436430454254
tp384
a(g6
(g7
g8
NtRp385
(dp386
g11
(lp387
(irule
Rule
p388
(dp389
g15
(irule
Guard
p390
(dp391
g18
I00
sg19
(lp392
sg21
I00
sg22
V
sg23
I00
sg24
S'L'
sbsg25
(irule
FeatureMatrix
p393
(dp394
g28
(lp395
(I00
S'aspirated'
tp396
asg22
V[ -aspirated ]
p397
sbsg33
(irule
Guard
p398
(dp399
g18
I00
sg19
(lp400
(irule
FeatureMatrix
p401
(dp402
g28
(lp403
(I00
S'voice'
tp404
asg22
V[ -voice ]
p405
sbasg21
I01
sg22
V{#,[ -voice ]}
p406
sg23
I00
sg24
S'R'
sbsg42
(irule
FeatureMatrix
p407
(dp408
g28
(lp409
sg22
V[  ]
p410
sbsg22
V[  ] ---> [ -aspirated ] /  _ {#,[ -voice ]}
p411
sba(irule
Rule
p412
(dp413
g15
(irule
Guard
p414
(dp415
g18
I00
sg19
(lp416
sg21
I00
sg22
V
sg23
I00
sg24
S'L'
sbsg25
(irule
ConstantPhoneme
p417
(dp418
S'p'
Vm
sbsg33
(irule
Guard
p419
(dp420
g18
I00
sg19
(lp421
(irule
FeatureMatrix
p422
(dp423
g28
(lp424
(I01
S'nasal'
tp425
asg22
V[ +nasal ]
p426
sbasg21
I00
sg22
g426
sg23
I00
sg24
S'R'
sbsg42
(irule
FeatureMatrix
p427
(dp428
g28
(lp429
(I01
S'anterior'
tp430
asg22
V[ +anterior ]
p431
sbsg22
V[ +anterior ] ---> m /  _ [ +nasal ]
p432
sbasg46
(lp433
(imorph
Morph
p434
(dp435
g50
(lp436
sba(imorph
Morph
p437
(dp438
g50
(lp439
sba(imorph
Morph
p440
(dp441
g50
(lp442
sba(imorph
Morph
p443
(dp444
g50
(lp445
sba(imorph
Morph
p446
(dp447
g50
(lp448
sba(imorph
Morph
p449
(dp450
g50
(lp451
sba(imorph
Morph
p452
(dp453
g50
(lp454
sba(imorph
Morph
p455
(dp456
g50
(lp457
sba(imorph
Morph
p458
(dp459
g50
(lp460
sba(imorph
Morph
p461
(dp462
g50
(lp463
sba(imorph
Morph
p464
(dp465
g50
(lp466
sba(imorph
Morph
p467
(dp468
g50
(lp469
sba(imorph
Morph
p470
(dp471
g50
(lp472
sbasg88
(dp473
((imorph
Morph
(dp474
g50
(lp475
Vp
aVa
aVm
aVm
aVa
aVn
asb(imorph
Morph
(dp476
g50
(lp477
Vp
aVa
aVm
aVm
aVa
aV\u014b
aVk^h
p478
aV\u0268
aVm
asb(imorph
Morph
(dp479
g50
(lp480
Vp
aVa
aVm
aVn
aVa
aVr
aV\u0268
aVm
asb(imorph
Morph
(dp481
g50
(lp482
Vp
aVa
aVm
asb(imorph
Morph
(dp483
g50
(lp484
Vp
aVa
aVm
aVt
aVe
aVr
aVo
asb(imorph
Morph
(dp485
g50
(lp486
Vp
aVa
aVm
aVk
aVw
aVa
asb(imorph
Morph
(dp487
g50
(lp488
Vp
aVa
aVm
aVp
aVo
aVt
aVa
asb(imorph
Morph
(dp489
g50
(lp490
Vp
aVa
aVm
aVk
aVa
aVc\u030c
p491
aVi
asb(imorph
Morph
(dp492
g50
(lp493
Vp
aVa
aVm
aVi
asb(imorph
Morph
(dp494
g50
(lp495
Vp
aVa
aVm
aV\u0268
aVn
asb(imorph
Morph
(dp496
g50
(lp497
Vp
aVa
aVm
aVe
asb(imorph
Morph
(dp498
g50
(lp499
Vp
aVa
aVm
aVi
aVt
aVa
asb(imorph
Morph
(dp500
g50
(lp501
Vp
aVa
aVm
aV\u0268
aVr
aVo
asbtp502
(imorph
Morph
p503
(dp504
g50
(lp505
Vp
aVa
aVm
asbs((imorph
Morph
(dp506
g50
(lp507
Vp
aVa
aVm
aVm
aVa
aVn
asb(imorph
Morph
(dp508
g50
(lp509
Vp
aVa
aVm
aVm
aVa
aV\u014b
aVk^h
p510
aV\u0268
aVm
asb(imorph
Morph
(dp511
g50
(lp512
Vp
aVa
aVm
aVn
aVa
aVr
aV\u0268
aVm
asb(imorph
Morph
(dp513
g50
(lp514
Vp
aVa
aVp
asb(imorph
Morph
(dp515
g50
(lp516
Vp
aVa
aVp
aVt
aVe
aVr
aVo
asb(imorph
Morph
(dp517
g50
(lp518
Vp
aVa
aVp
aVk
aVw
aVa
asb(imorph
Morph
(dp519
g50
(lp520
Vp
aVa
aVp
aVp
aVo
aVt
aVa
asb(imorph
Morph
(dp521
g50
(lp522
Vp
aVa
aVp
aVk
aVa
aVc\u030c
p523
aVi
asb(imorph
Morph
(dp524
g50
(lp525
Vp
aVa
aVp
aVi
asb(imorph
Morph
(dp526
g50
(lp527
Vp
aVa
aVp
aV\u0268
aVn
asb(imorph
Morph
(dp528
g50
(lp529
Vp
aVa
aVp
aVe
asb(imorph
Morph
(dp530
g50
(lp531
Vp
aVa
aVp
aVi
aVt
aVa
asb(imorph
Morph
(dp532
g50
(lp533
Vp
aVa
aVp
aV\u0268
aVr
aVo
asbtp534
(imorph
Morph
p535
(dp536
g50
(lp537
Vp
aVa
aVp
asbs((imorph
Morph
(dp538
g50
(lp539
Vs
aVu
aVm
aVm
aVa
aVn
asb(imorph
Morph
(dp540
g50
(lp541
Vs
aVu
aVm
aVm
aVa
aV\u014b
aVk^h
p542
aV\u0268
aVm
asb(imorph
Morph
(dp543
g50
(lp544
Vs
aVu
aVm
aVn
aVa
aVr
aV\u0268
aVm
asb(imorph
Morph
(dp545
g50
(lp546
Vs
aVu
aVp
asb(imorph
Morph
(dp547
g50
(lp548
Vs
aVu
aVp
aVt
aVe
aVr
aVo
asb(imorph
Morph
(dp549
g50
(lp550
Vs
aVu
aVp
aVk
aVw
aVa
asb(imorph
Morph
(dp551
g50
(lp552
Vs
aVu
aVp
aVp
aVo
aVt
aVa
asb(imorph
Morph
(dp553
g50
(lp554
Vs
aVu
aVp
aVk
aVa
aVc\u030c
p555
aVi
asb(imorph
Morph
(dp556
g50
(lp557
Vs
aVu
aVp^h
p558
aVi
asb(imorph
Morph
(dp559
g50
(lp560
Vs
aVu
aVp^h
p561
aV\u0268
aVn
asb(imorph
Morph
(dp562
g50
(lp563
Vs
aVu
aVp^h
p564
aVe
asb(imorph
Morph
(dp565
g50
(lp566
Vs
aVu
aVp^h
p567
aVi
aVt
aVa
asb(imorph
Morph
(dp568
g50
(lp569
Vs
aVu
aVp^h
p570
aV\u0268
aVr
aVo
asbtp571
(imorph
Morph
p572
(dp573
g50
(lp574
Vs
aVu
aVp^h
p575
asbssg135
(lp576
(imorph
Morph
p577
(dp578
g50
(lp579
Vm
aVa
aVn
asba(imorph
Morph
p580
(dp581
g50
(lp582
Vm
aVa
aV\u014b
aVk^h
p583
aV\u0268
aVm
asba(imorph
Morph
p584
(dp585
g50
(lp586
Vn
aVa
aVr
aV\u0268
aVm
asba(imorph
Morph
p587
(dp588
g50
(lp589
sba(imorph
Morph
p590
(dp591
g50
(lp592
Vt
aVe
aVr
aVo
asba(imorph
Morph
p593
(dp594
g50
(lp595
Vk
aVw
aVa
asba(imorph
Morph
p596
(dp597
g50
(lp598
Vp
aVo
aVt
aVa
asba(imorph
Morph
p599
(dp600
g50
(lp601
Vk
aVa
aVc\u030c
p602
aVi
asba(imorph
Morph
p603
(dp604
g50
(lp605
Vi
asba(imorph
Morph
p606
(dp607
g50
(lp608
V\u0268
aVn
asba(imorph
Morph
p609
(dp610
g50
(lp611
Ve
asba(imorph
Morph
p612
(dp613
g50
(lp614
Vi
aVt
aVa
asba(imorph
Morph
p615
(dp616
g50
(lp617
V\u0268
aVr
aVo
asbasbF8739.4333381652832
tp618
asS'problem'
p619
S'Odden_3.7_Korean'
p620
sS'finalFrontier'
p621
g6
(csolution
Frontier
p622
g8
NtRp623
(dp624
g46
g433
sg135
g576
sg88
g473
sS'frontiers'
p625
(lp626
(lp627
g388
aa(lp628
g412
aasbsS'parameters'
p629
g6
(cargparse
Namespace
p630
g8
NtRp631
(dp632
S'dummy'
p633
I00
sS'task'
p634
S'incremental'
p635
sS'features'
p636
S'sophisticated'
p637
sS'resume'
p638
I00
sS'geometry'
p639
I01
sS'top'
p640
I1
sS'disableClean'
p641
I00
sS'universal'
p642
NsS'restrict'
p643
NsS'window'
p644
NsS'seed'
p645
S'0'
sS'restore'
p646
NsS'verbosity'
p647
I0
sS'timeout'
p648
F24
sS'debug'
p649
NsS'cores'
p650
I40
sg619
S'Odden_3.7_Korean'
p651
sS'save'
p652
NsS'serial'
p653
I00
sS'alignment'
p654
I00
sS'samples'
p655
I30
sbsb.