(iresult
Result
p1
(dp2
S'startTime'
p3
F1559660673.5853281
sS'solutionSequence'
p4
(lp5
(ccopy_reg
_reconstructor
p6
(csolution
Solution
p7
c__builtin__
object
p8
NtRp9
(dp10
S'rules'
p11
(lp12
(irule
Rule
p13
(dp14
S'leftTriggers'
p15
(irule
Guard
p16
(dp17
S'endOfString'
p18
I00
sS'specifications'
p19
(lp20
sS'optionalEnding'
p21
I00
sS'representation'
p22
V
sS'starred'
p23
I00
sS'side'
p24
S'L'
sbsS'structuralChange'
p25
(irule
OffsetSpecification
p26
(dp27
S'offset'
p28
I1
sbsS'rightTriggers'
p29
(irule
Guard
p30
(dp31
g18
I00
sg19
(lp32
(irule
ConstantPhoneme
p33
(dp34
S'p'
Vb
sbasg21
I00
sg22
Vb
sg23
I00
sg24
S'R'
sbsS'focus'
p35
(irule
FeatureMatrix
p36
(dp37
S'featuresAndPolarities'
p38
(lp39
sg22
V[  ]
p40
sbsg22
V[  ] ---> 1 /  _ b
p41
sba(irule
Rule
p42
(dp43
g15
(irule
Guard
p44
(dp45
g18
I00
sg19
(lp46
(irule
ConstantPhoneme
p47
(dp48
S'p'
Vu:
p49
sbasg21
I00
sg22
g49
sg23
I00
sg24
S'L'
sbsg25
(irule
ConstantPhoneme
p50
(dp51
S'p'
Vd
sbsg29
(irule
Guard
p52
(dp53
g18
I00
sg19
(lp54
sg21
I00
sg22
V
sg23
I00
sg24
S'R'
sbsg35
(irule
ConstantPhoneme
p55
(dp56
S'p'
Vb
sbsg22
Vb ---> d / u: _ 
p57
sbasS'prefixes'
p58
(lp59
(imorph
Morph
p60
(dp61
S'phonemes'
p62
(lp63
sba(imorph
Morph
p64
(dp65
g62
(lp66
sba(imorph
Morph
p67
(dp68
g62
(lp69
sba(imorph
Morph
p70
(dp71
g62
(lp72
sbasS'underlyingForms'
p73
(dp74
((imorph
Morph
p75
(dp76
g62
(lp77
Vk
aVa
aVl
aVa
aVp
asb(imorph
Morph
p78
(dp79
g62
(lp80
Vk
aVa
aVl
aVa
aVb
aVb
aVa
aVn
asb(imorph
Morph
p81
(dp82
g62
(lp83
Vk
aVa
aVl
aVa
aVp
aVt
aVo:
p84
aVl
asb(imorph
Morph
p85
(dp86
g62
(lp87
Vk
aVa
aVl
aVa
aVp
aVn
aVa
aVk
asbtp88
(imorph
Morph
p89
(dp90
g62
(lp91
Vk
aVa
aVl
aVa
aVp
asbs((imorph
Morph
p92
(dp93
g62
(lp94
Vk
aVu:
p95
aVt
asb(imorph
Morph
p96
(dp97
g62
(lp98
Vk
aVu:
p99
aVd
aVb
aVa
aVn
asb(imorph
Morph
p100
(dp101
g62
(lp102
Vk
aVu:
p103
aVt
aVt
aVo:
p104
aVl
asb(imorph
Morph
p105
(dp106
g62
(lp107
Vk
aVu:
p108
aVt
aVn
aVa
aVk
asbtp109
(imorph
Morph
p110
(dp111
g62
(lp112
Vk
ag49
aVt
asbssS'suffixes'
p113
(lp114
(imorph
Morph
p115
(dp116
g62
(lp117
sba(imorph
Morph
p118
(dp119
g62
(lp120
Vb
aVa
aVn
asba(imorph
Morph
p121
(dp122
g62
(lp123
Vt
aVo:
p124
aVl
asba(imorph
Morph
p125
(dp126
g62
(lp127
Vn
aVa
aVk
asbasbF2883.6386978626251
tp128
a(g6
(g7
g8
NtRp129
(dp130
g11
(lp131
(irule
Rule
p132
(dp133
g15
(irule
Guard
p134
(dp135
g18
I00
sg19
(lp136
sg21
I00
sg22
V
sg23
I00
sg24
S'L'
sbsg25
(irule
OffsetSpecification
p137
(dp138
g28
I1
sbsg29
(irule
Guard
p139
(dp140
g18
I00
sg19
(lp141
(irule
ConstantPhoneme
p142
(dp143
S'p'
Vb
sbasg21
I00
sg22
Vb
sg23
I00
sg24
S'R'
sbsg35
(irule
FeatureMatrix
p144
(dp145
g38
(lp146
sg22
V[  ]
p147
sbsg22
V[  ] ---> 1 /  _ b
p148
sba(irule
Rule
p149
(dp150
g15
(irule
Guard
p151
(dp152
g18
I00
sg19
(lp153
(irule
ConstantPhoneme
p154
(dp155
S'p'
Va:
p156
sbasg21
I00
sg22
g156
sg23
I00
sg24
S'L'
sbsg25
(irule
ConstantPhoneme
p157
(dp158
S'p'
Vg
sbsg29
(irule
Guard
p159
(dp160
g18
I00
sg19
(lp161
sg21
I00
sg22
V
sg23
I00
sg24
S'R'
sbsg35
(irule
ConstantPhoneme
p162
(dp163
S'p'
Vb
sbsg22
Vb ---> g / a: _ 
p164
sba(irule
Rule
p165
(dp166
g15
(irule
Guard
p167
(dp168
g18
I00
sg19
(lp169
(irule
ConstantPhoneme
p170
(dp171
S'p'
g49
sbasg21
I00
sg22
g49
sg23
I00
sg24
S'L'
sbsg25
(irule
ConstantPhoneme
p172
(dp173
S'p'
Vd
sbsg29
(irule
Guard
p174
(dp175
g18
I00
sg19
(lp176
sg21
I00
sg22
V
sg23
I00
sg24
S'R'
sbsg35
(irule
ConstantPhoneme
p177
(dp178
S'p'
Vb
sbsg22
Vb ---> d / u: _ 
p179
sbasg58
(lp180
(imorph
Morph
p181
(dp182
g62
(lp183
sba(imorph
Morph
p184
(dp185
g62
(lp186
sba(imorph
Morph
p187
(dp188
g62
(lp189
sba(imorph
Morph
p190
(dp191
g62
(lp192
sbasg73
(dp193
((imorph
Morph
p194
(dp195
g62
(lp196
Vz\u030c
p197
aVa:
p198
aVk
asb(imorph
Morph
p199
(dp200
g62
(lp201
Vz\u030c
p202
aVa:
p203
aVg
aVb
aVa
aVn
asb(imorph
Morph
p204
(dp205
g62
(lp206
Vz\u030c
p207
aVa:
p208
aVk
aVt
aVo:
p209
aVl
asb(imorph
Morph
p210
(dp211
g62
(lp212
Vz\u030c
p213
aVa:
p214
aVk
aVn
aVa
aVk
asbtp215
(imorph
Morph
p216
(dp217
g62
(lp218
Vz\u030c
p219
ag156
aVk
asbs(g75
g78
g81
g85
tp220
(imorph
Morph
p221
(dp222
g62
(lp223
Vk
aVa
aVl
aVa
aVp
asbs(g92
g96
g100
g105
tp224
(imorph
Morph
p225
(dp226
g62
(lp227
Vk
ag49
aVt
asbssg113
(lp228
(imorph
Morph
p229
(dp230
g62
(lp231
sba(imorph
Morph
p232
(dp233
g62
(lp234
Vb
aVa
aVn
asba(imorph
Morph
p235
(dp236
g62
(lp237
Vt
ag124
aVl
asba(imorph
Morph
p238
(dp239
g62
(lp240
Vn
aVa
aVk
asbasbF43978.336186885834
tp241
asS'problem'
p242
S'Odden_2.1_Hungarian'
p243
sS'finalFrontier'
p244
g6
(csolution
Frontier
p245
g8
NtRp246
(dp247
g58
g180
sg113
g228
sg73
g193
sS'frontiers'
p248
(lp249
(lp250
g132
aa(lp251
g149
aa(lp252
g165
aasbsS'parameters'
p253
g6
(cargparse
Namespace
p254
g8
NtRp255
(dp256
S'restore'
p257
NsS'features'
p258
S'none'
p259
sS'universal'
p260
NsS'restrict'
p261
NsS'seed'
p262
S'0'
sS'serial'
p263
I00
sS'alignment'
p264
I00
sS'top'
p265
I1
sS'maximumDepth'
p266
I3
sS'window'
p267
NsS'minimizeBits'
p268
I5
sS'samples'
p269
I30
sS'save'
p270
NsS'resume'
p271
I00
sS'disableClean'
p272
I01
sS'stemBaseline'
p273
I30
sS'dummy'
p274
I00
sS'task'
p275
S'CEGIS'
p276
sS'geometry'
p277
NsS'verbosity'
p278
I0
sS'timeout'
p279
F24
sS'debug'
p280
NsS'cores'
p281
I64
sg242
S'Odden_2.1_Hungarian'
p282
sS'mergeFrontiers'
p283
I00
sbsb.