(iresult
Result
p1
(dp2
S'startTime'
p3
F1555271026.9101119
sS'solutionSequence'
p4
(lp5
(ccopy_reg
_reconstructor
p6
(csolution
Solution
p7
c__builtin__
object
p8
NtRp9
(dp10
S'rules'
p11
(lp12
(irule
Rule
p13
(dp14
S'leftTriggers'
p15
(irule
Guard
p16
(dp17
S'endOfString'
p18
I00
sS'specifications'
p19
(lp20
(irule
ConstantPhoneme
p21
(dp22
S'p'
Vu
sba(irule
FeatureMatrix
p23
(dp24
S'featuresAndPolarities'
p25
(lp26
sS'representation'
p27
V[  ]
p28
sbasS'optionalEnding'
p29
I01
sg27
V{#,[  ]} u
p30
sS'starred'
p31
I00
sS'side'
p32
S'L'
sbsS'structuralChange'
p33
(irule
FeatureMatrix
p34
(dp35
g25
(lp36
(I00
S'rounded'
p37
tp38
a(I01
S'aspirated'
p39
tp40
asg27
V[ +aspirated -rounded ]
p41
sbsS'rightTriggers'
p42
(irule
Guard
p43
(dp44
g18
I00
sg19
(lp45
(irule
FeatureMatrix
p46
(dp47
g25
(lp48
(I01
S'continuant'
p49
tp50
asg27
V[ +continuant ]
p51
sbasg29
I00
sg27
g51
sg31
I00
sg32
S'R'
sbsS'focus'
p52
(irule
FeatureMatrix
p53
(dp54
g25
(lp55
sg27
V[  ]
p56
sbsg27
V[  ] ---> [ +aspirated -rounded ] / {#,[  ]} u _ [ +continuant ]
p57
sbasS'prefixes'
p58
(lp59
(imorph
Morph
p60
(dp61
S'phonemes'
p62
(lp63
sba(imorph
Morph
p64
(dp65
g62
(lp66
sba(imorph
Morph
p67
(dp68
g62
(lp69
sba(imorph
Morph
p70
(dp71
g62
(lp72
sba(imorph
Morph
p73
(dp74
g62
(lp75
sba(imorph
Morph
p76
(dp77
g62
(lp78
sba(imorph
Morph
p79
(dp80
g62
(lp81
sba(imorph
Morph
p82
(dp83
g62
(lp84
sba(imorph
Morph
p85
(dp86
g62
(lp87
sba(imorph
Morph
p88
(dp89
g62
(lp90
sba(imorph
Morph
p91
(dp92
g62
(lp93
sba(imorph
Morph
p94
(dp95
g62
(lp96
sba(imorph
Morph
p97
(dp98
g62
(lp99
sbasS'underlyingForms'
p100
(dp101
((imorph
Morph
p102
(dp103
g62
(lp104
Vp
aVa
aVm
aVm
aVa
aVn
asb(imorph
Morph
p105
(dp106
g62
(lp107
Vp
aVa
aVm
aVm
aVa
aV\u014b
aVk^h
p108
aV\u0268
aVm
asb(imorph
Morph
p109
(dp110
g62
(lp111
Vp
aVa
aVm
aVn
aVa
aVr
aV\u0268
aVm
asb(imorph
Morph
p112
(dp113
g62
(lp114
Vp
aVa
aVp
asb(imorph
Morph
p115
(dp116
g62
(lp117
Vp
aVa
aVp
aVt
aVe
aVr
aVo
asb(imorph
Morph
p118
(dp119
g62
(lp120
Vp
aVa
aVp
aVk
aVw
aVa
asb(imorph
Morph
p121
(dp122
g62
(lp123
Vp
aVa
aVp
aVp
aVo
aVt
aVa
asb(imorph
Morph
p124
(dp125
g62
(lp126
Vp
aVa
aVp
aVk
aVa
aVc\u030c
p127
aVi
asb(imorph
Morph
p128
(dp129
g62
(lp130
Vp
aVa
aVp
aVi
asb(imorph
Morph
p131
(dp132
g62
(lp133
Vp
aVa
aVp
aV\u0268
aVn
asb(imorph
Morph
p134
(dp135
g62
(lp136
Vp
aVa
aVp
aVe
asb(imorph
Morph
p137
(dp138
g62
(lp139
Vp
aVa
aVp
aVi
aVt
aVa
asb(imorph
Morph
p140
(dp141
g62
(lp142
Vp
aVa
aVp
aV\u0268
aVr
aVo
asbtp143
(imorph
Morph
p144
(dp145
g62
(lp146
Vp
aVa
asbs((imorph
Morph
p147
(dp148
g62
(lp149
Vs
aVu
aVm
aVm
aVa
aVn
asb(imorph
Morph
p150
(dp151
g62
(lp152
Vs
aVu
aVm
aVm
aVa
aV\u014b
aVk^h
p153
aV\u0268
aVm
asb(imorph
Morph
p154
(dp155
g62
(lp156
Vs
aVu
aVm
aVn
aVa
aVr
aV\u0268
aVm
asb(imorph
Morph
p157
(dp158
g62
(lp159
Vs
aVu
aVp
asb(imorph
Morph
p160
(dp161
g62
(lp162
Vs
aVu
aVp
aVt
aVe
aVr
aVo
asb(imorph
Morph
p163
(dp164
g62
(lp165
Vs
aVu
aVp
aVk
aVw
aVa
asb(imorph
Morph
p166
(dp167
g62
(lp168
Vs
aVu
aVp
aVp
aVo
aVt
aVa
asb(imorph
Morph
p169
(dp170
g62
(lp171
Vs
aVu
aVp
aVk
aVa
aVc\u030c
p172
aVi
asb(imorph
Morph
p173
(dp174
g62
(lp175
Vs
aVu
aVp^h
p176
aVi
asb(imorph
Morph
p177
(dp178
g62
(lp179
Vs
aVu
aVp^h
p180
aV\u0268
aVn
asb(imorph
Morph
p181
(dp182
g62
(lp183
Vs
aVu
aVp^h
p184
aVe
asb(imorph
Morph
p185
(dp186
g62
(lp187
Vs
aVu
aVp^h
p188
aVi
aVt
aVa
asb(imorph
Morph
p189
(dp190
g62
(lp191
Vs
aVu
aVp^h
p192
aV\u0268
aVr
aVo
asbtp193
(imorph
Morph
p194
(dp195
g62
(lp196
Vs
aVu
asbssS'suffixes'
p197
(lp198
(imorph
Morph
p199
(dp200
g62
(lp201
Vm
aVm
aVa
aVn
asba(imorph
Morph
p202
(dp203
g62
(lp204
Vm
aVm
aVa
aV\u014b
aVk^h
p205
aV\u0268
aVm
asba(imorph
Morph
p206
(dp207
g62
(lp208
Vm
aVn
aVa
aVr
aV\u0268
aVm
asba(imorph
Morph
p209
(dp210
g62
(lp211
Vp
asba(imorph
Morph
p212
(dp213
g62
(lp214
Vp
aVt
aVe
aVr
aVo
asba(imorph
Morph
p215
(dp216
g62
(lp217
Vp
aVk
aVw
aVa
asba(imorph
Morph
p218
(dp219
g62
(lp220
Vp
aVp
aVo
aVt
aVa
asba(imorph
Morph
p221
(dp222
g62
(lp223
Vp
aVk
aVa
aVc\u030c
p224
aVi
asba(imorph
Morph
p225
(dp226
g62
(lp227
Vp
aVi
asba(imorph
Morph
p228
(dp229
g62
(lp230
Vp
aV\u0268
aVn
asba(imorph
Morph
p231
(dp232
g62
(lp233
Vp
aVe
asba(imorph
Morph
p234
(dp235
g62
(lp236
Vp
aVi
aVt
aVa
asba(imorph
Morph
p237
(dp238
g62
(lp239
Vp
aV\u0268
aVr
aVo
asbasbF122.6630711555481
tp240
a(g6
(g7
g8
NtRp241
(dp242
g11
(lp243
(irule
Rule
p244
(dp245
g15
(irule
Guard
p246
(dp247
g18
I00
sg19
(lp248
(irule
ConstantPhoneme
p249
(dp250
S'p'
Vu
sbasg29
I00
sg27
Vu
sg31
I00
sg32
S'L'
sbsg33
(irule
ConstantPhoneme
p251
(dp252
S'p'
Vp^h
p253
sbsg42
(irule
Guard
p254
(dp255
g18
I00
sg19
(lp256
(irule
FeatureMatrix
p257
(dp258
g25
(lp259
(I01
S'voice'
p260
tp261
asg27
V[ +voice ]
p262
sbasg29
I00
sg27
g262
sg31
I00
sg32
S'R'
sbsg52
(irule
FeatureMatrix
p263
(dp264
g25
(lp265
sg27
V[  ]
p266
sbsg27
V[  ] ---> p^h / u _ [ +voice ]
p267
sba(irule
Rule
p268
(dp269
g15
(irule
Guard
p270
(dp271
g18
I00
sg19
(lp272
sg29
I00
sg27
V
sg31
I00
sg32
S'L'
sbsg33
(irule
ConstantPhoneme
p273
(dp274
S'p'
Vm
sbsg42
(irule
Guard
p275
(dp276
g18
I00
sg19
(lp277
(irule
FeatureMatrix
p278
(dp279
g25
(lp280
(I01
S'nasal'
p281
tp282
asg27
V[ +nasal ]
p283
sbasg29
I00
sg27
g283
sg31
I00
sg32
S'R'
sbsg52
(irule
FeatureMatrix
p284
(dp285
g25
(lp286
(I00
g260
tp287
asg27
V[ -voice ]
p288
sbsg27
V[ -voice ] ---> m /  _ [ +nasal ]
p289
sbasg58
(lp290
(imorph
Morph
p291
(dp292
g62
(lp293
sba(imorph
Morph
p294
(dp295
g62
(lp296
sba(imorph
Morph
p297
(dp298
g62
(lp299
sba(imorph
Morph
p300
(dp301
g62
(lp302
sba(imorph
Morph
p303
(dp304
g62
(lp305
sba(imorph
Morph
p306
(dp307
g62
(lp308
sba(imorph
Morph
p309
(dp310
g62
(lp311
sba(imorph
Morph
p312
(dp313
g62
(lp314
sba(imorph
Morph
p315
(dp316
g62
(lp317
sba(imorph
Morph
p318
(dp319
g62
(lp320
sba(imorph
Morph
p321
(dp322
g62
(lp323
sba(imorph
Morph
p324
(dp325
g62
(lp326
sba(imorph
Morph
p327
(dp328
g62
(lp329
sbasg100
(dp330
((imorph
Morph
p331
(dp332
g62
(lp333
Vp
aVa
aVm
aVm
aVa
aVn
asb(imorph
Morph
p334
(dp335
g62
(lp336
Vp
aVa
aVm
aVm
aVa
aV\u014b
aVk^h
p337
aV\u0268
aVm
asb(imorph
Morph
p338
(dp339
g62
(lp340
Vp
aVa
aVm
aVn
aVa
aVr
aV\u0268
aVm
asb(imorph
Morph
p341
(dp342
g62
(lp343
Vp
aVa
aVm
asb(imorph
Morph
p344
(dp345
g62
(lp346
Vp
aVa
aVm
aVt
aVe
aVr
aVo
asb(imorph
Morph
p347
(dp348
g62
(lp349
Vp
aVa
aVm
aVk
aVw
aVa
asb(imorph
Morph
p350
(dp351
g62
(lp352
Vp
aVa
aVm
aVp
aVo
aVt
aVa
asb(imorph
Morph
p353
(dp354
g62
(lp355
Vp
aVa
aVm
aVk
aVa
aVc\u030c
p356
aVi
asb(imorph
Morph
p357
(dp358
g62
(lp359
Vp
aVa
aVm
aVi
asb(imorph
Morph
p360
(dp361
g62
(lp362
Vp
aVa
aVm
aV\u0268
aVn
asb(imorph
Morph
p363
(dp364
g62
(lp365
Vp
aVa
aVm
aVe
asb(imorph
Morph
p366
(dp367
g62
(lp368
Vp
aVa
aVm
aVi
aVt
aVa
asb(imorph
Morph
p369
(dp370
g62
(lp371
Vp
aVa
aVm
aV\u0268
aVr
aVo
asbtp372
(imorph
Morph
p373
(dp374
g62
(lp375
Vp
aVa
aVm
asbs(g102
g105
g109
g112
g115
g118
g121
g124
g128
g131
g134
g137
g140
tp376
(imorph
Morph
p377
(dp378
g62
(lp379
Vp
aVa
aVp
asbs(g147
g150
g154
g157
g160
g163
g166
g169
g173
g177
g181
g185
g189
tp380
(imorph
Morph
p381
(dp382
g62
(lp383
Vs
aVu
aVp
asbssg197
(lp384
(imorph
Morph
p385
(dp386
g62
(lp387
Vm
aVa
aVn
asba(imorph
Morph
p388
(dp389
g62
(lp390
Vm
aVa
aV\u014b
ag205
aV\u0268
aVm
asba(imorph
Morph
p391
(dp392
g62
(lp393
Vn
aVa
aVr
aV\u0268
aVm
asba(imorph
Morph
p394
(dp395
g62
(lp396
sba(imorph
Morph
p397
(dp398
g62
(lp399
Vt
aVe
aVr
aVo
asba(imorph
Morph
p400
(dp401
g62
(lp402
Vk
aVw
aVa
asba(imorph
Morph
p403
(dp404
g62
(lp405
Vp
aVo
aVt
aVa
asba(imorph
Morph
p406
(dp407
g62
(lp408
Vk
aVa
ag224
aVi
asba(imorph
Morph
p409
(dp410
g62
(lp411
Vi
asba(imorph
Morph
p412
(dp413
g62
(lp414
V\u0268
aVn
asba(imorph
Morph
p415
(dp416
g62
(lp417
Ve
asba(imorph
Morph
p418
(dp419
g62
(lp420
Vi
aVt
aVa
asba(imorph
Morph
p421
(dp422
g62
(lp423
V\u0268
aVr
aVo
asbasbF12209.501926183701
tp424
asS'problem'
p425
S'Odden_3.7_Korean'
p426
sS'finalFrontier'
p427
g6
(csolution
Frontier
p428
g8
NtRp429
(dp430
g58
g290
sg197
g384
sg100
g330
sS'frontiers'
p431
(lp432
(lp433
(irule
Rule
p434
(dp435
g15
(irule
Guard
p436
(dp437
g18
I00
sg19
(lp438
(irule
ConstantPhoneme
p439
(dp440
S'p'
Vu
sbasg29
I00
sg27
Vu
sg31
I00
sg32
S'L'
sbsg33
(irule
ConstantPhoneme
p441
(dp442
S'p'
Vp^h
p443
sbsg42
(irule
Guard
p444
(dp445
g18
I00
sg19
(lp446
(irule
FeatureMatrix
p447
(dp448
g25
(lp449
(I01
S'voice'
tp450
asg27
V[ +voice ]
p451
sbasg29
I00
sg27
g451
sg31
I00
sg32
S'R'
sbsg52
(irule
FeatureMatrix
p452
(dp453
g25
(lp454
sg27
V[  ]
p455
sbsg27
V[  ] ---> p^h / u _ [ +voice ]
p456
sba(irule
Rule
p457
(dp458
g15
(irule
Guard
p459
(dp460
g18
I00
sg19
(lp461
(irule
ConstantPhoneme
p462
(dp463
S'p'
Vu
sbasg29
I00
sg27
Nsg31
I00
sg32
S'L'
sbsg33
(irule
ConstantPhoneme
p464
(dp465
S'p'
Vp^h
p466
sbsg42
(irule
Guard
p467
(dp468
g18
I00
sg19
(lp469
(irule
FeatureMatrix
p470
(dp471
g25
(lp472
(I01
S'sonorant'
p473
tp474
asg27
Nsbasg29
I00
sg27
Nsg31
I00
sg32
S'R'
sbsg52
(irule
FeatureMatrix
p475
(dp476
g25
(lp477
sg27
Nsbsg27
Nsba(irule
Rule
p478
(dp479
g15
(irule
Guard
p480
(dp481
g18
I00
sg19
(lp482
(irule
ConstantPhoneme
p483
(dp484
S'p'
Vu
sbasg29
I00
sg27
Nsg31
I00
sg32
S'L'
sbsg33
(irule
FeatureMatrix
p485
(dp486
g25
(lp487
(I01
S'aspirated'
p488
tp489
asg27
Nsbsg42
(irule
Guard
p490
(dp491
g18
I00
sg19
(lp492
(irule
FeatureMatrix
p493
(dp494
g25
(lp495
(I01
g473
tp496
asg27
Nsbasg29
I00
sg27
Nsg31
I00
sg32
S'R'
sbsg52
(irule
FeatureMatrix
p497
(dp498
g25
(lp499
sg27
Nsbsg27
Nsba(irule
Rule
p500
(dp501
g15
(irule
Guard
p502
(dp503
g18
I00
sg19
(lp504
(irule
ConstantPhoneme
p505
(dp506
S'p'
Vu
sbasg29
I00
sg27
Nsg31
I00
sg32
S'L'
sbsg33
(irule
FeatureMatrix
p507
(dp508
g25
(lp509
(I01
g488
tp510
asg27
Nsbsg42
(irule
Guard
p511
(dp512
g18
I00
sg19
(lp513
(irule
FeatureMatrix
p514
(dp515
g25
(lp516
(I01
S'voice'
p517
tp518
asg27
Nsbasg29
I00
sg27
Nsg31
I00
sg32
S'R'
sbsg52
(irule
FeatureMatrix
p519
(dp520
g25
(lp521
sg27
Nsbsg27
Nsba(irule
Rule
p522
(dp523
g15
(irule
Guard
p524
(dp525
g18
I00
sg19
(lp526
(irule
ConstantPhoneme
p527
(dp528
S'p'
Vu
sba(irule
FeatureMatrix
p529
(dp530
g25
(lp531
sg27
Nsbasg29
I00
sg27
Nsg31
I00
sg32
S'L'
sbsg33
(irule
ConstantPhoneme
p532
(dp533
S'p'
g466
sbsg42
(irule
Guard
p534
(dp535
g18
I00
sg19
(lp536
(irule
FeatureMatrix
p537
(dp538
g25
(lp539
(I01
g473
tp540
asg27
Nsbasg29
I00
sg27
Nsg31
I00
sg32
S'R'
sbsg52
(irule
FeatureMatrix
p541
(dp542
g25
(lp543
sg27
Nsbsg27
Nsba(irule
Rule
p544
(dp545
g15
(irule
Guard
p546
(dp547
g18
I00
sg19
(lp548
(irule
ConstantPhoneme
p549
(dp550
S'p'
Vu
sbasg29
I00
sg27
Nsg31
I00
sg32
S'L'
sbsg33
(irule
ConstantPhoneme
p551
(dp552
S'p'
g466
sbsg42
(irule
Guard
p553
(dp554
g18
I00
sg19
(lp555
(irule
FeatureMatrix
p556
(dp557
g25
(lp558
(I00
S'liquid'
p559
tp560
a(I01
g473
tp561
asg27
Nsbasg29
I00
sg27
Nsg31
I00
sg32
S'R'
sbsg52
(irule
FeatureMatrix
p562
(dp563
g25
(lp564
sg27
Nsbsg27
Nsba(irule
Rule
p565
(dp566
g15
(irule
Guard
p567
(dp568
g18
I00
sg19
(lp569
(irule
ConstantPhoneme
p570
(dp571
S'p'
Vu
sbasg29
I00
sg27
Nsg31
I00
sg32
S'L'
sbsg33
(irule
ConstantPhoneme
p572
(dp573
S'p'
g466
sbsg42
(irule
Guard
p574
(dp575
g18
I00
sg19
(lp576
(irule
FeatureMatrix
p577
(dp578
g25
(lp579
(I00
S'low'
p580
tp581
a(I01
g517
tp582
asg27
Nsbasg29
I00
sg27
Nsg31
I00
sg32
S'R'
sbsg52
(irule
FeatureMatrix
p583
(dp584
g25
(lp585
sg27
Nsbsg27
Nsba(irule
Rule
p586
(dp587
g15
(irule
Guard
p588
(dp589
g18
I00
sg19
(lp590
(irule
ConstantPhoneme
p591
(dp592
S'p'
Vu
sba(irule
FeatureMatrix
p593
(dp594
g25
(lp595
sg27
Nsbasg29
I00
sg27
Nsg31
I00
sg32
S'L'
sbsg33
(irule
ConstantPhoneme
p596
(dp597
S'p'
g466
sbsg42
(irule
Guard
p598
(dp599
g18
I00
sg19
(lp600
(irule
FeatureMatrix
p601
(dp602
g25
(lp603
(I01
g517
tp604
asg27
Nsbasg29
I00
sg27
Nsg31
I00
sg32
S'R'
sbsg52
(irule
FeatureMatrix
p605
(dp606
g25
(lp607
sg27
Nsbsg27
Nsba(irule
Rule
p608
(dp609
g15
(irule
Guard
p610
(dp611
g18
I00
sg19
(lp612
(irule
FeatureMatrix
p613
(dp614
g25
(lp615
(I01
S'rounded'
p616
tp617
asg27
Nsbasg29
I00
sg27
Nsg31
I00
sg32
S'L'
sbsg33
(irule
ConstantPhoneme
p618
(dp619
S'p'
g466
sbsg42
(irule
Guard
p620
(dp621
g18
I00
sg19
(lp622
(irule
FeatureMatrix
p623
(dp624
g25
(lp625
(I01
g473
tp626
a(I00
g580
tp627
asg27
Nsbasg29
I00
sg27
Nsg31
I00
sg32
S'R'
sbsg52
(irule
FeatureMatrix
p628
(dp629
g25
(lp630
sg27
Nsbsg27
Nsba(irule
Rule
p631
(dp632
g15
(irule
Guard
p633
(dp634
g18
I00
sg19
(lp635
(irule
ConstantPhoneme
p636
(dp637
S'p'
Vu
sbasg29
I00
sg27
Nsg31
I00
sg32
S'L'
sbsg33
(irule
ConstantPhoneme
p638
(dp639
S'p'
g466
sbsg42
(irule
Guard
p640
(dp641
g18
I00
sg19
(lp642
(irule
FeatureMatrix
p643
(dp644
g25
(lp645
(I00
g559
tp646
a(I01
g517
tp647
asg27
Nsbasg29
I00
sg27
Nsg31
I00
sg32
S'R'
sbsg52
(irule
FeatureMatrix
p648
(dp649
g25
(lp650
sg27
Nsbsg27
Nsba(irule
Rule
p651
(dp652
g15
(irule
Guard
p653
(dp654
g18
I00
sg19
(lp655
(irule
ConstantPhoneme
p656
(dp657
S'p'
Vu
sbasg29
I00
sg27
Nsg31
I00
sg32
S'L'
sbsg33
(irule
FeatureMatrix
p658
(dp659
g25
(lp660
(I01
g488
tp661
asg27
Nsbsg42
(irule
Guard
p662
(dp663
g18
I00
sg19
(lp664
(irule
FeatureMatrix
p665
(dp666
g25
(lp667
(I01
g473
tp668
asg27
Nsbasg29
I00
sg27
Nsg31
I00
sg32
S'R'
sbsg52
(irule
FeatureMatrix
p669
(dp670
g25
(lp671
(I00
g517
tp672
asg27
Nsbsg27
Nsba(irule
Rule
p673
(dp674
g15
(irule
Guard
p675
(dp676
g18
I00
sg19
(lp677
(irule
ConstantPhoneme
p678
(dp679
S'p'
Vu
sbasg29
I00
sg27
Nsg31
I00
sg32
S'L'
sbsg33
(irule
FeatureMatrix
p680
(dp681
g25
(lp682
(I01
g488
tp683
asg27
Nsbsg42
(irule
Guard
p684
(dp685
g18
I00
sg19
(lp686
(irule
FeatureMatrix
p687
(dp688
g25
(lp689
(I00
g559
tp690
a(I01
g473
tp691
asg27
Nsbasg29
I00
sg27
Nsg31
I00
sg32
S'R'
sbsg52
(irule
FeatureMatrix
p692
(dp693
g25
(lp694
sg27
Nsbsg27
Nsba(irule
Rule
p695
(dp696
g15
(irule
Guard
p697
(dp698
g18
I00
sg19
(lp699
(irule
ConstantPhoneme
p700
(dp701
S'p'
Vu
sbasg29
I00
sg27
Nsg31
I00
sg32
S'L'
sbsg33
(irule
ConstantPhoneme
p702
(dp703
S'p'
g466
sbsg42
(irule
Guard
p704
(dp705
g18
I00
sg19
(lp706
(irule
FeatureMatrix
p707
(dp708
g25
(lp709
(I00
S'sibilant'
p710
tp711
a(I01
g517
tp712
asg27
Nsbasg29
I00
sg27
Nsg31
I00
sg32
S'R'
sbsg52
(irule
FeatureMatrix
p713
(dp714
g25
(lp715
sg27
Nsbsg27
Nsba(irule
Rule
p716
(dp717
g15
(irule
Guard
p718
(dp719
g18
I00
sg19
(lp720
(irule
ConstantPhoneme
p721
(dp722
S'p'
Vu
sbasg29
I00
sg27
Nsg31
I00
sg32
S'L'
sbsg33
(irule
FeatureMatrix
p723
(dp724
g25
(lp725
(I01
g488
tp726
asg27
Nsbsg42
(irule
Guard
p727
(dp728
g18
I00
sg19
(lp729
(irule
FeatureMatrix
p730
(dp731
g25
(lp732
(I00
g616
tp733
a(I01
g473
tp734
asg27
Nsbasg29
I00
sg27
Nsg31
I00
sg32
S'R'
sbsg52
(irule
FeatureMatrix
p735
(dp736
g25
(lp737
sg27
Nsbsg27
Nsba(irule
Rule
p738
(dp739
g15
(irule
Guard
p740
(dp741
g18
I00
sg19
(lp742
(irule
ConstantPhoneme
p743
(dp744
S'p'
Vu
sbasg29
I00
sg27
Nsg31
I00
sg32
S'L'
sbsg33
(irule
ConstantPhoneme
p745
(dp746
S'p'
g466
sbsg42
(irule
Guard
p747
(dp748
g18
I00
sg19
(lp749
(irule
FeatureMatrix
p750
(dp751
g25
(lp752
(I00
S'glide'
p753
tp754
a(I01
g473
tp755
asg27
Nsbasg29
I00
sg27
Nsg31
I00
sg32
S'R'
sbsg52
(irule
FeatureMatrix
p756
(dp757
g25
(lp758
sg27
Nsbsg27
Nsba(irule
Rule
p759
(dp760
g15
(irule
Guard
p761
(dp762
g18
I00
sg19
(lp763
(irule
FeatureMatrix
p764
(dp765
g25
(lp766
(I01
g616
tp767
a(I00
g580
tp768
asg27
Nsbasg29
I00
sg27
Nsg31
I00
sg32
S'L'
sbsg33
(irule
ConstantPhoneme
p769
(dp770
S'p'
g466
sbsg42
(irule
Guard
p771
(dp772
g18
I00
sg19
(lp773
(irule
FeatureMatrix
p774
(dp775
g25
(lp776
(I01
g473
tp777
asg27
Nsbasg29
I00
sg27
Nsg31
I00
sg32
S'R'
sbsg52
(irule
FeatureMatrix
p778
(dp779
g25
(lp780
sg27
Nsbsg27
Nsba(irule
Rule
p781
(dp782
g15
(irule
Guard
p783
(dp784
g18
I00
sg19
(lp785
(irule
ConstantPhoneme
p786
(dp787
S'p'
Vu
sbasg29
I00
sg27
Nsg31
I00
sg32
S'L'
sbsg33
(irule
ConstantPhoneme
p788
(dp789
S'p'
g466
sbsg42
(irule
Guard
p790
(dp791
g18
I00
sg19
(lp792
(irule
FeatureMatrix
p793
(dp794
g25
(lp795
(I01
g473
tp796
a(I00
g580
tp797
asg27
Nsbasg29
I00
sg27
Nsg31
I00
sg32
S'R'
sbsg52
(irule
FeatureMatrix
p798
(dp799
g25
(lp800
sg27
Nsbsg27
Nsba(irule
Rule
p801
(dp802
g15
(irule
Guard
p803
(dp804
g18
I00
sg19
(lp805
(irule
FeatureMatrix
p806
(dp807
g25
(lp808
(I01
g616
tp809
asg27
Nsbasg29
I00
sg27
Nsg31
I00
sg32
S'L'
sbsg33
(irule
ConstantPhoneme
p810
(dp811
S'p'
g466
sbsg42
(irule
Guard
p812
(dp813
g18
I00
sg19
(lp814
(irule
FeatureMatrix
p815
(dp816
g25
(lp817
(I00
g580
tp818
a(I01
g517
tp819
asg27
Nsbasg29
I00
sg27
Nsg31
I00
sg32
S'R'
sbsg52
(irule
FeatureMatrix
p820
(dp821
g25
(lp822
sg27
Nsbsg27
Nsba(irule
Rule
p823
(dp824
g15
(irule
Guard
p825
(dp826
g18
I00
sg19
(lp827
(irule
FeatureMatrix
p828
(dp829
g25
(lp830
(I01
g616
tp831
a(I00
g580
tp832
asg27
Nsbasg29
I00
sg27
Nsg31
I00
sg32
S'L'
sbsg33
(irule
ConstantPhoneme
p833
(dp834
S'p'
g466
sbsg42
(irule
Guard
p835
(dp836
g18
I00
sg19
(lp837
(irule
FeatureMatrix
p838
(dp839
g25
(lp840
(I01
g517
tp841
asg27
Nsbasg29
I00
sg27
Nsg31
I00
sg32
S'R'
sbsg52
(irule
FeatureMatrix
p842
(dp843
g25
(lp844
sg27
Nsbsg27
Nsba(irule
Rule
p845
(dp846
g15
(irule
Guard
p847
(dp848
g18
I00
sg19
(lp849
(irule
ConstantPhoneme
p850
(dp851
S'p'
Vu
sbasg29
I00
sg27
Nsg31
I00
sg32
S'L'
sbsg33
(irule
ConstantPhoneme
p852
(dp853
S'p'
g466
sbsg42
(irule
Guard
p854
(dp855
g18
I00
sg19
(lp856
(irule
FeatureMatrix
p857
(dp858
g25
(lp859
(I01
g473
tp860
asg27
Nsbasg29
I00
sg27
Nsg31
I00
sg32
S'R'
sbsg52
(irule
FeatureMatrix
p861
(dp862
g25
(lp863
(I00
g517
tp864
asg27
Nsbsg27
Nsba(irule
Rule
p865
(dp866
g15
(irule
Guard
p867
(dp868
g18
I00
sg19
(lp869
(irule
FeatureMatrix
p870
(dp871
g25
(lp872
sg27
Nsba(irule
FeatureMatrix
p873
(dp874
g25
(lp875
(I01
g710
tp876
asg27
Nsbasg29
I00
sg27
Nsg31
I00
sg32
S'L'
sbsg33
(irule
FeatureMatrix
p877
(dp878
g25
(lp879
(I01
g488
tp880
asg27
Nsbsg42
(irule
Guard
p881
(dp882
g18
I00
sg19
(lp883
(irule
FeatureMatrix
p884
(dp885
g25
(lp886
(I01
g473
tp887
asg27
Nsbasg29
I00
sg27
Nsg31
I00
sg32
S'R'
sbsg52
(irule
FeatureMatrix
p888
(dp889
g25
(lp890
sg27
Nsbsg27
Nsba(irule
Rule
p891
(dp892
g15
(irule
Guard
p893
(dp894
g18
I00
sg19
(lp895
(irule
FeatureMatrix
p896
(dp897
g25
(lp898
sg27
Nsba(irule
FeatureMatrix
p899
(dp900
g25
(lp901
(I01
g710
tp902
asg27
Nsbasg29
I00
sg27
Nsg31
I00
sg32
S'L'
sbsg33
(irule
ConstantPhoneme
p903
(dp904
S'p'
g466
sbsg42
(irule
Guard
p905
(dp906
g18
I00
sg19
(lp907
(irule
FeatureMatrix
p908
(dp909
g25
(lp910
(I01
g473
tp911
asg27
Nsbasg29
I00
sg27
Nsg31
I00
sg32
S'R'
sbsg52
(irule
FeatureMatrix
p912
(dp913
g25
(lp914
sg27
Nsbsg27
Nsba(irule
Rule
p915
(dp916
g15
(irule
Guard
p917
(dp918
g18
I00
sg19
(lp919
(irule
ConstantPhoneme
p920
(dp921
S'p'
Vu
sbasg29
I00
sg27
Nsg31
I00
sg32
S'L'
sbsg33
(irule
ConstantPhoneme
p922
(dp923
S'p'
g466
sbsg42
(irule
Guard
p924
(dp925
g18
I00
sg19
(lp926
(irule
FeatureMatrix
p927
(dp928
g25
(lp929
(I00
g616
tp930
a(I01
g473
tp931
asg27
Nsbasg29
I00
sg27
Nsg31
I00
sg32
S'R'
sbsg52
(irule
FeatureMatrix
p932
(dp933
g25
(lp934
sg27
Nsbsg27
Nsba(irule
Rule
p935
(dp936
g15
(irule
Guard
p937
(dp938
g18
I00
sg19
(lp939
(irule
FeatureMatrix
p940
(dp941
g25
(lp942
(I01
S'high'
p943
tp944
asg27
Nsbasg29
I00
sg27
Nsg31
I00
sg32
S'L'
sbsg33
(irule
FeatureMatrix
p945
(dp946
g25
(lp947
(I01
g488
tp948
asg27
Nsbsg42
(irule
Guard
p949
(dp950
g18
I00
sg19
(lp951
(irule
FeatureMatrix
p952
(dp953
g25
(lp954
(I01
g473
tp955
asg27
Nsbasg29
I00
sg27
Nsg31
I00
sg32
S'R'
sbsg52
(irule
ConstantPhoneme
p956
(dp957
S'p'
Vp
sbsg27
Nsba(irule
Rule
p958
(dp959
g15
(irule
Guard
p960
(dp961
g18
I00
sg19
(lp962
(irule
ConstantPhoneme
p963
(dp964
S'p'
Vu
sba(irule
FeatureMatrix
p965
(dp966
g25
(lp967
sg27
Nsbasg29
I00
sg27
Nsg31
I00
sg32
S'L'
sbsg33
(irule
FeatureMatrix
p968
(dp969
g25
(lp970
(I01
g488
tp971
asg27
Nsbsg42
(irule
Guard
p972
(dp973
g18
I00
sg19
(lp974
(irule
FeatureMatrix
p975
(dp976
g25
(lp977
(I01
g473
tp978
asg27
Nsbasg29
I00
sg27
Nsg31
I00
sg32
S'R'
sbsg52
(irule
FeatureMatrix
p979
(dp980
g25
(lp981
sg27
Nsbsg27
Nsba(irule
Rule
p982
(dp983
g15
(irule
Guard
p984
(dp985
g18
I00
sg19
(lp986
(irule
ConstantPhoneme
p987
(dp988
S'p'
Vu
sbasg29
I00
sg27
Nsg31
I00
sg32
S'L'
sbsg33
(irule
ConstantPhoneme
p989
(dp990
S'p'
g466
sbsg42
(irule
Guard
p991
(dp992
g18
I00
sg19
(lp993
(irule
FeatureMatrix
p994
(dp995
g25
(lp996
(I01
g473
tp997
asg27
Nsbasg29
I00
sg27
Nsg31
I00
sg32
S'R'
sbsg52
(irule
FeatureMatrix
p998
(dp999
g25
(lp1000
(I00
S'tense'
p1001
tp1002
asg27
Nsbsg27
Nsba(irule
Rule
p1003
(dp1004
g15
(irule
Guard
p1005
(dp1006
g18
I00
sg19
(lp1007
(irule
FeatureMatrix
p1008
(dp1009
g25
(lp1010
(I01
g616
tp1011
a(I01
g943
tp1012
asg27
Nsbasg29
I00
sg27
Nsg31
I00
sg32
S'L'
sbsg33
(irule
ConstantPhoneme
p1013
(dp1014
S'p'
g466
sbsg42
(irule
Guard
p1015
(dp1016
g18
I00
sg19
(lp1017
(irule
FeatureMatrix
p1018
(dp1019
g25
(lp1020
(I01
g473
tp1021
asg27
Nsbasg29
I00
sg27
Nsg31
I00
sg32
S'R'
sbsg52
(irule
FeatureMatrix
p1022
(dp1023
g25
(lp1024
sg27
Nsbsg27
Nsba(irule
Rule
p1025
(dp1026
g15
(irule
Guard
p1027
(dp1028
g18
I00
sg19
(lp1029
(irule
ConstantPhoneme
p1030
(dp1031
S'p'
Vu
sbasg29
I00
sg27
Nsg31
I00
sg32
S'L'
sbsg33
(irule
ConstantPhoneme
p1032
(dp1033
S'p'
g466
sbsg42
(irule
Guard
p1034
(dp1035
g18
I00
sg19
(lp1036
(irule
FeatureMatrix
p1037
(dp1038
g25
(lp1039
(I01
g473
tp1040
a(I01
g517
tp1041
asg27
Nsbasg29
I00
sg27
Nsg31
I00
sg32
S'R'
sbsg52
(irule
FeatureMatrix
p1042
(dp1043
g25
(lp1044
sg27
Nsbsg27
Nsba(irule
Rule
p1045
(dp1046
g15
(irule
Guard
p1047
(dp1048
g18
I00
sg19
(lp1049
(irule
ConstantPhoneme
p1050
(dp1051
S'p'
Vu
sbasg29
I00
sg27
Nsg31
I00
sg32
S'L'
sbsg33
(irule
ConstantPhoneme
p1052
(dp1053
S'p'
g466
sbsg42
(irule
Guard
p1054
(dp1055
g18
I00
sg19
(lp1056
(irule
FeatureMatrix
p1057
(dp1058
g25
(lp1059
(I01
g473
tp1060
asg27
Nsbasg29
I00
sg27
Nsg31
I00
sg32
S'R'
sbsg52
(irule
FeatureMatrix
p1061
(dp1062
g25
(lp1063
(I00
g710
tp1064
asg27
Nsbsg27
Nsba(irule
Rule
p1065
(dp1066
g15
(irule
Guard
p1067
(dp1068
g18
I00
sg19
(lp1069
(irule
FeatureMatrix
p1070
(dp1071
g25
(lp1072
sg27
Nsba(irule
ConstantPhoneme
p1073
(dp1074
S'p'
Vs
sbasg29
I00
sg27
Nsg31
I00
sg32
S'L'
sbsg33
(irule
ConstantPhoneme
p1075
(dp1076
S'p'
g466
sbsg42
(irule
Guard
p1077
(dp1078
g18
I00
sg19
(lp1079
(irule
FeatureMatrix
p1080
(dp1081
g25
(lp1082
(I01
g473
tp1083
asg27
Nsbasg29
I00
sg27
Nsg31
I00
sg32
S'R'
sbsg52
(irule
FeatureMatrix
p1084
(dp1085
g25
(lp1086
sg27
Nsbsg27
Nsba(irule
Rule
p1087
(dp1088
g15
(irule
Guard
p1089
(dp1090
g18
I00
sg19
(lp1091
(irule
FeatureMatrix
p1092
(dp1093
g25
(lp1094
sg27
Nsba(irule
ConstantPhoneme
p1095
(dp1096
S'p'
Vs
sbasg29
I00
sg27
Nsg31
I00
sg32
S'L'
sbsg33
(irule
FeatureMatrix
p1097
(dp1098
g25
(lp1099
(I01
g488
tp1100
asg27
Nsbsg42
(irule
Guard
p1101
(dp1102
g18
I00
sg19
(lp1103
(irule
FeatureMatrix
p1104
(dp1105
g25
(lp1106
(I01
g473
tp1107
asg27
Nsbasg29
I00
sg27
Nsg31
I00
sg32
S'R'
sbsg52
(irule
FeatureMatrix
p1108
(dp1109
g25
(lp1110
sg27
Nsbsg27
Nsba(irule
Rule
p1111
(dp1112
g15
(irule
Guard
p1113
(dp1114
g18
I00
sg19
(lp1115
(irule
FeatureMatrix
p1116
(dp1117
g25
(lp1118
sg27
Nsba(irule
FeatureMatrix
p1119
(dp1120
g25
(lp1121
(I01
g710
tp1122
asg27
Nsbasg29
I00
sg27
Nsg31
I00
sg32
S'L'
sbsg33
(irule
ConstantPhoneme
p1123
(dp1124
S'p'
g466
sbsg42
(irule
Guard
p1125
(dp1126
g18
I00
sg19
(lp1127
(irule
FeatureMatrix
p1128
(dp1129
g25
(lp1130
(I01
g517
tp1131
asg27
Nsbasg29
I00
sg27
Nsg31
I00
sg32
S'R'
sbsg52
(irule
FeatureMatrix
p1132
(dp1133
g25
(lp1134
sg27
Nsbsg27
Nsba(irule
Rule
p1135
(dp1136
g15
(irule
Guard
p1137
(dp1138
g18
I00
sg19
(lp1139
(irule
ConstantPhoneme
p1140
(dp1141
S'p'
Vu
sbasg29
I00
sg27
Nsg31
I00
sg32
S'L'
sbsg33
(irule
FeatureMatrix
p1142
(dp1143
g25
(lp1144
(I01
g488
tp1145
a(I00
S'vowel'
p1146
tp1147
asg27
Nsbsg42
(irule
Guard
p1148
(dp1149
g18
I00
sg19
(lp1150
(irule
FeatureMatrix
p1151
(dp1152
g25
(lp1153
(I01
g473
tp1154
asg27
Nsbasg29
I00
sg27
Nsg31
I00
sg32
S'R'
sbsg52
(irule
FeatureMatrix
p1155
(dp1156
g25
(lp1157
sg27
Nsbsg27
Nsba(irule
Rule
p1158
(dp1159
g15
(irule
Guard
p1160
(dp1161
g18
I00
sg19
(lp1162
(irule
FeatureMatrix
p1163
(dp1164
g25
(lp1165
(I01
g616
tp1166
asg27
Nsbasg29
I00
sg27
Nsg31
I00
sg32
S'L'
sbsg33
(irule
FeatureMatrix
p1167
(dp1168
g25
(lp1169
(I01
g488
tp1170
asg27
Nsbsg42
(irule
Guard
p1171
(dp1172
g18
I00
sg19
(lp1173
(irule
FeatureMatrix
p1174
(dp1175
g25
(lp1176
(I01
g473
tp1177
a(I00
g580
tp1178
asg27
Nsbasg29
I00
sg27
Nsg31
I00
sg32
S'R'
sbsg52
(irule
FeatureMatrix
p1179
(dp1180
g25
(lp1181
sg27
Nsbsg27
Nsba(irule
Rule
p1182
(dp1183
g15
(irule
Guard
p1184
(dp1185
g18
I00
sg19
(lp1186
(irule
ConstantPhoneme
p1187
(dp1188
S'p'
Vu
sbasg29
I00
sg27
Nsg31
I00
sg32
S'L'
sbsg33
(irule
FeatureMatrix
p1189
(dp1190
g25
(lp1191
(I01
g488
tp1192
a(I00
S'back'
p1193
tp1194
asg27
Nsbsg42
(irule
Guard
p1195
(dp1196
g18
I00
sg19
(lp1197
(irule
FeatureMatrix
p1198
(dp1199
g25
(lp1200
(I01
g473
tp1201
asg27
Nsbasg29
I00
sg27
Nsg31
I00
sg32
S'R'
sbsg52
(irule
FeatureMatrix
p1202
(dp1203
g25
(lp1204
sg27
Nsbsg27
Nsba(irule
Rule
p1205
(dp1206
g15
(irule
Guard
p1207
(dp1208
g18
I00
sg19
(lp1209
(irule
FeatureMatrix
p1210
(dp1211
g25
(lp1212
sg27
Nsba(irule
FeatureMatrix
p1213
(dp1214
g25
(lp1215
(I01
g710
tp1216
asg27
Nsbasg29
I00
sg27
Nsg31
I00
sg32
S'L'
sbsg33
(irule
FeatureMatrix
p1217
(dp1218
g25
(lp1219
(I01
g488
tp1220
asg27
Nsbsg42
(irule
Guard
p1221
(dp1222
g18
I00
sg19
(lp1223
(irule
FeatureMatrix
p1224
(dp1225
g25
(lp1226
(I01
g517
tp1227
asg27
Nsbasg29
I00
sg27
Nsg31
I00
sg32
S'R'
sbsg52
(irule
FeatureMatrix
p1228
(dp1229
g25
(lp1230
sg27
Nsbsg27
Nsba(irule
Rule
p1231
(dp1232
g15
(irule
Guard
p1233
(dp1234
g18
I00
sg19
(lp1235
(irule
FeatureMatrix
p1236
(dp1237
g25
(lp1238
sg27
Nsba(irule
ConstantPhoneme
p1239
(dp1240
S'p'
Vs
sbasg29
I00
sg27
Nsg31
I00
sg32
S'L'
sbsg33
(irule
ConstantPhoneme
p1241
(dp1242
S'p'
g466
sbsg42
(irule
Guard
p1243
(dp1244
g18
I00
sg19
(lp1245
(irule
FeatureMatrix
p1246
(dp1247
g25
(lp1248
(I01
g517
tp1249
asg27
Nsbasg29
I00
sg27
Nsg31
I00
sg32
S'R'
sbsg52
(irule
FeatureMatrix
p1250
(dp1251
g25
(lp1252
sg27
Nsbsg27
Nsba(irule
Rule
p1253
(dp1254
g15
(irule
Guard
p1255
(dp1256
g18
I00
sg19
(lp1257
(irule
ConstantPhoneme
p1258
(dp1259
S'p'
Vu
sbasg29
I00
sg27
Nsg31
I00
sg32
S'L'
sbsg33
(irule
ConstantPhoneme
p1260
(dp1261
S'p'
g466
sbsg42
(irule
Guard
p1262
(dp1263
g18
I00
sg19
(lp1264
(irule
FeatureMatrix
p1265
(dp1266
g25
(lp1267
(I00
g488
tp1268
a(I01
g473
tp1269
asg27
Nsbasg29
I00
sg27
Nsg31
I00
sg32
S'R'
sbsg52
(irule
FeatureMatrix
p1270
(dp1271
g25
(lp1272
sg27
Nsbsg27
Nsba(irule
Rule
p1273
(dp1274
g15
(irule
Guard
p1275
(dp1276
g18
I00
sg19
(lp1277
(irule
FeatureMatrix
p1278
(dp1279
g25
(lp1280
(I01
g616
tp1281
asg27
Nsbasg29
I00
sg27
Nsg31
I00
sg32
S'L'
sbsg33
(irule
ConstantPhoneme
p1282
(dp1283
S'p'
g466
sbsg42
(irule
Guard
p1284
(dp1285
g18
I00
sg19
(lp1286
(irule
FeatureMatrix
p1287
(dp1288
g25
(lp1289
(I01
g473
tp1290
asg27
Nsbasg29
I00
sg27
Nsg31
I00
sg32
S'R'
sbsg52
(irule
FeatureMatrix
p1291
(dp1292
g25
(lp1293
(I00
S'coronal'
p1294
tp1295
asg27
Nsbsg27
Nsba(irule
Rule
p1296
(dp1297
g15
(irule
Guard
p1298
(dp1299
g18
I00
sg19
(lp1300
(irule
FeatureMatrix
p1301
(dp1302
g25
(lp1303
(I01
g616
tp1304
asg27
Nsbasg29
I00
sg27
Nsg31
I00
sg32
S'L'
sbsg33
(irule
FeatureMatrix
p1305
(dp1306
g25
(lp1307
(I01
g488
tp1308
asg27
Nsbsg42
(irule
Guard
p1309
(dp1310
g18
I00
sg19
(lp1311
(irule
FeatureMatrix
p1312
(dp1313
g25
(lp1314
(I00
g580
tp1315
a(I01
g517
tp1316
asg27
Nsbasg29
I00
sg27
Nsg31
I00
sg32
S'R'
sbsg52
(irule
FeatureMatrix
p1317
(dp1318
g25
(lp1319
sg27
Nsbsg27
Nsba(irule
Rule
p1320
(dp1321
g15
(irule
Guard
p1322
(dp1323
g18
I00
sg19
(lp1324
(irule
FeatureMatrix
p1325
(dp1326
g25
(lp1327
(I01
g616
tp1328
a(I00
g580
tp1329
asg27
Nsbasg29
I00
sg27
Nsg31
I00
sg32
S'L'
sbsg33
(irule
FeatureMatrix
p1330
(dp1331
g25
(lp1332
(I01
g488
tp1333
asg27
Nsbsg42
(irule
Guard
p1334
(dp1335
g18
I00
sg19
(lp1336
(irule
FeatureMatrix
p1337
(dp1338
g25
(lp1339
(I01
g473
tp1340
asg27
Nsbasg29
I00
sg27
Nsg31
I00
sg32
S'R'
sbsg52
(irule
FeatureMatrix
p1341
(dp1342
g25
(lp1343
sg27
Nsbsg27
Nsba(irule
Rule
p1344
(dp1345
g15
(irule
Guard
p1346
(dp1347
g18
I00
sg19
(lp1348
(irule
FeatureMatrix
p1349
(dp1350
g25
(lp1351
(I01
g616
tp1352
asg27
Nsbasg29
I00
sg27
Nsg31
I00
sg32
S'L'
sbsg33
(irule
FeatureMatrix
p1353
(dp1354
g25
(lp1355
(I01
g488
tp1356
asg27
Nsbsg42
(irule
Guard
p1357
(dp1358
g18
I00
sg19
(lp1359
(irule
FeatureMatrix
p1360
(dp1361
g25
(lp1362
(I01
g473
tp1363
asg27
Nsbasg29
I00
sg27
Nsg31
I00
sg32
S'R'
sbsg52
(irule
FeatureMatrix
p1364
(dp1365
g25
(lp1366
(I00
g1294
tp1367
asg27
Nsbsg27
Nsba(irule
Rule
p1368
(dp1369
g15
(irule
Guard
p1370
(dp1371
g18
I00
sg19
(lp1372
(irule
ConstantPhoneme
p1373
(dp1374
S'p'
Vu
sbasg29
I00
sg27
Nsg31
I00
sg32
S'L'
sbsg33
(irule
FeatureMatrix
p1375
(dp1376
g25
(lp1377
(I01
g488
tp1378
asg27
Nsbsg42
(irule
Guard
p1379
(dp1380
g18
I00
sg19
(lp1381
(irule
FeatureMatrix
p1382
(dp1383
g25
(lp1384
(I01
g473
tp1385
a(I01
g517
tp1386
asg27
Nsbasg29
I00
sg27
Nsg31
I00
sg32
S'R'
sbsg52
(irule
FeatureMatrix
p1387
(dp1388
g25
(lp1389
sg27
Nsbsg27
Nsba(irule
Rule
p1390
(dp1391
g15
(irule
Guard
p1392
(dp1393
g18
I00
sg19
(lp1394
(irule
ConstantPhoneme
p1395
(dp1396
S'p'
Vu
sbasg29
I00
sg27
Nsg31
I00
sg32
S'L'
sbsg33
(irule
ConstantPhoneme
p1397
(dp1398
S'p'
g466
sbsg42
(irule
Guard
p1399
(dp1400
g18
I00
sg19
(lp1401
(irule
FeatureMatrix
p1402
(dp1403
g25
(lp1404
(I01
g517
tp1405
asg27
Nsbasg29
I00
sg27
Nsg31
I00
sg32
S'R'
sbsg52
(irule
FeatureMatrix
p1406
(dp1407
g25
(lp1408
(I00
g710
tp1409
asg27
Nsbsg27
Nsba(irule
Rule
p1410
(dp1411
g15
(irule
Guard
p1412
(dp1413
g18
I00
sg19
(lp1414
(irule
ConstantPhoneme
p1415
(dp1416
S'p'
Vu
sbasg29
I00
sg27
Nsg31
I00
sg32
S'L'
sbsg33
(irule
ConstantPhoneme
p1417
(dp1418
S'p'
g466
sbsg42
(irule
Guard
p1419
(dp1420
g18
I00
sg19
(lp1421
(irule
FeatureMatrix
p1422
(dp1423
g25
(lp1424
(I01
g473
tp1425
asg27
Nsbasg29
I00
sg27
Nsg31
I00
sg32
S'R'
sbsg52
(irule
FeatureMatrix
p1426
(dp1427
g25
(lp1428
(I00
g1294
tp1429
asg27
Nsbsg27
Nsba(irule
Rule
p1430
(dp1431
g15
(irule
Guard
p1432
(dp1433
g18
I00
sg19
(lp1434
(irule
ConstantPhoneme
p1435
(dp1436
S'p'
Vu
sbasg29
I00
sg27
Nsg31
I00
sg32
S'L'
sbsg33
(irule
FeatureMatrix
p1437
(dp1438
g25
(lp1439
(I01
g488
tp1440
asg27
Nsbsg42
(irule
Guard
p1441
(dp1442
g18
I00
sg19
(lp1443
(irule
FeatureMatrix
p1444
(dp1445
g25
(lp1446
(I00
g580
tp1447
a(I01
g517
tp1448
asg27
Nsbasg29
I00
sg27
Nsg31
I00
sg32
S'R'
sbsg52
(irule
FeatureMatrix
p1449
(dp1450
g25
(lp1451
sg27
Nsbsg27
Nsba(irule
Rule
p1452
(dp1453
g15
(irule
Guard
p1454
(dp1455
g18
I00
sg19
(lp1456
(irule
ConstantPhoneme
p1457
(dp1458
S'p'
Vu
sbasg29
I00
sg27
Nsg31
I00
sg32
S'L'
sbsg33
(irule
ConstantPhoneme
p1459
(dp1460
S'p'
g466
sbsg42
(irule
Guard
p1461
(dp1462
g18
I00
sg19
(lp1463
(irule
FeatureMatrix
p1464
(dp1465
g25
(lp1466
(I00
g488
tp1467
a(I01
g517
tp1468
asg27
Nsbasg29
I00
sg27
Nsg31
I00
sg32
S'R'
sbsg52
(irule
FeatureMatrix
p1469
(dp1470
g25
(lp1471
sg27
Nsbsg27
Nsba(irule
Rule
p1472
(dp1473
g15
(irule
Guard
p1474
(dp1475
g18
I00
sg19
(lp1476
(irule
FeatureMatrix
p1477
(dp1478
g25
(lp1479
(I01
g616
tp1480
a(I01
g943
tp1481
asg27
Nsbasg29
I00
sg27
Nsg31
I00
sg32
S'L'
sbsg33
(irule
ConstantPhoneme
p1482
(dp1483
S'p'
g466
sbsg42
(irule
Guard
p1484
(dp1485
g18
I00
sg19
(lp1486
(irule
FeatureMatrix
p1487
(dp1488
g25
(lp1489
(I01
g517
tp1490
asg27
Nsbasg29
I00
sg27
Nsg31
I00
sg32
S'R'
sbsg52
(irule
FeatureMatrix
p1491
(dp1492
g25
(lp1493
sg27
Nsbsg27
Nsba(irule
Rule
p1494
(dp1495
g15
(irule
Guard
p1496
(dp1497
g18
I00
sg19
(lp1498
(irule
ConstantPhoneme
p1499
(dp1500
S'p'
Vu
sbasg29
I00
sg27
Nsg31
I00
sg32
S'L'
sbsg33
(irule
FeatureMatrix
p1501
(dp1502
g25
(lp1503
(I01
g488
tp1504
asg27
Nsbsg42
(irule
Guard
p1505
(dp1506
g18
I00
sg19
(lp1507
(irule
FeatureMatrix
p1508
(dp1509
g25
(lp1510
(I01
g473
tp1511
a(I00
g580
tp1512
asg27
Nsbasg29
I00
sg27
Nsg31
I00
sg32
S'R'
sbsg52
(irule
FeatureMatrix
p1513
(dp1514
g25
(lp1515
sg27
Nsbsg27
Nsba(irule
Rule
p1516
(dp1517
g15
(irule
Guard
p1518
(dp1519
g18
I00
sg19
(lp1520
(irule
ConstantPhoneme
p1521
(dp1522
S'p'
Vu
sbasg29
I00
sg27
Nsg31
I00
sg32
S'L'
sbsg33
(irule
ConstantPhoneme
p1523
(dp1524
S'p'
g466
sbsg42
(irule
Guard
p1525
(dp1526
g18
I00
sg19
(lp1527
(irule
FeatureMatrix
p1528
(dp1529
g25
(lp1530
(I01
g473
tp1531
a(I00
g710
tp1532
asg27
Nsbasg29
I00
sg27
Nsg31
I00
sg32
S'R'
sbsg52
(irule
FeatureMatrix
p1533
(dp1534
g25
(lp1535
sg27
Nsbsg27
Nsba(irule
Rule
p1536
(dp1537
g15
(irule
Guard
p1538
(dp1539
g18
I00
sg19
(lp1540
(irule
FeatureMatrix
p1541
(dp1542
g25
(lp1543
(I01
g616
tp1544
asg27
Nsbasg29
I00
sg27
Nsg31
I00
sg32
S'L'
sbsg33
(irule
ConstantPhoneme
p1545
(dp1546
S'p'
g466
sbsg42
(irule
Guard
p1547
(dp1548
g18
I00
sg19
(lp1549
(irule
FeatureMatrix
p1550
(dp1551
g25
(lp1552
(I01
g473
tp1553
asg27
Nsbasg29
I00
sg27
Nsg31
I00
sg32
S'R'
sbsg52
(irule
ConstantPhoneme
p1554
(dp1555
S'p'
Vp
sbsg27
Nsba(irule
Rule
p1556
(dp1557
g15
(irule
Guard
p1558
(dp1559
g18
I00
sg19
(lp1560
(irule
FeatureMatrix
p1561
(dp1562
g25
(lp1563
sg27
Nsba(irule
ConstantPhoneme
p1564
(dp1565
S'p'
Vs
sbasg29
I00
sg27
Nsg31
I00
sg32
S'L'
sbsg33
(irule
FeatureMatrix
p1566
(dp1567
g25
(lp1568
(I01
g488
tp1569
asg27
Nsbsg42
(irule
Guard
p1570
(dp1571
g18
I00
sg19
(lp1572
(irule
FeatureMatrix
p1573
(dp1574
g25
(lp1575
(I01
g517
tp1576
asg27
Nsbasg29
I00
sg27
Nsg31
I00
sg32
S'R'
sbsg52
(irule
FeatureMatrix
p1577
(dp1578
g25
(lp1579
sg27
Nsbsg27
Nsba(irule
Rule
p1580
(dp1581
g15
(irule
Guard
p1582
(dp1583
g18
I00
sg19
(lp1584
(irule
ConstantPhoneme
p1585
(dp1586
S'p'
Vu
sba(irule
FeatureMatrix
p1587
(dp1588
g25
(lp1589
sg27
Nsbasg29
I00
sg27
Nsg31
I00
sg32
S'L'
sbsg33
(irule
FeatureMatrix
p1590
(dp1591
g25
(lp1592
(I01
g488
tp1593
asg27
Nsbsg42
(irule
Guard
p1594
(dp1595
g18
I00
sg19
(lp1596
(irule
FeatureMatrix
p1597
(dp1598
g25
(lp1599
(I01
g517
tp1600
asg27
Nsbasg29
I00
sg27
Nsg31
I00
sg32
S'R'
sbsg52
(irule
FeatureMatrix
p1601
(dp1602
g25
(lp1603
sg27
Nsbsg27
Nsba(irule
Rule
p1604
(dp1605
g15
(irule
Guard
p1606
(dp1607
g18
I00
sg19
(lp1608
(irule
FeatureMatrix
p1609
(dp1610
g25
(lp1611
(I01
g943
tp1612
asg27
Nsbasg29
I00
sg27
Nsg31
I00
sg32
S'L'
sbsg33
(irule
ConstantPhoneme
p1613
(dp1614
S'p'
g466
sbsg42
(irule
Guard
p1615
(dp1616
g18
I00
sg19
(lp1617
(irule
FeatureMatrix
p1618
(dp1619
g25
(lp1620
(I01
g473
tp1621
asg27
Nsbasg29
I00
sg27
Nsg31
I00
sg32
S'R'
sbsg52
(irule
ConstantPhoneme
p1622
(dp1623
S'p'
Vp
sbsg27
Nsba(irule
Rule
p1624
(dp1625
g15
(irule
Guard
p1626
(dp1627
g18
I00
sg19
(lp1628
(irule
ConstantPhoneme
p1629
(dp1630
S'p'
Vu
sbasg29
I00
sg27
Nsg31
I00
sg32
S'L'
sbsg33
(irule
ConstantPhoneme
p1631
(dp1632
S'p'
g466
sbsg42
(irule
Guard
p1633
(dp1634
g18
I00
sg19
(lp1635
(irule
FeatureMatrix
p1636
(dp1637
g25
(lp1638
(I00
g753
tp1639
a(I01
g517
tp1640
asg27
Nsbasg29
I00
sg27
Nsg31
I00
sg32
S'R'
sbsg52
(irule
FeatureMatrix
p1641
(dp1642
g25
(lp1643
sg27
Nsbsg27
Nsba(irule
Rule
p1644
(dp1645
g15
(irule
Guard
p1646
(dp1647
g18
I00
sg19
(lp1648
(irule
FeatureMatrix
p1649
(dp1650
g25
(lp1651
(I01
g616
tp1652
a(I00
g580
tp1653
asg27
Nsbasg29
I00
sg27
Nsg31
I00
sg32
S'L'
sbsg33
(irule
FeatureMatrix
p1654
(dp1655
g25
(lp1656
(I01
g488
tp1657
asg27
Nsbsg42
(irule
Guard
p1658
(dp1659
g18
I00
sg19
(lp1660
(irule
FeatureMatrix
p1661
(dp1662
g25
(lp1663
(I01
g517
tp1664
asg27
Nsbasg29
I00
sg27
Nsg31
I00
sg32
S'R'
sbsg52
(irule
FeatureMatrix
p1665
(dp1666
g25
(lp1667
sg27
Nsbsg27
Nsba(irule
Rule
p1668
(dp1669
g15
(irule
Guard
p1670
(dp1671
g18
I00
sg19
(lp1672
(irule
ConstantPhoneme
p1673
(dp1674
S'p'
Vu
sbasg29
I00
sg27
Nsg31
I00
sg32
S'L'
sbsg33
(irule
ConstantPhoneme
p1675
(dp1676
S'p'
g466
sbsg42
(irule
Guard
p1677
(dp1678
g18
I00
sg19
(lp1679
(irule
FeatureMatrix
p1680
(dp1681
g25
(lp1682
(I00
g616
tp1683
a(I01
g517
tp1684
asg27
Nsbasg29
I00
sg27
Nsg31
I00
sg32
S'R'
sbsg52
(irule
FeatureMatrix
p1685
(dp1686
g25
(lp1687
sg27
Nsbsg27
Nsba(irule
Rule
p1688
(dp1689
g15
(irule
Guard
p1690
(dp1691
g18
I00
sg19
(lp1692
(irule
FeatureMatrix
p1693
(dp1694
g25
(lp1695
(I01
g616
tp1696
a(I01
g943
tp1697
asg27
Nsbasg29
I00
sg27
Nsg31
I00
sg32
S'L'
sbsg33
(irule
FeatureMatrix
p1698
(dp1699
g25
(lp1700
(I01
g488
tp1701
asg27
Nsbsg42
(irule
Guard
p1702
(dp1703
g18
I00
sg19
(lp1704
(irule
FeatureMatrix
p1705
(dp1706
g25
(lp1707
(I01
g473
tp1708
asg27
Nsbasg29
I00
sg27
Nsg31
I00
sg32
S'R'
sbsg52
(irule
FeatureMatrix
p1709
(dp1710
g25
(lp1711
sg27
Nsbsg27
Nsba(irule
Rule
p1712
(dp1713
g15
(irule
Guard
p1714
(dp1715
g18
I00
sg19
(lp1716
(irule
FeatureMatrix
p1717
(dp1718
g25
(lp1719
(I01
g616
tp1720
a(I01
g943
tp1721
asg27
Nsbasg29
I00
sg27
Nsg31
I00
sg32
S'L'
sbsg33
(irule
FeatureMatrix
p1722
(dp1723
g25
(lp1724
(I01
g488
tp1725
asg27
Nsbsg42
(irule
Guard
p1726
(dp1727
g18
I00
sg19
(lp1728
(irule
FeatureMatrix
p1729
(dp1730
g25
(lp1731
(I01
g517
tp1732
asg27
Nsbasg29
I00
sg27
Nsg31
I00
sg32
S'R'
sbsg52
(irule
FeatureMatrix
p1733
(dp1734
g25
(lp1735
sg27
Nsbsg27
Nsba(irule
Rule
p1736
(dp1737
g15
(irule
Guard
p1738
(dp1739
g18
I00
sg19
(lp1740
(irule
ConstantPhoneme
p1741
(dp1742
S'p'
Vu
sbasg29
I00
sg27
Nsg31
I00
sg32
S'L'
sbsg33
(irule
ConstantPhoneme
p1743
(dp1744
S'p'
g466
sbsg42
(irule
Guard
p1745
(dp1746
g18
I00
sg19
(lp1747
(irule
FeatureMatrix
p1748
(dp1749
g25
(lp1750
(I01
g517
tp1751
asg27
Nsbasg29
I00
sg27
Nsg31
I00
sg32
S'R'
sbsg52
(irule
FeatureMatrix
p1752
(dp1753
g25
(lp1754
(I00
g1294
tp1755
asg27
Nsbsg27
Nsba(irule
Rule
p1756
(dp1757
g15
(irule
Guard
p1758
(dp1759
g18
I00
sg19
(lp1760
(irule
FeatureMatrix
p1761
(dp1762
g25
(lp1763
(I01
g616
tp1764
asg27
Nsbasg29
I00
sg27
Nsg31
I00
sg32
S'L'
sbsg33
(irule
ConstantPhoneme
p1765
(dp1766
S'p'
g466
sbsg42
(irule
Guard
p1767
(dp1768
g18
I00
sg19
(lp1769
(irule
FeatureMatrix
p1770
(dp1771
g25
(lp1772
(I01
g517
tp1773
asg27
Nsbasg29
I00
sg27
Nsg31
I00
sg32
S'R'
sbsg52
(irule
FeatureMatrix
p1774
(dp1775
g25
(lp1776
(I00
g1294
tp1777
asg27
Nsbsg27
Nsba(irule
Rule
p1778
(dp1779
g15
(irule
Guard
p1780
(dp1781
g18
I00
sg19
(lp1782
(irule
ConstantPhoneme
p1783
(dp1784
S'p'
Vu
sbasg29
I00
sg27
Nsg31
I00
sg32
S'L'
sbsg33
(irule
ConstantPhoneme
p1785
(dp1786
S'p'
g466
sbsg42
(irule
Guard
p1787
(dp1788
g18
I00
sg19
(lp1789
(irule
FeatureMatrix
p1790
(dp1791
g25
(lp1792
(I01
g473
tp1793
asg27
Nsbasg29
I00
sg27
Nsg31
I00
sg32
S'R'
sbsg52
(irule
ConstantPhoneme
p1794
(dp1795
S'p'
Vp
sbsg27
Nsba(irule
Rule
p1796
(dp1797
g15
(irule
Guard
p1798
(dp1799
g18
I00
sg19
(lp1800
(irule
FeatureMatrix
p1801
(dp1802
g25
(lp1803
(I01
g943
tp1804
asg27
Nsbasg29
I00
sg27
Nsg31
I00
sg32
S'L'
sbsg33
(irule
ConstantPhoneme
p1805
(dp1806
S'p'
g466
sbsg42
(irule
Guard
p1807
(dp1808
g18
I00
sg19
(lp1809
(irule
FeatureMatrix
p1810
(dp1811
g25
(lp1812
(I01
g517
tp1813
asg27
Nsbasg29
I00
sg27
Nsg31
I00
sg32
S'R'
sbsg52
(irule
ConstantPhoneme
p1814
(dp1815
S'p'
Vp
sbsg27
Nsba(irule
Rule
p1816
(dp1817
g15
(irule
Guard
p1818
(dp1819
g18
I00
sg19
(lp1820
(irule
FeatureMatrix
p1821
(dp1822
g25
(lp1823
(I01
g616
tp1824
asg27
Nsbasg29
I00
sg27
Nsg31
I00
sg32
S'L'
sbsg33
(irule
ConstantPhoneme
p1825
(dp1826
S'p'
g466
sbsg42
(irule
Guard
p1827
(dp1828
g18
I00
sg19
(lp1829
(irule
FeatureMatrix
p1830
(dp1831
g25
(lp1832
(I01
g517
tp1833
asg27
Nsbasg29
I00
sg27
Nsg31
I00
sg32
S'R'
sbsg52
(irule
ConstantPhoneme
p1834
(dp1835
S'p'
Vp
sbsg27
Nsba(irule
Rule
p1836
(dp1837
g15
(irule
Guard
p1838
(dp1839
g18
I00
sg19
(lp1840
(irule
ConstantPhoneme
p1841
(dp1842
S'p'
Vu
sbasg29
I00
sg27
Nsg31
I00
sg32
S'L'
sbsg33
(irule
FeatureMatrix
p1843
(dp1844
g25
(lp1845
(I01
g488
tp1846
asg27
Nsbsg42
(irule
Guard
p1847
(dp1848
g18
I00
sg19
(lp1849
(irule
FeatureMatrix
p1850
(dp1851
g25
(lp1852
(I00
g488
tp1853
a(I01
g517
tp1854
asg27
Nsbasg29
I00
sg27
Nsg31
I00
sg32
S'R'
sbsg52
(irule
FeatureMatrix
p1855
(dp1856
g25
(lp1857
sg27
Nsbsg27
Nsba(irule
Rule
p1858
(dp1859
g15
(irule
Guard
p1860
(dp1861
g18
I00
sg19
(lp1862
(irule
ConstantPhoneme
p1863
(dp1864
S'p'
Vu
sbasg29
I00
sg27
Nsg31
I00
sg32
S'L'
sbsg33
(irule
ConstantPhoneme
p1865
(dp1866
S'p'
g466
sbsg42
(irule
Guard
p1867
(dp1868
g18
I00
sg19
(lp1869
(irule
FeatureMatrix
p1870
(dp1871
g25
(lp1872
(I01
g517
tp1873
asg27
Nsbasg29
I00
sg27
Nsg31
I00
sg32
S'R'
sbsg52
(irule
FeatureMatrix
p1874
(dp1875
g25
(lp1876
(I00
g517
tp1877
asg27
Nsbsg27
Nsba(irule
Rule
p1878
(dp1879
g15
(irule
Guard
p1880
(dp1881
g18
I00
sg19
(lp1882
(irule
ConstantPhoneme
p1883
(dp1884
S'p'
Vu
sbasg29
I00
sg27
Nsg31
I00
sg32
S'L'
sbsg33
(irule
ConstantPhoneme
p1885
(dp1886
S'p'
g466
sbsg42
(irule
Guard
p1887
(dp1888
g18
I00
sg19
(lp1889
(irule
FeatureMatrix
p1890
(dp1891
g25
(lp1892
(I01
g473
tp1893
asg27
Nsbasg29
I00
sg27
Nsg31
I00
sg32
S'R'
sbsg52
(irule
FeatureMatrix
p1894
(dp1895
g25
(lp1896
(I00
g1146
tp1897
asg27
Nsbsg27
Nsba(irule
Rule
p1898
(dp1899
g15
(irule
Guard
p1900
(dp1901
g18
I00
sg19
(lp1902
(irule
ConstantPhoneme
p1903
(dp1904
S'p'
Vu
sbasg29
I00
sg27
Nsg31
I00
sg32
S'L'
sbsg33
(irule
FeatureMatrix
p1905
(dp1906
g25
(lp1907
(I01
g488
tp1908
asg27
Nsbsg42
(irule
Guard
p1909
(dp1910
g18
I00
sg19
(lp1911
(irule
FeatureMatrix
p1912
(dp1913
g25
(lp1914
(I00
g753
tp1915
a(I01
g473
tp1916
asg27
Nsbasg29
I00
sg27
Nsg31
I00
sg32
S'R'
sbsg52
(irule
FeatureMatrix
p1917
(dp1918
g25
(lp1919
sg27
Nsbsg27
Nsba(irule
Rule
p1920
(dp1921
g15
(irule
Guard
p1922
(dp1923
g18
I00
sg19
(lp1924
(irule
ConstantPhoneme
p1925
(dp1926
S'p'
Vu
sbasg29
I00
sg27
Nsg31
I00
sg32
S'L'
sbsg33
(irule
FeatureMatrix
p1927
(dp1928
g25
(lp1929
(I00
g616
tp1930
a(I01
g488
tp1931
asg27
Nsbsg42
(irule
Guard
p1932
(dp1933
g18
I00
sg19
(lp1934
(irule
FeatureMatrix
p1935
(dp1936
g25
(lp1937
(I01
g473
tp1938
asg27
Nsbasg29
I00
sg27
Nsg31
I00
sg32
S'R'
sbsg52
(irule
FeatureMatrix
p1939
(dp1940
g25
(lp1941
sg27
Nsbsg27
Nsba(irule
Rule
p1942
(dp1943
g15
(irule
Guard
p1944
(dp1945
g18
I00
sg19
(lp1946
(irule
ConstantPhoneme
p1947
(dp1948
S'p'
Vu
sbasg29
I00
sg27
Nsg31
I00
sg32
S'L'
sbsg33
(irule
FeatureMatrix
p1949
(dp1950
g25
(lp1951
(I01
g488
tp1952
asg27
Nsbsg42
(irule
Guard
p1953
(dp1954
g18
I00
sg19
(lp1955
(irule
FeatureMatrix
p1956
(dp1957
g25
(lp1958
(I00
g488
tp1959
a(I01
g473
tp1960
asg27
Nsbasg29
I00
sg27
Nsg31
I00
sg32
S'R'
sbsg52
(irule
FeatureMatrix
p1961
(dp1962
g25
(lp1963
sg27
Nsbsg27
Nsba(irule
Rule
p1964
(dp1965
g15
(irule
Guard
p1966
(dp1967
g18
I00
sg19
(lp1968
(irule
ConstantPhoneme
p1969
(dp1970
S'p'
Vu
sbasg29
I00
sg27
Nsg31
I00
sg32
S'L'
sbsg33
(irule
FeatureMatrix
p1971
(dp1972
g25
(lp1973
(I01
g488
tp1974
asg27
Nsbsg42
(irule
Guard
p1975
(dp1976
g18
I00
sg19
(lp1977
(irule
FeatureMatrix
p1978
(dp1979
g25
(lp1980
(I01
g473
tp1981
a(I00
g710
tp1982
asg27
Nsbasg29
I00
sg27
Nsg31
I00
sg32
S'R'
sbsg52
(irule
FeatureMatrix
p1983
(dp1984
g25
(lp1985
sg27
Nsbsg27
Nsba(irule
Rule
p1986
(dp1987
g15
(irule
Guard
p1988
(dp1989
g18
I00
sg19
(lp1990
(irule
FeatureMatrix
p1991
(dp1992
g25
(lp1993
(I01
g943
tp1994
asg27
Nsbasg29
I00
sg27
Nsg31
I00
sg32
S'L'
sbsg33
(irule
FeatureMatrix
p1995
(dp1996
g25
(lp1997
(I01
g488
tp1998
asg27
Nsbsg42
(irule
Guard
p1999
(dp2000
g18
I00
sg19
(lp2001
(irule
FeatureMatrix
p2002
(dp2003
g25
(lp2004
(I01
g517
tp2005
asg27
Nsbasg29
I00
sg27
Nsg31
I00
sg32
S'R'
sbsg52
(irule
ConstantPhoneme
p2006
(dp2007
S'p'
Vp
sbsg27
Nsba(irule
Rule
p2008
(dp2009
g15
(irule
Guard
p2010
(dp2011
g18
I00
sg19
(lp2012
(irule
ConstantPhoneme
p2013
(dp2014
S'p'
Vu
sbasg29
I00
sg27
Nsg31
I00
sg32
S'L'
sbsg33
(irule
ConstantPhoneme
p2015
(dp2016
S'p'
g466
sbsg42
(irule
Guard
p2017
(dp2018
g18
I00
sg19
(lp2019
(irule
FeatureMatrix
p2020
(dp2021
g25
(lp2022
(I01
g473
tp2023
asg27
Nsbasg29
I00
sg27
Nsg31
I00
sg32
S'R'
sbsg52
(irule
FeatureMatrix
p2024
(dp2025
g25
(lp2026
(I00
g580
tp2027
asg27
Nsbsg27
Nsba(irule
Rule
p2028
(dp2029
g15
(irule
Guard
p2030
(dp2031
g18
I00
sg19
(lp2032
(irule
FeatureMatrix
p2033
(dp2034
g25
(lp2035
(I01
g616
tp2036
asg27
Nsbasg29
I00
sg27
Nsg31
I00
sg32
S'L'
sbsg33
(irule
FeatureMatrix
p2037
(dp2038
g25
(lp2039
(I01
g488
tp2040
asg27
Nsbsg42
(irule
Guard
p2041
(dp2042
g18
I00
sg19
(lp2043
(irule
FeatureMatrix
p2044
(dp2045
g25
(lp2046
(I01
g517
tp2047
asg27
Nsbasg29
I00
sg27
Nsg31
I00
sg32
S'R'
sbsg52
(irule
FeatureMatrix
p2048
(dp2049
g25
(lp2050
(I00
g1294
tp2051
asg27
Nsbsg27
Nsba(irule
Rule
p2052
(dp2053
g15
(irule
Guard
p2054
(dp2055
g18
I00
sg19
(lp2056
(irule
FeatureMatrix
p2057
(dp2058
g25
(lp2059
(I01
g616
tp2060
asg27
Nsbasg29
I00
sg27
Nsg31
I00
sg32
S'L'
sbsg33
(irule
FeatureMatrix
p2061
(dp2062
g25
(lp2063
(I01
g488
tp2064
asg27
Nsbsg42
(irule
Guard
p2065
(dp2066
g18
I00
sg19
(lp2067
(irule
FeatureMatrix
p2068
(dp2069
g25
(lp2070
(I01
g473
tp2071
asg27
Nsbasg29
I00
sg27
Nsg31
I00
sg32
S'R'
sbsg52
(irule
ConstantPhoneme
p2072
(dp2073
S'p'
Vp
sbsg27
Nsba(irule
Rule
p2074
(dp2075
g15
(irule
Guard
p2076
(dp2077
g18
I00
sg19
(lp2078
(irule
ConstantPhoneme
p2079
(dp2080
S'p'
Vu
sbasg29
I00
sg27
Nsg31
I00
sg32
S'L'
sbsg33
(irule
ConstantPhoneme
p2081
(dp2082
S'p'
g466
sbsg42
(irule
Guard
p2083
(dp2084
g18
I00
sg19
(lp2085
(irule
FeatureMatrix
p2086
(dp2087
g25
(lp2088
(I01
g517
tp2089
asg27
Nsbasg29
I00
sg27
Nsg31
I00
sg32
S'R'
sbsg52
(irule
FeatureMatrix
p2090
(dp2091
g25
(lp2092
(I00
g580
tp2093
asg27
Nsbsg27
Nsba(irule
Rule
p2094
(dp2095
g15
(irule
Guard
p2096
(dp2097
g18
I00
sg19
(lp2098
(irule
FeatureMatrix
p2099
(dp2100
g25
(lp2101
(I01
g616
tp2102
asg27
Nsbasg29
I00
sg27
Nsg31
I00
sg32
S'L'
sbsg33
(irule
FeatureMatrix
p2103
(dp2104
g25
(lp2105
(I01
g488
tp2106
asg27
Nsbsg42
(irule
Guard
p2107
(dp2108
g18
I00
sg19
(lp2109
(irule
FeatureMatrix
p2110
(dp2111
g25
(lp2112
(I01
g517
tp2113
asg27
Nsbasg29
I00
sg27
Nsg31
I00
sg32
S'R'
sbsg52
(irule
ConstantPhoneme
p2114
(dp2115
S'p'
Vp
sbsg27
Nsba(irule
Rule
p2116
(dp2117
g15
(irule
Guard
p2118
(dp2119
g18
I00
sg19
(lp2120
(irule
ConstantPhoneme
p2121
(dp2122
S'p'
Vu
sbasg29
I00
sg27
Nsg31
I00
sg32
S'L'
sbsg33
(irule
ConstantPhoneme
p2123
(dp2124
S'p'
g466
sbsg42
(irule
Guard
p2125
(dp2126
g18
I00
sg19
(lp2127
(irule
FeatureMatrix
p2128
(dp2129
g25
(lp2130
(I01
g517
tp2131
asg27
Nsbasg29
I00
sg27
Nsg31
I00
sg32
S'R'
sbsg52
(irule
FeatureMatrix
p2132
(dp2133
g25
(lp2134
(I00
g1001
tp2135
asg27
Nsbsg27
Nsba(irule
Rule
p2136
(dp2137
g15
(irule
Guard
p2138
(dp2139
g18
I00
sg19
(lp2140
(irule
ConstantPhoneme
p2141
(dp2142
S'p'
Vu
sbasg29
I00
sg27
Nsg31
I00
sg32
S'L'
sbsg33
(irule
FeatureMatrix
p2143
(dp2144
g25
(lp2145
(I01
g488
tp2146
asg27
Nsbsg42
(irule
Guard
p2147
(dp2148
g18
I00
sg19
(lp2149
(irule
FeatureMatrix
p2150
(dp2151
g25
(lp2152
(I00
g710
tp2153
a(I01
g517
tp2154
asg27
Nsbasg29
I00
sg27
Nsg31
I00
sg32
S'R'
sbsg52
(irule
FeatureMatrix
p2155
(dp2156
g25
(lp2157
sg27
Nsbsg27
Nsba(irule
Rule
p2158
(dp2159
g15
(irule
Guard
p2160
(dp2161
g18
I00
sg19
(lp2162
(irule
ConstantPhoneme
p2163
(dp2164
S'p'
Vu
sbasg29
I00
sg27
Nsg31
I00
sg32
S'L'
sbsg33
(irule
FeatureMatrix
p2165
(dp2166
g25
(lp2167
(I01
g488
tp2168
asg27
Nsbsg42
(irule
Guard
p2169
(dp2170
g18
I00
sg19
(lp2171
(irule
FeatureMatrix
p2172
(dp2173
g25
(lp2174
(I00
g753
tp2175
a(I01
g517
tp2176
asg27
Nsbasg29
I00
sg27
Nsg31
I00
sg32
S'R'
sbsg52
(irule
FeatureMatrix
p2177
(dp2178
g25
(lp2179
sg27
Nsbsg27
Nsba(irule
Rule
p2180
(dp2181
g15
(irule
Guard
p2182
(dp2183
g18
I00
sg19
(lp2184
(irule
ConstantPhoneme
p2185
(dp2186
S'p'
Vu
sbasg29
I00
sg27
Nsg31
I00
sg32
S'L'
sbsg33
(irule
ConstantPhoneme
p2187
(dp2188
S'p'
g466
sbsg42
(irule
Guard
p2189
(dp2190
g18
I00
sg19
(lp2191
(irule
FeatureMatrix
p2192
(dp2193
g25
(lp2194
(I01
g473
tp2195
asg27
Nsbasg29
I00
sg27
Nsg31
I00
sg32
S'R'
sbsg52
(irule
FeatureMatrix
p2196
(dp2197
g25
(lp2198
(I00
g943
tp2199
asg27
Nsbsg27
Nsba(irule
Rule
p2200
(dp2201
g15
(irule
Guard
p2202
(dp2203
g18
I00
sg19
(lp2204
(irule
ConstantPhoneme
p2205
(dp2206
S'p'
Vu
sbasg29
I00
sg27
Nsg31
I00
sg32
S'L'
sbsg33
(irule
ConstantPhoneme
p2207
(dp2208
S'p'
g466
sbsg42
(irule
Guard
p2209
(dp2210
g18
I00
sg19
(lp2211
(irule
FeatureMatrix
p2212
(dp2213
g25
(lp2214
(I01
g473
tp2215
asg27
Nsbasg29
I00
sg27
Nsg31
I00
sg32
S'R'
sbsg52
(irule
FeatureMatrix
p2216
(dp2217
g25
(lp2218
(I00
S'nasal'
p2219
tp2220
asg27
Nsbsg27
Nsba(irule
Rule
p2221
(dp2222
g15
(irule
Guard
p2223
(dp2224
g18
I00
sg19
(lp2225
(irule
ConstantPhoneme
p2226
(dp2227
S'p'
Vu
sbasg29
I00
sg27
Nsg31
I00
sg32
S'L'
sbsg33
(irule
ConstantPhoneme
p2228
(dp2229
S'p'
g466
sbsg42
(irule
Guard
p2230
(dp2231
g18
I00
sg19
(lp2232
(irule
FeatureMatrix
p2233
(dp2234
g25
(lp2235
(I01
g517
tp2236
asg27
Nsbasg29
I00
sg27
Nsg31
I00
sg32
S'R'
sbsg52
(irule
FeatureMatrix
p2237
(dp2238
g25
(lp2239
(I00
g1146
tp2240
asg27
Nsbsg27
Nsba(irule
Rule
p2241
(dp2242
g15
(irule
Guard
p2243
(dp2244
g18
I00
sg19
(lp2245
(irule
ConstantPhoneme
p2246
(dp2247
S'p'
Vu
sbasg29
I00
sg27
Nsg31
I00
sg32
S'L'
sbsg33
(irule
ConstantPhoneme
p2248
(dp2249
S'p'
g466
sbsg42
(irule
Guard
p2250
(dp2251
g18
I00
sg19
(lp2252
(irule
FeatureMatrix
p2253
(dp2254
g25
(lp2255
(I01
g473
tp2256
asg27
Nsbasg29
I00
sg27
Nsg31
I00
sg32
S'R'
sbsg52
(irule
FeatureMatrix
p2257
(dp2258
g25
(lp2259
(I00
g1193
tp2260
asg27
Nsbsg27
Nsba(irule
Rule
p2261
(dp2262
g15
(irule
Guard
p2263
(dp2264
g18
I00
sg19
(lp2265
(irule
ConstantPhoneme
p2266
(dp2267
S'p'
Vu
sbasg29
I00
sg27
Nsg31
I00
sg32
S'L'
sbsg33
(irule
FeatureMatrix
p2268
(dp2269
g25
(lp2270
(I01
g488
tp2271
asg27
Nsbsg42
(irule
Guard
p2272
(dp2273
g18
I00
sg19
(lp2274
(irule
FeatureMatrix
p2275
(dp2276
g25
(lp2277
(I00
g559
tp2278
a(I01
g517
tp2279
asg27
Nsbasg29
I00
sg27
Nsg31
I00
sg32
S'R'
sbsg52
(irule
FeatureMatrix
p2280
(dp2281
g25
(lp2282
sg27
Nsbsg27
Nsba(irule
Rule
p2283
(dp2284
g15
(irule
Guard
p2285
(dp2286
g18
I00
sg19
(lp2287
(irule
ConstantPhoneme
p2288
(dp2289
S'p'
Vu
sbasg29
I00
sg27
Nsg31
I00
sg32
S'L'
sbsg33
(irule
ConstantPhoneme
p2290
(dp2291
S'p'
g466
sbsg42
(irule
Guard
p2292
(dp2293
g18
I00
sg19
(lp2294
(irule
FeatureMatrix
p2295
(dp2296
g25
(lp2297
(I01
g473
tp2298
asg27
Nsbasg29
I00
sg27
Nsg31
I00
sg32
S'R'
sbsg52
(irule
FeatureMatrix
p2299
(dp2300
g25
(lp2301
(I00
g473
tp2302
asg27
Nsbsg27
Nsba(irule
Rule
p2303
(dp2304
g15
(irule
Guard
p2305
(dp2306
g18
I00
sg19
(lp2307
(irule
ConstantPhoneme
p2308
(dp2309
S'p'
Vu
sbasg29
I00
sg27
Nsg31
I00
sg32
S'L'
sbsg33
(irule
FeatureMatrix
p2310
(dp2311
g25
(lp2312
(I01
g488
tp2313
a(I00
g1294
tp2314
asg27
Nsbsg42
(irule
Guard
p2315
(dp2316
g18
I00
sg19
(lp2317
(irule
FeatureMatrix
p2318
(dp2319
g25
(lp2320
(I01
g517
tp2321
asg27
Nsbasg29
I00
sg27
Nsg31
I00
sg32
S'R'
sbsg52
(irule
FeatureMatrix
p2322
(dp2323
g25
(lp2324
sg27
Nsbsg27
Nsba(irule
Rule
p2325
(dp2326
g15
(irule
Guard
p2327
(dp2328
g18
I00
sg19
(lp2329
(irule
ConstantPhoneme
p2330
(dp2331
S'p'
Vu
sbasg29
I00
sg27
Nsg31
I00
sg32
S'L'
sbsg33
(irule
FeatureMatrix
p2332
(dp2333
g25
(lp2334
(I01
g488
tp2335
asg27
Nsbsg42
(irule
Guard
p2336
(dp2337
g18
I00
sg19
(lp2338
(irule
FeatureMatrix
p2339
(dp2340
g25
(lp2341
(I01
g517
tp2342
asg27
Nsbasg29
I00
sg27
Nsg31
I00
sg32
S'R'
sbsg52
(irule
FeatureMatrix
p2343
(dp2344
g25
(lp2345
(I00
g517
tp2346
asg27
Nsbsg27
Nsba(irule
Rule
p2347
(dp2348
g15
(irule
Guard
p2349
(dp2350
g18
I00
sg19
(lp2351
(irule
ConstantPhoneme
p2352
(dp2353
S'p'
Vu
sbasg29
I00
sg27
Nsg31
I00
sg32
S'L'
sbsg33
(irule
FeatureMatrix
p2354
(dp2355
g25
(lp2356
(I01
g488
tp2357
a(I00
g1001
tp2358
asg27
Nsbsg42
(irule
Guard
p2359
(dp2360
g18
I00
sg19
(lp2361
(irule
FeatureMatrix
p2362
(dp2363
g25
(lp2364
(I01
g517
tp2365
asg27
Nsbasg29
I00
sg27
Nsg31
I00
sg32
S'R'
sbsg52
(irule
FeatureMatrix
p2366
(dp2367
g25
(lp2368
sg27
Nsbsg27
Nsba(irule
Rule
p2369
(dp2370
g15
(irule
Guard
p2371
(dp2372
g18
I00
sg19
(lp2373
(irule
ConstantPhoneme
p2374
(dp2375
S'p'
Vu
sbasg29
I00
sg27
Nsg31
I00
sg32
S'L'
sbsg33
(irule
FeatureMatrix
p2376
(dp2377
g25
(lp2378
(I00
g2219
tp2379
a(I01
g488
tp2380
asg27
Nsbsg42
(irule
Guard
p2381
(dp2382
g18
I00
sg19
(lp2383
(irule
FeatureMatrix
p2384
(dp2385
g25
(lp2386
(I01
g517
tp2387
asg27
Nsbasg29
I00
sg27
Nsg31
I00
sg32
S'R'
sbsg52
(irule
FeatureMatrix
p2388
(dp2389
g25
(lp2390
sg27
Nsbsg27
Nsba(irule
Rule
p2391
(dp2392
g15
(irule
Guard
p2393
(dp2394
g18
I00
sg19
(lp2395
(irule
ConstantPhoneme
p2396
(dp2397
S'p'
Vu
sbasg29
I00
sg27
Nsg31
I00
sg32
S'L'
sbsg33
(irule
FeatureMatrix
p2398
(dp2399
g25
(lp2400
(I01
g488
tp2401
asg27
Nsbsg42
(irule
Guard
p2402
(dp2403
g18
I00
sg19
(lp2404
(irule
FeatureMatrix
p2405
(dp2406
g25
(lp2407
(I00
g616
tp2408
a(I01
g517
tp2409
asg27
Nsbasg29
I00
sg27
Nsg31
I00
sg32
S'R'
sbsg52
(irule
FeatureMatrix
p2410
(dp2411
g25
(lp2412
sg27
Nsbsg27
Nsba(irule
Rule
p2413
(dp2414
g15
(irule
Guard
p2415
(dp2416
g18
I00
sg19
(lp2417
(irule
ConstantPhoneme
p2418
(dp2419
S'p'
Vu
sbasg29
I00
sg27
Nsg31
I00
sg32
S'L'
sbsg33
(irule
ConstantPhoneme
p2420
(dp2421
S'p'
g466
sbsg42
(irule
Guard
p2422
(dp2423
g18
I00
sg19
(lp2424
(irule
FeatureMatrix
p2425
(dp2426
g25
(lp2427
(I01
g473
tp2428
asg27
Nsbasg29
I00
sg27
Nsg31
I00
sg32
S'R'
sbsg52
(irule
FeatureMatrix
p2429
(dp2430
g25
(lp2431
(I00
g488
tp2432
asg27
Nsbsg27
Nsba(irule
Rule
p2433
(dp2434
g15
(irule
Guard
p2435
(dp2436
g18
I00
sg19
(lp2437
(irule
ConstantPhoneme
p2438
(dp2439
S'p'
Vu
sbasg29
I00
sg27
Nsg31
I00
sg32
S'L'
sbsg33
(irule
FeatureMatrix
p2440
(dp2441
g25
(lp2442
(I01
g488
tp2443
asg27
Nsbsg42
(irule
Guard
p2444
(dp2445
g18
I00
sg19
(lp2446
(irule
FeatureMatrix
p2447
(dp2448
g25
(lp2449
(I01
g473
tp2450
asg27
Nsbasg29
I00
sg27
Nsg31
I00
sg32
S'R'
sbsg52
(irule
FeatureMatrix
p2451
(dp2452
g25
(lp2453
(I00
g710
tp2454
asg27
Nsbsg27
Nsba(irule
Rule
p2455
(dp2456
g15
(irule
Guard
p2457
(dp2458
g18
I00
sg19
(lp2459
(irule
ConstantPhoneme
p2460
(dp2461
S'p'
Vu
sbasg29
I00
sg27
Nsg31
I00
sg32
S'L'
sbsg33
(irule
ConstantPhoneme
p2462
(dp2463
S'p'
g466
sbsg42
(irule
Guard
p2464
(dp2465
g18
I00
sg19
(lp2466
(irule
FeatureMatrix
p2467
(dp2468
g25
(lp2469
(I01
g517
tp2470
asg27
Nsbasg29
I00
sg27
Nsg31
I00
sg32
S'R'
sbsg52
(irule
ConstantPhoneme
p2471
(dp2472
S'p'
Vp
sbsg27
Nsba(irule
Rule
p2473
(dp2474
g15
(irule
Guard
p2475
(dp2476
g18
I00
sg19
(lp2477
(irule
ConstantPhoneme
p2478
(dp2479
S'p'
Vu
sbasg29
I00
sg27
Nsg31
I00
sg32
S'L'
sbsg33
(irule
FeatureMatrix
p2480
(dp2481
g25
(lp2482
(I01
g488
tp2483
asg27
Nsbsg42
(irule
Guard
p2484
(dp2485
g18
I00
sg19
(lp2486
(irule
FeatureMatrix
p2487
(dp2488
g25
(lp2489
(I01
g473
tp2490
asg27
Nsbasg29
I00
sg27
Nsg31
I00
sg32
S'R'
sbsg52
(irule
ConstantPhoneme
p2491
(dp2492
S'p'
Vp
sbsg27
Nsba(irule
Rule
p2493
(dp2494
g15
(irule
Guard
p2495
(dp2496
g18
I00
sg19
(lp2497
(irule
ConstantPhoneme
p2498
(dp2499
S'p'
Vu
sbasg29
I00
sg27
Nsg31
I00
sg32
S'L'
sbsg33
(irule
ConstantPhoneme
p2500
(dp2501
S'p'
g466
sbsg42
(irule
Guard
p2502
(dp2503
g18
I00
sg19
(lp2504
(irule
FeatureMatrix
p2505
(dp2506
g25
(lp2507
(I01
g473
tp2508
asg27
Nsbasg29
I00
sg27
Nsg31
I00
sg32
S'R'
sbsg52
(irule
FeatureMatrix
p2509
(dp2510
g25
(lp2511
(I00
g753
tp2512
asg27
Nsbsg27
Nsba(irule
Rule
p2513
(dp2514
g15
(irule
Guard
p2515
(dp2516
g18
I00
sg19
(lp2517
(irule
ConstantPhoneme
p2518
(dp2519
S'p'
Vu
sbasg29
I00
sg27
Nsg31
I00
sg32
S'L'
sbsg33
(irule
FeatureMatrix
p2520
(dp2521
g25
(lp2522
(I01
g488
tp2523
asg27
Nsbsg42
(irule
Guard
p2524
(dp2525
g18
I00
sg19
(lp2526
(irule
FeatureMatrix
p2527
(dp2528
g25
(lp2529
(I01
g473
tp2530
asg27
Nsbasg29
I00
sg27
Nsg31
I00
sg32
S'R'
sbsg52
(irule
FeatureMatrix
p2531
(dp2532
g25
(lp2533
(I00
g1294
tp2534
asg27
Nsbsg27
Nsba(irule
Rule
p2535
(dp2536
g15
(irule
Guard
p2537
(dp2538
g18
I00
sg19
(lp2539
(irule
ConstantPhoneme
p2540
(dp2541
S'p'
Vu
sbasg29
I00
sg27
Nsg31
I00
sg32
S'L'
sbsg33
(irule
FeatureMatrix
p2542
(dp2543
g25
(lp2544
(I01
g488
tp2545
a(I00
g1001
tp2546
asg27
Nsbsg42
(irule
Guard
p2547
(dp2548
g18
I00
sg19
(lp2549
(irule
FeatureMatrix
p2550
(dp2551
g25
(lp2552
(I01
g473
tp2553
asg27
Nsbasg29
I00
sg27
Nsg31
I00
sg32
S'R'
sbsg52
(irule
FeatureMatrix
p2554
(dp2555
g25
(lp2556
sg27
Nsbsg27
Nsba(irule
Rule
p2557
(dp2558
g15
(irule
Guard
p2559
(dp2560
g18
I00
sg19
(lp2561
(irule
ConstantPhoneme
p2562
(dp2563
S'p'
Vu
sbasg29
I00
sg27
Nsg31
I00
sg32
S'L'
sbsg33
(irule
FeatureMatrix
p2564
(dp2565
g25
(lp2566
(I01
g488
tp2567
asg27
Nsbsg42
(irule
Guard
p2568
(dp2569
g18
I00
sg19
(lp2570
(irule
FeatureMatrix
p2571
(dp2572
g25
(lp2573
(I01
g473
tp2574
asg27
Nsbasg29
I00
sg27
Nsg31
I00
sg32
S'R'
sbsg52
(irule
FeatureMatrix
p2575
(dp2576
g25
(lp2577
(I00
g1001
tp2578
asg27
Nsbsg27
Nsba(irule
Rule
p2579
(dp2580
g15
(irule
Guard
p2581
(dp2582
g18
I00
sg19
(lp2583
(irule
ConstantPhoneme
p2584
(dp2585
S'p'
Vu
sbasg29
I00
sg27
Nsg31
I00
sg32
S'L'
sbsg33
(irule
FeatureMatrix
p2586
(dp2587
g25
(lp2588
(I01
g488
tp2589
a(I00
g710
tp2590
asg27
Nsbsg42
(irule
Guard
p2591
(dp2592
g18
I00
sg19
(lp2593
(irule
FeatureMatrix
p2594
(dp2595
g25
(lp2596
(I01
g517
tp2597
asg27
Nsbasg29
I00
sg27
Nsg31
I00
sg32
S'R'
sbsg52
(irule
FeatureMatrix
p2598
(dp2599
g25
(lp2600
sg27
Nsbsg27
Nsbaa(lp2601
(irule
Rule
p2602
(dp2603
g15
(irule
Guard
p2604
(dp2605
g18
I00
sg19
(lp2606
sg29
I00
sg27
V
sg31
I00
sg32
S'L'
sbsg33
(irule
ConstantPhoneme
p2607
(dp2608
S'p'
Vm
sbsg42
(irule
Guard
p2609
(dp2610
g18
I00
sg19
(lp2611
(irule
FeatureMatrix
p2612
(dp2613
g25
(lp2614
(I01
S'nasal'
tp2615
asg27
V[ +nasal ]
p2616
sbasg29
I00
sg27
g2616
sg31
I00
sg32
S'R'
sbsg52
(irule
FeatureMatrix
p2617
(dp2618
g25
(lp2619
(I00
S'voice'
tp2620
asg27
V[ -voice ]
p2621
sbsg27
V[ -voice ] ---> m /  _ [ +nasal ]
p2622
sba(irule
Rule
p2623
(dp2624
g15
(irule
Guard
p2625
(dp2626
g18
I00
sg19
(lp2627
sg29
I00
sg27
Nsg31
I00
sg32
S'L'
sbsg33
(irule
ConstantPhoneme
p2628
(dp2629
S'p'
Vm
sbsg42
(irule
Guard
p2630
(dp2631
g18
I00
sg19
(lp2632
(irule
FeatureMatrix
p2633
(dp2634
g25
(lp2635
(I01
S'nasal'
p2636
tp2637
asg27
Nsbasg29
I00
sg27
Nsg31
I00
sg32
S'R'
sbsg52
(irule
FeatureMatrix
p2638
(dp2639
g25
(lp2640
(I00
S'sonorant'
p2641
tp2642
asg27
Nsbsg27
Nsba(irule
Rule
p2643
(dp2644
g15
(irule
Guard
p2645
(dp2646
g18
I00
sg19
(lp2647
sg29
I00
sg27
Nsg31
I00
sg32
S'L'
sbsg33
(irule
ConstantPhoneme
p2648
(dp2649
S'p'
Vm
sbsg42
(irule
Guard
p2650
(dp2651
g18
I00
sg19
(lp2652
(irule
FeatureMatrix
p2653
(dp2654
g25
(lp2655
(I01
g2636
tp2656
asg27
Nsbasg29
I00
sg27
Nsg31
I00
sg32
S'R'
sbsg52
(irule
FeatureMatrix
p2657
(dp2658
g25
(lp2659
(I00
S'vowel'
p2660
tp2661
asg27
Nsbsg27
Nsba(irule
Rule
p2662
(dp2663
g15
(irule
Guard
p2664
(dp2665
g18
I00
sg19
(lp2666
sg29
I00
sg27
Nsg31
I00
sg32
S'L'
sbsg33
(irule
ConstantPhoneme
p2667
(dp2668
S'p'
Vm
sbsg42
(irule
Guard
p2669
(dp2670
g18
I00
sg19
(lp2671
(irule
FeatureMatrix
p2672
(dp2673
g25
(lp2674
(I01
g2636
tp2675
asg27
Nsbasg29
I00
sg27
Nsg31
I00
sg32
S'R'
sbsg52
(irule
FeatureMatrix
p2676
(dp2677
g25
(lp2678
(I00
S'tense'
p2679
tp2680
asg27
Nsbsg27
Nsba(irule
Rule
p2681
(dp2682
g15
(irule
Guard
p2683
(dp2684
g18
I00
sg19
(lp2685
sg29
I00
sg27
Nsg31
I00
sg32
S'L'
sbsg33
(irule
FeatureMatrix
p2686
(dp2687
g25
(lp2688
(I01
g2636
tp2689
asg27
Nsbsg42
(irule
Guard
p2690
(dp2691
g18
I00
sg19
(lp2692
(irule
FeatureMatrix
p2693
(dp2694
g25
(lp2695
(I01
g2636
tp2696
asg27
Nsbasg29
I00
sg27
Nsg31
I00
sg32
S'R'
sbsg52
(irule
FeatureMatrix
p2697
(dp2698
g25
(lp2699
(I00
g2641
tp2700
asg27
Nsbsg27
Nsba(irule
Rule
p2701
(dp2702
g15
(irule
Guard
p2703
(dp2704
g18
I00
sg19
(lp2705
sg29
I00
sg27
Nsg31
I00
sg32
S'L'
sbsg33
(irule
ConstantPhoneme
p2706
(dp2707
S'p'
Vm
sbsg42
(irule
Guard
p2708
(dp2709
g18
I00
sg19
(lp2710
(irule
FeatureMatrix
p2711
(dp2712
g25
(lp2713
(I01
g2636
tp2714
asg27
Nsbasg29
I00
sg27
Nsg31
I00
sg32
S'R'
sbsg52
(irule
FeatureMatrix
p2715
(dp2716
g25
(lp2717
(I00
S'back'
p2718
tp2719
asg27
Nsbsg27
Nsba(irule
Rule
p2720
(dp2721
g15
(irule
Guard
p2722
(dp2723
g18
I00
sg19
(lp2724
sg29
I00
sg27
Nsg31
I00
sg32
S'L'
sbsg33
(irule
ConstantPhoneme
p2725
(dp2726
S'p'
Vm
sbsg42
(irule
Guard
p2727
(dp2728
g18
I00
sg19
(lp2729
(irule
FeatureMatrix
p2730
(dp2731
g25
(lp2732
(I01
g2636
tp2733
asg27
Nsbasg29
I00
sg27
Nsg31
I00
sg32
S'R'
sbsg52
(irule
FeatureMatrix
p2734
(dp2735
g25
(lp2736
(I00
S'continuant'
p2737
tp2738
asg27
Nsbsg27
Nsba(irule
Rule
p2739
(dp2740
g15
(irule
Guard
p2741
(dp2742
g18
I00
sg19
(lp2743
sg29
I00
sg27
Nsg31
I00
sg32
S'L'
sbsg33
(irule
ConstantPhoneme
p2744
(dp2745
S'p'
Vm
sbsg42
(irule
Guard
p2746
(dp2747
g18
I00
sg19
(lp2748
(irule
FeatureMatrix
p2749
(dp2750
g25
(lp2751
(I01
g2636
tp2752
asg27
Nsbasg29
I00
sg27
Nsg31
I00
sg32
S'R'
sbsg52
(irule
FeatureMatrix
p2753
(dp2754
g25
(lp2755
(I01
S'anterior'
p2756
tp2757
asg27
Nsbsg27
Nsba(irule
Rule
p2758
(dp2759
g15
(irule
Guard
p2760
(dp2761
g18
I00
sg19
(lp2762
sg29
I00
sg27
Nsg31
I00
sg32
S'L'
sbsg33
(irule
FeatureMatrix
p2763
(dp2764
g25
(lp2765
(I01
g2636
tp2766
asg27
Nsbsg42
(irule
Guard
p2767
(dp2768
g18
I00
sg19
(lp2769
(irule
FeatureMatrix
p2770
(dp2771
g25
(lp2772
(I01
g2636
tp2773
asg27
Nsbasg29
I00
sg27
Nsg31
I00
sg32
S'R'
sbsg52
(irule
FeatureMatrix
p2774
(dp2775
g25
(lp2776
(I00
S'voice'
p2777
tp2778
asg27
Nsbsg27
Nsba(irule
Rule
p2779
(dp2780
g15
(irule
Guard
p2781
(dp2782
g18
I00
sg19
(lp2783
sg29
I00
sg27
Nsg31
I00
sg32
S'L'
sbsg33
(irule
ConstantPhoneme
p2784
(dp2785
S'p'
Vm
sbsg42
(irule
Guard
p2786
(dp2787
g18
I00
sg19
(lp2788
(irule
FeatureMatrix
p2789
(dp2790
g25
(lp2791
(I01
g2636
tp2792
asg27
Nsba(irule
FeatureMatrix
p2793
(dp2794
g25
(lp2795
(I01
S'low'
p2796
tp2797
asg27
Nsbasg29
I00
sg27
Nsg31
I00
sg32
S'R'
sbsg52
(irule
FeatureMatrix
p2798
(dp2799
g25
(lp2800
sg27
Nsbsg27
Nsba(irule
Rule
p2801
(dp2802
g15
(irule
Guard
p2803
(dp2804
g18
I00
sg19
(lp2805
(irule
FeatureMatrix
p2806
(dp2807
g25
(lp2808
sg27
Nsbasg29
I00
sg27
Nsg31
I00
sg32
S'L'
sbsg33
(irule
ConstantPhoneme
p2809
(dp2810
S'p'
Vm
sbsg42
(irule
Guard
p2811
(dp2812
g18
I00
sg19
(lp2813
(irule
FeatureMatrix
p2814
(dp2815
g25
(lp2816
(I01
g2636
tp2817
asg27
Nsbasg29
I00
sg27
Nsg31
I00
sg32
S'R'
sbsg52
(irule
FeatureMatrix
p2818
(dp2819
g25
(lp2820
(I00
g2777
tp2821
asg27
Nsbsg27
Nsba(irule
Rule
p2822
(dp2823
g15
(irule
Guard
p2824
(dp2825
g18
I00
sg19
(lp2826
sg29
I00
sg27
Nsg31
I00
sg32
S'L'
sbsg33
(irule
ConstantPhoneme
p2827
(dp2828
S'p'
Vm
sbsg42
(irule
Guard
p2829
(dp2830
g18
I00
sg19
(lp2831
(irule
FeatureMatrix
p2832
(dp2833
g25
(lp2834
(I01
g2636
tp2835
asg27
Nsbasg29
I00
sg27
Nsg31
I00
sg32
S'R'
sbsg52
(irule
FeatureMatrix
p2836
(dp2837
g25
(lp2838
(I00
S'high'
p2839
tp2840
a(I00
g2796
tp2841
asg27
Nsbsg27
Nsba(irule
Rule
p2842
(dp2843
g15
(irule
Guard
p2844
(dp2845
g18
I00
sg19
(lp2846
(irule
FeatureMatrix
p2847
(dp2848
g25
(lp2849
(I01
g2660
tp2850
asg27
Nsbasg29
I00
sg27
Nsg31
I00
sg32
S'L'
sbsg33
(irule
ConstantPhoneme
p2851
(dp2852
S'p'
Vm
sbsg42
(irule
Guard
p2853
(dp2854
g18
I00
sg19
(lp2855
(irule
FeatureMatrix
p2856
(dp2857
g25
(lp2858
(I01
g2636
tp2859
asg27
Nsbasg29
I00
sg27
Nsg31
I00
sg32
S'R'
sbsg52
(irule
FeatureMatrix
p2860
(dp2861
g25
(lp2862
sg27
Nsbsg27
Nsba(irule
Rule
p2863
(dp2864
g15
(irule
Guard
p2865
(dp2866
g18
I00
sg19
(lp2867
sg29
I00
sg27
Nsg31
I00
sg32
S'L'
sbsg33
(irule
ConstantPhoneme
p2868
(dp2869
S'p'
Vm
sbsg42
(irule
Guard
p2870
(dp2871
g18
I00
sg19
(lp2872
(irule
FeatureMatrix
p2873
(dp2874
g25
(lp2875
(I01
g2636
tp2876
asg27
Nsba(irule
FeatureMatrix
p2877
(dp2878
g25
(lp2879
sg27
Nsbasg29
I00
sg27
Nsg31
I00
sg32
S'R'
sbsg52
(irule
FeatureMatrix
p2880
(dp2881
g25
(lp2882
(I00
g2777
tp2883
asg27
Nsbsg27
Nsba(irule
Rule
p2884
(dp2885
g15
(irule
Guard
p2886
(dp2887
g18
I00
sg19
(lp2888
sg29
I00
sg27
Nsg31
I00
sg32
S'L'
sbsg33
(irule
ConstantPhoneme
p2889
(dp2890
S'p'
Vm
sbsg42
(irule
Guard
p2891
(dp2892
g18
I00
sg19
(lp2893
(irule
FeatureMatrix
p2894
(dp2895
g25
(lp2896
(I01
g2636
tp2897
asg27
Nsbasg29
I00
sg27
Nsg31
I00
sg32
S'R'
sbsg52
(irule
FeatureMatrix
p2898
(dp2899
g25
(lp2900
(I00
g2718
tp2901
a(I00
S'sibilant'
p2902
tp2903
asg27
Nsbsg27
Nsba(irule
Rule
p2904
(dp2905
g15
(irule
Guard
p2906
(dp2907
g18
I00
sg19
(lp2908
sg29
I00
sg27
Nsg31
I00
sg32
S'L'
sbsg33
(irule
ConstantPhoneme
p2909
(dp2910
S'p'
Vm
sbsg42
(irule
Guard
p2911
(dp2912
g18
I00
sg19
(lp2913
(irule
FeatureMatrix
p2914
(dp2915
g25
(lp2916
(I01
g2636
tp2917
asg27
Nsba(irule
FeatureMatrix
p2918
(dp2919
g25
(lp2920
sg27
Nsbasg29
I00
sg27
Nsg31
I00
sg32
S'R'
sbsg52
(irule
FeatureMatrix
p2921
(dp2922
g25
(lp2923
(I00
g2660
tp2924
asg27
Nsbsg27
Nsba(irule
Rule
p2925
(dp2926
g15
(irule
Guard
p2927
(dp2928
g18
I00
sg19
(lp2929
sg29
I00
sg27
Nsg31
I00
sg32
S'L'
sbsg33
(irule
ConstantPhoneme
p2930
(dp2931
S'p'
Vm
sbsg42
(irule
Guard
p2932
(dp2933
g18
I00
sg19
(lp2934
(irule
FeatureMatrix
p2935
(dp2936
g25
(lp2937
(I01
g2636
tp2938
asg27
Nsba(irule
FeatureMatrix
p2939
(dp2940
g25
(lp2941
sg27
Nsbasg29
I00
sg27
Nsg31
I00
sg32
S'R'
sbsg52
(irule
FeatureMatrix
p2942
(dp2943
g25
(lp2944
(I01
g2756
tp2945
asg27
Nsbsg27
Nsba(irule
Rule
p2946
(dp2947
g15
(irule
Guard
p2948
(dp2949
g18
I00
sg19
(lp2950
(irule
FeatureMatrix
p2951
(dp2952
g25
(lp2953
(I01
g2679
tp2954
asg27
Nsbasg29
I00
sg27
Nsg31
I00
sg32
S'L'
sbsg33
(irule
ConstantPhoneme
p2955
(dp2956
S'p'
Vm
sbsg42
(irule
Guard
p2957
(dp2958
g18
I00
sg19
(lp2959
(irule
FeatureMatrix
p2960
(dp2961
g25
(lp2962
(I01
g2636
tp2963
asg27
Nsbasg29
I00
sg27
Nsg31
I00
sg32
S'R'
sbsg52
(irule
FeatureMatrix
p2964
(dp2965
g25
(lp2966
sg27
Nsbsg27
Nsba(irule
Rule
p2967
(dp2968
g15
(irule
Guard
p2969
(dp2970
g18
I00
sg19
(lp2971
sg29
I00
sg27
Nsg31
I00
sg32
S'L'
sbsg33
(irule
ConstantPhoneme
p2972
(dp2973
S'p'
Vm
sbsg42
(irule
Guard
p2974
(dp2975
g18
I00
sg19
(lp2976
(irule
FeatureMatrix
p2977
(dp2978
g25
(lp2979
(I01
g2636
tp2980
asg27
Nsba(irule
ConstantPhoneme
p2981
(dp2982
S'p'
Va
sbasg29
I00
sg27
Nsg31
I00
sg32
S'R'
sbsg52
(irule
FeatureMatrix
p2983
(dp2984
g25
(lp2985
sg27
Nsbsg27
Nsba(irule
Rule
p2986
(dp2987
g15
(irule
Guard
p2988
(dp2989
g18
I00
sg19
(lp2990
sg29
I00
sg27
Nsg31
I00
sg32
S'L'
sbsg33
(irule
ConstantPhoneme
p2991
(dp2992
S'p'
Vm
sbsg42
(irule
Guard
p2993
(dp2994
g18
I00
sg19
(lp2995
(irule
FeatureMatrix
p2996
(dp2997
g25
(lp2998
(I01
g2636
tp2999
asg27
Nsba(irule
FeatureMatrix
p3000
(dp3001
g25
(lp3002
sg27
Nsbasg29
I00
sg27
Nsg31
I00
sg32
S'R'
sbsg52
(irule
FeatureMatrix
p3003
(dp3004
g25
(lp3005
(I00
g2796
tp3006
asg27
Nsbsg27
Nsba(irule
Rule
p3007
(dp3008
g15
(irule
Guard
p3009
(dp3010
g18
I00
sg19
(lp3011
sg29
I00
sg27
Nsg31
I00
sg32
S'L'
sbsg33
(irule
ConstantPhoneme
p3012
(dp3013
S'p'
Vm
sbsg42
(irule
Guard
p3014
(dp3015
g18
I00
sg19
(lp3016
(irule
FeatureMatrix
p3017
(dp3018
g25
(lp3019
(I01
g2636
tp3020
asg27
Nsba(irule
FeatureMatrix
p3021
(dp3022
g25
(lp3023
sg27
Nsbasg29
I00
sg27
Nsg31
I00
sg32
S'R'
sbsg52
(irule
FeatureMatrix
p3024
(dp3025
g25
(lp3026
(I00
g2718
tp3027
asg27
Nsbsg27
Nsba(irule
Rule
p3028
(dp3029
g15
(irule
Guard
p3030
(dp3031
g18
I00
sg19
(lp3032
sg29
I00
sg27
Nsg31
I00
sg32
S'L'
sbsg33
(irule
ConstantPhoneme
p3033
(dp3034
S'p'
Vm
sbsg42
(irule
Guard
p3035
(dp3036
g18
I00
sg19
(lp3037
(irule
FeatureMatrix
p3038
(dp3039
g25
(lp3040
(I01
g2636
tp3041
a(I00
g2679
tp3042
asg27
Nsbasg29
I00
sg27
Nsg31
I00
sg32
S'R'
sbsg52
(irule
FeatureMatrix
p3043
(dp3044
g25
(lp3045
(I00
g2641
tp3046
asg27
Nsbsg27
Nsba(irule
Rule
p3047
(dp3048
g15
(irule
Guard
p3049
(dp3050
g18
I00
sg19
(lp3051
sg29
I00
sg27
Nsg31
I00
sg32
S'L'
sbsg33
(irule
ConstantPhoneme
p3052
(dp3053
S'p'
Vm
sbsg42
(irule
Guard
p3054
(dp3055
g18
I00
sg19
(lp3056
(irule
FeatureMatrix
p3057
(dp3058
g25
(lp3059
(I01
g2636
tp3060
asg27
Nsba(irule
FeatureMatrix
p3061
(dp3062
g25
(lp3063
sg27
Nsbasg29
I00
sg27
Nsg31
I00
sg32
S'R'
sbsg52
(irule
FeatureMatrix
p3064
(dp3065
g25
(lp3066
(I00
g2737
tp3067
asg27
Nsbsg27
Nsba(irule
Rule
p3068
(dp3069
g15
(irule
Guard
p3070
(dp3071
g18
I00
sg19
(lp3072
sg29
I00
sg27
Nsg31
I00
sg32
S'L'
sbsg33
(irule
FeatureMatrix
p3073
(dp3074
g25
(lp3075
(I01
g2636
tp3076
asg27
Nsbsg42
(irule
Guard
p3077
(dp3078
g18
I00
sg19
(lp3079
(irule
FeatureMatrix
p3080
(dp3081
g25
(lp3082
(I01
g2636
tp3083
asg27
Nsba(irule
FeatureMatrix
p3084
(dp3085
g25
(lp3086
sg27
Nsbasg29
I00
sg27
Nsg31
I00
sg32
S'R'
sbsg52
(irule
FeatureMatrix
p3087
(dp3088
g25
(lp3089
(I00
g2777
tp3090
asg27
Nsbsg27
Nsba(irule
Rule
p3091
(dp3092
g15
(irule
Guard
p3093
(dp3094
g18
I00
sg19
(lp3095
(irule
FeatureMatrix
p3096
(dp3097
g25
(lp3098
sg27
Nsbasg29
I00
sg27
Nsg31
I00
sg32
S'L'
sbsg33
(irule
ConstantPhoneme
p3099
(dp3100
S'p'
Vm
sbsg42
(irule
Guard
p3101
(dp3102
g18
I00
sg19
(lp3103
(irule
FeatureMatrix
p3104
(dp3105
g25
(lp3106
(I01
g2636
tp3107
asg27
Nsbasg29
I00
sg27
Nsg31
I00
sg32
S'R'
sbsg52
(irule
FeatureMatrix
p3108
(dp3109
g25
(lp3110
(I00
g2679
tp3111
asg27
Nsbsg27
Nsba(irule
Rule
p3112
(dp3113
g15
(irule
Guard
p3114
(dp3115
g18
I00
sg19
(lp3116
(irule
FeatureMatrix
p3117
(dp3118
g25
(lp3119
sg27
Nsbasg29
I00
sg27
Nsg31
I00
sg32
S'L'
sbsg33
(irule
ConstantPhoneme
p3120
(dp3121
S'p'
Vm
sbsg42
(irule
Guard
p3122
(dp3123
g18
I00
sg19
(lp3124
(irule
FeatureMatrix
p3125
(dp3126
g25
(lp3127
(I01
g2636
tp3128
asg27
Nsbasg29
I00
sg27
Nsg31
I00
sg32
S'R'
sbsg52
(irule
FeatureMatrix
p3129
(dp3130
g25
(lp3131
(I00
g2660
tp3132
asg27
Nsbsg27
Nsba(irule
Rule
p3133
(dp3134
g15
(irule
Guard
p3135
(dp3136
g18
I00
sg19
(lp3137
sg29
I00
sg27
Nsg31
I00
sg32
S'L'
sbsg33
(irule
ConstantPhoneme
p3138
(dp3139
S'p'
Vm
sbsg42
(irule
Guard
p3140
(dp3141
g18
I00
sg19
(lp3142
(irule
FeatureMatrix
p3143
(dp3144
g25
(lp3145
(I01
g2636
tp3146
asg27
Nsba(irule
FeatureMatrix
p3147
(dp3148
g25
(lp3149
sg27
Nsbasg29
I00
sg27
Nsg31
I00
sg32
S'R'
sbsg52
(irule
FeatureMatrix
p3150
(dp3151
g25
(lp3152
(I00
g2679
tp3153
asg27
Nsbsg27
Nsba(irule
Rule
p3154
(dp3155
g15
(irule
Guard
p3156
(dp3157
g18
I00
sg19
(lp3158
sg29
I00
sg27
Nsg31
I00
sg32
S'L'
sbsg33
(irule
ConstantPhoneme
p3159
(dp3160
S'p'
Vm
sbsg42
(irule
Guard
p3161
(dp3162
g18
I00
sg19
(lp3163
(irule
FeatureMatrix
p3164
(dp3165
g25
(lp3166
(I01
g2636
tp3167
asg27
Nsba(irule
FeatureMatrix
p3168
(dp3169
g25
(lp3170
sg27
Nsbasg29
I00
sg27
Nsg31
I00
sg32
S'R'
sbsg52
(irule
FeatureMatrix
p3171
(dp3172
g25
(lp3173
(I00
g2641
tp3174
asg27
Nsbsg27
Nsba(irule
Rule
p3175
(dp3176
g15
(irule
Guard
p3177
(dp3178
g18
I00
sg19
(lp3179
sg29
I00
sg27
Nsg31
I00
sg32
S'L'
sbsg33
(irule
FeatureMatrix
p3180
(dp3181
g25
(lp3182
(I01
g2636
tp3183
asg27
Nsbsg42
(irule
Guard
p3184
(dp3185
g18
I00
sg19
(lp3186
(irule
FeatureMatrix
p3187
(dp3188
g25
(lp3189
(I01
g2636
tp3190
asg27
Nsba(irule
FeatureMatrix
p3191
(dp3192
g25
(lp3193
sg27
Nsbasg29
I00
sg27
Nsg31
I00
sg32
S'R'
sbsg52
(irule
FeatureMatrix
p3194
(dp3195
g25
(lp3196
(I00
g2641
tp3197
asg27
Nsbsg27
Nsba(irule
Rule
p3198
(dp3199
g15
(irule
Guard
p3200
(dp3201
g18
I00
sg19
(lp3202
sg29
I00
sg27
Nsg31
I00
sg32
S'L'
sbsg33
(irule
ConstantPhoneme
p3203
(dp3204
S'p'
Vm
sbsg42
(irule
Guard
p3205
(dp3206
g18
I00
sg19
(lp3207
(irule
FeatureMatrix
p3208
(dp3209
g25
(lp3210
(I01
g2636
tp3211
asg27
Nsbasg29
I00
sg27
Nsg31
I00
sg32
S'R'
sbsg52
(irule
FeatureMatrix
p3212
(dp3213
g25
(lp3214
(I00
g2902
tp3215
a(I00
g2777
tp3216
asg27
Nsbsg27
Nsba(irule
Rule
p3217
(dp3218
g15
(irule
Guard
p3219
(dp3220
g18
I00
sg19
(lp3221
(irule
FeatureMatrix
p3222
(dp3223
g25
(lp3224
sg27
Nsbasg29
I00
sg27
Nsg31
I00
sg32
S'L'
sbsg33
(irule
ConstantPhoneme
p3225
(dp3226
S'p'
Vm
sbsg42
(irule
Guard
p3227
(dp3228
g18
I00
sg19
(lp3229
(irule
FeatureMatrix
p3230
(dp3231
g25
(lp3232
(I01
g2636
tp3233
asg27
Nsbasg29
I00
sg27
Nsg31
I00
sg32
S'R'
sbsg52
(irule
FeatureMatrix
p3234
(dp3235
g25
(lp3236
(I00
g2641
tp3237
asg27
Nsbsg27
Nsba(irule
Rule
p3238
(dp3239
g15
(irule
Guard
p3240
(dp3241
g18
I00
sg19
(lp3242
(irule
FeatureMatrix
p3243
(dp3244
g25
(lp3245
sg27
Nsbasg29
I00
sg27
Nsg31
I00
sg32
S'L'
sbsg33
(irule
ConstantPhoneme
p3246
(dp3247
S'p'
Vm
sbsg42
(irule
Guard
p3248
(dp3249
g18
I00
sg19
(lp3250
(irule
FeatureMatrix
p3251
(dp3252
g25
(lp3253
(I01
g2636
tp3254
asg27
Nsbasg29
I00
sg27
Nsg31
I00
sg32
S'R'
sbsg52
(irule
FeatureMatrix
p3255
(dp3256
g25
(lp3257
(I00
g2718
tp3258
asg27
Nsbsg27
Nsba(irule
Rule
p3259
(dp3260
g15
(irule
Guard
p3261
(dp3262
g18
I00
sg19
(lp3263
sg29
I00
sg27
Nsg31
I00
sg32
S'L'
sbsg33
(irule
ConstantPhoneme
p3264
(dp3265
S'p'
Vm
sbsg42
(irule
Guard
p3266
(dp3267
g18
I00
sg19
(lp3268
(irule
FeatureMatrix
p3269
(dp3270
g25
(lp3271
(I01
g2636
tp3272
a(I00
g2902
tp3273
asg27
Nsbasg29
I00
sg27
Nsg31
I00
sg32
S'R'
sbsg52
(irule
FeatureMatrix
p3274
(dp3275
g25
(lp3276
(I00
g2660
tp3277
asg27
Nsbsg27
Nsba(irule
Rule
p3278
(dp3279
g15
(irule
Guard
p3280
(dp3281
g18
I00
sg19
(lp3282
sg29
I00
sg27
Nsg31
I00
sg32
S'L'
sbsg33
(irule
ConstantPhoneme
p3283
(dp3284
S'p'
Vm
sbsg42
(irule
Guard
p3285
(dp3286
g18
I00
sg19
(lp3287
(irule
FeatureMatrix
p3288
(dp3289
g25
(lp3290
(I01
g2636
tp3291
asg27
Nsbasg29
I00
sg27
Nsg31
I00
sg32
S'R'
sbsg52
(irule
FeatureMatrix
p3292
(dp3293
g25
(lp3294
(I00
g2679
tp3295
a(I00
g2902
tp3296
asg27
Nsbsg27
Nsba(irule
Rule
p3297
(dp3298
g15
(irule
Guard
p3299
(dp3300
g18
I00
sg19
(lp3301
sg29
I00
sg27
Nsg31
I00
sg32
S'L'
sbsg33
(irule
ConstantPhoneme
p3302
(dp3303
S'p'
Vm
sbsg42
(irule
Guard
p3304
(dp3305
g18
I00
sg19
(lp3306
(irule
FeatureMatrix
p3307
(dp3308
g25
(lp3309
(I01
g2636
tp3310
a(I00
g2902
tp3311
asg27
Nsbasg29
I00
sg27
Nsg31
I00
sg32
S'R'
sbsg52
(irule
FeatureMatrix
p3312
(dp3313
g25
(lp3314
(I00
g2777
tp3315
asg27
Nsbsg27
Nsba(irule
Rule
p3316
(dp3317
g15
(irule
Guard
p3318
(dp3319
g18
I00
sg19
(lp3320
sg29
I00
sg27
Nsg31
I00
sg32
S'L'
sbsg33
(irule
ConstantPhoneme
p3321
(dp3322
S'p'
Vm
sbsg42
(irule
Guard
p3323
(dp3324
g18
I00
sg19
(lp3325
(irule
FeatureMatrix
p3326
(dp3327
g25
(lp3328
(I01
g2636
tp3329
asg27
Nsbasg29
I00
sg27
Nsg31
I00
sg32
S'R'
sbsg52
(irule
FeatureMatrix
p3330
(dp3331
g25
(lp3332
(I00
S'rounded'
p3333
tp3334
a(I00
g2660
tp3335
asg27
Nsbsg27
Nsba(irule
Rule
p3336
(dp3337
g15
(irule
Guard
p3338
(dp3339
g18
I00
sg19
(lp3340
(irule
FeatureMatrix
p3341
(dp3342
g25
(lp3343
sg27
Nsbasg29
I00
sg27
Nsg31
I00
sg32
S'L'
sbsg33
(irule
ConstantPhoneme
p3344
(dp3345
S'p'
Vm
sbsg42
(irule
Guard
p3346
(dp3347
g18
I00
sg19
(lp3348
(irule
FeatureMatrix
p3349
(dp3350
g25
(lp3351
(I01
g2636
tp3352
asg27
Nsbasg29
I00
sg27
Nsg31
I00
sg32
S'R'
sbsg52
(irule
FeatureMatrix
p3353
(dp3354
g25
(lp3355
(I01
g2756
tp3356
asg27
Nsbsg27
Nsba(irule
Rule
p3357
(dp3358
g15
(irule
Guard
p3359
(dp3360
g18
I00
sg19
(lp3361
(irule
FeatureMatrix
p3362
(dp3363
g25
(lp3364
sg27
Nsbasg29
I00
sg27
Nsg31
I00
sg32
S'L'
sbsg33
(irule
ConstantPhoneme
p3365
(dp3366
S'p'
Vm
sbsg42
(irule
Guard
p3367
(dp3368
g18
I00
sg19
(lp3369
(irule
FeatureMatrix
p3370
(dp3371
g25
(lp3372
(I01
g2636
tp3373
asg27
Nsbasg29
I00
sg27
Nsg31
I00
sg32
S'R'
sbsg52
(irule
FeatureMatrix
p3374
(dp3375
g25
(lp3376
(I00
g2737
tp3377
asg27
Nsbsg27
Nsba(irule
Rule
p3378
(dp3379
g15
(irule
Guard
p3380
(dp3381
g18
I00
sg19
(lp3382
sg29
I00
sg27
Nsg31
I00
sg32
S'L'
sbsg33
(irule
ConstantPhoneme
p3383
(dp3384
S'p'
Vm
sbsg42
(irule
Guard
p3385
(dp3386
g18
I00
sg19
(lp3387
(irule
FeatureMatrix
p3388
(dp3389
g25
(lp3390
(I01
g2636
tp3391
asg27
Nsbasg29
I00
sg27
Nsg31
I00
sg32
S'R'
sbsg52
(irule
FeatureMatrix
p3392
(dp3393
g25
(lp3394
(I00
g2660
tp3395
a(I00
g2902
tp3396
asg27
Nsbsg27
Nsba(irule
Rule
p3397
(dp3398
g15
(irule
Guard
p3399
(dp3400
g18
I00
sg19
(lp3401
sg29
I00
sg27
Nsg31
I00
sg32
S'L'
sbsg33
(irule
ConstantPhoneme
p3402
(dp3403
S'p'
Vm
sbsg42
(irule
Guard
p3404
(dp3405
g18
I00
sg19
(lp3406
(irule
FeatureMatrix
p3407
(dp3408
g25
(lp3409
(I01
g2636
tp3410
a(I00
g2902
tp3411
asg27
Nsbasg29
I00
sg27
Nsg31
I00
sg32
S'R'
sbsg52
(irule
FeatureMatrix
p3412
(dp3413
g25
(lp3414
(I00
g2737
tp3415
asg27
Nsbsg27
Nsba(irule
Rule
p3416
(dp3417
g15
(irule
Guard
p3418
(dp3419
g18
I00
sg19
(lp3420
(irule
FeatureMatrix
p3421
(dp3422
g25
(lp3423
sg27
Nsbasg29
I00
sg27
Nsg31
I00
sg32
S'L'
sbsg33
(irule
FeatureMatrix
p3424
(dp3425
g25
(lp3426
(I01
g2636
tp3427
asg27
Nsbsg42
(irule
Guard
p3428
(dp3429
g18
I00
sg19
(lp3430
(irule
FeatureMatrix
p3431
(dp3432
g25
(lp3433
(I01
g2636
tp3434
asg27
Nsbasg29
I00
sg27
Nsg31
I00
sg32
S'R'
sbsg52
(irule
FeatureMatrix
p3435
(dp3436
g25
(lp3437
(I00
g2641
tp3438
asg27
Nsbsg27
Nsba(irule
Rule
p3439
(dp3440
g15
(irule
Guard
p3441
(dp3442
g18
I00
sg19
(lp3443
sg29
I00
sg27
Nsg31
I00
sg32
S'L'
sbsg33
(irule
ConstantPhoneme
p3444
(dp3445
S'p'
Vm
sbsg42
(irule
Guard
p3446
(dp3447
g18
I00
sg19
(lp3448
(irule
FeatureMatrix
p3449
(dp3450
g25
(lp3451
(I01
g2636
tp3452
a(I00
g2902
tp3453
asg27
Nsbasg29
I00
sg27
Nsg31
I00
sg32
S'R'
sbsg52
(irule
FeatureMatrix
p3454
(dp3455
g25
(lp3456
(I00
g2679
tp3457
asg27
Nsbsg27
Nsba(irule
Rule
p3458
(dp3459
g15
(irule
Guard
p3460
(dp3461
g18
I00
sg19
(lp3462
sg29
I00
sg27
Nsg31
I00
sg32
S'L'
sbsg33
(irule
ConstantPhoneme
p3463
(dp3464
S'p'
Vm
sbsg42
(irule
Guard
p3465
(dp3466
g18
I00
sg19
(lp3467
(irule
FeatureMatrix
p3468
(dp3469
g25
(lp3470
(I01
g2636
tp3471
asg27
Nsbasg29
I00
sg27
Nsg31
I00
sg32
S'R'
sbsg52
(irule
FeatureMatrix
p3472
(dp3473
g25
(lp3474
(I00
g2641
tp3475
a(I00
g2902
tp3476
asg27
Nsbsg27
Nsba(irule
Rule
p3477
(dp3478
g15
(irule
Guard
p3479
(dp3480
g18
I00
sg19
(lp3481
(irule
FeatureMatrix
p3482
(dp3483
g25
(lp3484
sg27
Nsbasg29
I00
sg27
Nsg31
I00
sg32
S'L'
sbsg33
(irule
FeatureMatrix
p3485
(dp3486
g25
(lp3487
(I01
g2636
tp3488
asg27
Nsbsg42
(irule
Guard
p3489
(dp3490
g18
I00
sg19
(lp3491
(irule
FeatureMatrix
p3492
(dp3493
g25
(lp3494
(I01
g2636
tp3495
asg27
Nsbasg29
I00
sg27
Nsg31
I00
sg32
S'R'
sbsg52
(irule
FeatureMatrix
p3496
(dp3497
g25
(lp3498
(I00
g2777
tp3499
asg27
Nsbsg27
Nsba(irule
Rule
p3500
(dp3501
g15
(irule
Guard
p3502
(dp3503
g18
I00
sg19
(lp3504
sg29
I00
sg27
Nsg31
I00
sg32
S'L'
sbsg33
(irule
ConstantPhoneme
p3505
(dp3506
S'p'
Vm
sbsg42
(irule
Guard
p3507
(dp3508
g18
I00
sg19
(lp3509
(irule
FeatureMatrix
p3510
(dp3511
g25
(lp3512
(I01
g2636
tp3513
a(I01
g2641
tp3514
asg27
Nsbasg29
I00
sg27
Nsg31
I00
sg32
S'R'
sbsg52
(irule
FeatureMatrix
p3515
(dp3516
g25
(lp3517
(I00
g2660
tp3518
asg27
Nsbsg27
Nsba(irule
Rule
p3519
(dp3520
g15
(irule
Guard
p3521
(dp3522
g18
I00
sg19
(lp3523
sg29
I00
sg27
Nsg31
I00
sg32
S'L'
sbsg33
(irule
ConstantPhoneme
p3524
(dp3525
S'p'
Vm
sbsg42
(irule
Guard
p3526
(dp3527
g18
I00
sg19
(lp3528
(irule
FeatureMatrix
p3529
(dp3530
g25
(lp3531
(I01
g2636
tp3532
asg27
Nsbasg29
I00
sg27
Nsg31
I00
sg32
S'R'
sbsg52
(irule
FeatureMatrix
p3533
(dp3534
g25
(lp3535
(I00
g2796
tp3536
a(I00
g2660
tp3537
asg27
Nsbsg27
Nsba(irule
Rule
p3538
(dp3539
g15
(irule
Guard
p3540
(dp3541
g18
I00
sg19
(lp3542
sg29
I00
sg27
Nsg31
I00
sg32
S'L'
sbsg33
(irule
ConstantPhoneme
p3543
(dp3544
S'p'
Vm
sbsg42
(irule
Guard
p3545
(dp3546
g18
I00
sg19
(lp3547
(irule
FeatureMatrix
p3548
(dp3549
g25
(lp3550
(I01
g2636
tp3551
asg27
Nsbasg29
I00
sg27
Nsg31
I00
sg32
S'R'
sbsg52
(irule
FeatureMatrix
p3552
(dp3553
g25
(lp3554
(I00
S'coronal'
p3555
tp3556
a(I00
g2777
tp3557
asg27
Nsbsg27
Nsba(irule
Rule
p3558
(dp3559
g15
(irule
Guard
p3560
(dp3561
g18
I00
sg19
(lp3562
sg29
I00
sg27
Nsg31
I00
sg32
S'L'
sbsg33
(irule
FeatureMatrix
p3563
(dp3564
g25
(lp3565
(I01
g2636
tp3566
asg27
Nsbsg42
(irule
Guard
p3567
(dp3568
g18
I00
sg19
(lp3569
(irule
FeatureMatrix
p3570
(dp3571
g25
(lp3572
(I01
g2636
tp3573
a(I00
g2902
tp3574
asg27
Nsbasg29
I00
sg27
Nsg31
I00
sg32
S'R'
sbsg52
(irule
FeatureMatrix
p3575
(dp3576
g25
(lp3577
(I00
g2641
tp3578
asg27
Nsbsg27
Nsba(irule
Rule
p3579
(dp3580
g15
(irule
Guard
p3581
(dp3582
g18
I00
sg19
(lp3583
sg29
I00
sg27
Nsg31
I00
sg32
S'L'
sbsg33
(irule
ConstantPhoneme
p3584
(dp3585
S'p'
Vm
sbsg42
(irule
Guard
p3586
(dp3587
g18
I00
sg19
(lp3588
(irule
FeatureMatrix
p3589
(dp3590
g25
(lp3591
(I01
g2636
tp3592
a(I01
g2777
tp3593
asg27
Nsbasg29
I00
sg27
Nsg31
I00
sg32
S'R'
sbsg52
(irule
FeatureMatrix
p3594
(dp3595
g25
(lp3596
(I00
g2737
tp3597
asg27
Nsbsg27
Nsba(irule
Rule
p3598
(dp3599
g15
(irule
Guard
p3600
(dp3601
g18
I00
sg19
(lp3602
sg29
I00
sg27
Nsg31
I00
sg32
S'L'
sbsg33
(irule
ConstantPhoneme
p3603
(dp3604
S'p'
Vm
sbsg42
(irule
Guard
p3605
(dp3606
g18
I00
sg19
(lp3607
(irule
FeatureMatrix
p3608
(dp3609
g25
(lp3610
(I01
g2756
tp3611
a(I01
g2641
tp3612
asg27
Nsbasg29
I00
sg27
Nsg31
I00
sg32
S'R'
sbsg52
(irule
FeatureMatrix
p3613
(dp3614
g25
(lp3615
(I00
g2718
tp3616
asg27
Nsbsg27
Nsba(irule
Rule
p3617
(dp3618
g15
(irule
Guard
p3619
(dp3620
g18
I00
sg19
(lp3621
sg29
I00
sg27
Nsg31
I00
sg32
S'L'
sbsg33
(irule
ConstantPhoneme
p3622
(dp3623
S'p'
Vm
sbsg42
(irule
Guard
p3624
(dp3625
g18
I00
sg19
(lp3626
(irule
FeatureMatrix
p3627
(dp3628
g25
(lp3629
(I01
g2636
tp3630
asg27
Nsbasg29
I00
sg27
Nsg31
I00
sg32
S'R'
sbsg52
(irule
FeatureMatrix
p3631
(dp3632
g25
(lp3633
(I00
g2679
tp3634
a(I00
g2660
tp3635
asg27
Nsbsg27
Nsba(irule
Rule
p3636
(dp3637
g15
(irule
Guard
p3638
(dp3639
g18
I00
sg19
(lp3640
sg29
I00
sg27
Nsg31
I00
sg32
S'L'
sbsg33
(irule
ConstantPhoneme
p3641
(dp3642
S'p'
Vm
sbsg42
(irule
Guard
p3643
(dp3644
g18
I00
sg19
(lp3645
(irule
FeatureMatrix
p3646
(dp3647
g25
(lp3648
(I01
g2636
tp3649
asg27
Nsbasg29
I00
sg27
Nsg31
I00
sg32
S'R'
sbsg52
(irule
FeatureMatrix
p3650
(dp3651
g25
(lp3652
(I00
g3555
tp3653
a(I00
g2679
tp3654
asg27
Nsbsg27
Nsba(irule
Rule
p3655
(dp3656
g15
(irule
Guard
p3657
(dp3658
g18
I00
sg19
(lp3659
sg29
I00
sg27
Nsg31
I00
sg32
S'L'
sbsg33
(irule
ConstantPhoneme
p3660
(dp3661
S'p'
Vm
sbsg42
(irule
Guard
p3662
(dp3663
g18
I00
sg19
(lp3664
(irule
FeatureMatrix
p3665
(dp3666
g25
(lp3667
(I01
g2636
tp3668
a(I00
g2796
tp3669
asg27
Nsbasg29
I00
sg27
Nsg31
I00
sg32
S'R'
sbsg52
(irule
FeatureMatrix
p3670
(dp3671
g25
(lp3672
(I00
g2660
tp3673
asg27
Nsbsg27
Nsba(irule
Rule
p3674
(dp3675
g15
(irule
Guard
p3676
(dp3677
g18
I00
sg19
(lp3678
sg29
I00
sg27
Nsg31
I00
sg32
S'L'
sbsg33
(irule
ConstantPhoneme
p3679
(dp3680
S'p'
Vm
sbsg42
(irule
Guard
p3681
(dp3682
g18
I00
sg19
(lp3683
(irule
FeatureMatrix
p3684
(dp3685
g25
(lp3686
(I01
g2636
tp3687
asg27
Nsbasg29
I00
sg27
Nsg31
I00
sg32
S'R'
sbsg52
(irule
FeatureMatrix
p3688
(dp3689
g25
(lp3690
(I00
g2660
tp3691
a(I00
g2777
tp3692
asg27
Nsbsg27
Nsba(irule
Rule
p3693
(dp3694
g15
(irule
Guard
p3695
(dp3696
g18
I00
sg19
(lp3697
sg29
I00
sg27
Nsg31
I00
sg32
S'L'
sbsg33
(irule
ConstantPhoneme
p3698
(dp3699
S'p'
Vm
sbsg42
(irule
Guard
p3700
(dp3701
g18
I00
sg19
(lp3702
(irule
FeatureMatrix
p3703
(dp3704
g25
(lp3705
(I01
g2636
tp3706
a(I00
S'aspirated'
p3707
tp3708
asg27
Nsbasg29
I00
sg27
Nsg31
I00
sg32
S'R'
sbsg52
(irule
FeatureMatrix
p3709
(dp3710
g25
(lp3711
(I00
g2777
tp3712
asg27
Nsbsg27
Nsba(irule
Rule
p3713
(dp3714
g15
(irule
Guard
p3715
(dp3716
g18
I00
sg19
(lp3717
sg29
I00
sg27
Nsg31
I00
sg32
S'L'
sbsg33
(irule
ConstantPhoneme
p3718
(dp3719
S'p'
Vm
sbsg42
(irule
Guard
p3720
(dp3721
g18
I00
sg19
(lp3722
(irule
FeatureMatrix
p3723
(dp3724
g25
(lp3725
(I00
g2737
tp3726
a(I01
g2641
tp3727
asg27
Nsbasg29
I00
sg27
Nsg31
I00
sg32
S'R'
sbsg52
(irule
FeatureMatrix
p3728
(dp3729
g25
(lp3730
(I00
g2777
tp3731
asg27
Nsbsg27
Nsba(irule
Rule
p3732
(dp3733
g15
(irule
Guard
p3734
(dp3735
g18
I00
sg19
(lp3736
sg29
I00
sg27
Nsg31
I00
sg32
S'L'
sbsg33
(irule
ConstantPhoneme
p3737
(dp3738
S'p'
Vm
sbsg42
(irule
Guard
p3739
(dp3740
g18
I00
sg19
(lp3741
(irule
FeatureMatrix
p3742
(dp3743
g25
(lp3744
(I01
g2636
tp3745
asg27
Nsbasg29
I00
sg27
Nsg31
I00
sg32
S'R'
sbsg52
(irule
FeatureMatrix
p3746
(dp3747
g25
(lp3748
(I00
g2839
tp3749
a(I00
g2679
tp3750
asg27
Nsbsg27
Nsba(irule
Rule
p3751
(dp3752
g15
(irule
Guard
p3753
(dp3754
g18
I00
sg19
(lp3755
sg29
I00
sg27
Nsg31
I00
sg32
S'L'
sbsg33
(irule
ConstantPhoneme
p3756
(dp3757
S'p'
Vm
sbsg42
(irule
Guard
p3758
(dp3759
g18
I00
sg19
(lp3760
(irule
FeatureMatrix
p3761
(dp3762
g25
(lp3763
(I00
g3333
tp3764
a(I01
g2636
tp3765
asg27
Nsbasg29
I00
sg27
Nsg31
I00
sg32
S'R'
sbsg52
(irule
FeatureMatrix
p3766
(dp3767
g25
(lp3768
(I00
g2777
tp3769
asg27
Nsbsg27
Nsba(irule
Rule
p3770
(dp3771
g15
(irule
Guard
p3772
(dp3773
g18
I00
sg19
(lp3774
sg29
I00
sg27
Nsg31
I00
sg32
S'L'
sbsg33
(irule
ConstantPhoneme
p3775
(dp3776
S'p'
Vm
sbsg42
(irule
Guard
p3777
(dp3778
g18
I00
sg19
(lp3779
(irule
FeatureMatrix
p3780
(dp3781
g25
(lp3782
(I00
S'liquid'
tp3783
a(I01
g2636
tp3784
asg27
Nsbasg29
I00
sg27
Nsg31
I00
sg32
S'R'
sbsg52
(irule
FeatureMatrix
p3785
(dp3786
g25
(lp3787
(I00
g2718
tp3788
asg27
Nsbsg27
Nsba(irule
Rule
p3789
(dp3790
g15
(irule
Guard
p3791
(dp3792
g18
I00
sg19
(lp3793
sg29
I00
sg27
Nsg31
I00
sg32
S'L'
sbsg33
(irule
ConstantPhoneme
p3794
(dp3795
S'p'
Vm
sbsg42
(irule
Guard
p3796
(dp3797
g18
I00
sg19
(lp3798
(irule
FeatureMatrix
p3799
(dp3800
g25
(lp3801
(I01
g2636
tp3802
a(I00
g2839
tp3803
asg27
Nsbasg29
I00
sg27
Nsg31
I00
sg32
S'R'
sbsg52
(irule
FeatureMatrix
p3804
(dp3805
g25
(lp3806
(I01
g2756
tp3807
asg27
Nsbsg27
Nsba(irule
Rule
p3808
(dp3809
g15
(irule
Guard
p3810
(dp3811
g18
I00
sg19
(lp3812
sg29
I00
sg27
Nsg31
I00
sg32
S'L'
sbsg33
(irule
ConstantPhoneme
p3813
(dp3814
S'p'
Vm
sbsg42
(irule
Guard
p3815
(dp3816
g18
I00
sg19
(lp3817
(irule
FeatureMatrix
p3818
(dp3819
g25
(lp3820
(I01
g2636
tp3821
asg27
Nsbasg29
I00
sg27
Nsg31
I00
sg32
S'R'
sbsg52
(irule
FeatureMatrix
p3822
(dp3823
g25
(lp3824
(I00
g2679
tp3825
a(I00
g2796
tp3826
asg27
Nsbsg27
Nsba(irule
Rule
p3827
(dp3828
g15
(irule
Guard
p3829
(dp3830
g18
I00
sg19
(lp3831
sg29
I00
sg27
Nsg31
I00
sg32
S'L'
sbsg33
(irule
ConstantPhoneme
p3832
(dp3833
S'p'
Vm
sbsg42
(irule
Guard
p3834
(dp3835
g18
I00
sg19
(lp3836
(irule
FeatureMatrix
p3837
(dp3838
g25
(lp3839
(I00
g3333
tp3840
a(I01
g2636
tp3841
asg27
Nsbasg29
I00
sg27
Nsg31
I00
sg32
S'R'
sbsg52
(irule
FeatureMatrix
p3842
(dp3843
g25
(lp3844
(I00
g2660
tp3845
asg27
Nsbsg27
Nsba(irule
Rule
p3846
(dp3847
g15
(irule
Guard
p3848
(dp3849
g18
I00
sg19
(lp3850
sg29
I00
sg27
Nsg31
I00
sg32
S'L'
sbsg33
(irule
FeatureMatrix
p3851
(dp3852
g25
(lp3853
(I01
g2636
tp3854
asg27
Nsbsg42
(irule
Guard
p3855
(dp3856
g18
I00
sg19
(lp3857
(irule
FeatureMatrix
p3858
(dp3859
g25
(lp3860
(I01
g2756
tp3861
a(I01
g2641
tp3862
asg27
Nsbasg29
I00
sg27
Nsg31
I00
sg32
S'R'
sbsg52
(irule
FeatureMatrix
p3863
(dp3864
g25
(lp3865
(I00
g2641
tp3866
asg27
Nsbsg27
Nsba(irule
Rule
p3867
(dp3868
g15
(irule
Guard
p3869
(dp3870
g18
I00
sg19
(lp3871
sg29
I00
sg27
Nsg31
I00
sg32
S'L'
sbsg33
(irule
ConstantPhoneme
p3872
(dp3873
S'p'
Vm
sbsg42
(irule
Guard
p3874
(dp3875
g18
I00
sg19
(lp3876
(irule
FeatureMatrix
p3877
(dp3878
g25
(lp3879
(I01
g2636
tp3880
asg27
Nsbasg29
I00
sg27
Nsg31
I00
sg32
S'R'
sbsg52
(irule
FeatureMatrix
p3881
(dp3882
g25
(lp3883
(I00
g2796
tp3884
a(I00
g2777
tp3885
asg27
Nsbsg27
Nsba(irule
Rule
p3886
(dp3887
g15
(irule
Guard
p3888
(dp3889
g18
I00
sg19
(lp3890
sg29
I00
sg27
Nsg31
I00
sg32
S'L'
sbsg33
(irule
ConstantPhoneme
p3891
(dp3892
S'p'
Vm
sbsg42
(irule
Guard
p3893
(dp3894
g18
I00
sg19
(lp3895
(irule
FeatureMatrix
p3896
(dp3897
g25
(lp3898
(I01
g2636
tp3899
asg27
Nsbasg29
I00
sg27
Nsg31
I00
sg32
S'R'
sbsg52
(irule
FeatureMatrix
p3900
(dp3901
g25
(lp3902
(I00
g2839
tp3903
a(I00
g2777
tp3904
asg27
Nsbsg27
Nsba(irule
Rule
p3905
(dp3906
g15
(irule
Guard
p3907
(dp3908
g18
I00
sg19
(lp3909
sg29
I00
sg27
Nsg31
I00
sg32
S'L'
sbsg33
(irule
ConstantPhoneme
p3910
(dp3911
S'p'
Vm
sbsg42
(irule
Guard
p3912
(dp3913
g18
I00
sg19
(lp3914
(irule
FeatureMatrix
p3915
(dp3916
g25
(lp3917
(I01
g2636
tp3918
asg27
Nsbasg29
I00
sg27
Nsg31
I00
sg32
S'R'
sbsg52
(irule
FeatureMatrix
p3919
(dp3920
g25
(lp3921
(I00
g2679
tp3922
a(I00
g2777
tp3923
asg27
Nsbsg27
Nsba(irule
Rule
p3924
(dp3925
g15
(irule
Guard
p3926
(dp3927
g18
I00
sg19
(lp3928
sg29
I00
sg27
Nsg31
I00
sg32
S'L'
sbsg33
(irule
ConstantPhoneme
p3929
(dp3930
S'p'
Vm
sbsg42
(irule
Guard
p3931
(dp3932
g18
I00
sg19
(lp3933
(irule
FeatureMatrix
p3934
(dp3935
g25
(lp3936
(I01
g2636
tp3937
asg27
Nsbasg29
I00
sg27
Nsg31
I00
sg32
S'R'
sbsg52
(irule
FeatureMatrix
p3938
(dp3939
g25
(lp3940
(I00
g2718
tp3941
a(I00
g3555
tp3942
asg27
Nsbsg27
Nsba(irule
Rule
p3943
(dp3944
g15
(irule
Guard
p3945
(dp3946
g18
I00
sg19
(lp3947
sg29
I00
sg27
Nsg31
I00
sg32
S'L'
sbsg33
(irule
ConstantPhoneme
p3948
(dp3949
S'p'
Vm
sbsg42
(irule
Guard
p3950
(dp3951
g18
I00
sg19
(lp3952
(irule
FeatureMatrix
p3953
(dp3954
g25
(lp3955
(I01
g2636
tp3956
asg27
Nsbasg29
I00
sg27
Nsg31
I00
sg32
S'R'
sbsg52
(irule
FeatureMatrix
p3957
(dp3958
g25
(lp3959
(I00
g2641
tp3960
a(I00
g2839
tp3961
asg27
Nsbsg27
Nsba(irule
Rule
p3962
(dp3963
g15
(irule
Guard
p3964
(dp3965
g18
I00
sg19
(lp3966
sg29
I00
sg27
Nsg31
I00
sg32
S'L'
sbsg33
(irule
ConstantPhoneme
p3967
(dp3968
S'p'
Vm
sbsg42
(irule
Guard
p3969
(dp3970
g18
I00
sg19
(lp3971
(irule
FeatureMatrix
p3972
(dp3973
g25
(lp3974
(I01
g2636
tp3975
a(I00
g2796
tp3976
asg27
Nsbasg29
I00
sg27
Nsg31
I00
sg32
S'R'
sbsg52
(irule
FeatureMatrix
p3977
(dp3978
g25
(lp3979
(I00
g2777
tp3980
asg27
Nsbsg27
Nsba(irule
Rule
p3981
(dp3982
g15
(irule
Guard
p3983
(dp3984
g18
I00
sg19
(lp3985
sg29
I00
sg27
Nsg31
I00
sg32
S'L'
sbsg33
(irule
ConstantPhoneme
p3986
(dp3987
S'p'
Vm
sbsg42
(irule
Guard
p3988
(dp3989
g18
I00
sg19
(lp3990
(irule
FeatureMatrix
p3991
(dp3992
g25
(lp3993
(I01
g2636
tp3994
asg27
Nsbasg29
I00
sg27
Nsg31
I00
sg32
S'R'
sbsg52
(irule
FeatureMatrix
p3995
(dp3996
g25
(lp3997
(I00
g2718
tp3998
a(I00
g2839
tp3999
asg27
Nsbsg27
Nsba(irule
Rule
p4000
(dp4001
g15
(irule
Guard
p4002
(dp4003
g18
I00
sg19
(lp4004
sg29
I00
sg27
Nsg31
I00
sg32
S'L'
sbsg33
(irule
ConstantPhoneme
p4005
(dp4006
S'p'
Vm
sbsg42
(irule
Guard
p4007
(dp4008
g18
I00
sg19
(lp4009
(irule
FeatureMatrix
p4010
(dp4011
g25
(lp4012
(I01
g2756
tp4013
a(I01
g2636
tp4014
asg27
Nsbasg29
I00
sg27
Nsg31
I00
sg32
S'R'
sbsg52
(irule
FeatureMatrix
p4015
(dp4016
g25
(lp4017
(I00
g2777
tp4018
asg27
Nsbsg27
Nsba(irule
Rule
p4019
(dp4020
g15
(irule
Guard
p4021
(dp4022
g18
I00
sg19
(lp4023
sg29
I00
sg27
Nsg31
I00
sg32
S'L'
sbsg33
(irule
ConstantPhoneme
p4024
(dp4025
S'p'
Vm
sbsg42
(irule
Guard
p4026
(dp4027
g18
I00
sg19
(lp4028
(irule
FeatureMatrix
p4029
(dp4030
g25
(lp4031
(I00
S'glide'
p4032
tp4033
a(I01
g2636
tp4034
asg27
Nsbasg29
I00
sg27
Nsg31
I00
sg32
S'R'
sbsg52
(irule
FeatureMatrix
p4035
(dp4036
g25
(lp4037
(I00
g2777
tp4038
asg27
Nsbsg27
Nsba(irule
Rule
p4039
(dp4040
g15
(irule
Guard
p4041
(dp4042
g18
I00
sg19
(lp4043
sg29
I00
sg27
Nsg31
I00
sg32
S'L'
sbsg33
(irule
ConstantPhoneme
p4044
(dp4045
S'p'
Vm
sbsg42
(irule
Guard
p4046
(dp4047
g18
I00
sg19
(lp4048
(irule
FeatureMatrix
p4049
(dp4050
g25
(lp4051
(I01
g2636
tp4052
asg27
Nsbasg29
I00
sg27
Nsg31
I00
sg32
S'R'
sbsg52
(irule
FeatureMatrix
p4053
(dp4054
g25
(lp4055
(I00
g2839
tp4056
a(I00
g2660
tp4057
asg27
Nsbsg27
Nsba(irule
Rule
p4058
(dp4059
g15
(irule
Guard
p4060
(dp4061
g18
I00
sg19
(lp4062
sg29
I00
sg27
Nsg31
I00
sg32
S'L'
sbsg33
(irule
ConstantPhoneme
p4063
(dp4064
S'p'
Vm
sbsg42
(irule
Guard
p4065
(dp4066
g18
I00
sg19
(lp4067
(irule
FeatureMatrix
p4068
(dp4069
g25
(lp4070
(I01
g2636
tp4071
asg27
Nsbasg29
I00
sg27
Nsg31
I00
sg32
S'R'
sbsg52
(irule
FeatureMatrix
p4072
(dp4073
g25
(lp4074
(I00
g2737
tp4075
a(I00
g2902
tp4076
asg27
Nsbsg27
Nsba(irule
Rule
p4077
(dp4078
g15
(irule
Guard
p4079
(dp4080
g18
I00
sg19
(lp4081
sg29
I00
sg27
Nsg31
I00
sg32
S'L'
sbsg33
(irule
ConstantPhoneme
p4082
(dp4083
S'p'
Vm
sbsg42
(irule
Guard
p4084
(dp4085
g18
I00
sg19
(lp4086
(irule
FeatureMatrix
p4087
(dp4088
g25
(lp4089
(I01
g2636
tp4090
asg27
Nsbasg29
I00
sg27
Nsg31
I00
sg32
S'R'
sbsg52
(irule
FeatureMatrix
p4091
(dp4092
g25
(lp4093
(I00
g2636
tp4094
a(I00
g2660
tp4095
asg27
Nsbsg27
Nsba(irule
Rule
p4096
(dp4097
g15
(irule
Guard
p4098
(dp4099
g18
I00
sg19
(lp4100
sg29
I00
sg27
Nsg31
I00
sg32
S'L'
sbsg33
(irule
ConstantPhoneme
p4101
(dp4102
S'p'
Vm
sbsg42
(irule
Guard
p4103
(dp4104
g18
I00
sg19
(lp4105
(irule
FeatureMatrix
p4106
(dp4107
g25
(lp4108
(I01
g2636
tp4109
a(I00
g2902
tp4110
asg27
Nsbasg29
I00
sg27
Nsg31
I00
sg32
S'R'
sbsg52
(irule
FeatureMatrix
p4111
(dp4112
g25
(lp4113
(I00
g2718
tp4114
asg27
Nsbsg27
Nsba(irule
Rule
p4115
(dp4116
g15
(irule
Guard
p4117
(dp4118
g18
I00
sg19
(lp4119
sg29
I00
sg27
Nsg31
I00
sg32
S'L'
sbsg33
(irule
ConstantPhoneme
p4120
(dp4121
S'p'
Vm
sbsg42
(irule
Guard
p4122
(dp4123
g18
I00
sg19
(lp4124
(irule
FeatureMatrix
p4125
(dp4126
g25
(lp4127
(I01
g2636
tp4128
asg27
Nsbasg29
I00
sg27
Nsg31
I00
sg32
S'R'
sbsg52
(irule
FeatureMatrix
p4129
(dp4130
g25
(lp4131
(I00
g3555
tp4132
a(I00
g2660
tp4133
asg27
Nsbsg27
Nsba(irule
Rule
p4134
(dp4135
g15
(irule
Guard
p4136
(dp4137
g18
I00
sg19
(lp4138
sg29
I00
sg27
Nsg31
I00
sg32
S'L'
sbsg33
(irule
ConstantPhoneme
p4139
(dp4140
S'p'
Vm
sbsg42
(irule
Guard
p4141
(dp4142
g18
I00
sg19
(lp4143
(irule
FeatureMatrix
p4144
(dp4145
g25
(lp4146
(I01
g2636
tp4147
a(I00
g2796
tp4148
asg27
Nsbasg29
I00
sg27
Nsg31
I00
sg32
S'R'
sbsg52
(irule
FeatureMatrix
p4149
(dp4150
g25
(lp4151
(I00
g2718
tp4152
asg27
Nsbsg27
Nsba(irule
Rule
p4153
(dp4154
g15
(irule
Guard
p4155
(dp4156
g18
I00
sg19
(lp4157
sg29
I00
sg27
Nsg31
I00
sg32
S'L'
sbsg33
(irule
ConstantPhoneme
p4158
(dp4159
S'p'
Vm
sbsg42
(irule
Guard
p4160
(dp4161
g18
I00
sg19
(lp4162
(irule
FeatureMatrix
p4163
(dp4164
g25
(lp4165
(I01
g2636
tp4166
a(I01
g2777
tp4167
asg27
Nsbasg29
I00
sg27
Nsg31
I00
sg32
S'R'
sbsg52
(irule
FeatureMatrix
p4168
(dp4169
g25
(lp4170
(I00
g2679
tp4171
asg27
Nsbsg27
Nsba(irule
Rule
p4172
(dp4173
g15
(irule
Guard
p4174
(dp4175
g18
I00
sg19
(lp4176
sg29
I00
sg27
Nsg31
I00
sg32
S'L'
sbsg33
(irule
FeatureMatrix
p4177
(dp4178
g25
(lp4179
(I01
g2636
tp4180
asg27
Nsbsg42
(irule
Guard
p4181
(dp4182
g18
I00
sg19
(lp4183
(irule
FeatureMatrix
p4184
(dp4185
g25
(lp4186
(I01
g2636
tp4187
asg27
Nsbasg29
I00
sg27
Nsg31
I00
sg32
S'R'
sbsg52
(irule
FeatureMatrix
p4188
(dp4189
g25
(lp4190
(I00
g2902
tp4191
a(I00
g2777
tp4192
asg27
Nsbsg27
Nsba(irule
Rule
p4193
(dp4194
g15
(irule
Guard
p4195
(dp4196
g18
I00
sg19
(lp4197
sg29
I00
sg27
Nsg31
I00
sg32
S'L'
sbsg33
(irule
ConstantPhoneme
p4198
(dp4199
S'p'
Vm
sbsg42
(irule
Guard
p4200
(dp4201
g18
I00
sg19
(lp4202
(irule
FeatureMatrix
p4203
(dp4204
g25
(lp4205
(I00
g3333
tp4206
a(I01
g2636
tp4207
asg27
Nsbasg29
I00
sg27
Nsg31
I00
sg32
S'R'
sbsg52
(irule
FeatureMatrix
p4208
(dp4209
g25
(lp4210
(I00
g2737
tp4211
asg27
Nsbsg27
Nsba(irule
Rule
p4212
(dp4213
g15
(irule
Guard
p4214
(dp4215
g18
I00
sg19
(lp4216
sg29
I00
sg27
Nsg31
I00
sg32
S'L'
sbsg33
(irule
ConstantPhoneme
p4217
(dp4218
S'p'
Vm
sbsg42
(irule
Guard
p4219
(dp4220
g18
I00
sg19
(lp4221
(irule
FeatureMatrix
p4222
(dp4223
g25
(lp4224
(I01
g2636
tp4225
a(I00
g2718
tp4226
asg27
Nsbasg29
I00
sg27
Nsg31
I00
sg32
S'R'
sbsg52
(irule
FeatureMatrix
p4227
(dp4228
g25
(lp4229
(I00
g2777
tp4230
asg27
Nsbsg27
Nsba(irule
Rule
p4231
(dp4232
g15
(irule
Guard
p4233
(dp4234
g18
I00
sg19
(lp4235
sg29
I00
sg27
Nsg31
I00
sg32
S'L'
sbsg33
(irule
ConstantPhoneme
p4236
(dp4237
S'p'
Vm
sbsg42
(irule
Guard
p4238
(dp4239
g18
I00
sg19
(lp4240
(irule
FeatureMatrix
p4241
(dp4242
g25
(lp4243
(I01
g2636
tp4244
a(I00
g2902
tp4245
asg27
Nsbasg29
I00
sg27
Nsg31
I00
sg32
S'R'
sbsg52
(irule
FeatureMatrix
p4246
(dp4247
g25
(lp4248
(I00
g2641
tp4249
asg27
Nsbsg27
Nsba(irule
Rule
p4250
(dp4251
g15
(irule
Guard
p4252
(dp4253
g18
I00
sg19
(lp4254
sg29
I00
sg27
Nsg31
I00
sg32
S'L'
sbsg33
(irule
ConstantPhoneme
p4255
(dp4256
S'p'
Vm
sbsg42
(irule
Guard
p4257
(dp4258
g18
I00
sg19
(lp4259
(irule
FeatureMatrix
p4260
(dp4261
g25
(lp4262
(I01
g2636
tp4263
a(I00
g2902
tp4264
asg27
Nsbasg29
I00
sg27
Nsg31
I00
sg32
S'R'
sbsg52
(irule
FeatureMatrix
p4265
(dp4266
g25
(lp4267
(I01
g2756
tp4268
asg27
Nsbsg27
Nsba(irule
Rule
p4269
(dp4270
g15
(irule
Guard
p4271
(dp4272
g18
I00
sg19
(lp4273
sg29
I00
sg27
Nsg31
I00
sg32
S'L'
sbsg33
(irule
ConstantPhoneme
p4274
(dp4275
S'p'
Vm
sbsg42
(irule
Guard
p4276
(dp4277
g18
I00
sg19
(lp4278
(irule
FeatureMatrix
p4279
(dp4280
g25
(lp4281
(I01
g2756
tp4282
a(I01
g2777
tp4283
asg27
Nsbasg29
I00
sg27
Nsg31
I00
sg32
S'R'
sbsg52
(irule
FeatureMatrix
p4284
(dp4285
g25
(lp4286
(I00
g2737
tp4287
asg27
Nsbsg27
Nsba(irule
Rule
p4288
(dp4289
g15
(irule
Guard
p4290
(dp4291
g18
I00
sg19
(lp4292
sg29
I00
sg27
Nsg31
I00
sg32
S'L'
sbsg33
(irule
ConstantPhoneme
p4293
(dp4294
S'p'
Vm
sbsg42
(irule
Guard
p4295
(dp4296
g18
I00
sg19
(lp4297
(irule
FeatureMatrix
p4298
(dp4299
g25
(lp4300
(I01
g2636
tp4301
asg27
Nsbasg29
I00
sg27
Nsg31
I00
sg32
S'R'
sbsg52
(irule
FeatureMatrix
p4302
(dp4303
g25
(lp4304
(I00
g4032
tp4305
a(I00
g2660
tp4306
asg27
Nsbsg27
Nsba(irule
Rule
p4307
(dp4308
g15
(irule
Guard
p4309
(dp4310
g18
I00
sg19
(lp4311
sg29
I00
sg27
Nsg31
I00
sg32
S'L'
sbsg33
(irule
ConstantPhoneme
p4312
(dp4313
S'p'
Vm
sbsg42
(irule
Guard
p4314
(dp4315
g18
I00
sg19
(lp4316
(irule
FeatureMatrix
p4317
(dp4318
g25
(lp4319
(I01
g2636
tp4320
asg27
Nsbasg29
I00
sg27
Nsg31
I00
sg32
S'R'
sbsg52
(irule
FeatureMatrix
p4321
(dp4322
g25
(lp4323
(I00
g2641
tp4324
a(I00
g3555
tp4325
asg27
Nsbsg27
Nsba(irule
Rule
p4326
(dp4327
g15
(irule
Guard
p4328
(dp4329
g18
I00
sg19
(lp4330
sg29
I00
sg27
Nsg31
I00
sg32
S'L'
sbsg33
(irule
ConstantPhoneme
p4331
(dp4332
S'p'
Vm
sbsg42
(irule
Guard
p4333
(dp4334
g18
I00
sg19
(lp4335
(irule
FeatureMatrix
p4336
(dp4337
g25
(lp4338
(I01
g2636
tp4339
a(I01
g2777
tp4340
asg27
Nsbasg29
I00
sg27
Nsg31
I00
sg32
S'R'
sbsg52
(irule
FeatureMatrix
p4341
(dp4342
g25
(lp4343
(I00
g2777
tp4344
asg27
Nsbsg27
Nsba(irule
Rule
p4345
(dp4346
g15
(irule
Guard
p4347
(dp4348
g18
I00
sg19
(lp4349
sg29
I00
sg27
Nsg31
I00
sg32
S'L'
sbsg33
(irule
ConstantPhoneme
p4350
(dp4351
S'p'
Vm
sbsg42
(irule
Guard
p4352
(dp4353
g18
I00
sg19
(lp4354
(irule
FeatureMatrix
p4355
(dp4356
g25
(lp4357
(I01
g2636
tp4358
a(I00
g2660
tp4359
asg27
Nsbasg29
I00
sg27
Nsg31
I00
sg32
S'R'
sbsg52
(irule
FeatureMatrix
p4360
(dp4361
g25
(lp4362
(I00
g2777
tp4363
asg27
Nsbsg27
Nsba(irule
Rule
p4364
(dp4365
g15
(irule
Guard
p4366
(dp4367
g18
I00
sg19
(lp4368
sg29
I00
sg27
Nsg31
I00
sg32
S'L'
sbsg33
(irule
FeatureMatrix
p4369
(dp4370
g25
(lp4371
(I01
g2636
tp4372
asg27
Nsbsg42
(irule
Guard
p4373
(dp4374
g18
I00
sg19
(lp4375
(irule
FeatureMatrix
p4376
(dp4377
g25
(lp4378
(I01
g2636
tp4379
a(I00
g2902
tp4380
asg27
Nsbasg29
I00
sg27
Nsg31
I00
sg32
S'R'
sbsg52
(irule
FeatureMatrix
p4381
(dp4382
g25
(lp4383
(I00
g2777
tp4384
asg27
Nsbsg27
Nsba(irule
Rule
p4385
(dp4386
g15
(irule
Guard
p4387
(dp4388
g18
I00
sg19
(lp4389
sg29
I00
sg27
Nsg31
I00
sg32
S'L'
sbsg33
(irule
ConstantPhoneme
p4390
(dp4391
S'p'
Vm
sbsg42
(irule
Guard
p4392
(dp4393
g18
I00
sg19
(lp4394
(irule
FeatureMatrix
p4395
(dp4396
g25
(lp4397
(I01
g2636
tp4398
asg27
Nsbasg29
I00
sg27
Nsg31
I00
sg32
S'R'
sbsg52
(irule
FeatureMatrix
p4399
(dp4400
g25
(lp4401
(I00
g2641
tp4402
a(I00
g2796
tp4403
asg27
Nsbsg27
Nsba(irule
Rule
p4404
(dp4405
g15
(irule
Guard
p4406
(dp4407
g18
I00
sg19
(lp4408
sg29
I00
sg27
Nsg31
I00
sg32
S'L'
sbsg33
(irule
ConstantPhoneme
p4409
(dp4410
S'p'
Vm
sbsg42
(irule
Guard
p4411
(dp4412
g18
I00
sg19
(lp4413
(irule
FeatureMatrix
p4414
(dp4415
g25
(lp4416
(I01
g2636
tp4417
asg27
Nsbasg29
I00
sg27
Nsg31
I00
sg32
S'R'
sbsg52
(irule
FeatureMatrix
p4418
(dp4419
g25
(lp4420
(I00
g2718
tp4421
a(I00
g2796
tp4422
asg27
Nsbsg27
Nsba(irule
Rule
p4423
(dp4424
g15
(irule
Guard
p4425
(dp4426
g18
I00
sg19
(lp4427
sg29
I00
sg27
Nsg31
I00
sg32
S'L'
sbsg33
(irule
ConstantPhoneme
p4428
(dp4429
S'p'
Vm
sbsg42
(irule
Guard
p4430
(dp4431
g18
I00
sg19
(lp4432
(irule
FeatureMatrix
p4433
(dp4434
g25
(lp4435
(I01
g2636
tp4436
a(I00
g2660
tp4437
asg27
Nsbasg29
I00
sg27
Nsg31
I00
sg32
S'R'
sbsg52
(irule
FeatureMatrix
p4438
(dp4439
g25
(lp4440
(I00
g2679
tp4441
asg27
Nsbsg27
Nsba(irule
Rule
p4442
(dp4443
g15
(irule
Guard
p4444
(dp4445
g18
I00
sg19
(lp4446
sg29
I00
sg27
Nsg31
I00
sg32
S'L'
sbsg33
(irule
FeatureMatrix
p4447
(dp4448
g25
(lp4449
(I01
g2636
tp4450
asg27
Nsbsg42
(irule
Guard
p4451
(dp4452
g18
I00
sg19
(lp4453
(irule
FeatureMatrix
p4454
(dp4455
g25
(lp4456
(I01
g2636
tp4457
asg27
Nsbasg29
I00
sg27
Nsg31
I00
sg32
S'R'
sbsg52
(irule
FeatureMatrix
p4458
(dp4459
g25
(lp4460
(I00
g2636
tp4461
a(I00
g2660
tp4462
asg27
Nsbsg27
Nsba(irule
Rule
p4463
(dp4464
g15
(irule
Guard
p4465
(dp4466
g18
I00
sg19
(lp4467
sg29
I00
sg27
Nsg31
I00
sg32
S'L'
sbsg33
(irule
ConstantPhoneme
p4468
(dp4469
S'p'
Vm
sbsg42
(irule
Guard
p4470
(dp4471
g18
I00
sg19
(lp4472
(irule
FeatureMatrix
p4473
(dp4474
g25
(lp4475
(I01
g2636
tp4476
a(I00
g3707
tp4477
asg27
Nsbasg29
I00
sg27
Nsg31
I00
sg32
S'R'
sbsg52
(irule
FeatureMatrix
p4478
(dp4479
g25
(lp4480
(I00
g2660
tp4481
asg27
Nsbsg27
Nsba(irule
Rule
p4482
(dp4483
g15
(irule
Guard
p4484
(dp4485
g18
I00
sg19
(lp4486
sg29
I00
sg27
Nsg31
I00
sg32
S'L'
sbsg33
(irule
FeatureMatrix
p4487
(dp4488
g25
(lp4489
(I01
g2636
tp4490
asg27
Nsbsg42
(irule
Guard
p4491
(dp4492
g18
I00
sg19
(lp4493
(irule
FeatureMatrix
p4494
(dp4495
g25
(lp4496
(I01
g2636
tp4497
asg27
Nsbasg29
I00
sg27
Nsg31
I00
sg32
S'R'
sbsg52
(irule
FeatureMatrix
p4498
(dp4499
g25
(lp4500
(I00
g3555
tp4501
a(I00
g2777
tp4502
asg27
Nsbsg27
Nsba(irule
Rule
p4503
(dp4504
g15
(irule
Guard
p4505
(dp4506
g18
I00
sg19
(lp4507
sg29
I00
sg27
Nsg31
I00
sg32
S'L'
sbsg33
(irule
ConstantPhoneme
p4508
(dp4509
S'p'
Vm
sbsg42
(irule
Guard
p4510
(dp4511
g18
I00
sg19
(lp4512
(irule
FeatureMatrix
p4513
(dp4514
g25
(lp4515
(I01
g2636
tp4516
asg27
Nsbasg29
I00
sg27
Nsg31
I00
sg32
S'R'
sbsg52
(irule
FeatureMatrix
p4517
(dp4518
g25
(lp4519
(I00
g2737
tp4520
a(I00
g2636
tp4521
asg27
Nsbsg27
Nsba(irule
Rule
p4522
(dp4523
g15
(irule
Guard
p4524
(dp4525
g18
I00
sg19
(lp4526
sg29
I00
sg27
Nsg31
I00
sg32
S'L'
sbsg33
(irule
ConstantPhoneme
p4527
(dp4528
S'p'
Vm
sbsg42
(irule
Guard
p4529
(dp4530
g18
I00
sg19
(lp4531
(irule
FeatureMatrix
p4532
(dp4533
g25
(lp4534
(I01
g2636
tp4535
asg27
Nsbasg29
I00
sg27
Nsg31
I00
sg32
S'R'
sbsg52
(irule
FeatureMatrix
p4536
(dp4537
g25
(lp4538
(I01
g2756
tp4539
a(I00
g4032
tp4540
asg27
Nsbsg27
Nsba(irule
Rule
p4541
(dp4542
g15
(irule
Guard
p4543
(dp4544
g18
I00
sg19
(lp4545
sg29
I00
sg27
Nsg31
I00
sg32
S'L'
sbsg33
(irule
ConstantPhoneme
p4546
(dp4547
S'p'
Vm
sbsg42
(irule
Guard
p4548
(dp4549
g18
I00
sg19
(lp4550
(irule
FeatureMatrix
p4551
(dp4552
g25
(lp4553
(I01
g2756
tp4554
a(I01
g2777
tp4555
asg27
Nsbasg29
I00
sg27
Nsg31
I00
sg32
S'R'
sbsg52
(irule
FeatureMatrix
p4556
(dp4557
g25
(lp4558
(I00
g2777
tp4559
asg27
Nsbsg27
Nsba(irule
Rule
p4560
(dp4561
g15
(irule
Guard
p4562
(dp4563
g18
I00
sg19
(lp4564
sg29
I00
sg27
Nsg31
I00
sg32
S'L'
sbsg33
(irule
ConstantPhoneme
p4565
(dp4566
S'p'
Vm
sbsg42
(irule
Guard
p4567
(dp4568
g18
I00
sg19
(lp4569
(irule
FeatureMatrix
p4570
(dp4571
g25
(lp4572
(I01
g2636
tp4573
asg27
Nsbasg29
I00
sg27
Nsg31
I00
sg32
S'R'
sbsg52
(irule
FeatureMatrix
p4574
(dp4575
g25
(lp4576
(I00
g2636
tp4577
a(I00
g2777
tp4578
asg27
Nsbsg27
NsbaasbsS'parameters'
p4579
g6
(cargparse
Namespace
p4580
g8
NtRp4581
(dp4582
S'dummy'
p4583
I00
sS'task'
p4584
S'CEGIS'
p4585
sS'features'
p4586
S'sophisticated'
p4587
sS'resume'
p4588
I00
sS'geometry'
p4589
I01
sS'top'
p4590
I100
sS'disableClean'
p4591
I00
sS'universal'
p4592
NsS'restrict'
p4593
NsS'window'
p4594
NsS'seed'
p4595
S'0'
sS'restore'
p4596
NsS'verbosity'
p4597
I0
sS'timeout'
p4598
F24
sS'debug'
p4599
NsS'cores'
p4600
I40
sg425
S'Odden_3.7_Korean'
p4601
sS'save'
p4602
NsS'serial'
p4603
I00
sS'alignment'
p4604
I00
sS'samples'
p4605
I30
sbsb.