(iresult
Result
p1
(dp2
S'startTime'
p3
F1549482697.3209059
sS'problem'
p4
S'Odden_81_Koasati'
p5
sS'solutionSequence'
p6
(lp7
(ccopy_reg
_reconstructor
p8
(csolution
Solution
p9
c__builtin__
object
p10
NtRp11
(dp12
S'rules'
p13
(lp14
(irule
Rule
p15
(dp16
S'leftTriggers'
p17
(irule
Guard
p18
(dp19
S'endOfString'
p20
I00
sS'specifications'
p21
(lp22
sS'optionalEnding'
p23
I00
sS'representation'
p24
V
sS'starred'
p25
I00
sS'side'
p26
S'L'
sbsS'structuralChange'
p27
(irule
FeatureMatrix
p28
(dp29
S'featuresAndPolarities'
p30
(lp31
sg24
V[  ]
p32
sbsS'rightTriggers'
p33
(irule
Guard
p34
(dp35
g20
I00
sg21
(lp36
sg23
I00
sg24
V
sg25
I00
sg26
S'R'
sbsS'focus'
p37
(irule
FeatureMatrix
p38
(dp39
g30
(lp40
sg24
V[  ]
p41
sbsg24
V[  ] ---> [  ] /  _ 
p42
sbasS'prefixes'
p43
(lp44
(imorph
Morph
p45
(dp46
S'phonemes'
p47
(lp48
sba(imorph
Morph
p49
(dp50
g47
(lp51
Va
aVm
asbasS'underlyingForms'
p52
(dp53
((imorph
Morph
(dp54
g47
(lp55
Va
aVp
aVa
aVh
aVc\u030c
p56
aVa\u0301
p57
asb(imorph
Morph
(dp58
g47
(lp59
Va
aVm
aVa
aVp
aVa
aVh
aVc\u030c
p60
aVa\u0301
p61
asbtp62
(imorph
Morph
p63
(dp64
g47
(lp65
Va
aVp
aVa
aVh
aVc\u030c
p66
aVa\u0301
p67
asbs((imorph
Morph
(dp68
g47
(lp69
Va
aVs
aVi
aVk
aVc\u030c
p70
aVi\u0301
p71
asb(imorph
Morph
(dp72
g47
(lp73
Va
aVm
aVa
aVs
aVi
aVk
aVc\u030c
p74
aVi\u0301
p75
asbtp76
(imorph
Morph
p77
(dp78
g47
(lp79
Va
aVs
aVi
aVk
ag66
aVi\u0301
p80
asbs((imorph
Morph
(dp81
g47
(lp82
Vi
aVl
aVk
aVa
aVn
aVo\u0301
p83
asb(imorph
Morph
(dp84
g47
(lp85
Va
aVm
aVi
aVl
aVk
aVa
aVn
aVo\u0301
p86
asbtp87
(imorph
Morph
p88
(dp89
g47
(lp90
Vi
aVl
aVk
aVa
aVn
aVo\u0301
p91
asbssS'suffixes'
p92
(lp93
(imorph
Morph
p94
(dp95
g47
(lp96
sba(imorph
Morph
p97
(dp98
g47
(lp99
sbasbF40.400312185287476
tp100
a(g8
(g9
g10
NtRp101
(dp102
g13
(lp103
(irule
Rule
p104
(dp105
g17
(irule
Guard
p106
(dp107
g20
I00
sg21
(lp108
sg23
I00
sg24
V
sg25
I00
sg26
S'L'
sbsg27
(irule
PlaceSpecification
p109
(dp110
S'offset'
p111
I1
sbsg33
(irule
Guard
p112
(dp113
g20
I00
sg21
(lp114
(irule
FeatureMatrix
p115
(dp116
g30
(lp117
(I00
S'voice'
tp118
asg24
V[ -voice ]
p119
sbasg23
I00
sg24
g119
sg25
I00
sg26
S'R'
sbsg37
(irule
ConstantPhoneme
p120
(dp121
S'p'
Vm
sbsg24
Vm ---> place1 /  _ [ -voice ]
p122
sbasg43
(lp123
(imorph
Morph
p124
(dp125
g47
(lp126
sba(imorph
Morph
p127
(dp128
g47
(lp129
Va
aVm
asbasg52
(dp130
((imorph
Morph
(dp131
g47
(lp132
Vi
aVf
aVa\u0301
p133
asb(imorph
Morph
(dp134
g47
(lp135
Va
aVm
aVi
aVf
aVa\u0301
p136
asbtp137
(imorph
Morph
p138
(dp139
g47
(lp140
Vi
aVf
aVa\u0301
p141
asbs((imorph
Morph
(dp142
g47
(lp143
Va
aVp
aVa
aVh
aVc\u030c
p144
aVa\u0301
p145
asb(imorph
Morph
(dp146
g47
(lp147
Va
aVm
aVa
aVp
aVa
aVh
aVc\u030c
p148
aVa\u0301
p149
asbtp150
(imorph
Morph
p151
(dp152
g47
(lp153
Va
aVp
aVa
aVh
aVc\u030c
p154
ag141
asbs((imorph
Morph
(dp155
g47
(lp156
Vt
aVo
aVw
aVa\u0301
p157
asb(imorph
Morph
(dp158
g47
(lp159
Va
aVn
aVt
aVo
aVw
aVa\u0301
p160
asbtp161
(imorph
Morph
p162
(dp163
g47
(lp164
Vt
aVo
aVw
ag141
asbs((imorph
Morph
(dp165
g47
(lp166
Vp
aVa
aVc\u030c
p167
aVo
aVk
aVk
aVo\u0308\u0301
p168
aVk
aVa
asb(imorph
Morph
(dp169
g47
(lp170
Va
aVm
aVp
aVa
aVc\u030c
p171
aVo
aVk
aVk
aVo\u0308\u0301
p172
aVk
aVa
asbtp173
(imorph
Morph
p174
(dp175
g47
(lp176
Vp
aVa
ag154
aVo
aVk
aVk
aVo\u0308\u0301
p177
aVk
aVa
asbs((imorph
Morph
(dp178
g47
(lp179
Vi
aVs
aVk
aVi\u0301
p180
asb(imorph
Morph
(dp181
g47
(lp182
Va
aVm
aVi
aVs
aVk
aVi\u0301
p183
asbtp184
(imorph
Morph
p185
(dp186
g47
(lp187
Vi
aVs
aVk
aVi\u0301
p188
asbs((imorph
Morph
(dp189
g47
(lp190
Vi
aVl
aVk
aVa
aVn
aVo\u0301
p191
asb(imorph
Morph
(dp192
g47
(lp193
Va
aVm
aVi
aVl
aVk
aVa
aVn
aVo\u0301
p194
asbtp195
(imorph
Morph
p196
(dp197
g47
(lp198
Vi
aVl
aVk
aVa
aVn
aVo\u0301
p199
asbs((imorph
Morph
(dp200
g47
(lp201
Vb
aVa
aVy
aVa\u0301:
p202
aVn
aVa
asb(imorph
Morph
(dp203
g47
(lp204
Va
aVm
aVb
aVa
aVy
aVa\u0301:
p205
aVn
aVa
asbtp206
(imorph
Morph
p207
(dp208
g47
(lp209
Vb
aVa
aVy
aVa\u0301:
p210
aVn
aVa
asbs((imorph
Morph
(dp211
g47
(lp212
Va
aVs
aVi
aVk
aVc\u030c
p213
aVi\u0301
p214
asb(imorph
Morph
(dp215
g47
(lp216
Va
aVm
aVa
aVs
aVi
aVk
aVc\u030c
p217
aVi\u0301
p218
asbtp219
(imorph
Morph
p220
(dp221
g47
(lp222
Va
aVs
aVi
aVk
ag154
ag188
asbs((imorph
Morph
(dp223
g47
(lp224
Vk
aVa
aVs
aVt
aVo\u0301
p225
asb(imorph
Morph
(dp226
g47
(lp227
Va
aV\u014b
aVk
aVa
aVs
aVt
aVo\u0301
p228
asbtp229
(imorph
Morph
p230
(dp231
g47
(lp232
Vk
aVa
aVs
aVt
ag199
asbs((imorph
Morph
(dp233
g47
(lp234
Va:
p235
aVp
aVo\u0301
p236
asb(imorph
Morph
(dp237
g47
(lp238
Va
aVm
aVa:
p239
aVp
aVo\u0301
p240
asbtp241
(imorph
Morph
p242
(dp243
g47
(lp244
Va:
p245
aVp
ag199
asbssg92
(lp246
(imorph
Morph
p247
(dp248
g47
(lp249
sba(imorph
Morph
p250
(dp251
g47
(lp252
sbasbF2936.3200750350952
tp253
asS'finalFrontier'
p254
g8
(csolution
Frontier
p255
g10
NtRp256
(dp257
g43
g123
sg92
g246
sg52
(dp258
((imorph
Morph
(dp259
g47
(lp260
Va:
p261
aVp
aVo\u0301
p262
asb(imorph
Morph
(dp263
g47
(lp264
Va
aVm
aVa:
p265
aVp
aVo\u0301
p266
asbtp267
(imorph
Morph
p268
(dp269
g47
(lp270
Va:
p271
aVp
aVo\u0301
p272
asbs((imorph
Morph
(dp273
g47
(lp274
Vi
aVf
aVa\u0301
p275
asb(imorph
Morph
(dp276
g47
(lp277
Va
aVm
aVi
aVf
aVa\u0301
p278
asbtp279
(imorph
Morph
p280
(dp281
g47
(lp282
Vi
aVf
aVa\u0301
p283
asbs((imorph
Morph
(dp284
g47
(lp285
Vt
aVo
aVw
aVa\u0301
p286
asb(imorph
Morph
(dp287
g47
(lp288
Va
aVn
aVt
aVo
aVw
aVa\u0301
p289
asbtp290
(imorph
Morph
p291
(dp292
g47
(lp293
Vt
aVo
aVw
ag283
asbs((imorph
Morph
(dp294
g47
(lp295
Vp
aVa
aVc\u030c
p296
aVo
aVk
aVk
aVo\u0308\u0301
p297
aVk
aVa
asb(imorph
Morph
(dp298
g47
(lp299
Va
aVm
aVp
aVa
aVc\u030c
p300
aVo
aVk
aVk
aVo\u0308\u0301
p301
aVk
aVa
asbtp302
(imorph
Morph
p303
(dp304
g47
(lp305
Vp
aVa
aVc\u030c
p306
aVo
aVk
aVk
aVo\u0308\u0301
p307
aVk
aVa
asbs((imorph
Morph
(dp308
g47
(lp309
Vt
aVo
aVn
aVi\u0301
p310
asb(imorph
Morph
(dp311
g47
(lp312
Va
aVn
aVt
aVo
aVn
aVi\u0301
p313
asbtp314
(imorph
Morph
p315
(dp316
g47
(lp317
Vt
aVo
aVn
aVi\u0301
p318
asbs((imorph
Morph
(dp319
g47
(lp320
Vk
aVi
aVt
aVi
aV\u0142
aVk
aVa\u0301
p321
asb(imorph
Morph
(dp322
g47
(lp323
Va
aV\u014b
aVk
aVi
aVt
aVi
aV\u0142
aVk
aVa\u0301
p324
asbtp325
(imorph
Morph
p326
(dp327
g47
(lp328
Vk
aVi
aVt
aVi
aV\u0142
aVk
ag283
asbs((imorph
Morph
(dp329
g47
(lp330
Vi
aVs
aVk
aVi\u0301
p331
asb(imorph
Morph
(dp332
g47
(lp333
Va
aVm
aVi
aVs
aVk
aVi\u0301
p334
asbtp335
(imorph
Morph
p336
(dp337
g47
(lp338
Vi
aVs
aVk
ag318
asbs((imorph
Morph
(dp339
g47
(lp340
Vi
aVl
aVk
aVa
aVn
aVo\u0301
p341
asb(imorph
Morph
(dp342
g47
(lp343
Va
aVm
aVi
aVl
aVk
aVa
aVn
aVo\u0301
p344
asbtp345
(imorph
Morph
p346
(dp347
g47
(lp348
Vi
aVl
aVk
aVa
aVn
ag272
asbs((imorph
Morph
(dp349
g47
(lp350
Vb
aVa
aVy
aVa\u0301:
p351
aVn
aVa
asb(imorph
Morph
(dp352
g47
(lp353
Va
aVm
aVb
aVa
aVy
aVa\u0301:
p354
aVn
aVa
asbtp355
(imorph
Morph
p356
(dp357
g47
(lp358
Vb
aVa
aVy
aVa\u0301:
p359
aVn
aVa
asbs((imorph
Morph
(dp360
g47
(lp361
Vt
aVa\u0301:
p362
aVt
aVa
asb(imorph
Morph
(dp363
g47
(lp364
Va
aVn
aVt
aVa\u0301:
p365
aVt
aVa
asbtp366
(imorph
Morph
p367
(dp368
g47
(lp369
Vt
ag359
aVt
aVa
asbs((imorph
Morph
(dp370
g47
(lp371
Va
aVs
aVi
aVk
aVc\u030c
p372
aVi\u0301
p373
asb(imorph
Morph
(dp374
g47
(lp375
Va
aVm
aVa
aVs
aVi
aVk
aVc\u030c
p376
aVi\u0301
p377
asbtp378
(imorph
Morph
p379
(dp380
g47
(lp381
Va
aVs
aVi
aVk
ag306
ag318
asbs((imorph
Morph
(dp382
g47
(lp383
Vk
aVa
aVs
aVt
aVo\u0301
p384
asb(imorph
Morph
(dp385
g47
(lp386
Va
aV\u014b
aVk
aVa
aVs
aVt
aVo\u0301
p387
asbtp388
(imorph
Morph
p389
(dp390
g47
(lp391
Vk
aVa
aVs
aVt
ag272
asbs((imorph
Morph
(dp392
g47
(lp393
Vc\u030c
p394
aVo
aVf
aVk
aVo
aVn
aVi\u0301
p395
asb(imorph
Morph
(dp396
g47
(lp397
Va
aVn\u0303
p398
aVc\u030c
p399
aVo
aVf
aVk
aVo
aVn
aVi\u0301
p400
asbtp401
(imorph
Morph
p402
(dp403
g47
(lp404
g306
aVo
aVf
aVk
aVo
aVn
ag318
asbs((imorph
Morph
(dp405
g47
(lp406
Va
aVp
aVa
aVh
aVc\u030c
p407
aVa\u0301
p408
asb(imorph
Morph
(dp409
g47
(lp410
Va
aVm
aVa
aVp
aVa
aVh
aVc\u030c
p411
aVa\u0301
p412
asbtp413
(imorph
Morph
p414
(dp415
g47
(lp416
Va
aVp
aVa
aVh
ag306
ag283
asbssS'frontiers'
p417
(lp418
(lp419
(irule
Rule
p420
(dp421
g17
(irule
Guard
p422
(dp423
g20
I00
sg21
(lp424
sg23
I00
sg24
V
sg25
I00
sg26
S'L'
sbsg27
(irule
PlaceSpecification
p425
(dp426
g111
I1
sbsg33
(irule
Guard
p427
(dp428
g20
I00
sg21
(lp429
(irule
FeatureMatrix
p430
(dp431
g30
(lp432
(I00
S'voice'
tp433
asg24
V[ -voice ]
p434
sbasg23
I00
sg24
g434
sg25
I00
sg26
S'R'
sbsg37
(irule
ConstantPhoneme
p435
(dp436
S'p'
Vm
sbsg24
Vm ---> place1 /  _ [ -voice ]
p437
sba(irule
Rule
p438
(dp439
g17
(irule
Guard
p440
(dp441
g20
I00
sg21
(lp442
sg23
I00
sg24
V
sg25
I00
sg26
S'L'
sbsg27
(irule
PlaceSpecification
p443
(dp444
g111
I1
sbsg33
(irule
Guard
p445
(dp446
g20
I00
sg21
(lp447
(irule
FeatureMatrix
p448
(dp449
g30
(lp450
(I00
S'sonorant'
p451
tp452
asg24
V[ -sonorant ]
p453
sbasg23
I00
sg24
g453
sg25
I00
sg26
S'R'
sbsg37
(irule
FeatureMatrix
p454
(dp455
g30
(lp456
(I01
S'nasal'
p457
tp458
asg24
V[ +nasal ]
p459
sbsg24
V[ +nasal ] ---> place1 /  _ [ -sonorant ]
p460
sba(irule
Rule
p461
(dp462
g17
(irule
Guard
p463
(dp464
g20
I00
sg21
(lp465
sg23
I00
sg24
V
sg25
I00
sg26
S'L'
sbsg27
(irule
PlaceSpecification
p466
(dp467
g111
I1
sbsg33
(irule
Guard
p468
(dp469
g20
I00
sg21
(lp470
(irule
FeatureMatrix
p471
(dp472
g30
(lp473
(I00
S'continuant'
p474
tp475
asg24
V[ -continuant ]
p476
sbasg23
I00
sg24
g476
sg25
I00
sg26
S'R'
sbsg37
(irule
FeatureMatrix
p477
(dp478
g30
(lp479
(I01
g457
tp480
asg24
V[ +nasal ]
p481
sbsg24
V[ +nasal ] ---> place1 /  _ [ -continuant ]
p482
sba(irule
Rule
p483
(dp484
g17
(irule
Guard
p485
(dp486
g20
I00
sg21
(lp487
sg23
I00
sg24
V
sg25
I00
sg26
S'L'
sbsg27
(irule
PlaceSpecification
p488
(dp489
g111
I1
sbsg33
(irule
Guard
p490
(dp491
g20
I00
sg21
(lp492
(irule
FeatureMatrix
p493
(dp494
g30
(lp495
(I00
S'vowel'
p496
tp497
asg24
V[ -vowel ]
p498
sbasg23
I00
sg24
g498
sg25
I00
sg26
S'R'
sbsg37
(irule
FeatureMatrix
p499
(dp500
g30
(lp501
(I01
g457
tp502
asg24
V[ +nasal ]
p503
sbsg24
V[ +nasal ] ---> place1 /  _ [ -vowel ]
p504
sba(irule
Rule
p505
(dp506
g17
(irule
Guard
p507
(dp508
g20
I00
sg21
(lp509
sg23
I00
sg24
V
sg25
I00
sg26
S'L'
sbsg27
(irule
PlaceSpecification
p510
(dp511
g111
I1
sbsg33
(irule
Guard
p512
(dp513
g20
I00
sg21
(lp514
(irule
FeatureMatrix
p515
(dp516
g30
(lp517
(I00
S'voice'
p518
tp519
asg24
V[ -voice ]
p520
sbasg23
I00
sg24
g520
sg25
I00
sg26
S'R'
sbsg37
(irule
FeatureMatrix
p521
(dp522
g30
(lp523
(I01
g457
tp524
asg24
V[ +nasal ]
p525
sbsg24
V[ +nasal ] ---> place1 /  _ [ -voice ]
p526
sba(irule
Rule
p527
(dp528
g17
(irule
Guard
p529
(dp530
g20
I00
sg21
(lp531
sg23
I00
sg24
V
sg25
I00
sg26
S'L'
sbsg27
(irule
PlaceSpecification
p532
(dp533
g111
I1
sbsg33
(irule
Guard
p534
(dp535
g20
I00
sg21
(lp536
(irule
FeatureMatrix
p537
(dp538
g30
(lp539
(I00
S'tense'
p540
tp541
asg24
V[ -tense ]
p542
sbasg23
I00
sg24
g542
sg25
I00
sg26
S'R'
sbsg37
(irule
FeatureMatrix
p543
(dp544
g30
(lp545
(I01
g457
tp546
asg24
V[ +nasal ]
p547
sbsg24
V[ +nasal ] ---> place1 /  _ [ -tense ]
p548
sba(irule
Rule
p549
(dp550
g17
(irule
Guard
p551
(dp552
g20
I00
sg21
(lp553
sg23
I00
sg24
V
sg25
I00
sg26
S'L'
sbsg27
(irule
PlaceSpecification
p554
(dp555
g111
I1
sbsg33
(irule
Guard
p556
(dp557
g20
I00
sg21
(lp558
(irule
FeatureMatrix
p559
(dp560
g30
(lp561
(I00
g540
tp562
asg24
V[ -tense ]
p563
sbasg23
I00
sg24
g563
sg25
I00
sg26
S'R'
sbsg37
(irule
ConstantPhoneme
p564
(dp565
S'p'
Vm
sbsg24
Vm ---> place1 /  _ [ -tense ]
p566
sba(irule
Rule
p567
(dp568
g17
(irule
Guard
p569
(dp570
g20
I00
sg21
(lp571
sg23
I00
sg24
V
sg25
I00
sg26
S'L'
sbsg27
(irule
PlaceSpecification
p572
(dp573
g111
I1
sbsg33
(irule
Guard
p574
(dp575
g20
I00
sg21
(lp576
(irule
FeatureMatrix
p577
(dp578
g30
(lp579
(I00
g451
tp580
asg24
V[ -sonorant ]
p581
sbasg23
I00
sg24
g581
sg25
I00
sg26
S'R'
sbsg37
(irule
ConstantPhoneme
p582
(dp583
S'p'
Vm
sbsg24
Vm ---> place1 /  _ [ -sonorant ]
p584
sba(irule
Rule
p585
(dp586
g17
(irule
Guard
p587
(dp588
g20
I00
sg21
(lp589
sg23
I00
sg24
V
sg25
I00
sg26
S'L'
sbsg27
(irule
PlaceSpecification
p590
(dp591
g111
I1
sbsg33
(irule
Guard
p592
(dp593
g20
I00
sg21
(lp594
(irule
FeatureMatrix
p595
(dp596
g30
(lp597
(I00
g496
tp598
asg24
V[ -vowel ]
p599
sbasg23
I00
sg24
g599
sg25
I00
sg26
S'R'
sbsg37
(irule
ConstantPhoneme
p600
(dp601
S'p'
Vm
sbsg24
Vm ---> place1 /  _ [ -vowel ]
p602
sba(irule
Rule
p603
(dp604
g17
(irule
Guard
p605
(dp606
g20
I00
sg21
(lp607
sg23
I00
sg24
V
sg25
I00
sg26
S'L'
sbsg27
(irule
PlaceSpecification
p608
(dp609
g111
I1
sbsg33
(irule
Guard
p610
(dp611
g20
I00
sg21
(lp612
(irule
FeatureMatrix
p613
(dp614
g30
(lp615
(I00
g474
tp616
asg24
V[ -continuant ]
p617
sbasg23
I00
sg24
g617
sg25
I00
sg26
S'R'
sbsg37
(irule
ConstantPhoneme
p618
(dp619
S'p'
Vm
sbsg24
Vm ---> place1 /  _ [ -continuant ]
p620
sba(irule
Rule
p621
(dp622
g17
(irule
Guard
p623
(dp624
g20
I00
sg21
(lp625
sg23
I00
sg24
V
sg25
I00
sg26
S'L'
sbsg27
(irule
PlaceSpecification
p626
(dp627
g111
I1
sbsg33
(irule
Guard
p628
(dp629
g20
I00
sg21
(lp630
(irule
FeatureMatrix
p631
(dp632
g30
(lp633
(I00
g496
tp634
asg24
V[ -vowel ]
p635
sbasg23
I00
sg24
g635
sg25
I00
sg26
S'R'
sbsg37
(irule
FeatureMatrix
p636
(dp637
g30
(lp638
(I01
S'anterior'
p639
tp640
a(I01
g451
tp641
asg24
V[ +anterior +sonorant ]
p642
sbsg24
V[ +anterior +sonorant ] ---> place1 /  _ [ -vowel ]
p643
sba(irule
Rule
p644
(dp645
g17
(irule
Guard
p646
(dp647
g20
I00
sg21
(lp648
sg23
I00
sg24
V
sg25
I00
sg26
S'L'
sbsg27
(irule
PlaceSpecification
p649
(dp650
g111
I1
sbsg33
(irule
Guard
p651
(dp652
g20
I00
sg21
(lp653
(irule
FeatureMatrix
p654
(dp655
g30
(lp656
(I00
g518
tp657
asg24
V[ -voice ]
p658
sbasg23
I00
sg24
g658
sg25
I00
sg26
S'R'
sbsg37
(irule
FeatureMatrix
p659
(dp660
g30
(lp661
(I01
g639
tp662
a(I01
g451
tp663
asg24
V[ +anterior +sonorant ]
p664
sbsg24
V[ +anterior +sonorant ] ---> place1 /  _ [ -voice ]
p665
sba(irule
Rule
p666
(dp667
g17
(irule
Guard
p668
(dp669
g20
I00
sg21
(lp670
(irule
FeatureMatrix
p671
(dp672
g30
(lp673
sg24
V[  ]
p674
sbasg23
I00
sg24
g674
sg25
I00
sg26
S'L'
sbsg27
(irule
PlaceSpecification
p675
(dp676
g111
I1
sbsg33
(irule
Guard
p677
(dp678
g20
I00
sg21
(lp679
(irule
FeatureMatrix
p680
(dp681
g30
(lp682
(I00
g496
tp683
asg24
V[ -vowel ]
p684
sbasg23
I00
sg24
g684
sg25
I00
sg26
S'R'
sbsg37
(irule
FeatureMatrix
p685
(dp686
g30
(lp687
(I01
g457
tp688
asg24
V[ +nasal ]
p689
sbsg24
V[ +nasal ] ---> place1 / [  ] _ [ -vowel ]
p690
sba(irule
Rule
p691
(dp692
g17
(irule
Guard
p693
(dp694
g20
I00
sg21
(lp695
sg23
I00
sg24
V
sg25
I00
sg26
S'L'
sbsg27
(irule
PlaceSpecification
p696
(dp697
g111
I1
sbsg33
(irule
Guard
p698
(dp699
g20
I00
sg21
(lp700
(irule
FeatureMatrix
p701
(dp702
g30
(lp703
(I00
g496
tp704
a(I00
g518
tp705
asg24
V[ -voice -vowel ]
p706
sbasg23
I00
sg24
g706
sg25
I00
sg26
S'R'
sbsg37
(irule
FeatureMatrix
p707
(dp708
g30
(lp709
(I01
g457
tp710
asg24
V[ +nasal ]
p711
sbsg24
V[ +nasal ] ---> place1 /  _ [ -voice -vowel ]
p712
sba(irule
Rule
p713
(dp714
g17
(irule
Guard
p715
(dp716
g20
I00
sg21
(lp717
sg23
I00
sg24
V
sg25
I00
sg26
S'L'
sbsg27
(irule
PlaceSpecification
p718
(dp719
g111
I1
sbsg33
(irule
Guard
p720
(dp721
g20
I00
sg21
(lp722
(irule
FeatureMatrix
p723
(dp724
g30
(lp725
(I00
g496
tp726
asg24
V[ -vowel ]
p727
sbasg23
I00
sg24
g727
sg25
I00
sg26
S'R'
sbsg37
(irule
FeatureMatrix
p728
(dp729
g30
(lp730
(I01
g639
tp731
a(I01
g518
tp732
asg24
V[ +anterior +voice ]
p733
sbsg24
V[ +anterior +voice ] ---> place1 /  _ [ -vowel ]
p734
sba(irule
Rule
p735
(dp736
g17
(irule
Guard
p737
(dp738
g20
I00
sg21
(lp739
sg23
I00
sg24
V
sg25
I00
sg26
S'L'
sbsg27
(irule
PlaceSpecification
p740
(dp741
g111
I1
sbsg33
(irule
Guard
p742
(dp743
g20
I00
sg21
(lp744
(irule
FeatureMatrix
p745
(dp746
g30
(lp747
(I00
g451
tp748
asg24
V[ -sonorant ]
p749
sbasg23
I00
sg24
g749
sg25
I00
sg26
S'R'
sbsg37
(irule
FeatureMatrix
p750
(dp751
g30
(lp752
(I01
g639
tp753
a(I01
g451
tp754
asg24
V[ +anterior +sonorant ]
p755
sbsg24
V[ +anterior +sonorant ] ---> place1 /  _ [ -sonorant ]
p756
sba(irule
Rule
p757
(dp758
g17
(irule
Guard
p759
(dp760
g20
I00
sg21
(lp761
sg23
I00
sg24
V
sg25
I00
sg26
S'L'
sbsg27
(irule
PlaceSpecification
p762
(dp763
g111
I1
sbsg33
(irule
Guard
p764
(dp765
g20
I00
sg21
(lp766
(irule
FeatureMatrix
p767
(dp768
g30
(lp769
(I00
S'lateral'
tp770
a(I00
g496
tp771
asg24
V[ -lateral -vowel ]
p772
sbasg23
I00
sg24
g772
sg25
I00
sg26
S'R'
sbsg37
(irule
FeatureMatrix
p773
(dp774
g30
(lp775
(I01
g457
tp776
asg24
V[ +nasal ]
p777
sbsg24
V[ +nasal ] ---> place1 /  _ [ -lateral -vowel ]
p778
sba(irule
Rule
p779
(dp780
g17
(irule
Guard
p781
(dp782
g20
I00
sg21
(lp783
sg23
I00
sg24
V
sg25
I00
sg26
S'L'
sbsg27
(irule
PlaceSpecification
p784
(dp785
g111
I1
sbsg33
(irule
Guard
p786
(dp787
g20
I00
sg21
(lp788
(irule
FeatureMatrix
p789
(dp790
g30
(lp791
(I00
g496
tp792
asg24
V[ -vowel ]
p793
sbasg23
I00
sg24
g793
sg25
I00
sg26
S'R'
sbsg37
(irule
FeatureMatrix
p794
(dp795
g30
(lp796
(I00
g474
tp797
a(I01
g451
tp798
asg24
V[ +sonorant -continuant ]
p799
sbsg24
V[ +sonorant -continuant ] ---> place1 /  _ [ -vowel ]
p800
sba(irule
Rule
p801
(dp802
g17
(irule
Guard
p803
(dp804
g20
I00
sg21
(lp805
sg23
I00
sg24
V
sg25
I00
sg26
S'L'
sbsg27
(irule
PlaceSpecification
p806
(dp807
g111
I1
sbsg33
(irule
Guard
p808
(dp809
g20
I00
sg21
(lp810
(irule
FeatureMatrix
p811
(dp812
g30
(lp813
(I00
g451
tp814
asg24
V[ -sonorant ]
p815
sbasg23
I00
sg24
g815
sg25
I00
sg26
S'R'
sbsg37
(irule
FeatureMatrix
p816
(dp817
g30
(lp818
(I01
g639
tp819
a(I00
g474
tp820
asg24
V[ +anterior -continuant ]
p821
sbsg24
V[ +anterior -continuant ] ---> place1 /  _ [ -sonorant ]
p822
sba(irule
Rule
p823
(dp824
g17
(irule
Guard
p825
(dp826
g20
I00
sg21
(lp827
sg23
I00
sg24
V
sg25
I00
sg26
S'L'
sbsg27
(irule
PlaceSpecification
p828
(dp829
g111
I1
sbsg33
(irule
Guard
p830
(dp831
g20
I00
sg21
(lp832
(irule
FeatureMatrix
p833
(dp834
g30
(lp835
(I00
g496
tp836
asg24
V[ -vowel ]
p837
sbasg23
I00
sg24
g837
sg25
I00
sg26
S'R'
sbsg37
(irule
FeatureMatrix
p838
(dp839
g30
(lp840
(I01
g457
tp841
a(I01
g518
tp842
asg24
V[ +nasal +voice ]
p843
sbsg24
V[ +nasal +voice ] ---> place1 /  _ [ -vowel ]
p844
sba(irule
Rule
p845
(dp846
g17
(irule
Guard
p847
(dp848
g20
I00
sg21
(lp849
sg23
I00
sg24
V
sg25
I00
sg26
S'L'
sbsg27
(irule
PlaceSpecification
p850
(dp851
g111
I1
sbsg33
(irule
Guard
p852
(dp853
g20
I00
sg21
(lp854
(irule
FeatureMatrix
p855
(dp856
g30
(lp857
(I00
g496
tp858
asg24
V[ -vowel ]
p859
sbasg23
I00
sg24
g859
sg25
I00
sg26
S'R'
sbsg37
(irule
FeatureMatrix
p860
(dp861
g30
(lp862
(I01
g639
tp863
a(I00
g474
tp864
asg24
V[ +anterior -continuant ]
p865
sbsg24
V[ +anterior -continuant ] ---> place1 /  _ [ -vowel ]
p866
sba(irule
Rule
p867
(dp868
g17
(irule
Guard
p869
(dp870
g20
I00
sg21
(lp871
sg23
I00
sg24
V
sg25
I00
sg26
S'L'
sbsg27
(irule
PlaceSpecification
p872
(dp873
g111
I1
sbsg33
(irule
Guard
p874
(dp875
g20
I00
sg21
(lp876
(irule
FeatureMatrix
p877
(dp878
g30
(lp879
(I00
g540
tp880
asg24
V[ -tense ]
p881
sbasg23
I00
sg24
g881
sg25
I00
sg26
S'R'
sbsg37
(irule
FeatureMatrix
p882
(dp883
g30
(lp884
(I01
g457
tp885
a(I00
S'coronal'
p886
tp887
asg24
V[ +nasal -coronal ]
p888
sbsg24
V[ +nasal -coronal ] ---> place1 /  _ [ -tense ]
p889
sba(irule
Rule
p890
(dp891
g17
(irule
Guard
p892
(dp893
g20
I00
sg21
(lp894
sg23
I00
sg24
V
sg25
I00
sg26
S'L'
sbsg27
(irule
PlaceSpecification
p895
(dp896
g111
I1
sbsg33
(irule
Guard
p897
(dp898
g20
I00
sg21
(lp899
(irule
FeatureMatrix
p900
(dp901
g30
(lp902
(I00
g496
tp903
asg24
V[ -vowel ]
p904
sbasg23
I00
sg24
g904
sg25
I00
sg26
S'R'
sbsg37
(irule
FeatureMatrix
p905
(dp906
g30
(lp907
(I01
g639
tp908
a(I01
g457
tp909
asg24
V[ +anterior +nasal ]
p910
sbsg24
V[ +anterior +nasal ] ---> place1 /  _ [ -vowel ]
p911
sba(irule
Rule
p912
(dp913
g17
(irule
Guard
p914
(dp915
g20
I00
sg21
(lp916
sg23
I00
sg24
V
sg25
I00
sg26
S'L'
sbsg27
(irule
PlaceSpecification
p917
(dp918
g111
I1
sbsg33
(irule
Guard
p919
(dp920
g20
I00
sg21
(lp921
(irule
FeatureMatrix
p922
(dp923
g30
(lp924
(I00
g451
tp925
a(I00
S'palletized'
p926
tp927
asg24
V[ -palletized -sonorant ]
p928
sbasg23
I00
sg24
g928
sg25
I00
sg26
S'R'
sbsg37
(irule
FeatureMatrix
p929
(dp930
g30
(lp931
(I01
g457
tp932
asg24
V[ +nasal ]
p933
sbsg24
V[ +nasal ] ---> place1 /  _ [ -palletized -sonorant ]
p934
sba(irule
Rule
p935
(dp936
g17
(irule
Guard
p937
(dp938
g20
I00
sg21
(lp939
sg23
I00
sg24
V
sg25
I00
sg26
S'L'
sbsg27
(irule
PlaceSpecification
p940
(dp941
g111
I1
sbsg33
(irule
Guard
p942
(dp943
g20
I00
sg21
(lp944
(irule
FeatureMatrix
p945
(dp946
g30
(lp947
(I00
S'glide'
tp948
a(I00
g496
tp949
asg24
V[ -glide -vowel ]
p950
sbasg23
I00
sg24
g950
sg25
I00
sg26
S'R'
sbsg37
(irule
FeatureMatrix
p951
(dp952
g30
(lp953
(I01
g457
tp954
asg24
V[ +nasal ]
p955
sbsg24
V[ +nasal ] ---> place1 /  _ [ -glide -vowel ]
p956
sba(irule
Rule
p957
(dp958
g17
(irule
Guard
p959
(dp960
g20
I00
sg21
(lp961
sg23
I00
sg24
V
sg25
I00
sg26
S'L'
sbsg27
(irule
PlaceSpecification
p962
(dp963
g111
I1
sbsg33
(irule
Guard
p964
(dp965
g20
I00
sg21
(lp966
(irule
FeatureMatrix
p967
(dp968
g30
(lp969
(I00
g451
tp970
asg24
V[ -sonorant ]
p971
sbasg23
I00
sg24
g971
sg25
I00
sg26
S'R'
sbsg37
(irule
FeatureMatrix
p972
(dp973
g30
(lp974
(I00
g474
tp975
a(I01
g451
tp976
asg24
V[ +sonorant -continuant ]
p977
sbsg24
V[ +sonorant -continuant ] ---> place1 /  _ [ -sonorant ]
p978
sba(irule
Rule
p979
(dp980
g17
(irule
Guard
p981
(dp982
g20
I00
sg21
(lp983
sg23
I00
sg24
V
sg25
I00
sg26
S'L'
sbsg27
(irule
PlaceSpecification
p984
(dp985
g111
I1
sbsg33
(irule
Guard
p986
(dp987
g20
I00
sg21
(lp988
(irule
FeatureMatrix
p989
(dp990
g30
(lp991
(I00
g451
tp992
asg24
V[ -sonorant ]
p993
sbasg23
I00
sg24
g993
sg25
I00
sg26
S'R'
sbsg37
(irule
FeatureMatrix
p994
(dp995
g30
(lp996
(I00
g474
tp997
a(I00
S'back'
p998
tp999
asg24
V[ -back -continuant ]
p1000
sbsg24
V[ -back -continuant ] ---> place1 /  _ [ -sonorant ]
p1001
sba(irule
Rule
p1002
(dp1003
g17
(irule
Guard
p1004
(dp1005
g20
I00
sg21
(lp1006
(irule
FeatureMatrix
p1007
(dp1008
g30
(lp1009
(I01
S'low'
p1010
tp1011
asg24
V[ +low ]
p1012
sbasg23
I00
sg24
g1012
sg25
I00
sg26
S'L'
sbsg27
(irule
PlaceSpecification
p1013
(dp1014
g111
I1
sbsg33
(irule
Guard
p1015
(dp1016
g20
I00
sg21
(lp1017
(irule
FeatureMatrix
p1018
(dp1019
g30
(lp1020
(I00
g451
tp1021
asg24
V[ -sonorant ]
p1022
sbasg23
I00
sg24
g1022
sg25
I00
sg26
S'R'
sbsg37
(irule
FeatureMatrix
p1023
(dp1024
g30
(lp1025
sg24
V[  ]
p1026
sbsg24
V[  ] ---> place1 / [ +low ] _ [ -sonorant ]
p1027
sba(irule
Rule
p1028
(dp1029
g17
(irule
Guard
p1030
(dp1031
g20
I00
sg21
(lp1032
sg23
I00
sg24
V
sg25
I00
sg26
S'L'
sbsg27
(irule
PlaceSpecification
p1033
(dp1034
g111
I1
sbsg33
(irule
Guard
p1035
(dp1036
g20
I00
sg21
(lp1037
(irule
FeatureMatrix
p1038
(dp1039
g30
(lp1040
(I00
g451
tp1041
asg24
V[ -sonorant ]
p1042
sbasg23
I00
sg24
g1042
sg25
I00
sg26
S'R'
sbsg37
(irule
FeatureMatrix
p1043
(dp1044
g30
(lp1045
(I01
g457
tp1046
a(I00
g886
tp1047
asg24
V[ +nasal -coronal ]
p1048
sbsg24
V[ +nasal -coronal ] ---> place1 /  _ [ -sonorant ]
p1049
sba(irule
Rule
p1050
(dp1051
g17
(irule
Guard
p1052
(dp1053
g20
I00
sg21
(lp1054
sg23
I00
sg24
V
sg25
I00
sg26
S'L'
sbsg27
(irule
PlaceSpecification
p1055
(dp1056
g111
I1
sbsg33
(irule
Guard
p1057
(dp1058
g20
I00
sg21
(lp1059
(irule
FeatureMatrix
p1060
(dp1061
g30
(lp1062
(I00
g1010
tp1063
a(I00
g496
tp1064
asg24
V[ -low -vowel ]
p1065
sbasg23
I00
sg24
g1065
sg25
I00
sg26
S'R'
sbsg37
(irule
FeatureMatrix
p1066
(dp1067
g30
(lp1068
(I01
g457
tp1069
asg24
V[ +nasal ]
p1070
sbsg24
V[ +nasal ] ---> place1 /  _ [ -low -vowel ]
p1071
sba(irule
Rule
p1072
(dp1073
g17
(irule
Guard
p1074
(dp1075
g20
I00
sg21
(lp1076
sg23
I00
sg24
V
sg25
I00
sg26
S'L'
sbsg27
(irule
PlaceSpecification
p1077
(dp1078
g111
I1
sbsg33
(irule
Guard
p1079
(dp1080
g20
I00
sg21
(lp1081
(irule
FeatureMatrix
p1082
(dp1083
g30
(lp1084
(I00
g496
tp1085
asg24
V[ -vowel ]
p1086
sbasg23
I00
sg24
g1086
sg25
I00
sg26
S'R'
sbsg37
(irule
FeatureMatrix
p1087
(dp1088
g30
(lp1089
(I01
g457
tp1090
a(I00
g886
tp1091
asg24
V[ +nasal -coronal ]
p1092
sbsg24
V[ +nasal -coronal ] ---> place1 /  _ [ -vowel ]
p1093
sba(irule
Rule
p1094
(dp1095
g17
(irule
Guard
p1096
(dp1097
g20
I00
sg21
(lp1098
sg23
I00
sg24
V
sg25
I00
sg26
S'L'
sbsg27
(irule
PlaceSpecification
p1099
(dp1100
g111
I1
sbsg33
(irule
Guard
p1101
(dp1102
g20
I00
sg21
(lp1103
(irule
FeatureMatrix
p1104
(dp1105
g30
(lp1106
(I00
g451
tp1107
a(I00
g496
tp1108
asg24
V[ -sonorant -vowel ]
p1109
sbasg23
I00
sg24
g1109
sg25
I00
sg26
S'R'
sbsg37
(irule
FeatureMatrix
p1110
(dp1111
g30
(lp1112
(I01
g457
tp1113
asg24
V[ +nasal ]
p1114
sbsg24
V[ +nasal ] ---> place1 /  _ [ -sonorant -vowel ]
p1115
sba(irule
Rule
p1116
(dp1117
g17
(irule
Guard
p1118
(dp1119
g20
I00
sg21
(lp1120
sg23
I00
sg24
V
sg25
I00
sg26
S'L'
sbsg27
(irule
PlaceSpecification
p1121
(dp1122
g111
I1
sbsg33
(irule
Guard
p1123
(dp1124
g20
I00
sg21
(lp1125
(irule
FeatureMatrix
p1126
(dp1127
g30
(lp1128
(I00
g451
tp1129
a(I00
g1010
tp1130
asg24
V[ -low -sonorant ]
p1131
sbasg23
I00
sg24
g1131
sg25
I00
sg26
S'R'
sbsg37
(irule
FeatureMatrix
p1132
(dp1133
g30
(lp1134
(I01
g457
tp1135
asg24
V[ +nasal ]
p1136
sbsg24
V[ +nasal ] ---> place1 /  _ [ -low -sonorant ]
p1137
sba(irule
Rule
p1138
(dp1139
g17
(irule
Guard
p1140
(dp1141
g20
I00
sg21
(lp1142
(irule
FeatureMatrix
p1143
(dp1144
g30
(lp1145
sg24
V[  ]
p1146
sbasg23
I00
sg24
g1146
sg25
I00
sg26
S'L'
sbsg27
(irule
PlaceSpecification
p1147
(dp1148
g111
I1
sbsg33
(irule
Guard
p1149
(dp1150
g20
I00
sg21
(lp1151
(irule
FeatureMatrix
p1152
(dp1153
g30
(lp1154
(I00
g451
tp1155
asg24
V[ -sonorant ]
p1156
sbasg23
I00
sg24
g1156
sg25
I00
sg26
S'R'
sbsg37
(irule
FeatureMatrix
p1157
(dp1158
g30
(lp1159
(I01
g457
tp1160
asg24
V[ +nasal ]
p1161
sbsg24
V[ +nasal ] ---> place1 / [  ] _ [ -sonorant ]
p1162
sba(irule
Rule
p1163
(dp1164
g17
(irule
Guard
p1165
(dp1166
g20
I00
sg21
(lp1167
sg23
I00
sg24
V
sg25
I00
sg26
S'L'
sbsg27
(irule
PlaceSpecification
p1168
(dp1169
g111
I1
sbsg33
(irule
Guard
p1170
(dp1171
g20
I00
sg21
(lp1172
(irule
FeatureMatrix
p1173
(dp1174
g30
(lp1175
(I00
g474
tp1176
asg24
V[ -continuant ]
p1177
sbasg23
I00
sg24
g1177
sg25
I00
sg26
S'R'
sbsg37
(irule
FeatureMatrix
p1178
(dp1179
g30
(lp1180
(I01
g639
tp1181
a(I00
g474
tp1182
asg24
V[ +anterior -continuant ]
p1183
sbsg24
V[ +anterior -continuant ] ---> place1 /  _ [ -continuant ]
p1184
sba(irule
Rule
p1185
(dp1186
g17
(irule
Guard
p1187
(dp1188
g20
I00
sg21
(lp1189
sg23
I00
sg24
V
sg25
I00
sg26
S'L'
sbsg27
(irule
PlaceSpecification
p1190
(dp1191
g111
I1
sbsg33
(irule
Guard
p1192
(dp1193
g20
I00
sg21
(lp1194
(irule
FeatureMatrix
p1195
(dp1196
g30
(lp1197
(I00
g496
tp1198
asg24
V[ -vowel ]
p1199
sbasg23
I00
sg24
g1199
sg25
I00
sg26
S'R'
sbsg37
(irule
FeatureMatrix
p1200
(dp1201
g30
(lp1202
(I01
g457
tp1203
a(I01
g451
tp1204
asg24
V[ +nasal +sonorant ]
p1205
sbsg24
V[ +nasal +sonorant ] ---> place1 /  _ [ -vowel ]
p1206
sba(irule
Rule
p1207
(dp1208
g17
(irule
Guard
p1209
(dp1210
g20
I00
sg21
(lp1211
(irule
FeatureMatrix
p1212
(dp1213
g30
(lp1214
sg24
V[  ]
p1215
sbasg23
I00
sg24
g1215
sg25
I00
sg26
S'L'
sbsg27
(irule
PlaceSpecification
p1216
(dp1217
g111
I1
sbsg33
(irule
Guard
p1218
(dp1219
g20
I00
sg21
(lp1220
(irule
FeatureMatrix
p1221
(dp1222
g30
(lp1223
(I00
g518
tp1224
asg24
V[ -voice ]
p1225
sbasg23
I00
sg24
g1225
sg25
I00
sg26
S'R'
sbsg37
(irule
FeatureMatrix
p1226
(dp1227
g30
(lp1228
(I01
g457
tp1229
asg24
V[ +nasal ]
p1230
sbsg24
V[ +nasal ] ---> place1 / [  ] _ [ -voice ]
p1231
sba(irule
Rule
p1232
(dp1233
g17
(irule
Guard
p1234
(dp1235
g20
I00
sg21
(lp1236
(irule
FeatureMatrix
p1237
(dp1238
g30
(lp1239
sg24
V[  ]
p1240
sbasg23
I00
sg24
g1240
sg25
I00
sg26
S'L'
sbsg27
(irule
PlaceSpecification
p1241
(dp1242
g111
I1
sbsg33
(irule
Guard
p1243
(dp1244
g20
I00
sg21
(lp1245
(irule
FeatureMatrix
p1246
(dp1247
g30
(lp1248
(I00
g496
tp1249
asg24
V[ -vowel ]
p1250
sbasg23
I00
sg24
g1250
sg25
I00
sg26
S'R'
sbsg37
(irule
ConstantPhoneme
p1251
(dp1252
S'p'
Vm
sbsg24
Vm ---> place1 / [  ] _ [ -vowel ]
p1253
sba(irule
Rule
p1254
(dp1255
g17
(irule
Guard
p1256
(dp1257
g20
I00
sg21
(lp1258
(irule
FeatureMatrix
p1259
(dp1260
g30
(lp1261
(I01
g1010
tp1262
asg24
V[ +low ]
p1263
sbasg23
I00
sg24
g1263
sg25
I00
sg26
S'L'
sbsg27
(irule
PlaceSpecification
p1264
(dp1265
g111
I1
sbsg33
(irule
Guard
p1266
(dp1267
g20
I00
sg21
(lp1268
(irule
FeatureMatrix
p1269
(dp1270
g30
(lp1271
(I00
g496
tp1272
asg24
V[ -vowel ]
p1273
sbasg23
I00
sg24
g1273
sg25
I00
sg26
S'R'
sbsg37
(irule
FeatureMatrix
p1274
(dp1275
g30
(lp1276
sg24
V[  ]
p1277
sbsg24
V[  ] ---> place1 / [ +low ] _ [ -vowel ]
p1278
sba(irule
Rule
p1279
(dp1280
g17
(irule
Guard
p1281
(dp1282
g20
I00
sg21
(lp1283
(irule
FeatureMatrix
p1284
(dp1285
g30
(lp1286
(I01
g1010
tp1287
asg24
V[ +low ]
p1288
sbasg23
I00
sg24
g1288
sg25
I00
sg26
S'L'
sbsg27
(irule
PlaceSpecification
p1289
(dp1290
g111
I1
sbsg33
(irule
Guard
p1291
(dp1292
g20
I00
sg21
(lp1293
(irule
FeatureMatrix
p1294
(dp1295
g30
(lp1296
(I00
g474
tp1297
asg24
V[ -continuant ]
p1298
sbasg23
I00
sg24
g1298
sg25
I00
sg26
S'R'
sbsg37
(irule
FeatureMatrix
p1299
(dp1300
g30
(lp1301
sg24
V[  ]
p1302
sbsg24
V[  ] ---> place1 / [ +low ] _ [ -continuant ]
p1303
sba(irule
Rule
p1304
(dp1305
g17
(irule
Guard
p1306
(dp1307
g20
I00
sg21
(lp1308
sg23
I00
sg24
V
sg25
I00
sg26
S'L'
sbsg27
(irule
PlaceSpecification
p1309
(dp1310
g111
I1
sbsg33
(irule
Guard
p1311
(dp1312
g20
I00
sg21
(lp1313
(irule
FeatureMatrix
p1314
(dp1315
g30
(lp1316
(I00
g926
tp1317
a(I00
g496
tp1318
asg24
V[ -palletized -vowel ]
p1319
sbasg23
I00
sg24
g1319
sg25
I00
sg26
S'R'
sbsg37
(irule
FeatureMatrix
p1320
(dp1321
g30
(lp1322
(I01
g457
tp1323
asg24
V[ +nasal ]
p1324
sbsg24
V[ +nasal ] ---> place1 /  _ [ -palletized -vowel ]
p1325
sba(irule
Rule
p1326
(dp1327
g17
(irule
Guard
p1328
(dp1329
g20
I00
sg21
(lp1330
(irule
ConstantPhoneme
p1331
(dp1332
S'p'
Va
sbasg23
I00
sg24
Va
sg25
I00
sg26
S'L'
sbsg27
(irule
PlaceSpecification
p1333
(dp1334
g111
I1
sbsg33
(irule
Guard
p1335
(dp1336
g20
I00
sg21
(lp1337
(irule
FeatureMatrix
p1338
(dp1339
g30
(lp1340
(I00
g451
tp1341
asg24
V[ -sonorant ]
p1342
sbasg23
I00
sg24
g1342
sg25
I00
sg26
S'R'
sbsg37
(irule
FeatureMatrix
p1343
(dp1344
g30
(lp1345
sg24
V[  ]
p1346
sbsg24
V[  ] ---> place1 / a _ [ -sonorant ]
p1347
sba(irule
Rule
p1348
(dp1349
g17
(irule
Guard
p1350
(dp1351
g20
I00
sg21
(lp1352
sg23
I00
sg24
V
sg25
I00
sg26
S'L'
sbsg27
(irule
PlaceSpecification
p1353
(dp1354
g111
I1
sbsg33
(irule
Guard
p1355
(dp1356
g20
I00
sg21
(lp1357
(irule
FeatureMatrix
p1358
(dp1359
g30
(lp1360
(I00
g451
tp1361
asg24
V[ -sonorant ]
p1362
sbasg23
I00
sg24
g1362
sg25
I00
sg26
S'R'
sbsg37
(irule
FeatureMatrix
p1363
(dp1364
g30
(lp1365
(I00
g474
tp1366
a(I00
S'high'
p1367
tp1368
asg24
V[ -continuant -high ]
p1369
sbsg24
V[ -continuant -high ] ---> place1 /  _ [ -sonorant ]
p1370
sba(irule
Rule
p1371
(dp1372
g17
(irule
Guard
p1373
(dp1374
g20
I00
sg21
(lp1375
sg23
I00
sg24
V
sg25
I00
sg26
S'L'
sbsg27
(irule
PlaceSpecification
p1376
(dp1377
g111
I1
sbsg33
(irule
Guard
p1378
(dp1379
g20
I00
sg21
(lp1380
(irule
FeatureMatrix
p1381
(dp1382
g30
(lp1383
(I00
g451
tp1384
asg24
V[ -sonorant ]
p1385
sbasg23
I00
sg24
g1385
sg25
I00
sg26
S'R'
sbsg37
(irule
FeatureMatrix
p1386
(dp1387
g30
(lp1388
(I01
g639
tp1389
a(I01
g518
tp1390
asg24
V[ +anterior +voice ]
p1391
sbsg24
V[ +anterior +voice ] ---> place1 /  _ [ -sonorant ]
p1392
sba(irule
Rule
p1393
(dp1394
g17
(irule
Guard
p1395
(dp1396
g20
I00
sg21
(lp1397
sg23
I00
sg24
V
sg25
I00
sg26
S'L'
sbsg27
(irule
PlaceSpecification
p1398
(dp1399
g111
I1
sbsg33
(irule
Guard
p1400
(dp1401
g20
I00
sg21
(lp1402
(irule
FeatureMatrix
p1403
(dp1404
g30
(lp1405
(I00
g518
tp1406
asg24
V[ -voice ]
p1407
sbasg23
I00
sg24
g1407
sg25
I00
sg26
S'R'
sbsg37
(irule
FeatureMatrix
p1408
(dp1409
g30
(lp1410
(I00
g474
tp1411
a(I01
g451
tp1412
asg24
V[ +sonorant -continuant ]
p1413
sbsg24
V[ +sonorant -continuant ] ---> place1 /  _ [ -voice ]
p1414
sba(irule
Rule
p1415
(dp1416
g17
(irule
Guard
p1417
(dp1418
g20
I00
sg21
(lp1419
sg23
I00
sg24
V
sg25
I00
sg26
S'L'
sbsg27
(irule
PlaceSpecification
p1420
(dp1421
g111
I1
sbsg33
(irule
Guard
p1422
(dp1423
g20
I00
sg21
(lp1424
(irule
FeatureMatrix
p1425
(dp1426
g30
(lp1427
(I00
g474
tp1428
asg24
V[ -continuant ]
p1429
sbasg23
I00
sg24
g1429
sg25
I00
sg26
S'R'
sbsg37
(irule
FeatureMatrix
p1430
(dp1431
g30
(lp1432
(I00
g474
tp1433
a(I00
g998
tp1434
asg24
V[ -back -continuant ]
p1435
sbsg24
V[ -back -continuant ] ---> place1 /  _ [ -continuant ]
p1436
sba(irule
Rule
p1437
(dp1438
g17
(irule
Guard
p1439
(dp1440
g20
I00
sg21
(lp1441
sg23
I00
sg24
V
sg25
I00
sg26
S'L'
sbsg27
(irule
PlaceSpecification
p1442
(dp1443
g111
I1
sbsg33
(irule
Guard
p1444
(dp1445
g20
I00
sg21
(lp1446
(irule
FeatureMatrix
p1447
(dp1448
g30
(lp1449
(I00
g540
tp1450
a(I00
g496
tp1451
asg24
V[ -tense -vowel ]
p1452
sbasg23
I00
sg24
g1452
sg25
I00
sg26
S'R'
sbsg37
(irule
FeatureMatrix
p1453
(dp1454
g30
(lp1455
(I01
g457
tp1456
asg24
V[ +nasal ]
p1457
sbsg24
V[ +nasal ] ---> place1 /  _ [ -tense -vowel ]
p1458
sba(irule
Rule
p1459
(dp1460
g17
(irule
Guard
p1461
(dp1462
g20
I00
sg21
(lp1463
sg23
I00
sg24
V
sg25
I00
sg26
S'L'
sbsg27
(irule
PlaceSpecification
p1464
(dp1465
g111
I1
sbsg33
(irule
Guard
p1466
(dp1467
g20
I00
sg21
(lp1468
(irule
FeatureMatrix
p1469
(dp1470
g30
(lp1471
(I00
S'highTone'
p1472
tp1473
a(I00
g451
tp1474
asg24
V[ -highTone -sonorant ]
p1475
sbasg23
I00
sg24
g1475
sg25
I00
sg26
S'R'
sbsg37
(irule
FeatureMatrix
p1476
(dp1477
g30
(lp1478
(I01
g457
tp1479
asg24
V[ +nasal ]
p1480
sbsg24
V[ +nasal ] ---> place1 /  _ [ -highTone -sonorant ]
p1481
sba(irule
Rule
p1482
(dp1483
g17
(irule
Guard
p1484
(dp1485
g20
I00
sg21
(lp1486
sg23
I00
sg24
V
sg25
I00
sg26
S'L'
sbsg27
(irule
PlaceSpecification
p1487
(dp1488
g111
I1
sbsg33
(irule
Guard
p1489
(dp1490
g20
I00
sg21
(lp1491
(irule
FeatureMatrix
p1492
(dp1493
g30
(lp1494
(I00
g496
tp1495
asg24
V[ -vowel ]
p1496
sbasg23
I00
sg24
g1496
sg25
I00
sg26
S'R'
sbsg37
(irule
FeatureMatrix
p1497
(dp1498
g30
(lp1499
(I00
g474
tp1500
a(I00
g998
tp1501
asg24
V[ -back -continuant ]
p1502
sbsg24
V[ -back -continuant ] ---> place1 /  _ [ -vowel ]
p1503
sba(irule
Rule
p1504
(dp1505
g17
(irule
Guard
p1506
(dp1507
g20
I00
sg21
(lp1508
sg23
I00
sg24
V
sg25
I00
sg26
S'L'
sbsg27
(irule
PlaceSpecification
p1509
(dp1510
g111
I1
sbsg33
(irule
Guard
p1511
(dp1512
g20
I00
sg21
(lp1513
(irule
FeatureMatrix
p1514
(dp1515
g30
(lp1516
(I00
g1472
tp1517
a(I00
g496
tp1518
asg24
V[ -highTone -vowel ]
p1519
sbasg23
I00
sg24
g1519
sg25
I00
sg26
S'R'
sbsg37
(irule
FeatureMatrix
p1520
(dp1521
g30
(lp1522
(I01
g457
tp1523
asg24
V[ +nasal ]
p1524
sbsg24
V[ +nasal ] ---> place1 /  _ [ -highTone -vowel ]
p1525
sba(irule
Rule
p1526
(dp1527
g17
(irule
Guard
p1528
(dp1529
g20
I00
sg21
(lp1530
(irule
FeatureMatrix
p1531
(dp1532
g30
(lp1533
(I01
g1010
tp1534
asg24
V[ +low ]
p1535
sbasg23
I00
sg24
g1535
sg25
I00
sg26
S'L'
sbsg27
(irule
PlaceSpecification
p1536
(dp1537
g111
I1
sbsg33
(irule
Guard
p1538
(dp1539
g20
I00
sg21
(lp1540
(irule
FeatureMatrix
p1541
(dp1542
g30
(lp1543
(I00
g518
tp1544
asg24
V[ -voice ]
p1545
sbasg23
I00
sg24
g1545
sg25
I00
sg26
S'R'
sbsg37
(irule
FeatureMatrix
p1546
(dp1547
g30
(lp1548
sg24
V[  ]
p1549
sbsg24
V[  ] ---> place1 / [ +low ] _ [ -voice ]
p1550
sba(irule
Rule
p1551
(dp1552
g17
(irule
Guard
p1553
(dp1554
g20
I00
sg21
(lp1555
sg23
I00
sg24
V
sg25
I00
sg26
S'L'
sbsg27
(irule
PlaceSpecification
p1556
(dp1557
g111
I1
sbsg33
(irule
Guard
p1558
(dp1559
g20
I00
sg21
(lp1560
(irule
FeatureMatrix
p1561
(dp1562
g30
(lp1563
(I00
g474
tp1564
asg24
V[ -continuant ]
p1565
sbasg23
I00
sg24
g1565
sg25
I00
sg26
S'R'
sbsg37
(irule
FeatureMatrix
p1566
(dp1567
g30
(lp1568
(I01
g639
tp1569
a(I01
g451
tp1570
asg24
V[ +anterior +sonorant ]
p1571
sbsg24
V[ +anterior +sonorant ] ---> place1 /  _ [ -continuant ]
p1572
sba(irule
Rule
p1573
(dp1574
g17
(irule
Guard
p1575
(dp1576
g20
I00
sg21
(lp1577
sg23
I00
sg24
V
sg25
I00
sg26
S'L'
sbsg27
(irule
PlaceSpecification
p1578
(dp1579
g111
I1
sbsg33
(irule
Guard
p1580
(dp1581
g20
I00
sg21
(lp1582
(irule
FeatureMatrix
p1583
(dp1584
g30
(lp1585
(I00
g540
tp1586
asg24
V[ -tense ]
p1587
sbasg23
I00
sg24
g1587
sg25
I00
sg26
S'R'
sbsg37
(irule
FeatureMatrix
p1588
(dp1589
g30
(lp1590
(I00
g474
tp1591
a(I01
g451
tp1592
asg24
V[ +sonorant -continuant ]
p1593
sbsg24
V[ +sonorant -continuant ] ---> place1 /  _ [ -tense ]
p1594
sba(irule
Rule
p1595
(dp1596
g17
(irule
Guard
p1597
(dp1598
g20
I00
sg21
(lp1599
sg23
I00
sg24
V
sg25
I00
sg26
S'L'
sbsg27
(irule
PlaceSpecification
p1600
(dp1601
g111
I1
sbsg33
(irule
Guard
p1602
(dp1603
g20
I00
sg21
(lp1604
(irule
FeatureMatrix
p1605
(dp1606
g30
(lp1607
(I00
g1010
tp1608
a(I00
g496
tp1609
asg24
V[ -low -vowel ]
p1610
sbasg23
I00
sg24
g1610
sg25
I00
sg26
S'R'
sbsg37
(irule
ConstantPhoneme
p1611
(dp1612
S'p'
Vm
sbsg24
Vm ---> place1 /  _ [ -low -vowel ]
p1613
sba(irule
Rule
p1614
(dp1615
g17
(irule
Guard
p1616
(dp1617
g20
I00
sg21
(lp1618
sg23
I00
sg24
V
sg25
I00
sg26
S'L'
sbsg27
(irule
PlaceSpecification
p1619
(dp1620
g111
I1
sbsg33
(irule
Guard
p1621
(dp1622
g20
I00
sg21
(lp1623
(irule
FeatureMatrix
p1624
(dp1625
g30
(lp1626
(I00
S'long'
p1627
tp1628
a(I00
g496
tp1629
asg24
V[ -long -vowel ]
p1630
sbasg23
I00
sg24
g1630
sg25
I00
sg26
S'R'
sbsg37
(irule
FeatureMatrix
p1631
(dp1632
g30
(lp1633
(I01
g457
tp1634
asg24
V[ +nasal ]
p1635
sbsg24
V[ +nasal ] ---> place1 /  _ [ -long -vowel ]
p1636
sba(irule
Rule
p1637
(dp1638
g17
(irule
Guard
p1639
(dp1640
g20
I00
sg21
(lp1641
sg23
I00
sg24
V
sg25
I00
sg26
S'L'
sbsg27
(irule
PlaceSpecification
p1642
(dp1643
g111
I1
sbsg33
(irule
Guard
p1644
(dp1645
g20
I00
sg21
(lp1646
(irule
FeatureMatrix
p1647
(dp1648
g30
(lp1649
(I00
g1010
tp1650
a(I00
g518
tp1651
asg24
V[ -low -voice ]
p1652
sbasg23
I00
sg24
g1652
sg25
I00
sg26
S'R'
sbsg37
(irule
FeatureMatrix
p1653
(dp1654
g30
(lp1655
(I01
g457
tp1656
asg24
V[ +nasal ]
p1657
sbsg24
V[ +nasal ] ---> place1 /  _ [ -low -voice ]
p1658
sba(irule
Rule
p1659
(dp1660
g17
(irule
Guard
p1661
(dp1662
g20
I00
sg21
(lp1663
sg23
I00
sg24
V
sg25
I00
sg26
S'L'
sbsg27
(irule
PlaceSpecification
p1664
(dp1665
g111
I1
sbsg33
(irule
Guard
p1666
(dp1667
g20
I00
sg21
(lp1668
(irule
FeatureMatrix
p1669
(dp1670
g30
(lp1671
(I00
g451
tp1672
a(I00
g518
tp1673
asg24
V[ -sonorant -voice ]
p1674
sbasg23
I00
sg24
g1674
sg25
I00
sg26
S'R'
sbsg37
(irule
FeatureMatrix
p1675
(dp1676
g30
(lp1677
(I01
g457
tp1678
asg24
V[ +nasal ]
p1679
sbsg24
V[ +nasal ] ---> place1 /  _ [ -sonorant -voice ]
p1680
sba(irule
Rule
p1681
(dp1682
g17
(irule
Guard
p1683
(dp1684
g20
I00
sg21
(lp1685
sg23
I00
sg24
V
sg25
I00
sg26
S'L'
sbsg27
(irule
PlaceSpecification
p1686
(dp1687
g111
I1
sbsg33
(irule
Guard
p1688
(dp1689
g20
I00
sg21
(lp1690
(irule
FeatureMatrix
p1691
(dp1692
g30
(lp1693
(I00
g540
tp1694
a(I00
g1010
tp1695
asg24
V[ -low -tense ]
p1696
sbasg23
I00
sg24
g1696
sg25
I00
sg26
S'R'
sbsg37
(irule
FeatureMatrix
p1697
(dp1698
g30
(lp1699
(I01
g457
tp1700
asg24
V[ +nasal ]
p1701
sbsg24
V[ +nasal ] ---> place1 /  _ [ -low -tense ]
p1702
sba(irule
Rule
p1703
(dp1704
g17
(irule
Guard
p1705
(dp1706
g20
I00
sg21
(lp1707
sg23
I00
sg24
V
sg25
I00
sg26
S'L'
sbsg27
(irule
PlaceSpecification
p1708
(dp1709
g111
I1
sbsg33
(irule
Guard
p1710
(dp1711
g20
I00
sg21
(lp1712
(irule
FeatureMatrix
p1713
(dp1714
g30
(lp1715
(I00
g540
tp1716
a(I00
g518
tp1717
asg24
V[ -tense -voice ]
p1718
sbasg23
I00
sg24
g1718
sg25
I00
sg26
S'R'
sbsg37
(irule
FeatureMatrix
p1719
(dp1720
g30
(lp1721
(I01
g457
tp1722
asg24
V[ +nasal ]
p1723
sbsg24
V[ +nasal ] ---> place1 /  _ [ -tense -voice ]
p1724
sba(irule
Rule
p1725
(dp1726
g17
(irule
Guard
p1727
(dp1728
g20
I00
sg21
(lp1729
sg23
I00
sg24
V
sg25
I00
sg26
S'L'
sbsg27
(irule
PlaceSpecification
p1730
(dp1731
g111
I1
sbsg33
(irule
Guard
p1732
(dp1733
g20
I00
sg21
(lp1734
(irule
FeatureMatrix
p1735
(dp1736
g30
(lp1737
(I00
g540
tp1738
asg24
V[ -tense ]
p1739
sbasg23
I00
sg24
g1739
sg25
I00
sg26
S'R'
sbsg37
(irule
FeatureMatrix
p1740
(dp1741
g30
(lp1742
(I01
g639
tp1743
a(I00
g474
tp1744
asg24
V[ +anterior -continuant ]
p1745
sbsg24
V[ +anterior -continuant ] ---> place1 /  _ [ -tense ]
p1746
sba(irule
Rule
p1747
(dp1748
g17
(irule
Guard
p1749
(dp1750
g20
I00
sg21
(lp1751
sg23
I00
sg24
V
sg25
I00
sg26
S'L'
sbsg27
(irule
PlaceSpecification
p1752
(dp1753
g111
I1
sbsg33
(irule
Guard
p1754
(dp1755
g20
I00
sg21
(lp1756
(irule
FeatureMatrix
p1757
(dp1758
g30
(lp1759
(I00
g518
tp1760
asg24
V[ -voice ]
p1761
sbasg23
I00
sg24
g1761
sg25
I00
sg26
S'R'
sbsg37
(irule
FeatureMatrix
p1762
(dp1763
g30
(lp1764
(I01
g639
tp1765
a(I00
g474
tp1766
asg24
V[ +anterior -continuant ]
p1767
sbsg24
V[ +anterior -continuant ] ---> place1 /  _ [ -voice ]
p1768
sba(irule
Rule
p1769
(dp1770
g17
(irule
Guard
p1771
(dp1772
g20
I00
sg21
(lp1773
sg23
I00
sg24
V
sg25
I00
sg26
S'L'
sbsg27
(irule
PlaceSpecification
p1774
(dp1775
g111
I1
sbsg33
(irule
Guard
p1776
(dp1777
g20
I00
sg21
(lp1778
(irule
FeatureMatrix
p1779
(dp1780
g30
(lp1781
(I00
g496
tp1782
asg24
V[ -vowel ]
p1783
sbasg23
I00
sg24
g1783
sg25
I00
sg26
S'R'
sbsg37
(irule
FeatureMatrix
p1784
(dp1785
g30
(lp1786
(I00
g474
tp1787
a(I00
g1367
tp1788
asg24
V[ -continuant -high ]
p1789
sbsg24
V[ -continuant -high ] ---> place1 /  _ [ -vowel ]
p1790
sba(irule
Rule
p1791
(dp1792
g17
(irule
Guard
p1793
(dp1794
g20
I00
sg21
(lp1795
sg23
I00
sg24
V
sg25
I00
sg26
S'L'
sbsg27
(irule
PlaceSpecification
p1796
(dp1797
g111
I1
sbsg33
(irule
Guard
p1798
(dp1799
g20
I00
sg21
(lp1800
(irule
FeatureMatrix
p1801
(dp1802
g30
(lp1803
(I00
g474
tp1804
asg24
V[ -continuant ]
p1805
sbasg23
I00
sg24
g1805
sg25
I00
sg26
S'R'
sbsg37
(irule
FeatureMatrix
p1806
(dp1807
g30
(lp1808
(I01
g639
tp1809
a(I01
g457
tp1810
asg24
V[ +anterior +nasal ]
p1811
sbsg24
V[ +anterior +nasal ] ---> place1 /  _ [ -continuant ]
p1812
sba(irule
Rule
p1813
(dp1814
g17
(irule
Guard
p1815
(dp1816
g20
I00
sg21
(lp1817
(irule
ConstantPhoneme
p1818
(dp1819
S'p'
Va
sbasg23
I00
sg24
Va
sg25
I00
sg26
S'L'
sbsg27
(irule
PlaceSpecification
p1820
(dp1821
g111
I1
sbsg33
(irule
Guard
p1822
(dp1823
g20
I00
sg21
(lp1824
(irule
FeatureMatrix
p1825
(dp1826
g30
(lp1827
(I00
g496
tp1828
asg24
V[ -vowel ]
p1829
sbasg23
I00
sg24
g1829
sg25
I00
sg26
S'R'
sbsg37
(irule
FeatureMatrix
p1830
(dp1831
g30
(lp1832
sg24
V[  ]
p1833
sbsg24
V[  ] ---> place1 / a _ [ -vowel ]
p1834
sba(irule
Rule
p1835
(dp1836
g17
(irule
Guard
p1837
(dp1838
g20
I00
sg21
(lp1839
sg23
I00
sg24
V
sg25
I00
sg26
S'L'
sbsg27
(irule
PlaceSpecification
p1840
(dp1841
g111
I1
sbsg33
(irule
Guard
p1842
(dp1843
g20
I00
sg21
(lp1844
(irule
FeatureMatrix
p1845
(dp1846
g30
(lp1847
(I00
g451
tp1848
a(I00
g496
tp1849
asg24
V[ -sonorant -vowel ]
p1850
sbasg23
I00
sg24
g1850
sg25
I00
sg26
S'R'
sbsg37
(irule
ConstantPhoneme
p1851
(dp1852
S'p'
Vm
sbsg24
Vm ---> place1 /  _ [ -sonorant -vowel ]
p1853
sba(irule
Rule
p1854
(dp1855
g17
(irule
Guard
p1856
(dp1857
g20
I00
sg21
(lp1858
sg23
I00
sg24
V
sg25
I00
sg26
S'L'
sbsg27
(irule
PlaceSpecification
p1859
(dp1860
g111
I1
sbsg33
(irule
Guard
p1861
(dp1862
g20
I00
sg21
(lp1863
(irule
FeatureMatrix
p1864
(dp1865
g30
(lp1866
(I00
g540
tp1867
asg24
V[ -tense ]
p1868
sbasg23
I00
sg24
g1868
sg25
I00
sg26
S'R'
sbsg37
(irule
FeatureMatrix
p1869
(dp1870
g30
(lp1871
(I01
g639
tp1872
a(I01
g451
tp1873
asg24
V[ +anterior +sonorant ]
p1874
sbsg24
V[ +anterior +sonorant ] ---> place1 /  _ [ -tense ]
p1875
sba(irule
Rule
p1876
(dp1877
g17
(irule
Guard
p1878
(dp1879
g20
I00
sg21
(lp1880
(irule
ConstantPhoneme
p1881
(dp1882
S'p'
Va
sbasg23
I00
sg24
Va
sg25
I00
sg26
S'L'
sbsg27
(irule
PlaceSpecification
p1883
(dp1884
g111
I1
sbsg33
(irule
Guard
p1885
(dp1886
g20
I00
sg21
(lp1887
(irule
FeatureMatrix
p1888
(dp1889
g30
(lp1890
(I00
g474
tp1891
asg24
V[ -continuant ]
p1892
sbasg23
I00
sg24
g1892
sg25
I00
sg26
S'R'
sbsg37
(irule
FeatureMatrix
p1893
(dp1894
g30
(lp1895
sg24
V[  ]
p1896
sbsg24
V[  ] ---> place1 / a _ [ -continuant ]
p1897
sba(irule
Rule
p1898
(dp1899
g17
(irule
Guard
p1900
(dp1901
g20
I00
sg21
(lp1902
sg23
I00
sg24
V
sg25
I00
sg26
S'L'
sbsg27
(irule
PlaceSpecification
p1903
(dp1904
g111
I1
sbsg33
(irule
Guard
p1905
(dp1906
g20
I00
sg21
(lp1907
(irule
FeatureMatrix
p1908
(dp1909
g30
(lp1910
(I00
g1010
tp1911
a(I00
g518
tp1912
asg24
V[ -low -voice ]
p1913
sbasg23
I00
sg24
g1913
sg25
I00
sg26
S'R'
sbsg37
(irule
ConstantPhoneme
p1914
(dp1915
S'p'
Vm
sbsg24
Vm ---> place1 /  _ [ -low -voice ]
p1916
sba(irule
Rule
p1917
(dp1918
g17
(irule
Guard
p1919
(dp1920
g20
I00
sg21
(lp1921
sg23
I00
sg24
V
sg25
I00
sg26
S'L'
sbsg27
(irule
PlaceSpecification
p1922
(dp1923
g111
I1
sbsg33
(irule
Guard
p1924
(dp1925
g20
I00
sg21
(lp1926
(irule
FeatureMatrix
p1927
(dp1928
g30
(lp1929
(I00
g496
tp1930
a(I00
g518
tp1931
asg24
V[ -voice -vowel ]
p1932
sbasg23
I00
sg24
g1932
sg25
I00
sg26
S'R'
sbsg37
(irule
ConstantPhoneme
p1933
(dp1934
S'p'
Vm
sbsg24
Vm ---> place1 /  _ [ -voice -vowel ]
p1935
sba(irule
Rule
p1936
(dp1937
g17
(irule
Guard
p1938
(dp1939
g20
I00
sg21
(lp1940
sg23
I00
sg24
V
sg25
I00
sg26
S'L'
sbsg27
(irule
PlaceSpecification
p1941
(dp1942
g111
I1
sbsg33
(irule
Guard
p1943
(dp1944
g20
I00
sg21
(lp1945
(irule
FeatureMatrix
p1946
(dp1947
g30
(lp1948
(I00
g540
tp1949
asg24
V[ -tense ]
p1950
sbasg23
I00
sg24
g1950
sg25
I00
sg26
S'R'
sbsg37
(irule
FeatureMatrix
p1951
(dp1952
g30
(lp1953
(I01
g639
tp1954
a(I01
g518
tp1955
asg24
V[ +anterior +voice ]
p1956
sbsg24
V[ +anterior +voice ] ---> place1 /  _ [ -tense ]
p1957
sba(irule
Rule
p1958
(dp1959
g17
(irule
Guard
p1960
(dp1961
g20
I00
sg21
(lp1962
sg23
I00
sg24
V
sg25
I00
sg26
S'L'
sbsg27
(irule
PlaceSpecification
p1963
(dp1964
g111
I1
sbsg33
(irule
Guard
p1965
(dp1966
g20
I00
sg21
(lp1967
(irule
FeatureMatrix
p1968
(dp1969
g30
(lp1970
(I00
S'liquid'
tp1971
a(I00
g451
tp1972
asg24
V[ -liquid -sonorant ]
p1973
sbasg23
I00
sg24
g1973
sg25
I00
sg26
S'R'
sbsg37
(irule
ConstantPhoneme
p1974
(dp1975
S'p'
Vm
sbsg24
Vm ---> place1 /  _ [ -liquid -sonorant ]
p1976
sba(irule
Rule
p1977
(dp1978
g17
(irule
Guard
p1979
(dp1980
g20
I00
sg21
(lp1981
sg23
I00
sg24
V
sg25
I00
sg26
S'L'
sbsg27
(irule
PlaceSpecification
p1982
(dp1983
g111
I1
sbsg33
(irule
Guard
p1984
(dp1985
g20
I00
sg21
(lp1986
(irule
FeatureMatrix
p1987
(dp1988
g30
(lp1989
(I00
S'rounded'
tp1990
a(I00
g540
tp1991
asg24
V[ -rounded -tense ]
p1992
sbasg23
I00
sg24
g1992
sg25
I00
sg26
S'R'
sbsg37
(irule
FeatureMatrix
p1993
(dp1994
g30
(lp1995
(I01
g457
tp1996
asg24
V[ +nasal ]
p1997
sbsg24
V[ +nasal ] ---> place1 /  _ [ -rounded -tense ]
p1998
sba(irule
Rule
p1999
(dp2000
g17
(irule
Guard
p2001
(dp2002
g20
I00
sg21
(lp2003
sg23
I00
sg24
V
sg25
I00
sg26
S'L'
sbsg27
(irule
PlaceSpecification
p2004
(dp2005
g111
I1
sbsg33
(irule
Guard
p2006
(dp2007
g20
I00
sg21
(lp2008
(irule
FeatureMatrix
p2009
(dp2010
g30
(lp2011
(I00
g496
tp2012
asg24
V[ -vowel ]
p2013
sbasg23
I00
sg24
g2013
sg25
I00
sg26
S'R'
sbsg37
(irule
FeatureMatrix
p2014
(dp2015
g30
(lp2016
(I00
g474
tp2017
a(I01
g518
tp2018
asg24
V[ +voice -continuant ]
p2019
sbsg24
V[ +voice -continuant ] ---> place1 /  _ [ -vowel ]
p2020
sba(irule
Rule
p2021
(dp2022
g17
(irule
Guard
p2023
(dp2024
g20
I00
sg21
(lp2025
sg23
I00
sg24
V
sg25
I00
sg26
S'L'
sbsg27
(irule
PlaceSpecification
p2026
(dp2027
g111
I1
sbsg33
(irule
Guard
p2028
(dp2029
g20
I00
sg21
(lp2030
(irule
FeatureMatrix
p2031
(dp2032
g30
(lp2033
(I00
g451
tp2034
asg24
V[ -sonorant ]
p2035
sbasg23
I00
sg24
g2035
sg25
I00
sg26
S'R'
sbsg37
(irule
FeatureMatrix
p2036
(dp2037
g30
(lp2038
(I01
g639
tp2039
a(I01
g457
tp2040
asg24
V[ +anterior +nasal ]
p2041
sbsg24
V[ +anterior +nasal ] ---> place1 /  _ [ -sonorant ]
p2042
sba(irule
Rule
p2043
(dp2044
g17
(irule
Guard
p2045
(dp2046
g20
I00
sg21
(lp2047
sg23
I00
sg24
V
sg25
I00
sg26
S'L'
sbsg27
(irule
PlaceSpecification
p2048
(dp2049
g111
I1
sbsg33
(irule
Guard
p2050
(dp2051
g20
I00
sg21
(lp2052
(irule
FeatureMatrix
p2053
(dp2054
g30
(lp2055
(I00
g496
tp2056
asg24
V[ -vowel ]
p2057
sbasg23
I00
sg24
g2057
sg25
I00
sg26
S'R'
sbsg37
(irule
FeatureMatrix
p2058
(dp2059
g30
(lp2060
(I01
g457
tp2061
a(I00
g926
tp2062
asg24
V[ +nasal -palletized ]
p2063
sbsg24
V[ +nasal -palletized ] ---> place1 /  _ [ -vowel ]
p2064
sba(irule
Rule
p2065
(dp2066
g17
(irule
Guard
p2067
(dp2068
g20
I00
sg21
(lp2069
(irule
FeatureMatrix
p2070
(dp2071
g30
(lp2072
(I01
g1010
tp2073
asg24
V[ +low ]
p2074
sbasg23
I00
sg24
g2074
sg25
I00
sg26
S'L'
sbsg27
(irule
PlaceSpecification
p2075
(dp2076
g111
I1
sbsg33
(irule
Guard
p2077
(dp2078
g20
I00
sg21
(lp2079
(irule
FeatureMatrix
p2080
(dp2081
g30
(lp2082
(I00
g540
tp2083
asg24
V[ -tense ]
p2084
sbasg23
I00
sg24
g2084
sg25
I00
sg26
S'R'
sbsg37
(irule
FeatureMatrix
p2085
(dp2086
g30
(lp2087
sg24
V[  ]
p2088
sbsg24
V[  ] ---> place1 / [ +low ] _ [ -tense ]
p2089
sba(irule
Rule
p2090
(dp2091
g17
(irule
Guard
p2092
(dp2093
g20
I00
sg21
(lp2094
(irule
FeatureMatrix
p2095
(dp2096
g30
(lp2097
sg24
V[  ]
p2098
sbasg23
I00
sg24
g2098
sg25
I00
sg26
S'L'
sbsg27
(irule
PlaceSpecification
p2099
(dp2100
g111
I1
sbsg33
(irule
Guard
p2101
(dp2102
g20
I00
sg21
(lp2103
(irule
FeatureMatrix
p2104
(dp2105
g30
(lp2106
(I00
g451
tp2107
asg24
V[ -sonorant ]
p2108
sbasg23
I00
sg24
g2108
sg25
I00
sg26
S'R'
sbsg37
(irule
ConstantPhoneme
p2109
(dp2110
S'p'
Vm
sbsg24
Vm ---> place1 / [  ] _ [ -sonorant ]
p2111
sba(irule
Rule
p2112
(dp2113
g17
(irule
Guard
p2114
(dp2115
g20
I00
sg21
(lp2116
sg23
I00
sg24
V
sg25
I00
sg26
S'L'
sbsg27
(irule
PlaceSpecification
p2117
(dp2118
g111
I1
sbsg33
(irule
Guard
p2119
(dp2120
g20
I00
sg21
(lp2121
(irule
FeatureMatrix
p2122
(dp2123
g30
(lp2124
(I00
g474
tp2125
asg24
V[ -continuant ]
p2126
sbasg23
I00
sg24
g2126
sg25
I00
sg26
S'R'
sbsg37
(irule
FeatureMatrix
p2127
(dp2128
g30
(lp2129
(I00
g474
tp2130
a(I01
g451
tp2131
asg24
V[ +sonorant -continuant ]
p2132
sbsg24
V[ +sonorant -continuant ] ---> place1 /  _ [ -continuant ]
p2133
sba(irule
Rule
p2134
(dp2135
g17
(irule
Guard
p2136
(dp2137
g20
I00
sg21
(lp2138
sg23
I00
sg24
V
sg25
I00
sg26
S'L'
sbsg27
(irule
PlaceSpecification
p2139
(dp2140
g111
I1
sbsg33
(irule
Guard
p2141
(dp2142
g20
I00
sg21
(lp2143
(irule
FeatureMatrix
p2144
(dp2145
g30
(lp2146
(I00
g496
tp2147
asg24
V[ -vowel ]
p2148
sba(irule
FeatureMatrix
p2149
(dp2150
g30
(lp2151
sg24
V[  ]
p2152
sbasg23
I00
sg24
V[ -vowel ] [  ]
p2153
sg25
I00
sg26
S'R'
sbsg37
(irule
FeatureMatrix
p2154
(dp2155
g30
(lp2156
(I01
g457
tp2157
asg24
V[ +nasal ]
p2158
sbsg24
V[ +nasal ] ---> place1 /  _ [ -vowel ] [  ]
p2159
sba(irule
Rule
p2160
(dp2161
g17
(irule
Guard
p2162
(dp2163
g20
I00
sg21
(lp2164
sg23
I00
sg24
V
sg25
I00
sg26
S'L'
sbsg27
(irule
PlaceSpecification
p2165
(dp2166
g111
I1
sbsg33
(irule
Guard
p2167
(dp2168
g20
I00
sg21
(lp2169
(irule
FeatureMatrix
p2170
(dp2171
g30
(lp2172
(I00
g474
tp2173
asg24
V[ -continuant ]
p2174
sbasg23
I00
sg24
g2174
sg25
I00
sg26
S'R'
sbsg37
(irule
FeatureMatrix
p2175
(dp2176
g30
(lp2177
(I01
g457
tp2178
a(I01
g451
tp2179
asg24
V[ +nasal +sonorant ]
p2180
sbsg24
V[ +nasal +sonorant ] ---> place1 /  _ [ -continuant ]
p2181
sba(irule
Rule
p2182
(dp2183
g17
(irule
Guard
p2184
(dp2185
g20
I00
sg21
(lp2186
sg23
I00
sg24
V
sg25
I00
sg26
S'L'
sbsg27
(irule
PlaceSpecification
p2187
(dp2188
g111
I1
sbsg33
(irule
Guard
p2189
(dp2190
g20
I00
sg21
(lp2191
(irule
FeatureMatrix
p2192
(dp2193
g30
(lp2194
(I00
g451
tp2195
a(I00
g540
tp2196
asg24
V[ -sonorant -tense ]
p2197
sbasg23
I00
sg24
g2197
sg25
I00
sg26
S'R'
sbsg37
(irule
ConstantPhoneme
p2198
(dp2199
S'p'
Vm
sbsg24
Vm ---> place1 /  _ [ -sonorant -tense ]
p2200
sba(irule
Rule
p2201
(dp2202
g17
(irule
Guard
p2203
(dp2204
g20
I00
sg21
(lp2205
sg23
I00
sg24
V
sg25
I00
sg26
S'L'
sbsg27
(irule
PlaceSpecification
p2206
(dp2207
g111
I1
sbsg33
(irule
Guard
p2208
(dp2209
g20
I00
sg21
(lp2210
(irule
FeatureMatrix
p2211
(dp2212
g30
(lp2213
(I00
g451
tp2214
asg24
V[ -sonorant ]
p2215
sbasg23
I00
sg24
g2215
sg25
I00
sg26
S'R'
sbsg37
(irule
FeatureMatrix
p2216
(dp2217
g30
(lp2218
(I01
g457
tp2219
a(I01
g518
tp2220
asg24
V[ +nasal +voice ]
p2221
sbsg24
V[ +nasal +voice ] ---> place1 /  _ [ -sonorant ]
p2222
sba(irule
Rule
p2223
(dp2224
g17
(irule
Guard
p2225
(dp2226
g20
I00
sg21
(lp2227
sg23
I00
sg24
V
sg25
I00
sg26
S'L'
sbsg27
(irule
PlaceSpecification
p2228
(dp2229
g111
I1
sbsg33
(irule
Guard
p2230
(dp2231
g20
I00
sg21
(lp2232
(irule
FeatureMatrix
p2233
(dp2234
g30
(lp2235
(I00
g474
tp2236
asg24
V[ -continuant ]
p2237
sbasg23
I00
sg24
g2237
sg25
I00
sg26
S'R'
sbsg37
(irule
FeatureMatrix
p2238
(dp2239
g30
(lp2240
(I01
g457
tp2241
a(I00
g886
tp2242
asg24
V[ +nasal -coronal ]
p2243
sbsg24
V[ +nasal -coronal ] ---> place1 /  _ [ -continuant ]
p2244
sba(irule
Rule
p2245
(dp2246
g17
(irule
Guard
p2247
(dp2248
g20
I00
sg21
(lp2249
sg23
I00
sg24
V
sg25
I00
sg26
S'L'
sbsg27
(irule
PlaceSpecification
p2250
(dp2251
g111
I1
sbsg33
(irule
Guard
p2252
(dp2253
g20
I00
sg21
(lp2254
(irule
FeatureMatrix
p2255
(dp2256
g30
(lp2257
(I00
g518
tp2258
asg24
V[ -voice ]
p2259
sbasg23
I00
sg24
g2259
sg25
I00
sg26
S'R'
sbsg37
(irule
FeatureMatrix
p2260
(dp2261
g30
(lp2262
(I01
g457
tp2263
a(I01
g451
tp2264
asg24
V[ +nasal +sonorant ]
p2265
sbsg24
V[ +nasal +sonorant ] ---> place1 /  _ [ -voice ]
p2266
sba(irule
Rule
p2267
(dp2268
g17
(irule
Guard
p2269
(dp2270
g20
I00
sg21
(lp2271
sg23
I00
sg24
V
sg25
I00
sg26
S'L'
sbsg27
(irule
PlaceSpecification
p2272
(dp2273
g111
I1
sbsg33
(irule
Guard
p2274
(dp2275
g20
I00
sg21
(lp2276
(irule
FeatureMatrix
p2277
(dp2278
g30
(lp2279
(I00
g451
tp2280
asg24
V[ -sonorant ]
p2281
sbasg23
I00
sg24
g2281
sg25
I00
sg26
S'R'
sbsg37
(irule
FeatureMatrix
p2282
(dp2283
g30
(lp2284
(I00
g474
tp2285
a(I01
g457
tp2286
asg24
V[ +nasal -continuant ]
p2287
sbsg24
V[ +nasal -continuant ] ---> place1 /  _ [ -sonorant ]
p2288
sba(irule
Rule
p2289
(dp2290
g17
(irule
Guard
p2291
(dp2292
g20
I00
sg21
(lp2293
sg23
I00
sg24
V
sg25
I00
sg26
S'L'
sbsg27
(irule
PlaceSpecification
p2294
(dp2295
g111
I1
sbsg33
(irule
Guard
p2296
(dp2297
g20
I00
sg21
(lp2298
(irule
FeatureMatrix
p2299
(dp2300
g30
(lp2301
(I00
g496
tp2302
asg24
V[ -vowel ]
p2303
sbasg23
I00
sg24
g2303
sg25
I00
sg26
S'R'
sbsg37
(irule
FeatureMatrix
p2304
(dp2305
g30
(lp2306
(I00
g474
tp2307
a(I01
g457
tp2308
asg24
V[ +nasal -continuant ]
p2309
sbsg24
V[ +nasal -continuant ] ---> place1 /  _ [ -vowel ]
p2310
sba(irule
Rule
p2311
(dp2312
g17
(irule
Guard
p2313
(dp2314
g20
I00
sg21
(lp2315
sg23
I00
sg24
V
sg25
I00
sg26
S'L'
sbsg27
(irule
PlaceSpecification
p2316
(dp2317
g111
I1
sbsg33
(irule
Guard
p2318
(dp2319
g20
I00
sg21
(lp2320
(irule
FeatureMatrix
p2321
(dp2322
g30
(lp2323
(I00
g540
tp2324
asg24
V[ -tense ]
p2325
sbasg23
I00
sg24
g2325
sg25
I00
sg26
S'R'
sbsg37
(irule
FeatureMatrix
p2326
(dp2327
g30
(lp2328
(I00
g474
tp2329
a(I00
g998
tp2330
asg24
V[ -back -continuant ]
p2331
sbsg24
V[ -back -continuant ] ---> place1 /  _ [ -tense ]
p2332
sba(irule
Rule
p2333
(dp2334
g17
(irule
Guard
p2335
(dp2336
g20
I00
sg21
(lp2337
sg23
I00
sg24
V
sg25
I00
sg26
S'L'
sbsg27
(irule
PlaceSpecification
p2338
(dp2339
g111
I1
sbsg33
(irule
Guard
p2340
(dp2341
g20
I00
sg21
(lp2342
(irule
FeatureMatrix
p2343
(dp2344
g30
(lp2345
(I00
g496
tp2346
asg24
V[ -vowel ]
p2347
sbasg23
I00
sg24
g2347
sg25
I00
sg26
S'R'
sbsg37
(irule
FeatureMatrix
p2348
(dp2349
g30
(lp2350
(I00
g1627
tp2351
a(I01
g457
tp2352
asg24
V[ +nasal -long ]
p2353
sbsg24
V[ +nasal -long ] ---> place1 /  _ [ -vowel ]
p2354
sba(irule
Rule
p2355
(dp2356
g17
(irule
Guard
p2357
(dp2358
g20
I00
sg21
(lp2359
sg23
I00
sg24
V
sg25
I00
sg26
S'L'
sbsg27
(irule
PlaceSpecification
p2360
(dp2361
g111
I1
sbsg33
(irule
Guard
p2362
(dp2363
g20
I00
sg21
(lp2364
(irule
FeatureMatrix
p2365
(dp2366
g30
(lp2367
(I00
g451
tp2368
asg24
V[ -sonorant ]
p2369
sbasg23
I00
sg24
g2369
sg25
I00
sg26
S'R'
sbsg37
(irule
FeatureMatrix
p2370
(dp2371
g30
(lp2372
(I01
g457
tp2373
a(I00
S'sibilant'
p2374
tp2375
asg24
V[ +nasal -sibilant ]
p2376
sbsg24
V[ +nasal -sibilant ] ---> place1 /  _ [ -sonorant ]
p2377
sba(irule
Rule
p2378
(dp2379
g17
(irule
Guard
p2380
(dp2381
g20
I00
sg21
(lp2382
sg23
I00
sg24
V
sg25
I00
sg26
S'L'
sbsg27
(irule
PlaceSpecification
p2383
(dp2384
g111
I1
sbsg33
(irule
Guard
p2385
(dp2386
g20
I00
sg21
(lp2387
(irule
FeatureMatrix
p2388
(dp2389
g30
(lp2390
(I00
g496
tp2391
asg24
V[ -vowel ]
p2392
sbasg23
I00
sg24
g2392
sg25
I00
sg26
S'R'
sbsg37
(irule
FeatureMatrix
p2393
(dp2394
g30
(lp2395
(I01
g457
tp2396
a(I00
g2374
tp2397
asg24
V[ +nasal -sibilant ]
p2398
sbsg24
V[ +nasal -sibilant ] ---> place1 /  _ [ -vowel ]
p2399
sba(irule
Rule
p2400
(dp2401
g17
(irule
Guard
p2402
(dp2403
g20
I00
sg21
(lp2404
sg23
I00
sg24
V
sg25
I00
sg26
S'L'
sbsg27
(irule
PlaceSpecification
p2405
(dp2406
g111
I1
sbsg33
(irule
Guard
p2407
(dp2408
g20
I00
sg21
(lp2409
(irule
FeatureMatrix
p2410
(dp2411
g30
(lp2412
(I00
g518
tp2413
asg24
V[ -voice ]
p2414
sbasg23
I00
sg24
g2414
sg25
I00
sg26
S'R'
sbsg37
(irule
FeatureMatrix
p2415
(dp2416
g30
(lp2417
(I00
g474
tp2418
a(I00
g998
tp2419
asg24
V[ -back -continuant ]
p2420
sbsg24
V[ -back -continuant ] ---> place1 /  _ [ -voice ]
p2421
sba(irule
Rule
p2422
(dp2423
g17
(irule
Guard
p2424
(dp2425
g20
I00
sg21
(lp2426
(irule
FeatureMatrix
p2427
(dp2428
g30
(lp2429
sg24
V[  ]
p2430
sbasg23
I00
sg24
g2430
sg25
I00
sg26
S'L'
sbsg27
(irule
PlaceSpecification
p2431
(dp2432
g111
I1
sbsg33
(irule
Guard
p2433
(dp2434
g20
I00
sg21
(lp2435
(irule
FeatureMatrix
p2436
(dp2437
g30
(lp2438
(I00
g540
tp2439
asg24
V[ -tense ]
p2440
sbasg23
I00
sg24
g2440
sg25
I00
sg26
S'R'
sbsg37
(irule
FeatureMatrix
p2441
(dp2442
g30
(lp2443
(I01
g457
tp2444
asg24
V[ +nasal ]
p2445
sbsg24
V[ +nasal ] ---> place1 / [  ] _ [ -tense ]
p2446
sba(irule
Rule
p2447
(dp2448
g17
(irule
Guard
p2449
(dp2450
g20
I00
sg21
(lp2451
sg23
I00
sg24
V
sg25
I00
sg26
S'L'
sbsg27
(irule
PlaceSpecification
p2452
(dp2453
g111
I1
sbsg33
(irule
Guard
p2454
(dp2455
g20
I00
sg21
(lp2456
(irule
FeatureMatrix
p2457
(dp2458
g30
(lp2459
(I00
g451
tp2460
asg24
V[ -sonorant ]
p2461
sbasg23
I00
sg24
g2461
sg25
I00
sg26
S'R'
sbsg37
(irule
FeatureMatrix
p2462
(dp2463
g30
(lp2464
(I01
g457
tp2465
a(I00
g926
tp2466
asg24
V[ +nasal -palletized ]
p2467
sbsg24
V[ +nasal -palletized ] ---> place1 /  _ [ -sonorant ]
p2468
sba(irule
Rule
p2469
(dp2470
g17
(irule
Guard
p2471
(dp2472
g20
I00
sg21
(lp2473
sg23
I00
sg24
V
sg25
I00
sg26
S'L'
sbsg27
(irule
PlaceSpecification
p2474
(dp2475
g111
I1
sbsg33
(irule
Guard
p2476
(dp2477
g20
I00
sg21
(lp2478
(irule
FeatureMatrix
p2479
(dp2480
g30
(lp2481
(I00
g474
tp2482
asg24
V[ -continuant ]
p2483
sbasg23
I00
sg24
g2483
sg25
I00
sg26
S'R'
sbsg37
(irule
FeatureMatrix
p2484
(dp2485
g30
(lp2486
(I01
g639
tp2487
a(I01
g518
tp2488
asg24
V[ +anterior +voice ]
p2489
sbsg24
V[ +anterior +voice ] ---> place1 /  _ [ -continuant ]
p2490
sba(irule
Rule
p2491
(dp2492
g17
(irule
Guard
p2493
(dp2494
g20
I00
sg21
(lp2495
sg23
I00
sg24
V
sg25
I00
sg26
S'L'
sbsg27
(irule
PlaceSpecification
p2496
(dp2497
g111
I1
sbsg33
(irule
Guard
p2498
(dp2499
g20
I00
sg21
(lp2500
(irule
FeatureMatrix
p2501
(dp2502
g30
(lp2503
(I00
g474
tp2504
a(I00
g518
tp2505
asg24
V[ -continuant -voice ]
p2506
sbasg23
I00
sg24
g2506
sg25
I00
sg26
S'R'
sbsg37
(irule
FeatureMatrix
p2507
(dp2508
g30
(lp2509
(I01
g457
tp2510
asg24
V[ +nasal ]
p2511
sbsg24
V[ +nasal ] ---> place1 /  _ [ -continuant -voice ]
p2512
sba(irule
Rule
p2513
(dp2514
g17
(irule
Guard
p2515
(dp2516
g20
I00
sg21
(lp2517
sg23
I00
sg24
V
sg25
I00
sg26
S'L'
sbsg27
(irule
PlaceSpecification
p2518
(dp2519
g111
I1
sbsg33
(irule
Guard
p2520
(dp2521
g20
I00
sg21
(lp2522
(irule
FeatureMatrix
p2523
(dp2524
g30
(lp2525
(I00
g540
tp2526
asg24
V[ -tense ]
p2527
sbasg23
I00
sg24
g2527
sg25
I00
sg26
S'R'
sbsg37
(irule
FeatureMatrix
p2528
(dp2529
g30
(lp2530
(I01
g457
tp2531
a(I01
g451
tp2532
asg24
V[ +nasal +sonorant ]
p2533
sbsg24
V[ +nasal +sonorant ] ---> place1 /  _ [ -tense ]
p2534
sba(irule
Rule
p2535
(dp2536
g17
(irule
Guard
p2537
(dp2538
g20
I00
sg21
(lp2539
sg23
I00
sg24
V
sg25
I00
sg26
S'L'
sbsg27
(irule
PlaceSpecification
p2540
(dp2541
g111
I1
sbsg33
(irule
Guard
p2542
(dp2543
g20
I00
sg21
(lp2544
(irule
FeatureMatrix
p2545
(dp2546
g30
(lp2547
(I00
g451
tp2548
asg24
V[ -sonorant ]
p2549
sbasg23
I00
sg24
g2549
sg25
I00
sg26
S'R'
sbsg37
(irule
FeatureMatrix
p2550
(dp2551
g30
(lp2552
(I01
g457
tp2553
a(I00
g496
tp2554
asg24
V[ +nasal -vowel ]
p2555
sbsg24
V[ +nasal -vowel ] ---> place1 /  _ [ -sonorant ]
p2556
sba(irule
Rule
p2557
(dp2558
g17
(irule
Guard
p2559
(dp2560
g20
I00
sg21
(lp2561
sg23
I00
sg24
V
sg25
I00
sg26
S'L'
sbsg27
(irule
PlaceSpecification
p2562
(dp2563
g111
I1
sbsg33
(irule
Guard
p2564
(dp2565
g20
I00
sg21
(lp2566
(irule
FeatureMatrix
p2567
(dp2568
g30
(lp2569
(I00
g540
tp2570
a(I00
g518
tp2571
asg24
V[ -tense -voice ]
p2572
sbasg23
I00
sg24
g2572
sg25
I00
sg26
S'R'
sbsg37
(irule
ConstantPhoneme
p2573
(dp2574
S'p'
Vm
sbsg24
Vm ---> place1 /  _ [ -tense -voice ]
p2575
sba(irule
Rule
p2576
(dp2577
g17
(irule
Guard
p2578
(dp2579
g20
I00
sg21
(lp2580
sg23
I00
sg24
V
sg25
I00
sg26
S'L'
sbsg27
(irule
PlaceSpecification
p2581
(dp2582
g111
I1
sbsg33
(irule
Guard
p2583
(dp2584
g20
I00
sg21
(lp2585
(irule
FeatureMatrix
p2586
(dp2587
g30
(lp2588
(I00
g451
tp2589
asg24
V[ -sonorant ]
p2590
sbasg23
I00
sg24
g2590
sg25
I00
sg26
S'R'
sbsg37
(irule
FeatureMatrix
p2591
(dp2592
g30
(lp2593
(I00
g474
tp2594
a(I01
g518
tp2595
asg24
V[ +voice -continuant ]
p2596
sbsg24
V[ +voice -continuant ] ---> place1 /  _ [ -sonorant ]
p2597
sba(irule
Rule
p2598
(dp2599
g17
(irule
Guard
p2600
(dp2601
g20
I00
sg21
(lp2602
sg23
I00
sg24
V
sg25
I00
sg26
S'L'
sbsg27
(irule
PlaceSpecification
p2603
(dp2604
g111
I1
sbsg33
(irule
Guard
p2605
(dp2606
g20
I00
sg21
(lp2607
(irule
FeatureMatrix
p2608
(dp2609
g30
(lp2610
(I00
g496
tp2611
asg24
V[ -vowel ]
p2612
sbasg23
I00
sg24
g2612
sg25
I00
sg26
S'R'
sbsg37
(irule
FeatureMatrix
p2613
(dp2614
g30
(lp2615
(I01
g457
tp2616
a(I00
g1367
tp2617
asg24
V[ +nasal -high ]
p2618
sbsg24
V[ +nasal -high ] ---> place1 /  _ [ -vowel ]
p2619
sbaasbsS'parameters'
p2620
g8
(cargparse
Namespace
p2621
g10
NtRp2622
(dp2623
S'dummy'
p2624
I00
sS'task'
p2625
S'incremental'
p2626
sS'features'
p2627
S'sophisticated'
p2628
sS'resume'
p2629
I00
sS'geometry'
p2630
I01
sS'top'
p2631
I1
sS'disableClean'
p2632
I00
sS'universal'
p2633
NsS'restrict'
p2634
NsS'window'
p2635
NsS'seed'
p2636
S'0'
sS'restore'
p2637
NsS'serial'
p2638
I00
sS'timeout'
p2639
NsS'debug'
p2640
NsS'cores'
p2641
I40
sg4
S'Odden_81_Koasati'
p2642
sS'save'
p2643
NsS'verbosity'
p2644
I0
sS'alignment'
p2645
I00
sS'samples'
p2646
I30
sbsb.