(iresult
Result
p1
(dp2
S'startTime'
p3
F1591017508.0728791
sS'solutionSequence'
p4
(lp5
(ccopy_reg
_reconstructor
p6
(csolution
Solution
p7
c__builtin__
object
p8
NtRp9
(dp10
S'rules'
p11
(lp12
(irule
Rule
p13
(dp14
S'leftTriggers'
p15
(irule
Guard
p16
(dp17
S'endOfString'
p18
I00
sS'specifications'
p19
(lp20
sS'optionalEnding'
p21
I00
sS'representation'
p22
V
sS'starred'
p23
I00
sS'side'
p24
S'L'
sbsS'structuralChange'
p25
(irule
ConstantPhoneme
p26
(dp27
S'p'
Vn
sbsS'rightTriggers'
p28
(irule
Guard
p29
(dp30
g18
I00
sg19
(lp31
(irule
ConstantPhoneme
p32
(dp33
S'p'
V\u0268
sbasg21
I00
sg22
V\u0268
sg23
I00
sg24
S'R'
sbsS'focus'
p34
(irule
FeatureMatrix
p35
(dp36
S'featuresAndPolarities'
p37
(lp38
sg22
V[  ]
p39
sbsg22
V[  ] ---> n /  _ \u0268
p40
sbasS'prefixes'
p41
(lp42
(imorph
Morph
p43
(dp44
S'phonemes'
p45
(lp46
sba(imorph
Morph
p47
(dp48
g45
(lp49
sbasS'underlyingForms'
p50
(dp51
((imorph
Morph
p52
(dp53
g45
(lp54
Vs
aVi
aVn
aV\u0259
asb(imorph
Morph
p55
(dp56
g45
(lp57
Vs
aVi
aVn
aVn
aV\u0268
aVn
aVt
aVa
asbtp58
(imorph
Morph
p59
(dp60
g45
(lp61
Vs
aVi
aVn
aV\u0259
asbs((imorph
Morph
p62
(dp63
g45
(lp64
Vk
aVa
aVm
aVa
asb(imorph
Morph
p65
(dp66
g45
(lp67
Vk
aVa
aVm
aVn
aV\u0268
aVn
aVt
aVa
asbtp68
(imorph
Morph
p69
(dp70
g45
(lp71
Vk
aVa
aVm
aVa
asbs((imorph
Morph
p72
(dp73
g45
(lp74
Va
aVn
aVa
asb(imorph
Morph
p75
(dp76
g45
(lp77
Va
aVn
aVn
aV\u0268
aVn
aVt
aVa
asbtp78
(imorph
Morph
p79
(dp80
g45
(lp81
Va
aVn
aVa
asbssS'suffixes'
p82
(lp83
(imorph
Morph
p84
(dp85
g45
(lp86
sba(imorph
Morph
p87
(dp88
g45
(lp89
V\u0268
aVn
aVt
aVa
asbasbF16.477522850036621
tp90
a(g6
(g7
g8
NtRp91
(dp92
g11
(lp93
(irule
Rule
p94
(dp95
g15
(irule
Guard
p96
(dp97
g18
I00
sg19
(lp98
(irule
FeatureMatrix
p99
(dp100
g37
(lp101
sg22
V[  ]
p102
sba(irule
FeatureMatrix
p103
(dp104
g37
(lp105
(I01
S'low'
tp106
asg22
V[ +low ]
p107
sbasg21
I00
sg22
V[ +low ] [  ]
p108
sg23
I00
sg24
S'L'
sbsg25
(irule
OffsetSpecification
p109
(dp110
S'offset'
p111
I-2
sbsg28
(irule
Guard
p112
(dp113
g18
I01
sg19
(lp114
sg21
I00
sg22
V#
sg23
I00
sg24
S'R'
sbsg34
(irule
FeatureMatrix
p115
(dp116
g37
(lp117
sg22
V[  ]
p118
sbsg22
V[  ] ---> -2 / [ +low ] [  ] _ #
p119
sbasg41
(lp120
(imorph
Morph
p121
(dp122
g45
(lp123
sba(imorph
Morph
p124
(dp125
g45
(lp126
sbasg50
(dp127
((imorph
Morph
(dp128
g45
(lp129
Vn
aV\u0259
aVm
aV\u0259
asb(imorph
Morph
(dp130
g45
(lp131
Vn
aV\u0259
aVm
aVn
aV\u0268
aVn
aVt
aVa
asbtp132
(imorph
Morph
p133
(dp134
g45
(lp135
Vn
aV\u0259
aVm
asbs((imorph
Morph
(dp136
g45
(lp137
Vk
aVa
aVm
aVa
asb(imorph
Morph
(dp138
g45
(lp139
Vk
aVa
aVm
aVn
aV\u0268
aVn
aVt
aVa
asbtp140
(imorph
Morph
p141
(dp142
g45
(lp143
Vk
aVa
aVm
asbs((imorph
Morph
(dp144
g45
(lp145
Va
aVn
aVa
asb(imorph
Morph
(dp146
g45
(lp147
Va
aVn
aVn
aV\u0268
aVn
aVt
aVa
asbtp148
(imorph
Morph
p149
(dp150
g45
(lp151
Va
aVn
asbs((imorph
Morph
(dp152
g45
(lp153
Vn
aVa
aVm
aVa
asb(imorph
Morph
(dp154
g45
(lp155
Vn
aVa
aVm
aVn
aV\u0268
aVn
aVt
aVa
asbtp156
(imorph
Morph
p157
(dp158
g45
(lp159
Vn
aVa
aVm
asbs((imorph
Morph
(dp160
g45
(lp161
Vt\u031a
p162
aVa
aVt
aV\u0268
aVm
aV\u0259
asb(imorph
Morph
(dp163
g45
(lp164
Vt\u031a
p165
aVa
aVt
aV\u0268
aVm
aVn
aV\u0268
aVn
aVt
aVa
asbtp166
(imorph
Morph
p167
(dp168
g45
(lp169
Vt\u031a
p170
aVa
aVt
aV\u0268
aVm
asbs((imorph
Morph
(dp171
g45
(lp172
Vc\u030c^h
p173
aVa
aVm
aVa
asb(imorph
Morph
(dp174
g45
(lp175
Vc\u030c^h
p176
aVa
aVm
aVn
aV\u0268
aVn
aVt
aVa
asbtp177
(imorph
Morph
p178
(dp179
g45
(lp180
Vc\u030c^h
p181
aVa
aVm
asbs((imorph
Morph
(dp182
g45
(lp183
Vs
aVi
aVn
aV\u0259
asb(imorph
Morph
(dp184
g45
(lp185
Vs
aVi
aVn
aVn
aV\u0268
aVn
aVt
aVa
asbtp186
(imorph
Morph
p187
(dp188
g45
(lp189
Vs
aVi
aVn
asbssg82
(lp190
(imorph
Morph
p191
(dp192
g45
(lp193
V\u0259
asba(imorph
Morph
p194
(dp195
g45
(lp196
Vn
aV\u0268
aVn
aVt
aVa
asbasbF755.92499995231628
tp197
a(g6
(g7
g8
NtRp198
(dp199
g11
(lp200
(irule
Rule
p201
(dp202
g15
(irule
Guard
p203
(dp204
g18
I00
sg19
(lp205
(irule
FeatureMatrix
p206
(dp207
g37
(lp208
sg22
V[  ]
p209
sba(irule
FeatureMatrix
p210
(dp211
g37
(lp212
(I01
S'low'
tp213
asg22
V[ +low ]
p214
sbasg21
I00
sg22
V[ +low ] [  ]
p215
sg23
I00
sg24
S'L'
sbsg25
(irule
OffsetSpecification
p216
(dp217
g111
I-2
sbsg28
(irule
Guard
p218
(dp219
g18
I01
sg19
(lp220
sg21
I00
sg22
V#
sg23
I00
sg24
S'R'
sbsg34
(irule
FeatureMatrix
p221
(dp222
g37
(lp223
sg22
V[  ]
p224
sbsg22
V[  ] ---> -2 / [ +low ] [  ] _ #
p225
sba(irule
Rule
p226
(dp227
g15
(irule
Guard
p228
(dp229
g18
I00
sg19
(lp230
sg21
I00
sg22
V
sg23
I00
sg24
S'L'
sbsg25
(irule
ConstantPhoneme
p231
(dp232
S'p'
Vm
sbsg28
(irule
Guard
p233
(dp234
g18
I00
sg19
(lp235
(irule
ConstantPhoneme
p236
(dp237
S'p'
Vn
sbasg21
I00
sg22
Vn
sg23
I00
sg24
S'R'
sbsg34
(irule
FeatureMatrix
p238
(dp239
g37
(lp240
(I00
S'voice'
tp241
asg22
V[ -voice ]
p242
sbsg22
V[ -voice ] ---> m /  _ n
p243
sbasg41
(lp244
(imorph
Morph
p245
(dp246
g45
(lp247
sba(imorph
Morph
p248
(dp249
g45
(lp250
sbasg50
(dp251
((imorph
Morph
(dp252
g45
(lp253
Vn
aV\u0259
aVm
aV\u0259
asb(imorph
Morph
(dp254
g45
(lp255
Vn
aV\u0259
aVm
aVn
aV\u0268
aVn
aVt
aVa
asbtp256
(imorph
Morph
p257
(dp258
g45
(lp259
Vn
aV\u0259
aVm
asbs((imorph
Morph
(dp260
g45
(lp261
Vi
aVp
aV\u0259
asb(imorph
Morph
(dp262
g45
(lp263
Vi
aVm
aVn
aV\u0268
aVn
aVt
aVa
asbtp264
(imorph
Morph
p265
(dp266
g45
(lp267
Vi
aVp
asbs((imorph
Morph
(dp268
g45
(lp269
Vk
aVa
aVm
aVa
asb(imorph
Morph
(dp270
g45
(lp271
Vk
aVa
aVm
aVn
aV\u0268
aVn
aVt
aVa
asbtp272
(imorph
Morph
p273
(dp274
g45
(lp275
Vk
aVa
aVm
asbs((imorph
Morph
(dp276
g45
(lp277
Va
aVn
aVa
asb(imorph
Morph
(dp278
g45
(lp279
Va
aVn
aVn
aV\u0268
aVn
aVt
aVa
asbtp280
(imorph
Morph
p281
(dp282
g45
(lp283
Va
aVn
asbs((imorph
Morph
(dp284
g45
(lp285
Vc\u030c
p286
aV\u0259
aVp
aV\u0259
asb(imorph
Morph
(dp287
g45
(lp288
Vc\u030c
p289
aV\u0259
aVm
aVn
aV\u0268
aVn
aVt
aVa
asbtp290
(imorph
Morph
p291
(dp292
g45
(lp293
Vc\u030c
p294
aV\u0259
aVp
asbs((imorph
Morph
(dp295
g45
(lp296
Vn
aVa
aVm
aVa
asb(imorph
Morph
(dp297
g45
(lp298
Vn
aVa
aVm
aVn
aV\u0268
aVn
aVt
aVa
asbtp299
(imorph
Morph
p300
(dp301
g45
(lp302
Vn
aVa
aVm
asbs((imorph
Morph
(dp303
g45
(lp304
Vt\u031a
p305
aVa
aVt
aV\u0268
aVm
aV\u0259
asb(imorph
Morph
(dp306
g45
(lp307
Vt\u031a
p308
aVa
aVt
aV\u0268
aVm
aVn
aV\u0268
aVn
aVt
aVa
asbtp309
(imorph
Morph
p310
(dp311
g45
(lp312
Vt\u031a
p313
aVa
aVt
aV\u0268
aVm
asbs((imorph
Morph
(dp314
g45
(lp315
Vc\u030c^h
p316
aVa
aVm
aVa
asb(imorph
Morph
(dp317
g45
(lp318
Vc\u030c^h
p319
aVa
aVm
aVn
aV\u0268
aVn
aVt
aVa
asbtp320
(imorph
Morph
p321
(dp322
g45
(lp323
Vc\u030c^h
p324
aVa
aVm
asbs((imorph
Morph
(dp325
g45
(lp326
Vs
aVi
aVn
aV\u0259
asb(imorph
Morph
(dp327
g45
(lp328
Vs
aVi
aVn
aVn
aV\u0268
aVn
aVt
aVa
asbtp329
(imorph
Morph
p330
(dp331
g45
(lp332
Vs
aVi
aVn
asbs((imorph
Morph
(dp333
g45
(lp334
Vk
aVu
aVp
aV\u0259
asb(imorph
Morph
(dp335
g45
(lp336
Vk
aVu
aVm
aVn
aV\u0268
aVn
aVt
aVa
asbtp337
(imorph
Morph
p338
(dp339
g45
(lp340
Vk
aVu
aVp
asbssg82
(lp341
(imorph
Morph
p342
(dp343
g45
(lp344
V\u0259
asba(imorph
Morph
p345
(dp346
g45
(lp347
Vn
aV\u0268
aVn
aVt
aVa
asbasbF2187.7313778400421
tp348
a(g6
(g7
g8
NtRp349
(dp350
g11
(lp351
(irule
Rule
p352
(dp353
g15
(irule
Guard
p354
(dp355
g18
I00
sg19
(lp356
(irule
FeatureMatrix
p357
(dp358
g37
(lp359
sg22
V[  ]
p360
sba(irule
FeatureMatrix
p361
(dp362
g37
(lp363
(I01
S'low'
tp364
asg22
V[ +low ]
p365
sbasg21
I00
sg22
V[ +low ] [  ]
p366
sg23
I00
sg24
S'L'
sbsg25
(irule
OffsetSpecification
p367
(dp368
g111
I-2
sbsg28
(irule
Guard
p369
(dp370
g18
I01
sg19
(lp371
sg21
I00
sg22
V#
sg23
I00
sg24
S'R'
sbsg34
(irule
FeatureMatrix
p372
(dp373
g37
(lp374
sg22
V[  ]
p375
sbsg22
V[  ] ---> -2 / [ +low ] [  ] _ #
p376
sba(irule
Rule
p377
(dp378
g15
(irule
Guard
p379
(dp380
g18
I00
sg19
(lp381
sg21
I00
sg22
V
sg23
I00
sg24
S'L'
sbsg25
(irule
FeatureMatrix
p382
(dp383
g37
(lp384
(I01
S'nasal'
tp385
asg22
V[ +nasal ]
p386
sbsg28
(irule
Guard
p387
(dp388
g18
I00
sg19
(lp389
(irule
FeatureMatrix
p390
(dp391
g37
(lp392
(I01
S'coronal'
tp393
asg22
V[ +coronal ]
p394
sbasg21
I00
sg22
g394
sg23
I00
sg24
S'R'
sbsg34
(irule
FeatureMatrix
p395
(dp396
g37
(lp397
(I00
S'sonorant'
tp398
asg22
V[ -sonorant ]
p399
sbsg22
V[ -sonorant ] ---> [ +nasal ] /  _ [ +coronal ]
p400
sba(irule
Rule
p401
(dp402
g15
(irule
Guard
p403
(dp404
g18
I00
sg19
(lp405
(irule
ConstantPhoneme
p406
(dp407
S'p'
Vc\u030c^h
p408
sbasg21
I00
sg22
g408
sg23
I00
sg24
S'L'
sbsg25
(irule
ConstantPhoneme
p409
(dp410
S'p'
Va
sbsg28
(irule
Guard
p411
(dp412
g18
I00
sg19
(lp413
sg21
I00
sg22
V
sg23
I00
sg24
S'R'
sbsg34
(irule
FeatureMatrix
p414
(dp415
g37
(lp416
sg22
V[  ]
p417
sbsg22
V[  ] ---> a / c\u030c^h _ 
p418
sbasg41
(lp419
(imorph
Morph
p420
(dp421
g45
(lp422
sba(imorph
Morph
p423
(dp424
g45
(lp425
sbasg50
(dp426
((imorph
Morph
(dp427
g45
(lp428
Vn
aV\u0259
aVm
aV\u0259
asb(imorph
Morph
(dp429
g45
(lp430
Vn
aV\u0259
aVm
aVn
aV\u0268
aVn
aVt
aVa
asbtp431
(imorph
Morph
p432
(dp433
g45
(lp434
Vn
aV\u0259
aVm
asbs((imorph
Morph
(dp435
g45
(lp436
Vi
aVp
aV\u0259
asb(imorph
Morph
(dp437
g45
(lp438
Vi
aVm
aVn
aV\u0268
aVn
aVt
aVa
asbtp439
(imorph
Morph
p440
(dp441
g45
(lp442
Vi
aVp
asbs((imorph
Morph
(dp443
g45
(lp444
Vk
aVa
aVm
aVa
asb(imorph
Morph
(dp445
g45
(lp446
Vk
aVa
aVm
aVn
aV\u0268
aVn
aVt
aVa
asbtp447
(imorph
Morph
p448
(dp449
g45
(lp450
Vk
aVa
aVm
asbs((imorph
Morph
(dp451
g45
(lp452
Va
aVn
aVa
asb(imorph
Morph
(dp453
g45
(lp454
Va
aVn
aVn
aV\u0268
aVn
aVt
aVa
asbtp455
(imorph
Morph
p456
(dp457
g45
(lp458
Va
aVn
asbs((imorph
Morph
(dp459
g45
(lp460
Vt
aVa
aVt
aVa
asb(imorph
Morph
(dp461
g45
(lp462
Vt
aVa
aVn
aVn
aV\u0268
aVn
aVt
aVa
asbtp463
(imorph
Morph
p464
(dp465
g45
(lp466
Vt
aVa
aVt
asbs((imorph
Morph
(dp467
g45
(lp468
Vc\u030c
p469
aV\u0259
aVp
aV\u0259
asb(imorph
Morph
(dp470
g45
(lp471
Vc\u030c
p472
aV\u0259
aVm
aVn
aV\u0268
aVn
aVt
aVa
asbtp473
(imorph
Morph
p474
(dp475
g45
(lp476
Vc\u030c
p477
aV\u0259
aVp
asbs((imorph
Morph
(dp478
g45
(lp479
Vn
aVa
aVm
aVa
asb(imorph
Morph
(dp480
g45
(lp481
Vn
aVa
aVm
aVn
aV\u0268
aVn
aVt
aVa
asbtp482
(imorph
Morph
p483
(dp484
g45
(lp485
Vn
aVa
aVm
asbs((imorph
Morph
(dp486
g45
(lp487
Vc\u030c
p488
aVo
aVc\u030c^h
p489
aVa
asb(imorph
Morph
(dp490
g45
(lp491
Vc\u030c
p492
aVo
aVn
aVn
aV\u0268
aVn
aVt
aVa
asbtp493
(imorph
Morph
p494
(dp495
g45
(lp496
g477
aVo
ag408
asbs((imorph
Morph
(dp497
g45
(lp498
Vp
aVu
aVt^h
p499
aV\u0259
asb(imorph
Morph
(dp500
g45
(lp501
Vp
aVu
aVn
aVn
aV\u0268
aVn
aVt
aVa
asbtp502
(imorph
Morph
p503
(dp504
g45
(lp505
Vp
aVu
aVt^h
p506
asbs((imorph
Morph
(dp507
g45
(lp508
Vi
aVk
aV\u0259
asb(imorph
Morph
(dp509
g45
(lp510
Vi
aV\u014b
aVn
aV\u0268
aVn
aVt
aVa
asbtp511
(imorph
Morph
p512
(dp513
g45
(lp514
Vi
aVk
asbs((imorph
Morph
(dp515
g45
(lp516
Vc\u030c
p517
aVu
aVk
aV\u0259
asb(imorph
Morph
(dp518
g45
(lp519
Vc\u030c
p520
aVu
aV\u014b
aVn
aV\u0268
aVn
aVt
aVa
asbtp521
(imorph
Morph
p522
(dp523
g45
(lp524
Vc\u030c
p525
aVu
aVk
asbs((imorph
Morph
(dp526
g45
(lp527
Vt\u031a
p528
aVa
aVt
aV\u0268
aVm
aV\u0259
asb(imorph
Morph
(dp529
g45
(lp530
Vt\u031a
p531
aVa
aVt
aV\u0268
aVm
aVn
aV\u0268
aVn
aVt
aVa
asbtp532
(imorph
Morph
p533
(dp534
g45
(lp535
Vt\u031a
p536
aVa
aVt
aV\u0268
aVm
asbs((imorph
Morph
(dp537
g45
(lp538
Vc\u030c^h
p539
aVa
aVm
aVa
asb(imorph
Morph
(dp540
g45
(lp541
Vc\u030c^h
p542
aVa
aVm
aVn
aV\u0268
aVn
aVt
aVa
asbtp543
(imorph
Morph
p544
(dp545
g45
(lp546
g408
aVa
aVm
asbs((imorph
Morph
(dp547
g45
(lp548
Vs
aV\u0259
aVk\u031a
p549
aV\u0259
asb(imorph
Morph
(dp550
g45
(lp551
Vs
aV\u0259
aV\u014b
aVn
aV\u0268
aVn
aVt
aVa
asbtp552
(imorph
Morph
p553
(dp554
g45
(lp555
Vs
aV\u0259
aVk\u031a
p556
asbs((imorph
Morph
(dp557
g45
(lp558
Vs
aVi
aVn
aV\u0259
asb(imorph
Morph
(dp559
g45
(lp560
Vs
aVi
aVn
aVn
aV\u0268
aVn
aVt
aVa
asbtp561
(imorph
Morph
p562
(dp563
g45
(lp564
Vs
aVi
aVn
asbs((imorph
Morph
(dp565
g45
(lp566
Vk
aVu
aVp
aV\u0259
asb(imorph
Morph
(dp567
g45
(lp568
Vk
aVu
aVm
aVn
aV\u0268
aVn
aVt
aVa
asbtp569
(imorph
Morph
p570
(dp571
g45
(lp572
Vk
aVu
aVp
asbs((imorph
Morph
(dp573
g45
(lp574
Vm
aV\u0259
aVk
aV\u0259
asb(imorph
Morph
(dp575
g45
(lp576
Vm
aV\u0259
aV\u014b
aVn
aV\u0268
aVn
aVt
aVa
asbtp577
(imorph
Morph
p578
(dp579
g45
(lp580
Vm
aV\u0259
aVk
asbs((imorph
Morph
(dp581
g45
(lp582
Vt
aVa
aVk\u031a
p583
aVa
asb(imorph
Morph
(dp584
g45
(lp585
Vt
aVa
aV\u014b
aVn
aV\u0268
aVn
aVt
aVa
asbtp586
(imorph
Morph
p587
(dp588
g45
(lp589
Vt
aVa
ag556
asbssg82
(lp590
(imorph
Morph
p591
(dp592
g45
(lp593
V\u0259
asba(imorph
Morph
p594
(dp595
g45
(lp596
Vn
aV\u0268
aVn
aVt
aVa
asbasbF5217.3111908435822
tp597
asS'problem'
p598
S'Odden_81_Korean'
p599
sS'finalFrontier'
p600
g6
(csolution
Frontier
p601
g8
NtRp602
(dp603
g41
g419
sg82
g590
sg50
g426
sS'frontiers'
p604
(lp605
(lp606
(irule
Rule
p607
(dp608
g15
(irule
Guard
p609
(dp610
g18
I00
sg19
(lp611
(irule
FeatureMatrix
p612
(dp613
g37
(lp614
sg22
V[  ]
p615
sba(irule
FeatureMatrix
p616
(dp617
g37
(lp618
(I01
S'low'
tp619
asg22
V[ +low ]
p620
sbasg21
I00
sg22
V[ +low ] [  ]
p621
sg23
I00
sg24
S'L'
sbsg25
(irule
OffsetSpecification
p622
(dp623
g111
I-2
sbsg28
(irule
Guard
p624
(dp625
g18
I01
sg19
(lp626
sg21
I00
sg22
V#
sg23
I00
sg24
S'R'
sbsg34
(irule
FeatureMatrix
p627
(dp628
g37
(lp629
sg22
V[  ]
p630
sbsg22
V[  ] ---> -2 / [ +low ] [  ] _ #
p631
sba(irule
Rule
p632
(dp633
g15
(irule
Guard
p634
(dp635
g18
I00
sg19
(lp636
(irule
FeatureMatrix
p637
(dp638
g37
(lp639
sg22
V[  ]
p640
sba(irule
FeatureMatrix
p641
(dp642
g37
(lp643
(I01
S'low'
p644
tp645
asg22
V[ +low ]
p646
sbasg21
I00
sg22
V[ +low ] [  ]
p647
sg23
I00
sg24
S'L'
sbsg25
(irule
OffsetSpecification
p648
(dp649
g111
I-2
sbsg28
(irule
Guard
p650
(dp651
g18
I00
sg19
(lp652
sg21
I00
sg22
V
sg23
I00
sg24
S'R'
sbsg34
(irule
ConstantPhoneme
p653
(dp654
S'p'
V\u0259
sbsg22
V\u0259 ---> -2 / [ +low ] [  ] _ 
p655
sba(irule
Rule
p656
(dp657
g15
(irule
Guard
p658
(dp659
g18
I00
sg19
(lp660
(irule
FeatureMatrix
p661
(dp662
g37
(lp663
sg22
V[  ]
p664
sba(irule
ConstantPhoneme
p665
(dp666
S'p'
Va
sbasg21
I00
sg22
Va [  ]
p667
sg23
I00
sg24
S'L'
sbsg25
(irule
OffsetSpecification
p668
(dp669
g111
I-2
sbsg28
(irule
Guard
p670
(dp671
g18
I00
sg19
(lp672
sg21
I00
sg22
V
sg23
I00
sg24
S'R'
sbsg34
(irule
ConstantPhoneme
p673
(dp674
S'p'
V\u0259
sbsg22
V\u0259 ---> -2 / a [  ] _ 
p675
sba(irule
Rule
p676
(dp677
g15
(irule
Guard
p678
(dp679
g18
I00
sg19
(lp680
(irule
FeatureMatrix
p681
(dp682
g37
(lp683
sg22
V[  ]
p684
sba(irule
ConstantPhoneme
p685
(dp686
S'p'
Va
sbasg21
I00
sg22
Va [  ]
p687
sg23
I00
sg24
S'L'
sbsg25
(irule
OffsetSpecification
p688
(dp689
g111
I-2
sbsg28
(irule
Guard
p690
(dp691
g18
I01
sg19
(lp692
sg21
I00
sg22
V#
sg23
I00
sg24
S'R'
sbsg34
(irule
FeatureMatrix
p693
(dp694
g37
(lp695
sg22
V[  ]
p696
sbsg22
V[  ] ---> -2 / a [  ] _ #
p697
sba(irule
Rule
p698
(dp699
g15
(irule
Guard
p700
(dp701
g18
I00
sg19
(lp702
(irule
FeatureMatrix
p703
(dp704
g37
(lp705
sg22
V[  ]
p706
sba(irule
ConstantPhoneme
p707
(dp708
S'p'
Va
sbasg21
I00
sg22
Va [  ]
p709
sg23
I00
sg24
S'L'
sbsg25
(irule
ConstantPhoneme
p710
(dp711
S'p'
Va
sbsg28
(irule
Guard
p712
(dp713
g18
I00
sg19
(lp714
sg21
I00
sg22
V
sg23
I00
sg24
S'R'
sbsg34
(irule
ConstantPhoneme
p715
(dp716
S'p'
V\u0259
sbsg22
V\u0259 ---> a / a [  ] _ 
p717
sba(irule
Rule
p718
(dp719
g15
(irule
Guard
p720
(dp721
g18
I00
sg19
(lp722
(irule
FeatureMatrix
p723
(dp724
g37
(lp725
(I00
S'continuant'
p726
tp727
asg22
V[ -continuant ]
p728
sba(irule
ConstantPhoneme
p729
(dp730
S'p'
Va
sbasg21
I00
sg22
Va [ -continuant ]
p731
sg23
I00
sg24
S'L'
sbsg25
(irule
OffsetSpecification
p732
(dp733
g111
I-2
sbsg28
(irule
Guard
p734
(dp735
g18
I00
sg19
(lp736
sg21
I00
sg22
V
sg23
I00
sg24
S'R'
sbsg34
(irule
ConstantPhoneme
p737
(dp738
S'p'
V\u0259
sbsg22
V\u0259 ---> -2 / a [ -continuant ] _ 
p739
sba(irule
Rule
p740
(dp741
g15
(irule
Guard
p742
(dp743
g18
I00
sg19
(lp744
(irule
FeatureMatrix
p745
(dp746
g37
(lp747
sg22
V[  ]
p748
sba(irule
FeatureMatrix
p749
(dp750
g37
(lp751
(I01
g644
tp752
asg22
V[ +low ]
p753
sbasg21
I00
sg22
V[ +low ] [  ]
p754
sg23
I00
sg24
S'L'
sbsg25
(irule
OffsetSpecification
p755
(dp756
g111
I-2
sbsg28
(irule
Guard
p757
(dp758
g18
I00
sg19
(lp759
sg21
I00
sg22
V
sg23
I00
sg24
S'R'
sbsg34
(irule
FeatureMatrix
p760
(dp761
g37
(lp762
(I00
S'tense'
p763
tp764
a(I01
S'vowel'
p765
tp766
asg22
V[ +vowel -tense ]
p767
sbsg22
V[ +vowel -tense ] ---> -2 / [ +low ] [  ] _ 
p768
sba(irule
Rule
p769
(dp770
g15
(irule
Guard
p771
(dp772
g18
I00
sg19
(lp773
(irule
FeatureMatrix
p774
(dp775
g37
(lp776
sg22
V[  ]
p777
sba(irule
FeatureMatrix
p778
(dp779
g37
(lp780
(I01
g644
tp781
asg22
V[ +low ]
p782
sbasg21
I00
sg22
V[ +low ] [  ]
p783
sg23
I00
sg24
S'L'
sbsg25
(irule
ConstantPhoneme
p784
(dp785
S'p'
Va
sbsg28
(irule
Guard
p786
(dp787
g18
I00
sg19
(lp788
sg21
I00
sg22
V
sg23
I00
sg24
S'R'
sbsg34
(irule
ConstantPhoneme
p789
(dp790
S'p'
V\u0259
sbsg22
V\u0259 ---> a / [ +low ] [  ] _ 
p791
sba(irule
Rule
p792
(dp793
g15
(irule
Guard
p794
(dp795
g18
I00
sg19
(lp796
(irule
FeatureMatrix
p797
(dp798
g37
(lp799
sg22
V[  ]
p800
sba(irule
ConstantPhoneme
p801
(dp802
S'p'
Va
sbasg21
I00
sg22
Va [  ]
p803
sg23
I00
sg24
S'L'
sbsg25
(irule
ConstantPhoneme
p804
(dp805
S'p'
Va
sbsg28
(irule
Guard
p806
(dp807
g18
I01
sg19
(lp808
sg21
I00
sg22
V#
sg23
I00
sg24
S'R'
sbsg34
(irule
FeatureMatrix
p809
(dp810
g37
(lp811
sg22
V[  ]
p812
sbsg22
V[  ] ---> a / a [  ] _ #
p813
sba(irule
Rule
p814
(dp815
g15
(irule
Guard
p816
(dp817
g18
I00
sg19
(lp818
(irule
FeatureMatrix
p819
(dp820
g37
(lp821
sg22
V[  ]
p822
sba(irule
FeatureMatrix
p823
(dp824
g37
(lp825
(I01
g726
tp826
a(I01
g644
tp827
asg22
V[ +continuant +low ]
p828
sbasg21
I00
sg22
V[ +continuant +low ] [  ]
p829
sg23
I00
sg24
S'L'
sbsg25
(irule
OffsetSpecification
p830
(dp831
g111
I-2
sbsg28
(irule
Guard
p832
(dp833
g18
I00
sg19
(lp834
sg21
I00
sg22
V
sg23
I00
sg24
S'R'
sbsg34
(irule
ConstantPhoneme
p835
(dp836
S'p'
V\u0259
sbsg22
V\u0259 ---> -2 / [ +continuant +low ] [  ] _ 
p837
sba(irule
Rule
p838
(dp839
g15
(irule
Guard
p840
(dp841
g18
I00
sg19
(lp842
(irule
FeatureMatrix
p843
(dp844
g37
(lp845
sg22
V[  ]
p846
sba(irule
FeatureMatrix
p847
(dp848
g37
(lp849
(I00
S'rounded'
p850
tp851
a(I00
S'high'
p852
tp853
asg22
V[ -high -rounded ]
p854
sbasg21
I00
sg22
V[ -high -rounded ] [  ]
p855
sg23
I00
sg24
S'L'
sbsg25
(irule
OffsetSpecification
p856
(dp857
g111
I-2
sbsg28
(irule
Guard
p858
(dp859
g18
I00
sg19
(lp860
sg21
I00
sg22
V
sg23
I00
sg24
S'R'
sbsg34
(irule
ConstantPhoneme
p861
(dp862
S'p'
V\u0259
sbsg22
V\u0259 ---> -2 / [ -high -rounded ] [  ] _ 
p863
sba(irule
Rule
p864
(dp865
g15
(irule
Guard
p866
(dp867
g18
I00
sg19
(lp868
(irule
FeatureMatrix
p869
(dp870
g37
(lp871
sg22
V[  ]
p872
sba(irule
ConstantPhoneme
p873
(dp874
S'p'
Va
sbasg21
I00
sg22
Va [  ]
p875
sg23
I00
sg24
S'L'
sbsg25
(irule
OffsetSpecification
p876
(dp877
g111
I-2
sbsg28
(irule
Guard
p878
(dp879
g18
I01
sg19
(lp880
sg21
I00
sg22
V#
sg23
I00
sg24
S'R'
sbsg34
(irule
ConstantPhoneme
p881
(dp882
S'p'
V\u0259
sbsg22
V\u0259 ---> -2 / a [  ] _ #
p883
sba(irule
Rule
p884
(dp885
g15
(irule
Guard
p886
(dp887
g18
I00
sg19
(lp888
(irule
FeatureMatrix
p889
(dp890
g37
(lp891
sg22
V[  ]
p892
sba(irule
ConstantPhoneme
p893
(dp894
S'p'
Va
sbasg21
I00
sg22
Va [  ]
p895
sg23
I00
sg24
S'L'
sbsg25
(irule
OffsetSpecification
p896
(dp897
g111
I-2
sbsg28
(irule
Guard
p898
(dp899
g18
I00
sg19
(lp900
sg21
I00
sg22
V
sg23
I00
sg24
S'R'
sbsg34
(irule
FeatureMatrix
p901
(dp902
g37
(lp903
(I00
g763
tp904
a(I01
g765
tp905
asg22
V[ +vowel -tense ]
p906
sbsg22
V[ +vowel -tense ] ---> -2 / a [  ] _ 
p907
sba(irule
Rule
p908
(dp909
g15
(irule
Guard
p910
(dp911
g18
I00
sg19
(lp912
(irule
FeatureMatrix
p913
(dp914
g37
(lp915
(I00
S'aspirated'
p916
tp917
asg22
V[ -aspirated ]
p918
sba(irule
FeatureMatrix
p919
(dp920
g37
(lp921
(I00
g852
tp922
asg22
V[ -high ]
p923
sbasg21
I00
sg22
V[ -high ] [ -aspirated ]
p924
sg23
I00
sg24
S'L'
sbsg25
(irule
OffsetSpecification
p925
(dp926
g111
I-2
sbsg28
(irule
Guard
p927
(dp928
g18
I00
sg19
(lp929
sg21
I00
sg22
V
sg23
I00
sg24
S'R'
sbsg34
(irule
ConstantPhoneme
p930
(dp931
S'p'
V\u0259
sbsg22
V\u0259 ---> -2 / [ -high ] [ -aspirated ] _ 
p932
sba(irule
Rule
p933
(dp934
g15
(irule
Guard
p935
(dp936
g18
I00
sg19
(lp937
(irule
FeatureMatrix
p938
(dp939
g37
(lp940
sg22
V[  ]
p941
sba(irule
FeatureMatrix
p942
(dp943
g37
(lp944
(I01
g644
tp945
asg22
V[ +low ]
p946
sbasg21
I00
sg22
V[ +low ] [  ]
p947
sg23
I00
sg24
S'L'
sbsg25
(irule
ConstantPhoneme
p948
(dp949
S'p'
Va
sbsg28
(irule
Guard
p950
(dp951
g18
I01
sg19
(lp952
sg21
I00
sg22
V#
sg23
I00
sg24
S'R'
sbsg34
(irule
FeatureMatrix
p953
(dp954
g37
(lp955
sg22
V[  ]
p956
sbsg22
V[  ] ---> a / [ +low ] [  ] _ #
p957
sba(irule
Rule
p958
(dp959
g15
(irule
Guard
p960
(dp961
g18
I00
sg19
(lp962
(irule
FeatureMatrix
p963
(dp964
g37
(lp965
sg22
V[  ]
p966
sba(irule
FeatureMatrix
p967
(dp968
g37
(lp969
(I00
S'anterior'
p970
tp971
a(I01
g644
tp972
asg22
V[ +low -anterior ]
p973
sbasg21
I00
sg22
V[ +low -anterior ] [  ]
p974
sg23
I00
sg24
S'L'
sbsg25
(irule
OffsetSpecification
p975
(dp976
g111
I-2
sbsg28
(irule
Guard
p977
(dp978
g18
I00
sg19
(lp979
sg21
I00
sg22
V
sg23
I00
sg24
S'R'
sbsg34
(irule
ConstantPhoneme
p980
(dp981
S'p'
V\u0259
sbsg22
V\u0259 ---> -2 / [ +low -anterior ] [  ] _ 
p982
sba(irule
Rule
p983
(dp984
g15
(irule
Guard
p985
(dp986
g18
I00
sg19
(lp987
(irule
FeatureMatrix
p988
(dp989
g37
(lp990
sg22
V[  ]
p991
sba(irule
ConstantPhoneme
p992
(dp993
S'p'
Va
sbasg21
I00
sg22
Va [  ]
p994
sg23
I00
sg24
S'L'
sbsg25
(irule
OffsetSpecification
p995
(dp996
g111
I-2
sbsg28
(irule
Guard
p997
(dp998
g18
I00
sg19
(lp999
sg21
I00
sg22
V
sg23
I00
sg24
S'R'
sbsg34
(irule
FeatureMatrix
p1000
(dp1001
g37
(lp1002
(I00
S'coronal'
p1003
tp1004
a(I00
g763
tp1005
asg22
V[ -coronal -tense ]
p1006
sbsg22
V[ -coronal -tense ] ---> -2 / a [  ] _ 
p1007
sba(irule
Rule
p1008
(dp1009
g15
(irule
Guard
p1010
(dp1011
g18
I00
sg19
(lp1012
(irule
FeatureMatrix
p1013
(dp1014
g37
(lp1015
(I00
g644
tp1016
asg22
V[ -low ]
p1017
sba(irule
ConstantPhoneme
p1018
(dp1019
S'p'
Va
sbasg21
I00
sg22
Va [ -low ]
p1020
sg23
I00
sg24
S'L'
sbsg25
(irule
OffsetSpecification
p1021
(dp1022
g111
I-2
sbsg28
(irule
Guard
p1023
(dp1024
g18
I00
sg19
(lp1025
sg21
I00
sg22
V
sg23
I00
sg24
S'R'
sbsg34
(irule
ConstantPhoneme
p1026
(dp1027
S'p'
V\u0259
sbsg22
V\u0259 ---> -2 / a [ -low ] _ 
p1028
sba(irule
Rule
p1029
(dp1030
g15
(irule
Guard
p1031
(dp1032
g18
I00
sg19
(lp1033
(irule
FeatureMatrix
p1034
(dp1035
g37
(lp1036
(I00
g850
tp1037
asg22
V[ -rounded ]
p1038
sba(irule
ConstantPhoneme
p1039
(dp1040
S'p'
Va
sbasg21
I00
sg22
Va [ -rounded ]
p1041
sg23
I00
sg24
S'L'
sbsg25
(irule
OffsetSpecification
p1042
(dp1043
g111
I-2
sbsg28
(irule
Guard
p1044
(dp1045
g18
I00
sg19
(lp1046
sg21
I00
sg22
V
sg23
I00
sg24
S'R'
sbsg34
(irule
ConstantPhoneme
p1047
(dp1048
S'p'
V\u0259
sbsg22
V\u0259 ---> -2 / a [ -rounded ] _ 
p1049
sba(irule
Rule
p1050
(dp1051
g15
(irule
Guard
p1052
(dp1053
g18
I00
sg19
(lp1054
(irule
FeatureMatrix
p1055
(dp1056
g37
(lp1057
(I00
S'sibilant'
p1058
tp1059
asg22
V[ -sibilant ]
p1060
sba(irule
FeatureMatrix
p1061
(dp1062
g37
(lp1063
(I00
g852
tp1064
asg22
V[ -high ]
p1065
sbasg21
I00
sg22
V[ -high ] [ -sibilant ]
p1066
sg23
I00
sg24
S'L'
sbsg25
(irule
OffsetSpecification
p1067
(dp1068
g111
I-2
sbsg28
(irule
Guard
p1069
(dp1070
g18
I00
sg19
(lp1071
sg21
I00
sg22
V
sg23
I00
sg24
S'R'
sbsg34
(irule
ConstantPhoneme
p1072
(dp1073
S'p'
V\u0259
sbsg22
V\u0259 ---> -2 / [ -high ] [ -sibilant ] _ 
p1074
sba(irule
Rule
p1075
(dp1076
g15
(irule
Guard
p1077
(dp1078
g18
I00
sg19
(lp1079
(irule
FeatureMatrix
p1080
(dp1081
g37
(lp1082
(I00
g1058
tp1083
asg22
V[ -sibilant ]
p1084
sba(irule
ConstantPhoneme
p1085
(dp1086
S'p'
Va
sbasg21
I00
sg22
Va [ -sibilant ]
p1087
sg23
I00
sg24
S'L'
sbsg25
(irule
OffsetSpecification
p1088
(dp1089
g111
I-2
sbsg28
(irule
Guard
p1090
(dp1091
g18
I01
sg19
(lp1092
sg21
I00
sg22
V#
sg23
I00
sg24
S'R'
sbsg34
(irule
FeatureMatrix
p1093
(dp1094
g37
(lp1095
sg22
V[  ]
p1096
sbsg22
V[  ] ---> -2 / a [ -sibilant ] _ #
p1097
sba(irule
Rule
p1098
(dp1099
g15
(irule
Guard
p1100
(dp1101
g18
I00
sg19
(lp1102
(irule
FeatureMatrix
p1103
(dp1104
g37
(lp1105
(I00
g1058
tp1106
asg22
V[ -sibilant ]
p1107
sba(irule
ConstantPhoneme
p1108
(dp1109
S'p'
Va
sbasg21
I00
sg22
Va [ -sibilant ]
p1110
sg23
I00
sg24
S'L'
sbsg25
(irule
OffsetSpecification
p1111
(dp1112
g111
I-2
sbsg28
(irule
Guard
p1113
(dp1114
g18
I00
sg19
(lp1115
sg21
I00
sg22
V
sg23
I00
sg24
S'R'
sbsg34
(irule
ConstantPhoneme
p1116
(dp1117
S'p'
V\u0259
sbsg22
V\u0259 ---> -2 / a [ -sibilant ] _ 
p1118
sba(irule
Rule
p1119
(dp1120
g15
(irule
Guard
p1121
(dp1122
g18
I00
sg19
(lp1123
(irule
FeatureMatrix
p1124
(dp1125
g37
(lp1126
sg22
V[  ]
p1127
sba(irule
ConstantPhoneme
p1128
(dp1129
S'p'
Va
sbasg21
I00
sg22
Va [  ]
p1130
sg23
I00
sg24
S'L'
sbsg25
(irule
OffsetSpecification
p1131
(dp1132
g111
I-2
sbsg28
(irule
Guard
p1133
(dp1134
g18
I00
sg19
(lp1135
sg21
I00
sg22
V
sg23
I00
sg24
S'R'
sbsg34
(irule
FeatureMatrix
p1136
(dp1137
g37
(lp1138
(I00
g852
tp1139
a(I01
g765
tp1140
asg22
V[ +vowel -high ]
p1141
sbsg22
V[ +vowel -high ] ---> -2 / a [  ] _ 
p1142
sba(irule
Rule
p1143
(dp1144
g15
(irule
Guard
p1145
(dp1146
g18
I00
sg19
(lp1147
(irule
FeatureMatrix
p1148
(dp1149
g37
(lp1150
sg22
V[  ]
p1151
sba(irule
ConstantPhoneme
p1152
(dp1153
S'p'
Va
sbasg21
I00
sg22
Va [  ]
p1154
sg23
I00
sg24
S'L'
sbsg25
(irule
OffsetSpecification
p1155
(dp1156
g111
I-2
sbsg28
(irule
Guard
p1157
(dp1158
g18
I00
sg19
(lp1159
sg21
I00
sg22
V
sg23
I00
sg24
S'R'
sbsg34
(irule
FeatureMatrix
p1160
(dp1161
g37
(lp1162
(I00
g970
tp1163
a(I00
g852
tp1164
asg22
V[ -anterior -high ]
p1165
sbsg22
V[ -anterior -high ] ---> -2 / a [  ] _ 
p1166
sba(irule
Rule
p1167
(dp1168
g15
(irule
Guard
p1169
(dp1170
g18
I00
sg19
(lp1171
(irule
FeatureMatrix
p1172
(dp1173
g37
(lp1174
sg22
V[  ]
p1175
sba(irule
FeatureMatrix
p1176
(dp1177
g37
(lp1178
(I00
g852
tp1179
a(I01
g644
tp1180
asg22
V[ +low -high ]
p1181
sbasg21
I00
sg22
V[ +low -high ] [  ]
p1182
sg23
I00
sg24
S'L'
sbsg25
(irule
OffsetSpecification
p1183
(dp1184
g111
I-2
sbsg28
(irule
Guard
p1185
(dp1186
g18
I00
sg19
(lp1187
sg21
I00
sg22
V
sg23
I00
sg24
S'R'
sbsg34
(irule
ConstantPhoneme
p1188
(dp1189
S'p'
V\u0259
sbsg22
V\u0259 ---> -2 / [ +low -high ] [  ] _ 
p1190
sba(irule
Rule
p1191
(dp1192
g15
(irule
Guard
p1193
(dp1194
g18
I00
sg19
(lp1195
(irule
FeatureMatrix
p1196
(dp1197
g37
(lp1198
(I00
g726
tp1199
asg22
V[ -continuant ]
p1200
sba(irule
ConstantPhoneme
p1201
(dp1202
S'p'
Va
sbasg21
I00
sg22
Va [ -continuant ]
p1203
sg23
I00
sg24
S'L'
sbsg25
(irule
OffsetSpecification
p1204
(dp1205
g111
I-2
sbsg28
(irule
Guard
p1206
(dp1207
g18
I01
sg19
(lp1208
sg21
I00
sg22
V#
sg23
I00
sg24
S'R'
sbsg34
(irule
FeatureMatrix
p1209
(dp1210
g37
(lp1211
sg22
V[  ]
p1212
sbsg22
V[  ] ---> -2 / a [ -continuant ] _ #
p1213
sba(irule
Rule
p1214
(dp1215
g15
(irule
Guard
p1216
(dp1217
g18
I00
sg19
(lp1218
(irule
FeatureMatrix
p1219
(dp1220
g37
(lp1221
sg22
V[  ]
p1222
sba(irule
FeatureMatrix
p1223
(dp1224
g37
(lp1225
(I00
g970
tp1226
a(I01
g644
tp1227
asg22
V[ +low -anterior ]
p1228
sbasg21
I00
sg22
V[ +low -anterior ] [  ]
p1229
sg23
I00
sg24
S'L'
sbsg25
(irule
OffsetSpecification
p1230
(dp1231
g111
I-2
sbsg28
(irule
Guard
p1232
(dp1233
g18
I01
sg19
(lp1234
sg21
I00
sg22
V#
sg23
I00
sg24
S'R'
sbsg34
(irule
FeatureMatrix
p1235
(dp1236
g37
(lp1237
sg22
V[  ]
p1238
sbsg22
V[  ] ---> -2 / [ +low -anterior ] [  ] _ #
p1239
sba(irule
Rule
p1240
(dp1241
g15
(irule
Guard
p1242
(dp1243
g18
I00
sg19
(lp1244
(irule
FeatureMatrix
p1245
(dp1246
g37
(lp1247
sg22
V[  ]
p1248
sba(irule
ConstantPhoneme
p1249
(dp1250
S'p'
Va
sbasg21
I00
sg22
Va [  ]
p1251
sg23
I00
sg24
S'L'
sbsg25
(irule
OffsetSpecification
p1252
(dp1253
g111
I-2
sbsg28
(irule
Guard
p1254
(dp1255
g18
I01
sg19
(lp1256
sg21
I00
sg22
V#
sg23
I00
sg24
S'R'
sbsg34
(irule
FeatureMatrix
p1257
(dp1258
g37
(lp1259
(I00
S'unreleased'
p1260
tp1261
asg22
V[ -unreleased ]
p1262
sbsg22
V[ -unreleased ] ---> -2 / a [  ] _ #
p1263
sba(irule
Rule
p1264
(dp1265
g15
(irule
Guard
p1266
(dp1267
g18
I00
sg19
(lp1268
(irule
FeatureMatrix
p1269
(dp1270
g37
(lp1271
(I00
g765
tp1272
asg22
V[ -vowel ]
p1273
sba(irule
ConstantPhoneme
p1274
(dp1275
S'p'
Va
sbasg21
I00
sg22
Va [ -vowel ]
p1276
sg23
I00
sg24
S'L'
sbsg25
(irule
OffsetSpecification
p1277
(dp1278
g111
I-2
sbsg28
(irule
Guard
p1279
(dp1280
g18
I00
sg19
(lp1281
sg21
I00
sg22
V
sg23
I00
sg24
S'R'
sbsg34
(irule
ConstantPhoneme
p1282
(dp1283
S'p'
V\u0259
sbsg22
V\u0259 ---> -2 / a [ -vowel ] _ 
p1284
sba(irule
Rule
p1285
(dp1286
g15
(irule
Guard
p1287
(dp1288
g18
I00
sg19
(lp1289
(irule
FeatureMatrix
p1290
(dp1291
g37
(lp1292
sg22
V[  ]
p1293
sba(irule
ConstantPhoneme
p1294
(dp1295
S'p'
Va
sbasg21
I00
sg22
Va [  ]
p1296
sg23
I00
sg24
S'L'
sbsg25
(irule
OffsetSpecification
p1297
(dp1298
g111
I-2
sbsg28
(irule
Guard
p1299
(dp1300
g18
I00
sg19
(lp1301
sg21
I00
sg22
V
sg23
I00
sg24
S'R'
sbsg34
(irule
FeatureMatrix
p1302
(dp1303
g37
(lp1304
(I00
S'nasal'
p1305
tp1306
a(I00
g852
tp1307
asg22
V[ -high -nasal ]
p1308
sbsg22
V[ -high -nasal ] ---> -2 / a [  ] _ 
p1309
sba(irule
Rule
p1310
(dp1311
g15
(irule
Guard
p1312
(dp1313
g18
I00
sg19
(lp1314
(irule
FeatureMatrix
p1315
(dp1316
g37
(lp1317
sg22
V[  ]
p1318
sba(irule
FeatureMatrix
p1319
(dp1320
g37
(lp1321
(I00
g852
tp1322
a(I01
g644
tp1323
asg22
V[ +low -high ]
p1324
sbasg21
I00
sg22
V[ +low -high ] [  ]
p1325
sg23
I00
sg24
S'L'
sbsg25
(irule
OffsetSpecification
p1326
(dp1327
g111
I-2
sbsg28
(irule
Guard
p1328
(dp1329
g18
I01
sg19
(lp1330
sg21
I00
sg22
V#
sg23
I00
sg24
S'R'
sbsg34
(irule
FeatureMatrix
p1331
(dp1332
g37
(lp1333
sg22
V[  ]
p1334
sbsg22
V[  ] ---> -2 / [ +low -high ] [  ] _ #
p1335
sba(irule
Rule
p1336
(dp1337
g15
(irule
Guard
p1338
(dp1339
g18
I00
sg19
(lp1340
(irule
FeatureMatrix
p1341
(dp1342
g37
(lp1343
sg22
V[  ]
p1344
sba(irule
ConstantPhoneme
p1345
(dp1346
S'p'
Va
sbasg21
I00
sg22
Va [  ]
p1347
sg23
I00
sg24
S'L'
sbsg25
(irule
OffsetSpecification
p1348
(dp1349
g111
I-2
sbsg28
(irule
Guard
p1350
(dp1351
g18
I00
sg19
(lp1352
sg21
I00
sg22
V
sg23
I00
sg24
S'R'
sbsg34
(irule
FeatureMatrix
p1353
(dp1354
g37
(lp1355
(I00
g852
tp1356
a(I00
g1003
tp1357
asg22
V[ -coronal -high ]
p1358
sbsg22
V[ -coronal -high ] ---> -2 / a [  ] _ 
p1359
sba(irule
Rule
p1360
(dp1361
g15
(irule
Guard
p1362
(dp1363
g18
I00
sg19
(lp1364
(irule
FeatureMatrix
p1365
(dp1366
g37
(lp1367
sg22
V[  ]
p1368
sba(irule
FeatureMatrix
p1369
(dp1370
g37
(lp1371
(I01
g644
tp1372
asg22
V[ +low ]
p1373
sbasg21
I00
sg22
V[ +low ] [  ]
p1374
sg23
I00
sg24
S'L'
sbsg25
(irule
OffsetSpecification
p1375
(dp1376
g111
I-2
sbsg28
(irule
Guard
p1377
(dp1378
g18
I01
sg19
(lp1379
sg21
I00
sg22
V#
sg23
I00
sg24
S'R'
sbsg34
(irule
FeatureMatrix
p1380
(dp1381
g37
(lp1382
(I00
g1260
tp1383
asg22
V[ -unreleased ]
p1384
sbsg22
V[ -unreleased ] ---> -2 / [ +low ] [  ] _ #
p1385
sba(irule
Rule
p1386
(dp1387
g15
(irule
Guard
p1388
(dp1389
g18
I00
sg19
(lp1390
(irule
FeatureMatrix
p1391
(dp1392
g37
(lp1393
sg22
V[  ]
p1394
sba(irule
FeatureMatrix
p1395
(dp1396
g37
(lp1397
(I00
g1305
tp1398
a(I01
g644
tp1399
asg22
V[ +low -nasal ]
p1400
sbasg21
I00
sg22
V[ +low -nasal ] [  ]
p1401
sg23
I00
sg24
S'L'
sbsg25
(irule
OffsetSpecification
p1402
(dp1403
g111
I-2
sbsg28
(irule
Guard
p1404
(dp1405
g18
I00
sg19
(lp1406
sg21
I00
sg22
V
sg23
I00
sg24
S'R'
sbsg34
(irule
ConstantPhoneme
p1407
(dp1408
S'p'
V\u0259
sbsg22
V\u0259 ---> -2 / [ +low -nasal ] [  ] _ 
p1409
sba(irule
Rule
p1410
(dp1411
g15
(irule
Guard
p1412
(dp1413
g18
I00
sg19
(lp1414
(irule
FeatureMatrix
p1415
(dp1416
g37
(lp1417
sg22
V[  ]
p1418
sba(irule
FeatureMatrix
p1419
(dp1420
g37
(lp1421
(I00
g850
tp1422
a(I01
g644
tp1423
asg22
V[ +low -rounded ]
p1424
sbasg21
I00
sg22
V[ +low -rounded ] [  ]
p1425
sg23
I00
sg24
S'L'
sbsg25
(irule
OffsetSpecification
p1426
(dp1427
g111
I-2
sbsg28
(irule
Guard
p1428
(dp1429
g18
I01
sg19
(lp1430
sg21
I00
sg22
V#
sg23
I00
sg24
S'R'
sbsg34
(irule
FeatureMatrix
p1431
(dp1432
g37
(lp1433
sg22
V[  ]
p1434
sbsg22
V[  ] ---> -2 / [ +low -rounded ] [  ] _ #
p1435
sba(irule
Rule
p1436
(dp1437
g15
(irule
Guard
p1438
(dp1439
g18
I00
sg19
(lp1440
(irule
FeatureMatrix
p1441
(dp1442
g37
(lp1443
(I00
g916
tp1444
asg22
V[ -aspirated ]
p1445
sba(irule
ConstantPhoneme
p1446
(dp1447
S'p'
Va
sbasg21
I00
sg22
Va [ -aspirated ]
p1448
sg23
I00
sg24
S'L'
sbsg25
(irule
OffsetSpecification
p1449
(dp1450
g111
I-2
sbsg28
(irule
Guard
p1451
(dp1452
g18
I00
sg19
(lp1453
sg21
I00
sg22
V
sg23
I00
sg24
S'R'
sbsg34
(irule
ConstantPhoneme
p1454
(dp1455
S'p'
V\u0259
sbsg22
V\u0259 ---> -2 / a [ -aspirated ] _ 
p1456
sba(irule
Rule
p1457
(dp1458
g15
(irule
Guard
p1459
(dp1460
g18
I00
sg19
(lp1461
(irule
FeatureMatrix
p1462
(dp1463
g37
(lp1464
sg22
V[  ]
p1465
sba(irule
ConstantPhoneme
p1466
(dp1467
S'p'
Va
sbasg21
I00
sg22
Va [  ]
p1468
sg23
I00
sg24
S'L'
sbsg25
(irule
OffsetSpecification
p1469
(dp1470
g111
I-2
sbsg28
(irule
Guard
p1471
(dp1472
g18
I01
sg19
(lp1473
sg21
I00
sg22
V#
sg23
I00
sg24
S'R'
sbsg34
(irule
FeatureMatrix
p1474
(dp1475
g37
(lp1476
(I01
S'voice'
p1477
tp1478
asg22
V[ +voice ]
p1479
sbsg22
V[ +voice ] ---> -2 / a [  ] _ #
p1480
sba(irule
Rule
p1481
(dp1482
g15
(irule
Guard
p1483
(dp1484
g18
I00
sg19
(lp1485
(irule
FeatureMatrix
p1486
(dp1487
g37
(lp1488
(I00
g644
tp1489
asg22
V[ -low ]
p1490
sba(irule
ConstantPhoneme
p1491
(dp1492
S'p'
Va
sbasg21
I00
sg22
Va [ -low ]
p1493
sg23
I00
sg24
S'L'
sbsg25
(irule
OffsetSpecification
p1494
(dp1495
g111
I-2
sbsg28
(irule
Guard
p1496
(dp1497
g18
I01
sg19
(lp1498
sg21
I00
sg22
V#
sg23
I00
sg24
S'R'
sbsg34
(irule
FeatureMatrix
p1499
(dp1500
g37
(lp1501
sg22
V[  ]
p1502
sbsg22
V[  ] ---> -2 / a [ -low ] _ #
p1503
sba(irule
Rule
p1504
(dp1505
g15
(irule
Guard
p1506
(dp1507
g18
I00
sg19
(lp1508
(irule
FeatureMatrix
p1509
(dp1510
g37
(lp1511
(I00
g1058
tp1512
asg22
V[ -sibilant ]
p1513
sba(irule
FeatureMatrix
p1514
(dp1515
g37
(lp1516
(I01
g644
tp1517
asg22
V[ +low ]
p1518
sbasg21
I00
sg22
V[ +low ] [ -sibilant ]
p1519
sg23
I00
sg24
S'L'
sbsg25
(irule
OffsetSpecification
p1520
(dp1521
g111
I-2
sbsg28
(irule
Guard
p1522
(dp1523
g18
I00
sg19
(lp1524
sg21
I00
sg22
V
sg23
I00
sg24
S'R'
sbsg34
(irule
ConstantPhoneme
p1525
(dp1526
S'p'
V\u0259
sbsg22
V\u0259 ---> -2 / [ +low ] [ -sibilant ] _ 
p1527
sba(irule
Rule
p1528
(dp1529
g15
(irule
Guard
p1530
(dp1531
g18
I00
sg19
(lp1532
(irule
FeatureMatrix
p1533
(dp1534
g37
(lp1535
sg22
V[  ]
p1536
sba(irule
ConstantPhoneme
p1537
(dp1538
S'p'
Va
sbasg21
I00
sg22
Va [  ]
p1539
sg23
I00
sg24
S'L'
sbsg25
(irule
OffsetSpecification
p1540
(dp1541
g111
I-2
sbsg28
(irule
Guard
p1542
(dp1543
g18
I00
sg19
(lp1544
sg21
I00
sg22
V
sg23
I00
sg24
S'R'
sbsg34
(irule
FeatureMatrix
p1545
(dp1546
g37
(lp1547
(I00
g970
tp1548
a(I00
g763
tp1549
asg22
V[ -anterior -tense ]
p1550
sbsg22
V[ -anterior -tense ] ---> -2 / a [  ] _ 
p1551
sba(irule
Rule
p1552
(dp1553
g15
(irule
Guard
p1554
(dp1555
g18
I00
sg19
(lp1556
(irule
FeatureMatrix
p1557
(dp1558
g37
(lp1559
sg22
V[  ]
p1560
sba(irule
FeatureMatrix
p1561
(dp1562
g37
(lp1563
(I01
g644
tp1564
asg22
V[ +low ]
p1565
sbasg21
I00
sg22
V[ +low ] [  ]
p1566
sg23
I00
sg24
S'L'
sbsg25
(irule
OffsetSpecification
p1567
(dp1568
g111
I-2
sbsg28
(irule
Guard
p1569
(dp1570
g18
I01
sg19
(lp1571
sg21
I00
sg22
V#
sg23
I00
sg24
S'R'
sbsg34
(irule
ConstantPhoneme
p1572
(dp1573
S'p'
V\u0259
sbsg22
V\u0259 ---> -2 / [ +low ] [  ] _ #
p1574
sba(irule
Rule
p1575
(dp1576
g15
(irule
Guard
p1577
(dp1578
g18
I00
sg19
(lp1579
(irule
FeatureMatrix
p1580
(dp1581
g37
(lp1582
sg22
V[  ]
p1583
sba(irule
ConstantPhoneme
p1584
(dp1585
S'p'
Va
sbasg21
I00
sg22
Va [  ]
p1586
sg23
I00
sg24
S'L'
sbsg25
(irule
OffsetSpecification
p1587
(dp1588
g111
I-2
sbsg28
(irule
Guard
p1589
(dp1590
g18
I00
sg19
(lp1591
sg21
I00
sg22
V
sg23
I00
sg24
S'R'
sbsg34
(irule
FeatureMatrix
p1592
(dp1593
g37
(lp1594
(I01
S'back'
p1595
tp1596
a(I00
g763
tp1597
asg22
V[ +back -tense ]
p1598
sbsg22
V[ +back -tense ] ---> -2 / a [  ] _ 
p1599
sba(irule
Rule
p1600
(dp1601
g15
(irule
Guard
p1602
(dp1603
g18
I00
sg19
(lp1604
(irule
FeatureMatrix
p1605
(dp1606
g37
(lp1607
(I00
g765
tp1608
asg22
V[ -vowel ]
p1609
sba(irule
ConstantPhoneme
p1610
(dp1611
S'p'
Va
sbasg21
I00
sg22
Va [ -vowel ]
p1612
sg23
I00
sg24
S'L'
sbsg25
(irule
OffsetSpecification
p1613
(dp1614
g111
I-2
sbsg28
(irule
Guard
p1615
(dp1616
g18
I01
sg19
(lp1617
sg21
I00
sg22
V#
sg23
I00
sg24
S'R'
sbsg34
(irule
FeatureMatrix
p1618
(dp1619
g37
(lp1620
sg22
V[  ]
p1621
sbsg22
V[  ] ---> -2 / a [ -vowel ] _ #
p1622
sba(irule
Rule
p1623
(dp1624
g15
(irule
Guard
p1625
(dp1626
g18
I00
sg19
(lp1627
(irule
FeatureMatrix
p1628
(dp1629
g37
(lp1630
sg22
V[  ]
p1631
sba(irule
FeatureMatrix
p1632
(dp1633
g37
(lp1634
(I00
g916
tp1635
a(I01
g644
tp1636
asg22
V[ +low -aspirated ]
p1637
sbasg21
I00
sg22
V[ +low -aspirated ] [  ]
p1638
sg23
I00
sg24
S'L'
sbsg25
(irule
OffsetSpecification
p1639
(dp1640
g111
I-2
sbsg28
(irule
Guard
p1641
(dp1642
g18
I01
sg19
(lp1643
sg21
I00
sg22
V#
sg23
I00
sg24
S'R'
sbsg34
(irule
FeatureMatrix
p1644
(dp1645
g37
(lp1646
sg22
V[  ]
p1647
sbsg22
V[  ] ---> -2 / [ +low -aspirated ] [  ] _ #
p1648
sba(irule
Rule
p1649
(dp1650
g15
(irule
Guard
p1651
(dp1652
g18
I00
sg19
(lp1653
(irule
FeatureMatrix
p1654
(dp1655
g37
(lp1656
(I00
g763
tp1657
asg22
V[ -tense ]
p1658
sba(irule
ConstantPhoneme
p1659
(dp1660
S'p'
Va
sbasg21
I00
sg22
Va [ -tense ]
p1661
sg23
I00
sg24
S'L'
sbsg25
(irule
OffsetSpecification
p1662
(dp1663
g111
I-2
sbsg28
(irule
Guard
p1664
(dp1665
g18
I00
sg19
(lp1666
sg21
I00
sg22
V
sg23
I00
sg24
S'R'
sbsg34
(irule
ConstantPhoneme
p1667
(dp1668
S'p'
V\u0259
sbsg22
V\u0259 ---> -2 / a [ -tense ] _ 
p1669
sba(irule
Rule
p1670
(dp1671
g15
(irule
Guard
p1672
(dp1673
g18
I00
sg19
(lp1674
(irule
FeatureMatrix
p1675
(dp1676
g37
(lp1677
sg22
V[  ]
p1678
sba(irule
FeatureMatrix
p1679
(dp1680
g37
(lp1681
(I01
g1595
tp1682
a(I01
g644
tp1683
asg22
V[ +back +low ]
p1684
sbasg21
I00
sg22
V[ +back +low ] [  ]
p1685
sg23
I00
sg24
S'L'
sbsg25
(irule
OffsetSpecification
p1686
(dp1687
g111
I-2
sbsg28
(irule
Guard
p1688
(dp1689
g18
I00
sg19
(lp1690
sg21
I00
sg22
V
sg23
I00
sg24
S'R'
sbsg34
(irule
ConstantPhoneme
p1691
(dp1692
S'p'
V\u0259
sbsg22
V\u0259 ---> -2 / [ +back +low ] [  ] _ 
p1693
sba(irule
Rule
p1694
(dp1695
g15
(irule
Guard
p1696
(dp1697
g18
I00
sg19
(lp1698
(irule
FeatureMatrix
p1699
(dp1700
g37
(lp1701
sg22
V[  ]
p1702
sba(irule
FeatureMatrix
p1703
(dp1704
g37
(lp1705
(I00
g850
tp1706
a(I01
g644
tp1707
asg22
V[ +low -rounded ]
p1708
sbasg21
I00
sg22
V[ +low -rounded ] [  ]
p1709
sg23
I00
sg24
S'L'
sbsg25
(irule
OffsetSpecification
p1710
(dp1711
g111
I-2
sbsg28
(irule
Guard
p1712
(dp1713
g18
I00
sg19
(lp1714
sg21
I00
sg22
V
sg23
I00
sg24
S'R'
sbsg34
(irule
ConstantPhoneme
p1715
(dp1716
S'p'
V\u0259
sbsg22
V\u0259 ---> -2 / [ +low -rounded ] [  ] _ 
p1717
sba(irule
Rule
p1718
(dp1719
g15
(irule
Guard
p1720
(dp1721
g18
I00
sg19
(lp1722
(irule
FeatureMatrix
p1723
(dp1724
g37
(lp1725
sg22
V[  ]
p1726
sba(irule
FeatureMatrix
p1727
(dp1728
g37
(lp1729
(I01
g763
tp1730
a(I01
g644
tp1731
asg22
V[ +low +tense ]
p1732
sbasg21
I00
sg22
V[ +low +tense ] [  ]
p1733
sg23
I00
sg24
S'L'
sbsg25
(irule
OffsetSpecification
p1734
(dp1735
g111
I-2
sbsg28
(irule
Guard
p1736
(dp1737
g18
I00
sg19
(lp1738
sg21
I00
sg22
V
sg23
I00
sg24
S'R'
sbsg34
(irule
ConstantPhoneme
p1739
(dp1740
S'p'
V\u0259
sbsg22
V\u0259 ---> -2 / [ +low +tense ] [  ] _ 
p1741
sba(irule
Rule
p1742
(dp1743
g15
(irule
Guard
p1744
(dp1745
g18
I00
sg19
(lp1746
(irule
FeatureMatrix
p1747
(dp1748
g37
(lp1749
(I00
g850
tp1750
asg22
V[ -rounded ]
p1751
sba(irule
ConstantPhoneme
p1752
(dp1753
S'p'
Va
sbasg21
I00
sg22
Va [ -rounded ]
p1754
sg23
I00
sg24
S'L'
sbsg25
(irule
OffsetSpecification
p1755
(dp1756
g111
I-2
sbsg28
(irule
Guard
p1757
(dp1758
g18
I01
sg19
(lp1759
sg21
I00
sg22
V#
sg23
I00
sg24
S'R'
sbsg34
(irule
FeatureMatrix
p1760
(dp1761
g37
(lp1762
sg22
V[  ]
p1763
sbsg22
V[  ] ---> -2 / a [ -rounded ] _ #
p1764
sba(irule
Rule
p1765
(dp1766
g15
(irule
Guard
p1767
(dp1768
g18
I00
sg19
(lp1769
(irule
FeatureMatrix
p1770
(dp1771
g37
(lp1772
(I00
g726
tp1773
asg22
V[ -continuant ]
p1774
sba(irule
FeatureMatrix
p1775
(dp1776
g37
(lp1777
(I01
g644
tp1778
asg22
V[ +low ]
p1779
sbasg21
I00
sg22
V[ +low ] [ -continuant ]
p1780
sg23
I00
sg24
S'L'
sbsg25
(irule
OffsetSpecification
p1781
(dp1782
g111
I-2
sbsg28
(irule
Guard
p1783
(dp1784
g18
I00
sg19
(lp1785
sg21
I00
sg22
V
sg23
I00
sg24
S'R'
sbsg34
(irule
ConstantPhoneme
p1786
(dp1787
S'p'
V\u0259
sbsg22
V\u0259 ---> -2 / [ +low ] [ -continuant ] _ 
p1788
sba(irule
Rule
p1789
(dp1790
g15
(irule
Guard
p1791
(dp1792
g18
I00
sg19
(lp1793
(irule
FeatureMatrix
p1794
(dp1795
g37
(lp1796
sg22
V[  ]
p1797
sba(irule
ConstantPhoneme
p1798
(dp1799
S'p'
Va
sbasg21
I00
sg22
Va [  ]
p1800
sg23
I00
sg24
S'L'
sbsg25
(irule
OffsetSpecification
p1801
(dp1802
g111
I-2
sbsg28
(irule
Guard
p1803
(dp1804
g18
I00
sg19
(lp1805
sg21
I00
sg22
V
sg23
I00
sg24
S'R'
sbsg34
(irule
FeatureMatrix
p1806
(dp1807
g37
(lp1808
(I01
g1595
tp1809
a(I00
g852
tp1810
asg22
V[ +back -high ]
p1811
sbsg22
V[ +back -high ] ---> -2 / a [  ] _ 
p1812
sba(irule
Rule
p1813
(dp1814
g15
(irule
Guard
p1815
(dp1816
g18
I00
sg19
(lp1817
(irule
FeatureMatrix
p1818
(dp1819
g37
(lp1820
sg22
V[  ]
p1821
sba(irule
FeatureMatrix
p1822
(dp1823
g37
(lp1824
(I01
g644
tp1825
a(I00
g1058
tp1826
asg22
V[ +low -sibilant ]
p1827
sbasg21
I00
sg22
V[ +low -sibilant ] [  ]
p1828
sg23
I00
sg24
S'L'
sbsg25
(irule
OffsetSpecification
p1829
(dp1830
g111
I-2
sbsg28
(irule
Guard
p1831
(dp1832
g18
I00
sg19
(lp1833
sg21
I00
sg22
V
sg23
I00
sg24
S'R'
sbsg34
(irule
ConstantPhoneme
p1834
(dp1835
S'p'
V\u0259
sbsg22
V\u0259 ---> -2 / [ +low -sibilant ] [  ] _ 
p1836
sba(irule
Rule
p1837
(dp1838
g15
(irule
Guard
p1839
(dp1840
g18
I00
sg19
(lp1841
(irule
FeatureMatrix
p1842
(dp1843
g37
(lp1844
sg22
V[  ]
p1845
sba(irule
FeatureMatrix
p1846
(dp1847
g37
(lp1848
(I01
g644
tp1849
a(I01
g765
tp1850
asg22
V[ +low +vowel ]
p1851
sbasg21
I00
sg22
V[ +low +vowel ] [  ]
p1852
sg23
I00
sg24
S'L'
sbsg25
(irule
OffsetSpecification
p1853
(dp1854
g111
I-2
sbsg28
(irule
Guard
p1855
(dp1856
g18
I00
sg19
(lp1857
sg21
I00
sg22
V
sg23
I00
sg24
S'R'
sbsg34
(irule
ConstantPhoneme
p1858
(dp1859
S'p'
V\u0259
sbsg22
V\u0259 ---> -2 / [ +low +vowel ] [  ] _ 
p1860
sba(irule
Rule
p1861
(dp1862
g15
(irule
Guard
p1863
(dp1864
g18
I00
sg19
(lp1865
(irule
FeatureMatrix
p1866
(dp1867
g37
(lp1868
sg22
V[  ]
p1869
sba(irule
ConstantPhoneme
p1870
(dp1871
S'p'
Va
sbasg21
I00
sg22
Va [  ]
p1872
sg23
I00
sg24
S'L'
sbsg25
(irule
OffsetSpecification
p1873
(dp1874
g111
I-2
sbsg28
(irule
Guard
p1875
(dp1876
g18
I00
sg19
(lp1877
sg21
I00
sg22
V
sg23
I00
sg24
S'R'
sbsg34
(irule
FeatureMatrix
p1878
(dp1879
g37
(lp1880
(I01
g726
tp1881
a(I00
g852
tp1882
asg22
V[ +continuant -high ]
p1883
sbsg22
V[ +continuant -high ] ---> -2 / a [  ] _ 
p1884
sba(irule
Rule
p1885
(dp1886
g15
(irule
Guard
p1887
(dp1888
g18
I00
sg19
(lp1889
(irule
FeatureMatrix
p1890
(dp1891
g37
(lp1892
(I00
g765
tp1893
asg22
V[ -vowel ]
p1894
sba(irule
FeatureMatrix
p1895
(dp1896
g37
(lp1897
(I01
g644
tp1898
asg22
V[ +low ]
p1899
sbasg21
I00
sg22
V[ +low ] [ -vowel ]
p1900
sg23
I00
sg24
S'L'
sbsg25
(irule
OffsetSpecification
p1901
(dp1902
g111
I-2
sbsg28
(irule
Guard
p1903
(dp1904
g18
I01
sg19
(lp1905
sg21
I00
sg22
V#
sg23
I00
sg24
S'R'
sbsg34
(irule
FeatureMatrix
p1906
(dp1907
g37
(lp1908
sg22
V[  ]
p1909
sbsg22
V[  ] ---> -2 / [ +low ] [ -vowel ] _ #
p1910
sba(irule
Rule
p1911
(dp1912
g15
(irule
Guard
p1913
(dp1914
g18
I00
sg19
(lp1915
(irule
FeatureMatrix
p1916
(dp1917
g37
(lp1918
sg22
V[  ]
p1919
sba(irule
ConstantPhoneme
p1920
(dp1921
S'p'
Va
sbasg21
I00
sg22
Va [  ]
p1922
sg23
I00
sg24
S'L'
sbsg25
(irule
OffsetSpecification
p1923
(dp1924
g111
I-2
sbsg28
(irule
Guard
p1925
(dp1926
g18
I01
sg19
(lp1927
sg21
I00
sg22
V#
sg23
I00
sg24
S'R'
sbsg34
(irule
FeatureMatrix
p1928
(dp1929
g37
(lp1930
(I00
g1058
tp1931
asg22
V[ -sibilant ]
p1932
sbsg22
V[ -sibilant ] ---> -2 / a [  ] _ #
p1933
sba(irule
Rule
p1934
(dp1935
g15
(irule
Guard
p1936
(dp1937
g18
I00
sg19
(lp1938
(irule
FeatureMatrix
p1939
(dp1940
g37
(lp1941
(I00
g916
tp1942
asg22
V[ -aspirated ]
p1943
sba(irule
ConstantPhoneme
p1944
(dp1945
S'p'
Va
sbasg21
I00
sg22
Va [ -aspirated ]
p1946
sg23
I00
sg24
S'L'
sbsg25
(irule
OffsetSpecification
p1947
(dp1948
g111
I-2
sbsg28
(irule
Guard
p1949
(dp1950
g18
I01
sg19
(lp1951
sg21
I00
sg22
V#
sg23
I00
sg24
S'R'
sbsg34
(irule
FeatureMatrix
p1952
(dp1953
g37
(lp1954
sg22
V[  ]
p1955
sbsg22
V[  ] ---> -2 / a [ -aspirated ] _ #
p1956
sba(irule
Rule
p1957
(dp1958
g15
(irule
Guard
p1959
(dp1960
g18
I00
sg19
(lp1961
(irule
FeatureMatrix
p1962
(dp1963
g37
(lp1964
(I00
g763
tp1965
asg22
V[ -tense ]
p1966
sba(irule
ConstantPhoneme
p1967
(dp1968
S'p'
Va
sbasg21
I00
sg22
Va [ -tense ]
p1969
sg23
I00
sg24
S'L'
sbsg25
(irule
OffsetSpecification
p1970
(dp1971
g111
I-2
sbsg28
(irule
Guard
p1972
(dp1973
g18
I01
sg19
(lp1974
sg21
I00
sg22
V#
sg23
I00
sg24
S'R'
sbsg34
(irule
FeatureMatrix
p1975
(dp1976
g37
(lp1977
sg22
V[  ]
p1978
sbsg22
V[  ] ---> -2 / a [ -tense ] _ #
p1979
sba(irule
Rule
p1980
(dp1981
g15
(irule
Guard
p1982
(dp1983
g18
I00
sg19
(lp1984
(irule
FeatureMatrix
p1985
(dp1986
g37
(lp1987
sg22
V[  ]
p1988
sba(irule
FeatureMatrix
p1989
(dp1990
g37
(lp1991
(I01
g644
tp1992
asg22
V[ +low ]
p1993
sbasg21
I00
sg22
V[ +low ] [  ]
p1994
sg23
I00
sg24
S'L'
sbsg25
(irule
OffsetSpecification
p1995
(dp1996
g111
I-2
sbsg28
(irule
Guard
p1997
(dp1998
g18
I01
sg19
(lp1999
sg21
I00
sg22
V#
sg23
I00
sg24
S'R'
sbsg34
(irule
FeatureMatrix
p2000
(dp2001
g37
(lp2002
(I01
g1477
tp2003
asg22
V[ +voice ]
p2004
sbsg22
V[ +voice ] ---> -2 / [ +low ] [  ] _ #
p2005
sba(irule
Rule
p2006
(dp2007
g15
(irule
Guard
p2008
(dp2009
g18
I00
sg19
(lp2010
(irule
FeatureMatrix
p2011
(dp2012
g37
(lp2013
sg22
V[  ]
p2014
sba(irule
ConstantPhoneme
p2015
(dp2016
S'p'
Va
sbasg21
I00
sg22
Va [  ]
p2017
sg23
I00
sg24
S'L'
sbsg25
(irule
OffsetSpecification
p2018
(dp2019
g111
I-2
sbsg28
(irule
Guard
p2020
(dp2021
g18
I00
sg19
(lp2022
sg21
I00
sg22
V
sg23
I00
sg24
S'R'
sbsg34
(irule
FeatureMatrix
p2023
(dp2024
g37
(lp2025
(I00
g1305
tp2026
a(I00
g763
tp2027
asg22
V[ -nasal -tense ]
p2028
sbsg22
V[ -nasal -tense ] ---> -2 / a [  ] _ 
p2029
sba(irule
Rule
p2030
(dp2031
g15
(irule
Guard
p2032
(dp2033
g18
I00
sg19
(lp2034
(irule
FeatureMatrix
p2035
(dp2036
g37
(lp2037
(I00
g765
tp2038
asg22
V[ -vowel ]
p2039
sba(irule
FeatureMatrix
p2040
(dp2041
g37
(lp2042
(I01
g644
tp2043
asg22
V[ +low ]
p2044
sbasg21
I00
sg22
V[ +low ] [ -vowel ]
p2045
sg23
I00
sg24
S'L'
sbsg25
(irule
OffsetSpecification
p2046
(dp2047
g111
I-2
sbsg28
(irule
Guard
p2048
(dp2049
g18
I00
sg19
(lp2050
sg21
I00
sg22
V
sg23
I00
sg24
S'R'
sbsg34
(irule
ConstantPhoneme
p2051
(dp2052
S'p'
V\u0259
sbsg22
V\u0259 ---> -2 / [ +low ] [ -vowel ] _ 
p2053
sba(irule
Rule
p2054
(dp2055
g15
(irule
Guard
p2056
(dp2057
g18
I00
sg19
(lp2058
(irule
FeatureMatrix
p2059
(dp2060
g37
(lp2061
sg22
V[  ]
p2062
sba(irule
ConstantPhoneme
p2063
(dp2064
S'p'
Va
sbasg21
I00
sg22
Va [  ]
p2065
sg23
I00
sg24
S'L'
sbsg25
(irule
OffsetSpecification
p2066
(dp2067
g111
I-2
sbsg28
(irule
Guard
p2068
(dp2069
g18
I01
sg19
(lp2070
sg21
I00
sg22
V#
sg23
I00
sg24
S'R'
sbsg34
(irule
FeatureMatrix
p2071
(dp2072
g37
(lp2073
(I01
g765
tp2074
asg22
V[ +vowel ]
p2075
sbsg22
V[ +vowel ] ---> -2 / a [  ] _ #
p2076
sba(irule
Rule
p2077
(dp2078
g15
(irule
Guard
p2079
(dp2080
g18
I00
sg19
(lp2081
(irule
FeatureMatrix
p2082
(dp2083
g37
(lp2084
sg22
V[  ]
p2085
sba(irule
FeatureMatrix
p2086
(dp2087
g37
(lp2088
(I01
g644
tp2089
a(I01
g1477
tp2090
asg22
V[ +low +voice ]
p2091
sbasg21
I00
sg22
V[ +low +voice ] [  ]
p2092
sg23
I00
sg24
S'L'
sbsg25
(irule
OffsetSpecification
p2093
(dp2094
g111
I-2
sbsg28
(irule
Guard
p2095
(dp2096
g18
I00
sg19
(lp2097
sg21
I00
sg22
V
sg23
I00
sg24
S'R'
sbsg34
(irule
ConstantPhoneme
p2098
(dp2099
S'p'
V\u0259
sbsg22
V\u0259 ---> -2 / [ +low +voice ] [  ] _ 
p2100
sba(irule
Rule
p2101
(dp2102
g15
(irule
Guard
p2103
(dp2104
g18
I00
sg19
(lp2105
(irule
FeatureMatrix
p2106
(dp2107
g37
(lp2108
sg22
V[  ]
p2109
sba(irule
ConstantPhoneme
p2110
(dp2111
S'p'
Va
sbasg21
I00
sg22
Va [  ]
p2112
sg23
I00
sg24
S'L'
sbsg25
(irule
OffsetSpecification
p2113
(dp2114
g111
I-2
sbsg28
(irule
Guard
p2115
(dp2116
g18
I00
sg19
(lp2117
sg21
I00
sg22
V
sg23
I00
sg24
S'R'
sbsg34
(irule
FeatureMatrix
p2118
(dp2119
g37
(lp2120
(I01
g726
tp2121
a(I00
g763
tp2122
asg22
V[ +continuant -tense ]
p2123
sbsg22
V[ +continuant -tense ] ---> -2 / a [  ] _ 
p2124
sba(irule
Rule
p2125
(dp2126
g15
(irule
Guard
p2127
(dp2128
g18
I00
sg19
(lp2129
(irule
FeatureMatrix
p2130
(dp2131
g37
(lp2132
sg22
V[  ]
p2133
sba(irule
ConstantPhoneme
p2134
(dp2135
S'p'
Va
sbasg21
I00
sg22
Va [  ]
p2136
sg23
I00
sg24
S'L'
sbsg25
(irule
OffsetSpecification
p2137
(dp2138
g111
I-2
sbsg28
(irule
Guard
p2139
(dp2140
g18
I01
sg19
(lp2141
sg21
I00
sg22
V#
sg23
I00
sg24
S'R'
sbsg34
(irule
FeatureMatrix
p2142
(dp2143
g37
(lp2144
(I00
g644
tp2145
asg22
V[ -low ]
p2146
sbsg22
V[ -low ] ---> -2 / a [  ] _ #
p2147
sba(irule
Rule
p2148
(dp2149
g15
(irule
Guard
p2150
(dp2151
g18
I00
sg19
(lp2152
(irule
FeatureMatrix
p2153
(dp2154
g37
(lp2155
sg22
V[  ]
p2156
sba(irule
FeatureMatrix
p2157
(dp2158
g37
(lp2159
(I01
g644
tp2160
a(I00
g1260
tp2161
asg22
V[ +low -unreleased ]
p2162
sbasg21
I00
sg22
V[ +low -unreleased ] [  ]
p2163
sg23
I00
sg24
S'L'
sbsg25
(irule
OffsetSpecification
p2164
(dp2165
g111
I-2
sbsg28
(irule
Guard
p2166
(dp2167
g18
I00
sg19
(lp2168
sg21
I00
sg22
V
sg23
I00
sg24
S'R'
sbsg34
(irule
ConstantPhoneme
p2169
(dp2170
S'p'
V\u0259
sbsg22
V\u0259 ---> -2 / [ +low -unreleased ] [  ] _ 
p2171
sba(irule
Rule
p2172
(dp2173
g15
(irule
Guard
p2174
(dp2175
g18
I00
sg19
(lp2176
(irule
FeatureMatrix
p2177
(dp2178
g37
(lp2179
sg22
V[  ]
p2180
sba(irule
FeatureMatrix
p2181
(dp2182
g37
(lp2183
(I00
g916
tp2184
a(I01
g644
tp2185
asg22
V[ +low -aspirated ]
p2186
sbasg21
I00
sg22
V[ +low -aspirated ] [  ]
p2187
sg23
I00
sg24
S'L'
sbsg25
(irule
OffsetSpecification
p2188
(dp2189
g111
I-2
sbsg28
(irule
Guard
p2190
(dp2191
g18
I00
sg19
(lp2192
sg21
I00
sg22
V
sg23
I00
sg24
S'R'
sbsg34
(irule
ConstantPhoneme
p2193
(dp2194
S'p'
V\u0259
sbsg22
V\u0259 ---> -2 / [ +low -aspirated ] [  ] _ 
p2195
sba(irule
Rule
p2196
(dp2197
g15
(irule
Guard
p2198
(dp2199
g18
I00
sg19
(lp2200
(irule
FeatureMatrix
p2201
(dp2202
g37
(lp2203
sg22
V[  ]
p2204
sba(irule
FeatureMatrix
p2205
(dp2206
g37
(lp2207
(I00
g1003
tp2208
a(I01
g644
tp2209
asg22
V[ +low -coronal ]
p2210
sbasg21
I00
sg22
V[ +low -coronal ] [  ]
p2211
sg23
I00
sg24
S'L'
sbsg25
(irule
OffsetSpecification
p2212
(dp2213
g111
I-2
sbsg28
(irule
Guard
p2214
(dp2215
g18
I00
sg19
(lp2216
sg21
I00
sg22
V
sg23
I00
sg24
S'R'
sbsg34
(irule
ConstantPhoneme
p2217
(dp2218
S'p'
V\u0259
sbsg22
V\u0259 ---> -2 / [ +low -coronal ] [  ] _ 
p2219
sba(irule
Rule
p2220
(dp2221
g15
(irule
Guard
p2222
(dp2223
g18
I00
sg19
(lp2224
(irule
FeatureMatrix
p2225
(dp2226
g37
(lp2227
sg22
V[  ]
p2228
sba(irule
FeatureMatrix
p2229
(dp2230
g37
(lp2231
(I01
g644
tp2232
asg22
V[ +low ]
p2233
sbasg21
I00
sg22
V[ +low ] [  ]
p2234
sg23
I00
sg24
S'L'
sbsg25
(irule
OffsetSpecification
p2235
(dp2236
g111
I-2
sbsg28
(irule
Guard
p2237
(dp2238
g18
I00
sg19
(lp2239
sg21
I00
sg22
V
sg23
I00
sg24
S'R'
sbsg34
(irule
FeatureMatrix
p2240
(dp2241
g37
(lp2242
(I00
g1305
tp2243
a(I00
g852
tp2244
asg22
V[ -high -nasal ]
p2245
sbsg22
V[ -high -nasal ] ---> -2 / [ +low ] [  ] _ 
p2246
sba(irule
Rule
p2247
(dp2248
g15
(irule
Guard
p2249
(dp2250
g18
I00
sg19
(lp2251
(irule
FeatureMatrix
p2252
(dp2253
g37
(lp2254
(I00
g1058
tp2255
asg22
V[ -sibilant ]
p2256
sba(irule
FeatureMatrix
p2257
(dp2258
g37
(lp2259
(I01
g644
tp2260
asg22
V[ +low ]
p2261
sbasg21
I00
sg22
V[ +low ] [ -sibilant ]
p2262
sg23
I00
sg24
S'L'
sbsg25
(irule
OffsetSpecification
p2263
(dp2264
g111
I-2
sbsg28
(irule
Guard
p2265
(dp2266
g18
I01
sg19
(lp2267
sg21
I00
sg22
V#
sg23
I00
sg24
S'R'
sbsg34
(irule
FeatureMatrix
p2268
(dp2269
g37
(lp2270
sg22
V[  ]
p2271
sbsg22
V[  ] ---> -2 / [ +low ] [ -sibilant ] _ #
p2272
sba(irule
Rule
p2273
(dp2274
g15
(irule
Guard
p2275
(dp2276
g18
I00
sg19
(lp2277
(irule
FeatureMatrix
p2278
(dp2279
g37
(lp2280
sg22
V[  ]
p2281
sba(irule
FeatureMatrix
p2282
(dp2283
g37
(lp2284
(I01
S'sonorant'
p2285
tp2286
a(I01
g644
tp2287
asg22
V[ +low +sonorant ]
p2288
sbasg21
I00
sg22
V[ +low +sonorant ] [  ]
p2289
sg23
I00
sg24
S'L'
sbsg25
(irule
OffsetSpecification
p2290
(dp2291
g111
I-2
sbsg28
(irule
Guard
p2292
(dp2293
g18
I00
sg19
(lp2294
sg21
I00
sg22
V
sg23
I00
sg24
S'R'
sbsg34
(irule
ConstantPhoneme
p2295
(dp2296
S'p'
V\u0259
sbsg22
V\u0259 ---> -2 / [ +low +sonorant ] [  ] _ 
p2297
sba(irule
Rule
p2298
(dp2299
g15
(irule
Guard
p2300
(dp2301
g18
I00
sg19
(lp2302
(irule
FeatureMatrix
p2303
(dp2304
g37
(lp2305
sg22
V[  ]
p2306
sba(irule
FeatureMatrix
p2307
(dp2308
g37
(lp2309
(I01
g644
tp2310
asg22
V[ +low ]
p2311
sbasg21
I00
sg22
V[ +low ] [  ]
p2312
sg23
I00
sg24
S'L'
sbsg25
(irule
OffsetSpecification
p2313
(dp2314
g111
I-2
sbsg28
(irule
Guard
p2315
(dp2316
g18
I00
sg19
(lp2317
sg21
I00
sg22
V
sg23
I00
sg24
S'R'
sbsg34
(irule
FeatureMatrix
p2318
(dp2319
g37
(lp2320
(I01
g1595
tp2321
a(I00
g852
tp2322
asg22
V[ +back -high ]
p2323
sbsg22
V[ +back -high ] ---> -2 / [ +low ] [  ] _ 
p2324
sba(irule
Rule
p2325
(dp2326
g15
(irule
Guard
p2327
(dp2328
g18
I00
sg19
(lp2329
(irule
FeatureMatrix
p2330
(dp2331
g37
(lp2332
(I00
g763
tp2333
asg22
V[ -tense ]
p2334
sba(irule
FeatureMatrix
p2335
(dp2336
g37
(lp2337
(I01
g644
tp2338
asg22
V[ +low ]
p2339
sbasg21
I00
sg22
V[ +low ] [ -tense ]
p2340
sg23
I00
sg24
S'L'
sbsg25
(irule
OffsetSpecification
p2341
(dp2342
g111
I-2
sbsg28
(irule
Guard
p2343
(dp2344
g18
I00
sg19
(lp2345
sg21
I00
sg22
V
sg23
I00
sg24
S'R'
sbsg34
(irule
ConstantPhoneme
p2346
(dp2347
S'p'
V\u0259
sbsg22
V\u0259 ---> -2 / [ +low ] [ -tense ] _ 
p2348
sba(irule
Rule
p2349
(dp2350
g15
(irule
Guard
p2351
(dp2352
g18
I00
sg19
(lp2353
(irule
FeatureMatrix
p2354
(dp2355
g37
(lp2356
(I00
g644
tp2357
asg22
V[ -low ]
p2358
sba(irule
FeatureMatrix
p2359
(dp2360
g37
(lp2361
(I01
g644
tp2362
asg22
V[ +low ]
p2363
sbasg21
I00
sg22
V[ +low ] [ -low ]
p2364
sg23
I00
sg24
S'L'
sbsg25
(irule
OffsetSpecification
p2365
(dp2366
g111
I-2
sbsg28
(irule
Guard
p2367
(dp2368
g18
I00
sg19
(lp2369
sg21
I00
sg22
V
sg23
I00
sg24
S'R'
sbsg34
(irule
ConstantPhoneme
p2370
(dp2371
S'p'
V\u0259
sbsg22
V\u0259 ---> -2 / [ +low ] [ -low ] _ 
p2372
sba(irule
Rule
p2373
(dp2374
g15
(irule
Guard
p2375
(dp2376
g18
I00
sg19
(lp2377
(irule
FeatureMatrix
p2378
(dp2379
g37
(lp2380
sg22
V[  ]
p2381
sba(irule
FeatureMatrix
p2382
(dp2383
g37
(lp2384
(I01
g726
tp2385
a(I01
g644
tp2386
asg22
V[ +continuant +low ]
p2387
sbasg21
I00
sg22
V[ +continuant +low ] [  ]
p2388
sg23
I00
sg24
S'L'
sbsg25
(irule
OffsetSpecification
p2389
(dp2390
g111
I-2
sbsg28
(irule
Guard
p2391
(dp2392
g18
I01
sg19
(lp2393
sg21
I00
sg22
V#
sg23
I00
sg24
S'R'
sbsg34
(irule
FeatureMatrix
p2394
(dp2395
g37
(lp2396
sg22
V[  ]
p2397
sbsg22
V[  ] ---> -2 / [ +continuant +low ] [  ] _ #
p2398
sba(irule
Rule
p2399
(dp2400
g15
(irule
Guard
p2401
(dp2402
g18
I00
sg19
(lp2403
(irule
FeatureMatrix
p2404
(dp2405
g37
(lp2406
(I00
g850
tp2407
asg22
V[ -rounded ]
p2408
sba(irule
FeatureMatrix
p2409
(dp2410
g37
(lp2411
(I01
g644
tp2412
asg22
V[ +low ]
p2413
sbasg21
I00
sg22
V[ +low ] [ -rounded ]
p2414
sg23
I00
sg24
S'L'
sbsg25
(irule
OffsetSpecification
p2415
(dp2416
g111
I-2
sbsg28
(irule
Guard
p2417
(dp2418
g18
I00
sg19
(lp2419
sg21
I00
sg22
V
sg23
I00
sg24
S'R'
sbsg34
(irule
ConstantPhoneme
p2420
(dp2421
S'p'
V\u0259
sbsg22
V\u0259 ---> -2 / [ +low ] [ -rounded ] _ 
p2422
sba(irule
Rule
p2423
(dp2424
g15
(irule
Guard
p2425
(dp2426
g18
I00
sg19
(lp2427
(irule
FeatureMatrix
p2428
(dp2429
g37
(lp2430
sg22
V[  ]
p2431
sba(irule
ConstantPhoneme
p2432
(dp2433
S'p'
Va
sbasg21
I00
sg22
Va [  ]
p2434
sg23
I00
sg24
S'L'
sbsg25
(irule
OffsetSpecification
p2435
(dp2436
g111
I-2
sbsg28
(irule
Guard
p2437
(dp2438
g18
I01
sg19
(lp2439
sg21
I00
sg22
V#
sg23
I00
sg24
S'R'
sbsg34
(irule
FeatureMatrix
p2440
(dp2441
g37
(lp2442
(I00
g1305
tp2443
asg22
V[ -nasal ]
p2444
sbsg22
V[ -nasal ] ---> -2 / a [  ] _ #
p2445
sba(irule
Rule
p2446
(dp2447
g15
(irule
Guard
p2448
(dp2449
g18
I00
sg19
(lp2450
(irule
FeatureMatrix
p2451
(dp2452
g37
(lp2453
sg22
V[  ]
p2454
sba(irule
FeatureMatrix
p2455
(dp2456
g37
(lp2457
(I01
g644
tp2458
asg22
V[ +low ]
p2459
sbasg21
I00
sg22
V[ +low ] [  ]
p2460
sg23
I00
sg24
S'L'
sbsg25
(irule
OffsetSpecification
p2461
(dp2462
g111
I-2
sbsg28
(irule
Guard
p2463
(dp2464
g18
I00
sg19
(lp2465
sg21
I00
sg22
V
sg23
I00
sg24
S'R'
sbsg34
(irule
FeatureMatrix
p2466
(dp2467
g37
(lp2468
(I00
g970
tp2469
a(I00
g852
tp2470
asg22
V[ -anterior -high ]
p2471
sbsg22
V[ -anterior -high ] ---> -2 / [ +low ] [  ] _ 
p2472
sba(irule
Rule
p2473
(dp2474
g15
(irule
Guard
p2475
(dp2476
g18
I00
sg19
(lp2477
(irule
FeatureMatrix
p2478
(dp2479
g37
(lp2480
sg22
V[  ]
p2481
sba(irule
ConstantPhoneme
p2482
(dp2483
S'p'
Va
sbasg21
I00
sg22
Va [  ]
p2484
sg23
I00
sg24
S'L'
sbsg25
(irule
OffsetSpecification
p2485
(dp2486
g111
I-2
sbsg28
(irule
Guard
p2487
(dp2488
g18
I01
sg19
(lp2489
sg21
I00
sg22
V#
sg23
I00
sg24
S'R'
sbsg34
(irule
FeatureMatrix
p2490
(dp2491
g37
(lp2492
(I00
g763
tp2493
asg22
V[ -tense ]
p2494
sbsg22
V[ -tense ] ---> -2 / a [  ] _ #
p2495
sba(irule
Rule
p2496
(dp2497
g15
(irule
Guard
p2498
(dp2499
g18
I00
sg19
(lp2500
(irule
FeatureMatrix
p2501
(dp2502
g37
(lp2503
sg22
V[  ]
p2504
sba(irule
FeatureMatrix
p2505
(dp2506
g37
(lp2507
(I01
g2285
tp2508
a(I01
g644
tp2509
asg22
V[ +low +sonorant ]
p2510
sbasg21
I00
sg22
V[ +low +sonorant ] [  ]
p2511
sg23
I00
sg24
S'L'
sbsg25
(irule
OffsetSpecification
p2512
(dp2513
g111
I-2
sbsg28
(irule
Guard
p2514
(dp2515
g18
I01
sg19
(lp2516
sg21
I00
sg22
V#
sg23
I00
sg24
S'R'
sbsg34
(irule
FeatureMatrix
p2517
(dp2518
g37
(lp2519
sg22
V[  ]
p2520
sbsg22
V[  ] ---> -2 / [ +low +sonorant ] [  ] _ #
p2521
sba(irule
Rule
p2522
(dp2523
g15
(irule
Guard
p2524
(dp2525
g18
I00
sg19
(lp2526
(irule
FeatureMatrix
p2527
(dp2528
g37
(lp2529
sg22
V[  ]
p2530
sba(irule
FeatureMatrix
p2531
(dp2532
g37
(lp2533
(I01
g644
tp2534
asg22
V[ +low ]
p2535
sbasg21
I00
sg22
V[ +low ] [  ]
p2536
sg23
I00
sg24
S'L'
sbsg25
(irule
OffsetSpecification
p2537
(dp2538
g111
I-2
sbsg28
(irule
Guard
p2539
(dp2540
g18
I00
sg19
(lp2541
sg21
I00
sg22
V
sg23
I00
sg24
S'R'
sbsg34
(irule
FeatureMatrix
p2542
(dp2543
g37
(lp2544
(I00
g1003
tp2545
a(I00
g763
tp2546
asg22
V[ -coronal -tense ]
p2547
sbsg22
V[ -coronal -tense ] ---> -2 / [ +low ] [  ] _ 
p2548
sba(irule
Rule
p2549
(dp2550
g15
(irule
Guard
p2551
(dp2552
g18
I00
sg19
(lp2553
(irule
FeatureMatrix
p2554
(dp2555
g37
(lp2556
(I00
g916
tp2557
asg22
V[ -aspirated ]
p2558
sba(irule
FeatureMatrix
p2559
(dp2560
g37
(lp2561
(I01
g644
tp2562
asg22
V[ +low ]
p2563
sbasg21
I00
sg22
V[ +low ] [ -aspirated ]
p2564
sg23
I00
sg24
S'L'
sbsg25
(irule
OffsetSpecification
p2565
(dp2566
g111
I-2
sbsg28
(irule
Guard
p2567
(dp2568
g18
I00
sg19
(lp2569
sg21
I00
sg22
V
sg23
I00
sg24
S'R'
sbsg34
(irule
ConstantPhoneme
p2570
(dp2571
S'p'
V\u0259
sbsg22
V\u0259 ---> -2 / [ +low ] [ -aspirated ] _ 
p2572
sba(irule
Rule
p2573
(dp2574
g15
(irule
Guard
p2575
(dp2576
g18
I00
sg19
(lp2577
(irule
FeatureMatrix
p2578
(dp2579
g37
(lp2580
sg22
V[  ]
p2581
sba(irule
ConstantPhoneme
p2582
(dp2583
S'p'
Va
sbasg21
I00
sg22
Va [  ]
p2584
sg23
I00
sg24
S'L'
sbsg25
(irule
OffsetSpecification
p2585
(dp2586
g111
I-2
sbsg28
(irule
Guard
p2587
(dp2588
g18
I01
sg19
(lp2589
sg21
I00
sg22
V#
sg23
I00
sg24
S'R'
sbsg34
(irule
FeatureMatrix
p2590
(dp2591
g37
(lp2592
(I00
g1003
tp2593
asg22
V[ -coronal ]
p2594
sbsg22
V[ -coronal ] ---> -2 / a [  ] _ #
p2595
sba(irule
Rule
p2596
(dp2597
g15
(irule
Guard
p2598
(dp2599
g18
I00
sg19
(lp2600
(irule
FeatureMatrix
p2601
(dp2602
g37
(lp2603
sg22
V[  ]
p2604
sba(irule
FeatureMatrix
p2605
(dp2606
g37
(lp2607
(I01
g763
tp2608
a(I01
g644
tp2609
asg22
V[ +low +tense ]
p2610
sbasg21
I00
sg22
V[ +low +tense ] [  ]
p2611
sg23
I00
sg24
S'L'
sbsg25
(irule
OffsetSpecification
p2612
(dp2613
g111
I-2
sbsg28
(irule
Guard
p2614
(dp2615
g18
I01
sg19
(lp2616
sg21
I00
sg22
V#
sg23
I00
sg24
S'R'
sbsg34
(irule
FeatureMatrix
p2617
(dp2618
g37
(lp2619
sg22
V[  ]
p2620
sbsg22
V[  ] ---> -2 / [ +low +tense ] [  ] _ #
p2621
sba(irule
Rule
p2622
(dp2623
g15
(irule
Guard
p2624
(dp2625
g18
I00
sg19
(lp2626
(irule
FeatureMatrix
p2627
(dp2628
g37
(lp2629
sg22
V[  ]
p2630
sba(irule
FeatureMatrix
p2631
(dp2632
g37
(lp2633
(I01
g644
tp2634
asg22
V[ +low ]
p2635
sbasg21
I00
sg22
V[ +low ] [  ]
p2636
sg23
I00
sg24
S'L'
sbsg25
(irule
OffsetSpecification
p2637
(dp2638
g111
I-2
sbsg28
(irule
Guard
p2639
(dp2640
g18
I00
sg19
(lp2641
sg21
I00
sg22
V
sg23
I00
sg24
S'R'
sbsg34
(irule
FeatureMatrix
p2642
(dp2643
g37
(lp2644
(I00
g852
tp2645
a(I00
g1003
tp2646
asg22
V[ -coronal -high ]
p2647
sbsg22
V[ -coronal -high ] ---> -2 / [ +low ] [  ] _ 
p2648
sba(irule
Rule
p2649
(dp2650
g15
(irule
Guard
p2651
(dp2652
g18
I00
sg19
(lp2653
(irule
FeatureMatrix
p2654
(dp2655
g37
(lp2656
sg22
V[  ]
p2657
sba(irule
FeatureMatrix
p2658
(dp2659
g37
(lp2660
(I01
g644
tp2661
asg22
V[ +low ]
p2662
sbasg21
I00
sg22
V[ +low ] [  ]
p2663
sg23
I00
sg24
S'L'
sbsg25
(irule
OffsetSpecification
p2664
(dp2665
g111
I-2
sbsg28
(irule
Guard
p2666
(dp2667
g18
I00
sg19
(lp2668
sg21
I00
sg22
V
sg23
I00
sg24
S'R'
sbsg34
(irule
FeatureMatrix
p2669
(dp2670
g37
(lp2671
(I00
g852
tp2672
a(I01
g765
tp2673
asg22
V[ +vowel -high ]
p2674
sbsg22
V[ +vowel -high ] ---> -2 / [ +low ] [  ] _ 
p2675
sba(irule
Rule
p2676
(dp2677
g15
(irule
Guard
p2678
(dp2679
g18
I00
sg19
(lp2680
(irule
FeatureMatrix
p2681
(dp2682
g37
(lp2683
sg22
V[  ]
p2684
sba(irule
ConstantPhoneme
p2685
(dp2686
S'p'
Va
sbasg21
I00
sg22
Va [  ]
p2687
sg23
I00
sg24
S'L'
sbsg25
(irule
OffsetSpecification
p2688
(dp2689
g111
I-2
sbsg28
(irule
Guard
p2690
(dp2691
g18
I01
sg19
(lp2692
sg21
I00
sg22
V#
sg23
I00
sg24
S'R'
sbsg34
(irule
FeatureMatrix
p2693
(dp2694
g37
(lp2695
(I00
g852
tp2696
asg22
V[ -high ]
p2697
sbsg22
V[ -high ] ---> -2 / a [  ] _ #
p2698
sba(irule
Rule
p2699
(dp2700
g15
(irule
Guard
p2701
(dp2702
g18
I00
sg19
(lp2703
(irule
FeatureMatrix
p2704
(dp2705
g37
(lp2706
sg22
V[  ]
p2707
sba(irule
FeatureMatrix
p2708
(dp2709
g37
(lp2710
(I00
g1305
tp2711
a(I01
g644
tp2712
asg22
V[ +low -nasal ]
p2713
sbasg21
I00
sg22
V[ +low -nasal ] [  ]
p2714
sg23
I00
sg24
S'L'
sbsg25
(irule
OffsetSpecification
p2715
(dp2716
g111
I-2
sbsg28
(irule
Guard
p2717
(dp2718
g18
I01
sg19
(lp2719
sg21
I00
sg22
V#
sg23
I00
sg24
S'R'
sbsg34
(irule
FeatureMatrix
p2720
(dp2721
g37
(lp2722
sg22
V[  ]
p2723
sbsg22
V[  ] ---> -2 / [ +low -nasal ] [  ] _ #
p2724
sba(irule
Rule
p2725
(dp2726
g15
(irule
Guard
p2727
(dp2728
g18
I00
sg19
(lp2729
(irule
FeatureMatrix
p2730
(dp2731
g37
(lp2732
sg22
V[  ]
p2733
sba(irule
ConstantPhoneme
p2734
(dp2735
S'p'
Va
sbasg21
I00
sg22
Va [  ]
p2736
sg23
I00
sg24
S'L'
sbsg25
(irule
OffsetSpecification
p2737
(dp2738
g111
I-2
sbsg28
(irule
Guard
p2739
(dp2740
g18
I01
sg19
(lp2741
sg21
I00
sg22
V#
sg23
I00
sg24
S'R'
sbsg34
(irule
FeatureMatrix
p2742
(dp2743
g37
(lp2744
(I00
g970
tp2745
asg22
V[ -anterior ]
p2746
sbsg22
V[ -anterior ] ---> -2 / a [  ] _ #
p2747
sba(irule
Rule
p2748
(dp2749
g15
(irule
Guard
p2750
(dp2751
g18
I00
sg19
(lp2752
(irule
FeatureMatrix
p2753
(dp2754
g37
(lp2755
sg22
V[  ]
p2756
sba(irule
FeatureMatrix
p2757
(dp2758
g37
(lp2759
(I01
g644
tp2760
asg22
V[ +low ]
p2761
sbasg21
I00
sg22
V[ +low ] [  ]
p2762
sg23
I00
sg24
S'L'
sbsg25
(irule
OffsetSpecification
p2763
(dp2764
g111
I-2
sbsg28
(irule
Guard
p2765
(dp2766
g18
I00
sg19
(lp2767
sg21
I00
sg22
V
sg23
I00
sg24
S'R'
sbsg34
(irule
FeatureMatrix
p2768
(dp2769
g37
(lp2770
(I00
g1305
tp2771
a(I00
g763
tp2772
asg22
V[ -nasal -tense ]
p2773
sbsg22
V[ -nasal -tense ] ---> -2 / [ +low ] [  ] _ 
p2774
sba(irule
Rule
p2775
(dp2776
g15
(irule
Guard
p2777
(dp2778
g18
I00
sg19
(lp2779
(irule
FeatureMatrix
p2780
(dp2781
g37
(lp2782
sg22
V[  ]
p2783
sba(irule
ConstantPhoneme
p2784
(dp2785
S'p'
Va
sbasg21
I00
sg22
Va [  ]
p2786
sg23
I00
sg24
S'L'
sbsg25
(irule
OffsetSpecification
p2787
(dp2788
g111
I-2
sbsg28
(irule
Guard
p2789
(dp2790
g18
I01
sg19
(lp2791
sg21
I00
sg22
V#
sg23
I00
sg24
S'R'
sbsg34
(irule
FeatureMatrix
p2792
(dp2793
g37
(lp2794
(I00
g916
tp2795
asg22
V[ -aspirated ]
p2796
sbsg22
V[ -aspirated ] ---> -2 / a [  ] _ #
p2797
sba(irule
Rule
p2798
(dp2799
g15
(irule
Guard
p2800
(dp2801
g18
I00
sg19
(lp2802
(irule
FeatureMatrix
p2803
(dp2804
g37
(lp2805
(I00
g726
tp2806
asg22
V[ -continuant ]
p2807
sba(irule
FeatureMatrix
p2808
(dp2809
g37
(lp2810
(I01
g644
tp2811
asg22
V[ +low ]
p2812
sbasg21
I00
sg22
V[ +low ] [ -continuant ]
p2813
sg23
I00
sg24
S'L'
sbsg25
(irule
OffsetSpecification
p2814
(dp2815
g111
I-2
sbsg28
(irule
Guard
p2816
(dp2817
g18
I01
sg19
(lp2818
sg21
I00
sg22
V#
sg23
I00
sg24
S'R'
sbsg34
(irule
FeatureMatrix
p2819
(dp2820
g37
(lp2821
sg22
V[  ]
p2822
sbsg22
V[  ] ---> -2 / [ +low ] [ -continuant ] _ #
p2823
sba(irule
Rule
p2824
(dp2825
g15
(irule
Guard
p2826
(dp2827
g18
I00
sg19
(lp2828
(irule
FeatureMatrix
p2829
(dp2830
g37
(lp2831
sg22
V[  ]
p2832
sba(irule
FeatureMatrix
p2833
(dp2834
g37
(lp2835
(I01
g644
tp2836
asg22
V[ +low ]
p2837
sbasg21
I00
sg22
V[ +low ] [  ]
p2838
sg23
I00
sg24
S'L'
sbsg25
(irule
OffsetSpecification
p2839
(dp2840
g111
I-2
sbsg28
(irule
Guard
p2841
(dp2842
g18
I01
sg19
(lp2843
sg21
I00
sg22
V#
sg23
I00
sg24
S'R'
sbsg34
(irule
FeatureMatrix
p2844
(dp2845
g37
(lp2846
(I00
g1058
tp2847
asg22
V[ -sibilant ]
p2848
sbsg22
V[ -sibilant ] ---> -2 / [ +low ] [  ] _ #
p2849
sba(irule
Rule
p2850
(dp2851
g15
(irule
Guard
p2852
(dp2853
g18
I00
sg19
(lp2854
(irule
FeatureMatrix
p2855
(dp2856
g37
(lp2857
sg22
V[  ]
p2858
sba(irule
ConstantPhoneme
p2859
(dp2860
S'p'
Va
sbasg21
I00
sg22
Va [  ]
p2861
sg23
I00
sg24
S'L'
sbsg25
(irule
OffsetSpecification
p2862
(dp2863
g111
I-2
sbsg28
(irule
Guard
p2864
(dp2865
g18
I01
sg19
(lp2866
sg21
I00
sg22
V#
sg23
I00
sg24
S'R'
sbsg34
(irule
FeatureMatrix
p2867
(dp2868
g37
(lp2869
(I01
g2285
tp2870
asg22
V[ +sonorant ]
p2871
sbsg22
V[ +sonorant ] ---> -2 / a [  ] _ #
p2872
sba(irule
Rule
p2873
(dp2874
g15
(irule
Guard
p2875
(dp2876
g18
I00
sg19
(lp2877
(irule
FeatureMatrix
p2878
(dp2879
g37
(lp2880
sg22
V[  ]
p2881
sba(irule
ConstantPhoneme
p2882
(dp2883
S'p'
Va
sbasg21
I00
sg22
Va [  ]
p2884
sg23
I00
sg24
S'L'
sbsg25
(irule
OffsetSpecification
p2885
(dp2886
g111
I-2
sbsg28
(irule
Guard
p2887
(dp2888
g18
I01
sg19
(lp2889
sg21
I00
sg22
V#
sg23
I00
sg24
S'R'
sbsg34
(irule
FeatureMatrix
p2890
(dp2891
g37
(lp2892
(I00
g850
tp2893
asg22
V[ -rounded ]
p2894
sbsg22
V[ -rounded ] ---> -2 / a [  ] _ #
p2895
sba(irule
Rule
p2896
(dp2897
g15
(irule
Guard
p2898
(dp2899
g18
I00
sg19
(lp2900
(irule
FeatureMatrix
p2901
(dp2902
g37
(lp2903
sg22
V[  ]
p2904
sba(irule
ConstantPhoneme
p2905
(dp2906
S'p'
Va
sbasg21
I00
sg22
Va [  ]
p2907
sg23
I00
sg24
S'L'
sbsg25
(irule
OffsetSpecification
p2908
(dp2909
g111
I-2
sbsg28
(irule
Guard
p2910
(dp2911
g18
I01
sg19
(lp2912
sg21
I00
sg22
V#
sg23
I00
sg24
S'R'
sbsg34
(irule
FeatureMatrix
p2913
(dp2914
g37
(lp2915
(I01
g1595
tp2916
asg22
V[ +back ]
p2917
sbsg22
V[ +back ] ---> -2 / a [  ] _ #
p2918
sba(irule
Rule
p2919
(dp2920
g15
(irule
Guard
p2921
(dp2922
g18
I00
sg19
(lp2923
(irule
FeatureMatrix
p2924
(dp2925
g37
(lp2926
sg22
V[  ]
p2927
sba(irule
FeatureMatrix
p2928
(dp2929
g37
(lp2930
(I01
g1595
tp2931
a(I01
g644
tp2932
asg22
V[ +back +low ]
p2933
sbasg21
I00
sg22
V[ +back +low ] [  ]
p2934
sg23
I00
sg24
S'L'
sbsg25
(irule
OffsetSpecification
p2935
(dp2936
g111
I-2
sbsg28
(irule
Guard
p2937
(dp2938
g18
I01
sg19
(lp2939
sg21
I00
sg22
V#
sg23
I00
sg24
S'R'
sbsg34
(irule
FeatureMatrix
p2940
(dp2941
g37
(lp2942
sg22
V[  ]
p2943
sbsg22
V[  ] ---> -2 / [ +back +low ] [  ] _ #
p2944
sba(irule
Rule
p2945
(dp2946
g15
(irule
Guard
p2947
(dp2948
g18
I00
sg19
(lp2949
(irule
FeatureMatrix
p2950
(dp2951
g37
(lp2952
(I00
g850
tp2953
asg22
V[ -rounded ]
p2954
sba(irule
FeatureMatrix
p2955
(dp2956
g37
(lp2957
(I01
g644
tp2958
asg22
V[ +low ]
p2959
sbasg21
I00
sg22
V[ +low ] [ -rounded ]
p2960
sg23
I00
sg24
S'L'
sbsg25
(irule
OffsetSpecification
p2961
(dp2962
g111
I-2
sbsg28
(irule
Guard
p2963
(dp2964
g18
I01
sg19
(lp2965
sg21
I00
sg22
V#
sg23
I00
sg24
S'R'
sbsg34
(irule
FeatureMatrix
p2966
(dp2967
g37
(lp2968
sg22
V[  ]
p2969
sbsg22
V[  ] ---> -2 / [ +low ] [ -rounded ] _ #
p2970
sba(irule
Rule
p2971
(dp2972
g15
(irule
Guard
p2973
(dp2974
g18
I00
sg19
(lp2975
(irule
FeatureMatrix
p2976
(dp2977
g37
(lp2978
sg22
V[  ]
p2979
sba(irule
ConstantPhoneme
p2980
(dp2981
S'p'
Va
sbasg21
I00
sg22
Va [  ]
p2982
sg23
I00
sg24
S'L'
sbsg25
(irule
OffsetSpecification
p2983
(dp2984
g111
I-2
sbsg28
(irule
Guard
p2985
(dp2986
g18
I01
sg19
(lp2987
sg21
I00
sg22
V#
sg23
I00
sg24
S'R'
sbsg34
(irule
FeatureMatrix
p2988
(dp2989
g37
(lp2990
(I01
g726
tp2991
asg22
V[ +continuant ]
p2992
sbsg22
V[ +continuant ] ---> -2 / a [  ] _ #
p2993
sba(irule
Rule
p2994
(dp2995
g15
(irule
Guard
p2996
(dp2997
g18
I00
sg19
(lp2998
(irule
FeatureMatrix
p2999
(dp3000
g37
(lp3001
sg22
V[  ]
p3002
sba(irule
FeatureMatrix
p3003
(dp3004
g37
(lp3005
(I01
g644
tp3006
asg22
V[ +low ]
p3007
sbasg21
I00
sg22
V[ +low ] [  ]
p3008
sg23
I00
sg24
S'L'
sbsg25
(irule
OffsetSpecification
p3009
(dp3010
g111
I-2
sbsg28
(irule
Guard
p3011
(dp3012
g18
I01
sg19
(lp3013
sg21
I00
sg22
V#
sg23
I00
sg24
S'R'
sbsg34
(irule
FeatureMatrix
p3014
(dp3015
g37
(lp3016
(I01
g765
tp3017
asg22
V[ +vowel ]
p3018
sbsg22
V[ +vowel ] ---> -2 / [ +low ] [  ] _ #
p3019
sbaa(lp3020
(irule
Rule
p3021
(dp3022
g15
(irule
Guard
p3023
(dp3024
g18
I00
sg19
(lp3025
sg21
I00
sg22
V
sg23
I00
sg24
S'L'
sbsg25
(irule
FeatureMatrix
p3026
(dp3027
g37
(lp3028
(I01
S'nasal'
tp3029
asg22
V[ +nasal ]
p3030
sbsg28
(irule
Guard
p3031
(dp3032
g18
I00
sg19
(lp3033
(irule
FeatureMatrix
p3034
(dp3035
g37
(lp3036
(I01
S'coronal'
tp3037
asg22
V[ +coronal ]
p3038
sbasg21
I00
sg22
g3038
sg23
I00
sg24
S'R'
sbsg34
(irule
FeatureMatrix
p3039
(dp3040
g37
(lp3041
(I00
S'sonorant'
tp3042
asg22
V[ -sonorant ]
p3043
sbsg22
V[ -sonorant ] ---> [ +nasal ] /  _ [ +coronal ]
p3044
sba(irule
Rule
p3045
(dp3046
g15
(irule
Guard
p3047
(dp3048
g18
I00
sg19
(lp3049
sg21
I00
sg22
V
sg23
I00
sg24
S'L'
sbsg25
(irule
FeatureMatrix
p3050
(dp3051
g37
(lp3052
(I01
S'nasal'
p3053
tp3054
asg22
V[ +nasal ]
p3055
sbsg28
(irule
Guard
p3056
(dp3057
g18
I00
sg19
(lp3058
(irule
FeatureMatrix
p3059
(dp3060
g37
(lp3061
(I00
S'continuant'
p3062
tp3063
asg22
V[ -continuant ]
p3064
sbasg21
I00
sg22
g3064
sg23
I00
sg24
S'R'
sbsg34
(irule
FeatureMatrix
p3065
(dp3066
g37
(lp3067
(I00
S'sonorant'
p3068
tp3069
asg22
V[ -sonorant ]
p3070
sbsg22
V[ -sonorant ] ---> [ +nasal ] /  _ [ -continuant ]
p3071
sba(irule
Rule
p3072
(dp3073
g15
(irule
Guard
p3074
(dp3075
g18
I00
sg19
(lp3076
sg21
I00
sg22
V
sg23
I00
sg24
S'L'
sbsg25
(irule
FeatureMatrix
p3077
(dp3078
g37
(lp3079
(I01
g3053
tp3080
asg22
V[ +nasal ]
p3081
sbsg28
(irule
Guard
p3082
(dp3083
g18
I00
sg19
(lp3084
(irule
ConstantPhoneme
p3085
(dp3086
S'p'
Vn
sbasg21
I00
sg22
Vn
sg23
I00
sg24
S'R'
sbsg34
(irule
FeatureMatrix
p3087
(dp3088
g37
(lp3089
(I00
S'voice'
p3090
tp3091
asg22
V[ -voice ]
p3092
sbsg22
V[ -voice ] ---> [ +nasal ] /  _ n
p3093
sba(irule
Rule
p3094
(dp3095
g15
(irule
Guard
p3096
(dp3097
g18
I00
sg19
(lp3098
sg21
I00
sg22
V
sg23
I00
sg24
S'L'
sbsg25
(irule
FeatureMatrix
p3099
(dp3100
g37
(lp3101
(I01
g3053
tp3102
asg22
V[ +nasal ]
p3103
sbsg28
(irule
Guard
p3104
(dp3105
g18
I00
sg19
(lp3106
(irule
FeatureMatrix
p3107
(dp3108
g37
(lp3109
(I00
S'vowel'
p3110
tp3111
asg22
V[ -vowel ]
p3112
sbasg21
I00
sg22
g3112
sg23
I00
sg24
S'R'
sbsg34
(irule
FeatureMatrix
p3113
(dp3114
g37
(lp3115
(I00
g3068
tp3116
asg22
V[ -sonorant ]
p3117
sbsg22
V[ -sonorant ] ---> [ +nasal ] /  _ [ -vowel ]
p3118
sba(irule
Rule
p3119
(dp3120
g15
(irule
Guard
p3121
(dp3122
g18
I00
sg19
(lp3123
sg21
I00
sg22
V
sg23
I00
sg24
S'L'
sbsg25
(irule
FeatureMatrix
p3124
(dp3125
g37
(lp3126
(I01
g3053
tp3127
asg22
V[ +nasal ]
p3128
sbsg28
(irule
Guard
p3129
(dp3130
g18
I00
sg19
(lp3131
(irule
FeatureMatrix
p3132
(dp3133
g37
(lp3134
(I01
S'anterior'
p3135
tp3136
asg22
V[ +anterior ]
p3137
sbasg21
I00
sg22
g3137
sg23
I00
sg24
S'R'
sbsg34
(irule
FeatureMatrix
p3138
(dp3139
g37
(lp3140
(I00
g3090
tp3141
asg22
V[ -voice ]
p3142
sbsg22
V[ -voice ] ---> [ +nasal ] /  _ [ +anterior ]
p3143
sba(irule
Rule
p3144
(dp3145
g15
(irule
Guard
p3146
(dp3147
g18
I00
sg19
(lp3148
sg21
I00
sg22
V
sg23
I00
sg24
S'L'
sbsg25
(irule
FeatureMatrix
p3149
(dp3150
g37
(lp3151
(I01
g3053
tp3152
asg22
V[ +nasal ]
p3153
sbsg28
(irule
Guard
p3154
(dp3155
g18
I00
sg19
(lp3156
(irule
FeatureMatrix
p3157
(dp3158
g37
(lp3159
(I00
g3110
tp3160
asg22
V[ -vowel ]
p3161
sbasg21
I00
sg22
g3161
sg23
I00
sg24
S'R'
sbsg34
(irule
FeatureMatrix
p3162
(dp3163
g37
(lp3164
(I00
g3090
tp3165
asg22
V[ -voice ]
p3166
sbsg22
V[ -voice ] ---> [ +nasal ] /  _ [ -vowel ]
p3167
sba(irule
Rule
p3168
(dp3169
g15
(irule
Guard
p3170
(dp3171
g18
I00
sg19
(lp3172
sg21
I00
sg22
V
sg23
I00
sg24
S'L'
sbsg25
(irule
FeatureMatrix
p3173
(dp3174
g37
(lp3175
(I01
g3053
tp3176
asg22
V[ +nasal ]
p3177
sbsg28
(irule
Guard
p3178
(dp3179
g18
I00
sg19
(lp3180
(irule
FeatureMatrix
p3181
(dp3182
g37
(lp3183
(I00
g3062
tp3184
asg22
V[ -continuant ]
p3185
sbasg21
I00
sg22
g3185
sg23
I00
sg24
S'R'
sbsg34
(irule
FeatureMatrix
p3186
(dp3187
g37
(lp3188
(I00
g3090
tp3189
asg22
V[ -voice ]
p3190
sbsg22
V[ -voice ] ---> [ +nasal ] /  _ [ -continuant ]
p3191
sba(irule
Rule
p3192
(dp3193
g15
(irule
Guard
p3194
(dp3195
g18
I00
sg19
(lp3196
sg21
I00
sg22
V
sg23
I00
sg24
S'L'
sbsg25
(irule
FeatureMatrix
p3197
(dp3198
g37
(lp3199
(I01
g3053
tp3200
asg22
V[ +nasal ]
p3201
sbsg28
(irule
Guard
p3202
(dp3203
g18
I00
sg19
(lp3204
(irule
FeatureMatrix
p3205
(dp3206
g37
(lp3207
(I01
g3135
tp3208
asg22
V[ +anterior ]
p3209
sbasg21
I00
sg22
g3209
sg23
I00
sg24
S'R'
sbsg34
(irule
FeatureMatrix
p3210
(dp3211
g37
(lp3212
(I00
g3068
tp3213
asg22
V[ -sonorant ]
p3214
sbsg22
V[ -sonorant ] ---> [ +nasal ] /  _ [ +anterior ]
p3215
sba(irule
Rule
p3216
(dp3217
g15
(irule
Guard
p3218
(dp3219
g18
I00
sg19
(lp3220
sg21
I00
sg22
V
sg23
I00
sg24
S'L'
sbsg25
(irule
FeatureMatrix
p3221
(dp3222
g37
(lp3223
(I01
g3053
tp3224
asg22
V[ +nasal ]
p3225
sbsg28
(irule
Guard
p3226
(dp3227
g18
I00
sg19
(lp3228
(irule
FeatureMatrix
p3229
(dp3230
g37
(lp3231
(I01
g3053
tp3232
asg22
V[ +nasal ]
p3233
sbasg21
I00
sg22
g3233
sg23
I00
sg24
S'R'
sbsg34
(irule
FeatureMatrix
p3234
(dp3235
g37
(lp3236
(I00
g3068
tp3237
asg22
V[ -sonorant ]
p3238
sbsg22
V[ -sonorant ] ---> [ +nasal ] /  _ [ +nasal ]
p3239
sba(irule
Rule
p3240
(dp3241
g15
(irule
Guard
p3242
(dp3243
g18
I00
sg19
(lp3244
sg21
I00
sg22
V
sg23
I00
sg24
S'L'
sbsg25
(irule
FeatureMatrix
p3245
(dp3246
g37
(lp3247
(I01
g3053
tp3248
asg22
V[ +nasal ]
p3249
sbsg28
(irule
Guard
p3250
(dp3251
g18
I00
sg19
(lp3252
(irule
FeatureMatrix
p3253
(dp3254
g37
(lp3255
(I01
g3053
tp3256
asg22
V[ +nasal ]
p3257
sbasg21
I00
sg22
g3257
sg23
I00
sg24
S'R'
sbsg34
(irule
FeatureMatrix
p3258
(dp3259
g37
(lp3260
(I00
g3090
tp3261
asg22
V[ -voice ]
p3262
sbsg22
V[ -voice ] ---> [ +nasal ] /  _ [ +nasal ]
p3263
sba(irule
Rule
p3264
(dp3265
g15
(irule
Guard
p3266
(dp3267
g18
I00
sg19
(lp3268
sg21
I00
sg22
V
sg23
I00
sg24
S'L'
sbsg25
(irule
FeatureMatrix
p3269
(dp3270
g37
(lp3271
(I01
g3053
tp3272
asg22
V[ +nasal ]
p3273
sbsg28
(irule
Guard
p3274
(dp3275
g18
I00
sg19
(lp3276
(irule
ConstantPhoneme
p3277
(dp3278
S'p'
Vn
sbasg21
I00
sg22
Vn
sg23
I00
sg24
S'R'
sbsg34
(irule
FeatureMatrix
p3279
(dp3280
g37
(lp3281
(I00
g3068
tp3282
asg22
V[ -sonorant ]
p3283
sbsg22
V[ -sonorant ] ---> [ +nasal ] /  _ n
p3284
sba(irule
Rule
p3285
(dp3286
g15
(irule
Guard
p3287
(dp3288
g18
I00
sg19
(lp3289
sg21
I00
sg22
V
sg23
I00
sg24
S'L'
sbsg25
(irule
FeatureMatrix
p3290
(dp3291
g37
(lp3292
(I01
g3053
tp3293
asg22
V[ +nasal ]
p3294
sbsg28
(irule
Guard
p3295
(dp3296
g18
I00
sg19
(lp3297
(irule
FeatureMatrix
p3298
(dp3299
g37
(lp3300
(I01
S'coronal'
p3301
tp3302
asg22
V[ +coronal ]
p3303
sbasg21
I00
sg22
g3303
sg23
I00
sg24
S'R'
sbsg34
(irule
FeatureMatrix
p3304
(dp3305
g37
(lp3306
(I00
g3090
tp3307
asg22
V[ -voice ]
p3308
sbsg22
V[ -voice ] ---> [ +nasal ] /  _ [ +coronal ]
p3309
sba(irule
Rule
p3310
(dp3311
g15
(irule
Guard
p3312
(dp3313
g18
I00
sg19
(lp3314
sg21
I00
sg22
V
sg23
I00
sg24
S'L'
sbsg25
(irule
FeatureMatrix
p3315
(dp3316
g37
(lp3317
(I01
g3053
tp3318
asg22
V[ +nasal ]
p3319
sbsg28
(irule
Guard
p3320
(dp3321
g18
I00
sg19
(lp3322
(irule
FeatureMatrix
p3323
(dp3324
g37
(lp3325
(I01
g3301
tp3326
asg22
V[ +coronal ]
p3327
sbasg21
I00
sg22
g3327
sg23
I00
sg24
S'R'
sbsg34
(irule
FeatureMatrix
p3328
(dp3329
g37
(lp3330
(I00
g3068
tp3331
a(I00
S'low'
p3332
tp3333
asg22
V[ -low -sonorant ]
p3334
sbsg22
V[ -low -sonorant ] ---> [ +nasal ] /  _ [ +coronal ]
p3335
sba(irule
Rule
p3336
(dp3337
g15
(irule
Guard
p3338
(dp3339
g18
I00
sg19
(lp3340
sg21
I00
sg22
V
sg23
I00
sg24
S'L'
sbsg25
(irule
FeatureMatrix
p3341
(dp3342
g37
(lp3343
(I01
g3053
tp3344
asg22
V[ +nasal ]
p3345
sbsg28
(irule
Guard
p3346
(dp3347
g18
I00
sg19
(lp3348
(irule
FeatureMatrix
p3349
(dp3350
g37
(lp3351
(I00
g3062
tp3352
asg22
V[ -continuant ]
p3353
sba(irule
FeatureMatrix
p3354
(dp3355
g37
(lp3356
sg22
V[  ]
p3357
sbasg21
I00
sg22
V[ -continuant ] [  ]
p3358
sg23
I00
sg24
S'R'
sbsg34
(irule
FeatureMatrix
p3359
(dp3360
g37
(lp3361
(I00
g3068
tp3362
asg22
V[ -sonorant ]
p3363
sbsg22
V[ -sonorant ] ---> [ +nasal ] /  _ [ -continuant ] [  ]
p3364
sba(irule
Rule
p3365
(dp3366
g15
(irule
Guard
p3367
(dp3368
g18
I00
sg19
(lp3369
sg21
I00
sg22
V
sg23
I00
sg24
S'L'
sbsg25
(irule
FeatureMatrix
p3370
(dp3371
g37
(lp3372
(I01
g3053
tp3373
asg22
V[ +nasal ]
p3374
sbsg28
(irule
Guard
p3375
(dp3376
g18
I00
sg19
(lp3377
(irule
FeatureMatrix
p3378
(dp3379
g37
(lp3380
sg22
V[  ]
p3381
sba(irule
ConstantPhoneme
p3382
(dp3383
S'p'
V\u0268
sbasg21
I00
sg22
V[  ] \u0268
p3384
sg23
I00
sg24
S'R'
sbsg34
(irule
FeatureMatrix
p3385
(dp3386
g37
(lp3387
(I00
g3068
tp3388
asg22
V[ -sonorant ]
p3389
sbsg22
V[ -sonorant ] ---> [ +nasal ] /  _ [  ] \u0268
p3390
sba(irule
Rule
p3391
(dp3392
g15
(irule
Guard
p3393
(dp3394
g18
I00
sg19
(lp3395
(irule
FeatureMatrix
p3396
(dp3397
g37
(lp3398
sg22
V[  ]
p3399
sbasg21
I00
sg22
g3399
sg23
I00
sg24
S'L'
sbsg25
(irule
FeatureMatrix
p3400
(dp3401
g37
(lp3402
(I01
g3053
tp3403
asg22
V[ +nasal ]
p3404
sbsg28
(irule
Guard
p3405
(dp3406
g18
I00
sg19
(lp3407
(irule
FeatureMatrix
p3408
(dp3409
g37
(lp3410
(I00
g3062
tp3411
asg22
V[ -continuant ]
p3412
sbasg21
I00
sg22
g3412
sg23
I00
sg24
S'R'
sbsg34
(irule
FeatureMatrix
p3413
(dp3414
g37
(lp3415
(I00
g3090
tp3416
asg22
V[ -voice ]
p3417
sbsg22
V[ -voice ] ---> [ +nasal ] / [  ] _ [ -continuant ]
p3418
sba(irule
Rule
p3419
(dp3420
g15
(irule
Guard
p3421
(dp3422
g18
I00
sg19
(lp3423
(irule
FeatureMatrix
p3424
(dp3425
g37
(lp3426
sg22
V[  ]
p3427
sbasg21
I00
sg22
g3427
sg23
I00
sg24
S'L'
sbsg25
(irule
FeatureMatrix
p3428
(dp3429
g37
(lp3430
(I01
g3053
tp3431
asg22
V[ +nasal ]
p3432
sbsg28
(irule
Guard
p3433
(dp3434
g18
I00
sg19
(lp3435
(irule
FeatureMatrix
p3436
(dp3437
g37
(lp3438
(I00
g3110
tp3439
asg22
V[ -vowel ]
p3440
sbasg21
I00
sg22
g3440
sg23
I00
sg24
S'R'
sbsg34
(irule
FeatureMatrix
p3441
(dp3442
g37
(lp3443
(I00
g3068
tp3444
asg22
V[ -sonorant ]
p3445
sbsg22
V[ -sonorant ] ---> [ +nasal ] / [  ] _ [ -vowel ]
p3446
sba(irule
Rule
p3447
(dp3448
g15
(irule
Guard
p3449
(dp3450
g18
I00
sg19
(lp3451
sg21
I00
sg22
V
sg23
I00
sg24
S'L'
sbsg25
(irule
FeatureMatrix
p3452
(dp3453
g37
(lp3454
(I01
g3053
tp3455
asg22
V[ +nasal ]
p3456
sbsg28
(irule
Guard
p3457
(dp3458
g18
I00
sg19
(lp3459
(irule
FeatureMatrix
p3460
(dp3461
g37
(lp3462
sg22
V[  ]
p3463
sba(irule
ConstantPhoneme
p3464
(dp3465
S'p'
V\u0268
sbasg21
I00
sg22
V[  ] \u0268
p3466
sg23
I00
sg24
S'R'
sbsg34
(irule
FeatureMatrix
p3467
(dp3468
g37
(lp3469
(I00
g3090
tp3470
asg22
V[ -voice ]
p3471
sbsg22
V[ -voice ] ---> [ +nasal ] /  _ [  ] \u0268
p3472
sba(irule
Rule
p3473
(dp3474
g15
(irule
Guard
p3475
(dp3476
g18
I00
sg19
(lp3477
sg21
I00
sg22
V
sg23
I00
sg24
S'L'
sbsg25
(irule
FeatureMatrix
p3478
(dp3479
g37
(lp3480
(I01
g3053
tp3481
asg22
V[ +nasal ]
p3482
sbsg28
(irule
Guard
p3483
(dp3484
g18
I00
sg19
(lp3485
(irule
FeatureMatrix
p3486
(dp3487
g37
(lp3488
(I00
g3062
tp3489
a(I00
S'sibilant'
p3490
tp3491
asg22
V[ -continuant -sibilant ]
p3492
sbasg21
I00
sg22
g3492
sg23
I00
sg24
S'R'
sbsg34
(irule
FeatureMatrix
p3493
(dp3494
g37
(lp3495
(I00
g3068
tp3496
asg22
V[ -sonorant ]
p3497
sbsg22
V[ -sonorant ] ---> [ +nasal ] /  _ [ -continuant -sibilant ]
p3498
sba(irule
Rule
p3499
(dp3500
g15
(irule
Guard
p3501
(dp3502
g18
I00
sg19
(lp3503
(irule
FeatureMatrix
p3504
(dp3505
g37
(lp3506
sg22
V[  ]
p3507
sbasg21
I00
sg22
g3507
sg23
I00
sg24
S'L'
sbsg25
(irule
FeatureMatrix
p3508
(dp3509
g37
(lp3510
(I01
g3053
tp3511
asg22
V[ +nasal ]
p3512
sbsg28
(irule
Guard
p3513
(dp3514
g18
I00
sg19
(lp3515
(irule
ConstantPhoneme
p3516
(dp3517
S'p'
Vn
sbasg21
I00
sg22
Vn
sg23
I00
sg24
S'R'
sbsg34
(irule
FeatureMatrix
p3518
(dp3519
g37
(lp3520
(I00
g3068
tp3521
asg22
V[ -sonorant ]
p3522
sbsg22
V[ -sonorant ] ---> [ +nasal ] / [  ] _ n
p3523
sba(irule
Rule
p3524
(dp3525
g15
(irule
Guard
p3526
(dp3527
g18
I00
sg19
(lp3528
sg21
I00
sg22
V
sg23
I00
sg24
S'L'
sbsg25
(irule
FeatureMatrix
p3529
(dp3530
g37
(lp3531
(I01
g3053
tp3532
asg22
V[ +nasal ]
p3533
sbsg28
(irule
Guard
p3534
(dp3535
g18
I00
sg19
(lp3536
(irule
FeatureMatrix
p3537
(dp3538
g37
(lp3539
(I01
g3135
tp3540
asg22
V[ +anterior ]
p3541
sba(irule
FeatureMatrix
p3542
(dp3543
g37
(lp3544
sg22
V[  ]
p3545
sbasg21
I00
sg22
V[ +anterior ] [  ]
p3546
sg23
I00
sg24
S'R'
sbsg34
(irule
FeatureMatrix
p3547
(dp3548
g37
(lp3549
(I00
g3068
tp3550
asg22
V[ -sonorant ]
p3551
sbsg22
V[ -sonorant ] ---> [ +nasal ] /  _ [ +anterior ] [  ]
p3552
sba(irule
Rule
p3553
(dp3554
g15
(irule
Guard
p3555
(dp3556
g18
I00
sg19
(lp3557
(irule
FeatureMatrix
p3558
(dp3559
g37
(lp3560
sg22
V[  ]
p3561
sbasg21
I00
sg22
g3561
sg23
I00
sg24
S'L'
sbsg25
(irule
FeatureMatrix
p3562
(dp3563
g37
(lp3564
(I01
g3053
tp3565
asg22
V[ +nasal ]
p3566
sbsg28
(irule
Guard
p3567
(dp3568
g18
I00
sg19
(lp3569
(irule
FeatureMatrix
p3570
(dp3571
g37
(lp3572
(I01
g3135
tp3573
asg22
V[ +anterior ]
p3574
sbasg21
I00
sg22
g3574
sg23
I00
sg24
S'R'
sbsg34
(irule
FeatureMatrix
p3575
(dp3576
g37
(lp3577
(I00
g3090
tp3578
asg22
V[ -voice ]
p3579
sbsg22
V[ -voice ] ---> [ +nasal ] / [  ] _ [ +anterior ]
p3580
sba(irule
Rule
p3581
(dp3582
g15
(irule
Guard
p3583
(dp3584
g18
I00
sg19
(lp3585
(irule
FeatureMatrix
p3586
(dp3587
g37
(lp3588
sg22
V[  ]
p3589
sbasg21
I00
sg22
g3589
sg23
I00
sg24
S'L'
sbsg25
(irule
FeatureMatrix
p3590
(dp3591
g37
(lp3592
(I01
g3053
tp3593
asg22
V[ +nasal ]
p3594
sbsg28
(irule
Guard
p3595
(dp3596
g18
I00
sg19
(lp3597
(irule
FeatureMatrix
p3598
(dp3599
g37
(lp3600
(I00
g3062
tp3601
asg22
V[ -continuant ]
p3602
sbasg21
I00
sg22
g3602
sg23
I00
sg24
S'R'
sbsg34
(irule
FeatureMatrix
p3603
(dp3604
g37
(lp3605
(I00
g3068
tp3606
asg22
V[ -sonorant ]
p3607
sbsg22
V[ -sonorant ] ---> [ +nasal ] / [  ] _ [ -continuant ]
p3608
sba(irule
Rule
p3609
(dp3610
g15
(irule
Guard
p3611
(dp3612
g18
I00
sg19
(lp3613
sg21
I00
sg22
V
sg23
I00
sg24
S'L'
sbsg25
(irule
FeatureMatrix
p3614
(dp3615
g37
(lp3616
(I01
g3053
tp3617
asg22
V[ +nasal ]
p3618
sbsg28
(irule
Guard
p3619
(dp3620
g18
I00
sg19
(lp3621
(irule
FeatureMatrix
p3622
(dp3623
g37
(lp3624
sg22
V[  ]
p3625
sba(irule
FeatureMatrix
p3626
(dp3627
g37
(lp3628
(I01
g3110
tp3629
asg22
V[ +vowel ]
p3630
sbasg21
I00
sg22
V[  ] [ +vowel ]
p3631
sg23
I00
sg24
S'R'
sbsg34
(irule
FeatureMatrix
p3632
(dp3633
g37
(lp3634
(I00
g3090
tp3635
asg22
V[ -voice ]
p3636
sbsg22
V[ -voice ] ---> [ +nasal ] /  _ [  ] [ +vowel ]
p3637
sba(irule
Rule
p3638
(dp3639
g15
(irule
Guard
p3640
(dp3641
g18
I00
sg19
(lp3642
sg21
I00
sg22
V
sg23
I00
sg24
S'L'
sbsg25
(irule
FeatureMatrix
p3643
(dp3644
g37
(lp3645
(I01
g3053
tp3646
asg22
V[ +nasal ]
p3647
sbsg28
(irule
Guard
p3648
(dp3649
g18
I00
sg19
(lp3650
(irule
FeatureMatrix
p3651
(dp3652
g37
(lp3653
sg22
V[  ]
p3654
sba(irule
FeatureMatrix
p3655
(dp3656
g37
(lp3657
(I01
g3110
tp3658
asg22
V[ +vowel ]
p3659
sbasg21
I00
sg22
V[  ] [ +vowel ]
p3660
sg23
I00
sg24
S'R'
sbsg34
(irule
FeatureMatrix
p3661
(dp3662
g37
(lp3663
(I00
g3068
tp3664
asg22
V[ -sonorant ]
p3665
sbsg22
V[ -sonorant ] ---> [ +nasal ] /  _ [  ] [ +vowel ]
p3666
sba(irule
Rule
p3667
(dp3668
g15
(irule
Guard
p3669
(dp3670
g18
I00
sg19
(lp3671
sg21
I00
sg22
V
sg23
I00
sg24
S'L'
sbsg25
(irule
FeatureMatrix
p3672
(dp3673
g37
(lp3674
(I01
g3053
tp3675
asg22
V[ +nasal ]
p3676
sbsg28
(irule
Guard
p3677
(dp3678
g18
I00
sg19
(lp3679
(irule
FeatureMatrix
p3680
(dp3681
g37
(lp3682
sg22
V[  ]
p3683
sba(irule
FeatureMatrix
p3684
(dp3685
g37
(lp3686
(I01
S'tense'
p3687
tp3688
asg22
V[ +tense ]
p3689
sbasg21
I00
sg22
V[  ] [ +tense ]
p3690
sg23
I00
sg24
S'R'
sbsg34
(irule
FeatureMatrix
p3691
(dp3692
g37
(lp3693
(I00
g3068
tp3694
asg22
V[ -sonorant ]
p3695
sbsg22
V[ -sonorant ] ---> [ +nasal ] /  _ [  ] [ +tense ]
p3696
sba(irule
Rule
p3697
(dp3698
g15
(irule
Guard
p3699
(dp3700
g18
I00
sg19
(lp3701
(irule
FeatureMatrix
p3702
(dp3703
g37
(lp3704
sg22
V[  ]
p3705
sbasg21
I00
sg22
g3705
sg23
I00
sg24
S'L'
sbsg25
(irule
FeatureMatrix
p3706
(dp3707
g37
(lp3708
(I01
g3053
tp3709
asg22
V[ +nasal ]
p3710
sbsg28
(irule
Guard
p3711
(dp3712
g18
I00
sg19
(lp3713
(irule
FeatureMatrix
p3714
(dp3715
g37
(lp3716
(I00
S'back'
p3717
tp3718
asg22
V[ -back ]
p3719
sbasg21
I00
sg22
g3719
sg23
I00
sg24
S'R'
sbsg34
(irule
FeatureMatrix
p3720
(dp3721
g37
(lp3722
(I00
g3090
tp3723
asg22
V[ -voice ]
p3724
sbsg22
V[ -voice ] ---> [ +nasal ] / [  ] _ [ -back ]
p3725
sba(irule
Rule
p3726
(dp3727
g15
(irule
Guard
p3728
(dp3729
g18
I00
sg19
(lp3730
sg21
I00
sg22
V
sg23
I00
sg24
S'L'
sbsg25
(irule
FeatureMatrix
p3731
(dp3732
g37
(lp3733
(I01
g3053
tp3734
asg22
V[ +nasal ]
p3735
sbsg28
(irule
Guard
p3736
(dp3737
g18
I00
sg19
(lp3738
(irule
FeatureMatrix
p3739
(dp3740
g37
(lp3741
(I00
g3062
tp3742
a(I00
S'unreleased'
p3743
tp3744
asg22
V[ -continuant -unreleased ]
p3745
sbasg21
I00
sg22
g3745
sg23
I00
sg24
S'R'
sbsg34
(irule
FeatureMatrix
p3746
(dp3747
g37
(lp3748
(I00
g3068
tp3749
asg22
V[ -sonorant ]
p3750
sbsg22
V[ -sonorant ] ---> [ +nasal ] /  _ [ -continuant -unreleased ]
p3751
sba(irule
Rule
p3752
(dp3753
g15
(irule
Guard
p3754
(dp3755
g18
I00
sg19
(lp3756
(irule
FeatureMatrix
p3757
(dp3758
g37
(lp3759
sg22
V[  ]
p3760
sbasg21
I00
sg22
g3760
sg23
I00
sg24
S'L'
sbsg25
(irule
FeatureMatrix
p3761
(dp3762
g37
(lp3763
(I01
g3053
tp3764
asg22
V[ +nasal ]
p3765
sbsg28
(irule
Guard
p3766
(dp3767
g18
I00
sg19
(lp3768
(irule
FeatureMatrix
p3769
(dp3770
g37
(lp3771
(I01
g3301
tp3772
asg22
V[ +coronal ]
p3773
sbasg21
I00
sg22
g3773
sg23
I00
sg24
S'R'
sbsg34
(irule
FeatureMatrix
p3774
(dp3775
g37
(lp3776
(I00
g3090
tp3777
asg22
V[ -voice ]
p3778
sbsg22
V[ -voice ] ---> [ +nasal ] / [  ] _ [ +coronal ]
p3779
sba(irule
Rule
p3780
(dp3781
g15
(irule
Guard
p3782
(dp3783
g18
I00
sg19
(lp3784
(irule
FeatureMatrix
p3785
(dp3786
g37
(lp3787
sg22
V[  ]
p3788
sbasg21
I00
sg22
g3788
sg23
I00
sg24
S'L'
sbsg25
(irule
FeatureMatrix
p3789
(dp3790
g37
(lp3791
(I01
g3053
tp3792
asg22
V[ +nasal ]
p3793
sbsg28
(irule
Guard
p3794
(dp3795
g18
I00
sg19
(lp3796
(irule
FeatureMatrix
p3797
(dp3798
g37
(lp3799
(I01
g3301
tp3800
asg22
V[ +coronal ]
p3801
sbasg21
I00
sg22
g3801
sg23
I00
sg24
S'R'
sbsg34
(irule
FeatureMatrix
p3802
(dp3803
g37
(lp3804
(I00
g3068
tp3805
asg22
V[ -sonorant ]
p3806
sbsg22
V[ -sonorant ] ---> [ +nasal ] / [  ] _ [ +coronal ]
p3807
sba(irule
Rule
p3808
(dp3809
g15
(irule
Guard
p3810
(dp3811
g18
I00
sg19
(lp3812
sg21
I00
sg22
V
sg23
I00
sg24
S'L'
sbsg25
(irule
FeatureMatrix
p3813
(dp3814
g37
(lp3815
(I01
g3053
tp3816
asg22
V[ +nasal ]
p3817
sbsg28
(irule
Guard
p3818
(dp3819
g18
I00
sg19
(lp3820
(irule
ConstantPhoneme
p3821
(dp3822
S'p'
Vn
sba(irule
FeatureMatrix
p3823
(dp3824
g37
(lp3825
sg22
V[  ]
p3826
sbasg21
I00
sg22
Vn [  ]
p3827
sg23
I00
sg24
S'R'
sbsg34
(irule
FeatureMatrix
p3828
(dp3829
g37
(lp3830
(I00
g3068
tp3831
asg22
V[ -sonorant ]
p3832
sbsg22
V[ -sonorant ] ---> [ +nasal ] /  _ n [  ]
p3833
sba(irule
Rule
p3834
(dp3835
g15
(irule
Guard
p3836
(dp3837
g18
I00
sg19
(lp3838
sg21
I00
sg22
V
sg23
I00
sg24
S'L'
sbsg25
(irule
FeatureMatrix
p3839
(dp3840
g37
(lp3841
(I01
g3053
tp3842
asg22
V[ +nasal ]
p3843
sbsg28
(irule
Guard
p3844
(dp3845
g18
I00
sg19
(lp3846
(irule
FeatureMatrix
p3847
(dp3848
g37
(lp3849
(I00
g3062
tp3850
asg22
V[ -continuant ]
p3851
sbasg21
I00
sg22
g3851
sg23
I00
sg24
S'R'
sbsg34
(irule
FeatureMatrix
p3852
(dp3853
g37
(lp3854
(I00
g3068
tp3855
a(I00
g3687
tp3856
asg22
V[ -sonorant -tense ]
p3857
sbsg22
V[ -sonorant -tense ] ---> [ +nasal ] /  _ [ -continuant ]
p3858
sba(irule
Rule
p3859
(dp3860
g15
(irule
Guard
p3861
(dp3862
g18
I00
sg19
(lp3863
(irule
FeatureMatrix
p3864
(dp3865
g37
(lp3866
sg22
V[  ]
p3867
sbasg21
I00
sg22
g3867
sg23
I00
sg24
S'L'
sbsg25
(irule
FeatureMatrix
p3868
(dp3869
g37
(lp3870
(I01
g3053
tp3871
asg22
V[ +nasal ]
p3872
sbsg28
(irule
Guard
p3873
(dp3874
g18
I00
sg19
(lp3875
(irule
FeatureMatrix
p3876
(dp3877
g37
(lp3878
(I01
g3053
tp3879
asg22
V[ +nasal ]
p3880
sbasg21
I00
sg22
g3880
sg23
I00
sg24
S'R'
sbsg34
(irule
FeatureMatrix
p3881
(dp3882
g37
(lp3883
(I00
g3090
tp3884
asg22
V[ -voice ]
p3885
sbsg22
V[ -voice ] ---> [ +nasal ] / [  ] _ [ +nasal ]
p3886
sba(irule
Rule
p3887
(dp3888
g15
(irule
Guard
p3889
(dp3890
g18
I00
sg19
(lp3891
(irule
FeatureMatrix
p3892
(dp3893
g37
(lp3894
sg22
V[  ]
p3895
sbasg21
I00
sg22
g3895
sg23
I00
sg24
S'L'
sbsg25
(irule
FeatureMatrix
p3896
(dp3897
g37
(lp3898
(I01
g3053
tp3899
asg22
V[ +nasal ]
p3900
sbsg28
(irule
Guard
p3901
(dp3902
g18
I00
sg19
(lp3903
(irule
FeatureMatrix
p3904
(dp3905
g37
(lp3906
(I00
g3110
tp3907
asg22
V[ -vowel ]
p3908
sbasg21
I00
sg22
g3908
sg23
I00
sg24
S'R'
sbsg34
(irule
FeatureMatrix
p3909
(dp3910
g37
(lp3911
(I00
g3090
tp3912
asg22
V[ -voice ]
p3913
sbsg22
V[ -voice ] ---> [ +nasal ] / [  ] _ [ -vowel ]
p3914
sba(irule
Rule
p3915
(dp3916
g15
(irule
Guard
p3917
(dp3918
g18
I00
sg19
(lp3919
sg21
I00
sg22
V
sg23
I00
sg24
S'L'
sbsg25
(irule
FeatureMatrix
p3920
(dp3921
g37
(lp3922
(I01
g3053
tp3923
asg22
V[ +nasal ]
p3924
sbsg28
(irule
Guard
p3925
(dp3926
g18
I00
sg19
(lp3927
(irule
FeatureMatrix
p3928
(dp3929
g37
(lp3930
(I00
g3062
tp3931
asg22
V[ -continuant ]
p3932
sba(irule
FeatureMatrix
p3933
(dp3934
g37
(lp3935
sg22
V[  ]
p3936
sbasg21
I00
sg22
V[ -continuant ] [  ]
p3937
sg23
I00
sg24
S'R'
sbsg34
(irule
FeatureMatrix
p3938
(dp3939
g37
(lp3940
(I00
g3090
tp3941
asg22
V[ -voice ]
p3942
sbsg22
V[ -voice ] ---> [ +nasal ] /  _ [ -continuant ] [  ]
p3943
sba(irule
Rule
p3944
(dp3945
g15
(irule
Guard
p3946
(dp3947
g18
I00
sg19
(lp3948
sg21
I00
sg22
V
sg23
I00
sg24
S'L'
sbsg25
(irule
FeatureMatrix
p3949
(dp3950
g37
(lp3951
(I01
g3053
tp3952
asg22
V[ +nasal ]
p3953
sbsg28
(irule
Guard
p3954
(dp3955
g18
I00
sg19
(lp3956
(irule
FeatureMatrix
p3957
(dp3958
g37
(lp3959
(I00
g3062
tp3960
a(I00
g3743
tp3961
asg22
V[ -continuant -unreleased ]
p3962
sbasg21
I00
sg22
g3962
sg23
I00
sg24
S'R'
sbsg34
(irule
FeatureMatrix
p3963
(dp3964
g37
(lp3965
(I00
g3090
tp3966
asg22
V[ -voice ]
p3967
sbsg22
V[ -voice ] ---> [ +nasal ] /  _ [ -continuant -unreleased ]
p3968
sba(irule
Rule
p3969
(dp3970
g15
(irule
Guard
p3971
(dp3972
g18
I00
sg19
(lp3973
(irule
FeatureMatrix
p3974
(dp3975
g37
(lp3976
sg22
V[  ]
p3977
sbasg21
I00
sg22
g3977
sg23
I00
sg24
S'L'
sbsg25
(irule
FeatureMatrix
p3978
(dp3979
g37
(lp3980
(I01
g3053
tp3981
asg22
V[ +nasal ]
p3982
sbsg28
(irule
Guard
p3983
(dp3984
g18
I00
sg19
(lp3985
(irule
FeatureMatrix
p3986
(dp3987
g37
(lp3988
(I00
g3717
tp3989
asg22
V[ -back ]
p3990
sbasg21
I00
sg22
g3990
sg23
I00
sg24
S'R'
sbsg34
(irule
FeatureMatrix
p3991
(dp3992
g37
(lp3993
(I00
g3068
tp3994
asg22
V[ -sonorant ]
p3995
sbsg22
V[ -sonorant ] ---> [ +nasal ] / [  ] _ [ -back ]
p3996
sba(irule
Rule
p3997
(dp3998
g15
(irule
Guard
p3999
(dp4000
g18
I00
sg19
(lp4001
sg21
I00
sg22
V
sg23
I00
sg24
S'L'
sbsg25
(irule
FeatureMatrix
p4002
(dp4003
g37
(lp4004
(I01
g3053
tp4005
asg22
V[ +nasal ]
p4006
sbsg28
(irule
Guard
p4007
(dp4008
g18
I00
sg19
(lp4009
(irule
FeatureMatrix
p4010
(dp4011
g37
(lp4012
sg22
V[  ]
p4013
sba(irule
FeatureMatrix
p4014
(dp4015
g37
(lp4016
(I01
g3062
tp4017
asg22
V[ +continuant ]
p4018
sbasg21
I00
sg22
V[  ] [ +continuant ]
p4019
sg23
I00
sg24
S'R'
sbsg34
(irule
FeatureMatrix
p4020
(dp4021
g37
(lp4022
(I00
g3068
tp4023
asg22
V[ -sonorant ]
p4024
sbsg22
V[ -sonorant ] ---> [ +nasal ] /  _ [  ] [ +continuant ]
p4025
sba(irule
Rule
p4026
(dp4027
g15
(irule
Guard
p4028
(dp4029
g18
I00
sg19
(lp4030
sg21
I00
sg22
V
sg23
I00
sg24
S'L'
sbsg25
(irule
FeatureMatrix
p4031
(dp4032
g37
(lp4033
(I01
g3053
tp4034
asg22
V[ +nasal ]
p4035
sbsg28
(irule
Guard
p4036
(dp4037
g18
I00
sg19
(lp4038
(irule
FeatureMatrix
p4039
(dp4040
g37
(lp4041
sg22
V[  ]
p4042
sba(irule
FeatureMatrix
p4043
(dp4044
g37
(lp4045
(I01
g3687
tp4046
asg22
V[ +tense ]
p4047
sbasg21
I00
sg22
V[  ] [ +tense ]
p4048
sg23
I00
sg24
S'R'
sbsg34
(irule
FeatureMatrix
p4049
(dp4050
g37
(lp4051
(I00
g3090
tp4052
asg22
V[ -voice ]
p4053
sbsg22
V[ -voice ] ---> [ +nasal ] /  _ [  ] [ +tense ]
p4054
sba(irule
Rule
p4055
(dp4056
g15
(irule
Guard
p4057
(dp4058
g18
I00
sg19
(lp4059
(irule
FeatureMatrix
p4060
(dp4061
g37
(lp4062
sg22
V[  ]
p4063
sbasg21
I00
sg22
g4063
sg23
I00
sg24
S'L'
sbsg25
(irule
FeatureMatrix
p4064
(dp4065
g37
(lp4066
(I01
g3053
tp4067
asg22
V[ +nasal ]
p4068
sbsg28
(irule
Guard
p4069
(dp4070
g18
I00
sg19
(lp4071
(irule
FeatureMatrix
p4072
(dp4073
g37
(lp4074
(I01
g3053
tp4075
asg22
V[ +nasal ]
p4076
sbasg21
I00
sg22
g4076
sg23
I00
sg24
S'R'
sbsg34
(irule
FeatureMatrix
p4077
(dp4078
g37
(lp4079
(I00
g3068
tp4080
asg22
V[ -sonorant ]
p4081
sbsg22
V[ -sonorant ] ---> [ +nasal ] / [  ] _ [ +nasal ]
p4082
sba(irule
Rule
p4083
(dp4084
g15
(irule
Guard
p4085
(dp4086
g18
I00
sg19
(lp4087
(irule
FeatureMatrix
p4088
(dp4089
g37
(lp4090
sg22
V[  ]
p4091
sbasg21
I00
sg22
g4091
sg23
I00
sg24
S'L'
sbsg25
(irule
FeatureMatrix
p4092
(dp4093
g37
(lp4094
(I01
g3053
tp4095
asg22
V[ +nasal ]
p4096
sbsg28
(irule
Guard
p4097
(dp4098
g18
I00
sg19
(lp4099
(irule
FeatureMatrix
p4100
(dp4101
g37
(lp4102
(I01
g3135
tp4103
asg22
V[ +anterior ]
p4104
sbasg21
I00
sg22
g4104
sg23
I00
sg24
S'R'
sbsg34
(irule
FeatureMatrix
p4105
(dp4106
g37
(lp4107
(I00
g3068
tp4108
asg22
V[ -sonorant ]
p4109
sbsg22
V[ -sonorant ] ---> [ +nasal ] / [  ] _ [ +anterior ]
p4110
sba(irule
Rule
p4111
(dp4112
g15
(irule
Guard
p4113
(dp4114
g18
I00
sg19
(lp4115
sg21
I00
sg22
V
sg23
I00
sg24
S'L'
sbsg25
(irule
FeatureMatrix
p4116
(dp4117
g37
(lp4118
(I01
g3053
tp4119
asg22
V[ +nasal ]
p4120
sbsg28
(irule
Guard
p4121
(dp4122
g18
I00
sg19
(lp4123
(irule
FeatureMatrix
p4124
(dp4125
g37
(lp4126
(I00
S'rounded'
p4127
tp4128
a(I00
g3062
tp4129
asg22
V[ -continuant -rounded ]
p4130
sbasg21
I00
sg22
g4130
sg23
I00
sg24
S'R'
sbsg34
(irule
FeatureMatrix
p4131
(dp4132
g37
(lp4133
(I00
g3090
tp4134
asg22
V[ -voice ]
p4135
sbsg22
V[ -voice ] ---> [ +nasal ] /  _ [ -continuant -rounded ]
p4136
sba(irule
Rule
p4137
(dp4138
g15
(irule
Guard
p4139
(dp4140
g18
I00
sg19
(lp4141
(irule
FeatureMatrix
p4142
(dp4143
g37
(lp4144
sg22
V[  ]
p4145
sbasg21
I00
sg22
g4145
sg23
I00
sg24
S'L'
sbsg25
(irule
FeatureMatrix
p4146
(dp4147
g37
(lp4148
(I01
g3053
tp4149
asg22
V[ +nasal ]
p4150
sbsg28
(irule
Guard
p4151
(dp4152
g18
I00
sg19
(lp4153
(irule
ConstantPhoneme
p4154
(dp4155
S'p'
Vn
sbasg21
I00
sg22
Vn
sg23
I00
sg24
S'R'
sbsg34
(irule
FeatureMatrix
p4156
(dp4157
g37
(lp4158
(I00
g3090
tp4159
asg22
V[ -voice ]
p4160
sbsg22
V[ -voice ] ---> [ +nasal ] / [  ] _ n
p4161
sba(irule
Rule
p4162
(dp4163
g15
(irule
Guard
p4164
(dp4165
g18
I00
sg19
(lp4166
sg21
I00
sg22
V
sg23
I00
sg24
S'L'
sbsg25
(irule
FeatureMatrix
p4167
(dp4168
g37
(lp4169
(I01
g3053
tp4170
asg22
V[ +nasal ]
p4171
sbsg28
(irule
Guard
p4172
(dp4173
g18
I00
sg19
(lp4174
(irule
FeatureMatrix
p4175
(dp4176
g37
(lp4177
(I00
g3062
tp4178
asg22
V[ -continuant ]
p4179
sbasg21
I00
sg22
g4179
sg23
I00
sg24
S'R'
sbsg34
(irule
FeatureMatrix
p4180
(dp4181
g37
(lp4182
(I00
g3068
tp4183
a(I00
g3090
tp4184
asg22
V[ -sonorant -voice ]
p4185
sbsg22
V[ -sonorant -voice ] ---> [ +nasal ] /  _ [ -continuant ]
p4186
sba(irule
Rule
p4187
(dp4188
g15
(irule
Guard
p4189
(dp4190
g18
I00
sg19
(lp4191
sg21
I00
sg22
V
sg23
I00
sg24
S'L'
sbsg25
(irule
FeatureMatrix
p4192
(dp4193
g37
(lp4194
(I01
g3053
tp4195
asg22
V[ +nasal ]
p4196
sbsg28
(irule
Guard
p4197
(dp4198
g18
I00
sg19
(lp4199
(irule
FeatureMatrix
p4200
(dp4201
g37
(lp4202
(I01
g3301
tp4203
asg22
V[ +coronal ]
p4204
sba(irule
FeatureMatrix
p4205
(dp4206
g37
(lp4207
sg22
V[  ]
p4208
sbasg21
I00
sg22
V[ +coronal ] [  ]
p4209
sg23
I00
sg24
S'R'
sbsg34
(irule
FeatureMatrix
p4210
(dp4211
g37
(lp4212
(I00
g3068
tp4213
asg22
V[ -sonorant ]
p4214
sbsg22
V[ -sonorant ] ---> [ +nasal ] /  _ [ +coronal ] [  ]
p4215
sba(irule
Rule
p4216
(dp4217
g15
(irule
Guard
p4218
(dp4219
g18
I00
sg19
(lp4220
sg21
I00
sg22
V
sg23
I00
sg24
S'L'
sbsg25
(irule
FeatureMatrix
p4221
(dp4222
g37
(lp4223
(I01
g3053
tp4224
asg22
V[ +nasal ]
p4225
sbsg28
(irule
Guard
p4226
(dp4227
g18
I00
sg19
(lp4228
(irule
FeatureMatrix
p4229
(dp4230
g37
(lp4231
(I01
g3053
tp4232
asg22
V[ +nasal ]
p4233
sba(irule
FeatureMatrix
p4234
(dp4235
g37
(lp4236
sg22
V[  ]
p4237
sbasg21
I00
sg22
V[ +nasal ] [  ]
p4238
sg23
I00
sg24
S'R'
sbsg34
(irule
FeatureMatrix
p4239
(dp4240
g37
(lp4241
(I00
g3068
tp4242
asg22
V[ -sonorant ]
p4243
sbsg22
V[ -sonorant ] ---> [ +nasal ] /  _ [ +nasal ] [  ]
p4244
sba(irule
Rule
p4245
(dp4246
g15
(irule
Guard
p4247
(dp4248
g18
I00
sg19
(lp4249
sg21
I00
sg22
V
sg23
I00
sg24
S'L'
sbsg25
(irule
FeatureMatrix
p4250
(dp4251
g37
(lp4252
(I01
g3053
tp4253
asg22
V[ +nasal ]
p4254
sbsg28
(irule
Guard
p4255
(dp4256
g18
I00
sg19
(lp4257
(irule
FeatureMatrix
p4258
(dp4259
g37
(lp4260
(I01
g3301
tp4261
asg22
V[ +coronal ]
p4262
sba(irule
FeatureMatrix
p4263
(dp4264
g37
(lp4265
sg22
V[  ]
p4266
sbasg21
I00
sg22
V[ +coronal ] [  ]
p4267
sg23
I00
sg24
S'R'
sbsg34
(irule
FeatureMatrix
p4268
(dp4269
g37
(lp4270
(I00
g3090
tp4271
asg22
V[ -voice ]
p4272
sbsg22
V[ -voice ] ---> [ +nasal ] /  _ [ +coronal ] [  ]
p4273
sba(irule
Rule
p4274
(dp4275
g15
(irule
Guard
p4276
(dp4277
g18
I00
sg19
(lp4278
sg21
I00
sg22
V
sg23
I00
sg24
S'L'
sbsg25
(irule
FeatureMatrix
p4279
(dp4280
g37
(lp4281
(I01
g3053
tp4282
asg22
V[ +nasal ]
p4283
sbsg28
(irule
Guard
p4284
(dp4285
g18
I00
sg19
(lp4286
(irule
FeatureMatrix
p4287
(dp4288
g37
(lp4289
sg22
V[  ]
p4290
sba(irule
FeatureMatrix
p4291
(dp4292
g37
(lp4293
(I01
g3062
tp4294
asg22
V[ +continuant ]
p4295
sbasg21
I00
sg22
V[  ] [ +continuant ]
p4296
sg23
I00
sg24
S'R'
sbsg34
(irule
FeatureMatrix
p4297
(dp4298
g37
(lp4299
(I00
g3090
tp4300
asg22
V[ -voice ]
p4301
sbsg22
V[ -voice ] ---> [ +nasal ] /  _ [  ] [ +continuant ]
p4302
sba(irule
Rule
p4303
(dp4304
g15
(irule
Guard
p4305
(dp4306
g18
I00
sg19
(lp4307
sg21
I00
sg22
V
sg23
I00
sg24
S'L'
sbsg25
(irule
FeatureMatrix
p4308
(dp4309
g37
(lp4310
(I01
g3053
tp4311
asg22
V[ +nasal ]
p4312
sbsg28
(irule
Guard
p4313
(dp4314
g18
I00
sg19
(lp4315
(irule
FeatureMatrix
p4316
(dp4317
g37
(lp4318
(I00
g3062
tp4319
a(I01
g3090
tp4320
asg22
V[ +voice -continuant ]
p4321
sbasg21
I00
sg22
g4321
sg23
I00
sg24
S'R'
sbsg34
(irule
FeatureMatrix
p4322
(dp4323
g37
(lp4324
(I00
g3068
tp4325
asg22
V[ -sonorant ]
p4326
sbsg22
V[ -sonorant ] ---> [ +nasal ] /  _ [ +voice -continuant ]
p4327
sba(irule
Rule
p4328
(dp4329
g15
(irule
Guard
p4330
(dp4331
g18
I00
sg19
(lp4332
sg21
I00
sg22
V
sg23
I00
sg24
S'L'
sbsg25
(irule
FeatureMatrix
p4333
(dp4334
g37
(lp4335
(I01
g3053
tp4336
asg22
V[ +nasal ]
p4337
sbsg28
(irule
Guard
p4338
(dp4339
g18
I00
sg19
(lp4340
(irule
FeatureMatrix
p4341
(dp4342
g37
(lp4343
(I00
g3110
tp4344
asg22
V[ -vowel ]
p4345
sba(irule
FeatureMatrix
p4346
(dp4347
g37
(lp4348
sg22
V[  ]
p4349
sbasg21
I00
sg22
V[ -vowel ] [  ]
p4350
sg23
I00
sg24
S'R'
sbsg34
(irule
FeatureMatrix
p4351
(dp4352
g37
(lp4353
(I00
g3090
tp4354
asg22
V[ -voice ]
p4355
sbsg22
V[ -voice ] ---> [ +nasal ] /  _ [ -vowel ] [  ]
p4356
sba(irule
Rule
p4357
(dp4358
g15
(irule
Guard
p4359
(dp4360
g18
I00
sg19
(lp4361
sg21
I00
sg22
V
sg23
I00
sg24
S'L'
sbsg25
(irule
FeatureMatrix
p4362
(dp4363
g37
(lp4364
(I01
g3053
tp4365
asg22
V[ +nasal ]
p4366
sbsg28
(irule
Guard
p4367
(dp4368
g18
I00
sg19
(lp4369
(irule
ConstantPhoneme
p4370
(dp4371
S'p'
Vn
sba(irule
FeatureMatrix
p4372
(dp4373
g37
(lp4374
sg22
V[  ]
p4375
sbasg21
I00
sg22
Vn [  ]
p4376
sg23
I00
sg24
S'R'
sbsg34
(irule
FeatureMatrix
p4377
(dp4378
g37
(lp4379
(I00
g3090
tp4380
asg22
V[ -voice ]
p4381
sbsg22
V[ -voice ] ---> [ +nasal ] /  _ n [  ]
p4382
sba(irule
Rule
p4383
(dp4384
g15
(irule
Guard
p4385
(dp4386
g18
I00
sg19
(lp4387
sg21
I00
sg22
V
sg23
I00
sg24
S'L'
sbsg25
(irule
FeatureMatrix
p4388
(dp4389
g37
(lp4390
(I01
g3053
tp4391
asg22
V[ +nasal ]
p4392
sbsg28
(irule
Guard
p4393
(dp4394
g18
I00
sg19
(lp4395
(irule
FeatureMatrix
p4396
(dp4397
g37
(lp4398
(I00
g3062
tp4399
a(I00
g3332
tp4400
asg22
V[ -continuant -low ]
p4401
sbasg21
I00
sg22
g4401
sg23
I00
sg24
S'R'
sbsg34
(irule
FeatureMatrix
p4402
(dp4403
g37
(lp4404
(I00
g3090
tp4405
asg22
V[ -voice ]
p4406
sbsg22
V[ -voice ] ---> [ +nasal ] /  _ [ -continuant -low ]
p4407
sba(irule
Rule
p4408
(dp4409
g15
(irule
Guard
p4410
(dp4411
g18
I00
sg19
(lp4412
sg21
I00
sg22
V
sg23
I00
sg24
S'L'
sbsg25
(irule
FeatureMatrix
p4413
(dp4414
g37
(lp4415
(I01
g3053
tp4416
asg22
V[ +nasal ]
p4417
sbsg28
(irule
Guard
p4418
(dp4419
g18
I00
sg19
(lp4420
(irule
FeatureMatrix
p4421
(dp4422
g37
(lp4423
(I00
g3110
tp4424
asg22
V[ -vowel ]
p4425
sba(irule
FeatureMatrix
p4426
(dp4427
g37
(lp4428
sg22
V[  ]
p4429
sbasg21
I00
sg22
V[ -vowel ] [  ]
p4430
sg23
I00
sg24
S'R'
sbsg34
(irule
FeatureMatrix
p4431
(dp4432
g37
(lp4433
(I00
g3068
tp4434
asg22
V[ -sonorant ]
p4435
sbsg22
V[ -sonorant ] ---> [ +nasal ] /  _ [ -vowel ] [  ]
p4436
sba(irule
Rule
p4437
(dp4438
g15
(irule
Guard
p4439
(dp4440
g18
I00
sg19
(lp4441
sg21
I00
sg22
V
sg23
I00
sg24
S'L'
sbsg25
(irule
FeatureMatrix
p4442
(dp4443
g37
(lp4444
(I01
g3053
tp4445
asg22
V[ +nasal ]
p4446
sbsg28
(irule
Guard
p4447
(dp4448
g18
I00
sg19
(lp4449
(irule
FeatureMatrix
p4450
(dp4451
g37
(lp4452
(I01
g3135
tp4453
asg22
V[ +anterior ]
p4454
sba(irule
FeatureMatrix
p4455
(dp4456
g37
(lp4457
sg22
V[  ]
p4458
sbasg21
I00
sg22
V[ +anterior ] [  ]
p4459
sg23
I00
sg24
S'R'
sbsg34
(irule
FeatureMatrix
p4460
(dp4461
g37
(lp4462
(I00
g3090
tp4463
asg22
V[ -voice ]
p4464
sbsg22
V[ -voice ] ---> [ +nasal ] /  _ [ +anterior ] [  ]
p4465
sba(irule
Rule
p4466
(dp4467
g15
(irule
Guard
p4468
(dp4469
g18
I00
sg19
(lp4470
sg21
I00
sg22
V
sg23
I00
sg24
S'L'
sbsg25
(irule
FeatureMatrix
p4471
(dp4472
g37
(lp4473
(I01
g3053
tp4474
asg22
V[ +nasal ]
p4475
sbsg28
(irule
Guard
p4476
(dp4477
g18
I00
sg19
(lp4478
(irule
FeatureMatrix
p4479
(dp4480
g37
(lp4481
(I00
g3062
tp4482
a(I00
g3110
tp4483
asg22
V[ -continuant -vowel ]
p4484
sbasg21
I00
sg22
g4484
sg23
I00
sg24
S'R'
sbsg34
(irule
FeatureMatrix
p4485
(dp4486
g37
(lp4487
(I00
g3090
tp4488
asg22
V[ -voice ]
p4489
sbsg22
V[ -voice ] ---> [ +nasal ] /  _ [ -continuant -vowel ]
p4490
sba(irule
Rule
p4491
(dp4492
g15
(irule
Guard
p4493
(dp4494
g18
I00
sg19
(lp4495
sg21
I00
sg22
V
sg23
I00
sg24
S'L'
sbsg25
(irule
FeatureMatrix
p4496
(dp4497
g37
(lp4498
(I01
g3053
tp4499
asg22
V[ +nasal ]
p4500
sbsg28
(irule
Guard
p4501
(dp4502
g18
I00
sg19
(lp4503
(irule
FeatureMatrix
p4504
(dp4505
g37
(lp4506
(I01
g3053
tp4507
asg22
V[ +nasal ]
p4508
sba(irule
FeatureMatrix
p4509
(dp4510
g37
(lp4511
sg22
V[  ]
p4512
sbasg21
I00
sg22
V[ +nasal ] [  ]
p4513
sg23
I00
sg24
S'R'
sbsg34
(irule
FeatureMatrix
p4514
(dp4515
g37
(lp4516
(I00
g3090
tp4517
asg22
V[ -voice ]
p4518
sbsg22
V[ -voice ] ---> [ +nasal ] /  _ [ +nasal ] [  ]
p4519
sba(irule
Rule
p4520
(dp4521
g15
(irule
Guard
p4522
(dp4523
g18
I00
sg19
(lp4524
sg21
I00
sg22
V
sg23
I00
sg24
S'L'
sbsg25
(irule
FeatureMatrix
p4525
(dp4526
g37
(lp4527
(I01
g3053
tp4528
asg22
V[ +nasal ]
p4529
sbsg28
(irule
Guard
p4530
(dp4531
g18
I00
sg19
(lp4532
(irule
FeatureMatrix
p4533
(dp4534
g37
(lp4535
(I00
g3062
tp4536
asg22
V[ -continuant ]
p4537
sbasg21
I00
sg22
g4537
sg23
I00
sg24
S'R'
sbsg34
(irule
FeatureMatrix
p4538
(dp4539
g37
(lp4540
(I00
g3062
tp4541
a(I00
g3053
tp4542
asg22
V[ -continuant -nasal ]
p4543
sbsg22
V[ -continuant -nasal ] ---> [ +nasal ] /  _ [ -continuant ]
p4544
sba(irule
Rule
p4545
(dp4546
g15
(irule
Guard
p4547
(dp4548
g18
I00
sg19
(lp4549
sg21
I00
sg22
V
sg23
I00
sg24
S'L'
sbsg25
(irule
FeatureMatrix
p4550
(dp4551
g37
(lp4552
(I01
g3053
tp4553
asg22
V[ +nasal ]
p4554
sbsg28
(irule
Guard
p4555
(dp4556
g18
I00
sg19
(lp4557
(irule
FeatureMatrix
p4558
(dp4559
g37
(lp4560
(I00
g3110
tp4561
asg22
V[ -vowel ]
p4562
sbasg21
I00
sg22
g4562
sg23
I00
sg24
S'R'
sbsg34
(irule
FeatureMatrix
p4563
(dp4564
g37
(lp4565
(I00
g3068
tp4566
a(I00
g3687
tp4567
asg22
V[ -sonorant -tense ]
p4568
sbsg22
V[ -sonorant -tense ] ---> [ +nasal ] /  _ [ -vowel ]
p4569
sba(irule
Rule
p4570
(dp4571
g15
(irule
Guard
p4572
(dp4573
g18
I00
sg19
(lp4574
sg21
I00
sg22
V
sg23
I00
sg24
S'L'
sbsg25
(irule
FeatureMatrix
p4575
(dp4576
g37
(lp4577
(I01
g3053
tp4578
asg22
V[ +nasal ]
p4579
sbsg28
(irule
Guard
p4580
(dp4581
g18
I00
sg19
(lp4582
(irule
FeatureMatrix
p4583
(dp4584
g37
(lp4585
(I00
g3062
tp4586
asg22
V[ -continuant ]
p4587
sbasg21
I00
sg22
g4587
sg23
I00
sg24
S'R'
sbsg34
(irule
FeatureMatrix
p4588
(dp4589
g37
(lp4590
(I00
g3110
tp4591
a(I00
g3090
tp4592
asg22
V[ -voice -vowel ]
p4593
sbsg22
V[ -voice -vowel ] ---> [ +nasal ] /  _ [ -continuant ]
p4594
sba(irule
Rule
p4595
(dp4596
g15
(irule
Guard
p4597
(dp4598
g18
I00
sg19
(lp4599
sg21
I00
sg22
V
sg23
I00
sg24
S'L'
sbsg25
(irule
FeatureMatrix
p4600
(dp4601
g37
(lp4602
(I01
g3053
tp4603
asg22
V[ +nasal ]
p4604
sbsg28
(irule
Guard
p4605
(dp4606
g18
I00
sg19
(lp4607
(irule
FeatureMatrix
p4608
(dp4609
g37
(lp4610
(I00
g3062
tp4611
a(I00
g3332
tp4612
asg22
V[ -continuant -low ]
p4613
sbasg21
I00
sg22
g4613
sg23
I00
sg24
S'R'
sbsg34
(irule
FeatureMatrix
p4614
(dp4615
g37
(lp4616
(I00
g3068
tp4617
asg22
V[ -sonorant ]
p4618
sbsg22
V[ -sonorant ] ---> [ +nasal ] /  _ [ -continuant -low ]
p4619
sba(irule
Rule
p4620
(dp4621
g15
(irule
Guard
p4622
(dp4623
g18
I00
sg19
(lp4624
sg21
I00
sg22
V
sg23
I00
sg24
S'L'
sbsg25
(irule
FeatureMatrix
p4625
(dp4626
g37
(lp4627
(I01
g3053
tp4628
asg22
V[ +nasal ]
p4629
sbsg28
(irule
Guard
p4630
(dp4631
g18
I00
sg19
(lp4632
(irule
FeatureMatrix
p4633
(dp4634
g37
(lp4635
(I00
g3062
tp4636
a(I00
S'aspirated'
p4637
tp4638
asg22
V[ -aspirated -continuant ]
p4639
sbasg21
I00
sg22
g4639
sg23
I00
sg24
S'R'
sbsg34
(irule
FeatureMatrix
p4640
(dp4641
g37
(lp4642
(I00
g3068
tp4643
asg22
V[ -sonorant ]
p4644
sbsg22
V[ -sonorant ] ---> [ +nasal ] /  _ [ -aspirated -continuant ]
p4645
sba(irule
Rule
p4646
(dp4647
g15
(irule
Guard
p4648
(dp4649
g18
I00
sg19
(lp4650
sg21
I00
sg22
V
sg23
I00
sg24
S'L'
sbsg25
(irule
FeatureMatrix
p4651
(dp4652
g37
(lp4653
(I01
g3053
tp4654
asg22
V[ +nasal ]
p4655
sbsg28
(irule
Guard
p4656
(dp4657
g18
I00
sg19
(lp4658
(irule
FeatureMatrix
p4659
(dp4660
g37
(lp4661
(I01
g3135
tp4662
asg22
V[ +anterior ]
p4663
sbasg21
I00
sg22
g4663
sg23
I00
sg24
S'R'
sbsg34
(irule
FeatureMatrix
p4664
(dp4665
g37
(lp4666
(I00
g3068
tp4667
a(I00
g3687
tp4668
asg22
V[ -sonorant -tense ]
p4669
sbsg22
V[ -sonorant -tense ] ---> [ +nasal ] /  _ [ +anterior ]
p4670
sba(irule
Rule
p4671
(dp4672
g15
(irule
Guard
p4673
(dp4674
g18
I00
sg19
(lp4675
sg21
I00
sg22
V
sg23
I00
sg24
S'L'
sbsg25
(irule
FeatureMatrix
p4676
(dp4677
g37
(lp4678
(I01
g3053
tp4679
asg22
V[ +nasal ]
p4680
sbsg28
(irule
Guard
p4681
(dp4682
g18
I00
sg19
(lp4683
(irule
FeatureMatrix
p4684
(dp4685
g37
(lp4686
(I00
g3062
tp4687
asg22
V[ -continuant ]
p4688
sbasg21
I00
sg22
g4688
sg23
I00
sg24
S'R'
sbsg34
(irule
FeatureMatrix
p4689
(dp4690
g37
(lp4691
(I00
g3332
tp4692
a(I00
g3090
tp4693
asg22
V[ -low -voice ]
p4694
sbsg22
V[ -low -voice ] ---> [ +nasal ] /  _ [ -continuant ]
p4695
sba(irule
Rule
p4696
(dp4697
g15
(irule
Guard
p4698
(dp4699
g18
I00
sg19
(lp4700
sg21
I00
sg22
V
sg23
I00
sg24
S'L'
sbsg25
(irule
FeatureMatrix
p4701
(dp4702
g37
(lp4703
(I01
g3053
tp4704
asg22
V[ +nasal ]
p4705
sbsg28
(irule
Guard
p4706
(dp4707
g18
I00
sg19
(lp4708
(irule
FeatureMatrix
p4709
(dp4710
g37
(lp4711
(I00
g3062
tp4712
a(I01
g3090
tp4713
asg22
V[ +voice -continuant ]
p4714
sbasg21
I00
sg22
g4714
sg23
I00
sg24
S'R'
sbsg34
(irule
FeatureMatrix
p4715
(dp4716
g37
(lp4717
(I00
g3090
tp4718
asg22
V[ -voice ]
p4719
sbsg22
V[ -voice ] ---> [ +nasal ] /  _ [ +voice -continuant ]
p4720
sba(irule
Rule
p4721
(dp4722
g15
(irule
Guard
p4723
(dp4724
g18
I00
sg19
(lp4725
sg21
I00
sg22
V
sg23
I00
sg24
S'L'
sbsg25
(irule
FeatureMatrix
p4726
(dp4727
g37
(lp4728
(I01
g3053
tp4729
asg22
V[ +nasal ]
p4730
sbsg28
(irule
Guard
p4731
(dp4732
g18
I00
sg19
(lp4733
(irule
FeatureMatrix
p4734
(dp4735
g37
(lp4736
(I00
g3062
tp4737
a(I00
g3717
tp4738
asg22
V[ -back -continuant ]
p4739
sbasg21
I00
sg22
g4739
sg23
I00
sg24
S'R'
sbsg34
(irule
FeatureMatrix
p4740
(dp4741
g37
(lp4742
(I00
g3068
tp4743
asg22
V[ -sonorant ]
p4744
sbsg22
V[ -sonorant ] ---> [ +nasal ] /  _ [ -back -continuant ]
p4745
sba(irule
Rule
p4746
(dp4747
g15
(irule
Guard
p4748
(dp4749
g18
I00
sg19
(lp4750
sg21
I00
sg22
V
sg23
I00
sg24
S'L'
sbsg25
(irule
FeatureMatrix
p4751
(dp4752
g37
(lp4753
(I01
g3053
tp4754
asg22
V[ +nasal ]
p4755
sbsg28
(irule
Guard
p4756
(dp4757
g18
I00
sg19
(lp4758
(irule
FeatureMatrix
p4759
(dp4760
g37
(lp4761
(I00
g3062
tp4762
a(I01
g3068
tp4763
asg22
V[ +sonorant -continuant ]
p4764
sbasg21
I00
sg22
g4764
sg23
I00
sg24
S'R'
sbsg34
(irule
FeatureMatrix
p4765
(dp4766
g37
(lp4767
(I00
g3068
tp4768
asg22
V[ -sonorant ]
p4769
sbsg22
V[ -sonorant ] ---> [ +nasal ] /  _ [ +sonorant -continuant ]
p4770
sba(irule
Rule
p4771
(dp4772
g15
(irule
Guard
p4773
(dp4774
g18
I00
sg19
(lp4775
sg21
I00
sg22
V
sg23
I00
sg24
S'L'
sbsg25
(irule
FeatureMatrix
p4776
(dp4777
g37
(lp4778
(I01
g3053
tp4779
asg22
V[ +nasal ]
p4780
sbsg28
(irule
Guard
p4781
(dp4782
g18
I00
sg19
(lp4783
(irule
FeatureMatrix
p4784
(dp4785
g37
(lp4786
(I01
g3301
tp4787
asg22
V[ +coronal ]
p4788
sbasg21
I00
sg22
g4788
sg23
I00
sg24
S'R'
sbsg34
(irule
FeatureMatrix
p4789
(dp4790
g37
(lp4791
(I00
g3068
tp4792
a(I00
g3110
tp4793
asg22
V[ -sonorant -vowel ]
p4794
sbsg22
V[ -sonorant -vowel ] ---> [ +nasal ] /  _ [ +coronal ]
p4795
sba(irule
Rule
p4796
(dp4797
g15
(irule
Guard
p4798
(dp4799
g18
I00
sg19
(lp4800
sg21
I00
sg22
V
sg23
I00
sg24
S'L'
sbsg25
(irule
FeatureMatrix
p4801
(dp4802
g37
(lp4803
(I01
g3053
tp4804
asg22
V[ +nasal ]
p4805
sbsg28
(irule
Guard
p4806
(dp4807
g18
I00
sg19
(lp4808
(irule
FeatureMatrix
p4809
(dp4810
g37
(lp4811
(I00
g3717
tp4812
a(I00
g3687
tp4813
asg22
V[ -back -tense ]
p4814
sbasg21
I00
sg22
g4814
sg23
I00
sg24
S'R'
sbsg34
(irule
FeatureMatrix
p4815
(dp4816
g37
(lp4817
(I00
g3090
tp4818
asg22
V[ -voice ]
p4819
sbsg22
V[ -voice ] ---> [ +nasal ] /  _ [ -back -tense ]
p4820
sba(irule
Rule
p4821
(dp4822
g15
(irule
Guard
p4823
(dp4824
g18
I00
sg19
(lp4825
sg21
I00
sg22
V
sg23
I00
sg24
S'L'
sbsg25
(irule
FeatureMatrix
p4826
(dp4827
g37
(lp4828
(I01
g3053
tp4829
asg22
V[ +nasal ]
p4830
sbsg28
(irule
Guard
p4831
(dp4832
g18
I00
sg19
(lp4833
(irule
FeatureMatrix
p4834
(dp4835
g37
(lp4836
(I00
g3062
tp4837
asg22
V[ -continuant ]
p4838
sbasg21
I00
sg22
g4838
sg23
I00
sg24
S'R'
sbsg34
(irule
FeatureMatrix
p4839
(dp4840
g37
(lp4841
(I00
g3687
tp4842
a(I00
g3090
tp4843
asg22
V[ -tense -voice ]
p4844
sbsg22
V[ -tense -voice ] ---> [ +nasal ] /  _ [ -continuant ]
p4845
sba(irule
Rule
p4846
(dp4847
g15
(irule
Guard
p4848
(dp4849
g18
I00
sg19
(lp4850
sg21
I00
sg22
V
sg23
I00
sg24
S'L'
sbsg25
(irule
FeatureMatrix
p4851
(dp4852
g37
(lp4853
(I01
g3053
tp4854
asg22
V[ +nasal ]
p4855
sbsg28
(irule
Guard
p4856
(dp4857
g18
I00
sg19
(lp4858
(irule
FeatureMatrix
p4859
(dp4860
g37
(lp4861
(I00
g3110
tp4862
a(I00
g3490
tp4863
asg22
V[ -sibilant -vowel ]
p4864
sbasg21
I00
sg22
g4864
sg23
I00
sg24
S'R'
sbsg34
(irule
FeatureMatrix
p4865
(dp4866
g37
(lp4867
(I00
g3068
tp4868
asg22
V[ -sonorant ]
p4869
sbsg22
V[ -sonorant ] ---> [ +nasal ] /  _ [ -sibilant -vowel ]
p4870
sba(irule
Rule
p4871
(dp4872
g15
(irule
Guard
p4873
(dp4874
g18
I00
sg19
(lp4875
sg21
I00
sg22
V
sg23
I00
sg24
S'L'
sbsg25
(irule
FeatureMatrix
p4876
(dp4877
g37
(lp4878
(I01
g3053
tp4879
asg22
V[ +nasal ]
p4880
sbsg28
(irule
Guard
p4881
(dp4882
g18
I00
sg19
(lp4883
(irule
FeatureMatrix
p4884
(dp4885
g37
(lp4886
(I00
g3110
tp4887
asg22
V[ -vowel ]
p4888
sbasg21
I00
sg22
g4888
sg23
I00
sg24
S'R'
sbsg34
(irule
FeatureMatrix
p4889
(dp4890
g37
(lp4891
(I00
g3110
tp4892
a(I00
g3090
tp4893
asg22
V[ -voice -vowel ]
p4894
sbsg22
V[ -voice -vowel ] ---> [ +nasal ] /  _ [ -vowel ]
p4895
sba(irule
Rule
p4896
(dp4897
g15
(irule
Guard
p4898
(dp4899
g18
I00
sg19
(lp4900
sg21
I00
sg22
V
sg23
I00
sg24
S'L'
sbsg25
(irule
FeatureMatrix
p4901
(dp4902
g37
(lp4903
(I01
g3053
tp4904
asg22
V[ +nasal ]
p4905
sbsg28
(irule
Guard
p4906
(dp4907
g18
I00
sg19
(lp4908
(irule
FeatureMatrix
p4909
(dp4910
g37
(lp4911
(I01
g3135
tp4912
asg22
V[ +anterior ]
p4913
sbasg21
I00
sg22
g4913
sg23
I00
sg24
S'R'
sbsg34
(irule
FeatureMatrix
p4914
(dp4915
g37
(lp4916
(I00
g3332
tp4917
a(I00
g3090
tp4918
asg22
V[ -low -voice ]
p4919
sbsg22
V[ -low -voice ] ---> [ +nasal ] /  _ [ +anterior ]
p4920
sba(irule
Rule
p4921
(dp4922
g15
(irule
Guard
p4923
(dp4924
g18
I00
sg19
(lp4925
sg21
I00
sg22
V
sg23
I00
sg24
S'L'
sbsg25
(irule
FeatureMatrix
p4926
(dp4927
g37
(lp4928
(I01
g3053
tp4929
asg22
V[ +nasal ]
p4930
sbsg28
(irule
Guard
p4931
(dp4932
g18
I00
sg19
(lp4933
(irule
FeatureMatrix
p4934
(dp4935
g37
(lp4936
(I00
g3062
tp4937
a(I00
g3687
tp4938
asg22
V[ -continuant -tense ]
p4939
sbasg21
I00
sg22
g4939
sg23
I00
sg24
S'R'
sbsg34
(irule
FeatureMatrix
p4940
(dp4941
g37
(lp4942
(I00
g3068
tp4943
asg22
V[ -sonorant ]
p4944
sbsg22
V[ -sonorant ] ---> [ +nasal ] /  _ [ -continuant -tense ]
p4945
sba(irule
Rule
p4946
(dp4947
g15
(irule
Guard
p4948
(dp4949
g18
I00
sg19
(lp4950
sg21
I00
sg22
V
sg23
I00
sg24
S'L'
sbsg25
(irule
FeatureMatrix
p4951
(dp4952
g37
(lp4953
(I01
g3053
tp4954
asg22
V[ +nasal ]
p4955
sbsg28
(irule
Guard
p4956
(dp4957
g18
I00
sg19
(lp4958
(irule
FeatureMatrix
p4959
(dp4960
g37
(lp4961
(I00
g3062
tp4962
asg22
V[ -continuant ]
p4963
sbasg21
I00
sg22
g4963
sg23
I00
sg24
S'R'
sbsg34
(irule
FeatureMatrix
p4964
(dp4965
g37
(lp4966
(I00
g4127
tp4967
a(I00
g3068
tp4968
asg22
V[ -rounded -sonorant ]
p4969
sbsg22
V[ -rounded -sonorant ] ---> [ +nasal ] /  _ [ -continuant ]
p4970
sba(irule
Rule
p4971
(dp4972
g15
(irule
Guard
p4973
(dp4974
g18
I00
sg19
(lp4975
sg21
I00
sg22
V
sg23
I00
sg24
S'L'
sbsg25
(irule
FeatureMatrix
p4976
(dp4977
g37
(lp4978
(I01
g3053
tp4979
asg22
V[ +nasal ]
p4980
sbsg28
(irule
Guard
p4981
(dp4982
g18
I00
sg19
(lp4983
(irule
FeatureMatrix
p4984
(dp4985
g37
(lp4986
(I00
g3110
tp4987
a(I00
g3743
tp4988
asg22
V[ -unreleased -vowel ]
p4989
sbasg21
I00
sg22
g4989
sg23
I00
sg24
S'R'
sbsg34
(irule
FeatureMatrix
p4990
(dp4991
g37
(lp4992
(I00
g3068
tp4993
asg22
V[ -sonorant ]
p4994
sbsg22
V[ -sonorant ] ---> [ +nasal ] /  _ [ -unreleased -vowel ]
p4995
sba(irule
Rule
p4996
(dp4997
g15
(irule
Guard
p4998
(dp4999
g18
I00
sg19
(lp5000
sg21
I00
sg22
V
sg23
I00
sg24
S'L'
sbsg25
(irule
FeatureMatrix
p5001
(dp5002
g37
(lp5003
(I01
g3053
tp5004
asg22
V[ +nasal ]
p5005
sbsg28
(irule
Guard
p5006
(dp5007
g18
I00
sg19
(lp5008
(irule
FeatureMatrix
p5009
(dp5010
g37
(lp5011
(I00
g3062
tp5012
a(I00
g3490
tp5013
asg22
V[ -continuant -sibilant ]
p5014
sbasg21
I00
sg22
g5014
sg23
I00
sg24
S'R'
sbsg34
(irule
FeatureMatrix
p5015
(dp5016
g37
(lp5017
(I00
g3090
tp5018
asg22
V[ -voice ]
p5019
sbsg22
V[ -voice ] ---> [ +nasal ] /  _ [ -continuant -sibilant ]
p5020
sba(irule
Rule
p5021
(dp5022
g15
(irule
Guard
p5023
(dp5024
g18
I00
sg19
(lp5025
sg21
I00
sg22
V
sg23
I00
sg24
S'L'
sbsg25
(irule
FeatureMatrix
p5026
(dp5027
g37
(lp5028
(I01
g3053
tp5029
asg22
V[ +nasal ]
p5030
sbsg28
(irule
Guard
p5031
(dp5032
g18
I00
sg19
(lp5033
(irule
FeatureMatrix
p5034
(dp5035
g37
(lp5036
(I01
g3053
tp5037
a(I00
S'high'
p5038
tp5039
asg22
V[ +nasal -high ]
p5040
sbasg21
I00
sg22
g5040
sg23
I00
sg24
S'R'
sbsg34
(irule
FeatureMatrix
p5041
(dp5042
g37
(lp5043
(I00
g3090
tp5044
asg22
V[ -voice ]
p5045
sbsg22
V[ -voice ] ---> [ +nasal ] /  _ [ +nasal -high ]
p5046
sba(irule
Rule
p5047
(dp5048
g15
(irule
Guard
p5049
(dp5050
g18
I00
sg19
(lp5051
sg21
I00
sg22
V
sg23
I00
sg24
S'L'
sbsg25
(irule
FeatureMatrix
p5052
(dp5053
g37
(lp5054
(I01
g3053
tp5055
asg22
V[ +nasal ]
p5056
sbsg28
(irule
Guard
p5057
(dp5058
g18
I00
sg19
(lp5059
(irule
FeatureMatrix
p5060
(dp5061
g37
(lp5062
(I00
g3062
tp5063
a(I00
g4637
tp5064
asg22
V[ -aspirated -continuant ]
p5065
sbasg21
I00
sg22
g5065
sg23
I00
sg24
S'R'
sbsg34
(irule
FeatureMatrix
p5066
(dp5067
g37
(lp5068
(I00
g3090
tp5069
asg22
V[ -voice ]
p5070
sbsg22
V[ -voice ] ---> [ +nasal ] /  _ [ -aspirated -continuant ]
p5071
sba(irule
Rule
p5072
(dp5073
g15
(irule
Guard
p5074
(dp5075
g18
I00
sg19
(lp5076
sg21
I00
sg22
V
sg23
I00
sg24
S'L'
sbsg25
(irule
FeatureMatrix
p5077
(dp5078
g37
(lp5079
(I01
g3053
tp5080
asg22
V[ +nasal ]
p5081
sbsg28
(irule
Guard
p5082
(dp5083
g18
I00
sg19
(lp5084
(irule
FeatureMatrix
p5085
(dp5086
g37
(lp5087
(I01
g3135
tp5088
asg22
V[ +anterior ]
p5089
sbasg21
I00
sg22
g5089
sg23
I00
sg24
S'R'
sbsg34
(irule
FeatureMatrix
p5090
(dp5091
g37
(lp5092
(I00
g3068
tp5093
a(I00
g3110
tp5094
asg22
V[ -sonorant -vowel ]
p5095
sbsg22
V[ -sonorant -vowel ] ---> [ +nasal ] /  _ [ +anterior ]
p5096
sba(irule
Rule
p5097
(dp5098
g15
(irule
Guard
p5099
(dp5100
g18
I00
sg19
(lp5101
sg21
I00
sg22
V
sg23
I00
sg24
S'L'
sbsg25
(irule
FeatureMatrix
p5102
(dp5103
g37
(lp5104
(I01
g3053
tp5105
asg22
V[ +nasal ]
p5106
sbsg28
(irule
Guard
p5107
(dp5108
g18
I00
sg19
(lp5109
(irule
FeatureMatrix
p5110
(dp5111
g37
(lp5112
(I00
g3062
tp5113
a(I00
g5038
tp5114
asg22
V[ -continuant -high ]
p5115
sbasg21
I00
sg22
g5115
sg23
I00
sg24
S'R'
sbsg34
(irule
FeatureMatrix
p5116
(dp5117
g37
(lp5118
(I00
g3090
tp5119
asg22
V[ -voice ]
p5120
sbsg22
V[ -voice ] ---> [ +nasal ] /  _ [ -continuant -high ]
p5121
sba(irule
Rule
p5122
(dp5123
g15
(irule
Guard
p5124
(dp5125
g18
I00
sg19
(lp5126
sg21
I00
sg22
V
sg23
I00
sg24
S'L'
sbsg25
(irule
FeatureMatrix
p5127
(dp5128
g37
(lp5129
(I01
g3053
tp5130
asg22
V[ +nasal ]
p5131
sbsg28
(irule
Guard
p5132
(dp5133
g18
I00
sg19
(lp5134
(irule
FeatureMatrix
p5135
(dp5136
g37
(lp5137
(I00
g3717
tp5138
asg22
V[ -back ]
p5139
sbasg21
I00
sg22
g5139
sg23
I00
sg24
S'R'
sbsg34
(irule
FeatureMatrix
p5140
(dp5141
g37
(lp5142
(I00
g3062
tp5143
a(I00
g3053
tp5144
asg22
V[ -continuant -nasal ]
p5145
sbsg22
V[ -continuant -nasal ] ---> [ +nasal ] /  _ [ -back ]
p5146
sba(irule
Rule
p5147
(dp5148
g15
(irule
Guard
p5149
(dp5150
g18
I00
sg19
(lp5151
sg21
I00
sg22
V
sg23
I00
sg24
S'L'
sbsg25
(irule
FeatureMatrix
p5152
(dp5153
g37
(lp5154
(I01
g3053
tp5155
asg22
V[ +nasal ]
p5156
sbsg28
(irule
Guard
p5157
(dp5158
g18
I00
sg19
(lp5159
(irule
FeatureMatrix
p5160
(dp5161
g37
(lp5162
(I00
g3332
tp5163
a(I00
g3110
tp5164
asg22
V[ -low -vowel ]
p5165
sbasg21
I00
sg22
g5165
sg23
I00
sg24
S'R'
sbsg34
(irule
FeatureMatrix
p5166
(dp5167
g37
(lp5168
(I00
g3068
tp5169
asg22
V[ -sonorant ]
p5170
sbsg22
V[ -sonorant ] ---> [ +nasal ] /  _ [ -low -vowel ]
p5171
sba(irule
Rule
p5172
(dp5173
g15
(irule
Guard
p5174
(dp5175
g18
I00
sg19
(lp5176
sg21
I00
sg22
V
sg23
I00
sg24
S'L'
sbsg25
(irule
FeatureMatrix
p5177
(dp5178
g37
(lp5179
(I01
g3053
tp5180
asg22
V[ +nasal ]
p5181
sbsg28
(irule
Guard
p5182
(dp5183
g18
I00
sg19
(lp5184
(irule
FeatureMatrix
p5185
(dp5186
g37
(lp5187
(I01
g3053
tp5188
a(I00
g3743
tp5189
asg22
V[ +nasal -unreleased ]
p5190
sbasg21
I00
sg22
g5190
sg23
I00
sg24
S'R'
sbsg34
(irule
FeatureMatrix
p5191
(dp5192
g37
(lp5193
(I00
g3090
tp5194
asg22
V[ -voice ]
p5195
sbsg22
V[ -voice ] ---> [ +nasal ] /  _ [ +nasal -unreleased ]
p5196
sba(irule
Rule
p5197
(dp5198
g15
(irule
Guard
p5199
(dp5200
g18
I00
sg19
(lp5201
sg21
I00
sg22
V
sg23
I00
sg24
S'L'
sbsg25
(irule
FeatureMatrix
p5202
(dp5203
g37
(lp5204
(I01
g3053
tp5205
asg22
V[ +nasal ]
p5206
sbsg28
(irule
Guard
p5207
(dp5208
g18
I00
sg19
(lp5209
(irule
FeatureMatrix
p5210
(dp5211
g37
(lp5212
(I00
g3062
tp5213
a(I00
g3687
tp5214
asg22
V[ -continuant -tense ]
p5215
sbasg21
I00
sg22
g5215
sg23
I00
sg24
S'R'
sbsg34
(irule
FeatureMatrix
p5216
(dp5217
g37
(lp5218
(I00
g3090
tp5219
asg22
V[ -voice ]
p5220
sbsg22
V[ -voice ] ---> [ +nasal ] /  _ [ -continuant -tense ]
p5221
sba(irule
Rule
p5222
(dp5223
g15
(irule
Guard
p5224
(dp5225
g18
I00
sg19
(lp5226
sg21
I00
sg22
V
sg23
I00
sg24
S'L'
sbsg25
(irule
FeatureMatrix
p5227
(dp5228
g37
(lp5229
(I01
g3053
tp5230
asg22
V[ +nasal ]
p5231
sbsg28
(irule
Guard
p5232
(dp5233
g18
I00
sg19
(lp5234
(irule
FeatureMatrix
p5235
(dp5236
g37
(lp5237
(I00
g4127
tp5238
a(I00
g3062
tp5239
asg22
V[ -continuant -rounded ]
p5240
sbasg21
I00
sg22
g5240
sg23
I00
sg24
S'R'
sbsg34
(irule
FeatureMatrix
p5241
(dp5242
g37
(lp5243
(I00
g3068
tp5244
asg22
V[ -sonorant ]
p5245
sbsg22
V[ -sonorant ] ---> [ +nasal ] /  _ [ -continuant -rounded ]
p5246
sba(irule
Rule
p5247
(dp5248
g15
(irule
Guard
p5249
(dp5250
g18
I00
sg19
(lp5251
sg21
I00
sg22
V
sg23
I00
sg24
S'L'
sbsg25
(irule
FeatureMatrix
p5252
(dp5253
g37
(lp5254
(I01
g3053
tp5255
asg22
V[ +nasal ]
p5256
sbsg28
(irule
Guard
p5257
(dp5258
g18
I00
sg19
(lp5259
(irule
FeatureMatrix
p5260
(dp5261
g37
(lp5262
(I00
g3062
tp5263
a(I00
g3717
tp5264
asg22
V[ -back -continuant ]
p5265
sbasg21
I00
sg22
g5265
sg23
I00
sg24
S'R'
sbsg34
(irule
FeatureMatrix
p5266
(dp5267
g37
(lp5268
(I00
g3090
tp5269
asg22
V[ -voice ]
p5270
sbsg22
V[ -voice ] ---> [ +nasal ] /  _ [ -back -continuant ]
p5271
sba(irule
Rule
p5272
(dp5273
g15
(irule
Guard
p5274
(dp5275
g18
I00
sg19
(lp5276
sg21
I00
sg22
V
sg23
I00
sg24
S'L'
sbsg25
(irule
FeatureMatrix
p5277
(dp5278
g37
(lp5279
(I01
g3053
tp5280
asg22
V[ +nasal ]
p5281
sbsg28
(irule
Guard
p5282
(dp5283
g18
I00
sg19
(lp5284
(irule
FeatureMatrix
p5285
(dp5286
g37
(lp5287
(I00
g3062
tp5288
a(I01
g3068
tp5289
asg22
V[ +sonorant -continuant ]
p5290
sbasg21
I00
sg22
g5290
sg23
I00
sg24
S'R'
sbsg34
(irule
FeatureMatrix
p5291
(dp5292
g37
(lp5293
(I00
g3090
tp5294
asg22
V[ -voice ]
p5295
sbsg22
V[ -voice ] ---> [ +nasal ] /  _ [ +sonorant -continuant ]
p5296
sba(irule
Rule
p5297
(dp5298
g15
(irule
Guard
p5299
(dp5300
g18
I00
sg19
(lp5301
sg21
I00
sg22
V
sg23
I00
sg24
S'L'
sbsg25
(irule
FeatureMatrix
p5302
(dp5303
g37
(lp5304
(I01
g3053
tp5305
asg22
V[ +nasal ]
p5306
sbsg28
(irule
Guard
p5307
(dp5308
g18
I00
sg19
(lp5309
(irule
FeatureMatrix
p5310
(dp5311
g37
(lp5312
(I00
g3110
tp5313
a(I00
g3743
tp5314
asg22
V[ -unreleased -vowel ]
p5315
sbasg21
I00
sg22
g5315
sg23
I00
sg24
S'R'
sbsg34
(irule
FeatureMatrix
p5316
(dp5317
g37
(lp5318
(I00
g3090
tp5319
asg22
V[ -voice ]
p5320
sbsg22
V[ -voice ] ---> [ +nasal ] /  _ [ -unreleased -vowel ]
p5321
sba(irule
Rule
p5322
(dp5323
g15
(irule
Guard
p5324
(dp5325
g18
I00
sg19
(lp5326
sg21
I00
sg22
V
sg23
I00
sg24
S'L'
sbsg25
(irule
FeatureMatrix
p5327
(dp5328
g37
(lp5329
(I01
g3053
tp5330
asg22
V[ +nasal ]
p5331
sbsg28
(irule
Guard
p5332
(dp5333
g18
I00
sg19
(lp5334
(irule
FeatureMatrix
p5335
(dp5336
g37
(lp5337
(I01
g3053
tp5338
asg22
V[ +nasal ]
p5339
sbasg21
I00
sg22
g5339
sg23
I00
sg24
S'R'
sbsg34
(irule
FeatureMatrix
p5340
(dp5341
g37
(lp5342
(I00
g3110
tp5343
a(I00
g3090
tp5344
asg22
V[ -voice -vowel ]
p5345
sbsg22
V[ -voice -vowel ] ---> [ +nasal ] /  _ [ +nasal ]
p5346
sba(irule
Rule
p5347
(dp5348
g15
(irule
Guard
p5349
(dp5350
g18
I00
sg19
(lp5351
sg21
I00
sg22
V
sg23
I00
sg24
S'L'
sbsg25
(irule
FeatureMatrix
p5352
(dp5353
g37
(lp5354
(I01
g3053
tp5355
asg22
V[ +nasal ]
p5356
sbsg28
(irule
Guard
p5357
(dp5358
g18
I00
sg19
(lp5359
(irule
FeatureMatrix
p5360
(dp5361
g37
(lp5362
(I01
g3301
tp5363
a(I00
g3332
tp5364
asg22
V[ +coronal -low ]
p5365
sbasg21
I00
sg22
g5365
sg23
I00
sg24
S'R'
sbsg34
(irule
FeatureMatrix
p5366
(dp5367
g37
(lp5368
(I00
g3068
tp5369
asg22
V[ -sonorant ]
p5370
sbsg22
V[ -sonorant ] ---> [ +nasal ] /  _ [ +coronal -low ]
p5371
sba(irule
Rule
p5372
(dp5373
g15
(irule
Guard
p5374
(dp5375
g18
I00
sg19
(lp5376
sg21
I00
sg22
V
sg23
I00
sg24
S'L'
sbsg25
(irule
FeatureMatrix
p5377
(dp5378
g37
(lp5379
(I01
g3053
tp5380
asg22
V[ +nasal ]
p5381
sbsg28
(irule
Guard
p5382
(dp5383
g18
I00
sg19
(lp5384
(irule
FeatureMatrix
p5385
(dp5386
g37
(lp5387
(I01
g3053
tp5388
asg22
V[ +nasal ]
p5389
sbasg21
I00
sg22
g5389
sg23
I00
sg24
S'R'
sbsg34
(irule
FeatureMatrix
p5390
(dp5391
g37
(lp5392
(I00
g3068
tp5393
a(I00
g3687
tp5394
asg22
V[ -sonorant -tense ]
p5395
sbsg22
V[ -sonorant -tense ] ---> [ +nasal ] /  _ [ +nasal ]
p5396
sba(irule
Rule
p5397
(dp5398
g15
(irule
Guard
p5399
(dp5400
g18
I00
sg19
(lp5401
sg21
I00
sg22
V
sg23
I00
sg24
S'L'
sbsg25
(irule
FeatureMatrix
p5402
(dp5403
g37
(lp5404
(I01
g3053
tp5405
asg22
V[ +nasal ]
p5406
sbsg28
(irule
Guard
p5407
(dp5408
g18
I00
sg19
(lp5409
(irule
FeatureMatrix
p5410
(dp5411
g37
(lp5412
(I01
g3135
tp5413
a(I00
g4637
tp5414
asg22
V[ +anterior -aspirated ]
p5415
sbasg21
I00
sg22
g5415
sg23
I00
sg24
S'R'
sbsg34
(irule
FeatureMatrix
p5416
(dp5417
g37
(lp5418
(I00
g3090
tp5419
asg22
V[ -voice ]
p5420
sbsg22
V[ -voice ] ---> [ +nasal ] /  _ [ +anterior -aspirated ]
p5421
sba(irule
Rule
p5422
(dp5423
g15
(irule
Guard
p5424
(dp5425
g18
I00
sg19
(lp5426
sg21
I00
sg22
V
sg23
I00
sg24
S'L'
sbsg25
(irule
FeatureMatrix
p5427
(dp5428
g37
(lp5429
(I01
g3053
tp5430
asg22
V[ +nasal ]
p5431
sbsg28
(irule
Guard
p5432
(dp5433
g18
I00
sg19
(lp5434
(irule
FeatureMatrix
p5435
(dp5436
g37
(lp5437
(I01
g3053
tp5438
a(I00
g3717
tp5439
asg22
V[ +nasal -back ]
p5440
sbasg21
I00
sg22
g5440
sg23
I00
sg24
S'R'
sbsg34
(irule
FeatureMatrix
p5441
(dp5442
g37
(lp5443
(I00
g3068
tp5444
asg22
V[ -sonorant ]
p5445
sbsg22
V[ -sonorant ] ---> [ +nasal ] /  _ [ +nasal -back ]
p5446
sba(irule
Rule
p5447
(dp5448
g15
(irule
Guard
p5449
(dp5450
g18
I00
sg19
(lp5451
sg21
I00
sg22
V
sg23
I00
sg24
S'L'
sbsg25
(irule
FeatureMatrix
p5452
(dp5453
g37
(lp5454
(I01
g3053
tp5455
asg22
V[ +nasal ]
p5456
sbsg28
(irule
Guard
p5457
(dp5458
g18
I00
sg19
(lp5459
(irule
FeatureMatrix
p5460
(dp5461
g37
(lp5462
(I01
g3135
tp5463
asg22
V[ +anterior ]
p5464
sbasg21
I00
sg22
g5464
sg23
I00
sg24
S'R'
sbsg34
(irule
FeatureMatrix
p5465
(dp5466
g37
(lp5467
(I00
g3110
tp5468
a(I00
g3090
tp5469
asg22
V[ -voice -vowel ]
p5470
sbsg22
V[ -voice -vowel ] ---> [ +nasal ] /  _ [ +anterior ]
p5471
sba(irule
Rule
p5472
(dp5473
g15
(irule
Guard
p5474
(dp5475
g18
I00
sg19
(lp5476
sg21
I00
sg22
V
sg23
I00
sg24
S'L'
sbsg25
(irule
FeatureMatrix
p5477
(dp5478
g37
(lp5479
(I01
g3053
tp5480
asg22
V[ +nasal ]
p5481
sbsg28
(irule
Guard
p5482
(dp5483
g18
I00
sg19
(lp5484
(irule
ConstantPhoneme
p5485
(dp5486
S'p'
Vn
sbasg21
I00
sg22
Vn
sg23
I00
sg24
S'R'
sbsg34
(irule
FeatureMatrix
p5487
(dp5488
g37
(lp5489
(I00
g3068
tp5490
a(I00
g3332
tp5491
asg22
V[ -low -sonorant ]
p5492
sbsg22
V[ -low -sonorant ] ---> [ +nasal ] /  _ n
p5493
sba(irule
Rule
p5494
(dp5495
g15
(irule
Guard
p5496
(dp5497
g18
I00
sg19
(lp5498
sg21
I00
sg22
V
sg23
I00
sg24
S'L'
sbsg25
(irule
FeatureMatrix
p5499
(dp5500
g37
(lp5501
(I01
g3053
tp5502
asg22
V[ +nasal ]
p5503
sbsg28
(irule
Guard
p5504
(dp5505
g18
I00
sg19
(lp5506
(irule
FeatureMatrix
p5507
(dp5508
g37
(lp5509
(I00
g3062
tp5510
a(I00
g3110
tp5511
asg22
V[ -continuant -vowel ]
p5512
sbasg21
I00
sg22
g5512
sg23
I00
sg24
S'R'
sbsg34
(irule
FeatureMatrix
p5513
(dp5514
g37
(lp5515
(I00
g3068
tp5516
asg22
V[ -sonorant ]
p5517
sbsg22
V[ -sonorant ] ---> [ +nasal ] /  _ [ -continuant -vowel ]
p5518
sba(irule
Rule
p5519
(dp5520
g15
(irule
Guard
p5521
(dp5522
g18
I00
sg19
(lp5523
sg21
I00
sg22
V
sg23
I00
sg24
S'L'
sbsg25
(irule
FeatureMatrix
p5524
(dp5525
g37
(lp5526
(I01
g3053
tp5527
asg22
V[ +nasal ]
p5528
sbsg28
(irule
Guard
p5529
(dp5530
g18
I00
sg19
(lp5531
(irule
FeatureMatrix
p5532
(dp5533
g37
(lp5534
(I00
g3062
tp5535
asg22
V[ -continuant ]
p5536
sbasg21
I00
sg22
g5536
sg23
I00
sg24
S'R'
sbsg34
(irule
FeatureMatrix
p5537
(dp5538
g37
(lp5539
(I00
g3068
tp5540
a(I00
g3110
tp5541
asg22
V[ -sonorant -vowel ]
p5542
sbsg22
V[ -sonorant -vowel ] ---> [ +nasal ] /  _ [ -continuant ]
p5543
sba(irule
Rule
p5544
(dp5545
g15
(irule
Guard
p5546
(dp5547
g18
I00
sg19
(lp5548
sg21
I00
sg22
V
sg23
I00
sg24
S'L'
sbsg25
(irule
FeatureMatrix
p5549
(dp5550
g37
(lp5551
(I01
g3053
tp5552
asg22
V[ +nasal ]
p5553
sbsg28
(irule
Guard
p5554
(dp5555
g18
I00
sg19
(lp5556
(irule
FeatureMatrix
p5557
(dp5558
g37
(lp5559
(I01
g3135
tp5560
a(I00
g3743
tp5561
asg22
V[ +anterior -unreleased ]
p5562
sbasg21
I00
sg22
g5562
sg23
I00
sg24
S'R'
sbsg34
(irule
FeatureMatrix
p5563
(dp5564
g37
(lp5565
(I00
g3068
tp5566
asg22
V[ -sonorant ]
p5567
sbsg22
V[ -sonorant ] ---> [ +nasal ] /  _ [ +anterior -unreleased ]
p5568
sba(irule
Rule
p5569
(dp5570
g15
(irule
Guard
p5571
(dp5572
g18
I00
sg19
(lp5573
sg21
I00
sg22
V
sg23
I00
sg24
S'L'
sbsg25
(irule
FeatureMatrix
p5574
(dp5575
g37
(lp5576
(I01
g3053
tp5577
asg22
V[ +nasal ]
p5578
sbsg28
(irule
Guard
p5579
(dp5580
g18
I00
sg19
(lp5581
(irule
FeatureMatrix
p5582
(dp5583
g37
(lp5584
(I00
g3062
tp5585
asg22
V[ -continuant ]
p5586
sbasg21
I00
sg22
g5586
sg23
I00
sg24
S'R'
sbsg34
(irule
FeatureMatrix
p5587
(dp5588
g37
(lp5589
(I00
g3068
tp5590
a(I00
g3332
tp5591
asg22
V[ -low -sonorant ]
p5592
sbsg22
V[ -low -sonorant ] ---> [ +nasal ] /  _ [ -continuant ]
p5593
sba(irule
Rule
p5594
(dp5595
g15
(irule
Guard
p5596
(dp5597
g18
I00
sg19
(lp5598
sg21
I00
sg22
V
sg23
I00
sg24
S'L'
sbsg25
(irule
FeatureMatrix
p5599
(dp5600
g37
(lp5601
(I01
g3053
tp5602
asg22
V[ +nasal ]
p5603
sbsg28
(irule
Guard
p5604
(dp5605
g18
I00
sg19
(lp5606
(irule
FeatureMatrix
p5607
(dp5608
g37
(lp5609
(I00
g3717
tp5610
a(I00
g3110
tp5611
asg22
V[ -back -vowel ]
p5612
sbasg21
I00
sg22
g5612
sg23
I00
sg24
S'R'
sbsg34
(irule
FeatureMatrix
p5613
(dp5614
g37
(lp5615
(I00
g3090
tp5616
asg22
V[ -voice ]
p5617
sbsg22
V[ -voice ] ---> [ +nasal ] /  _ [ -back -vowel ]
p5618
sbaa(lp5619
(irule
Rule
p5620
(dp5621
g15
(irule
Guard
p5622
(dp5623
g18
I00
sg19
(lp5624
(irule
ConstantPhoneme
p5625
(dp5626
S'p'
Vc\u030c^h
p5627
sbasg21
I00
sg22
g5627
sg23
I00
sg24
S'L'
sbsg25
(irule
ConstantPhoneme
p5628
(dp5629
S'p'
Va
sbsg28
(irule
Guard
p5630
(dp5631
g18
I00
sg19
(lp5632
sg21
I00
sg22
V
sg23
I00
sg24
S'R'
sbsg34
(irule
FeatureMatrix
p5633
(dp5634
g37
(lp5635
sg22
V[  ]
p5636
sbsg22
V[  ] ---> a / c\u030c^h _ 
p5637
sba(irule
Rule
p5638
(dp5639
g15
(irule
Guard
p5640
(dp5641
g18
I00
sg19
(lp5642
(irule
ConstantPhoneme
p5643
(dp5644
S'p'
Vc\u030c^h
p5645
sbasg21
I00
sg22
g5645
sg23
I00
sg24
S'L'
sbsg25
(irule
FeatureMatrix
p5646
(dp5647
g37
(lp5648
(I01
S'tense'
p5649
tp5650
a(I01
S'low'
p5651
tp5652
asg22
V[ +low +tense ]
p5653
sbsg28
(irule
Guard
p5654
(dp5655
g18
I00
sg19
(lp5656
sg21
I00
sg22
V
sg23
I00
sg24
S'R'
sbsg34
(irule
FeatureMatrix
p5657
(dp5658
g37
(lp5659
sg22
V[  ]
p5660
sbsg22
V[  ] ---> [ +low +tense ] / c\u030c^h _ 
p5661
sba(irule
Rule
p5662
(dp5663
g15
(irule
Guard
p5664
(dp5665
g18
I00
sg19
(lp5666
(irule
FeatureMatrix
p5667
(dp5668
g37
(lp5669
(I00
S'anterior'
p5670
tp5671
a(I01
S'aspirated'
p5672
tp5673
asg22
V[ +aspirated -anterior ]
p5674
sbasg21
I00
sg22
g5674
sg23
I00
sg24
S'L'
sbsg25
(irule
ConstantPhoneme
p5675
(dp5676
S'p'
Va
sbsg28
(irule
Guard
p5677
(dp5678
g18
I00
sg19
(lp5679
sg21
I00
sg22
V
sg23
I00
sg24
S'R'
sbsg34
(irule
FeatureMatrix
p5680
(dp5681
g37
(lp5682
sg22
V[  ]
p5683
sbsg22
V[  ] ---> a / [ +aspirated -anterior ] _ 
p5684
sba(irule
Rule
p5685
(dp5686
g15
(irule
Guard
p5687
(dp5688
g18
I00
sg19
(lp5689
(irule
FeatureMatrix
p5690
(dp5691
g37
(lp5692
(I01
S'sibilant'
p5693
tp5694
asg22
V[ +sibilant ]
p5695
sbasg21
I00
sg22
g5695
sg23
I00
sg24
S'L'
sbsg25
(irule
ConstantPhoneme
p5696
(dp5697
S'p'
Va
sbsg28
(irule
Guard
p5698
(dp5699
g18
I01
sg19
(lp5700
sg21
I00
sg22
V#
sg23
I00
sg24
S'R'
sbsg34
(irule
FeatureMatrix
p5701
(dp5702
g37
(lp5703
sg22
V[  ]
p5704
sbsg22
V[  ] ---> a / [ +sibilant ] _ #
p5705
sba(irule
Rule
p5706
(dp5707
g15
(irule
Guard
p5708
(dp5709
g18
I00
sg19
(lp5710
(irule
FeatureMatrix
p5711
(dp5712
g37
(lp5713
(I01
g5672
tp5714
a(I01
g5693
tp5715
asg22
V[ +aspirated +sibilant ]
p5716
sbasg21
I00
sg22
g5716
sg23
I00
sg24
S'L'
sbsg25
(irule
ConstantPhoneme
p5717
(dp5718
S'p'
Va
sbsg28
(irule
Guard
p5719
(dp5720
g18
I00
sg19
(lp5721
sg21
I00
sg22
V
sg23
I00
sg24
S'R'
sbsg34
(irule
FeatureMatrix
p5722
(dp5723
g37
(lp5724
sg22
V[  ]
p5725
sbsg22
V[  ] ---> a / [ +aspirated +sibilant ] _ 
p5726
sba(irule
Rule
p5727
(dp5728
g15
(irule
Guard
p5729
(dp5730
g18
I00
sg19
(lp5731
(irule
FeatureMatrix
p5732
(dp5733
g37
(lp5734
(I01
g5693
tp5735
asg22
V[ +sibilant ]
p5736
sba(irule
FeatureMatrix
p5737
(dp5738
g37
(lp5739
sg22
V[  ]
p5740
sbasg21
I00
sg22
V[  ] [ +sibilant ]
p5741
sg23
I00
sg24
S'L'
sbsg25
(irule
ConstantPhoneme
p5742
(dp5743
S'p'
Va
sbsg28
(irule
Guard
p5744
(dp5745
g18
I00
sg19
(lp5746
sg21
I00
sg22
V
sg23
I00
sg24
S'R'
sbsg34
(irule
FeatureMatrix
p5747
(dp5748
g37
(lp5749
sg22
V[  ]
p5750
sbsg22
V[  ] ---> a / [  ] [ +sibilant ] _ 
p5751
sba(irule
Rule
p5752
(dp5753
g15
(irule
Guard
p5754
(dp5755
g18
I00
sg19
(lp5756
(irule
ConstantPhoneme
p5757
(dp5758
S'p'
g5645
sbasg21
I00
sg22
g5645
sg23
I00
sg24
S'L'
sbsg25
(irule
ConstantPhoneme
p5759
(dp5760
S'p'
Va
sbsg28
(irule
Guard
p5761
(dp5762
g18
I01
sg19
(lp5763
sg21
I00
sg22
V#
sg23
I00
sg24
S'R'
sbsg34
(irule
FeatureMatrix
p5764
(dp5765
g37
(lp5766
sg22
V[  ]
p5767
sbsg22
V[  ] ---> a / c\u030c^h _ #
p5768
sba(irule
Rule
p5769
(dp5770
g15
(irule
Guard
p5771
(dp5772
g18
I00
sg19
(lp5773
(irule
ConstantPhoneme
p5774
(dp5775
S'p'
g5645
sba(irule
FeatureMatrix
p5776
(dp5777
g37
(lp5778
sg22
V[  ]
p5779
sbasg21
I00
sg22
V[  ] c\u030c^h
p5780
sg23
I00
sg24
S'L'
sbsg25
(irule
ConstantPhoneme
p5781
(dp5782
S'p'
Va
sbsg28
(irule
Guard
p5783
(dp5784
g18
I00
sg19
(lp5785
sg21
I00
sg22
V
sg23
I00
sg24
S'R'
sbsg34
(irule
FeatureMatrix
p5786
(dp5787
g37
(lp5788
sg22
V[  ]
p5789
sbsg22
V[  ] ---> a / [  ] c\u030c^h _ 
p5790
sba(irule
Rule
p5791
(dp5792
g15
(irule
Guard
p5793
(dp5794
g18
I00
sg19
(lp5795
(irule
ConstantPhoneme
p5796
(dp5797
S'p'
g5645
sbasg21
I00
sg22
g5645
sg23
I00
sg24
S'L'
sbsg25
(irule
ConstantPhoneme
p5798
(dp5799
S'p'
Va
sbsg28
(irule
Guard
p5800
(dp5801
g18
I00
sg19
(lp5802
sg21
I00
sg22
V
sg23
I00
sg24
S'R'
sbsg34
(irule
FeatureMatrix
p5803
(dp5804
g37
(lp5805
(I00
g5649
tp5806
asg22
V[ -tense ]
p5807
sbsg22
V[ -tense ] ---> a / c\u030c^h _ 
p5808
sba(irule
Rule
p5809
(dp5810
g15
(irule
Guard
p5811
(dp5812
g18
I00
sg19
(lp5813
(irule
ConstantPhoneme
p5814
(dp5815
S'p'
g5645
sbasg21
I00
sg22
g5645
sg23
I00
sg24
S'L'
sbsg25
(irule
ConstantPhoneme
p5816
(dp5817
S'p'
Va
sbsg28
(irule
Guard
p5818
(dp5819
g18
I00
sg19
(lp5820
sg21
I00
sg22
V
sg23
I00
sg24
S'R'
sbsg34
(irule
FeatureMatrix
p5821
(dp5822
g37
(lp5823
(I00
g5670
tp5824
asg22
V[ -anterior ]
p5825
sbsg22
V[ -anterior ] ---> a / c\u030c^h _ 
p5826
sba(irule
Rule
p5827
(dp5828
g15
(irule
Guard
p5829
(dp5830
g18
I00
sg19
(lp5831
(irule
ConstantPhoneme
p5832
(dp5833
S'p'
g5645
sbasg21
I00
sg22
g5645
sg23
I00
sg24
S'L'
sbsg25
(irule
ConstantPhoneme
p5834
(dp5835
S'p'
Va
sbsg28
(irule
Guard
p5836
(dp5837
g18
I00
sg19
(lp5838
sg21
I00
sg22
V
sg23
I00
sg24
S'R'
sbsg34
(irule
FeatureMatrix
p5839
(dp5840
g37
(lp5841
(I00
S'nasal'
p5842
tp5843
asg22
V[ -nasal ]
p5844
sbsg22
V[ -nasal ] ---> a / c\u030c^h _ 
p5845
sba(irule
Rule
p5846
(dp5847
g15
(irule
Guard
p5848
(dp5849
g18
I00
sg19
(lp5850
(irule
ConstantPhoneme
p5851
(dp5852
S'p'
g5645
sbasg21
I00
sg22
g5645
sg23
I00
sg24
S'L'
sbsg25
(irule
ConstantPhoneme
p5853
(dp5854
S'p'
Va
sbsg28
(irule
Guard
p5855
(dp5856
g18
I00
sg19
(lp5857
sg21
I00
sg22
V
sg23
I00
sg24
S'R'
sbsg34
(irule
FeatureMatrix
p5858
(dp5859
g37
(lp5860
(I00
S'unreleased'
p5861
tp5862
asg22
V[ -unreleased ]
p5863
sbsg22
V[ -unreleased ] ---> a / c\u030c^h _ 
p5864
sba(irule
Rule
p5865
(dp5866
g15
(irule
Guard
p5867
(dp5868
g18
I00
sg19
(lp5869
(irule
ConstantPhoneme
p5870
(dp5871
S'p'
g5645
sbasg21
I00
sg22
g5645
sg23
I00
sg24
S'L'
sbsg25
(irule
ConstantPhoneme
p5872
(dp5873
S'p'
Va
sbsg28
(irule
Guard
p5874
(dp5875
g18
I00
sg19
(lp5876
sg21
I00
sg22
V
sg23
I00
sg24
S'R'
sbsg34
(irule
FeatureMatrix
p5877
(dp5878
g37
(lp5879
(I01
S'continuant'
p5880
tp5881
asg22
V[ +continuant ]
p5882
sbsg22
V[ +continuant ] ---> a / c\u030c^h _ 
p5883
sba(irule
Rule
p5884
(dp5885
g15
(irule
Guard
p5886
(dp5887
g18
I00
sg19
(lp5888
(irule
ConstantPhoneme
p5889
(dp5890
S'p'
g5645
sbasg21
I00
sg22
g5645
sg23
I00
sg24
S'L'
sbsg25
(irule
ConstantPhoneme
p5891
(dp5892
S'p'
Va
sbsg28
(irule
Guard
p5893
(dp5894
g18
I00
sg19
(lp5895
sg21
I00
sg22
V
sg23
I00
sg24
S'R'
sbsg34
(irule
FeatureMatrix
p5896
(dp5897
g37
(lp5898
(I01
S'voice'
p5899
tp5900
asg22
V[ +voice ]
p5901
sbsg22
V[ +voice ] ---> a / c\u030c^h _ 
p5902
sba(irule
Rule
p5903
(dp5904
g15
(irule
Guard
p5905
(dp5906
g18
I00
sg19
(lp5907
(irule
ConstantPhoneme
p5908
(dp5909
S'p'
g5645
sbasg21
I00
sg22
g5645
sg23
I00
sg24
S'L'
sbsg25
(irule
ConstantPhoneme
p5910
(dp5911
S'p'
Va
sbsg28
(irule
Guard
p5912
(dp5913
g18
I00
sg19
(lp5914
sg21
I00
sg22
V
sg23
I00
sg24
S'R'
sbsg34
(irule
FeatureMatrix
p5915
(dp5916
g37
(lp5917
(I00
g5693
tp5918
asg22
V[ -sibilant ]
p5919
sbsg22
V[ -sibilant ] ---> a / c\u030c^h _ 
p5920
sba(irule
Rule
p5921
(dp5922
g15
(irule
Guard
p5923
(dp5924
g18
I00
sg19
(lp5925
(irule
ConstantPhoneme
p5926
(dp5927
S'p'
g5645
sbasg21
I00
sg22
g5645
sg23
I00
sg24
S'L'
sbsg25
(irule
ConstantPhoneme
p5928
(dp5929
S'p'
Va
sbsg28
(irule
Guard
p5930
(dp5931
g18
I00
sg19
(lp5932
sg21
I00
sg22
V
sg23
I00
sg24
S'R'
sbsg34
(irule
FeatureMatrix
p5933
(dp5934
g37
(lp5935
(I00
g5651
tp5936
asg22
V[ -low ]
p5937
sbsg22
V[ -low ] ---> a / c\u030c^h _ 
p5938
sba(irule
Rule
p5939
(dp5940
g15
(irule
Guard
p5941
(dp5942
g18
I00
sg19
(lp5943
(irule
ConstantPhoneme
p5944
(dp5945
S'p'
g5645
sbasg21
I00
sg22
g5645
sg23
I00
sg24
S'L'
sbsg25
(irule
ConstantPhoneme
p5946
(dp5947
S'p'
Va
sbsg28
(irule
Guard
p5948
(dp5949
g18
I00
sg19
(lp5950
sg21
I00
sg22
V
sg23
I00
sg24
S'R'
sbsg34
(irule
FeatureMatrix
p5951
(dp5952
g37
(lp5953
(I00
S'rounded'
p5954
tp5955
asg22
V[ -rounded ]
p5956
sbsg22
V[ -rounded ] ---> a / c\u030c^h _ 
p5957
sba(irule
Rule
p5958
(dp5959
g15
(irule
Guard
p5960
(dp5961
g18
I00
sg19
(lp5962
(irule
ConstantPhoneme
p5963
(dp5964
S'p'
g5645
sbasg21
I00
sg22
g5645
sg23
I00
sg24
S'L'
sbsg25
(irule
ConstantPhoneme
p5965
(dp5966
S'p'
Va
sbsg28
(irule
Guard
p5967
(dp5968
g18
I00
sg19
(lp5969
sg21
I00
sg22
V
sg23
I00
sg24
S'R'
sbsg34
(irule
FeatureMatrix
p5970
(dp5971
g37
(lp5972
(I00
S'high'
p5973
tp5974
asg22
V[ -high ]
p5975
sbsg22
V[ -high ] ---> a / c\u030c^h _ 
p5976
sba(irule
Rule
p5977
(dp5978
g15
(irule
Guard
p5979
(dp5980
g18
I00
sg19
(lp5981
(irule
ConstantPhoneme
p5982
(dp5983
S'p'
g5645
sbasg21
I00
sg22
g5645
sg23
I00
sg24
S'L'
sbsg25
(irule
ConstantPhoneme
p5984
(dp5985
S'p'
Va
sbsg28
(irule
Guard
p5986
(dp5987
g18
I00
sg19
(lp5988
sg21
I00
sg22
V
sg23
I00
sg24
S'R'
sbsg34
(irule
ConstantPhoneme
p5989
(dp5990
S'p'
V\u0259
sbsg22
V\u0259 ---> a / c\u030c^h _ 
p5991
sba(irule
Rule
p5992
(dp5993
g15
(irule
Guard
p5994
(dp5995
g18
I00
sg19
(lp5996
(irule
ConstantPhoneme
p5997
(dp5998
S'p'
g5645
sbasg21
I00
sg22
g5645
sg23
I00
sg24
S'L'
sbsg25
(irule
ConstantPhoneme
p5999
(dp6000
S'p'
Va
sbsg28
(irule
Guard
p6001
(dp6002
g18
I00
sg19
(lp6003
sg21
I00
sg22
V
sg23
I00
sg24
S'R'
sbsg34
(irule
FeatureMatrix
p6004
(dp6005
g37
(lp6006
(I01
S'vowel'
p6007
tp6008
asg22
V[ +vowel ]
p6009
sbsg22
V[ +vowel ] ---> a / c\u030c^h _ 
p6010
sba(irule
Rule
p6011
(dp6012
g15
(irule
Guard
p6013
(dp6014
g18
I00
sg19
(lp6015
(irule
ConstantPhoneme
p6016
(dp6017
S'p'
g5645
sbasg21
I00
sg22
g5645
sg23
I00
sg24
S'L'
sbsg25
(irule
ConstantPhoneme
p6018
(dp6019
S'p'
Va
sbsg28
(irule
Guard
p6020
(dp6021
g18
I00
sg19
(lp6022
sg21
I00
sg22
V
sg23
I00
sg24
S'R'
sbsg34
(irule
FeatureMatrix
p6023
(dp6024
g37
(lp6025
(I00
S'coronal'
p6026
tp6027
asg22
V[ -coronal ]
p6028
sbsg22
V[ -coronal ] ---> a / c\u030c^h _ 
p6029
sba(irule
Rule
p6030
(dp6031
g15
(irule
Guard
p6032
(dp6033
g18
I00
sg19
(lp6034
(irule
ConstantPhoneme
p6035
(dp6036
S'p'
g5645
sbasg21
I00
sg22
g5645
sg23
I00
sg24
S'L'
sbsg25
(irule
ConstantPhoneme
p6037
(dp6038
S'p'
Va
sbsg28
(irule
Guard
p6039
(dp6040
g18
I00
sg19
(lp6041
sg21
I00
sg22
V
sg23
I00
sg24
S'R'
sbsg34
(irule
FeatureMatrix
p6042
(dp6043
g37
(lp6044
(I00
g5672
tp6045
asg22
V[ -aspirated ]
p6046
sbsg22
V[ -aspirated ] ---> a / c\u030c^h _ 
p6047
sba(irule
Rule
p6048
(dp6049
g15
(irule
Guard
p6050
(dp6051
g18
I00
sg19
(lp6052
(irule
ConstantPhoneme
p6053
(dp6054
S'p'
g5645
sbasg21
I00
sg22
g5645
sg23
I00
sg24
S'L'
sbsg25
(irule
ConstantPhoneme
p6055
(dp6056
S'p'
Va
sbsg28
(irule
Guard
p6057
(dp6058
g18
I00
sg19
(lp6059
sg21
I00
sg22
V
sg23
I00
sg24
S'R'
sbsg34
(irule
FeatureMatrix
p6060
(dp6061
g37
(lp6062
(I01
S'back'
p6063
tp6064
asg22
V[ +back ]
p6065
sbsg22
V[ +back ] ---> a / c\u030c^h _ 
p6066
sba(irule
Rule
p6067
(dp6068
g15
(irule
Guard
p6069
(dp6070
g18
I00
sg19
(lp6071
(irule
ConstantPhoneme
p6072
(dp6073
S'p'
g5645
sbasg21
I00
sg22
g5645
sg23
I00
sg24
S'L'
sbsg25
(irule
ConstantPhoneme
p6074
(dp6075
S'p'
Va
sbsg28
(irule
Guard
p6076
(dp6077
g18
I00
sg19
(lp6078
sg21
I00
sg22
V
sg23
I00
sg24
S'R'
sbsg34
(irule
FeatureMatrix
p6079
(dp6080
g37
(lp6081
(I01
S'sonorant'
p6082
tp6083
asg22
V[ +sonorant ]
p6084
sbsg22
V[ +sonorant ] ---> a / c\u030c^h _ 
p6085
sba(irule
Rule
p6086
(dp6087
g15
(irule
Guard
p6088
(dp6089
g18
I00
sg19
(lp6090
(irule
FeatureMatrix
p6091
(dp6092
g37
(lp6093
(I00
g5670
tp6094
a(I00
g5973
tp6095
asg22
V[ -anterior -high ]
p6096
sbasg21
I00
sg22
g6096
sg23
I00
sg24
S'L'
sbsg25
(irule
ConstantPhoneme
p6097
(dp6098
S'p'
Va
sbsg28
(irule
Guard
p6099
(dp6100
g18
I01
sg19
(lp6101
sg21
I00
sg22
V#
sg23
I00
sg24
S'R'
sbsg34
(irule
FeatureMatrix
p6102
(dp6103
g37
(lp6104
sg22
V[  ]
p6105
sbsg22
V[  ] ---> a / [ -anterior -high ] _ #
p6106
sba(irule
Rule
p6107
(dp6108
g15
(irule
Guard
p6109
(dp6110
g18
I00
sg19
(lp6111
(irule
FeatureMatrix
p6112
(dp6113
g37
(lp6114
(I00
g5670
tp6115
a(I01
g6026
tp6116
asg22
V[ +coronal -anterior ]
p6117
sbasg21
I00
sg22
g6117
sg23
I00
sg24
S'L'
sbsg25
(irule
ConstantPhoneme
p6118
(dp6119
S'p'
Va
sbsg28
(irule
Guard
p6120
(dp6121
g18
I01
sg19
(lp6122
sg21
I00
sg22
V#
sg23
I00
sg24
S'R'
sbsg34
(irule
FeatureMatrix
p6123
(dp6124
g37
(lp6125
sg22
V[  ]
p6126
sbsg22
V[  ] ---> a / [ +coronal -anterior ] _ #
p6127
sba(irule
Rule
p6128
(dp6129
g15
(irule
Guard
p6130
(dp6131
g18
I00
sg19
(lp6132
(irule
ConstantPhoneme
p6133
(dp6134
S'p'
g5645
sbasg21
I00
sg22
g5645
sg23
I00
sg24
S'L'
sbsg25
(irule
FeatureMatrix
p6135
(dp6136
g37
(lp6137
(I01
g5649
tp6138
a(I01
g5651
tp6139
asg22
V[ +low +tense ]
p6140
sbsg28
(irule
Guard
p6141
(dp6142
g18
I00
sg19
(lp6143
sg21
I00
sg22
V
sg23
I00
sg24
S'R'
sbsg34
(irule
FeatureMatrix
p6144
(dp6145
g37
(lp6146
(I00
g5670
tp6147
asg22
V[ -anterior ]
p6148
sbsg22
V[ -anterior ] ---> [ +low +tense ] / c\u030c^h _ 
p6149
sba(irule
Rule
p6150
(dp6151
g15
(irule
Guard
p6152
(dp6153
g18
I00
sg19
(lp6154
(irule
ConstantPhoneme
p6155
(dp6156
S'p'
g5645
sba(irule
FeatureMatrix
p6157
(dp6158
g37
(lp6159
(I00
g5861
tp6160
asg22
V[ -unreleased ]
p6161
sbasg21
I00
sg22
V[ -unreleased ] c\u030c^h
p6162
sg23
I00
sg24
S'L'
sbsg25
(irule
ConstantPhoneme
p6163
(dp6164
S'p'
Va
sbsg28
(irule
Guard
p6165
(dp6166
g18
I00
sg19
(lp6167
sg21
I00
sg22
V
sg23
I00
sg24
S'R'
sbsg34
(irule
FeatureMatrix
p6168
(dp6169
g37
(lp6170
sg22
V[  ]
p6171
sbsg22
V[  ] ---> a / [ -unreleased ] c\u030c^h _ 
p6172
sba(irule
Rule
p6173
(dp6174
g15
(irule
Guard
p6175
(dp6176
g18
I00
sg19
(lp6177
(irule
FeatureMatrix
p6178
(dp6179
g37
(lp6180
(I00
g5670
tp6181
a(I00
g6063
tp6182
asg22
V[ -anterior -back ]
p6183
sbasg21
I00
sg22
g6183
sg23
I00
sg24
S'L'
sbsg25
(irule
ConstantPhoneme
p6184
(dp6185
S'p'
Va
sbsg28
(irule
Guard
p6186
(dp6187
g18
I01
sg19
(lp6188
sg21
I00
sg22
V#
sg23
I00
sg24
S'R'
sbsg34
(irule
FeatureMatrix
p6189
(dp6190
g37
(lp6191
sg22
V[  ]
p6192
sbsg22
V[  ] ---> a / [ -anterior -back ] _ #
p6193
sba(irule
Rule
p6194
(dp6195
g15
(irule
Guard
p6196
(dp6197
g18
I00
sg19
(lp6198
(irule
ConstantPhoneme
p6199
(dp6200
S'p'
g5645
sbasg21
I00
sg22
g5645
sg23
I00
sg24
S'L'
sbsg25
(irule
FeatureMatrix
p6201
(dp6202
g37
(lp6203
(I01
g5649
tp6204
a(I01
g5651
tp6205
a(I01
g6007
tp6206
asg22
V[ +low +tense +vowel ]
p6207
sbsg28
(irule
Guard
p6208
(dp6209
g18
I00
sg19
(lp6210
sg21
I00
sg22
V
sg23
I00
sg24
S'R'
sbsg34
(irule
FeatureMatrix
p6211
(dp6212
g37
(lp6213
sg22
V[  ]
p6214
sbsg22
V[  ] ---> [ +low +tense +vowel ] / c\u030c^h _ 
p6215
sba(irule
Rule
p6216
(dp6217
g15
(irule
Guard
p6218
(dp6219
g18
I00
sg19
(lp6220
(irule
ConstantPhoneme
p6221
(dp6222
S'p'
g5645
sbasg21
I00
sg22
g5645
sg23
I00
sg24
S'L'
sbsg25
(irule
FeatureMatrix
p6223
(dp6224
g37
(lp6225
(I01
g5649
tp6226
a(I01
g5651
tp6227
asg22
V[ +low +tense ]
p6228
sbsg28
(irule
Guard
p6229
(dp6230
g18
I01
sg19
(lp6231
sg21
I00
sg22
V#
sg23
I00
sg24
S'R'
sbsg34
(irule
FeatureMatrix
p6232
(dp6233
g37
(lp6234
sg22
V[  ]
p6235
sbsg22
V[  ] ---> [ +low +tense ] / c\u030c^h _ #
p6236
sba(irule
Rule
p6237
(dp6238
g15
(irule
Guard
p6239
(dp6240
g18
I00
sg19
(lp6241
(irule
FeatureMatrix
p6242
(dp6243
g37
(lp6244
(I00
g5973
tp6245
a(I01
g5693
tp6246
asg22
V[ +sibilant -high ]
p6247
sbasg21
I00
sg22
g6247
sg23
I00
sg24
S'L'
sbsg25
(irule
ConstantPhoneme
p6248
(dp6249
S'p'
Va
sbsg28
(irule
Guard
p6250
(dp6251
g18
I01
sg19
(lp6252
sg21
I00
sg22
V#
sg23
I00
sg24
S'R'
sbsg34
(irule
FeatureMatrix
p6253
(dp6254
g37
(lp6255
sg22
V[  ]
p6256
sbsg22
V[  ] ---> a / [ +sibilant -high ] _ #
p6257
sba(irule
Rule
p6258
(dp6259
g15
(irule
Guard
p6260
(dp6261
g18
I00
sg19
(lp6262
(irule
ConstantPhoneme
p6263
(dp6264
S'p'
g5645
sbasg21
I00
sg22
g5645
sg23
I00
sg24
S'L'
sbsg25
(irule
FeatureMatrix
p6265
(dp6266
g37
(lp6267
(I00
g5670
tp6268
a(I01
g5649
tp6269
a(I01
g5651
tp6270
asg22
V[ +low +tense -anterior ]
p6271
sbsg28
(irule
Guard
p6272
(dp6273
g18
I00
sg19
(lp6274
sg21
I00
sg22
V
sg23
I00
sg24
S'R'
sbsg34
(irule
FeatureMatrix
p6275
(dp6276
g37
(lp6277
sg22
V[  ]
p6278
sbsg22
V[  ] ---> [ +low +tense -anterior ] / c\u030c^h _ 
p6279
sba(irule
Rule
p6280
(dp6281
g15
(irule
Guard
p6282
(dp6283
g18
I00
sg19
(lp6284
(irule
FeatureMatrix
p6285
(dp6286
g37
(lp6287
(I00
g5670
tp6288
a(I01
g5672
tp6289
asg22
V[ +aspirated -anterior ]
p6290
sbasg21
I00
sg22
g6290
sg23
I00
sg24
S'L'
sbsg25
(irule
ConstantPhoneme
p6291
(dp6292
S'p'
Va
sbsg28
(irule
Guard
p6293
(dp6294
g18
I01
sg19
(lp6295
sg21
I00
sg22
V#
sg23
I00
sg24
S'R'
sbsg34
(irule
FeatureMatrix
p6296
(dp6297
g37
(lp6298
sg22
V[  ]
p6299
sbsg22
V[  ] ---> a / [ +aspirated -anterior ] _ #
p6300
sba(irule
Rule
p6301
(dp6302
g15
(irule
Guard
p6303
(dp6304
g18
I00
sg19
(lp6305
(irule
FeatureMatrix
p6306
(dp6307
g37
(lp6308
(I01
g5693
tp6309
asg22
V[ +sibilant ]
p6310
sbasg21
I00
sg22
g6310
sg23
I00
sg24
S'L'
sbsg25
(irule
ConstantPhoneme
p6311
(dp6312
S'p'
Va
sbsg28
(irule
Guard
p6313
(dp6314
g18
I01
sg19
(lp6315
sg21
I00
sg22
V#
sg23
I00
sg24
S'R'
sbsg34
(irule
FeatureMatrix
p6316
(dp6317
g37
(lp6318
(I00
g5670
tp6319
asg22
V[ -anterior ]
p6320
sbsg22
V[ -anterior ] ---> a / [ +sibilant ] _ #
p6321
sba(irule
Rule
p6322
(dp6323
g15
(irule
Guard
p6324
(dp6325
g18
I00
sg19
(lp6326
(irule
FeatureMatrix
p6327
(dp6328
g37
(lp6329
(I00
g5670
tp6330
a(I01
g5672
tp6331
asg22
V[ +aspirated -anterior ]
p6332
sbasg21
I00
sg22
g6332
sg23
I00
sg24
S'L'
sbsg25
(irule
FeatureMatrix
p6333
(dp6334
g37
(lp6335
(I01
g5649
tp6336
a(I01
g5651
tp6337
asg22
V[ +low +tense ]
p6338
sbsg28
(irule
Guard
p6339
(dp6340
g18
I00
sg19
(lp6341
sg21
I00
sg22
V
sg23
I00
sg24
S'R'
sbsg34
(irule
FeatureMatrix
p6342
(dp6343
g37
(lp6344
sg22
V[  ]
p6345
sbsg22
V[  ] ---> [ +low +tense ] / [ +aspirated -anterior ] _ 
p6346
sba(irule
Rule
p6347
(dp6348
g15
(irule
Guard
p6349
(dp6350
g18
I00
sg19
(lp6351
(irule
FeatureMatrix
p6352
(dp6353
g37
(lp6354
(I00
g5670
tp6355
a(I01
g5672
tp6356
a(I00
g5973
tp6357
asg22
V[ +aspirated -anterior -high ]
p6358
sbasg21
I00
sg22
g6358
sg23
I00
sg24
S'L'
sbsg25
(irule
ConstantPhoneme
p6359
(dp6360
S'p'
Va
sbsg28
(irule
Guard
p6361
(dp6362
g18
I00
sg19
(lp6363
sg21
I00
sg22
V
sg23
I00
sg24
S'R'
sbsg34
(irule
FeatureMatrix
p6364
(dp6365
g37
(lp6366
sg22
V[  ]
p6367
sbsg22
V[  ] ---> a / [ +aspirated -anterior -high ] _ 
p6368
sba(irule
Rule
p6369
(dp6370
g15
(irule
Guard
p6371
(dp6372
g18
I00
sg19
(lp6373
(irule
FeatureMatrix
p6374
(dp6375
g37
(lp6376
(I00
g5670
tp6377
a(I01
g5693
tp6378
asg22
V[ +sibilant -anterior ]
p6379
sbasg21
I00
sg22
g6379
sg23
I00
sg24
S'L'
sbsg25
(irule
ConstantPhoneme
p6380
(dp6381
S'p'
Va
sbsg28
(irule
Guard
p6382
(dp6383
g18
I01
sg19
(lp6384
sg21
I00
sg22
V#
sg23
I00
sg24
S'R'
sbsg34
(irule
FeatureMatrix
p6385
(dp6386
g37
(lp6387
sg22
V[  ]
p6388
sbsg22
V[  ] ---> a / [ +sibilant -anterior ] _ #
p6389
sba(irule
Rule
p6390
(dp6391
g15
(irule
Guard
p6392
(dp6393
g18
I00
sg19
(lp6394
(irule
FeatureMatrix
p6395
(dp6396
g37
(lp6397
(I00
g6007
tp6398
a(I01
g5693
tp6399
asg22
V[ +sibilant -vowel ]
p6400
sbasg21
I00
sg22
g6400
sg23
I00
sg24
S'L'
sbsg25
(irule
ConstantPhoneme
p6401
(dp6402
S'p'
Va
sbsg28
(irule
Guard
p6403
(dp6404
g18
I01
sg19
(lp6405
sg21
I00
sg22
V#
sg23
I00
sg24
S'R'
sbsg34
(irule
FeatureMatrix
p6406
(dp6407
g37
(lp6408
sg22
V[  ]
p6409
sbsg22
V[  ] ---> a / [ +sibilant -vowel ] _ #
p6410
sba(irule
Rule
p6411
(dp6412
g15
(irule
Guard
p6413
(dp6414
g18
I00
sg19
(lp6415
(irule
FeatureMatrix
p6416
(dp6417
g37
(lp6418
(I01
g5693
tp6419
asg22
V[ +sibilant ]
p6420
sbasg21
I00
sg22
g6420
sg23
I00
sg24
S'L'
sbsg25
(irule
ConstantPhoneme
p6421
(dp6422
S'p'
Va
sbsg28
(irule
Guard
p6423
(dp6424
g18
I01
sg19
(lp6425
sg21
I00
sg22
V#
sg23
I00
sg24
S'R'
sbsg34
(irule
FeatureMatrix
p6426
(dp6427
g37
(lp6428
(I01
g5880
tp6429
asg22
V[ +continuant ]
p6430
sbsg22
V[ +continuant ] ---> a / [ +sibilant ] _ #
p6431
sba(irule
Rule
p6432
(dp6433
g15
(irule
Guard
p6434
(dp6435
g18
I00
sg19
(lp6436
(irule
FeatureMatrix
p6437
(dp6438
g37
(lp6439
(I00
g5670
tp6440
a(I01
g5672
tp6441
a(I00
g5899
tp6442
asg22
V[ +aspirated -anterior -voice ]
p6443
sbasg21
I00
sg22
g6443
sg23
I00
sg24
S'L'
sbsg25
(irule
ConstantPhoneme
p6444
(dp6445
S'p'
Va
sbsg28
(irule
Guard
p6446
(dp6447
g18
I00
sg19
(lp6448
sg21
I00
sg22
V
sg23
I00
sg24
S'R'
sbsg34
(irule
FeatureMatrix
p6449
(dp6450
g37
(lp6451
sg22
V[  ]
p6452
sbsg22
V[  ] ---> a / [ +aspirated -anterior -voice ] _ 
p6453
sba(irule
Rule
p6454
(dp6455
g15
(irule
Guard
p6456
(dp6457
g18
I00
sg19
(lp6458
(irule
FeatureMatrix
p6459
(dp6460
g37
(lp6461
(I00
g5954
tp6462
a(I01
g5693
tp6463
asg22
V[ +sibilant -rounded ]
p6464
sbasg21
I00
sg22
g6464
sg23
I00
sg24
S'L'
sbsg25
(irule
ConstantPhoneme
p6465
(dp6466
S'p'
Va
sbsg28
(irule
Guard
p6467
(dp6468
g18
I01
sg19
(lp6469
sg21
I00
sg22
V#
sg23
I00
sg24
S'R'
sbsg34
(irule
FeatureMatrix
p6470
(dp6471
g37
(lp6472
sg22
V[  ]
p6473
sbsg22
V[  ] ---> a / [ +sibilant -rounded ] _ #
p6474
sba(irule
Rule
p6475
(dp6476
g15
(irule
Guard
p6477
(dp6478
g18
I00
sg19
(lp6479
(irule
ConstantPhoneme
p6480
(dp6481
S'p'
g5645
sbasg21
I00
sg22
g5645
sg23
I00
sg24
S'L'
sbsg25
(irule
FeatureMatrix
p6482
(dp6483
g37
(lp6484
(I01
g5649
tp6485
a(I01
g5651
tp6486
asg22
V[ +low +tense ]
p6487
sbsg28
(irule
Guard
p6488
(dp6489
g18
I00
sg19
(lp6490
sg21
I00
sg22
V
sg23
I00
sg24
S'R'
sbsg34
(irule
FeatureMatrix
p6491
(dp6492
g37
(lp6493
(I01
g5880
tp6494
asg22
V[ +continuant ]
p6495
sbsg22
V[ +continuant ] ---> [ +low +tense ] / c\u030c^h _ 
p6496
sba(irule
Rule
p6497
(dp6498
g15
(irule
Guard
p6499
(dp6500
g18
I00
sg19
(lp6501
(irule
FeatureMatrix
p6502
(dp6503
g37
(lp6504
(I01
g5693
tp6505
asg22
V[ +sibilant ]
p6506
sbasg21
I00
sg22
g6506
sg23
I00
sg24
S'L'
sbsg25
(irule
ConstantPhoneme
p6507
(dp6508
S'p'
Va
sbsg28
(irule
Guard
p6509
(dp6510
g18
I01
sg19
(lp6511
sg21
I00
sg22
V#
sg23
I00
sg24
S'R'
sbsg34
(irule
FeatureMatrix
p6512
(dp6513
g37
(lp6514
(I00
g5954
tp6515
asg22
V[ -rounded ]
p6516
sbsg22
V[ -rounded ] ---> a / [ +sibilant ] _ #
p6517
sba(irule
Rule
p6518
(dp6519
g15
(irule
Guard
p6520
(dp6521
g18
I00
sg19
(lp6522
(irule
FeatureMatrix
p6523
(dp6524
g37
(lp6525
(I01
g5672
tp6526
a(I01
g5693
tp6527
asg22
V[ +aspirated +sibilant ]
p6528
sbasg21
I00
sg22
g6528
sg23
I00
sg24
S'L'
sbsg25
(irule
FeatureMatrix
p6529
(dp6530
g37
(lp6531
(I01
g5649
tp6532
a(I01
g5651
tp6533
asg22
V[ +low +tense ]
p6534
sbsg28
(irule
Guard
p6535
(dp6536
g18
I00
sg19
(lp6537
sg21
I00
sg22
V
sg23
I00
sg24
S'R'
sbsg34
(irule
FeatureMatrix
p6538
(dp6539
g37
(lp6540
sg22
V[  ]
p6541
sbsg22
V[  ] ---> [ +low +tense ] / [ +aspirated +sibilant ] _ 
p6542
sba(irule
Rule
p6543
(dp6544
g15
(irule
Guard
p6545
(dp6546
g18
I00
sg19
(lp6547
(irule
FeatureMatrix
p6548
(dp6549
g37
(lp6550
(I01
g5693
tp6551
asg22
V[ +sibilant ]
p6552
sbasg21
I00
sg22
g6552
sg23
I00
sg24
S'L'
sbsg25
(irule
ConstantPhoneme
p6553
(dp6554
S'p'
Va
sbsg28
(irule
Guard
p6555
(dp6556
g18
I01
sg19
(lp6557
sg21
I00
sg22
V#
sg23
I00
sg24
S'R'
sbsg34
(irule
FeatureMatrix
p6558
(dp6559
g37
(lp6560
(I00
g5861
tp6561
asg22
V[ -unreleased ]
p6562
sbsg22
V[ -unreleased ] ---> a / [ +sibilant ] _ #
p6563
sba(irule
Rule
p6564
(dp6565
g15
(irule
Guard
p6566
(dp6567
g18
I00
sg19
(lp6568
(irule
FeatureMatrix
p6569
(dp6570
g37
(lp6571
(I01
g5672
tp6572
a(I01
g5693
tp6573
asg22
V[ +aspirated +sibilant ]
p6574
sbasg21
I00
sg22
g6574
sg23
I00
sg24
S'L'
sbsg25
(irule
ConstantPhoneme
p6575
(dp6576
S'p'
Va
sbsg28
(irule
Guard
p6577
(dp6578
g18
I00
sg19
(lp6579
sg21
I00
sg22
V
sg23
I00
sg24
S'R'
sbsg34
(irule
FeatureMatrix
p6580
(dp6581
g37
(lp6582
(I00
g5861
tp6583
asg22
V[ -unreleased ]
p6584
sbsg22
V[ -unreleased ] ---> a / [ +aspirated +sibilant ] _ 
p6585
sba(irule
Rule
p6586
(dp6587
g15
(irule
Guard
p6588
(dp6589
g18
I00
sg19
(lp6590
(irule
FeatureMatrix
p6591
(dp6592
g37
(lp6593
(I01
g5693
tp6594
asg22
V[ +sibilant ]
p6595
sbasg21
I00
sg22
g6595
sg23
I00
sg24
S'L'
sbsg25
(irule
ConstantPhoneme
p6596
(dp6597
S'p'
Va
sbsg28
(irule
Guard
p6598
(dp6599
g18
I01
sg19
(lp6600
sg21
I00
sg22
V#
sg23
I00
sg24
S'R'
sbsg34
(irule
FeatureMatrix
p6601
(dp6602
g37
(lp6603
(I00
g5672
tp6604
asg22
V[ -aspirated ]
p6605
sbsg22
V[ -aspirated ] ---> a / [ +sibilant ] _ #
p6606
sba(irule
Rule
p6607
(dp6608
g15
(irule
Guard
p6609
(dp6610
g18
I00
sg19
(lp6611
(irule
ConstantPhoneme
p6612
(dp6613
S'p'
g5645
sbasg21
I00
sg22
g5645
sg23
I00
sg24
S'L'
sbsg25
(irule
FeatureMatrix
p6614
(dp6615
g37
(lp6616
(I01
g5649
tp6617
a(I01
g5651
tp6618
a(I00
g5861
tp6619
asg22
V[ +low +tense -unreleased ]
p6620
sbsg28
(irule
Guard
p6621
(dp6622
g18
I00
sg19
(lp6623
sg21
I00
sg22
V
sg23
I00
sg24
S'R'
sbsg34
(irule
FeatureMatrix
p6624
(dp6625
g37
(lp6626
sg22
V[  ]
p6627
sbsg22
V[  ] ---> [ +low +tense -unreleased ] / c\u030c^h _ 
p6628
sba(irule
Rule
p6629
(dp6630
g15
(irule
Guard
p6631
(dp6632
g18
I00
sg19
(lp6633
(irule
FeatureMatrix
p6634
(dp6635
g37
(lp6636
(I00
g5670
tp6637
a(I01
g5672
tp6638
asg22
V[ +aspirated -anterior ]
p6639
sbasg21
I00
sg22
g6639
sg23
I00
sg24
S'L'
sbsg25
(irule
ConstantPhoneme
p6640
(dp6641
S'p'
Va
sbsg28
(irule
Guard
p6642
(dp6643
g18
I00
sg19
(lp6644
sg21
I00
sg22
V
sg23
I00
sg24
S'R'
sbsg34
(irule
FeatureMatrix
p6645
(dp6646
g37
(lp6647
(I01
g5880
tp6648
asg22
V[ +continuant ]
p6649
sbsg22
V[ +continuant ] ---> a / [ +aspirated -anterior ] _ 
p6650
sba(irule
Rule
p6651
(dp6652
g15
(irule
Guard
p6653
(dp6654
g18
I00
sg19
(lp6655
(irule
FeatureMatrix
p6656
(dp6657
g37
(lp6658
(I00
g5670
tp6659
a(I01
g5672
tp6660
asg22
V[ +aspirated -anterior ]
p6661
sbasg21
I00
sg22
g6661
sg23
I00
sg24
S'L'
sbsg25
(irule
ConstantPhoneme
p6662
(dp6663
S'p'
Va
sbsg28
(irule
Guard
p6664
(dp6665
g18
I00
sg19
(lp6666
sg21
I00
sg22
V
sg23
I00
sg24
S'R'
sbsg34
(irule
FeatureMatrix
p6667
(dp6668
g37
(lp6669
(I00
g5670
tp6670
asg22
V[ -anterior ]
p6671
sbsg22
V[ -anterior ] ---> a / [ +aspirated -anterior ] _ 
p6672
sba(irule
Rule
p6673
(dp6674
g15
(irule
Guard
p6675
(dp6676
g18
I00
sg19
(lp6677
(irule
ConstantPhoneme
p6678
(dp6679
S'p'
g5645
sbasg21
I00
sg22
g5645
sg23
I00
sg24
S'L'
sbsg25
(irule
FeatureMatrix
p6680
(dp6681
g37
(lp6682
(I01
g5649
tp6683
a(I01
g5651
tp6684
a(I00
g5693
tp6685
asg22
V[ +low +tense -sibilant ]
p6686
sbsg28
(irule
Guard
p6687
(dp6688
g18
I00
sg19
(lp6689
sg21
I00
sg22
V
sg23
I00
sg24
S'R'
sbsg34
(irule
FeatureMatrix
p6690
(dp6691
g37
(lp6692
sg22
V[  ]
p6693
sbsg22
V[  ] ---> [ +low +tense -sibilant ] / c\u030c^h _ 
p6694
sba(irule
Rule
p6695
(dp6696
g15
(irule
Guard
p6697
(dp6698
g18
I00
sg19
(lp6699
(irule
FeatureMatrix
p6700
(dp6701
g37
(lp6702
(I00
g5670
tp6703
a(I01
g5672
tp6704
asg22
V[ +aspirated -anterior ]
p6705
sbasg21
I00
sg22
g6705
sg23
I00
sg24
S'L'
sbsg25
(irule
ConstantPhoneme
p6706
(dp6707
S'p'
Va
sbsg28
(irule
Guard
p6708
(dp6709
g18
I00
sg19
(lp6710
sg21
I00
sg22
V
sg23
I00
sg24
S'R'
sbsg34
(irule
FeatureMatrix
p6711
(dp6712
g37
(lp6713
(I01
g6063
tp6714
asg22
V[ +back ]
p6715
sbsg22
V[ +back ] ---> a / [ +aspirated -anterior ] _ 
p6716
sba(irule
Rule
p6717
(dp6718
g15
(irule
Guard
p6719
(dp6720
g18
I00
sg19
(lp6721
(irule
FeatureMatrix
p6722
(dp6723
g37
(lp6724
(I00
g5670
tp6725
a(I01
g5672
tp6726
a(I00
g5861
tp6727
asg22
V[ +aspirated -anterior -unreleased ]
p6728
sbasg21
I00
sg22
g6728
sg23
I00
sg24
S'L'
sbsg25
(irule
ConstantPhoneme
p6729
(dp6730
S'p'
Va
sbsg28
(irule
Guard
p6731
(dp6732
g18
I00
sg19
(lp6733
sg21
I00
sg22
V
sg23
I00
sg24
S'R'
sbsg34
(irule
FeatureMatrix
p6734
(dp6735
g37
(lp6736
sg22
V[  ]
p6737
sbsg22
V[  ] ---> a / [ +aspirated -anterior -unreleased ] _ 
p6738
sba(irule
Rule
p6739
(dp6740
g15
(irule
Guard
p6741
(dp6742
g18
I00
sg19
(lp6743
(irule
FeatureMatrix
p6744
(dp6745
g37
(lp6746
(I01
g5693
tp6747
asg22
V[ +sibilant ]
p6748
sbasg21
I00
sg22
g6748
sg23
I00
sg24
S'L'
sbsg25
(irule
ConstantPhoneme
p6749
(dp6750
S'p'
Va
sbsg28
(irule
Guard
p6751
(dp6752
g18
I01
sg19
(lp6753
sg21
I00
sg22
V#
sg23
I00
sg24
S'R'
sbsg34
(irule
FeatureMatrix
p6754
(dp6755
g37
(lp6756
(I00
g5649
tp6757
asg22
V[ -tense ]
p6758
sbsg22
V[ -tense ] ---> a / [ +sibilant ] _ #
p6759
sba(irule
Rule
p6760
(dp6761
g15
(irule
Guard
p6762
(dp6763
g18
I00
sg19
(lp6764
(irule
FeatureMatrix
p6765
(dp6766
g37
(lp6767
(I00
g5880
tp6768
a(I01
g5693
tp6769
asg22
V[ +sibilant -continuant ]
p6770
sbasg21
I00
sg22
g6770
sg23
I00
sg24
S'L'
sbsg25
(irule
ConstantPhoneme
p6771
(dp6772
S'p'
Va
sbsg28
(irule
Guard
p6773
(dp6774
g18
I01
sg19
(lp6775
sg21
I00
sg22
V#
sg23
I00
sg24
S'R'
sbsg34
(irule
FeatureMatrix
p6776
(dp6777
g37
(lp6778
sg22
V[  ]
p6779
sbsg22
V[  ] ---> a / [ +sibilant -continuant ] _ #
p6780
sba(irule
Rule
p6781
(dp6782
g15
(irule
Guard
p6783
(dp6784
g18
I00
sg19
(lp6785
(irule
FeatureMatrix
p6786
(dp6787
g37
(lp6788
(I00
g5670
tp6789
a(I01
g5672
tp6790
asg22
V[ +aspirated -anterior ]
p6791
sbasg21
I00
sg22
g6791
sg23
I00
sg24
S'L'
sbsg25
(irule
ConstantPhoneme
p6792
(dp6793
S'p'
Va
sbsg28
(irule
Guard
p6794
(dp6795
g18
I00
sg19
(lp6796
sg21
I00
sg22
V
sg23
I00
sg24
S'R'
sbsg34
(irule
FeatureMatrix
p6797
(dp6798
g37
(lp6799
(I00
g5842
tp6800
asg22
V[ -nasal ]
p6801
sbsg22
V[ -nasal ] ---> a / [ +aspirated -anterior ] _ 
p6802
sba(irule
Rule
p6803
(dp6804
g15
(irule
Guard
p6805
(dp6806
g18
I00
sg19
(lp6807
(irule
FeatureMatrix
p6808
(dp6809
g37
(lp6810
(I01
g5672
tp6811
a(I01
g5693
tp6812
asg22
V[ +aspirated +sibilant ]
p6813
sbasg21
I00
sg22
g6813
sg23
I00
sg24
S'L'
sbsg25
(irule
ConstantPhoneme
p6814
(dp6815
S'p'
Va
sbsg28
(irule
Guard
p6816
(dp6817
g18
I00
sg19
(lp6818
sg21
I00
sg22
V
sg23
I00
sg24
S'R'
sbsg34
(irule
FeatureMatrix
p6819
(dp6820
g37
(lp6821
(I01
g5880
tp6822
asg22
V[ +continuant ]
p6823
sbsg22
V[ +continuant ] ---> a / [ +aspirated +sibilant ] _ 
p6824
sba(irule
Rule
p6825
(dp6826
g15
(irule
Guard
p6827
(dp6828
g18
I00
sg19
(lp6829
(irule
FeatureMatrix
p6830
(dp6831
g37
(lp6832
(I01
g5693
tp6833
asg22
V[ +sibilant ]
p6834
sbasg21
I00
sg22
g6834
sg23
I00
sg24
S'L'
sbsg25
(irule
FeatureMatrix
p6835
(dp6836
g37
(lp6837
(I01
g5649
tp6838
a(I01
g5651
tp6839
asg22
V[ +low +tense ]
p6840
sbsg28
(irule
Guard
p6841
(dp6842
g18
I01
sg19
(lp6843
sg21
I00
sg22
V#
sg23
I00
sg24
S'R'
sbsg34
(irule
FeatureMatrix
p6844
(dp6845
g37
(lp6846
sg22
V[  ]
p6847
sbsg22
V[  ] ---> [ +low +tense ] / [ +sibilant ] _ #
p6848
sba(irule
Rule
p6849
(dp6850
g15
(irule
Guard
p6851
(dp6852
g18
I00
sg19
(lp6853
(irule
FeatureMatrix
p6854
(dp6855
g37
(lp6856
(I00
g5670
tp6857
a(I00
g5954
tp6858
a(I01
g5672
tp6859
asg22
V[ +aspirated -anterior -rounded ]
p6860
sbasg21
I00
sg22
g6860
sg23
I00
sg24
S'L'
sbsg25
(irule
ConstantPhoneme
p6861
(dp6862
S'p'
Va
sbsg28
(irule
Guard
p6863
(dp6864
g18
I00
sg19
(lp6865
sg21
I00
sg22
V
sg23
I00
sg24
S'R'
sbsg34
(irule
FeatureMatrix
p6866
(dp6867
g37
(lp6868
sg22
V[  ]
p6869
sbsg22
V[  ] ---> a / [ +aspirated -anterior -rounded ] _ 
p6870
sba(irule
Rule
p6871
(dp6872
g15
(irule
Guard
p6873
(dp6874
g18
I00
sg19
(lp6875
(irule
FeatureMatrix
p6876
(dp6877
g37
(lp6878
(I01
g5693
tp6879
asg22
V[ +sibilant ]
p6880
sbasg21
I00
sg22
g6880
sg23
I00
sg24
S'L'
sbsg25
(irule
ConstantPhoneme
p6881
(dp6882
S'p'
Va
sbsg28
(irule
Guard
p6883
(dp6884
g18
I01
sg19
(lp6885
sg21
I00
sg22
V#
sg23
I00
sg24
S'R'
sbsg34
(irule
FeatureMatrix
p6886
(dp6887
g37
(lp6888
(I00
g5842
tp6889
asg22
V[ -nasal ]
p6890
sbsg22
V[ -nasal ] ---> a / [ +sibilant ] _ #
p6891
sba(irule
Rule
p6892
(dp6893
g15
(irule
Guard
p6894
(dp6895
g18
I00
sg19
(lp6896
(irule
FeatureMatrix
p6897
(dp6898
g37
(lp6899
(I00
g5649
tp6900
a(I01
g5693
tp6901
asg22
V[ +sibilant -tense ]
p6902
sbasg21
I00
sg22
g6902
sg23
I00
sg24
S'L'
sbsg25
(irule
ConstantPhoneme
p6903
(dp6904
S'p'
Va
sbsg28
(irule
Guard
p6905
(dp6906
g18
I01
sg19
(lp6907
sg21
I00
sg22
V#
sg23
I00
sg24
S'R'
sbsg34
(irule
FeatureMatrix
p6908
(dp6909
g37
(lp6910
sg22
V[  ]
p6911
sbsg22
V[  ] ---> a / [ +sibilant -tense ] _ #
p6912
sba(irule
Rule
p6913
(dp6914
g15
(irule
Guard
p6915
(dp6916
g18
I00
sg19
(lp6917
(irule
ConstantPhoneme
p6918
(dp6919
S'p'
g5645
sbasg21
I00
sg22
g5645
sg23
I00
sg24
S'L'
sbsg25
(irule
ConstantPhoneme
p6920
(dp6921
S'p'
Va
sbsg28
(irule
Guard
p6922
(dp6923
g18
I00
sg19
(lp6924
sg21
I00
sg22
V
sg23
I00
sg24
S'R'
sbsg34
(irule
FeatureMatrix
p6925
(dp6926
g37
(lp6927
(I01
g5880
tp6928
a(I00
g5649
tp6929
asg22
V[ +continuant -tense ]
p6930
sbsg22
V[ +continuant -tense ] ---> a / c\u030c^h _ 
p6931
sba(irule
Rule
p6932
(dp6933
g15
(irule
Guard
p6934
(dp6935
g18
I00
sg19
(lp6936
(irule
FeatureMatrix
p6937
(dp6938
g37
(lp6939
(I00
g5670
tp6940
a(I01
g5672
tp6941
asg22
V[ +aspirated -anterior ]
p6942
sbasg21
I00
sg22
g6942
sg23
I00
sg24
S'L'
sbsg25
(irule
ConstantPhoneme
p6943
(dp6944
S'p'
Va
sbsg28
(irule
Guard
p6945
(dp6946
g18
I00
sg19
(lp6947
sg21
I00
sg22
V
sg23
I00
sg24
S'R'
sbsg34
(irule
FeatureMatrix
p6948
(dp6949
g37
(lp6950
(I00
g5954
tp6951
asg22
V[ -rounded ]
p6952
sbsg22
V[ -rounded ] ---> a / [ +aspirated -anterior ] _ 
p6953
sba(irule
Rule
p6954
(dp6955
g15
(irule
Guard
p6956
(dp6957
g18
I00
sg19
(lp6958
(irule
FeatureMatrix
p6959
(dp6960
g37
(lp6961
(I00
g5670
tp6962
a(I01
g5672
tp6963
asg22
V[ +aspirated -anterior ]
p6964
sbasg21
I00
sg22
g6964
sg23
I00
sg24
S'L'
sbsg25
(irule
ConstantPhoneme
p6965
(dp6966
S'p'
Va
sbsg28
(irule
Guard
p6967
(dp6968
g18
I00
sg19
(lp6969
sg21
I00
sg22
V
sg23
I00
sg24
S'R'
sbsg34
(irule
FeatureMatrix
p6970
(dp6971
g37
(lp6972
(I00
g5861
tp6973
asg22
V[ -unreleased ]
p6974
sbsg22
V[ -unreleased ] ---> a / [ +aspirated -anterior ] _ 
p6975
sba(irule
Rule
p6976
(dp6977
g15
(irule
Guard
p6978
(dp6979
g18
I00
sg19
(lp6980
(irule
FeatureMatrix
p6981
(dp6982
g37
(lp6983
(I00
g5670
tp6984
a(I00
g5880
tp6985
a(I01
g5672
tp6986
asg22
V[ +aspirated -anterior -continuant ]
p6987
sbasg21
I00
sg22
g6987
sg23
I00
sg24
S'L'
sbsg25
(irule
ConstantPhoneme
p6988
(dp6989
S'p'
Va
sbsg28
(irule
Guard
p6990
(dp6991
g18
I00
sg19
(lp6992
sg21
I00
sg22
V
sg23
I00
sg24
S'R'
sbsg34
(irule
FeatureMatrix
p6993
(dp6994
g37
(lp6995
sg22
V[  ]
p6996
sbsg22
V[  ] ---> a / [ +aspirated -anterior -continuant ] _ 
p6997
sba(irule
Rule
p6998
(dp6999
g15
(irule
Guard
p7000
(dp7001
g18
I00
sg19
(lp7002
(irule
ConstantPhoneme
p7003
(dp7004
S'p'
g5645
sbasg21
I00
sg22
g5645
sg23
I00
sg24
S'L'
sbsg25
(irule
FeatureMatrix
p7005
(dp7006
g37
(lp7007
(I01
g5649
tp7008
a(I01
g5651
tp7009
asg22
V[ +low +tense ]
p7010
sbsg28
(irule
Guard
p7011
(dp7012
g18
I00
sg19
(lp7013
sg21
I00
sg22
V
sg23
I00
sg24
S'R'
sbsg34
(irule
FeatureMatrix
p7014
(dp7015
g37
(lp7016
(I00
g5954
tp7017
asg22
V[ -rounded ]
p7018
sbsg22
V[ -rounded ] ---> [ +low +tense ] / c\u030c^h _ 
p7019
sba(irule
Rule
p7020
(dp7021
g15
(irule
Guard
p7022
(dp7023
g18
I00
sg19
(lp7024
(irule
FeatureMatrix
p7025
(dp7026
g37
(lp7027
(I00
g5670
tp7028
a(I01
g5672
tp7029
asg22
V[ +aspirated -anterior ]
p7030
sbasg21
I00
sg22
g7030
sg23
I00
sg24
S'L'
sbsg25
(irule
ConstantPhoneme
p7031
(dp7032
S'p'
Va
sbsg28
(irule
Guard
p7033
(dp7034
g18
I00
sg19
(lp7035
sg21
I00
sg22
V
sg23
I00
sg24
S'R'
sbsg34
(irule
FeatureMatrix
p7036
(dp7037
g37
(lp7038
(I01
g6082
tp7039
asg22
V[ +sonorant ]
p7040
sbsg22
V[ +sonorant ] ---> a / [ +aspirated -anterior ] _ 
p7041
sba(irule
Rule
p7042
(dp7043
g15
(irule
Guard
p7044
(dp7045
g18
I00
sg19
(lp7046
(irule
FeatureMatrix
p7047
(dp7048
g37
(lp7049
(I00
g5670
tp7050
a(I01
g5672
tp7051
a(I00
g6007
tp7052
asg22
V[ +aspirated -anterior -vowel ]
p7053
sbasg21
I00
sg22
g7053
sg23
I00
sg24
S'L'
sbsg25
(irule
ConstantPhoneme
p7054
(dp7055
S'p'
Va
sbsg28
(irule
Guard
p7056
(dp7057
g18
I00
sg19
(lp7058
sg21
I00
sg22
V
sg23
I00
sg24
S'R'
sbsg34
(irule
FeatureMatrix
p7059
(dp7060
g37
(lp7061
sg22
V[  ]
p7062
sbsg22
V[  ] ---> a / [ +aspirated -anterior -vowel ] _ 
p7063
sba(irule
Rule
p7064
(dp7065
g15
(irule
Guard
p7066
(dp7067
g18
I00
sg19
(lp7068
(irule
ConstantPhoneme
p7069
(dp7070
S'p'
g5645
sbasg21
I00
sg22
g5645
sg23
I00
sg24
S'L'
sbsg25
(irule
FeatureMatrix
p7071
(dp7072
g37
(lp7073
(I00
g5954
tp7074
a(I01
g5649
tp7075
a(I01
g5651
tp7076
asg22
V[ +low +tense -rounded ]
p7077
sbsg28
(irule
Guard
p7078
(dp7079
g18
I00
sg19
(lp7080
sg21
I00
sg22
V
sg23
I00
sg24
S'R'
sbsg34
(irule
FeatureMatrix
p7081
(dp7082
g37
(lp7083
sg22
V[  ]
p7084
sbsg22
V[  ] ---> [ +low +tense -rounded ] / c\u030c^h _ 
p7085
sba(irule
Rule
p7086
(dp7087
g15
(irule
Guard
p7088
(dp7089
g18
I00
sg19
(lp7090
(irule
ConstantPhoneme
p7091
(dp7092
S'p'
g5645
sbasg21
I00
sg22
g5645
sg23
I00
sg24
S'L'
sbsg25
(irule
FeatureMatrix
p7093
(dp7094
g37
(lp7095
(I01
g5649
tp7096
a(I01
g5651
tp7097
asg22
V[ +low +tense ]
p7098
sbsg28
(irule
Guard
p7099
(dp7100
g18
I00
sg19
(lp7101
sg21
I00
sg22
V
sg23
I00
sg24
S'R'
sbsg34
(irule
FeatureMatrix
p7102
(dp7103
g37
(lp7104
(I00
g5842
tp7105
asg22
V[ -nasal ]
p7106
sbsg22
V[ -nasal ] ---> [ +low +tense ] / c\u030c^h _ 
p7107
sba(irule
Rule
p7108
(dp7109
g15
(irule
Guard
p7110
(dp7111
g18
I00
sg19
(lp7112
(irule
ConstantPhoneme
p7113
(dp7114
S'p'
g5645
sbasg21
I00
sg22
g5645
sg23
I00
sg24
S'L'
sbsg25
(irule
FeatureMatrix
p7115
(dp7116
g37
(lp7117
(I00
g5973
tp7118
a(I01
g5649
tp7119
a(I01
g5651
tp7120
asg22
V[ +low +tense -high ]
p7121
sbsg28
(irule
Guard
p7122
(dp7123
g18
I00
sg19
(lp7124
sg21
I00
sg22
V
sg23
I00
sg24
S'R'
sbsg34
(irule
FeatureMatrix
p7125
(dp7126
g37
(lp7127
sg22
V[  ]
p7128
sbsg22
V[  ] ---> [ +low +tense -high ] / c\u030c^h _ 
p7129
sba(irule
Rule
p7130
(dp7131
g15
(irule
Guard
p7132
(dp7133
g18
I00
sg19
(lp7134
(irule
FeatureMatrix
p7135
(dp7136
g37
(lp7137
(I00
g5670
tp7138
a(I01
g5672
tp7139
asg22
V[ +aspirated -anterior ]
p7140
sbasg21
I00
sg22
g7140
sg23
I00
sg24
S'L'
sbsg25
(irule
ConstantPhoneme
p7141
(dp7142
S'p'
Va
sbsg28
(irule
Guard
p7143
(dp7144
g18
I00
sg19
(lp7145
sg21
I00
sg22
V
sg23
I00
sg24
S'R'
sbsg34
(irule
FeatureMatrix
p7146
(dp7147
g37
(lp7148
(I00
g5672
tp7149
asg22
V[ -aspirated ]
p7150
sbsg22
V[ -aspirated ] ---> a / [ +aspirated -anterior ] _ 
p7151
sba(irule
Rule
p7152
(dp7153
g15
(irule
Guard
p7154
(dp7155
g18
I00
sg19
(lp7156
(irule
FeatureMatrix
p7157
(dp7158
g37
(lp7159
(I00
g5670
tp7160
a(I01
g5672
tp7161
a(I00
g5842
tp7162
asg22
V[ +aspirated -anterior -nasal ]
p7163
sbasg21
I00
sg22
g7163
sg23
I00
sg24
S'L'
sbsg25
(irule
ConstantPhoneme
p7164
(dp7165
S'p'
Va
sbsg28
(irule
Guard
p7166
(dp7167
g18
I00
sg19
(lp7168
sg21
I00
sg22
V
sg23
I00
sg24
S'R'
sbsg34
(irule
FeatureMatrix
p7169
(dp7170
g37
(lp7171
sg22
V[  ]
p7172
sbsg22
V[  ] ---> a / [ +aspirated -anterior -nasal ] _ 
p7173
sba(irule
Rule
p7174
(dp7175
g15
(irule
Guard
p7176
(dp7177
g18
I00
sg19
(lp7178
(irule
FeatureMatrix
p7179
(dp7180
g37
(lp7181
(I01
g5672
tp7182
a(I01
g5693
tp7183
a(I00
g5861
tp7184
asg22
V[ +aspirated +sibilant -unreleased ]
p7185
sbasg21
I00
sg22
g7185
sg23
I00
sg24
S'L'
sbsg25
(irule
ConstantPhoneme
p7186
(dp7187
S'p'
Va
sbsg28
(irule
Guard
p7188
(dp7189
g18
I00
sg19
(lp7190
sg21
I00
sg22
V
sg23
I00
sg24
S'R'
sbsg34
(irule
FeatureMatrix
p7191
(dp7192
g37
(lp7193
sg22
V[  ]
p7194
sbsg22
V[  ] ---> a / [ +aspirated +sibilant -unreleased ] _ 
p7195
sba(irule
Rule
p7196
(dp7197
g15
(irule
Guard
p7198
(dp7199
g18
I00
sg19
(lp7200
(irule
FeatureMatrix
p7201
(dp7202
g37
(lp7203
(I00
g5670
tp7204
a(I01
g5672
tp7205
asg22
V[ +aspirated -anterior ]
p7206
sbasg21
I00
sg22
g7206
sg23
I00
sg24
S'L'
sbsg25
(irule
ConstantPhoneme
p7207
(dp7208
S'p'
Va
sbsg28
(irule
Guard
p7209
(dp7210
g18
I00
sg19
(lp7211
sg21
I00
sg22
V
sg23
I00
sg24
S'R'
sbsg34
(irule
FeatureMatrix
p7212
(dp7213
g37
(lp7214
(I00
g6026
tp7215
asg22
V[ -coronal ]
p7216
sbsg22
V[ -coronal ] ---> a / [ +aspirated -anterior ] _ 
p7217
sba(irule
Rule
p7218
(dp7219
g15
(irule
Guard
p7220
(dp7221
g18
I00
sg19
(lp7222
(irule
FeatureMatrix
p7223
(dp7224
g37
(lp7225
(I01
g5672
tp7226
a(I01
g5693
tp7227
asg22
V[ +aspirated +sibilant ]
p7228
sbasg21
I00
sg22
g7228
sg23
I00
sg24
S'L'
sbsg25
(irule
ConstantPhoneme
p7229
(dp7230
S'p'
Va
sbsg28
(irule
Guard
p7231
(dp7232
g18
I00
sg19
(lp7233
sg21
I00
sg22
V
sg23
I00
sg24
S'R'
sbsg34
(irule
FeatureMatrix
p7234
(dp7235
g37
(lp7236
(I00
g6026
tp7237
asg22
V[ -coronal ]
p7238
sbsg22
V[ -coronal ] ---> a / [ +aspirated +sibilant ] _ 
p7239
sba(irule
Rule
p7240
(dp7241
g15
(irule
Guard
p7242
(dp7243
g18
I00
sg19
(lp7244
(irule
FeatureMatrix
p7245
(dp7246
g37
(lp7247
(I01
g5672
tp7248
a(I01
g5693
tp7249
asg22
V[ +aspirated +sibilant ]
p7250
sbasg21
I00
sg22
g7250
sg23
I00
sg24
S'L'
sbsg25
(irule
ConstantPhoneme
p7251
(dp7252
S'p'
Va
sbsg28
(irule
Guard
p7253
(dp7254
g18
I00
sg19
(lp7255
sg21
I00
sg22
V
sg23
I00
sg24
S'R'
sbsg34
(irule
FeatureMatrix
p7256
(dp7257
g37
(lp7258
(I00
g5842
tp7259
asg22
V[ -nasal ]
p7260
sbsg22
V[ -nasal ] ---> a / [ +aspirated +sibilant ] _ 
p7261
sba(irule
Rule
p7262
(dp7263
g15
(irule
Guard
p7264
(dp7265
g18
I00
sg19
(lp7266
(irule
FeatureMatrix
p7267
(dp7268
g37
(lp7269
(I01
g5693
tp7270
a(I00
g5861
tp7271
asg22
V[ +sibilant -unreleased ]
p7272
sbasg21
I00
sg22
g7272
sg23
I00
sg24
S'L'
sbsg25
(irule
ConstantPhoneme
p7273
(dp7274
S'p'
Va
sbsg28
(irule
Guard
p7275
(dp7276
g18
I01
sg19
(lp7277
sg21
I00
sg22
V#
sg23
I00
sg24
S'R'
sbsg34
(irule
FeatureMatrix
p7278
(dp7279
g37
(lp7280
sg22
V[  ]
p7281
sbsg22
V[  ] ---> a / [ +sibilant -unreleased ] _ #
p7282
sba(irule
Rule
p7283
(dp7284
g15
(irule
Guard
p7285
(dp7286
g18
I00
sg19
(lp7287
(irule
FeatureMatrix
p7288
(dp7289
g37
(lp7290
(I00
g5842
tp7291
a(I01
g5693
tp7292
asg22
V[ +sibilant -nasal ]
p7293
sbasg21
I00
sg22
g7293
sg23
I00
sg24
S'L'
sbsg25
(irule
ConstantPhoneme
p7294
(dp7295
S'p'
Va
sbsg28
(irule
Guard
p7296
(dp7297
g18
I01
sg19
(lp7298
sg21
I00
sg22
V#
sg23
I00
sg24
S'R'
sbsg34
(irule
FeatureMatrix
p7299
(dp7300
g37
(lp7301
sg22
V[  ]
p7302
sbsg22
V[  ] ---> a / [ +sibilant -nasal ] _ #
p7303
sba(irule
Rule
p7304
(dp7305
g15
(irule
Guard
p7306
(dp7307
g18
I00
sg19
(lp7308
(irule
FeatureMatrix
p7309
(dp7310
g37
(lp7311
(I00
g5670
tp7312
a(I01
g5672
tp7313
a(I00
g5651
tp7314
asg22
V[ +aspirated -anterior -low ]
p7315
sbasg21
I00
sg22
g7315
sg23
I00
sg24
S'L'
sbsg25
(irule
ConstantPhoneme
p7316
(dp7317
S'p'
Va
sbsg28
(irule
Guard
p7318
(dp7319
g18
I00
sg19
(lp7320
sg21
I00
sg22
V
sg23
I00
sg24
S'R'
sbsg34
(irule
FeatureMatrix
p7321
(dp7322
g37
(lp7323
sg22
V[  ]
p7324
sbsg22
V[  ] ---> a / [ +aspirated -anterior -low ] _ 
p7325
sba(irule
Rule
p7326
(dp7327
g15
(irule
Guard
p7328
(dp7329
g18
I00
sg19
(lp7330
(irule
FeatureMatrix
p7331
(dp7332
g37
(lp7333
(I00
g6063
tp7334
a(I01
g5693
tp7335
asg22
V[ +sibilant -back ]
p7336
sbasg21
I00
sg22
g7336
sg23
I00
sg24
S'L'
sbsg25
(irule
ConstantPhoneme
p7337
(dp7338
S'p'
Va
sbsg28
(irule
Guard
p7339
(dp7340
g18
I01
sg19
(lp7341
sg21
I00
sg22
V#
sg23
I00
sg24
S'R'
sbsg34
(irule
FeatureMatrix
p7342
(dp7343
g37
(lp7344
sg22
V[  ]
p7345
sbsg22
V[  ] ---> a / [ +sibilant -back ] _ #
p7346
sba(irule
Rule
p7347
(dp7348
g15
(irule
Guard
p7349
(dp7350
g18
I00
sg19
(lp7351
(irule
FeatureMatrix
p7352
(dp7353
g37
(lp7354
(I01
g5693
tp7355
asg22
V[ +sibilant ]
p7356
sbasg21
I00
sg22
g7356
sg23
I00
sg24
S'L'
sbsg25
(irule
ConstantPhoneme
p7357
(dp7358
S'p'
Va
sbsg28
(irule
Guard
p7359
(dp7360
g18
I01
sg19
(lp7361
sg21
I00
sg22
V#
sg23
I00
sg24
S'R'
sbsg34
(irule
ConstantPhoneme
p7362
(dp7363
S'p'
V\u0259
sbsg22
V\u0259 ---> a / [ +sibilant ] _ #
p7364
sba(irule
Rule
p7365
(dp7366
g15
(irule
Guard
p7367
(dp7368
g18
I00
sg19
(lp7369
(irule
ConstantPhoneme
p7370
(dp7371
S'p'
g5645
sbasg21
I00
sg22
g5645
sg23
I00
sg24
S'L'
sbsg25
(irule
FeatureMatrix
p7372
(dp7373
g37
(lp7374
(I01
g5649
tp7375
a(I01
g5651
tp7376
asg22
V[ +low +tense ]
p7377
sbsg28
(irule
Guard
p7378
(dp7379
g18
I00
sg19
(lp7380
sg21
I00
sg22
V
sg23
I00
sg24
S'R'
sbsg34
(irule
FeatureMatrix
p7381
(dp7382
g37
(lp7383
(I01
g6063
tp7384
asg22
V[ +back ]
p7385
sbsg22
V[ +back ] ---> [ +low +tense ] / c\u030c^h _ 
p7386
sba(irule
Rule
p7387
(dp7388
g15
(irule
Guard
p7389
(dp7390
g18
I00
sg19
(lp7391
(irule
ConstantPhoneme
p7392
(dp7393
S'p'
g5645
sbasg21
I00
sg22
g5645
sg23
I00
sg24
S'L'
sbsg25
(irule
FeatureMatrix
p7394
(dp7395
g37
(lp7396
(I00
g5672
tp7397
a(I01
g5649
tp7398
a(I01
g5651
tp7399
asg22
V[ +low +tense -aspirated ]
p7400
sbsg28
(irule
Guard
p7401
(dp7402
g18
I00
sg19
(lp7403
sg21
I00
sg22
V
sg23
I00
sg24
S'R'
sbsg34
(irule
FeatureMatrix
p7404
(dp7405
g37
(lp7406
sg22
V[  ]
p7407
sbsg22
V[  ] ---> [ +low +tense -aspirated ] / c\u030c^h _ 
p7408
sba(irule
Rule
p7409
(dp7410
g15
(irule
Guard
p7411
(dp7412
g18
I00
sg19
(lp7413
(irule
ConstantPhoneme
p7414
(dp7415
S'p'
g5645
sbasg21
I00
sg22
g5645
sg23
I00
sg24
S'L'
sbsg25
(irule
FeatureMatrix
p7416
(dp7417
g37
(lp7418
(I01
g6082
tp7419
a(I01
g5649
tp7420
a(I01
g5651
tp7421
asg22
V[ +low +sonorant +tense ]
p7422
sbsg28
(irule
Guard
p7423
(dp7424
g18
I00
sg19
(lp7425
sg21
I00
sg22
V
sg23
I00
sg24
S'R'
sbsg34
(irule
FeatureMatrix
p7426
(dp7427
g37
(lp7428
sg22
V[  ]
p7429
sbsg22
V[  ] ---> [ +low +sonorant +tense ] / c\u030c^h _ 
p7430
sba(irule
Rule
p7431
(dp7432
g15
(irule
Guard
p7433
(dp7434
g18
I00
sg19
(lp7435
(irule
ConstantPhoneme
p7436
(dp7437
S'p'
g5645
sbasg21
I00
sg22
g5645
sg23
I00
sg24
S'L'
sbsg25
(irule
ConstantPhoneme
p7438
(dp7439
S'p'
Va
sbsg28
(irule
Guard
p7440
(dp7441
g18
I01
sg19
(lp7442
sg21
I00
sg22
V#
sg23
I00
sg24
S'R'
sbsg34
(irule
FeatureMatrix
p7443
(dp7444
g37
(lp7445
(I01
g5880
tp7446
asg22
V[ +continuant ]
p7447
sbsg22
V[ +continuant ] ---> a / c\u030c^h _ #
p7448
sba(irule
Rule
p7449
(dp7450
g15
(irule
Guard
p7451
(dp7452
g18
I00
sg19
(lp7453
(irule
FeatureMatrix
p7454
(dp7455
g37
(lp7456
(I00
g5670
tp7457
a(I01
g5672
tp7458
a(I00
g5649
tp7459
asg22
V[ +aspirated -anterior -tense ]
p7460
sbasg21
I00
sg22
g7460
sg23
I00
sg24
S'L'
sbsg25
(irule
ConstantPhoneme
p7461
(dp7462
S'p'
Va
sbsg28
(irule
Guard
p7463
(dp7464
g18
I00
sg19
(lp7465
sg21
I00
sg22
V
sg23
I00
sg24
S'R'
sbsg34
(irule
FeatureMatrix
p7466
(dp7467
g37
(lp7468
sg22
V[  ]
p7469
sbsg22
V[  ] ---> a / [ +aspirated -anterior -tense ] _ 
p7470
sba(irule
Rule
p7471
(dp7472
g15
(irule
Guard
p7473
(dp7474
g18
I00
sg19
(lp7475
(irule
ConstantPhoneme
p7476
(dp7477
S'p'
g5645
sbasg21
I00
sg22
g5645
sg23
I00
sg24
S'L'
sbsg25
(irule
ConstantPhoneme
p7478
(dp7479
S'p'
Va
sbsg28
(irule
Guard
p7480
(dp7481
g18
I00
sg19
(lp7482
sg21
I00
sg22
V
sg23
I00
sg24
S'R'
sbsg34
(irule
FeatureMatrix
p7483
(dp7484
g37
(lp7485
(I00
g5954
tp7486
a(I00
g5649
tp7487
asg22
V[ -rounded -tense ]
p7488
sbsg22
V[ -rounded -tense ] ---> a / c\u030c^h _ 
p7489
sba(irule
Rule
p7490
(dp7491
g15
(irule
Guard
p7492
(dp7493
g18
I00
sg19
(lp7494
(irule
FeatureMatrix
p7495
(dp7496
g37
(lp7497
(I01
g5693
tp7498
asg22
V[ +sibilant ]
p7499
sba(irule
FeatureMatrix
p7500
(dp7501
g37
(lp7502
sg22
V[  ]
p7503
sbasg21
I00
sg22
V[  ] [ +sibilant ]
p7504
sg23
I00
sg24
S'L'
sbsg25
(irule
ConstantPhoneme
p7505
(dp7506
S'p'
Va
sbsg28
(irule
Guard
p7507
(dp7508
g18
I00
sg19
(lp7509
sg21
I00
sg22
V
sg23
I00
sg24
S'R'
sbsg34
(irule
FeatureMatrix
p7510
(dp7511
g37
(lp7512
(I00
g5842
tp7513
asg22
V[ -nasal ]
p7514
sbsg22
V[ -nasal ] ---> a / [  ] [ +sibilant ] _ 
p7515
sba(irule
Rule
p7516
(dp7517
g15
(irule
Guard
p7518
(dp7519
g18
I00
sg19
(lp7520
(irule
FeatureMatrix
p7521
(dp7522
g37
(lp7523
(I00
g5670
tp7524
a(I01
g5672
tp7525
asg22
V[ +aspirated -anterior ]
p7526
sbasg21
I00
sg22
g7526
sg23
I00
sg24
S'L'
sbsg25
(irule
ConstantPhoneme
p7527
(dp7528
S'p'
Va
sbsg28
(irule
Guard
p7529
(dp7530
g18
I00
sg19
(lp7531
sg21
I00
sg22
V
sg23
I00
sg24
S'R'
sbsg34
(irule
ConstantPhoneme
p7532
(dp7533
S'p'
V\u0259
sbsg22
V\u0259 ---> a / [ +aspirated -anterior ] _ 
p7534
sba(irule
Rule
p7535
(dp7536
g15
(irule
Guard
p7537
(dp7538
g18
I00
sg19
(lp7539
(irule
FeatureMatrix
p7540
(dp7541
g37
(lp7542
(I01
g5693
tp7543
asg22
V[ +sibilant ]
p7544
sbasg21
I00
sg22
g7544
sg23
I00
sg24
S'L'
sbsg25
(irule
ConstantPhoneme
p7545
(dp7546
S'p'
Va
sbsg28
(irule
Guard
p7547
(dp7548
g18
I01
sg19
(lp7549
sg21
I00
sg22
V#
sg23
I00
sg24
S'R'
sbsg34
(irule
FeatureMatrix
p7550
(dp7551
g37
(lp7552
(I00
g5973
tp7553
asg22
V[ -high ]
p7554
sbsg22
V[ -high ] ---> a / [ +sibilant ] _ #
p7555
sba(irule
Rule
p7556
(dp7557
g15
(irule
Guard
p7558
(dp7559
g18
I00
sg19
(lp7560
(irule
FeatureMatrix
p7561
(dp7562
g37
(lp7563
(I01
g5672
tp7564
a(I00
g5973
tp7565
a(I01
g5693
tp7566
asg22
V[ +aspirated +sibilant -high ]
p7567
sbasg21
I00
sg22
g7567
sg23
I00
sg24
S'L'
sbsg25
(irule
ConstantPhoneme
p7568
(dp7569
S'p'
Va
sbsg28
(irule
Guard
p7570
(dp7571
g18
I00
sg19
(lp7572
sg21
I00
sg22
V
sg23
I00
sg24
S'R'
sbsg34
(irule
FeatureMatrix
p7573
(dp7574
g37
(lp7575
sg22
V[  ]
p7576
sbsg22
V[  ] ---> a / [ +aspirated +sibilant -high ] _ 
p7577
sba(irule
Rule
p7578
(dp7579
g15
(irule
Guard
p7580
(dp7581
g18
I00
sg19
(lp7582
(irule
ConstantPhoneme
p7583
(dp7584
S'p'
g5645
sbasg21
I00
sg22
g5645
sg23
I00
sg24
S'L'
sbsg25
(irule
FeatureMatrix
p7585
(dp7586
g37
(lp7587
(I01
g5649
tp7588
a(I01
g5651
tp7589
a(I01
g5899
tp7590
asg22
V[ +low +tense +voice ]
p7591
sbsg28
(irule
Guard
p7592
(dp7593
g18
I00
sg19
(lp7594
sg21
I00
sg22
V
sg23
I00
sg24
S'R'
sbsg34
(irule
FeatureMatrix
p7595
(dp7596
g37
(lp7597
sg22
V[  ]
p7598
sbsg22
V[  ] ---> [ +low +tense +voice ] / c\u030c^h _ 
p7599
sba(irule
Rule
p7600
(dp7601
g15
(irule
Guard
p7602
(dp7603
g18
I00
sg19
(lp7604
(irule
FeatureMatrix
p7605
(dp7606
g37
(lp7607
(I00
g5670
tp7608
a(I01
g5672
tp7609
a(I00
g6082
tp7610
asg22
V[ +aspirated -anterior -sonorant ]
p7611
sbasg21
I00
sg22
g7611
sg23
I00
sg24
S'L'
sbsg25
(irule
ConstantPhoneme
p7612
(dp7613
S'p'
Va
sbsg28
(irule
Guard
p7614
(dp7615
g18
I00
sg19
(lp7616
sg21
I00
sg22
V
sg23
I00
sg24
S'R'
sbsg34
(irule
FeatureMatrix
p7617
(dp7618
g37
(lp7619
sg22
V[  ]
p7620
sbsg22
V[  ] ---> a / [ +aspirated -anterior -sonorant ] _ 
p7621
sba(irule
Rule
p7622
(dp7623
g15
(irule
Guard
p7624
(dp7625
g18
I00
sg19
(lp7626
(irule
FeatureMatrix
p7627
(dp7628
g37
(lp7629
(I01
g5693
tp7630
asg22
V[ +sibilant ]
p7631
sbasg21
I00
sg22
g7631
sg23
I00
sg24
S'L'
sbsg25
(irule
ConstantPhoneme
p7632
(dp7633
S'p'
Va
sbsg28
(irule
Guard
p7634
(dp7635
g18
I01
sg19
(lp7636
sg21
I00
sg22
V#
sg23
I00
sg24
S'R'
sbsg34
(irule
FeatureMatrix
p7637
(dp7638
g37
(lp7639
(I01
g6082
tp7640
asg22
V[ +sonorant ]
p7641
sbsg22
V[ +sonorant ] ---> a / [ +sibilant ] _ #
p7642
sba(irule
Rule
p7643
(dp7644
g15
(irule
Guard
p7645
(dp7646
g18
I00
sg19
(lp7647
(irule
FeatureMatrix
p7648
(dp7649
g37
(lp7650
(I00
g5670
tp7651
a(I01
g5672
tp7652
asg22
V[ +aspirated -anterior ]
p7653
sbasg21
I00
sg22
g7653
sg23
I00
sg24
S'L'
sbsg25
(irule
ConstantPhoneme
p7654
(dp7655
S'p'
Va
sbsg28
(irule
Guard
p7656
(dp7657
g18
I00
sg19
(lp7658
sg21
I00
sg22
V
sg23
I00
sg24
S'R'
sbsg34
(irule
FeatureMatrix
p7659
(dp7660
g37
(lp7661
(I01
g5899
tp7662
asg22
V[ +voice ]
p7663
sbsg22
V[ +voice ] ---> a / [ +aspirated -anterior ] _ 
p7664
sba(irule
Rule
p7665
(dp7666
g15
(irule
Guard
p7667
(dp7668
g18
I00
sg19
(lp7669
(irule
FeatureMatrix
p7670
(dp7671
g37
(lp7672
(I01
g5672
tp7673
a(I01
g5693
tp7674
asg22
V[ +aspirated +sibilant ]
p7675
sbasg21
I00
sg22
g7675
sg23
I00
sg24
S'L'
sbsg25
(irule
ConstantPhoneme
p7676
(dp7677
S'p'
Va
sbsg28
(irule
Guard
p7678
(dp7679
g18
I00
sg19
(lp7680
sg21
I00
sg22
V
sg23
I00
sg24
S'R'
sbsg34
(irule
FeatureMatrix
p7681
(dp7682
g37
(lp7683
(I00
g5670
tp7684
asg22
V[ -anterior ]
p7685
sbsg22
V[ -anterior ] ---> a / [ +aspirated +sibilant ] _ 
p7686
sba(irule
Rule
p7687
(dp7688
g15
(irule
Guard
p7689
(dp7690
g18
I00
sg19
(lp7691
(irule
FeatureMatrix
p7692
(dp7693
g37
(lp7694
(I01
g5693
tp7695
asg22
V[ +sibilant ]
p7696
sbasg21
I00
sg22
g7696
sg23
I00
sg24
S'L'
sbsg25
(irule
ConstantPhoneme
p7697
(dp7698
S'p'
Va
sbsg28
(irule
Guard
p7699
(dp7700
g18
I01
sg19
(lp7701
sg21
I00
sg22
V#
sg23
I00
sg24
S'R'
sbsg34
(irule
FeatureMatrix
p7702
(dp7703
g37
(lp7704
(I00
g5651
tp7705
asg22
V[ -low ]
p7706
sbsg22
V[ -low ] ---> a / [ +sibilant ] _ #
p7707
sba(irule
Rule
p7708
(dp7709
g15
(irule
Guard
p7710
(dp7711
g18
I00
sg19
(lp7712
(irule
FeatureMatrix
p7713
(dp7714
g37
(lp7715
(I01
g5693
tp7716
a(I00
g5899
tp7717
asg22
V[ +sibilant -voice ]
p7718
sbasg21
I00
sg22
g7718
sg23
I00
sg24
S'L'
sbsg25
(irule
ConstantPhoneme
p7719
(dp7720
S'p'
Va
sbsg28
(irule
Guard
p7721
(dp7722
g18
I01
sg19
(lp7723
sg21
I00
sg22
V#
sg23
I00
sg24
S'R'
sbsg34
(irule
FeatureMatrix
p7724
(dp7725
g37
(lp7726
sg22
V[  ]
p7727
sbsg22
V[  ] ---> a / [ +sibilant -voice ] _ #
p7728
sbaasbsS'parameters'
p7729
g6
(cargparse
Namespace
p7730
g8
NtRp7731
(dp7732
S'restore'
p7733
NsS'features'
p7734
S'sophisticated'
p7735
sS'universal'
p7736
NsS'restrict'
p7737
NsS'seed'
p7738
NsS'serial'
p7739
I00
sS'cv'
p7740
I00
sS'alignment'
p7741
I00
sS'top'
p7742
I100
sS'maximumDepth'
p7743
I3
sS'window'
p7744
NsS'minimizeBits'
p7745
I5
sS'samples'
p7746
I30
sS'save'
p7747
NsS'resume'
p7748
I00
sS'disableClean'
p7749
I00
sS'stemBaseline'
p7750
I30
sS'dummy'
p7751
I00
sS'task'
p7752
S'incremental'
p7753
sS'geometry'
p7754
I01
sS'verbosity'
p7755
I0
sS'noConstant'
p7756
I00
sS'timeout'
p7757
F24
sS'debug'
p7758
NsS'cores'
p7759
I40
sg598
S'Odden_81_Korean'
p7760
sS'mergeFrontiers'
p7761
I00
sbsb.