(iresult
Result
p1
(dp2
S'startTime'
p3
F1559660655.330138
sS'solutionSequence'
p4
(lp5
(ccopy_reg
_reconstructor
p6
(csolution
Solution
p7
c__builtin__
object
p8
NtRp9
(dp10
S'rules'
p11
(lp12
(irule
Rule
p13
(dp14
S'leftTriggers'
p15
(irule
Guard
p16
(dp17
S'endOfString'
p18
I00
sS'specifications'
p19
(lp20
sS'optionalEnding'
p21
I00
sS'representation'
p22
V
sS'starred'
p23
I00
sS'side'
p24
S'L'
sbsS'structuralChange'
p25
(irule
FeatureMatrix
p26
(dp27
S'featuresAndPolarities'
p28
(lp29
sg22
V[  ]
p30
sbsS'rightTriggers'
p31
(irule
Guard
p32
(dp33
g18
I00
sg19
(lp34
sg21
I00
sg22
V
sg23
I00
sg24
S'R'
sbsS'focus'
p35
(irule
FeatureMatrix
p36
(dp37
g28
(lp38
sg22
V[  ]
p39
sbsg22
V[  ] ---> [  ] /  _ 
p40
sbasS'prefixes'
p41
(lp42
(imorph
Morph
p43
(dp44
S'phonemes'
p45
(lp46
sba(imorph
Morph
p47
(dp48
g45
(lp49
Vn
aVo
asbasS'underlyingForms'
p50
(dp51
((imorph
Morph
p52
(dp53
g45
(lp54
Vt
aVo
aVn
aVi
aVr
aVo
asb(imorph
Morph
p55
(dp56
g45
(lp57
Vn
aVo
aVt
aVo
aVn
aVi
aVr
aVo
aVt
aVi
asbtp58
(imorph
Morph
p59
(dp60
g45
(lp61
Vt
aVo
aVn
aVi
aVr
aVo
asbs((imorph
Morph
p62
(dp63
g45
(lp64
Vy
aVa
aVa
aVr
aVa
aVt
aVo
asb(imorph
Morph
p65
(dp66
g45
(lp67
Vn
aVo
aVy
aVa
aVa
aVr
aVa
aVt
aVo
aVt
aVi
asbtp68
(imorph
Morph
p69
(dp70
g45
(lp71
Vy
aVa
aVa
aVr
aVa
aVt
aVo
asbssS'suffixes'
p72
(lp73
(imorph
Morph
p74
(dp75
g45
(lp76
sba(imorph
Morph
p77
(dp78
g45
(lp79
Vt
aVi
asbasbF7.8230011463165283
tp80
a(g6
(g7
g8
NtRp81
(dp82
g11
(lp83
(irule
Rule
p84
(dp85
g15
(irule
Guard
p86
(dp87
g18
I00
sg19
(lp88
(irule
FeatureMatrix
p89
(dp90
g28
(lp91
sg22
V[  ]
p92
sbasg21
I00
sg22
g92
sg23
I00
sg24
S'L'
sbsg25
(irule
ConstantPhoneme
p93
(dp94
S'p'
Vy
sbsg31
(irule
Guard
p95
(dp96
g18
I00
sg19
(lp97
sg21
I00
sg22
V
sg23
I00
sg24
S'R'
sbsg35
(irule
ConstantPhoneme
p98
(dp99
S'p'
Vk
sbsg22
Vk ---> y / [  ] _ 
p100
sbasg41
(lp101
(imorph
Morph
p102
(dp103
g45
(lp104
sba(imorph
Morph
p105
(dp106
g45
(lp107
Vn
aVo
asbasg50
(dp108
(g52
g55
tp109
(imorph
Morph
p110
(dp111
g45
(lp112
Vt
aVo
aVn
aVi
aVr
aVo
asbs(g62
g65
tp113
(imorph
Morph
p114
(dp115
g45
(lp116
Vy
aVa
aVa
aVr
aVa
aVt
aVo
asbs((imorph
Morph
p117
(dp118
g45
(lp119
Vk
aVa
aVn
aVa
aVr
aVi
asb(imorph
Morph
p120
(dp121
g45
(lp122
Vn
aVo
aVy
aVa
aVn
aVa
aVr
aVi
aVt
aVi
asbtp123
(imorph
Morph
p124
(dp125
g45
(lp126
Vk
aVa
aVn
aVa
aVr
aVi
asbssg72
(lp127
(imorph
Morph
p128
(dp129
g45
(lp130
sba(imorph
Morph
p131
(dp132
g45
(lp133
Vt
aVi
asbasbF41.240092039108276
tp134
a(g6
(g7
g8
NtRp135
(dp136
g11
(lp137
(irule
Rule
p138
(dp139
g15
(irule
Guard
p140
(dp141
g18
I01
sg19
(lp142
sg21
I00
sg22
V#
sg23
I00
sg24
S'L'
sbsg25
(irule
ConstantPhoneme
p143
(dp144
S'p'
Vp
sbsg31
(irule
Guard
p145
(dp146
g18
I00
sg19
(lp147
sg21
I00
sg22
V
sg23
I00
sg24
S'R'
sbsg35
(irule
ConstantPhoneme
p148
(dp149
S'p'
Vw
sbsg22
Vw ---> p / # _ 
p150
sba(irule
Rule
p151
(dp152
g15
(irule
Guard
p153
(dp154
g18
I00
sg19
(lp155
(irule
FeatureMatrix
p156
(dp157
g28
(lp158
sg22
V[  ]
p159
sbasg21
I00
sg22
g159
sg23
I00
sg24
S'L'
sbsg25
(irule
ConstantPhoneme
p160
(dp161
S'p'
Vy
sbsg31
(irule
Guard
p162
(dp163
g18
I00
sg19
(lp164
sg21
I00
sg22
V
sg23
I00
sg24
S'R'
sbsg35
(irule
ConstantPhoneme
p165
(dp166
S'p'
Vk
sbsg22
Vk ---> y / [  ] _ 
p167
sbasg41
(lp168
(imorph
Morph
p169
(dp170
g45
(lp171
sba(imorph
Morph
p172
(dp173
g45
(lp174
Vn
aVo
asbasg50
(dp175
(g117
g120
tp176
(imorph
Morph
p177
(dp178
g45
(lp179
Vk
aVa
aVn
aVa
aVr
aVi
asbs(g52
g55
tp180
(imorph
Morph
p181
(dp182
g45
(lp183
Vt
aVo
aVn
aVi
aVr
aVo
asbs((imorph
Morph
(dp184
g45
(lp185
Vp
aVo
aVr
aVi
aVt
aVa
asb(imorph
Morph
(dp186
g45
(lp187
Vn
aVo
aVw
aVo
aVr
aVi
aVt
aVa
aVt
aVi
asbtp188
(imorph
Morph
p189
(dp190
g45
(lp191
Vw
aVo
aVr
aVi
aVt
aVa
asbs(g62
g65
tp192
(imorph
Morph
p193
(dp194
g45
(lp195
Vy
aVa
aVa
aVr
aVa
aVt
aVo
asbs((imorph
Morph
p196
(dp197
g45
(lp198
Vp
aVi
aVs
aVi
aVr
aVo
asb(imorph
Morph
p199
(dp200
g45
(lp201
Vn
aVo
aVw
aVi
aVs
aVi
aVr
aVo
aVt
aVi
asbtp202
(imorph
Morph
p203
(dp204
g45
(lp205
Vw
aVi
aVs
aVi
aVr
aVo
asbs((imorph
Morph
(dp206
g45
(lp207
Vk
aVo
aVs
aVi
aVr
aVi
asb(imorph
Morph
(dp208
g45
(lp209
Vn
aVo
aVy
aVo
aVs
aVi
aVr
aVi
aVt
aVi
asbtp210
(imorph
Morph
p211
(dp212
g45
(lp213
Vk
aVo
aVs
aVi
aVr
aVi
asbssg72
(lp214
(imorph
Morph
p215
(dp216
g45
(lp217
sba(imorph
Morph
p218
(dp219
g45
(lp220
Vt
aVi
asbasbF1706.0452411174774
tp221
asS'problem'
p222
S'Odden_1.1_Axininca_Campa'
p223
sS'finalFrontier'
p224
g6
(csolution
Frontier
p225
g8
NtRp226
(dp227
g41
g168
sg72
g214
sg50
g175
sS'frontiers'
p228
(lp229
(lp230
g138
aa(lp231
g151
aasbsS'parameters'
p232
g6
(cargparse
Namespace
p233
g8
NtRp234
(dp235
S'restore'
p236
NsS'features'
p237
S'none'
p238
sS'universal'
p239
NsS'restrict'
p240
NsS'seed'
p241
S'0'
sS'serial'
p242
I00
sS'alignment'
p243
I00
sS'top'
p244
I1
sS'maximumDepth'
p245
I3
sS'window'
p246
NsS'minimizeBits'
p247
I5
sS'samples'
p248
I30
sS'save'
p249
NsS'resume'
p250
I00
sS'disableClean'
p251
I01
sS'stemBaseline'
p252
I30
sS'dummy'
p253
I00
sS'task'
p254
S'CEGIS'
p255
sS'geometry'
p256
NsS'verbosity'
p257
I0
sS'timeout'
p258
F24
sS'debug'
p259
NsS'cores'
p260
I64
sg222
S'Odden_1.1_Axininca_Campa'
p261
sS'mergeFrontiers'
p262
I00
sbsb.