(iresult
Result
p1
(dp2
S'startTime'
p3
F1565820333.3561521
sS'solutionSequence'
p4
(lp5
(ccopy_reg
_reconstructor
p6
(csolution
Solution
p7
c__builtin__
object
p8
NtRp9
(dp10
S'rules'
p11
(lp12
(irule
Rule
p13
(dp14
S'leftTriggers'
p15
(irule
Guard
p16
(dp17
S'endOfString'
p18
I00
sS'specifications'
p19
(lp20
sS'optionalEnding'
p21
I00
sS'representation'
p22
V
sS'starred'
p23
I00
sS'side'
p24
S'L'
sbsS'structuralChange'
p25
(irule
ConstantPhoneme
p26
(dp27
S'p'
Vp
sbsS'rightTriggers'
p28
(irule
Guard
p29
(dp30
g18
I01
sg19
(lp31
sg21
I00
sg22
V#
sg23
I00
sg24
S'R'
sbsS'focus'
p32
(irule
FeatureMatrix
p33
(dp34
S'featuresAndPolarities'
p35
(lp36
(I01
S'stop'
p37
tp38
asg22
V[ +stop ]
p39
sbsg22
V[ +stop ] ---> p /  _ #
p40
sbasS'prefixes'
p41
(lp42
(imorph
Morph
p43
(dp44
S'phonemes'
p45
(lp46
sba(imorph
Morph
p47
(dp48
g45
(lp49
sbasS'underlyingForms'
p50
(dp51
((imorph
Morph
p52
(dp53
g45
(lp54
Vk
aVl
aVu
aVp
asb(imorph
Morph
p55
(dp56
g45
(lp57
Vk
aVl
aVu
aVb
aVi
asbtp58
(imorph
Morph
p59
(dp60
g45
(lp61
Vk
aVl
aVu
aVb
asbs((imorph
Morph
p62
(dp63
g45
(lp64
Vt
aVr
aVu
aVp
asb(imorph
Morph
p65
(dp66
g45
(lp67
Vt
aVr
aVu
aVp
aVi
asbtp68
(imorph
Morph
p69
(dp70
g45
(lp71
Vt
aVr
aVu
aVp
asbs((imorph
Morph
p72
(dp73
g45
(lp74
Vd
aVo
aVm
asb(imorph
Morph
p75
(dp76
g45
(lp77
Vd
aVo
aVm
aVi
asbtp78
(imorph
Morph
p79
(dp80
g45
(lp81
Vd
aVo
aVm
asbssS'suffixes'
p82
(lp83
(imorph
Morph
p84
(dp85
g45
(lp86
sba(imorph
Morph
p87
(dp88
g45
(lp89
Vi
asbasbF36.312947988510132
tp90
a(g6
(g7
g8
NtRp91
(dp92
g11
(lp93
(irule
Rule
p94
(dp95
g15
(irule
Guard
p96
(dp97
g18
I00
sg19
(lp98
sg21
I00
sg22
V
sg23
I00
sg24
S'L'
sbsg25
(irule
ConstantPhoneme
p99
(dp100
S'p'
Vp
sbsg28
(irule
Guard
p101
(dp102
g18
I01
sg19
(lp103
sg21
I00
sg22
V#
sg23
I00
sg24
S'R'
sbsg32
(irule
ConstantPhoneme
p104
(dp105
S'p'
Vb
sbsg22
Vb ---> p /  _ #
p106
sba(irule
Rule
p107
(dp108
g15
(irule
Guard
p109
(dp110
g18
I00
sg19
(lp111
sg21
I00
sg22
V
sg23
I00
sg24
S'L'
sbsg25
(irule
ConstantPhoneme
p112
(dp113
S'p'
Vu
sbsg28
(irule
Guard
p114
(dp115
g18
I00
sg19
(lp116
(irule
FeatureMatrix
p117
(dp118
g35
(lp119
(I00
S'voice'
p120
tp121
asg22
V[ -voice ]
p122
sbasg21
I00
sg22
g122
sg23
I00
sg24
S'R'
sbsg32
(irule
FeatureMatrix
p123
(dp124
g35
(lp125
sg22
V[  ]
p126
sbsg22
V[  ] ---> u /  _ [ -voice ]
p127
sbasg41
(lp128
(imorph
Morph
p129
(dp130
g45
(lp131
sba(imorph
Morph
p132
(dp133
g45
(lp134
sbasg50
(dp135
(g52
g55
tp136
(imorph
Morph
p137
(dp138
g45
(lp139
Vk
aVl
aVu
aVb
asbs(g62
g65
tp140
(imorph
Morph
p141
(dp142
g45
(lp143
Vt
aVr
aVu
aVp
asbs(g72
g75
tp144
(imorph
Morph
p145
(dp146
g45
(lp147
Vd
aVo
aVm
asbs((imorph
Morph
p148
(dp149
g45
(lp150
Vz\u030c
p151
aVw
aVu
aVp
asb(imorph
Morph
p152
(dp153
g45
(lp154
Vz\u030c
p155
aVw
aVo
aVb
aVi
asbtp156
(imorph
Morph
p157
(dp158
g45
(lp159
Vz\u030c
p160
aVw
aVo
aVb
asbssg82
(lp161
(imorph
Morph
p162
(dp163
g45
(lp164
sba(imorph
Morph
p165
(dp166
g45
(lp167
Vi
asbasbF670.34422588348389
tp168
a(g6
(g7
g8
NtRp169
(dp170
g11
(lp171
(irule
Rule
p172
(dp173
g15
(irule
Guard
p174
(dp175
g18
I00
sg19
(lp176
sg21
I00
sg22
V
sg23
I00
sg24
S'L'
sbsg25
(irule
ConstantPhoneme
p177
(dp178
S'p'
Vu
sbsg28
(irule
Guard
p179
(dp180
g18
I01
sg19
(lp181
(irule
ConstantPhoneme
p182
(dp183
S'p'
Vb
sbasg21
I00
sg22
Vb #
p184
sg23
I00
sg24
S'R'
sbsg32
(irule
FeatureMatrix
p185
(dp186
g35
(lp187
sg22
V[  ]
p188
sbsg22
V[  ] ---> u /  _ b #
p189
sba(irule
Rule
p190
(dp191
g15
(irule
Guard
p192
(dp193
g18
I00
sg19
(lp194
sg21
I00
sg22
V
sg23
I00
sg24
S'L'
sbsg25
(irule
ConstantPhoneme
p195
(dp196
S'p'
Vp
sbsg28
(irule
Guard
p197
(dp198
g18
I01
sg19
(lp199
sg21
I00
sg22
V#
sg23
I00
sg24
S'R'
sbsg32
(irule
FeatureMatrix
p200
(dp201
g35
(lp202
(I00
S'sonorant'
p203
tp204
asg22
V[ -sonorant ]
p205
sbsg22
V[ -sonorant ] ---> p /  _ #
p206
sbasg41
(lp207
(imorph
Morph
p208
(dp209
g45
(lp210
sba(imorph
Morph
p211
(dp212
g45
(lp213
sbasg50
(dp214
(g52
g55
tp215
(imorph
Morph
p216
(dp217
g45
(lp218
Vk
aVl
aVu
aVb
asbs(g62
g65
tp219
(imorph
Morph
p220
(dp221
g45
(lp222
Vt
aVr
aVu
aVp
asbs(g72
g75
tp223
(imorph
Morph
p224
(dp225
g45
(lp226
Vd
aVo
aVm
asbs(g148
g152
tp227
(imorph
Morph
p228
(dp229
g45
(lp230
g160
aVw
aVo
aVb
asbs((imorph
Morph
p231
(dp232
g45
(lp233
Vs
aVn
aVo
aVp
asb(imorph
Morph
p234
(dp235
g45
(lp236
Vs
aVn
aVo
aVp
aVi
asbtp237
(imorph
Morph
p238
(dp239
g45
(lp240
Vs
aVn
aVo
aVp
asbssg82
(lp241
(imorph
Morph
p242
(dp243
g45
(lp244
sba(imorph
Morph
p245
(dp246
g45
(lp247
Vi
asbasbF2634.629142999649
tp248
a(g6
(g7
g8
NtRp249
(dp250
g11
(lp251
(irule
Rule
p252
(dp253
g15
(irule
Guard
p254
(dp255
g18
I00
sg19
(lp256
sg21
I00
sg22
V
sg23
I00
sg24
S'L'
sbsg25
(irule
ConstantPhoneme
p257
(dp258
S'p'
Vu
sbsg28
(irule
Guard
p259
(dp260
g18
I01
sg19
(lp261
(irule
ConstantPhoneme
p262
(dp263
S'p'
Vb
sbasg21
I00
sg22
Vb #
p264
sg23
I00
sg24
S'R'
sbsg32
(irule
FeatureMatrix
p265
(dp266
g35
(lp267
sg22
V[  ]
p268
sbsg22
V[  ] ---> u /  _ b #
p269
sba(irule
Rule
p270
(dp271
g15
(irule
Guard
p272
(dp273
g18
I00
sg19
(lp274
sg21
I00
sg22
V
sg23
I00
sg24
S'L'
sbsg25
(irule
FeatureMatrix
p275
(dp276
g35
(lp277
(I00
g120
tp278
asg22
V[ -voice ]
p279
sbsg28
(irule
Guard
p280
(dp281
g18
I01
sg19
(lp282
sg21
I00
sg22
V#
sg23
I00
sg24
S'R'
sbsg32
(irule
FeatureMatrix
p283
(dp284
g35
(lp285
(I00
g203
tp286
asg22
V[ -sonorant ]
p287
sbsg22
V[ -sonorant ] ---> [ -voice ] /  _ #
p288
sbasg41
(lp289
(imorph
Morph
p290
(dp291
g45
(lp292
sba(imorph
Morph
p293
(dp294
g45
(lp295
sbasg50
(dp296
(g72
g75
tp297
(imorph
Morph
p298
(dp299
g45
(lp300
Vd
aVo
aVm
asbs((imorph
Morph
p301
(dp302
g45
(lp303
Vt
aVr
aVu
aVt
asb(imorph
Morph
p304
(dp305
g45
(lp306
Vt
aVr
aVu
aVd
aVi
asbtp307
(imorph
Morph
p308
(dp309
g45
(lp310
Vt
aVr
aVu
aVd
asbs(g231
g234
tp311
(imorph
Morph
p312
(dp313
g45
(lp314
Vs
aVn
aVo
aVp
asbs(g62
g65
tp315
(imorph
Morph
p316
(dp317
g45
(lp318
Vt
aVr
aVu
aVp
asbs(g52
g55
tp319
(imorph
Morph
p320
(dp321
g45
(lp322
Vk
aVl
aVu
aVb
asbs(g148
g152
tp323
(imorph
Morph
p324
(dp325
g45
(lp326
g160
aVw
aVo
aVb
asbssg82
(lp327
(imorph
Morph
p328
(dp329
g45
(lp330
sba(imorph
Morph
p331
(dp332
g45
(lp333
Vi
asbasbF5600.4805200099945
tp334
a(g6
(g7
g8
NtRp335
(dp336
g11
(lp337
(irule
Rule
p338
(dp339
g15
(irule
Guard
p340
(dp341
g18
I00
sg19
(lp342
sg21
I00
sg22
V
sg23
I00
sg24
S'L'
sbsg25
(irule
FeatureMatrix
p343
(dp344
g35
(lp345
(I00
g120
tp346
asg22
V[ -voice ]
p347
sbsg28
(irule
Guard
p348
(dp349
g18
I01
sg19
(lp350
sg21
I00
sg22
V#
sg23
I00
sg24
S'R'
sbsg32
(irule
FeatureMatrix
p351
(dp352
g35
(lp353
(I00
g203
tp354
asg22
V[ -sonorant ]
p355
sbsg22
V[ -sonorant ] ---> [ -voice ] /  _ #
p356
sba(irule
Rule
p357
(dp358
g15
(irule
Guard
p359
(dp360
g18
I00
sg19
(lp361
(irule
FeatureMatrix
p362
(dp363
g35
(lp364
(I00
S'alveolar'
p365
tp366
asg22
V[ -alveolar ]
p367
sbasg21
I00
sg22
g367
sg23
I00
sg24
S'L'
sbsg25
(irule
ConstantPhoneme
p368
(dp369
S'p'
Vu
sbsg28
(irule
Guard
p370
(dp371
g18
I00
sg19
(lp372
(irule
FeatureMatrix
p373
(dp374
g35
(lp375
(I00
g120
tp376
asg22
V[ -voice ]
p377
sbasg21
I00
sg22
g377
sg23
I00
sg24
S'R'
sbsg32
(irule
FeatureMatrix
p378
(dp379
g35
(lp380
sg22
V[  ]
p381
sbsg22
V[  ] ---> u / [ -alveolar ] _ [ -voice ]
p382
sbasg41
(lp383
(imorph
Morph
p384
(dp385
g45
(lp386
sba(imorph
Morph
p387
(dp388
g45
(lp389
sbasg50
(dp390
(g72
g75
tp391
(imorph
Morph
p392
(dp393
g45
(lp394
Vd
aVo
aVm
asbs((imorph
Morph
p395
(dp396
g45
(lp397
Vl
aVu
aVt
asb(imorph
Morph
p398
(dp399
g45
(lp400
Vl
aVo
aVd
aVi
asbtp401
(imorph
Morph
p402
(dp403
g45
(lp404
Vl
aVo
aVd
asbs(g301
g304
tp405
(imorph
Morph
p406
(dp407
g45
(lp408
Vt
aVr
aVu
aVd
asbs(g231
g234
tp409
(imorph
Morph
p410
(dp411
g45
(lp412
Vs
aVn
aVo
aVp
asbs(g62
g65
tp413
(imorph
Morph
p414
(dp415
g45
(lp416
Vt
aVr
aVu
aVp
asbs(g52
g55
tp417
(imorph
Morph
p418
(dp419
g45
(lp420
Vk
aVl
aVu
aVb
asbs(g148
g152
tp421
(imorph
Morph
p422
(dp423
g45
(lp424
g160
aVw
aVo
aVb
asbssg82
(lp425
(imorph
Morph
p426
(dp427
g45
(lp428
sba(imorph
Morph
p429
(dp430
g45
(lp431
Vi
asbasbF11667.827946901321
tp432
a(g6
(g7
g8
NtRp433
(dp434
g11
(lp435
(irule
Rule
p436
(dp437
g15
(irule
Guard
p438
(dp439
g18
I00
sg19
(lp440
sg21
I00
sg22
V
sg23
I00
sg24
S'L'
sbsg25
(irule
ConstantPhoneme
p441
(dp442
S'p'
Vu
sbsg28
(irule
Guard
p443
(dp444
g18
I01
sg19
(lp445
(irule
FeatureMatrix
p446
(dp447
g35
(lp448
(I00
g203
tp449
a(I01
g120
tp450
asg22
V[ +voice -sonorant ]
p451
sbasg21
I00
sg22
V[ +voice -sonorant ] #
p452
sg23
I00
sg24
S'R'
sbsg32
(irule
FeatureMatrix
p453
(dp454
g35
(lp455
sg22
V[  ]
p456
sbsg22
V[  ] ---> u /  _ [ +voice -sonorant ] #
p457
sba(irule
Rule
p458
(dp459
g15
(irule
Guard
p460
(dp461
g18
I00
sg19
(lp462
sg21
I00
sg22
V
sg23
I00
sg24
S'L'
sbsg25
(irule
FeatureMatrix
p463
(dp464
g35
(lp465
(I00
g120
tp466
asg22
V[ -voice ]
p467
sbsg28
(irule
Guard
p468
(dp469
g18
I01
sg19
(lp470
sg21
I00
sg22
V#
sg23
I00
sg24
S'R'
sbsg32
(irule
FeatureMatrix
p471
(dp472
g35
(lp473
(I00
g203
tp474
asg22
V[ -sonorant ]
p475
sbsg22
V[ -sonorant ] ---> [ -voice ] /  _ #
p476
sbasg41
(lp477
(imorph
Morph
p478
(dp479
g45
(lp480
sba(imorph
Morph
p481
(dp482
g45
(lp483
sbasg50
(dp484
(g72
g75
tp485
(imorph
Morph
p486
(dp487
g45
(lp488
Vd
aVo
aVm
asbs(g395
g398
tp489
(imorph
Morph
p490
(dp491
g45
(lp492
Vl
aVo
aVd
asbs(g301
g304
tp493
(imorph
Morph
p494
(dp495
g45
(lp496
Vt
aVr
aVu
aVd
asbs((imorph
Morph
p497
(dp498
g45
(lp499
Vk
aVo
aVt
asb(imorph
Morph
p500
(dp501
g45
(lp502
Vk
aVo
aVt
aVi
asbtp503
(imorph
Morph
p504
(dp505
g45
(lp506
Vk
aVo
aVt
asbs(g231
g234
tp507
(imorph
Morph
p508
(dp509
g45
(lp510
Vs
aVn
aVo
aVp
asbs(g62
g65
tp511
(imorph
Morph
p512
(dp513
g45
(lp514
Vt
aVr
aVu
aVp
asbs(g52
g55
tp515
(imorph
Morph
p516
(dp517
g45
(lp518
Vk
aVl
aVu
aVb
asbs(g148
g152
tp519
(imorph
Morph
p520
(dp521
g45
(lp522
g160
aVw
aVo
aVb
asbssg82
(lp523
(imorph
Morph
p524
(dp525
g45
(lp526
sba(imorph
Morph
p527
(dp528
g45
(lp529
Vi
asbasbF16207.355283021927
tp530
a(g6
(g7
g8
NtRp531
(dp532
g11
(lp533
(irule
Rule
p534
(dp535
g15
(irule
Guard
p536
(dp537
g18
I00
sg19
(lp538
sg21
I00
sg22
V
sg23
I00
sg24
S'L'
sbsg25
(irule
ConstantPhoneme
p539
(dp540
S'p'
Vu
sbsg28
(irule
Guard
p541
(dp542
g18
I01
sg19
(lp543
(irule
FeatureMatrix
p544
(dp545
g35
(lp546
(I00
S'nasal'
p547
tp548
a(I01
g120
tp549
asg22
V[ +voice -nasal ]
p550
sbasg21
I00
sg22
V[ +voice -nasal ] #
p551
sg23
I00
sg24
S'R'
sbsg32
(irule
FeatureMatrix
p552
(dp553
g35
(lp554
(I01
S'tense'
p555
tp556
asg22
V[ +tense ]
p557
sbsg22
V[ +tense ] ---> u /  _ [ +voice -nasal ] #
p558
sba(irule
Rule
p559
(dp560
g15
(irule
Guard
p561
(dp562
g18
I00
sg19
(lp563
sg21
I00
sg22
V
sg23
I00
sg24
S'L'
sbsg25
(irule
FeatureMatrix
p564
(dp565
g35
(lp566
(I00
g120
tp567
asg22
V[ -voice ]
p568
sbsg28
(irule
Guard
p569
(dp570
g18
I01
sg19
(lp571
sg21
I00
sg22
V#
sg23
I00
sg24
S'R'
sbsg32
(irule
FeatureMatrix
p572
(dp573
g35
(lp574
(I01
g37
tp575
asg22
V[ +stop ]
p576
sbsg22
V[ +stop ] ---> [ -voice ] /  _ #
p577
sbasg41
(lp578
(imorph
Morph
p579
(dp580
g45
(lp581
sba(imorph
Morph
p582
(dp583
g45
(lp584
sbasg50
(dp585
(g72
g75
tp586
(imorph
Morph
p587
(dp588
g45
(lp589
Vd
aVo
aVm
asbs(g395
g398
tp590
(imorph
Morph
p591
(dp592
g45
(lp593
Vl
aVo
aVd
asbs(g301
g304
tp594
(imorph
Morph
p595
(dp596
g45
(lp597
Vt
aVr
aVu
aVd
asbs(g497
g500
tp598
(imorph
Morph
p599
(dp600
g45
(lp601
Vk
aVo
aVt
asbs(g231
g234
tp602
(imorph
Morph
p603
(dp604
g45
(lp605
Vs
aVn
aVo
aVp
asbs(g62
g65
tp606
(imorph
Morph
p607
(dp608
g45
(lp609
Vt
aVr
aVu
aVp
asbs((imorph
Morph
p610
(dp611
g45
(lp612
Vb
aVu
aVr
asb(imorph
Morph
p613
(dp614
g45
(lp615
Vb
aVo
aVr
aVi
asbtp616
(imorph
Morph
p617
(dp618
g45
(lp619
Vb
aVo
aVr
asbs(g52
g55
tp620
(imorph
Morph
p621
(dp622
g45
(lp623
Vk
aVl
aVu
aVb
asbs(g148
g152
tp624
(imorph
Morph
p625
(dp626
g45
(lp627
g160
aVw
aVo
aVb
asbssg82
(lp628
(imorph
Morph
p629
(dp630
g45
(lp631
sba(imorph
Morph
p632
(dp633
g45
(lp634
Vi
asbasbF35724.518880844116
tp635
a(g6
(g7
g8
NtRp636
(dp637
g11
(lp638
(irule
Rule
p639
(dp640
g15
(irule
Guard
p641
(dp642
g18
I00
sg19
(lp643
sg21
I00
sg22
V
sg23
I00
sg24
S'L'
sbsg25
(irule
ConstantPhoneme
p644
(dp645
S'p'
Vu
sbsg28
(irule
Guard
p646
(dp647
g18
I01
sg19
(lp648
(irule
FeatureMatrix
p649
(dp650
g35
(lp651
(I00
g547
tp652
a(I00
S'front'
p653
tp654
a(I01
g120
tp655
asg22
V[ +voice -front -nasal ]
p656
sbasg21
I00
sg22
V[ +voice -front -nasal ] #
p657
sg23
I00
sg24
S'R'
sbsg32
(irule
FeatureMatrix
p658
(dp659
g35
(lp660
sg22
V[  ]
p661
sbsg22
V[  ] ---> u /  _ [ +voice -front -nasal ] #
p662
sba(irule
Rule
p663
(dp664
g15
(irule
Guard
p665
(dp666
g18
I00
sg19
(lp667
sg21
I00
sg22
V
sg23
I00
sg24
S'L'
sbsg25
(irule
FeatureMatrix
p668
(dp669
g35
(lp670
(I00
g120
tp671
asg22
V[ -voice ]
p672
sbsg28
(irule
Guard
p673
(dp674
g18
I01
sg19
(lp675
sg21
I00
sg22
V#
sg23
I00
sg24
S'R'
sbsg32
(irule
FeatureMatrix
p676
(dp677
g35
(lp678
(I00
g203
tp679
asg22
V[ -sonorant ]
p680
sbsg22
V[ -sonorant ] ---> [ -voice ] /  _ #
p681
sbasg41
(lp682
(imorph
Morph
p683
(dp684
g45
(lp685
sba(imorph
Morph
p686
(dp687
g45
(lp688
sbasg50
(dp689
((imorph
Morph
(dp690
g45
(lp691
Vw
aVu
aVk
asb(imorph
Morph
(dp692
g45
(lp693
Vw
aVu
aVk
aVi
asbtp694
(imorph
Morph
p695
(dp696
g45
(lp697
Vw
aVu
aVk
asbs((imorph
Morph
(dp698
g45
(lp699
Vv
aVu
aVw
asb(imorph
Morph
(dp700
g45
(lp701
Vv
aVo
aVw
aVi
asbtp702
(imorph
Morph
p703
(dp704
g45
(lp705
Vv
aVo
aVw
asbs((imorph
Morph
(dp706
g45
(lp707
Vb
aVu
aVy
asb(imorph
Morph
(dp708
g45
(lp709
Vb
aVo
aVy
aVi
asbtp710
(imorph
Morph
p711
(dp712
g45
(lp713
Vb
aVo
aVy
asbs((imorph
Morph
(dp714
g45
(lp715
Vr
aVu
aVk
asb(imorph
Morph
(dp716
g45
(lp717
Vr
aVo
aVg
aVi
asbtp718
(imorph
Morph
p719
(dp720
g45
(lp721
Vr
aVo
aVg
asbs(g52
g55
tp722
(imorph
Morph
p723
(dp724
g45
(lp725
Vk
aVl
aVu
aVb
asbs((imorph
Morph
(dp726
g45
(lp727
Vn
aVo
aVs
asb(imorph
Morph
(dp728
g45
(lp729
Vn
aVo
aVs
aVi
asbtp730
(imorph
Morph
p731
(dp732
g45
(lp733
Vn
aVo
aVs
asbs((imorph
Morph
p734
(dp735
g45
(lp736
Vg
aVr
aVu
aVs
asb(imorph
Morph
p737
(dp738
g45
(lp739
Vg
aVr
aVu
aVz
aVi
asbtp740
(imorph
Morph
p741
(dp742
g45
(lp743
Vg
aVr
aVu
aVz
asbs(g148
g152
tp744
(imorph
Morph
p745
(dp746
g45
(lp747
g160
aVw
aVo
aVb
asbs((imorph
Morph
(dp748
g45
(lp749
Vv
aVu
aVs
asb(imorph
Morph
(dp750
g45
(lp751
Vv
aVo
aVz
aVi
asbtp752
(imorph
Morph
p753
(dp754
g45
(lp755
Vv
aVo
aVz
asbs(g497
g500
tp756
(imorph
Morph
p757
(dp758
g45
(lp759
Vk
aVo
aVt
asbs(g62
g65
tp760
(imorph
Morph
p761
(dp762
g45
(lp763
Vt
aVr
aVu
aVp
asbs((imorph
Morph
(dp764
g45
(lp765
V\u0161
aVu
aVm
asb(imorph
Morph
(dp766
g45
(lp767
V\u0161
aVu
aVm
aVi
asbtp768
(imorph
Morph
p769
(dp770
g45
(lp771
V\u0161
aVu
aVm
asbs((imorph
Morph
(dp772
g45
(lp773
Vw
aVu
aVk
asb(imorph
Morph
(dp774
g45
(lp775
Vw
aVu
aVg
aVi
asbtp776
(imorph
Morph
p777
(dp778
g45
(lp779
Vw
aVu
aVg
asbs((imorph
Morph
(dp780
g45
(lp781
Vz\u030c
p782
aVu
aVr
asb(imorph
Morph
(dp783
g45
(lp784
Vz\u030c
p785
aVu
aVr
aVi
asbtp786
(imorph
Morph
p787
(dp788
g45
(lp789
g160
aVu
aVr
asbs(g610
g613
tp790
(imorph
Morph
p791
(dp792
g45
(lp793
Vb
aVo
aVr
asbs((imorph
Morph
(dp794
g45
(lp795
Vs
aVu
aVl
asb(imorph
Morph
(dp796
g45
(lp797
Vs
aVo
aVl
aVi
asbtp798
(imorph
Morph
p799
(dp800
g45
(lp801
Vs
aVo
aVl
asbs(g72
g75
tp802
(imorph
Morph
p803
(dp804
g45
(lp805
Vd
aVo
aVm
asbs((imorph
Morph
(dp806
g45
(lp807
Vs
aVo
aVk
asb(imorph
Morph
(dp808
g45
(lp809
Vs
aVo
aVk
aVi
asbtp810
(imorph
Morph
p811
(dp812
g45
(lp813
Vs
aVo
aVk
asbs(g301
g304
tp814
(imorph
Morph
p815
(dp816
g45
(lp817
Vt
aVr
aVu
aVd
asbs(g231
g234
tp818
(imorph
Morph
p819
(dp820
g45
(lp821
Vs
aVn
aVo
aVp
asbs((imorph
Morph
(dp822
g45
(lp823
Vd
aVz
aVv
aVo
aVn
asb(imorph
Morph
(dp824
g45
(lp825
Vd
aVz
aVv
aVo
aVn
aVi
asbtp826
(imorph
Morph
p827
(dp828
g45
(lp829
Vd
aVz
aVv
aVo
aVn
asbs(g395
g398
tp830
(imorph
Morph
p831
(dp832
g45
(lp833
Vl
aVo
aVd
asbssg82
(lp834
(imorph
Morph
p835
(dp836
g45
(lp837
sba(imorph
Morph
p838
(dp839
g45
(lp840
Vi
asbasbF53822.555204868317
tp841
asS'problem'
p842
S'Odden_3.2_Polish'
p843
sS'finalFrontier'
p844
g6
(csolution
Frontier
p845
g8
NtRp846
(dp847
g41
g682
sg82
g834
sg50
g689
sS'frontiers'
p848
(lp849
(lp850
g639
aa(lp851
g663
aasbsS'parameters'
p852
g6
(cargparse
Namespace
p853
g8
NtRp854
(dp855
S'restore'
p856
NsS'features'
p857
S'simple'
p858
sS'universal'
p859
NsS'restrict'
p860
NsS'seed'
p861
S'0'
sS'serial'
p862
I00
sS'alignment'
p863
I00
sS'top'
p864
I1
sS'maximumDepth'
p865
I3
sS'window'
p866
NsS'minimizeBits'
p867
I5
sS'samples'
p868
I30
sS'save'
p869
NsS'resume'
p870
I00
sS'disableClean'
p871
I00
sS'stemBaseline'
p872
I30
sS'dummy'
p873
I00
sS'task'
p874
S'CEGIS'
p875
sS'geometry'
p876
NsS'verbosity'
p877
I0
sS'timeout'
p878
F24
sS'debug'
p879
NsS'cores'
p880
I40
sg842
S'Odden_3.2_Polish'
p881
sS'mergeFrontiers'
p882
I00
sbsb.