(iresult
Result
p1
(dp2
S'startTime'
p3
F1563911041.7183011
sS'solutionSequence'
p4
(lp5
(ccopy_reg
_reconstructor
p6
(csolution
Solution
p7
c__builtin__
object
p8
NtRp9
(dp10
S'rules'
p11
(lp12
(irule
Rule
p13
(dp14
S'leftTriggers'
p15
(irule
Guard
p16
(dp17
S'endOfString'
p18
I00
sS'specifications'
p19
(lp20
sS'optionalEnding'
p21
I00
sS'representation'
p22
V
sS'starred'
p23
I00
sS'side'
p24
S'L'
sbsS'structuralChange'
p25
(irule
FeatureMatrix
p26
(dp27
S'featuresAndPolarities'
p28
(lp29
sg22
V[  ]
p30
sbsS'rightTriggers'
p31
(irule
Guard
p32
(dp33
g18
I00
sg19
(lp34
sg21
I00
sg22
V
sg23
I00
sg24
S'R'
sbsS'focus'
p35
(irule
FeatureMatrix
p36
(dp37
g28
(lp38
sg22
V[  ]
p39
sbsg22
V[  ] ---> [  ] /  _ 
p40
sbasS'prefixes'
p41
(lp42
(imorph
Morph
p43
(dp44
S'phonemes'
p45
(lp46
sba(imorph
Morph
p47
(dp48
g45
(lp49
sbasS'underlyingForms'
p50
(dp51
((imorph
Morph
p52
(dp53
g45
(lp54
Vv
aVa
aVg
aVo
aVn
asb(imorph
Morph
p55
(dp56
g45
(lp57
Vv
aVa
aVg
aVo
aVn
aVa
asbtp58
(imorph
Morph
p59
(dp60
g45
(lp61
Vv
aVa
aVg
aVo
aVn
asbs((imorph
Morph
p62
(dp63
g45
(lp64
Vv
aVe
aVc\u030c
p65
aVe
aVr
asb(imorph
Morph
p66
(dp67
g45
(lp68
Vv
aVe
aVc\u030c
p69
aVe
aVr
aVa
asbtp70
(imorph
Morph
p71
(dp72
g45
(lp73
Vv
aVe
aVc\u030c
p74
aVe
aVr
asbs((imorph
Morph
p75
(dp76
g45
(lp77
Va
aVv
aVt
aVo
aVm
aVo
aVb
aVi
aVl^y
p78
asb(imorph
Morph
p79
(dp80
g45
(lp81
Va
aVv
aVt
aVo
aVm
aVo
aVb
aVi
aVl^y
p82
aVa
asbtp83
(imorph
Morph
p84
(dp85
g45
(lp86
Va
aVv
aVt
aVo
aVm
aVo
aVb
aVi
aVl^y
p87
asbssS'suffixes'
p88
(lp89
(imorph
Morph
p90
(dp91
g45
(lp92
sba(imorph
Morph
p93
(dp94
g45
(lp95
Va
asbasbF20.412794828414917
tp96
a(g6
(g7
g8
NtRp97
(dp98
g11
(lp99
(irule
Rule
p100
(dp101
g15
(irule
Guard
p102
(dp103
g18
I00
sg19
(lp104
sg21
I00
sg22
V
sg23
I00
sg24
S'L'
sbsg25
(irule
FeatureMatrix
p105
(dp106
g28
(lp107
(I00
S'voice'
p108
tp109
asg22
V[ -voice ]
p110
sbsg31
(irule
Guard
p111
(dp112
g18
I01
sg19
(lp113
sg21
I00
sg22
V#
sg23
I00
sg24
S'R'
sbsg35
(irule
FeatureMatrix
p114
(dp115
g28
(lp116
(I01
S'sibilant'
p117
tp118
asg22
V[ +sibilant ]
p119
sbsg22
V[ +sibilant ] ---> [ -voice ] /  _ #
p120
sbasg41
(lp121
(imorph
Morph
p122
(dp123
g45
(lp124
sba(imorph
Morph
p125
(dp126
g45
(lp127
sbasg50
(dp128
(g52
g55
tp129
(imorph
Morph
p130
(dp131
g45
(lp132
Vv
aVa
aVg
aVo
aVn
asbs(g62
g66
tp133
(imorph
Morph
p134
(dp135
g45
(lp136
Vv
aVe
ag74
aVe
aVr
asbs((imorph
Morph
p137
(dp138
g45
(lp139
Vm
aVu
aV\u0161
asb(imorph
Morph
p140
(dp141
g45
(lp142
Vm
aVu
aVz\u030c
p143
aVa
asbtp144
(imorph
Morph
p145
(dp146
g45
(lp147
Vm
aVu
aVz\u030c
p148
asbs(g75
g79
tp149
(imorph
Morph
p150
(dp151
g45
(lp152
Va
aVv
aVt
aVo
aVm
aVo
aVb
aVi
ag87
asbssg88
(lp153
(imorph
Morph
p154
(dp155
g45
(lp156
sba(imorph
Morph
p157
(dp158
g45
(lp159
Va
asbasbF66.303068876266479
tp160
a(g6
(g7
g8
NtRp161
(dp162
g11
(lp163
(irule
Rule
p164
(dp165
g15
(irule
Guard
p166
(dp167
g18
I00
sg19
(lp168
sg21
I00
sg22
V
sg23
I00
sg24
S'L'
sbsg25
(irule
FeatureMatrix
p169
(dp170
g28
(lp171
(I01
g108
tp172
asg22
V[ +voice ]
p173
sbsg31
(irule
Guard
p174
(dp175
g18
I01
sg19
(lp176
(irule
FeatureMatrix
p177
(dp178
g28
(lp179
sg22
V[  ]
p180
sbasg21
I00
sg22
V[  ] #
p181
sg23
I00
sg24
S'R'
sbsg35
(irule
FeatureMatrix
p182
(dp183
g28
(lp184
sg22
V[  ]
p185
sbsg22
V[  ] ---> [ +voice ] /  _ [  ] #
p186
sbasg41
(lp187
(imorph
Morph
p188
(dp189
g45
(lp190
sba(imorph
Morph
p191
(dp192
g45
(lp193
sbasg50
(dp194
(g52
g55
tp195
(imorph
Morph
p196
(dp197
g45
(lp198
Vv
aVa
aVg
aVo
aVn
asbs((imorph
Morph
p199
(dp200
g45
(lp201
Vp
aVo
aVr
aVo
aVk
asb(imorph
Morph
p202
(dp203
g45
(lp204
Vp
aVo
aVr
aVo
aVg
aVa
asbtp205
(imorph
Morph
p206
(dp207
g45
(lp208
Vp
aVo
aVr
aVo
aVk
asbs(g62
g66
tp209
(imorph
Morph
p210
(dp211
g45
(lp212
Vv
aVe
ag74
aVe
aVr
asbs(g137
g140
tp213
(imorph
Morph
p214
(dp215
g45
(lp216
Vm
aVu
aV\u0161
asbs(g75
g79
tp217
(imorph
Morph
p218
(dp219
g45
(lp220
Va
aVv
aVt
aVo
aVm
aVo
aVb
aVi
ag87
asbssg88
(lp221
(imorph
Morph
p222
(dp223
g45
(lp224
sba(imorph
Morph
p225
(dp226
g45
(lp227
Va
asbasbF119.05065298080444
tp228
a(g6
(g7
g8
NtRp229
(dp230
g11
(lp231
(irule
Rule
p232
(dp233
g15
(irule
Guard
p234
(dp235
g18
I00
sg19
(lp236
sg21
I00
sg22
V
sg23
I00
sg24
S'L'
sbsg25
(irule
FeatureMatrix
p237
(dp238
g28
(lp239
(I00
g108
tp240
asg22
V[ -voice ]
p241
sbsg31
(irule
Guard
p242
(dp243
g18
I01
sg19
(lp244
sg21
I00
sg22
V#
sg23
I00
sg24
S'R'
sbsg35
(irule
FeatureMatrix
p245
(dp246
g28
(lp247
(I00
S'sonorant'
p248
tp249
asg22
V[ -sonorant ]
p250
sbsg22
V[ -sonorant ] ---> [ -voice ] /  _ #
p251
sbasg41
(lp252
(imorph
Morph
p253
(dp254
g45
(lp255
sba(imorph
Morph
p256
(dp257
g45
(lp258
sbasg50
(dp259
((imorph
Morph
(dp260
g45
(lp261
Vg
aVl
aVa
aVs
asb(imorph
Morph
(dp262
g45
(lp263
Vg
aVl
aVa
aVz
aVa
asbtp264
(imorph
Morph
p265
(dp266
g45
(lp267
Vg
aVl
aVa
aVz
asbs((imorph
Morph
(dp268
g45
(lp269
Vl
aVe
aVs
asb(imorph
Morph
(dp270
g45
(lp271
Vl
aVe
aVs
aVa
asbtp272
(imorph
Morph
p273
(dp274
g45
(lp275
Vl
aVe
aVs
asbs(g62
g66
tp276
(imorph
Morph
p277
(dp278
g45
(lp279
Vv
aVe
ag74
aVe
aVr
asbs((imorph
Morph
(dp280
g45
(lp281
Vr
aVa
aVs
asb(imorph
Morph
(dp282
g45
(lp283
Vr
aVa
aVz
aVa
asbtp284
(imorph
Morph
p285
(dp286
g45
(lp287
Vr
aVa
aVz
asbs(g52
g55
tp288
(imorph
Morph
p289
(dp290
g45
(lp291
Vv
aVa
aVg
aVo
aVn
asbs(g199
g202
tp292
(imorph
Morph
p293
(dp294
g45
(lp295
Vp
aVo
aVr
aVo
aVg
asbs((imorph
Morph
(dp296
g45
(lp297
Vs
aVo
aVl
aVd
aVa
aVt
asb(imorph
Morph
(dp298
g45
(lp299
Vs
aVo
aVl
aVd
aVa
aVt
aVa
asbtp300
(imorph
Morph
p301
(dp302
g45
(lp303
Vs
aVo
aVl
aVd
aVa
aVt
asbs((imorph
Morph
(dp304
g45
(lp305
Vx
aVl
aVe
aVp
asb(imorph
Morph
(dp306
g45
(lp307
Vx
aVl
aVe
aVb
aVa
asbtp308
(imorph
Morph
p309
(dp310
g45
(lp311
Vx
aVl
aVe
aVb
asbs((imorph
Morph
(dp312
g45
(lp313
Vz
aVa
aVv
aVo
aVt
asb(imorph
Morph
(dp314
g45
(lp315
Vz
aVa
aVv
aVo
aVd
aVa
asbtp316
(imorph
Morph
p317
(dp318
g45
(lp319
Vz
aVa
aVv
aVo
aVd
asbs((imorph
Morph
(dp320
g45
(lp321
Vp
aVo
aVr
aVo
aVk
asb(imorph
Morph
(dp322
g45
(lp323
Vp
aVo
aVr
aVo
aVk
aVa
asbtp324
(imorph
Morph
p325
(dp326
g45
(lp327
Vp
aVo
aVr
aVo
aVk
asbs((imorph
Morph
(dp328
g45
(lp329
Vg
aVr
aVi
aVp
asb(imorph
Morph
(dp330
g45
(lp331
Vg
aVr
aVi
aVb
aVa
asbtp332
(imorph
Morph
p333
(dp334
g45
(lp335
Vg
aVr
aVi
aVb
asbs((imorph
Morph
(dp336
g45
(lp337
Vp
aVr
aVu
aVt
asb(imorph
Morph
(dp338
g45
(lp339
Vp
aVr
aVu
aVd
aVa
asbtp340
(imorph
Morph
p341
(dp342
g45
(lp343
Vp
aVr
aVu
aVd
asbs((imorph
Morph
(dp344
g45
(lp345
Vu
aVr
aVo
aVk
asb(imorph
Morph
(dp346
g45
(lp347
Vu
aVr
aVo
aVk
aVa
asbtp348
(imorph
Morph
p349
(dp350
g45
(lp351
Vu
aVr
aVo
aVk
asbs(g75
g79
tp352
(imorph
Morph
p353
(dp354
g45
(lp355
Va
aVv
aVt
aVo
aVm
aVo
aVb
aVi
ag87
asbs((imorph
Morph
(dp356
g45
(lp357
Vg
aVo
aVl
aVo
aVs
asb(imorph
Morph
(dp358
g45
(lp359
Vg
aVo
aVl
aVo
aVs
aVa
asbtp360
(imorph
Morph
p361
(dp362
g45
(lp363
Vg
aVo
aVl
aVo
aVs
asbs((imorph
Morph
(dp364
g45
(lp365
Vt
aVr
aVu
aVp
asb(imorph
Morph
(dp366
g45
(lp367
Vt
aVr
aVu
aVp
aVa
asbtp368
(imorph
Morph
p369
(dp370
g45
(lp371
Vt
aVr
aVu
aVp
asbs((imorph
Morph
(dp372
g45
(lp373
Vt^s
p374
aVv
aVe
aVt
asb(imorph
Morph
(dp375
g45
(lp376
Vt^s
p377
aVv
aVe
aVt
aVa
asbtp378
(imorph
Morph
p379
(dp380
g45
(lp381
Vt^s
p382
aVv
aVe
aVt
asbs((imorph
Morph
(dp383
g45
(lp384
Vv
aVr
aVa
aVk
asb(imorph
Morph
(dp385
g45
(lp386
Vv
aVr
aVa
aVg
aVa
asbtp387
(imorph
Morph
p388
(dp389
g45
(lp390
Vv
aVr
aVa
aVg
asbs(g137
g140
tp391
(imorph
Morph
p392
(dp393
g45
(lp394
Vm
aVu
ag148
asbs((imorph
Morph
p395
(dp396
g45
(lp397
Vk
aVa
aVr
aVa
aVn
aVd
aVa
aV\u0161
asb(imorph
Morph
p398
(dp399
g45
(lp400
Vk
aVa
aVr
aVa
aVn
aVd
aVa
aV\u0161
aVa
asbtp401
(imorph
Morph
p402
(dp403
g45
(lp404
Vk
aVa
aVr
aVa
aVn
aVd
aVa
aV\u0161
asbssg88
(lp405
(imorph
Morph
p406
(dp407
g45
(lp408
sba(imorph
Morph
p409
(dp410
g45
(lp411
Va
asbasbF173.20057702064514
tp412
asS'problem'
p413
S'Odden_68_69_Russian'
p414
sS'finalFrontier'
p415
g6
(csolution
Frontier
p416
g8
NtRp417
(dp418
g41
g252
sg88
g405
sg50
g259
sS'frontiers'
p419
(lp420
(lp421
g232
aasbsS'parameters'
p422
g6
(cargparse
Namespace
p423
g8
NtRp424
(dp425
S'restore'
p426
NsS'features'
p427
S'sophisticated'
p428
sS'universal'
p429
NsS'restrict'
p430
NsS'seed'
p431
S'0'
sS'serial'
p432
I00
sS'alignment'
p433
I00
sS'top'
p434
I1
sS'maximumDepth'
p435
I3
sS'window'
p436
NsS'minimizeBits'
p437
I5
sS'samples'
p438
I30
sS'save'
p439
NsS'resume'
p440
I00
sS'disableClean'
p441
I00
sS'stemBaseline'
p442
I30
sS'dummy'
p443
I00
sS'task'
p444
S'CEGIS'
p445
sS'geometry'
p446
I01
sS'verbosity'
p447
I0
sS'timeout'
p448
NsS'debug'
p449
NsS'cores'
p450
I12
sg413
S'Odden_68_69_Russian'
p451
sS'mergeFrontiers'
p452
I00
sbsb.