(iresult
Result
p1
(dp2
S'startTime'
p3
F1565820454.462518
sS'solutionSequence'
p4
(lp5
(ccopy_reg
_reconstructor
p6
(csolution
Solution
p7
c__builtin__
object
p8
NtRp9
(dp10
S'rules'
p11
(lp12
(irule
Rule
p13
(dp14
S'leftTriggers'
p15
(irule
Guard
p16
(dp17
S'endOfString'
p18
I00
sS'specifications'
p19
(lp20
sS'optionalEnding'
p21
I00
sS'representation'
p22
V
sS'starred'
p23
I00
sS'side'
p24
S'L'
sbsS'structuralChange'
p25
(irule
FeatureMatrix
p26
(dp27
S'featuresAndPolarities'
p28
(lp29
sg22
V[  ]
p30
sbsS'rightTriggers'
p31
(irule
Guard
p32
(dp33
g18
I00
sg19
(lp34
sg21
I00
sg22
V
sg23
I00
sg24
S'R'
sbsS'focus'
p35
(irule
FeatureMatrix
p36
(dp37
g28
(lp38
sg22
V[  ]
p39
sbsg22
V[  ] ---> [  ] /  _ 
p40
sbasS'prefixes'
p41
(lp42
(imorph
Morph
p43
(dp44
S'phonemes'
p45
(lp46
Va
aVt
asba(imorph
Morph
p47
(dp48
g45
(lp49
sbasS'underlyingForms'
p50
(dp51
((imorph
Morph
p52
(dp53
g45
(lp54
Va
aVt
aVn
aVe
aV\u0161
aVt
aVi
asbNtp55
(imorph
Morph
p56
(dp57
g45
(lp58
Vn
aVe
aV\u0161
asbs((imorph
Morph
p59
(dp60
g45
(lp61
Va
aVt
aVe
aVi
aVt
aVi
asbNtp62
(imorph
Morph
p63
(dp64
g45
(lp65
Ve
aVi
asbs((imorph
Morph
p66
(dp67
g45
(lp68
Va
aVt
aVi
aVm
aVt
aVi
asbNtp69
(imorph
Morph
p70
(dp71
g45
(lp72
Vi
aVm
asbssS'suffixes'
p73
(lp74
(imorph
Morph
p75
(dp76
g45
(lp77
Vt
aVi
asba(imorph
Morph
p78
(dp79
g45
(lp80
sbasbF71.102883100509644
tp81
a(g6
(g7
g8
NtRp82
(dp83
g11
(lp84
(irule
Rule
p85
(dp86
g15
(irule
Guard
p87
(dp88
g18
I00
sg19
(lp89
sg21
I00
sg22
V
sg23
I00
sg24
S'L'
sbsg25
(irule
FeatureMatrix
p90
(dp91
g28
(lp92
sg22
V[  ]
p93
sbsg31
(irule
Guard
p94
(dp95
g18
I00
sg19
(lp96
sg21
I00
sg22
V
sg23
I00
sg24
S'R'
sbsg35
(irule
FeatureMatrix
p97
(dp98
g28
(lp99
sg22
V[  ]
p100
sbsg22
V[  ] ---> [  ] /  _ 
p101
sbasg41
(lp102
(imorph
Morph
p103
(dp104
g45
(lp105
Va
asba(imorph
Morph
p106
(dp107
g45
(lp108
sbasg50
(dp109
((imorph
Morph
(dp110
g45
(lp111
Va
aVt
aVl
aVi
aVk
aVt
aVi
asbNtp112
(imorph
Morph
p113
(dp114
g45
(lp115
Vt
aVl
aVi
aVk
asbs(N(imorph
Morph
(dp116
g45
(lp117
Va
aVp
aVe
aVi
aVt
aVi
asbtp118
(imorph
Morph
p119
(dp120
g45
(lp121
Va
aVp
aVe
aVi
aVt
aVi
asbs((imorph
Morph
(dp122
g45
(lp123
Va
aVt
aVk
aVo:
p124
aVp
aVt
aVi
asbNtp125
(imorph
Morph
p126
(dp127
g45
(lp128
Vt
aVk
aVo:
p129
aVp
asbs((imorph
Morph
(dp130
g45
(lp131
Va
aVt
aVl
aVe
aVi
aVs
aVt
aVi
asbNtp132
(imorph
Morph
p133
(dp134
g45
(lp135
Vt
aVl
aVe
aVi
aVs
asbs((imorph
Morph
(dp136
g45
(lp137
Va
aVd
aVg
aVi
aVm
aVt
aVi
asbNtp138
(imorph
Morph
p139
(dp140
g45
(lp141
Vd
aVg
aVi
aVm
asbs(g59
Ntp142
(imorph
Morph
p143
(dp144
g45
(lp145
Vt
aVe
aVi
asbs((imorph
Morph
p146
(dp147
g45
(lp148
Va
aVd
aVb
aVe
aVk
aVt
aVi
asbNtp149
(imorph
Morph
p150
(dp151
g45
(lp152
Vd
aVb
aVe
aVk
asbs(N(imorph
Morph
(dp153
g45
(lp154
Va
aVb
aVz\u030c
p155
aVe
aVl
aVt
aVi
asbtp156
(imorph
Morph
p157
(dp158
g45
(lp159
Va
aVb
aVz\u030c
p160
aVe
aVl
aVt
aVi
asbs(g66
Ntp161
(imorph
Morph
p162
(dp163
g45
(lp164
Vt
aVi
aVm
asbs(N(imorph
Morph
(dp165
g45
(lp166
Va
aVb
aVd
aVr
aVa
aVs
aVk
aVi:
p167
aVt
aVi
asbtp168
(imorph
Morph
p169
(dp170
g45
(lp171
Va
aVb
aVd
aVr
aVa
aVs
aVk
aVi:
p172
aVt
aVi
asbs((imorph
Morph
(dp173
g45
(lp174
Va
aVt
aVp
aVr
aVa
aV\u0161
aVi:
p175
aVt
aVi
asbNtp176
(imorph
Morph
p177
(dp178
g45
(lp179
Vt
aVp
aVr
aVa
aV\u0161
ag172
asbs(N(imorph
Morph
(dp180
g45
(lp181
Va
aVb
aVd
aVa
aVu
aVz\u030c
p182
aVi:
p183
aVt
aVi
asbtp184
(imorph
Morph
p185
(dp186
g45
(lp187
Va
aVb
aVd
aVa
aVu
ag160
ag172
aVt
aVi
asbs(N(imorph
Morph
(dp188
g45
(lp189
Va
aVp
aVa
aVk
aVt
aVi
asbtp190
(imorph
Morph
p191
(dp192
g45
(lp193
Va
aVp
aVa
aVk
aVt
aVi
asbs(N(imorph
Morph
(dp194
g45
(lp195
Va
aVp
aVm
aVo:
p196
aVk
aVi:
p197
aVt
aVi
asbtp198
(imorph
Morph
p199
(dp200
g45
(lp201
Va
aVp
aVm
ag129
aVk
ag172
aVt
aVi
asbs(N(imorph
Morph
(dp202
g45
(lp203
Va
aVp
aVi
aVe
aV\u0161
aVk
aVo:
p204
aVt
aVi
asbtp205
(imorph
Morph
p206
(dp207
g45
(lp208
Va
aVp
aVi
aVe
aV\u0161
aVk
ag129
aVt
aVi
asbs((imorph
Morph
(dp209
g45
(lp210
Va
aVd
aVb
aVu
aVk
aVt
aVi
asbNtp211
(imorph
Morph
p212
(dp213
g45
(lp214
Vd
aVb
aVu
aVk
asbs((imorph
Morph
(dp215
g45
(lp216
Va
aVd
aVg
aVa
aVu
aVt
aVi
asbNtp217
(imorph
Morph
p218
(dp219
g45
(lp220
Vd
aVg
aVa
aVu
asbs(g52
Ntp221
(imorph
Morph
p222
(dp223
g45
(lp224
Vt
aVn
aVe
aV\u0161
asbs((imorph
Morph
(dp225
g45
(lp226
Va
aVt
aVk
aVu
aVr
aVt
aVi
asbNtp227
(imorph
Morph
p228
(dp229
g45
(lp230
Vt
aVk
aVu
aVr
asbs(N(imorph
Morph
(dp231
g45
(lp232
Va
aVb
aVz\u030c^y
p233
aVu
aVr
aVe
aVt
aVi
asbtp234
(imorph
Morph
p235
(dp236
g45
(lp237
Va
aVb
aVz\u030c^y
p238
aVu
aVr
aVe
aVt
aVi
asbs(N(imorph
Morph
(dp239
g45
(lp240
Va
aVp
aV\u0161
aVa
aVu
aVk
aVt
aVi
asbtp241
(imorph
Morph
p242
(dp243
g45
(lp244
Va
aVp
aV\u0161
aVa
aVu
aVk
aVt
aVi
asbs(N(imorph
Morph
(dp245
g45
(lp246
Va
aVp
aVt
aVe
aVm
aVd
aVi:
p247
aVt
aVi
asbtp248
(imorph
Morph
p249
(dp250
g45
(lp251
Va
aVp
aVt
aVe
aVm
aVd
ag172
aVt
aVi
asbs(N(imorph
Morph
(dp252
g45
(lp253
Va
aVb
aVg
aVa
aVu
aVt
aVi
asbtp254
(imorph
Morph
p255
(dp256
g45
(lp257
Va
aVb
aVg
aVa
aVu
aVt
aVi
asbssg73
(lp258
(imorph
Morph
p259
(dp260
g45
(lp261
Vt
aVi
asba(imorph
Morph
p262
(dp263
g45
(lp264
sbasbF3116.881560087204
tp265
asS'problem'
p266
S'Odden_114_Lithuanian'
p267
sS'finalFrontier'
p268
g6
(csolution
Frontier
p269
g8
NtRp270
(dp271
g41
g102
sg73
g258
sg50
g109
sS'frontiers'
p272
(lp273
(lp274
g85
aasbsS'parameters'
p275
g6
(cargparse
Namespace
p276
g8
NtRp277
(dp278
S'restore'
p279
NsS'features'
p280
S'simple'
p281
sS'universal'
p282
NsS'restrict'
p283
NsS'seed'
p284
S'0'
sS'serial'
p285
I00
sS'alignment'
p286
I00
sS'top'
p287
I1
sS'maximumDepth'
p288
I3
sS'window'
p289
NsS'minimizeBits'
p290
I5
sS'samples'
p291
I30
sS'save'
p292
NsS'resume'
p293
I00
sS'disableClean'
p294
I00
sS'stemBaseline'
p295
I30
sS'dummy'
p296
I00
sS'task'
p297
S'CEGIS'
p298
sS'geometry'
p299
NsS'verbosity'
p300
I0
sS'timeout'
p301
F24
sS'debug'
p302
NsS'cores'
p303
I40
sg266
S'Odden_114_Lithuanian'
p304
sS'mergeFrontiers'
p305
I00
sbsb.