(iresult
Result
p1
(dp2
S'startTime'
p3
F1554923921.1110139
sS'solutionSequence'
p4
(lp5
(ccopy_reg
_reconstructor
p6
(csolution
Solution
p7
c__builtin__
object
p8
NtRp9
(dp10
S'rules'
p11
(lp12
(irule
Rule
p13
(dp14
S'leftTriggers'
p15
(irule
Guard
p16
(dp17
S'endOfString'
p18
I00
sS'specifications'
p19
(lp20
(irule
FeatureMatrix
p21
(dp22
S'featuresAndPolarities'
p23
(lp24
sS'representation'
p25
V[  ]
p26
sba(irule
FeatureMatrix
p27
(dp28
g23
(lp29
(I01
S'highTone'
p30
tp31
asg25
V[ +highTone ]
p32
sbasS'optionalEnding'
p33
I00
sg25
V[ +highTone ] [  ]
p34
sS'starred'
p35
I00
sS'side'
p36
S'L'
sbsS'structuralChange'
p37
(irule
FeatureMatrix
p38
(dp39
g23
(lp40
(I01
g30
tp41
asg25
V[ +highTone ]
p42
sbsS'rightTriggers'
p43
(irule
Guard
p44
(dp45
g18
I00
sg19
(lp46
sg33
I00
sg25
V
sg35
I00
sg36
S'R'
sbsS'focus'
p47
(irule
FeatureMatrix
p48
(dp49
g23
(lp50
sg25
V[  ]
p51
sbsg25
V[  ] ---> [ +highTone ] / [ +highTone ] [  ] _ 
p52
sbasS'prefixes'
p53
(lp54
(imorph
Morph
p55
(dp56
S'phonemes'
p57
(lp58
Vk
aVu
asba(imorph
Morph
p59
(dp60
g57
(lp61
Vk
aVu
asba(imorph
Morph
p62
(dp63
g57
(lp64
Vk
aVu
asba(imorph
Morph
p65
(dp66
g57
(lp67
Vk
aVu
asba(imorph
Morph
p68
(dp69
g57
(lp70
Vk
aVu
aVt
aVu\u0301
p71
asba(imorph
Morph
p72
(dp73
g57
(lp74
Vk
aVu
aVk
aVi\u0301
p75
asba(imorph
Morph
p76
(dp77
g57
(lp78
Vk
aVu
aVt
ag71
asba(imorph
Morph
p79
(dp80
g57
(lp81
Vk
aVu
aVk
ag75
aVt
aVu
asbasS'underlyingForms'
p82
(dp83
((imorph
Morph
p84
(dp85
g57
(lp86
Vk
aVu
aVb
aVa
aVl
aVa
asb(imorph
Morph
p87
(dp88
g57
(lp89
Vk
aVu
aVb
aVa
aVl
aVa
aVn
aVa
asb(imorph
Morph
p90
(dp91
g57
(lp92
Vk
aVu
aVb
aVa
aVl
aVi
aVl
aVa
asb(imorph
Morph
p93
(dp94
g57
(lp95
Vk
aVu
aVb
aVa
aVl
aVi
aVl
aVa
aVn
aVa
asb(imorph
Morph
p96
(dp97
g57
(lp98
Vk
aVu
aVt
aVu\u0301
p99
aVb
aVa\u0301
p100
aVl
aVa
asb(imorph
Morph
p101
(dp102
g57
(lp103
Vk
aVu
aVk
aVi\u0301
p104
aVb
aVa\u0301
p105
aVl
aVa
asb(imorph
Morph
p106
(dp107
g57
(lp108
Vk
aVu
aVt
aVu\u0301
p109
aVb
aVa\u0301
p110
aVl
aVi
aVl
aVa
asb(imorph
Morph
p111
(dp112
g57
(lp113
Vk
aVu
aVk
aVi\u0301
p114
aVt
aVu\u0301
p115
aVb
aVa
aVl
aVi
aVl
aVa
asbtp116
(imorph
Morph
p117
(dp118
g57
(lp119
Vb
aVa
aVl
asbs((imorph
Morph
p120
(dp121
g57
(lp122
Vk
aVu
aVg
aVa
aVy
aVa
asb(imorph
Morph
p123
(dp124
g57
(lp125
Vk
aVu
aVg
aVa
aVy
aVa
aVn
aVa
asb(imorph
Morph
p126
(dp127
g57
(lp128
Vk
aVu
aVg
aVa
aVy
aVi
aVl
aVa
asb(imorph
Morph
p129
(dp130
g57
(lp131
Vk
aVu
aVg
aVa
aVy
aVi
aVl
aVa
aVn
aVa
asb(imorph
Morph
p132
(dp133
g57
(lp134
Vk
aVu
aVt
aVu\u0301
p135
aVg
aVa\u0301
p136
aVy
aVa
asb(imorph
Morph
p137
(dp138
g57
(lp139
Vk
aVu
aVk
aVi\u0301
p140
aVg
aVa\u0301
p141
aVy
aVa
asb(imorph
Morph
p142
(dp143
g57
(lp144
Vk
aVu
aVt
aVu\u0301
p145
aVg
aVa\u0301
p146
aVy
aVi
aVl
aVa
asb(imorph
Morph
p147
(dp148
g57
(lp149
Vk
aVu
aVk
aVi\u0301
p150
aVt
aVu\u0301
p151
aVg
aVa
aVy
aVi
aVl
aVa
asbtp152
(imorph
Morph
p153
(dp154
g57
(lp155
Vg
aVa
aVy
asbssS'suffixes'
p156
(lp157
(imorph
Morph
p158
(dp159
g57
(lp160
Va
asba(imorph
Morph
p161
(dp162
g57
(lp163
Va
aVn
aVa
asba(imorph
Morph
p164
(dp165
g57
(lp166
Vi
aVl
aVa
asba(imorph
Morph
p167
(dp168
g57
(lp169
Vi
aVl
aVa
aVn
aVa
asba(imorph
Morph
p170
(dp171
g57
(lp172
Va
asba(imorph
Morph
p173
(dp174
g57
(lp175
Va
asba(imorph
Morph
p176
(dp177
g57
(lp178
Vi
aVl
aVa
asba(imorph
Morph
p179
(dp180
g57
(lp181
Vi
aVl
aVa
asbasbF276.95154404640198
tp182
a(g6
(g7
g8
NtRp183
(dp184
g11
(lp185
(irule
Rule
p186
(dp187
g15
(irule
Guard
p188
(dp189
g18
I00
sg19
(lp190
(irule
FeatureMatrix
p191
(dp192
g23
(lp193
sg25
V[  ]
p194
sba(irule
FeatureMatrix
p195
(dp196
g23
(lp197
(I01
g30
tp198
asg25
V[ +highTone ]
p199
sbasg33
I00
sg25
V[ +highTone ] [  ]
p200
sg35
I00
sg36
S'L'
sbsg37
(irule
FeatureMatrix
p201
(dp202
g23
(lp203
(I00
g30
tp204
asg25
V[ -highTone ]
p205
sbsg43
(irule
Guard
p206
(dp207
g18
I00
sg19
(lp208
sg33
I00
sg25
V
sg35
I00
sg36
S'R'
sbsg47
(irule
FeatureMatrix
p209
(dp210
g23
(lp211
sg25
V[  ]
p212
sbsg25
V[  ] ---> [ -highTone ] / [ +highTone ] [  ] _ 
p213
sba(irule
Rule
p214
(dp215
g15
(irule
Guard
p216
(dp217
g18
I00
sg19
(lp218
(irule
FeatureMatrix
p219
(dp220
g23
(lp221
sg25
V[  ]
p222
sba(irule
FeatureMatrix
p223
(dp224
g23
(lp225
(I01
g30
tp226
asg25
V[ +highTone ]
p227
sbasg33
I00
sg25
V[ +highTone ] [  ]
p228
sg35
I00
sg36
S'L'
sbsg37
(irule
FeatureMatrix
p229
(dp230
g23
(lp231
(I01
g30
tp232
asg25
V[ +highTone ]
p233
sbsg43
(irule
Guard
p234
(dp235
g18
I00
sg19
(lp236
(irule
FeatureMatrix
p237
(dp238
g23
(lp239
sg25
V[  ]
p240
sbasg33
I00
sg25
g240
sg35
I00
sg36
S'R'
sbsg47
(irule
FeatureMatrix
p241
(dp242
g23
(lp243
sg25
V[  ]
p244
sbsg25
V[  ] ---> [ +highTone ] / [ +highTone ] [  ] _ [  ]
p245
sbasg53
(lp246
(imorph
Morph
p247
(dp248
g57
(lp249
Vk
aVu
asba(imorph
Morph
p250
(dp251
g57
(lp252
Vk
aVu
asba(imorph
Morph
p253
(dp254
g57
(lp255
Vk
aVu
asba(imorph
Morph
p256
(dp257
g57
(lp258
Vk
aVu
asba(imorph
Morph
p259
(dp260
g57
(lp261
Vk
aVu
aVt
ag71
asba(imorph
Morph
p262
(dp263
g57
(lp264
Vk
aVu
aVk
ag75
asba(imorph
Morph
p265
(dp266
g57
(lp267
Vk
aVu
aVt
ag71
asba(imorph
Morph
p268
(dp269
g57
(lp270
Vk
aVu
aVk
ag75
aVt
ag71
asbasg82
(dp271
((imorph
Morph
(dp272
g57
(lp273
Vk
aVu
aVl
aVa\u0301
p274
aVb
aVa
asb(imorph
Morph
(dp275
g57
(lp276
Vk
aVu
aVl
aVa\u0301
p277
aVb
aVa\u0301
p278
aVn
aVa
asb(imorph
Morph
(dp279
g57
(lp280
Vk
aVu
aVl
aVa\u0301
p281
aVb
aVi\u0301
p282
aVl
aVa
asb(imorph
Morph
(dp283
g57
(lp284
Vk
aVu
aVl
aVa\u0301
p285
aVb
aVi\u0301
p286
aVl
aVa
aVn
aVa
asb(imorph
Morph
(dp287
g57
(lp288
Vk
aVu
aVt
aVu\u0301
p289
aVl
aVa\u0301
p290
aVb
aVa
asb(imorph
Morph
(dp291
g57
(lp292
Vk
aVu
aVk
aVi\u0301
p293
aVl
aVa\u0301
p294
aVb
aVa
asb(imorph
Morph
(dp295
g57
(lp296
Vk
aVu
aVt
aVu\u0301
p297
aVl
aVa\u0301
p298
aVb
aVi
aVl
aVa
asb(imorph
Morph
(dp299
g57
(lp300
Vk
aVu
aVk
aVi\u0301
p301
aVt
aVu\u0301
p302
aVl
aVa
aVb
aVi
aVl
aVa
asbtp303
(imorph
Morph
p304
(dp305
g57
(lp306
Vl
aVa\u0301
p307
aVb
asbs((imorph
Morph
(dp308
g57
(lp309
Vk
aVu
aVg
aVu
aVl
aVa
asb(imorph
Morph
(dp310
g57
(lp311
Vk
aVu
aVg
aVu
aVl
aVa
aVn
aVa
asb(imorph
Morph
(dp312
g57
(lp313
Vk
aVu
aVg
aVu
aVl
aVi
aVl
aVa
asb(imorph
Morph
(dp314
g57
(lp315
Vk
aVu
aVg
aVu
aVl
aVi
aVl
aVa
aVn
aVa
asb(imorph
Morph
(dp316
g57
(lp317
Vk
aVu
aVt
aVu\u0301
p318
aVg
aVu\u0301
p319
aVl
aVa
asb(imorph
Morph
(dp320
g57
(lp321
Vk
aVu
aVk
aVi\u0301
p322
aVg
aVu\u0301
p323
aVl
aVa
asb(imorph
Morph
(dp324
g57
(lp325
Vk
aVu
aVt
aVu\u0301
p326
aVg
aVu\u0301
p327
aVl
aVi
aVl
aVa
asb(imorph
Morph
(dp328
g57
(lp329
Vk
aVu
aVk
aVi\u0301
p330
aVt
aVu\u0301
p331
aVg
aVu
aVl
aVi
aVl
aVa
asbtp332
(imorph
Morph
p333
(dp334
g57
(lp335
Vg
aVu
aVl
asbs((imorph
Morph
p336
(dp337
g57
(lp338
Vk
aVu
aVb
aVa\u0301
p339
aVl
aVa
asb(imorph
Morph
p340
(dp341
g57
(lp342
Vk
aVu
aVb
aVa\u0301
p343
aVl
aVa\u0301
p344
aVn
aVa
asb(imorph
Morph
p345
(dp346
g57
(lp347
Vk
aVu
aVb
aVa\u0301
p348
aVl
aVi\u0301
p349
aVl
aVa
asb(imorph
Morph
p350
(dp351
g57
(lp352
Vk
aVu
aVb
aVa\u0301
p353
aVl
aVi\u0301
p354
aVl
aVa
aVn
aVa
asb(imorph
Morph
p355
(dp356
g57
(lp357
Vk
aVu
aVt
aVu\u0301
p358
aVb
aVa\u0301
p359
aVl
aVa
asb(imorph
Morph
p360
(dp361
g57
(lp362
Vk
aVu
aVk
aVi\u0301
p363
aVb
aVa\u0301
p364
aVl
aVa
asb(imorph
Morph
p365
(dp366
g57
(lp367
Vk
aVu
aVt
aVu\u0301
p368
aVb
aVa\u0301
p369
aVl
aVi
aVl
aVa
asb(imorph
Morph
p370
(dp371
g57
(lp372
Vk
aVu
aVk
aVi\u0301
p373
aVt
aVu\u0301
p374
aVb
aVa
aVl
aVi
aVl
aVa
asbtp375
(imorph
Morph
p376
(dp377
g57
(lp378
Vb
ag307
aVl
asbs(g120
g123
g126
g129
g132
g137
g142
g147
tp379
(imorph
Morph
p380
(dp381
g57
(lp382
Vg
aVa
aVy
asbs((imorph
Morph
(dp383
g57
(lp384
Vk
aVu
aVl
aVu\u0301
p385
aVm
aVa
asb(imorph
Morph
(dp386
g57
(lp387
Vk
aVu
aVl
aVu\u0301
p388
aVm
aVa\u0301
p389
aVn
aVa
asb(imorph
Morph
(dp390
g57
(lp391
Vk
aVu
aVl
aVu\u0301
p392
aVm
aVi\u0301
p393
aVl
aVa
asb(imorph
Morph
(dp394
g57
(lp395
Vk
aVu
aVl
aVu\u0301
p396
aVm
aVi\u0301
p397
aVl
aVa
aVn
aVa
asb(imorph
Morph
(dp398
g57
(lp399
Vk
aVu
aVt
aVu\u0301
p400
aVl
aVu\u0301
p401
aVm
aVa
asb(imorph
Morph
(dp402
g57
(lp403
Vk
aVu
aVk
aVi\u0301
p404
aVl
aVu\u0301
p405
aVm
aVa
asb(imorph
Morph
(dp406
g57
(lp407
Vk
aVu
aVt
aVu\u0301
p408
aVl
aVu\u0301
p409
aVm
aVi
aVl
aVa
asb(imorph
Morph
(dp410
g57
(lp411
Vk
aVu
aVk
aVi\u0301
p412
aVt
aVu\u0301
p413
aVl
aVu
aVm
aVi
aVl
aVa
asbtp414
(imorph
Morph
p415
(dp416
g57
(lp417
Vl
ag71
aVm
asbs(g84
g87
g90
g93
g96
g101
g106
g111
tp418
(imorph
Morph
p419
(dp420
g57
(lp421
Vb
aVa
aVl
asbs((imorph
Morph
(dp422
g57
(lp423
Vk
aVu
aVs
aVu\u0301
p424
aVn
aVa
asb(imorph
Morph
(dp425
g57
(lp426
Vk
aVu
aVs
aVu\u0301
p427
aVn
aVa\u0301
p428
aVn
aVa
asb(imorph
Morph
(dp429
g57
(lp430
Vk
aVu
aVs
aVu\u0301
p431
aVn
aVi\u0301
p432
aVl
aVa
asb(imorph
Morph
(dp433
g57
(lp434
Vk
aVu
aVs
aVu\u0301
p435
aVn
aVi\u0301
p436
aVl
aVa
aVn
aVa
asb(imorph
Morph
(dp437
g57
(lp438
Vk
aVu
aVt
aVu\u0301
p439
aVs
aVu\u0301
p440
aVn
aVa
asb(imorph
Morph
(dp441
g57
(lp442
Vk
aVu
aVk
aVi\u0301
p443
aVs
aVu\u0301
p444
aVn
aVa
asb(imorph
Morph
(dp445
g57
(lp446
Vk
aVu
aVt
aVu\u0301
p447
aVs
aVu\u0301
p448
aVn
aVi
aVl
aVa
asb(imorph
Morph
(dp449
g57
(lp450
Vk
aVu
aVk
aVi\u0301
p451
aVt
aVu\u0301
p452
aVs
aVu
aVn
aVi
aVl
aVa
asbtp453
(imorph
Morph
p454
(dp455
g57
(lp456
Vs
ag71
aVn
asbssg156
(lp457
(imorph
Morph
p458
(dp459
g57
(lp460
Va
asba(imorph
Morph
p461
(dp462
g57
(lp463
Va
aVn
aVa
asba(imorph
Morph
p464
(dp465
g57
(lp466
Vi
aVl
aVa
asba(imorph
Morph
p467
(dp468
g57
(lp469
Vi
aVl
aVa
aVn
aVa
asba(imorph
Morph
p470
(dp471
g57
(lp472
Va
asba(imorph
Morph
p473
(dp474
g57
(lp475
Va
asba(imorph
Morph
p476
(dp477
g57
(lp478
Vi
aVl
aVa
asba(imorph
Morph
p479
(dp480
g57
(lp481
Vi
aVl
aVa
asbasbF11164.759248018265
tp482
asS'problem'
p483
S'Odden_3.1_Kerewe'
p484
sS'finalFrontier'
p485
g6
(csolution
Frontier
p486
g8
NtRp487
(dp488
g53
g246
sg156
g457
sg82
g271
sS'frontiers'
p489
(lp490
(lp491
(irule
Rule
p492
(dp493
g15
(irule
Guard
p494
(dp495
g18
I00
sg19
(lp496
(irule
FeatureMatrix
p497
(dp498
g23
(lp499
sg25
V[  ]
p500
sba(irule
FeatureMatrix
p501
(dp502
g23
(lp503
(I01
S'highTone'
p504
tp505
asg25
V[ +highTone ]
p506
sbasg33
I00
sg25
V[ +highTone ] [  ]
p507
sg35
I00
sg36
S'L'
sbsg37
(irule
FeatureMatrix
p508
(dp509
g23
(lp510
(I00
g504
tp511
asg25
V[ -highTone ]
p512
sbsg43
(irule
Guard
p513
(dp514
g18
I00
sg19
(lp515
sg33
I00
sg25
V
sg35
I00
sg36
S'R'
sbsg47
(irule
FeatureMatrix
p516
(dp517
g23
(lp518
sg25
V[  ]
p519
sbsg25
V[  ] ---> [ -highTone ] / [ +highTone ] [  ] _ 
p520
sba(irule
Rule
p521
(dp522
g15
(irule
Guard
p523
(dp524
g18
I00
sg19
(lp525
(irule
FeatureMatrix
p526
(dp527
g23
(lp528
sg25
Nsba(irule
FeatureMatrix
p529
(dp530
g23
(lp531
(I01
S'highTone'
p532
tp533
asg25
Nsbasg33
I00
sg25
Nsg35
I01
sg36
S'L'
sbsg37
(irule
FeatureMatrix
p534
(dp535
g23
(lp536
(I00
g532
tp537
asg25
Nsbsg43
(irule
Guard
p538
(dp539
g18
I00
sg19
(lp540
sg33
I00
sg25
Nsg35
I00
sg36
S'R'
sbsg47
(irule
FeatureMatrix
p541
(dp542
g23
(lp543
sg25
Nsbsg25
Nsba(irule
Rule
p544
(dp545
g15
(irule
Guard
p546
(dp547
g18
I00
sg19
(lp548
(irule
FeatureMatrix
p549
(dp550
g23
(lp551
(I00
S'back'
p552
tp553
asg25
Nsba(irule
FeatureMatrix
p554
(dp555
g23
(lp556
(I01
g532
tp557
asg25
Nsbasg33
I00
sg25
Nsg35
I00
sg36
S'L'
sbsg37
(irule
FeatureMatrix
p558
(dp559
g23
(lp560
(I00
g532
tp561
asg25
Nsbsg43
(irule
Guard
p562
(dp563
g18
I00
sg19
(lp564
sg33
I00
sg25
Nsg35
I00
sg36
S'R'
sbsg47
(irule
FeatureMatrix
p565
(dp566
g23
(lp567
sg25
Nsbsg25
Nsba(irule
Rule
p568
(dp569
g15
(irule
Guard
p570
(dp571
g18
I00
sg19
(lp572
(irule
FeatureMatrix
p573
(dp574
g23
(lp575
sg25
Nsba(irule
FeatureMatrix
p576
(dp577
g23
(lp578
(I01
g532
tp579
asg25
Nsbasg33
I00
sg25
Nsg35
I00
sg36
S'L'
sbsg37
(irule
FeatureMatrix
p580
(dp581
g23
(lp582
(I00
g532
tp583
a(I00
S'sibilant'
p584
tp585
asg25
Nsbsg43
(irule
Guard
p586
(dp587
g18
I00
sg19
(lp588
sg33
I00
sg25
Nsg35
I00
sg36
S'R'
sbsg47
(irule
FeatureMatrix
p589
(dp590
g23
(lp591
sg25
Nsbsg25
Nsba(irule
Rule
p592
(dp593
g15
(irule
Guard
p594
(dp595
g18
I00
sg19
(lp596
(irule
FeatureMatrix
p597
(dp598
g23
(lp599
sg25
Nsba(irule
FeatureMatrix
p600
(dp601
g23
(lp602
(I01
g532
tp603
a(I01
S'voice'
p604
tp605
asg25
Nsbasg33
I00
sg25
Nsg35
I00
sg36
S'L'
sbsg37
(irule
FeatureMatrix
p606
(dp607
g23
(lp608
(I00
g532
tp609
asg25
Nsbsg43
(irule
Guard
p610
(dp611
g18
I00
sg19
(lp612
sg33
I00
sg25
Nsg35
I00
sg36
S'R'
sbsg47
(irule
FeatureMatrix
p613
(dp614
g23
(lp615
sg25
Nsbsg25
Nsba(irule
Rule
p616
(dp617
g15
(irule
Guard
p618
(dp619
g18
I00
sg19
(lp620
(irule
FeatureMatrix
p621
(dp622
g23
(lp623
sg25
Nsba(irule
FeatureMatrix
p624
(dp625
g23
(lp626
(I01
g532
tp627
a(I01
S'high'
p628
tp629
asg25
Nsbasg33
I00
sg25
Nsg35
I00
sg36
S'L'
sbsg37
(irule
FeatureMatrix
p630
(dp631
g23
(lp632
(I00
g532
tp633
asg25
Nsbsg43
(irule
Guard
p634
(dp635
g18
I00
sg19
(lp636
sg33
I00
sg25
Nsg35
I00
sg36
S'R'
sbsg47
(irule
FeatureMatrix
p637
(dp638
g23
(lp639
sg25
Nsbsg25
Nsba(irule
Rule
p640
(dp641
g15
(irule
Guard
p642
(dp643
g18
I00
sg19
(lp644
(irule
FeatureMatrix
p645
(dp646
g23
(lp647
sg25
Nsba(irule
FeatureMatrix
p648
(dp649
g23
(lp650
(I01
g532
tp651
a(I00
S'low'
p652
tp653
asg25
Nsbasg33
I00
sg25
Nsg35
I00
sg36
S'L'
sbsg37
(irule
FeatureMatrix
p654
(dp655
g23
(lp656
(I00
g532
tp657
asg25
Nsbsg43
(irule
Guard
p658
(dp659
g18
I00
sg19
(lp660
sg33
I00
sg25
Nsg35
I00
sg36
S'R'
sbsg47
(irule
FeatureMatrix
p661
(dp662
g23
(lp663
sg25
Nsbsg25
Nsba(irule
Rule
p664
(dp665
g15
(irule
Guard
p666
(dp667
g18
I00
sg19
(lp668
(irule
FeatureMatrix
p669
(dp670
g23
(lp671
sg25
Nsba(irule
FeatureMatrix
p672
(dp673
g23
(lp674
(I01
g532
tp675
asg25
Nsbasg33
I00
sg25
Nsg35
I00
sg36
S'L'
sbsg37
(irule
FeatureMatrix
p676
(dp677
g23
(lp678
(I00
g532
tp679
a(I01
g604
tp680
asg25
Nsbsg43
(irule
Guard
p681
(dp682
g18
I00
sg19
(lp683
sg33
I00
sg25
Nsg35
I00
sg36
S'R'
sbsg47
(irule
FeatureMatrix
p684
(dp685
g23
(lp686
sg25
Nsbsg25
Nsba(irule
Rule
p687
(dp688
g15
(irule
Guard
p689
(dp690
g18
I00
sg19
(lp691
(irule
FeatureMatrix
p692
(dp693
g23
(lp694
sg25
Nsba(irule
FeatureMatrix
p695
(dp696
g23
(lp697
(I01
g532
tp698
asg25
Nsbasg33
I00
sg25
Nsg35
I00
sg36
S'L'
sbsg37
(irule
FeatureMatrix
p699
(dp700
g23
(lp701
(I00
g532
tp702
a(I00
S'coronal'
p703
tp704
asg25
Nsbsg43
(irule
Guard
p705
(dp706
g18
I00
sg19
(lp707
sg33
I00
sg25
Nsg35
I00
sg36
S'R'
sbsg47
(irule
FeatureMatrix
p708
(dp709
g23
(lp710
sg25
Nsbsg25
Nsba(irule
Rule
p711
(dp712
g15
(irule
Guard
p713
(dp714
g18
I00
sg19
(lp715
(irule
FeatureMatrix
p716
(dp717
g23
(lp718
sg25
Nsba(irule
FeatureMatrix
p719
(dp720
g23
(lp721
(I01
g532
tp722
asg25
Nsbasg33
I00
sg25
Nsg35
I00
sg36
S'L'
sbsg37
(irule
FeatureMatrix
p723
(dp724
g23
(lp725
(I00
g532
tp726
a(I01
S'vowel'
p727
tp728
asg25
Nsbsg43
(irule
Guard
p729
(dp730
g18
I00
sg19
(lp731
sg33
I00
sg25
Nsg35
I00
sg36
S'R'
sbsg47
(irule
FeatureMatrix
p732
(dp733
g23
(lp734
sg25
Nsbsg25
Nsba(irule
Rule
p735
(dp736
g15
(irule
Guard
p737
(dp738
g18
I00
sg19
(lp739
(irule
FeatureMatrix
p740
(dp741
g23
(lp742
(I00
g532
tp743
asg25
Nsba(irule
FeatureMatrix
p744
(dp745
g23
(lp746
(I01
g532
tp747
asg25
Nsbasg33
I00
sg25
Nsg35
I00
sg36
S'L'
sbsg37
(irule
FeatureMatrix
p748
(dp749
g23
(lp750
(I00
g532
tp751
asg25
Nsbsg43
(irule
Guard
p752
(dp753
g18
I00
sg19
(lp754
sg33
I00
sg25
Nsg35
I00
sg36
S'R'
sbsg47
(irule
FeatureMatrix
p755
(dp756
g23
(lp757
sg25
Nsbsg25
Nsba(irule
Rule
p758
(dp759
g15
(irule
Guard
p760
(dp761
g18
I00
sg19
(lp762
(irule
FeatureMatrix
p763
(dp764
g23
(lp765
(I00
g628
tp766
asg25
Nsba(irule
FeatureMatrix
p767
(dp768
g23
(lp769
(I01
g532
tp770
asg25
Nsbasg33
I00
sg25
Nsg35
I00
sg36
S'L'
sbsg37
(irule
FeatureMatrix
p771
(dp772
g23
(lp773
(I00
g532
tp774
asg25
Nsbsg43
(irule
Guard
p775
(dp776
g18
I00
sg19
(lp777
sg33
I00
sg25
Nsg35
I00
sg36
S'R'
sbsg47
(irule
FeatureMatrix
p778
(dp779
g23
(lp780
sg25
Nsbsg25
Nsba(irule
Rule
p781
(dp782
g15
(irule
Guard
p783
(dp784
g18
I00
sg19
(lp785
(irule
FeatureMatrix
p786
(dp787
g23
(lp788
sg25
Nsba(irule
FeatureMatrix
p789
(dp790
g23
(lp791
(I01
g532
tp792
asg25
Nsbasg33
I00
sg25
Nsg35
I00
sg36
S'L'
sbsg37
(irule
FeatureMatrix
p793
(dp794
g23
(lp795
(I00
S'glide'
p796
tp797
a(I00
g532
tp798
asg25
Nsbsg43
(irule
Guard
p799
(dp800
g18
I00
sg19
(lp801
sg33
I00
sg25
Nsg35
I00
sg36
S'R'
sbsg47
(irule
FeatureMatrix
p802
(dp803
g23
(lp804
sg25
Nsbsg25
Nsba(irule
Rule
p805
(dp806
g15
(irule
Guard
p807
(dp808
g18
I00
sg19
(lp809
(irule
FeatureMatrix
p810
(dp811
g23
(lp812
(I00
g652
tp813
asg25
Nsba(irule
FeatureMatrix
p814
(dp815
g23
(lp816
(I01
g532
tp817
asg25
Nsbasg33
I00
sg25
Nsg35
I00
sg36
S'L'
sbsg37
(irule
FeatureMatrix
p818
(dp819
g23
(lp820
(I00
g532
tp821
asg25
Nsbsg43
(irule
Guard
p822
(dp823
g18
I00
sg19
(lp824
sg33
I00
sg25
Nsg35
I00
sg36
S'R'
sbsg47
(irule
FeatureMatrix
p825
(dp826
g23
(lp827
sg25
Nsbsg25
Nsba(irule
Rule
p828
(dp829
g15
(irule
Guard
p830
(dp831
g18
I00
sg19
(lp832
(irule
FeatureMatrix
p833
(dp834
g23
(lp835
sg25
Nsba(irule
FeatureMatrix
p836
(dp837
g23
(lp838
(I01
g532
tp839
a(I01
S'sonorant'
p840
tp841
asg25
Nsbasg33
I00
sg25
Nsg35
I00
sg36
S'L'
sbsg37
(irule
FeatureMatrix
p842
(dp843
g23
(lp844
(I00
g532
tp845
asg25
Nsbsg43
(irule
Guard
p846
(dp847
g18
I00
sg19
(lp848
sg33
I00
sg25
Nsg35
I00
sg36
S'R'
sbsg47
(irule
FeatureMatrix
p849
(dp850
g23
(lp851
sg25
Nsbsg25
Nsba(irule
Rule
p852
(dp853
g15
(irule
Guard
p854
(dp855
g18
I00
sg19
(lp856
(irule
FeatureMatrix
p857
(dp858
g23
(lp859
sg25
Nsba(irule
FeatureMatrix
p860
(dp861
g23
(lp862
(I00
S'anterior'
p863
tp864
a(I01
g532
tp865
asg25
Nsbasg33
I00
sg25
Nsg35
I00
sg36
S'L'
sbsg37
(irule
FeatureMatrix
p866
(dp867
g23
(lp868
(I00
g532
tp869
asg25
Nsbsg43
(irule
Guard
p870
(dp871
g18
I00
sg19
(lp872
sg33
I00
sg25
Nsg35
I00
sg36
S'R'
sbsg47
(irule
FeatureMatrix
p873
(dp874
g23
(lp875
sg25
Nsbsg25
Nsba(irule
Rule
p876
(dp877
g15
(irule
Guard
p878
(dp879
g18
I00
sg19
(lp880
(irule
FeatureMatrix
p881
(dp882
g23
(lp883
sg25
Nsba(irule
FeatureMatrix
p884
(dp885
g23
(lp886
(I00
S'lateral'
p887
tp888
a(I01
g532
tp889
asg25
Nsbasg33
I00
sg25
Nsg35
I00
sg36
S'L'
sbsg37
(irule
FeatureMatrix
p890
(dp891
g23
(lp892
(I00
g532
tp893
asg25
Nsbsg43
(irule
Guard
p894
(dp895
g18
I00
sg19
(lp896
sg33
I00
sg25
Nsg35
I00
sg36
S'R'
sbsg47
(irule
FeatureMatrix
p897
(dp898
g23
(lp899
sg25
Nsbsg25
Nsba(irule
Rule
p900
(dp901
g15
(irule
Guard
p902
(dp903
g18
I00
sg19
(lp904
(irule
FeatureMatrix
p905
(dp906
g23
(lp907
sg25
Nsba(irule
FeatureMatrix
p908
(dp909
g23
(lp910
(I01
g532
tp911
asg25
Nsbasg33
I00
sg25
Nsg35
I00
sg36
S'L'
sbsg37
(irule
FeatureMatrix
p912
(dp913
g23
(lp914
(I00
g532
tp915
a(I01
S'tense'
p916
tp917
asg25
Nsbsg43
(irule
Guard
p918
(dp919
g18
I00
sg19
(lp920
sg33
I00
sg25
Nsg35
I00
sg36
S'R'
sbsg47
(irule
FeatureMatrix
p921
(dp922
g23
(lp923
sg25
Nsbsg25
Nsba(irule
Rule
p924
(dp925
g15
(irule
Guard
p926
(dp927
g18
I00
sg19
(lp928
(irule
FeatureMatrix
p929
(dp930
g23
(lp931
sg25
Nsba(irule
FeatureMatrix
p932
(dp933
g23
(lp934
(I00
S'liquid'
p935
tp936
a(I01
g532
tp937
asg25
Nsbasg33
I00
sg25
Nsg35
I00
sg36
S'L'
sbsg37
(irule
FeatureMatrix
p938
(dp939
g23
(lp940
(I00
g532
tp941
asg25
Nsbsg43
(irule
Guard
p942
(dp943
g18
I00
sg19
(lp944
sg33
I00
sg25
Nsg35
I00
sg36
S'R'
sbsg47
(irule
FeatureMatrix
p945
(dp946
g23
(lp947
sg25
Nsbsg25
Nsba(irule
Rule
p948
(dp949
g15
(irule
Guard
p950
(dp951
g18
I00
sg19
(lp952
(irule
FeatureMatrix
p953
(dp954
g23
(lp955
sg25
Nsba(irule
FeatureMatrix
p956
(dp957
g23
(lp958
(I01
g532
tp959
asg25
Nsbasg33
I00
sg25
Nsg35
I00
sg36
S'L'
sbsg37
(irule
FeatureMatrix
p960
(dp961
g23
(lp962
(I00
g532
tp963
a(I00
S'palletized'
p964
tp965
asg25
Nsbsg43
(irule
Guard
p966
(dp967
g18
I00
sg19
(lp968
sg33
I00
sg25
Nsg35
I00
sg36
S'R'
sbsg47
(irule
FeatureMatrix
p969
(dp970
g23
(lp971
sg25
Nsbsg25
Nsba(irule
Rule
p972
(dp973
g15
(irule
Guard
p974
(dp975
g18
I00
sg19
(lp976
(irule
FeatureMatrix
p977
(dp978
g23
(lp979
sg25
Nsba(irule
FeatureMatrix
p980
(dp981
g23
(lp982
(I01
S'continuant'
p983
tp984
a(I01
g532
tp985
asg25
Nsbasg33
I00
sg25
Nsg35
I00
sg36
S'L'
sbsg37
(irule
FeatureMatrix
p986
(dp987
g23
(lp988
(I00
g532
tp989
asg25
Nsbsg43
(irule
Guard
p990
(dp991
g18
I00
sg19
(lp992
sg33
I00
sg25
Nsg35
I00
sg36
S'R'
sbsg47
(irule
FeatureMatrix
p993
(dp994
g23
(lp995
sg25
Nsbsg25
Nsba(irule
Rule
p996
(dp997
g15
(irule
Guard
p998
(dp999
g18
I00
sg19
(lp1000
(irule
FeatureMatrix
p1001
(dp1002
g23
(lp1003
(I00
S'nasal'
p1004
tp1005
asg25
Nsba(irule
FeatureMatrix
p1006
(dp1007
g23
(lp1008
(I01
g532
tp1009
asg25
Nsbasg33
I00
sg25
Nsg35
I00
sg36
S'L'
sbsg37
(irule
FeatureMatrix
p1010
(dp1011
g23
(lp1012
(I00
g532
tp1013
asg25
Nsbsg43
(irule
Guard
p1014
(dp1015
g18
I00
sg19
(lp1016
sg33
I00
sg25
Nsg35
I00
sg36
S'R'
sbsg47
(irule
FeatureMatrix
p1017
(dp1018
g23
(lp1019
sg25
Nsbsg25
Nsba(irule
Rule
p1020
(dp1021
g15
(irule
Guard
p1022
(dp1023
g18
I00
sg19
(lp1024
(irule
FeatureMatrix
p1025
(dp1026
g23
(lp1027
(I00
g964
tp1028
asg25
Nsba(irule
FeatureMatrix
p1029
(dp1030
g23
(lp1031
(I01
g532
tp1032
asg25
Nsbasg33
I00
sg25
Nsg35
I00
sg36
S'L'
sbsg37
(irule
FeatureMatrix
p1033
(dp1034
g23
(lp1035
(I00
g532
tp1036
asg25
Nsbsg43
(irule
Guard
p1037
(dp1038
g18
I00
sg19
(lp1039
sg33
I00
sg25
Nsg35
I00
sg36
S'R'
sbsg47
(irule
FeatureMatrix
p1040
(dp1041
g23
(lp1042
sg25
Nsbsg25
Nsba(irule
Rule
p1043
(dp1044
g15
(irule
Guard
p1045
(dp1046
g18
I00
sg19
(lp1047
(irule
FeatureMatrix
p1048
(dp1049
g23
(lp1050
(I00
g727
tp1051
asg25
Nsba(irule
FeatureMatrix
p1052
(dp1053
g23
(lp1054
(I01
g532
tp1055
asg25
Nsbasg33
I00
sg25
Nsg35
I00
sg36
S'L'
sbsg37
(irule
FeatureMatrix
p1056
(dp1057
g23
(lp1058
(I00
g532
tp1059
asg25
Nsbsg43
(irule
Guard
p1060
(dp1061
g18
I00
sg19
(lp1062
sg33
I00
sg25
Nsg35
I00
sg36
S'R'
sbsg47
(irule
FeatureMatrix
p1063
(dp1064
g23
(lp1065
sg25
Nsbsg25
Nsba(irule
Rule
p1066
(dp1067
g15
(irule
Guard
p1068
(dp1069
g18
I00
sg19
(lp1070
(irule
FeatureMatrix
p1071
(dp1072
g23
(lp1073
sg25
Nsba(irule
FeatureMatrix
p1074
(dp1075
g23
(lp1076
(I00
g796
tp1077
a(I01
g532
tp1078
asg25
Nsbasg33
I00
sg25
Nsg35
I00
sg36
S'L'
sbsg37
(irule
FeatureMatrix
p1079
(dp1080
g23
(lp1081
(I00
g532
tp1082
asg25
Nsbsg43
(irule
Guard
p1083
(dp1084
g18
I00
sg19
(lp1085
sg33
I00
sg25
Nsg35
I00
sg36
S'R'
sbsg47
(irule
FeatureMatrix
p1086
(dp1087
g23
(lp1088
sg25
Nsbsg25
Nsba(irule
Rule
p1089
(dp1090
g15
(irule
Guard
p1091
(dp1092
g18
I00
sg19
(lp1093
(irule
FeatureMatrix
p1094
(dp1095
g23
(lp1096
sg25
Nsba(irule
FeatureMatrix
p1097
(dp1098
g23
(lp1099
(I00
g1004
tp1100
a(I01
g532
tp1101
asg25
Nsbasg33
I00
sg25
Nsg35
I00
sg36
S'L'
sbsg37
(irule
FeatureMatrix
p1102
(dp1103
g23
(lp1104
(I00
g532
tp1105
asg25
Nsbsg43
(irule
Guard
p1106
(dp1107
g18
I00
sg19
(lp1108
sg33
I00
sg25
Nsg35
I00
sg36
S'R'
sbsg47
(irule
FeatureMatrix
p1109
(dp1110
g23
(lp1111
sg25
Nsbsg25
Nsba(irule
Rule
p1112
(dp1113
g15
(irule
Guard
p1114
(dp1115
g18
I00
sg19
(lp1116
(irule
FeatureMatrix
p1117
(dp1118
g23
(lp1119
sg25
Nsba(irule
FeatureMatrix
p1120
(dp1121
g23
(lp1122
(I01
g532
tp1123
asg25
Nsbasg33
I00
sg25
Nsg35
I00
sg36
S'L'
sbsg37
(irule
FeatureMatrix
p1124
(dp1125
g23
(lp1126
(I00
g1004
tp1127
a(I00
g532
tp1128
asg25
Nsbsg43
(irule
Guard
p1129
(dp1130
g18
I00
sg19
(lp1131
sg33
I00
sg25
Nsg35
I00
sg36
S'R'
sbsg47
(irule
FeatureMatrix
p1132
(dp1133
g23
(lp1134
sg25
Nsbsg25
Nsba(irule
Rule
p1135
(dp1136
g15
(irule
Guard
p1137
(dp1138
g18
I00
sg19
(lp1139
(irule
FeatureMatrix
p1140
(dp1141
g23
(lp1142
(I00
g916
tp1143
asg25
Nsba(irule
FeatureMatrix
p1144
(dp1145
g23
(lp1146
(I01
g532
tp1147
asg25
Nsbasg33
I00
sg25
Nsg35
I00
sg36
S'L'
sbsg37
(irule
FeatureMatrix
p1148
(dp1149
g23
(lp1150
(I00
g532
tp1151
asg25
Nsbsg43
(irule
Guard
p1152
(dp1153
g18
I00
sg19
(lp1154
sg33
I00
sg25
Nsg35
I00
sg36
S'R'
sbsg47
(irule
FeatureMatrix
p1155
(dp1156
g23
(lp1157
sg25
Nsbsg25
Nsba(irule
Rule
p1158
(dp1159
g15
(irule
Guard
p1160
(dp1161
g18
I00
sg19
(lp1162
(irule
FeatureMatrix
p1163
(dp1164
g23
(lp1165
sg25
Nsba(irule
FeatureMatrix
p1166
(dp1167
g23
(lp1168
(I01
g532
tp1169
a(I00
g964
tp1170
asg25
Nsbasg33
I00
sg25
Nsg35
I00
sg36
S'L'
sbsg37
(irule
FeatureMatrix
p1171
(dp1172
g23
(lp1173
(I00
g532
tp1174
asg25
Nsbsg43
(irule
Guard
p1175
(dp1176
g18
I00
sg19
(lp1177
sg33
I00
sg25
Nsg35
I00
sg36
S'R'
sbsg47
(irule
FeatureMatrix
p1178
(dp1179
g23
(lp1180
sg25
Nsbsg25
Nsba(irule
Rule
p1181
(dp1182
g15
(irule
Guard
p1183
(dp1184
g18
I00
sg19
(lp1185
(irule
FeatureMatrix
p1186
(dp1187
g23
(lp1188
sg25
Nsba(irule
FeatureMatrix
p1189
(dp1190
g23
(lp1191
(I01
g532
tp1192
asg25
Nsbasg33
I00
sg25
Nsg35
I00
sg36
S'L'
sbsg37
(irule
FeatureMatrix
p1193
(dp1194
g23
(lp1195
(I00
g887
tp1196
a(I00
g532
tp1197
asg25
Nsbsg43
(irule
Guard
p1198
(dp1199
g18
I00
sg19
(lp1200
sg33
I00
sg25
Nsg35
I00
sg36
S'R'
sbsg47
(irule
FeatureMatrix
p1201
(dp1202
g23
(lp1203
sg25
Nsbsg25
Nsba(irule
Rule
p1204
(dp1205
g15
(irule
Guard
p1206
(dp1207
g18
I00
sg19
(lp1208
(irule
FeatureMatrix
p1209
(dp1210
g23
(lp1211
sg25
Nsba(irule
FeatureMatrix
p1212
(dp1213
g23
(lp1214
(I01
g532
tp1215
asg25
Nsbasg33
I00
sg25
Nsg35
I00
sg36
S'L'
sbsg37
(irule
FeatureMatrix
p1216
(dp1217
g23
(lp1218
(I00
g532
tp1219
a(I01
g840
tp1220
asg25
Nsbsg43
(irule
Guard
p1221
(dp1222
g18
I00
sg19
(lp1223
sg33
I00
sg25
Nsg35
I00
sg36
S'R'
sbsg47
(irule
FeatureMatrix
p1224
(dp1225
g23
(lp1226
sg25
Nsbsg25
Nsba(irule
Rule
p1227
(dp1228
g15
(irule
Guard
p1229
(dp1230
g18
I00
sg19
(lp1231
(irule
FeatureMatrix
p1232
(dp1233
g23
(lp1234
sg25
Nsba(irule
FeatureMatrix
p1235
(dp1236
g23
(lp1237
(I01
g532
tp1238
a(I01
g727
tp1239
asg25
Nsbasg33
I00
sg25
Nsg35
I00
sg36
S'L'
sbsg37
(irule
FeatureMatrix
p1240
(dp1241
g23
(lp1242
(I00
g532
tp1243
asg25
Nsbsg43
(irule
Guard
p1244
(dp1245
g18
I00
sg19
(lp1246
sg33
I00
sg25
Nsg35
I00
sg36
S'R'
sbsg47
(irule
FeatureMatrix
p1247
(dp1248
g23
(lp1249
sg25
Nsbsg25
Nsba(irule
Rule
p1250
(dp1251
g15
(irule
Guard
p1252
(dp1253
g18
I00
sg19
(lp1254
(irule
FeatureMatrix
p1255
(dp1256
g23
(lp1257
sg25
Nsba(irule
FeatureMatrix
p1258
(dp1259
g23
(lp1260
(I01
g532
tp1261
asg25
Nsbasg33
I00
sg25
Nsg35
I00
sg36
S'L'
sbsg37
(irule
FeatureMatrix
p1262
(dp1263
g23
(lp1264
(I00
g935
tp1265
a(I00
g532
tp1266
asg25
Nsbsg43
(irule
Guard
p1267
(dp1268
g18
I00
sg19
(lp1269
sg33
I00
sg25
Nsg35
I00
sg36
S'R'
sbsg47
(irule
FeatureMatrix
p1270
(dp1271
g23
(lp1272
sg25
Nsbsg25
Nsba(irule
Rule
p1273
(dp1274
g15
(irule
Guard
p1275
(dp1276
g18
I00
sg19
(lp1277
(irule
FeatureMatrix
p1278
(dp1279
g23
(lp1280
sg25
Nsba(irule
FeatureMatrix
p1281
(dp1282
g23
(lp1283
(I01
g532
tp1284
asg25
Nsbasg33
I00
sg25
Nsg35
I00
sg36
S'L'
sbsg37
(irule
FeatureMatrix
p1285
(dp1286
g23
(lp1287
(I00
g863
tp1288
a(I00
g532
tp1289
asg25
Nsbsg43
(irule
Guard
p1290
(dp1291
g18
I00
sg19
(lp1292
sg33
I00
sg25
Nsg35
I00
sg36
S'R'
sbsg47
(irule
FeatureMatrix
p1293
(dp1294
g23
(lp1295
sg25
Nsbsg25
Nsba(irule
Rule
p1296
(dp1297
g15
(irule
Guard
p1298
(dp1299
g18
I00
sg19
(lp1300
(irule
FeatureMatrix
p1301
(dp1302
g23
(lp1303
sg25
Nsba(irule
FeatureMatrix
p1304
(dp1305
g23
(lp1306
(I01
g532
tp1307
a(I00
g584
tp1308
asg25
Nsbasg33
I00
sg25
Nsg35
I00
sg36
S'L'
sbsg37
(irule
FeatureMatrix
p1309
(dp1310
g23
(lp1311
(I00
g532
tp1312
asg25
Nsbsg43
(irule
Guard
p1313
(dp1314
g18
I00
sg19
(lp1315
sg33
I00
sg25
Nsg35
I00
sg36
S'R'
sbsg47
(irule
FeatureMatrix
p1316
(dp1317
g23
(lp1318
sg25
Nsbsg25
Nsba(irule
Rule
p1319
(dp1320
g15
(irule
Guard
p1321
(dp1322
g18
I00
sg19
(lp1323
(irule
FeatureMatrix
p1324
(dp1325
g23
(lp1326
sg25
Nsba(irule
FeatureMatrix
p1327
(dp1328
g23
(lp1329
(I01
g532
tp1330
a(I00
g703
tp1331
asg25
Nsbasg33
I00
sg25
Nsg35
I00
sg36
S'L'
sbsg37
(irule
FeatureMatrix
p1332
(dp1333
g23
(lp1334
(I00
g532
tp1335
asg25
Nsbsg43
(irule
Guard
p1336
(dp1337
g18
I00
sg19
(lp1338
sg33
I00
sg25
Nsg35
I00
sg36
S'R'
sbsg47
(irule
FeatureMatrix
p1339
(dp1340
g23
(lp1341
sg25
Nsbsg25
Nsba(irule
Rule
p1342
(dp1343
g15
(irule
Guard
p1344
(dp1345
g18
I00
sg19
(lp1346
(irule
FeatureMatrix
p1347
(dp1348
g23
(lp1349
(I00
g796
tp1350
asg25
Nsba(irule
FeatureMatrix
p1351
(dp1352
g23
(lp1353
(I01
g532
tp1354
asg25
Nsbasg33
I00
sg25
Nsg35
I00
sg36
S'L'
sbsg37
(irule
FeatureMatrix
p1355
(dp1356
g23
(lp1357
(I00
g532
tp1358
asg25
Nsbsg43
(irule
Guard
p1359
(dp1360
g18
I00
sg19
(lp1361
sg33
I00
sg25
Nsg35
I00
sg36
S'R'
sbsg47
(irule
FeatureMatrix
p1362
(dp1363
g23
(lp1364
sg25
Nsbsg25
Nsba(irule
Rule
p1365
(dp1366
g15
(irule
Guard
p1367
(dp1368
g18
I00
sg19
(lp1369
(irule
FeatureMatrix
p1370
(dp1371
g23
(lp1372
sg25
Nsba(irule
FeatureMatrix
p1373
(dp1374
g23
(lp1375
(I01
g532
tp1376
asg25
Nsbasg33
I00
sg25
Nsg35
I00
sg36
S'L'
sbsg37
(irule
FeatureMatrix
p1377
(dp1378
g23
(lp1379
(I01
g983
tp1380
a(I00
g532
tp1381
asg25
Nsbsg43
(irule
Guard
p1382
(dp1383
g18
I00
sg19
(lp1384
sg33
I00
sg25
Nsg35
I00
sg36
S'R'
sbsg47
(irule
FeatureMatrix
p1385
(dp1386
g23
(lp1387
sg25
Nsbsg25
Nsba(irule
Rule
p1388
(dp1389
g15
(irule
Guard
p1390
(dp1391
g18
I00
sg19
(lp1392
(irule
FeatureMatrix
p1393
(dp1394
g23
(lp1395
sg25
Nsba(irule
FeatureMatrix
p1396
(dp1397
g23
(lp1398
(I01
g532
tp1399
a(I01
g916
tp1400
asg25
Nsbasg33
I00
sg25
Nsg35
I00
sg36
S'L'
sbsg37
(irule
FeatureMatrix
p1401
(dp1402
g23
(lp1403
(I00
g532
tp1404
asg25
Nsbsg43
(irule
Guard
p1405
(dp1406
g18
I00
sg19
(lp1407
sg33
I00
sg25
Nsg35
I00
sg36
S'R'
sbsg47
(irule
FeatureMatrix
p1408
(dp1409
g23
(lp1410
sg25
Nsbsg25
Nsba(irule
Rule
p1411
(dp1412
g15
(irule
Guard
p1413
(dp1414
g18
I00
sg19
(lp1415
(irule
FeatureMatrix
p1416
(dp1417
g23
(lp1418
sg25
Nsba(irule
FeatureMatrix
p1419
(dp1420
g23
(lp1421
(I01
g532
tp1422
asg25
Nsbasg33
I00
sg25
Nsg35
I00
sg36
S'L'
sbsg37
(irule
FeatureMatrix
p1423
(dp1424
g23
(lp1425
(I00
g532
tp1426
asg25
Nsbsg43
(irule
Guard
p1427
(dp1428
g18
I00
sg19
(lp1429
sg33
I00
sg25
Nsg35
I00
sg36
S'R'
sbsg47
(irule
FeatureMatrix
p1430
(dp1431
g23
(lp1432
(I01
g604
tp1433
asg25
Nsbsg25
Nsba(irule
Rule
p1434
(dp1435
g15
(irule
Guard
p1436
(dp1437
g18
I00
sg19
(lp1438
(irule
FeatureMatrix
p1439
(dp1440
g23
(lp1441
(I00
S'rounded'
p1442
tp1443
asg25
Nsba(irule
FeatureMatrix
p1444
(dp1445
g23
(lp1446
(I01
g532
tp1447
asg25
Nsbasg33
I00
sg25
Nsg35
I00
sg36
S'L'
sbsg37
(irule
FeatureMatrix
p1448
(dp1449
g23
(lp1450
(I00
g532
tp1451
asg25
Nsbsg43
(irule
Guard
p1452
(dp1453
g18
I00
sg19
(lp1454
sg33
I00
sg25
Nsg35
I00
sg36
S'R'
sbsg47
(irule
FeatureMatrix
p1455
(dp1456
g23
(lp1457
sg25
Nsbsg25
Nsba(irule
Rule
p1458
(dp1459
g15
(irule
Guard
p1460
(dp1461
g18
I00
sg19
(lp1462
(irule
FeatureMatrix
p1463
(dp1464
g23
(lp1465
sg25
Nsba(irule
FeatureMatrix
p1466
(dp1467
g23
(lp1468
(I01
g532
tp1469
asg25
Nsbasg33
I00
sg25
Nsg35
I00
sg36
S'L'
sbsg37
(irule
FeatureMatrix
p1470
(dp1471
g23
(lp1472
(I00
g532
tp1473
asg25
Nsbsg43
(irule
Guard
p1474
(dp1475
g18
I00
sg19
(lp1476
sg33
I00
sg25
Nsg35
I00
sg36
S'R'
sbsg47
(irule
FeatureMatrix
p1477
(dp1478
g23
(lp1479
(I00
g584
tp1480
asg25
Nsbsg25
Nsba(irule
Rule
p1481
(dp1482
g15
(irule
Guard
p1483
(dp1484
g18
I00
sg19
(lp1485
(irule
FeatureMatrix
p1486
(dp1487
g23
(lp1488
sg25
Nsba(irule
FeatureMatrix
p1489
(dp1490
g23
(lp1491
(I01
g532
tp1492
asg25
Nsbasg33
I00
sg25
Nsg35
I00
sg36
S'L'
sbsg37
(irule
FeatureMatrix
p1493
(dp1494
g23
(lp1495
(I00
g532
tp1496
asg25
Nsbsg43
(irule
Guard
p1497
(dp1498
g18
I00
sg19
(lp1499
(irule
FeatureMatrix
p1500
(dp1501
g23
(lp1502
sg25
Nsbasg33
I00
sg25
Nsg35
I00
sg36
S'R'
sbsg47
(irule
FeatureMatrix
p1503
(dp1504
g23
(lp1505
sg25
Nsbsg25
Nsba(irule
Rule
p1506
(dp1507
g15
(irule
Guard
p1508
(dp1509
g18
I00
sg19
(lp1510
(irule
FeatureMatrix
p1511
(dp1512
g23
(lp1513
sg25
Nsba(irule
FeatureMatrix
p1514
(dp1515
g23
(lp1516
(I01
g532
tp1517
asg25
Nsbasg33
I00
sg25
Nsg35
I00
sg36
S'L'
sbsg37
(irule
FeatureMatrix
p1518
(dp1519
g23
(lp1520
(I00
g532
tp1521
asg25
Nsbsg43
(irule
Guard
p1522
(dp1523
g18
I00
sg19
(lp1524
sg33
I00
sg25
Nsg35
I00
sg36
S'R'
sbsg47
(irule
FeatureMatrix
p1525
(dp1526
g23
(lp1527
(I01
g727
tp1528
asg25
Nsbsg25
Nsba(irule
Rule
p1529
(dp1530
g15
(irule
Guard
p1531
(dp1532
g18
I00
sg19
(lp1533
(irule
FeatureMatrix
p1534
(dp1535
g23
(lp1536
sg25
Nsba(irule
FeatureMatrix
p1537
(dp1538
g23
(lp1539
(I01
g532
tp1540
asg25
Nsbasg33
I00
sg25
Nsg35
I00
sg36
S'L'
sbsg37
(irule
FeatureMatrix
p1541
(dp1542
g23
(lp1543
(I00
g532
tp1544
asg25
Nsbsg43
(irule
Guard
p1545
(dp1546
g18
I00
sg19
(lp1547
sg33
I00
sg25
Nsg35
I00
sg36
S'R'
sbsg47
(irule
FeatureMatrix
p1548
(dp1549
g23
(lp1550
(I00
g703
tp1551
asg25
Nsbsg25
Nsba(irule
Rule
p1552
(dp1553
g15
(irule
Guard
p1554
(dp1555
g18
I00
sg19
(lp1556
(irule
FeatureMatrix
p1557
(dp1558
g23
(lp1559
sg25
Nsba(irule
FeatureMatrix
p1560
(dp1561
g23
(lp1562
(I01
g532
tp1563
asg25
Nsbasg33
I00
sg25
Nsg35
I00
sg36
S'L'
sbsg37
(irule
FeatureMatrix
p1564
(dp1565
g23
(lp1566
(I00
g532
tp1567
asg25
Nsbsg43
(irule
Guard
p1568
(dp1569
g18
I00
sg19
(lp1570
sg33
I00
sg25
Nsg35
I00
sg36
S'R'
sbsg47
(irule
FeatureMatrix
p1571
(dp1572
g23
(lp1573
(I01
g532
tp1574
asg25
Nsbsg25
Nsba(irule
Rule
p1575
(dp1576
g15
(irule
Guard
p1577
(dp1578
g18
I00
sg19
(lp1579
(irule
FeatureMatrix
p1580
(dp1581
g23
(lp1582
sg25
Nsba(irule
FeatureMatrix
p1583
(dp1584
g23
(lp1585
(I01
g532
tp1586
asg25
Nsbasg33
I00
sg25
Nsg35
I00
sg36
S'L'
sbsg37
(irule
FeatureMatrix
p1587
(dp1588
g23
(lp1589
(I00
g532
tp1590
asg25
Nsbsg43
(irule
Guard
p1591
(dp1592
g18
I00
sg19
(lp1593
sg33
I00
sg25
Nsg35
I00
sg36
S'R'
sbsg47
(irule
FeatureMatrix
p1594
(dp1595
g23
(lp1596
(I00
g964
tp1597
asg25
Nsbsg25
Nsba(irule
Rule
p1598
(dp1599
g15
(irule
Guard
p1600
(dp1601
g18
I00
sg19
(lp1602
(irule
FeatureMatrix
p1603
(dp1604
g23
(lp1605
sg25
Nsba(irule
FeatureMatrix
p1606
(dp1607
g23
(lp1608
(I01
g532
tp1609
asg25
Nsbasg33
I00
sg25
Nsg35
I00
sg36
S'L'
sbsg37
(irule
FeatureMatrix
p1610
(dp1611
g23
(lp1612
(I00
g532
tp1613
asg25
Nsbsg43
(irule
Guard
p1614
(dp1615
g18
I00
sg19
(lp1616
sg33
I00
sg25
Nsg35
I00
sg36
S'R'
sbsg47
(irule
FeatureMatrix
p1617
(dp1618
g23
(lp1619
(I00
g887
tp1620
asg25
Nsbsg25
Nsba(irule
Rule
p1621
(dp1622
g15
(irule
Guard
p1623
(dp1624
g18
I00
sg19
(lp1625
(irule
FeatureMatrix
p1626
(dp1627
g23
(lp1628
sg25
Nsba(irule
FeatureMatrix
p1629
(dp1630
g23
(lp1631
(I01
g532
tp1632
asg25
Nsbasg33
I00
sg25
Nsg35
I00
sg36
S'L'
sbsg37
(irule
FeatureMatrix
p1633
(dp1634
g23
(lp1635
(I00
g532
tp1636
asg25
Nsbsg43
(irule
Guard
p1637
(dp1638
g18
I00
sg19
(lp1639
sg33
I00
sg25
Nsg35
I00
sg36
S'R'
sbsg47
(irule
FeatureMatrix
p1640
(dp1641
g23
(lp1642
(I01
g916
tp1643
asg25
Nsbsg25
Nsba(irule
Rule
p1644
(dp1645
g15
(irule
Guard
p1646
(dp1647
g18
I00
sg19
(lp1648
(irule
FeatureMatrix
p1649
(dp1650
g23
(lp1651
sg25
Nsba(irule
FeatureMatrix
p1652
(dp1653
g23
(lp1654
(I01
g532
tp1655
asg25
Nsbasg33
I00
sg25
Nsg35
I00
sg36
S'L'
sbsg37
(irule
FeatureMatrix
p1656
(dp1657
g23
(lp1658
(I00
g532
tp1659
asg25
Nsbsg43
(irule
Guard
p1660
(dp1661
g18
I00
sg19
(lp1662
sg33
I00
sg25
Nsg35
I00
sg36
S'R'
sbsg47
(irule
FeatureMatrix
p1663
(dp1664
g23
(lp1665
(I00
g1004
tp1666
asg25
Nsbsg25
Nsba(irule
Rule
p1667
(dp1668
g15
(irule
Guard
p1669
(dp1670
g18
I00
sg19
(lp1671
(irule
FeatureMatrix
p1672
(dp1673
g23
(lp1674
sg25
Nsba(irule
FeatureMatrix
p1675
(dp1676
g23
(lp1677
(I01
g532
tp1678
asg25
Nsbasg33
I00
sg25
Nsg35
I00
sg36
S'L'
sbsg37
(irule
FeatureMatrix
p1679
(dp1680
g23
(lp1681
(I00
g532
tp1682
asg25
Nsbsg43
(irule
Guard
p1683
(dp1684
g18
I00
sg19
(lp1685
sg33
I00
sg25
Nsg35
I00
sg36
S'R'
sbsg47
(irule
FeatureMatrix
p1686
(dp1687
g23
(lp1688
(I01
g840
tp1689
asg25
Nsbsg25
Nsba(irule
Rule
p1690
(dp1691
g15
(irule
Guard
p1692
(dp1693
g18
I00
sg19
(lp1694
(irule
FeatureMatrix
p1695
(dp1696
g23
(lp1697
sg25
Nsba(irule
FeatureMatrix
p1698
(dp1699
g23
(lp1700
(I01
g532
tp1701
asg25
Nsbasg33
I00
sg25
Nsg35
I00
sg36
S'L'
sbsg37
(irule
FeatureMatrix
p1702
(dp1703
g23
(lp1704
(I00
g532
tp1705
asg25
Nsbsg43
(irule
Guard
p1706
(dp1707
g18
I00
sg19
(lp1708
sg33
I00
sg25
Nsg35
I00
sg36
S'R'
sbsg47
(irule
FeatureMatrix
p1709
(dp1710
g23
(lp1711
(I00
g935
tp1712
asg25
Nsbsg25
Nsba(irule
Rule
p1713
(dp1714
g15
(irule
Guard
p1715
(dp1716
g18
I00
sg19
(lp1717
(irule
FeatureMatrix
p1718
(dp1719
g23
(lp1720
sg25
Nsba(irule
FeatureMatrix
p1721
(dp1722
g23
(lp1723
(I01
g532
tp1724
asg25
Nsbasg33
I00
sg25
Nsg35
I00
sg36
S'L'
sbsg37
(irule
FeatureMatrix
p1725
(dp1726
g23
(lp1727
(I00
g532
tp1728
asg25
Nsbsg43
(irule
Guard
p1729
(dp1730
g18
I00
sg19
(lp1731
sg33
I00
sg25
Nsg35
I00
sg36
S'R'
sbsg47
(irule
FeatureMatrix
p1732
(dp1733
g23
(lp1734
(I00
g796
tp1735
asg25
Nsbsg25
Nsba(irule
Rule
p1736
(dp1737
g15
(irule
Guard
p1738
(dp1739
g18
I00
sg19
(lp1740
(irule
FeatureMatrix
p1741
(dp1742
g23
(lp1743
sg25
Nsba(irule
FeatureMatrix
p1744
(dp1745
g23
(lp1746
(I01
g532
tp1747
asg25
Nsbasg33
I00
sg25
Nsg35
I00
sg36
S'L'
sbsg37
(irule
FeatureMatrix
p1748
(dp1749
g23
(lp1750
(I00
g532
tp1751
asg25
Nsbsg43
(irule
Guard
p1752
(dp1753
g18
I00
sg19
(lp1754
sg33
I00
sg25
Nsg35
I00
sg36
S'R'
sbsg47
(irule
FeatureMatrix
p1755
(dp1756
g23
(lp1757
(I00
g863
tp1758
asg25
Nsbsg25
Nsba(irule
Rule
p1759
(dp1760
g15
(irule
Guard
p1761
(dp1762
g18
I00
sg19
(lp1763
(irule
FeatureMatrix
p1764
(dp1765
g23
(lp1766
sg25
Nsba(irule
FeatureMatrix
p1767
(dp1768
g23
(lp1769
(I01
g532
tp1770
asg25
Nsbasg33
I00
sg25
Nsg35
I00
sg36
S'L'
sbsg37
(irule
FeatureMatrix
p1771
(dp1772
g23
(lp1773
(I00
g532
tp1774
asg25
Nsbsg43
(irule
Guard
p1775
(dp1776
g18
I00
sg19
(lp1777
sg33
I00
sg25
Nsg35
I00
sg36
S'R'
sbsg47
(irule
FeatureMatrix
p1778
(dp1779
g23
(lp1780
(I01
g552
tp1781
asg25
Nsbsg25
Nsba(irule
Rule
p1782
(dp1783
g15
(irule
Guard
p1784
(dp1785
g18
I00
sg19
(lp1786
(irule
FeatureMatrix
p1787
(dp1788
g23
(lp1789
sg25
Nsba(irule
FeatureMatrix
p1790
(dp1791
g23
(lp1792
(I01
g532
tp1793
asg25
Nsbasg33
I00
sg25
Nsg35
I00
sg36
S'L'
sbsg37
(irule
FeatureMatrix
p1794
(dp1795
g23
(lp1796
(I00
g532
tp1797
asg25
Nsbsg43
(irule
Guard
p1798
(dp1799
g18
I00
sg19
(lp1800
sg33
I00
sg25
Nsg35
I00
sg36
S'R'
sbsg47
(irule
FeatureMatrix
p1801
(dp1802
g23
(lp1803
(I01
g983
tp1804
asg25
Nsbsg25
Nsba(irule
Rule
p1805
(dp1806
g15
(irule
Guard
p1807
(dp1808
g18
I00
sg19
(lp1809
(irule
FeatureMatrix
p1810
(dp1811
g23
(lp1812
sg25
Nsba(irule
FeatureMatrix
p1813
(dp1814
g23
(lp1815
(I01
g532
tp1816
asg25
Nsbasg33
I00
sg25
Nsg35
I01
sg36
S'L'
sbsg37
(irule
FeatureMatrix
p1817
(dp1818
g23
(lp1819
(I00
g532
tp1820
asg25
Nsbsg43
(irule
Guard
p1821
(dp1822
g18
I00
sg19
(lp1823
sg33
I00
sg25
Nsg35
I00
sg36
S'R'
sbsg47
(irule
FeatureMatrix
p1824
(dp1825
g23
(lp1826
(I01
g532
tp1827
asg25
Nsbsg25
Nsba(irule
Rule
p1828
(dp1829
g15
(irule
Guard
p1830
(dp1831
g18
I00
sg19
(lp1832
(irule
FeatureMatrix
p1833
(dp1834
g23
(lp1835
sg25
Nsba(irule
FeatureMatrix
p1836
(dp1837
g23
(lp1838
(I01
g532
tp1839
asg25
Nsbasg33
I00
sg25
Nsg35
I00
sg36
S'L'
sbsg37
(irule
FeatureMatrix
p1840
(dp1841
g23
(lp1842
(I00
g532
tp1843
a(I00
g964
tp1844
a(I00
g584
tp1845
asg25
Nsbsg43
(irule
Guard
p1846
(dp1847
g18
I00
sg19
(lp1848
sg33
I00
sg25
Nsg35
I00
sg36
S'R'
sbsg47
(irule
FeatureMatrix
p1849
(dp1850
g23
(lp1851
sg25
Nsbsg25
Nsba(irule
Rule
p1852
(dp1853
g15
(irule
Guard
p1854
(dp1855
g18
I00
sg19
(lp1856
(irule
FeatureMatrix
p1857
(dp1858
g23
(lp1859
sg25
Nsba(irule
FeatureMatrix
p1860
(dp1861
g23
(lp1862
(I01
g532
tp1863
a(I00
g652
tp1864
asg25
Nsbasg33
I00
sg25
Nsg35
I01
sg36
S'L'
sbsg37
(irule
FeatureMatrix
p1865
(dp1866
g23
(lp1867
(I00
g532
tp1868
asg25
Nsbsg43
(irule
Guard
p1869
(dp1870
g18
I00
sg19
(lp1871
sg33
I00
sg25
Nsg35
I00
sg36
S'R'
sbsg47
(irule
FeatureMatrix
p1872
(dp1873
g23
(lp1874
sg25
Nsbsg25
Nsba(irule
Rule
p1875
(dp1876
g15
(irule
Guard
p1877
(dp1878
g18
I00
sg19
(lp1879
(irule
FeatureMatrix
p1880
(dp1881
g23
(lp1882
(I00
g552
tp1883
asg25
Nsba(irule
FeatureMatrix
p1884
(dp1885
g23
(lp1886
(I00
g863
tp1887
a(I01
g532
tp1888
asg25
Nsbasg33
I00
sg25
Nsg35
I00
sg36
S'L'
sbsg37
(irule
FeatureMatrix
p1889
(dp1890
g23
(lp1891
(I00
g532
tp1892
asg25
Nsbsg43
(irule
Guard
p1893
(dp1894
g18
I00
sg19
(lp1895
sg33
I00
sg25
Nsg35
I00
sg36
S'R'
sbsg47
(irule
FeatureMatrix
p1896
(dp1897
g23
(lp1898
sg25
Nsbsg25
Nsba(irule
Rule
p1899
(dp1900
g15
(irule
Guard
p1901
(dp1902
g18
I00
sg19
(lp1903
(irule
FeatureMatrix
p1904
(dp1905
g23
(lp1906
sg25
Nsba(irule
FeatureMatrix
p1907
(dp1908
g23
(lp1909
(I01
g532
tp1910
a(I01
g916
tp1911
asg25
Nsbasg33
I00
sg25
Nsg35
I01
sg36
S'L'
sbsg37
(irule
FeatureMatrix
p1912
(dp1913
g23
(lp1914
(I00
g532
tp1915
asg25
Nsbsg43
(irule
Guard
p1916
(dp1917
g18
I00
sg19
(lp1918
sg33
I00
sg25
Nsg35
I00
sg36
S'R'
sbsg47
(irule
FeatureMatrix
p1919
(dp1920
g23
(lp1921
sg25
Nsbsg25
Nsba(irule
Rule
p1922
(dp1923
g15
(irule
Guard
p1924
(dp1925
g18
I00
sg19
(lp1926
(irule
FeatureMatrix
p1927
(dp1928
g23
(lp1929
(I00
g552
tp1930
asg25
Nsba(irule
FeatureMatrix
p1931
(dp1932
g23
(lp1933
(I01
g532
tp1934
asg25
Nsbasg33
I00
sg25
Nsg35
I01
sg36
S'L'
sbsg37
(irule
FeatureMatrix
p1935
(dp1936
g23
(lp1937
(I00
g532
tp1938
asg25
Nsbsg43
(irule
Guard
p1939
(dp1940
g18
I00
sg19
(lp1941
sg33
I00
sg25
Nsg35
I00
sg36
S'R'
sbsg47
(irule
FeatureMatrix
p1942
(dp1943
g23
(lp1944
sg25
Nsbsg25
Nsba(irule
Rule
p1945
(dp1946
g15
(irule
Guard
p1947
(dp1948
g18
I00
sg19
(lp1949
(irule
FeatureMatrix
p1950
(dp1951
g23
(lp1952
(I00
g916
tp1953
asg25
Nsba(irule
FeatureMatrix
p1954
(dp1955
g23
(lp1956
(I01
g532
tp1957
asg25
Nsbasg33
I00
sg25
Nsg35
I01
sg36
S'L'
sbsg37
(irule
FeatureMatrix
p1958
(dp1959
g23
(lp1960
(I00
g532
tp1961
asg25
Nsbsg43
(irule
Guard
p1962
(dp1963
g18
I00
sg19
(lp1964
sg33
I00
sg25
Nsg35
I00
sg36
S'R'
sbsg47
(irule
FeatureMatrix
p1965
(dp1966
g23
(lp1967
sg25
Nsbsg25
Nsba(irule
Rule
p1968
(dp1969
g15
(irule
Guard
p1970
(dp1971
g18
I00
sg19
(lp1972
(irule
FeatureMatrix
p1973
(dp1974
g23
(lp1975
sg25
Nsba(irule
FeatureMatrix
p1976
(dp1977
g23
(lp1978
(I01
g532
tp1979
asg25
Nsbasg33
I00
sg25
Nsg35
I01
sg36
S'L'
sbsg37
(irule
FeatureMatrix
p1980
(dp1981
g23
(lp1982
(I00
g532
tp1983
asg25
Nsbsg43
(irule
Guard
p1984
(dp1985
g18
I00
sg19
(lp1986
sg33
I00
sg25
Nsg35
I00
sg36
S'R'
sbsg47
(irule
FeatureMatrix
p1987
(dp1988
g23
(lp1989
(I01
g840
tp1990
asg25
Nsbsg25
Nsba(irule
Rule
p1991
(dp1992
g15
(irule
Guard
p1993
(dp1994
g18
I00
sg19
(lp1995
(irule
FeatureMatrix
p1996
(dp1997
g23
(lp1998
sg25
Nsba(irule
FeatureMatrix
p1999
(dp2000
g23
(lp2001
(I01
g532
tp2002
asg25
Nsbasg33
I00
sg25
Nsg35
I01
sg36
S'L'
sbsg37
(irule
FeatureMatrix
p2003
(dp2004
g23
(lp2005
(I00
g532
tp2006
asg25
Nsbsg43
(irule
Guard
p2007
(dp2008
g18
I00
sg19
(lp2009
sg33
I00
sg25
Nsg35
I00
sg36
S'R'
sbsg47
(irule
FeatureMatrix
p2010
(dp2011
g23
(lp2012
(I00
g584
tp2013
asg25
Nsbsg25
Nsba(irule
Rule
p2014
(dp2015
g15
(irule
Guard
p2016
(dp2017
g18
I00
sg19
(lp2018
(irule
FeatureMatrix
p2019
(dp2020
g23
(lp2021
(I00
g532
tp2022
asg25
Nsba(irule
FeatureMatrix
p2023
(dp2024
g23
(lp2025
(I01
g532
tp2026
asg25
Nsbasg33
I00
sg25
Nsg35
I01
sg36
S'L'
sbsg37
(irule
FeatureMatrix
p2027
(dp2028
g23
(lp2029
(I00
g532
tp2030
asg25
Nsbsg43
(irule
Guard
p2031
(dp2032
g18
I00
sg19
(lp2033
sg33
I00
sg25
Nsg35
I00
sg36
S'R'
sbsg47
(irule
FeatureMatrix
p2034
(dp2035
g23
(lp2036
sg25
Nsbsg25
Nsba(irule
Rule
p2037
(dp2038
g15
(irule
Guard
p2039
(dp2040
g18
I00
sg19
(lp2041
(irule
FeatureMatrix
p2042
(dp2043
g23
(lp2044
sg25
Nsba(irule
FeatureMatrix
p2045
(dp2046
g23
(lp2047
(I01
g532
tp2048
a(I00
g652
tp2049
asg25
Nsbasg33
I00
sg25
Nsg35
I00
sg36
S'L'
sbsg37
(irule
FeatureMatrix
p2050
(dp2051
g23
(lp2052
(I00
g532
tp2053
asg25
Nsbsg43
(irule
Guard
p2054
(dp2055
g18
I00
sg19
(lp2056
sg33
I00
sg25
Nsg35
I00
sg36
S'R'
sbsg47
(irule
FeatureMatrix
p2057
(dp2058
g23
(lp2059
(I01
g532
tp2060
asg25
Nsbsg25
Nsba(irule
Rule
p2061
(dp2062
g15
(irule
Guard
p2063
(dp2064
g18
I00
sg19
(lp2065
(irule
FeatureMatrix
p2066
(dp2067
g23
(lp2068
sg25
Nsba(irule
FeatureMatrix
p2069
(dp2070
g23
(lp2071
(I00
g863
tp2072
a(I01
g532
tp2073
asg25
Nsbasg33
I00
sg25
Nsg35
I01
sg36
S'L'
sbsg37
(irule
FeatureMatrix
p2074
(dp2075
g23
(lp2076
(I00
g532
tp2077
asg25
Nsbsg43
(irule
Guard
p2078
(dp2079
g18
I00
sg19
(lp2080
sg33
I00
sg25
Nsg35
I00
sg36
S'R'
sbsg47
(irule
FeatureMatrix
p2081
(dp2082
g23
(lp2083
sg25
Nsbsg25
Nsba(irule
Rule
p2084
(dp2085
g15
(irule
Guard
p2086
(dp2087
g18
I00
sg19
(lp2088
(irule
FeatureMatrix
p2089
(dp2090
g23
(lp2091
sg25
Nsba(irule
FeatureMatrix
p2092
(dp2093
g23
(lp2094
(I00
g796
tp2095
a(I01
g532
tp2096
asg25
Nsbasg33
I00
sg25
Nsg35
I01
sg36
S'L'
sbsg37
(irule
FeatureMatrix
p2097
(dp2098
g23
(lp2099
(I00
g532
tp2100
asg25
Nsbsg43
(irule
Guard
p2101
(dp2102
g18
I00
sg19
(lp2103
sg33
I00
sg25
Nsg35
I00
sg36
S'R'
sbsg47
(irule
FeatureMatrix
p2104
(dp2105
g23
(lp2106
sg25
Nsbsg25
Nsba(irule
Rule
p2107
(dp2108
g15
(irule
Guard
p2109
(dp2110
g18
I00
sg19
(lp2111
(irule
FeatureMatrix
p2112
(dp2113
g23
(lp2114
(I00
g552
tp2115
asg25
Nsba(irule
FeatureMatrix
p2116
(dp2117
g23
(lp2118
(I00
g796
tp2119
a(I01
g532
tp2120
asg25
Nsbasg33
I00
sg25
Nsg35
I00
sg36
S'L'
sbsg37
(irule
FeatureMatrix
p2121
(dp2122
g23
(lp2123
(I00
g532
tp2124
asg25
Nsbsg43
(irule
Guard
p2125
(dp2126
g18
I00
sg19
(lp2127
sg33
I00
sg25
Nsg35
I00
sg36
S'R'
sbsg47
(irule
FeatureMatrix
p2128
(dp2129
g23
(lp2130
sg25
Nsbsg25
Nsba(irule
Rule
p2131
(dp2132
g15
(irule
Guard
p2133
(dp2134
g18
I00
sg19
(lp2135
(irule
FeatureMatrix
p2136
(dp2137
g23
(lp2138
(I00
g552
tp2139
asg25
Nsba(irule
FeatureMatrix
p2140
(dp2141
g23
(lp2142
(I01
g532
tp2143
asg25
Nsbasg33
I00
sg25
Nsg35
I00
sg36
S'L'
sbsg37
(irule
FeatureMatrix
p2144
(dp2145
g23
(lp2146
(I00
g796
tp2147
a(I00
g532
tp2148
asg25
Nsbsg43
(irule
Guard
p2149
(dp2150
g18
I00
sg19
(lp2151
sg33
I00
sg25
Nsg35
I00
sg36
S'R'
sbsg47
(irule
FeatureMatrix
p2152
(dp2153
g23
(lp2154
sg25
Nsbsg25
Nsba(irule
Rule
p2155
(dp2156
g15
(irule
Guard
p2157
(dp2158
g18
I00
sg19
(lp2159
(irule
FeatureMatrix
p2160
(dp2161
g23
(lp2162
(I00
g1004
tp2163
asg25
Nsba(irule
FeatureMatrix
p2164
(dp2165
g23
(lp2166
(I01
g532
tp2167
asg25
Nsbasg33
I00
sg25
Nsg35
I01
sg36
S'L'
sbsg37
(irule
FeatureMatrix
p2168
(dp2169
g23
(lp2170
(I00
g532
tp2171
asg25
Nsbsg43
(irule
Guard
p2172
(dp2173
g18
I00
sg19
(lp2174
sg33
I00
sg25
Nsg35
I00
sg36
S'R'
sbsg47
(irule
FeatureMatrix
p2175
(dp2176
g23
(lp2177
sg25
Nsbsg25
Nsba(irule
Rule
p2178
(dp2179
g15
(irule
Guard
p2180
(dp2181
g18
I00
sg19
(lp2182
(irule
FeatureMatrix
p2183
(dp2184
g23
(lp2185
sg25
Nsba(irule
FeatureMatrix
p2186
(dp2187
g23
(lp2188
(I00
g887
tp2189
a(I01
g532
tp2190
asg25
Nsbasg33
I00
sg25
Nsg35
I01
sg36
S'L'
sbsg37
(irule
FeatureMatrix
p2191
(dp2192
g23
(lp2193
(I00
g532
tp2194
asg25
Nsbsg43
(irule
Guard
p2195
(dp2196
g18
I00
sg19
(lp2197
sg33
I00
sg25
Nsg35
I00
sg36
S'R'
sbsg47
(irule
FeatureMatrix
p2198
(dp2199
g23
(lp2200
sg25
Nsbsg25
Nsba(irule
Rule
p2201
(dp2202
g15
(irule
Guard
p2203
(dp2204
g18
I00
sg19
(lp2205
(irule
FeatureMatrix
p2206
(dp2207
g23
(lp2208
sg25
Nsba(irule
FeatureMatrix
p2209
(dp2210
g23
(lp2211
(I00
g935
tp2212
a(I01
g532
tp2213
asg25
Nsbasg33
I00
sg25
Nsg35
I01
sg36
S'L'
sbsg37
(irule
FeatureMatrix
p2214
(dp2215
g23
(lp2216
(I00
g532
tp2217
asg25
Nsbsg43
(irule
Guard
p2218
(dp2219
g18
I00
sg19
(lp2220
sg33
I00
sg25
Nsg35
I00
sg36
S'R'
sbsg47
(irule
FeatureMatrix
p2221
(dp2222
g23
(lp2223
sg25
Nsbsg25
Nsba(irule
Rule
p2224
(dp2225
g15
(irule
Guard
p2226
(dp2227
g18
I00
sg19
(lp2228
(irule
FeatureMatrix
p2229
(dp2230
g23
(lp2231
sg25
Nsba(irule
FeatureMatrix
p2232
(dp2233
g23
(lp2234
(I01
g532
tp2235
asg25
Nsbasg33
I00
sg25
Nsg35
I00
sg36
S'L'
sbsg37
(irule
FeatureMatrix
p2236
(dp2237
g23
(lp2238
(I00
g1004
tp2239
a(I00
g532
tp2240
asg25
Nsbsg43
(irule
Guard
p2241
(dp2242
g18
I00
sg19
(lp2243
sg33
I00
sg25
Nsg35
I00
sg36
S'R'
sbsg47
(irule
FeatureMatrix
p2244
(dp2245
g23
(lp2246
(I01
g532
tp2247
asg25
Nsbsg25
Nsba(irule
Rule
p2248
(dp2249
g15
(irule
Guard
p2250
(dp2251
g18
I00
sg19
(lp2252
(irule
FeatureMatrix
p2253
(dp2254
g23
(lp2255
sg25
Nsba(irule
FeatureMatrix
p2256
(dp2257
g23
(lp2258
(I00
g1004
tp2259
a(I01
g532
tp2260
asg25
Nsbasg33
I00
sg25
Nsg35
I01
sg36
S'L'
sbsg37
(irule
FeatureMatrix
p2261
(dp2262
g23
(lp2263
(I00
g532
tp2264
asg25
Nsbsg43
(irule
Guard
p2265
(dp2266
g18
I00
sg19
(lp2267
sg33
I00
sg25
Nsg35
I00
sg36
S'R'
sbsg47
(irule
FeatureMatrix
p2268
(dp2269
g23
(lp2270
sg25
Nsbsg25
Nsba(irule
Rule
p2271
(dp2272
g15
(irule
Guard
p2273
(dp2274
g18
I00
sg19
(lp2275
(irule
FeatureMatrix
p2276
(dp2277
g23
(lp2278
(I00
g552
tp2279
asg25
Nsba(irule
FeatureMatrix
p2280
(dp2281
g23
(lp2282
(I01
g532
tp2283
a(I00
g652
tp2284
asg25
Nsbasg33
I00
sg25
Nsg35
I00
sg36
S'L'
sbsg37
(irule
FeatureMatrix
p2285
(dp2286
g23
(lp2287
(I00
g532
tp2288
asg25
Nsbsg43
(irule
Guard
p2289
(dp2290
g18
I00
sg19
(lp2291
sg33
I00
sg25
Nsg35
I00
sg36
S'R'
sbsg47
(irule
FeatureMatrix
p2292
(dp2293
g23
(lp2294
sg25
Nsbsg25
Nsba(irule
Rule
p2295
(dp2296
g15
(irule
Guard
p2297
(dp2298
g18
I00
sg19
(lp2299
(irule
FeatureMatrix
p2300
(dp2301
g23
(lp2302
(I00
g628
tp2303
asg25
Nsba(irule
FeatureMatrix
p2304
(dp2305
g23
(lp2306
(I01
g532
tp2307
asg25
Nsbasg33
I00
sg25
Nsg35
I01
sg36
S'L'
sbsg37
(irule
FeatureMatrix
p2308
(dp2309
g23
(lp2310
(I00
g532
tp2311
asg25
Nsbsg43
(irule
Guard
p2312
(dp2313
g18
I00
sg19
(lp2314
sg33
I00
sg25
Nsg35
I00
sg36
S'R'
sbsg47
(irule
FeatureMatrix
p2315
(dp2316
g23
(lp2317
sg25
Nsbsg25
Nsba(irule
Rule
p2318
(dp2319
g15
(irule
Guard
p2320
(dp2321
g18
I00
sg19
(lp2322
(irule
FeatureMatrix
p2323
(dp2324
g23
(lp2325
sg25
Nsba(irule
FeatureMatrix
p2326
(dp2327
g23
(lp2328
(I01
g532
tp2329
a(I01
g604
tp2330
asg25
Nsbasg33
I00
sg25
Nsg35
I01
sg36
S'L'
sbsg37
(irule
FeatureMatrix
p2331
(dp2332
g23
(lp2333
(I00
g532
tp2334
asg25
Nsbsg43
(irule
Guard
p2335
(dp2336
g18
I00
sg19
(lp2337
sg33
I00
sg25
Nsg35
I00
sg36
S'R'
sbsg47
(irule
FeatureMatrix
p2338
(dp2339
g23
(lp2340
sg25
Nsbsg25
Nsba(irule
Rule
p2341
(dp2342
g15
(irule
Guard
p2343
(dp2344
g18
I00
sg19
(lp2345
(irule
FeatureMatrix
p2346
(dp2347
g23
(lp2348
sg25
Nsba(irule
FeatureMatrix
p2349
(dp2350
g23
(lp2351
(I01
g983
tp2352
a(I01
g532
tp2353
asg25
Nsbasg33
I00
sg25
Nsg35
I01
sg36
S'L'
sbsg37
(irule
FeatureMatrix
p2354
(dp2355
g23
(lp2356
(I00
g532
tp2357
asg25
Nsbsg43
(irule
Guard
p2358
(dp2359
g18
I00
sg19
(lp2360
sg33
I00
sg25
Nsg35
I00
sg36
S'R'
sbsg47
(irule
FeatureMatrix
p2361
(dp2362
g23
(lp2363
sg25
Nsbsg25
Nsba(irule
Rule
p2364
(dp2365
g15
(irule
Guard
p2366
(dp2367
g18
I00
sg19
(lp2368
(irule
FeatureMatrix
p2369
(dp2370
g23
(lp2371
sg25
Nsba(irule
FeatureMatrix
p2372
(dp2373
g23
(lp2374
(I01
g532
tp2375
a(I00
g584
tp2376
asg25
Nsbasg33
I00
sg25
Nsg35
I01
sg36
S'L'
sbsg37
(irule
FeatureMatrix
p2377
(dp2378
g23
(lp2379
(I00
g532
tp2380
asg25
Nsbsg43
(irule
Guard
p2381
(dp2382
g18
I00
sg19
(lp2383
sg33
I00
sg25
Nsg35
I00
sg36
S'R'
sbsg47
(irule
FeatureMatrix
p2384
(dp2385
g23
(lp2386
sg25
Nsbsg25
Nsba(irule
Rule
p2387
(dp2388
g15
(irule
Guard
p2389
(dp2390
g18
I00
sg19
(lp2391
(irule
FeatureMatrix
p2392
(dp2393
g23
(lp2394
(I00
g652
tp2395
asg25
Nsba(irule
FeatureMatrix
p2396
(dp2397
g23
(lp2398
(I01
g532
tp2399
asg25
Nsbasg33
I00
sg25
Nsg35
I01
sg36
S'L'
sbsg37
(irule
FeatureMatrix
p2400
(dp2401
g23
(lp2402
(I00
g532
tp2403
asg25
Nsbsg43
(irule
Guard
p2404
(dp2405
g18
I00
sg19
(lp2406
sg33
I00
sg25
Nsg35
I00
sg36
S'R'
sbsg47
(irule
FeatureMatrix
p2407
(dp2408
g23
(lp2409
sg25
Nsbsg25
Nsba(irule
Rule
p2410
(dp2411
g15
(irule
Guard
p2412
(dp2413
g18
I00
sg19
(lp2414
(irule
FeatureMatrix
p2415
(dp2416
g23
(lp2417
(I00
g552
tp2418
asg25
Nsba(irule
FeatureMatrix
p2419
(dp2420
g23
(lp2421
(I01
g532
tp2422
asg25
Nsbasg33
I00
sg25
Nsg35
I00
sg36
S'L'
sbsg37
(irule
FeatureMatrix
p2423
(dp2424
g23
(lp2425
(I00
g532
tp2426
asg25
Nsbsg43
(irule
Guard
p2427
(dp2428
g18
I00
sg19
(lp2429
sg33
I00
sg25
Nsg35
I00
sg36
S'R'
sbsg47
(irule
FeatureMatrix
p2430
(dp2431
g23
(lp2432
(I01
g532
tp2433
asg25
Nsbsg25
Nsba(irule
Rule
p2434
(dp2435
g15
(irule
Guard
p2436
(dp2437
g18
I00
sg19
(lp2438
(irule
FeatureMatrix
p2439
(dp2440
g23
(lp2441
(I00
g964
tp2442
asg25
Nsba(irule
FeatureMatrix
p2443
(dp2444
g23
(lp2445
(I01
g532
tp2446
asg25
Nsbasg33
I00
sg25
Nsg35
I01
sg36
S'L'
sbsg37
(irule
FeatureMatrix
p2447
(dp2448
g23
(lp2449
(I00
g532
tp2450
asg25
Nsbsg43
(irule
Guard
p2451
(dp2452
g18
I00
sg19
(lp2453
sg33
I00
sg25
Nsg35
I00
sg36
S'R'
sbsg47
(irule
FeatureMatrix
p2454
(dp2455
g23
(lp2456
sg25
Nsbsg25
Nsba(irule
Rule
p2457
(dp2458
g15
(irule
Guard
p2459
(dp2460
g18
I00
sg19
(lp2461
(irule
FeatureMatrix
p2462
(dp2463
g23
(lp2464
(I00
g552
tp2465
asg25
Nsba(irule
FeatureMatrix
p2466
(dp2467
g23
(lp2468
(I01
g532
tp2469
a(I01
g604
tp2470
asg25
Nsbasg33
I00
sg25
Nsg35
I00
sg36
S'L'
sbsg37
(irule
FeatureMatrix
p2471
(dp2472
g23
(lp2473
(I00
g532
tp2474
asg25
Nsbsg43
(irule
Guard
p2475
(dp2476
g18
I00
sg19
(lp2477
sg33
I00
sg25
Nsg35
I00
sg36
S'R'
sbsg47
(irule
FeatureMatrix
p2478
(dp2479
g23
(lp2480
sg25
Nsbsg25
Nsba(irule
Rule
p2481
(dp2482
g15
(irule
Guard
p2483
(dp2484
g18
I00
sg19
(lp2485
(irule
FeatureMatrix
p2486
(dp2487
g23
(lp2488
sg25
Nsba(irule
FeatureMatrix
p2489
(dp2490
g23
(lp2491
(I01
g532
tp2492
a(I01
g727
tp2493
asg25
Nsbasg33
I00
sg25
Nsg35
I01
sg36
S'L'
sbsg37
(irule
FeatureMatrix
p2494
(dp2495
g23
(lp2496
(I00
g532
tp2497
asg25
Nsbsg43
(irule
Guard
p2498
(dp2499
g18
I00
sg19
(lp2500
sg33
I00
sg25
Nsg35
I00
sg36
S'R'
sbsg47
(irule
FeatureMatrix
p2501
(dp2502
g23
(lp2503
sg25
Nsbsg25
Nsba(irule
Rule
p2504
(dp2505
g15
(irule
Guard
p2506
(dp2507
g18
I00
sg19
(lp2508
(irule
FeatureMatrix
p2509
(dp2510
g23
(lp2511
sg25
Nsba(irule
FeatureMatrix
p2512
(dp2513
g23
(lp2514
(I01
g532
tp2515
a(I00
g703
tp2516
asg25
Nsbasg33
I00
sg25
Nsg35
I01
sg36
S'L'
sbsg37
(irule
FeatureMatrix
p2517
(dp2518
g23
(lp2519
(I00
g532
tp2520
asg25
Nsbsg43
(irule
Guard
p2521
(dp2522
g18
I00
sg19
(lp2523
sg33
I00
sg25
Nsg35
I00
sg36
S'R'
sbsg47
(irule
FeatureMatrix
p2524
(dp2525
g23
(lp2526
sg25
Nsbsg25
Nsba(irule
Rule
p2527
(dp2528
g15
(irule
Guard
p2529
(dp2530
g18
I00
sg19
(lp2531
(irule
FeatureMatrix
p2532
(dp2533
g23
(lp2534
sg25
Nsba(irule
FeatureMatrix
p2535
(dp2536
g23
(lp2537
(I01
g532
tp2538
a(I01
g628
tp2539
asg25
Nsbasg33
I00
sg25
Nsg35
I01
sg36
S'L'
sbsg37
(irule
FeatureMatrix
p2540
(dp2541
g23
(lp2542
(I00
g532
tp2543
asg25
Nsbsg43
(irule
Guard
p2544
(dp2545
g18
I00
sg19
(lp2546
sg33
I00
sg25
Nsg35
I00
sg36
S'R'
sbsg47
(irule
FeatureMatrix
p2547
(dp2548
g23
(lp2549
sg25
Nsbsg25
Nsba(irule
Rule
p2550
(dp2551
g15
(irule
Guard
p2552
(dp2553
g18
I00
sg19
(lp2554
(irule
FeatureMatrix
p2555
(dp2556
g23
(lp2557
sg25
Nsba(irule
FeatureMatrix
p2558
(dp2559
g23
(lp2560
(I00
g863
tp2561
a(I01
g532
tp2562
a(I00
g652
tp2563
asg25
Nsbasg33
I00
sg25
Nsg35
I00
sg36
S'L'
sbsg37
(irule
FeatureMatrix
p2564
(dp2565
g23
(lp2566
(I00
g532
tp2567
asg25
Nsbsg43
(irule
Guard
p2568
(dp2569
g18
I00
sg19
(lp2570
sg33
I00
sg25
Nsg35
I00
sg36
S'R'
sbsg47
(irule
FeatureMatrix
p2571
(dp2572
g23
(lp2573
sg25
Nsbsg25
Nsba(irule
Rule
p2574
(dp2575
g15
(irule
Guard
p2576
(dp2577
g18
I00
sg19
(lp2578
(irule
FeatureMatrix
p2579
(dp2580
g23
(lp2581
sg25
Nsba(irule
FeatureMatrix
p2582
(dp2583
g23
(lp2584
(I01
g532
tp2585
asg25
Nsbasg33
I00
sg25
Nsg35
I00
sg36
S'L'
sbsg37
(irule
FeatureMatrix
p2586
(dp2587
g23
(lp2588
(I00
g1004
tp2589
a(I00
g532
tp2590
a(I00
g584
tp2591
asg25
Nsbsg43
(irule
Guard
p2592
(dp2593
g18
I00
sg19
(lp2594
sg33
I00
sg25
Nsg35
I00
sg36
S'R'
sbsg47
(irule
FeatureMatrix
p2595
(dp2596
g23
(lp2597
sg25
Nsbsg25
Nsba(irule
Rule
p2598
(dp2599
g15
(irule
Guard
p2600
(dp2601
g18
I00
sg19
(lp2602
(irule
FeatureMatrix
p2603
(dp2604
g23
(lp2605
sg25
Nsba(irule
FeatureMatrix
p2606
(dp2607
g23
(lp2608
(I01
g532
tp2609
a(I00
g964
tp2610
asg25
Nsbasg33
I00
sg25
Nsg35
I01
sg36
S'L'
sbsg37
(irule
FeatureMatrix
p2611
(dp2612
g23
(lp2613
(I00
g532
tp2614
asg25
Nsbsg43
(irule
Guard
p2615
(dp2616
g18
I00
sg19
(lp2617
sg33
I00
sg25
Nsg35
I00
sg36
S'R'
sbsg47
(irule
FeatureMatrix
p2618
(dp2619
g23
(lp2620
sg25
Nsbsg25
Nsba(irule
Rule
p2621
(dp2622
g15
(irule
Guard
p2623
(dp2624
g18
I00
sg19
(lp2625
(irule
FeatureMatrix
p2626
(dp2627
g23
(lp2628
(I00
g727
tp2629
asg25
Nsba(irule
FeatureMatrix
p2630
(dp2631
g23
(lp2632
(I01
g532
tp2633
asg25
Nsbasg33
I00
sg25
Nsg35
I01
sg36
S'L'
sbsg37
(irule
FeatureMatrix
p2634
(dp2635
g23
(lp2636
(I00
g532
tp2637
asg25
Nsbsg43
(irule
Guard
p2638
(dp2639
g18
I00
sg19
(lp2640
sg33
I00
sg25
Nsg35
I00
sg36
S'R'
sbsg47
(irule
FeatureMatrix
p2641
(dp2642
g23
(lp2643
sg25
Nsbsg25
Nsba(irule
Rule
p2644
(dp2645
g15
(irule
Guard
p2646
(dp2647
g18
I00
sg19
(lp2648
(irule
FeatureMatrix
p2649
(dp2650
g23
(lp2651
sg25
Nsba(irule
FeatureMatrix
p2652
(dp2653
g23
(lp2654
(I01
g532
tp2655
a(I01
g840
tp2656
asg25
Nsbasg33
I00
sg25
Nsg35
I01
sg36
S'L'
sbsg37
(irule
FeatureMatrix
p2657
(dp2658
g23
(lp2659
(I00
g532
tp2660
asg25
Nsbsg43
(irule
Guard
p2661
(dp2662
g18
I00
sg19
(lp2663
sg33
I00
sg25
Nsg35
I00
sg36
S'R'
sbsg47
(irule
FeatureMatrix
p2664
(dp2665
g23
(lp2666
sg25
Nsbsg25
Nsba(irule
Rule
p2667
(dp2668
g15
(irule
Guard
p2669
(dp2670
g18
I00
sg19
(lp2671
(irule
FeatureMatrix
p2672
(dp2673
g23
(lp2674
sg25
Nsba(irule
FeatureMatrix
p2675
(dp2676
g23
(lp2677
(I01
g532
tp2678
asg25
Nsbasg33
I00
sg25
Nsg35
I00
sg36
S'L'
sbsg37
(irule
FeatureMatrix
p2679
(dp2680
g23
(lp2681
(I00
g532
tp2682
a(I00
g584
tp2683
a(I01
g604
tp2684
asg25
Nsbsg43
(irule
Guard
p2685
(dp2686
g18
I00
sg19
(lp2687
sg33
I00
sg25
Nsg35
I00
sg36
S'R'
sbsg47
(irule
FeatureMatrix
p2688
(dp2689
g23
(lp2690
sg25
Nsbsg25
Nsba(irule
Rule
p2691
(dp2692
g15
(irule
Guard
p2693
(dp2694
g18
I00
sg19
(lp2695
(irule
FeatureMatrix
p2696
(dp2697
g23
(lp2698
(I00
g796
tp2699
asg25
Nsba(irule
FeatureMatrix
p2700
(dp2701
g23
(lp2702
(I01
g532
tp2703
asg25
Nsbasg33
I00
sg25
Nsg35
I01
sg36
S'L'
sbsg37
(irule
FeatureMatrix
p2704
(dp2705
g23
(lp2706
(I00
g532
tp2707
asg25
Nsbsg43
(irule
Guard
p2708
(dp2709
g18
I00
sg19
(lp2710
sg33
I00
sg25
Nsg35
I00
sg36
S'R'
sbsg47
(irule
FeatureMatrix
p2711
(dp2712
g23
(lp2713
sg25
Nsbsg25
Nsba(irule
Rule
p2714
(dp2715
g15
(irule
Guard
p2716
(dp2717
g18
I00
sg19
(lp2718
(irule
FeatureMatrix
p2719
(dp2720
g23
(lp2721
sg25
Nsba(irule
FeatureMatrix
p2722
(dp2723
g23
(lp2724
(I01
g532
tp2725
a(I00
g652
tp2726
asg25
Nsbasg33
I00
sg25
Nsg35
I00
sg36
S'L'
sbsg37
(irule
FeatureMatrix
p2727
(dp2728
g23
(lp2729
(I00
g532
tp2730
asg25
Nsbsg43
(irule
Guard
p2731
(dp2732
g18
I00
sg19
(lp2733
sg33
I00
sg25
Nsg35
I00
sg36
S'R'
sbsg47
(irule
FeatureMatrix
p2734
(dp2735
g23
(lp2736
(I01
g983
tp2737
asg25
Nsbsg25
Nsba(irule
Rule
p2738
(dp2739
g15
(irule
Guard
p2740
(dp2741
g18
I00
sg19
(lp2742
(irule
FeatureMatrix
p2743
(dp2744
g23
(lp2745
sg25
Nsba(irule
FeatureMatrix
p2746
(dp2747
g23
(lp2748
(I01
g532
tp2749
asg25
Nsbasg33
I00
sg25
Nsg35
I01
sg36
S'L'
sbsg37
(irule
FeatureMatrix
p2750
(dp2751
g23
(lp2752
(I00
g532
tp2753
asg25
Nsbsg43
(irule
Guard
p2754
(dp2755
g18
I00
sg19
(lp2756
sg33
I00
sg25
Nsg35
I00
sg36
S'R'
sbsg47
(irule
FeatureMatrix
p2757
(dp2758
g23
(lp2759
(I01
g727
tp2760
asg25
Nsbsg25
Nsba(irule
Rule
p2761
(dp2762
g15
(irule
Guard
p2763
(dp2764
g18
I00
sg19
(lp2765
(irule
FeatureMatrix
p2766
(dp2767
g23
(lp2768
sg25
Nsba(irule
FeatureMatrix
p2769
(dp2770
g23
(lp2771
(I01
g532
tp2772
asg25
Nsbasg33
I00
sg25
Nsg35
I01
sg36
S'L'
sbsg37
(irule
FeatureMatrix
p2773
(dp2774
g23
(lp2775
(I00
g532
tp2776
asg25
Nsbsg43
(irule
Guard
p2777
(dp2778
g18
I00
sg19
(lp2779
sg33
I00
sg25
Nsg35
I00
sg36
S'R'
sbsg47
(irule
FeatureMatrix
p2780
(dp2781
g23
(lp2782
(I01
g604
tp2783
asg25
Nsbsg25
Nsba(irule
Rule
p2784
(dp2785
g15
(irule
Guard
p2786
(dp2787
g18
I00
sg19
(lp2788
(irule
FeatureMatrix
p2789
(dp2790
g23
(lp2791
(I00
g652
tp2792
asg25
Nsba(irule
FeatureMatrix
p2793
(dp2794
g23
(lp2795
(I01
g532
tp2796
a(I00
g652
tp2797
asg25
Nsbasg33
I00
sg25
Nsg35
I00
sg36
S'L'
sbsg37
(irule
FeatureMatrix
p2798
(dp2799
g23
(lp2800
(I00
g532
tp2801
asg25
Nsbsg43
(irule
Guard
p2802
(dp2803
g18
I00
sg19
(lp2804
sg33
I00
sg25
Nsg35
I00
sg36
S'R'
sbsg47
(irule
FeatureMatrix
p2805
(dp2806
g23
(lp2807
sg25
Nsbsg25
Nsba(irule
Rule
p2808
(dp2809
g15
(irule
Guard
p2810
(dp2811
g18
I00
sg19
(lp2812
(irule
FeatureMatrix
p2813
(dp2814
g23
(lp2815
(I00
g1442
tp2816
asg25
Nsba(irule
FeatureMatrix
p2817
(dp2818
g23
(lp2819
(I00
g863
tp2820
a(I01
g532
tp2821
asg25
Nsbasg33
I00
sg25
Nsg35
I00
sg36
S'L'
sbsg37
(irule
FeatureMatrix
p2822
(dp2823
g23
(lp2824
(I00
g532
tp2825
asg25
Nsbsg43
(irule
Guard
p2826
(dp2827
g18
I00
sg19
(lp2828
sg33
I00
sg25
Nsg35
I00
sg36
S'R'
sbsg47
(irule
FeatureMatrix
p2829
(dp2830
g23
(lp2831
sg25
Nsbsg25
Nsbaa(lp2832
(irule
Rule
p2833
(dp2834
g15
(irule
Guard
p2835
(dp2836
g18
I00
sg19
(lp2837
(irule
FeatureMatrix
p2838
(dp2839
g23
(lp2840
sg25
V[  ]
p2841
sba(irule
FeatureMatrix
p2842
(dp2843
g23
(lp2844
(I01
S'highTone'
p2845
tp2846
asg25
V[ +highTone ]
p2847
sbasg33
I00
sg25
V[ +highTone ] [  ]
p2848
sg35
I00
sg36
S'L'
sbsg37
(irule
FeatureMatrix
p2849
(dp2850
g23
(lp2851
(I01
g2845
tp2852
asg25
V[ +highTone ]
p2853
sbsg43
(irule
Guard
p2854
(dp2855
g18
I00
sg19
(lp2856
(irule
FeatureMatrix
p2857
(dp2858
g23
(lp2859
sg25
V[  ]
p2860
sbasg33
I00
sg25
g2860
sg35
I00
sg36
S'R'
sbsg47
(irule
FeatureMatrix
p2861
(dp2862
g23
(lp2863
sg25
V[  ]
p2864
sbsg25
V[  ] ---> [ +highTone ] / [ +highTone ] [  ] _ [  ]
p2865
sba(irule
Rule
p2866
(dp2867
g15
(irule
Guard
p2868
(dp2869
g18
I00
sg19
(lp2870
(irule
FeatureMatrix
p2871
(dp2872
g23
(lp2873
sg25
Nsba(irule
FeatureMatrix
p2874
(dp2875
g23
(lp2876
(I01
S'highTone'
p2877
tp2878
asg25
Nsbasg33
I00
sg25
Nsg35
I00
sg36
S'L'
sbsg37
(irule
FeatureMatrix
p2879
(dp2880
g23
(lp2881
(I01
g2877
tp2882
asg25
Nsbsg43
(irule
Guard
p2883
(dp2884
g18
I00
sg19
(lp2885
(irule
FeatureMatrix
p2886
(dp2887
g23
(lp2888
sg25
Nsbasg33
I00
sg25
Nsg35
I00
sg36
S'R'
sbsg47
(irule
FeatureMatrix
p2889
(dp2890
g23
(lp2891
(I00
S'palletized'
p2892
tp2893
asg25
Nsbsg25
Nsba(irule
Rule
p2894
(dp2895
g15
(irule
Guard
p2896
(dp2897
g18
I00
sg19
(lp2898
(irule
FeatureMatrix
p2899
(dp2900
g23
(lp2901
sg25
Nsba(irule
FeatureMatrix
p2902
(dp2903
g23
(lp2904
(I01
g2877
tp2905
asg25
Nsbasg33
I00
sg25
Nsg35
I00
sg36
S'L'
sbsg37
(irule
FeatureMatrix
p2906
(dp2907
g23
(lp2908
(I01
g2877
tp2909
asg25
Nsbsg43
(irule
Guard
p2910
(dp2911
g18
I00
sg19
(lp2912
(irule
FeatureMatrix
p2913
(dp2914
g23
(lp2915
sg25
Nsba(irule
FeatureMatrix
p2916
(dp2917
g23
(lp2918
sg25
Nsbasg33
I00
sg25
Nsg35
I00
sg36
S'R'
sbsg47
(irule
FeatureMatrix
p2919
(dp2920
g23
(lp2921
sg25
Nsbsg25
Nsba(irule
Rule
p2922
(dp2923
g15
(irule
Guard
p2924
(dp2925
g18
I00
sg19
(lp2926
(irule
FeatureMatrix
p2927
(dp2928
g23
(lp2929
sg25
Nsba(irule
FeatureMatrix
p2930
(dp2931
g23
(lp2932
(I01
g2877
tp2933
asg25
Nsbasg33
I00
sg25
Nsg35
I00
sg36
S'L'
sbsg37
(irule
FeatureMatrix
p2934
(dp2935
g23
(lp2936
(I01
g2877
tp2937
asg25
Nsbsg43
(irule
Guard
p2938
(dp2939
g18
I00
sg19
(lp2940
(irule
FeatureMatrix
p2941
(dp2942
g23
(lp2943
sg25
Nsbasg33
I00
sg25
Nsg35
I00
sg36
S'R'
sbsg47
(irule
FeatureMatrix
p2944
(dp2945
g23
(lp2946
(I01
S'tense'
p2947
tp2948
asg25
Nsbsg25
Nsba(irule
Rule
p2949
(dp2950
g15
(irule
Guard
p2951
(dp2952
g18
I00
sg19
(lp2953
(irule
FeatureMatrix
p2954
(dp2955
g23
(lp2956
sg25
Nsba(irule
FeatureMatrix
p2957
(dp2958
g23
(lp2959
(I01
g2877
tp2960
asg25
Nsbasg33
I00
sg25
Nsg35
I00
sg36
S'L'
sbsg37
(irule
FeatureMatrix
p2961
(dp2962
g23
(lp2963
(I01
g2877
tp2964
asg25
Nsbsg43
(irule
Guard
p2965
(dp2966
g18
I00
sg19
(lp2967
(irule
FeatureMatrix
p2968
(dp2969
g23
(lp2970
(I00
S'vowel'
p2971
tp2972
asg25
Nsbasg33
I00
sg25
Nsg35
I00
sg36
S'R'
sbsg47
(irule
FeatureMatrix
p2973
(dp2974
g23
(lp2975
sg25
Nsbsg25
Nsba(irule
Rule
p2976
(dp2977
g15
(irule
Guard
p2978
(dp2979
g18
I00
sg19
(lp2980
(irule
FeatureMatrix
p2981
(dp2982
g23
(lp2983
(I00
g2877
tp2984
asg25
Nsba(irule
FeatureMatrix
p2985
(dp2986
g23
(lp2987
(I01
g2877
tp2988
asg25
Nsbasg33
I00
sg25
Nsg35
I00
sg36
S'L'
sbsg37
(irule
FeatureMatrix
p2989
(dp2990
g23
(lp2991
(I01
g2877
tp2992
asg25
Nsbsg43
(irule
Guard
p2993
(dp2994
g18
I00
sg19
(lp2995
(irule
FeatureMatrix
p2996
(dp2997
g23
(lp2998
sg25
Nsbasg33
I00
sg25
Nsg35
I00
sg36
S'R'
sbsg47
(irule
FeatureMatrix
p2999
(dp3000
g23
(lp3001
sg25
Nsbsg25
Nsba(irule
Rule
p3002
(dp3003
g15
(irule
Guard
p3004
(dp3005
g18
I00
sg19
(lp3006
(irule
FeatureMatrix
p3007
(dp3008
g23
(lp3009
(I00
S'glide'
p3010
tp3011
asg25
Nsba(irule
FeatureMatrix
p3012
(dp3013
g23
(lp3014
(I01
g2877
tp3015
asg25
Nsbasg33
I00
sg25
Nsg35
I00
sg36
S'L'
sbsg37
(irule
FeatureMatrix
p3016
(dp3017
g23
(lp3018
(I01
g2877
tp3019
asg25
Nsbsg43
(irule
Guard
p3020
(dp3021
g18
I00
sg19
(lp3022
(irule
FeatureMatrix
p3023
(dp3024
g23
(lp3025
sg25
Nsbasg33
I00
sg25
Nsg35
I00
sg36
S'R'
sbsg47
(irule
FeatureMatrix
p3026
(dp3027
g23
(lp3028
sg25
Nsbsg25
Nsba(irule
Rule
p3029
(dp3030
g15
(irule
Guard
p3031
(dp3032
g18
I00
sg19
(lp3033
(irule
FeatureMatrix
p3034
(dp3035
g23
(lp3036
(I00
g2892
tp3037
asg25
Nsba(irule
FeatureMatrix
p3038
(dp3039
g23
(lp3040
(I01
g2877
tp3041
asg25
Nsbasg33
I00
sg25
Nsg35
I00
sg36
S'L'
sbsg37
(irule
FeatureMatrix
p3042
(dp3043
g23
(lp3044
(I01
g2877
tp3045
asg25
Nsbsg43
(irule
Guard
p3046
(dp3047
g18
I00
sg19
(lp3048
(irule
FeatureMatrix
p3049
(dp3050
g23
(lp3051
sg25
Nsbasg33
I00
sg25
Nsg35
I00
sg36
S'R'
sbsg47
(irule
FeatureMatrix
p3052
(dp3053
g23
(lp3054
sg25
Nsbsg25
Nsba(irule
Rule
p3055
(dp3056
g15
(irule
Guard
p3057
(dp3058
g18
I00
sg19
(lp3059
(irule
FeatureMatrix
p3060
(dp3061
g23
(lp3062
sg25
Nsba(irule
FeatureMatrix
p3063
(dp3064
g23
(lp3065
(I01
g2877
tp3066
asg25
Nsbasg33
I00
sg25
Nsg35
I00
sg36
S'L'
sbsg37
(irule
FeatureMatrix
p3067
(dp3068
g23
(lp3069
(I01
g2877
tp3070
asg25
Nsbsg43
(irule
Guard
p3071
(dp3072
g18
I00
sg19
(lp3073
(irule
FeatureMatrix
p3074
(dp3075
g23
(lp3076
(I00
g2947
tp3077
asg25
Nsbasg33
I00
sg25
Nsg35
I00
sg36
S'R'
sbsg47
(irule
FeatureMatrix
p3078
(dp3079
g23
(lp3080
sg25
Nsbsg25
Nsba(irule
Rule
p3081
(dp3082
g15
(irule
Guard
p3083
(dp3084
g18
I00
sg19
(lp3085
(irule
FeatureMatrix
p3086
(dp3087
g23
(lp3088
sg25
Nsba(irule
FeatureMatrix
p3089
(dp3090
g23
(lp3091
(I01
g2877
tp3092
a(I01
g2971
tp3093
asg25
Nsbasg33
I00
sg25
Nsg35
I00
sg36
S'L'
sbsg37
(irule
FeatureMatrix
p3094
(dp3095
g23
(lp3096
(I01
g2877
tp3097
asg25
Nsbsg43
(irule
Guard
p3098
(dp3099
g18
I00
sg19
(lp3100
(irule
FeatureMatrix
p3101
(dp3102
g23
(lp3103
sg25
Nsbasg33
I00
sg25
Nsg35
I00
sg36
S'R'
sbsg47
(irule
FeatureMatrix
p3104
(dp3105
g23
(lp3106
sg25
Nsbsg25
Nsba(irule
Rule
p3107
(dp3108
g15
(irule
Guard
p3109
(dp3110
g18
I00
sg19
(lp3111
(irule
FeatureMatrix
p3112
(dp3113
g23
(lp3114
sg25
Nsba(irule
FeatureMatrix
p3115
(dp3116
g23
(lp3117
(I01
g2877
tp3118
a(I01
S'voice'
p3119
tp3120
asg25
Nsbasg33
I00
sg25
Nsg35
I00
sg36
S'L'
sbsg37
(irule
FeatureMatrix
p3121
(dp3122
g23
(lp3123
(I01
g2877
tp3124
asg25
Nsbsg43
(irule
Guard
p3125
(dp3126
g18
I00
sg19
(lp3127
(irule
FeatureMatrix
p3128
(dp3129
g23
(lp3130
sg25
Nsbasg33
I00
sg25
Nsg35
I00
sg36
S'R'
sbsg47
(irule
FeatureMatrix
p3131
(dp3132
g23
(lp3133
sg25
Nsbsg25
Nsba(irule
Rule
p3134
(dp3135
g15
(irule
Guard
p3136
(dp3137
g18
I00
sg19
(lp3138
(irule
FeatureMatrix
p3139
(dp3140
g23
(lp3141
sg25
Nsba(irule
FeatureMatrix
p3142
(dp3143
g23
(lp3144
(I01
g2877
tp3145
a(I00
g2892
tp3146
asg25
Nsbasg33
I00
sg25
Nsg35
I00
sg36
S'L'
sbsg37
(irule
FeatureMatrix
p3147
(dp3148
g23
(lp3149
(I01
g2877
tp3150
asg25
Nsbsg43
(irule
Guard
p3151
(dp3152
g18
I00
sg19
(lp3153
(irule
FeatureMatrix
p3154
(dp3155
g23
(lp3156
sg25
Nsbasg33
I00
sg25
Nsg35
I00
sg36
S'R'
sbsg47
(irule
FeatureMatrix
p3157
(dp3158
g23
(lp3159
sg25
Nsbsg25
Nsba(irule
Rule
p3160
(dp3161
g15
(irule
Guard
p3162
(dp3163
g18
I00
sg19
(lp3164
(irule
FeatureMatrix
p3165
(dp3166
g23
(lp3167
sg25
Nsba(irule
FeatureMatrix
p3168
(dp3169
g23
(lp3170
(I01
g2877
tp3171
asg25
Nsbasg33
I00
sg25
Nsg35
I00
sg36
S'L'
sbsg37
(irule
FeatureMatrix
p3172
(dp3173
g23
(lp3174
(I00
g3010
tp3175
a(I01
g2877
tp3176
asg25
Nsbsg43
(irule
Guard
p3177
(dp3178
g18
I00
sg19
(lp3179
(irule
FeatureMatrix
p3180
(dp3181
g23
(lp3182
sg25
Nsbasg33
I00
sg25
Nsg35
I00
sg36
S'R'
sbsg47
(irule
FeatureMatrix
p3183
(dp3184
g23
(lp3185
sg25
Nsbsg25
Nsba(irule
Rule
p3186
(dp3187
g15
(irule
Guard
p3188
(dp3189
g18
I00
sg19
(lp3190
(irule
FeatureMatrix
p3191
(dp3192
g23
(lp3193
sg25
Nsba(irule
FeatureMatrix
p3194
(dp3195
g23
(lp3196
(I01
g2877
tp3197
asg25
Nsbasg33
I00
sg25
Nsg35
I00
sg36
S'L'
sbsg37
(irule
FeatureMatrix
p3198
(dp3199
g23
(lp3200
(I01
g2877
tp3201
asg25
Nsbsg43
(irule
Guard
p3202
(dp3203
g18
I00
sg19
(lp3204
(irule
FeatureMatrix
p3205
(dp3206
g23
(lp3207
(I00
S'low'
p3208
tp3209
asg25
Nsbasg33
I00
sg25
Nsg35
I00
sg36
S'R'
sbsg47
(irule
FeatureMatrix
p3210
(dp3211
g23
(lp3212
sg25
Nsbsg25
Nsba(irule
Rule
p3213
(dp3214
g15
(irule
Guard
p3215
(dp3216
g18
I00
sg19
(lp3217
(irule
FeatureMatrix
p3218
(dp3219
g23
(lp3220
sg25
Nsba(irule
FeatureMatrix
p3221
(dp3222
g23
(lp3223
(I01
g2877
tp3224
a(I00
S'sibilant'
p3225
tp3226
asg25
Nsbasg33
I00
sg25
Nsg35
I00
sg36
S'L'
sbsg37
(irule
FeatureMatrix
p3227
(dp3228
g23
(lp3229
(I01
g2877
tp3230
asg25
Nsbsg43
(irule
Guard
p3231
(dp3232
g18
I00
sg19
(lp3233
(irule
FeatureMatrix
p3234
(dp3235
g23
(lp3236
sg25
Nsbasg33
I00
sg25
Nsg35
I00
sg36
S'R'
sbsg47
(irule
FeatureMatrix
p3237
(dp3238
g23
(lp3239
sg25
Nsbsg25
Nsba(irule
Rule
p3240
(dp3241
g15
(irule
Guard
p3242
(dp3243
g18
I00
sg19
(lp3244
(irule
FeatureMatrix
p3245
(dp3246
g23
(lp3247
sg25
Nsba(irule
FeatureMatrix
p3248
(dp3249
g23
(lp3250
(I01
g2877
tp3251
asg25
Nsbasg33
I00
sg25
Nsg35
I00
sg36
S'L'
sbsg37
(irule
FeatureMatrix
p3252
(dp3253
g23
(lp3254
(I01
g2877
tp3255
asg25
Nsbsg43
(irule
Guard
p3256
(dp3257
g18
I00
sg19
(lp3258
(irule
FeatureMatrix
p3259
(dp3260
g23
(lp3261
(I00
S'rounded'
p3262
tp3263
asg25
Nsbasg33
I00
sg25
Nsg35
I00
sg36
S'R'
sbsg47
(irule
FeatureMatrix
p3264
(dp3265
g23
(lp3266
sg25
Nsbsg25
Nsba(irule
Rule
p3267
(dp3268
g15
(irule
Guard
p3269
(dp3270
g18
I00
sg19
(lp3271
(irule
FeatureMatrix
p3272
(dp3273
g23
(lp3274
(I00
g3262
tp3275
asg25
Nsba(irule
FeatureMatrix
p3276
(dp3277
g23
(lp3278
(I01
g2877
tp3279
asg25
Nsbasg33
I00
sg25
Nsg35
I00
sg36
S'L'
sbsg37
(irule
FeatureMatrix
p3280
(dp3281
g23
(lp3282
(I01
g2877
tp3283
asg25
Nsbsg43
(irule
Guard
p3284
(dp3285
g18
I00
sg19
(lp3286
(irule
FeatureMatrix
p3287
(dp3288
g23
(lp3289
sg25
Nsbasg33
I00
sg25
Nsg35
I00
sg36
S'R'
sbsg47
(irule
FeatureMatrix
p3290
(dp3291
g23
(lp3292
sg25
Nsbsg25
Nsba(irule
Rule
p3293
(dp3294
g15
(irule
Guard
p3295
(dp3296
g18
I00
sg19
(lp3297
(irule
FeatureMatrix
p3298
(dp3299
g23
(lp3300
sg25
Nsba(irule
FeatureMatrix
p3301
(dp3302
g23
(lp3303
(I01
g2877
tp3304
asg25
Nsbasg33
I00
sg25
Nsg35
I00
sg36
S'L'
sbsg37
(irule
FeatureMatrix
p3305
(dp3306
g23
(lp3307
(I01
g2877
tp3308
asg25
Nsbsg43
(irule
Guard
p3309
(dp3310
g18
I00
sg19
(lp3311
(irule
FeatureMatrix
p3312
(dp3313
g23
(lp3314
sg25
Nsbasg33
I00
sg25
Nsg35
I00
sg36
S'R'
sbsg47
(irule
FeatureMatrix
p3315
(dp3316
g23
(lp3317
(I00
S'lateral'
p3318
tp3319
asg25
Nsbsg25
Nsba(irule
Rule
p3320
(dp3321
g15
(irule
Guard
p3322
(dp3323
g18
I00
sg19
(lp3324
(irule
FeatureMatrix
p3325
(dp3326
g23
(lp3327
sg25
Nsba(irule
FeatureMatrix
p3328
(dp3329
g23
(lp3330
(I01
g2877
tp3331
asg25
Nsbasg33
I00
sg25
Nsg35
I00
sg36
S'L'
sbsg37
(irule
FeatureMatrix
p3332
(dp3333
g23
(lp3334
(I01
g2877
tp3335
asg25
Nsbsg43
(irule
Guard
p3336
(dp3337
g18
I00
sg19
(lp3338
(irule
FeatureMatrix
p3339
(dp3340
g23
(lp3341
(I00
g2877
tp3342
asg25
Nsbasg33
I00
sg25
Nsg35
I00
sg36
S'R'
sbsg47
(irule
FeatureMatrix
p3343
(dp3344
g23
(lp3345
sg25
Nsbsg25
Nsba(irule
Rule
p3346
(dp3347
g15
(irule
Guard
p3348
(dp3349
g18
I00
sg19
(lp3350
(irule
FeatureMatrix
p3351
(dp3352
g23
(lp3353
sg25
Nsba(irule
FeatureMatrix
p3354
(dp3355
g23
(lp3356
(I01
g2877
tp3357
a(I00
S'coronal'
p3358
tp3359
asg25
Nsbasg33
I00
sg25
Nsg35
I00
sg36
S'L'
sbsg37
(irule
FeatureMatrix
p3360
(dp3361
g23
(lp3362
(I01
g2877
tp3363
asg25
Nsbsg43
(irule
Guard
p3364
(dp3365
g18
I00
sg19
(lp3366
(irule
FeatureMatrix
p3367
(dp3368
g23
(lp3369
sg25
Nsbasg33
I00
sg25
Nsg35
I00
sg36
S'R'
sbsg47
(irule
FeatureMatrix
p3370
(dp3371
g23
(lp3372
sg25
Nsbsg25
Nsba(irule
Rule
p3373
(dp3374
g15
(irule
Guard
p3375
(dp3376
g18
I00
sg19
(lp3377
(irule
FeatureMatrix
p3378
(dp3379
g23
(lp3380
sg25
Nsba(irule
FeatureMatrix
p3381
(dp3382
g23
(lp3383
(I01
g2877
tp3384
asg25
Nsbasg33
I00
sg25
Nsg35
I00
sg36
S'L'
sbsg37
(irule
FeatureMatrix
p3385
(dp3386
g23
(lp3387
(I01
g2877
tp3388
a(I01
g2971
tp3389
asg25
Nsbsg43
(irule
Guard
p3390
(dp3391
g18
I00
sg19
(lp3392
(irule
FeatureMatrix
p3393
(dp3394
g23
(lp3395
sg25
Nsbasg33
I00
sg25
Nsg35
I00
sg36
S'R'
sbsg47
(irule
FeatureMatrix
p3396
(dp3397
g23
(lp3398
sg25
Nsbsg25
Nsba(irule
Rule
p3399
(dp3400
g15
(irule
Guard
p3401
(dp3402
g18
I00
sg19
(lp3403
(irule
FeatureMatrix
p3404
(dp3405
g23
(lp3406
sg25
Nsba(irule
FeatureMatrix
p3407
(dp3408
g23
(lp3409
(I01
g2877
tp3410
asg25
Nsbasg33
I00
sg25
Nsg35
I00
sg36
S'L'
sbsg37
(irule
FeatureMatrix
p3411
(dp3412
g23
(lp3413
(I01
g2877
tp3414
asg25
Nsbsg43
(irule
Guard
p3415
(dp3416
g18
I00
sg19
(lp3417
(irule
FeatureMatrix
p3418
(dp3419
g23
(lp3420
sg25
Nsbasg33
I00
sg25
Nsg35
I00
sg36
S'R'
sbsg47
(irule
FeatureMatrix
p3421
(dp3422
g23
(lp3423
(I01
S'continuant'
p3424
tp3425
asg25
Nsbsg25
Nsba(irule
Rule
p3426
(dp3427
g15
(irule
Guard
p3428
(dp3429
g18
I00
sg19
(lp3430
(irule
FeatureMatrix
p3431
(dp3432
g23
(lp3433
(I00
g2971
tp3434
asg25
Nsba(irule
FeatureMatrix
p3435
(dp3436
g23
(lp3437
(I01
g2877
tp3438
asg25
Nsbasg33
I00
sg25
Nsg35
I00
sg36
S'L'
sbsg37
(irule
FeatureMatrix
p3439
(dp3440
g23
(lp3441
(I01
g2877
tp3442
asg25
Nsbsg43
(irule
Guard
p3443
(dp3444
g18
I00
sg19
(lp3445
(irule
FeatureMatrix
p3446
(dp3447
g23
(lp3448
sg25
Nsbasg33
I00
sg25
Nsg35
I00
sg36
S'R'
sbsg47
(irule
FeatureMatrix
p3449
(dp3450
g23
(lp3451
sg25
Nsbsg25
Nsba(irule
Rule
p3452
(dp3453
g15
(irule
Guard
p3454
(dp3455
g18
I00
sg19
(lp3456
(irule
FeatureMatrix
p3457
(dp3458
g23
(lp3459
(I00
g2947
tp3460
asg25
Nsba(irule
FeatureMatrix
p3461
(dp3462
g23
(lp3463
(I01
g2877
tp3464
asg25
Nsbasg33
I00
sg25
Nsg35
I00
sg36
S'L'
sbsg37
(irule
FeatureMatrix
p3465
(dp3466
g23
(lp3467
(I01
g2877
tp3468
asg25
Nsbsg43
(irule
Guard
p3469
(dp3470
g18
I00
sg19
(lp3471
(irule
FeatureMatrix
p3472
(dp3473
g23
(lp3474
sg25
Nsbasg33
I00
sg25
Nsg35
I00
sg36
S'R'
sbsg47
(irule
FeatureMatrix
p3475
(dp3476
g23
(lp3477
sg25
Nsbsg25
Nsba(irule
Rule
p3478
(dp3479
g15
(irule
Guard
p3480
(dp3481
g18
I00
sg19
(lp3482
(irule
FeatureMatrix
p3483
(dp3484
g23
(lp3485
sg25
Nsba(irule
FeatureMatrix
p3486
(dp3487
g23
(lp3488
(I01
g2877
tp3489
asg25
Nsbasg33
I00
sg25
Nsg35
I00
sg36
S'L'
sbsg37
(irule
FeatureMatrix
p3490
(dp3491
g23
(lp3492
(I01
g2877
tp3493
asg25
Nsbsg43
(irule
Guard
p3494
(dp3495
g18
I00
sg19
(lp3496
(irule
FeatureMatrix
p3497
(dp3498
g23
(lp3499
sg25
Nsbasg33
I00
sg25
Nsg35
I00
sg36
S'R'
sbsg47
(irule
FeatureMatrix
p3500
(dp3501
g23
(lp3502
(I00
g3010
tp3503
asg25
Nsbsg25
Nsba(irule
Rule
p3504
(dp3505
g15
(irule
Guard
p3506
(dp3507
g18
I00
sg19
(lp3508
(irule
FeatureMatrix
p3509
(dp3510
g23
(lp3511
(I00
g3208
tp3512
asg25
Nsba(irule
FeatureMatrix
p3513
(dp3514
g23
(lp3515
(I01
g2877
tp3516
asg25
Nsbasg33
I00
sg25
Nsg35
I00
sg36
S'L'
sbsg37
(irule
FeatureMatrix
p3517
(dp3518
g23
(lp3519
(I01
g2877
tp3520
asg25
Nsbsg43
(irule
Guard
p3521
(dp3522
g18
I00
sg19
(lp3523
(irule
FeatureMatrix
p3524
(dp3525
g23
(lp3526
sg25
Nsbasg33
I00
sg25
Nsg35
I00
sg36
S'R'
sbsg47
(irule
FeatureMatrix
p3527
(dp3528
g23
(lp3529
sg25
Nsbsg25
Nsba(irule
Rule
p3530
(dp3531
g15
(irule
Guard
p3532
(dp3533
g18
I00
sg19
(lp3534
(irule
FeatureMatrix
p3535
(dp3536
g23
(lp3537
sg25
Nsba(irule
FeatureMatrix
p3538
(dp3539
g23
(lp3540
(I00
g3318
tp3541
a(I01
g2877
tp3542
asg25
Nsbasg33
I00
sg25
Nsg35
I00
sg36
S'L'
sbsg37
(irule
FeatureMatrix
p3543
(dp3544
g23
(lp3545
(I01
g2877
tp3546
asg25
Nsbsg43
(irule
Guard
p3547
(dp3548
g18
I00
sg19
(lp3549
(irule
FeatureMatrix
p3550
(dp3551
g23
(lp3552
sg25
Nsbasg33
I00
sg25
Nsg35
I00
sg36
S'R'
sbsg47
(irule
FeatureMatrix
p3553
(dp3554
g23
(lp3555
sg25
Nsbsg25
Nsba(irule
Rule
p3556
(dp3557
g15
(irule
Guard
p3558
(dp3559
g18
I00
sg19
(lp3560
(irule
FeatureMatrix
p3561
(dp3562
g23
(lp3563
sg25
Nsba(irule
FeatureMatrix
p3564
(dp3565
g23
(lp3566
(I01
g2877
tp3567
a(I01
g2947
tp3568
asg25
Nsbasg33
I00
sg25
Nsg35
I00
sg36
S'L'
sbsg37
(irule
FeatureMatrix
p3569
(dp3570
g23
(lp3571
(I01
g2877
tp3572
asg25
Nsbsg43
(irule
Guard
p3573
(dp3574
g18
I00
sg19
(lp3575
(irule
FeatureMatrix
p3576
(dp3577
g23
(lp3578
sg25
Nsbasg33
I00
sg25
Nsg35
I00
sg36
S'R'
sbsg47
(irule
FeatureMatrix
p3579
(dp3580
g23
(lp3581
sg25
Nsbsg25
Nsba(irule
Rule
p3582
(dp3583
g15
(irule
Guard
p3584
(dp3585
g18
I00
sg19
(lp3586
(irule
FeatureMatrix
p3587
(dp3588
g23
(lp3589
sg25
Nsba(irule
FeatureMatrix
p3590
(dp3591
g23
(lp3592
(I00
S'nasal'
p3593
tp3594
a(I01
g2877
tp3595
asg25
Nsbasg33
I00
sg25
Nsg35
I00
sg36
S'L'
sbsg37
(irule
FeatureMatrix
p3596
(dp3597
g23
(lp3598
(I01
g2877
tp3599
asg25
Nsbsg43
(irule
Guard
p3600
(dp3601
g18
I00
sg19
(lp3602
(irule
FeatureMatrix
p3603
(dp3604
g23
(lp3605
sg25
Nsbasg33
I00
sg25
Nsg35
I00
sg36
S'R'
sbsg47
(irule
FeatureMatrix
p3606
(dp3607
g23
(lp3608
sg25
Nsbsg25
Nsba(irule
Rule
p3609
(dp3610
g15
(irule
Guard
p3611
(dp3612
g18
I00
sg19
(lp3613
(irule
FeatureMatrix
p3614
(dp3615
g23
(lp3616
sg25
Nsba(irule
FeatureMatrix
p3617
(dp3618
g23
(lp3619
(I01
g2877
tp3620
asg25
Nsbasg33
I00
sg25
Nsg35
I00
sg36
S'L'
sbsg37
(irule
FeatureMatrix
p3621
(dp3622
g23
(lp3623
(I01
g2877
tp3624
a(I01
g3119
tp3625
asg25
Nsbsg43
(irule
Guard
p3626
(dp3627
g18
I00
sg19
(lp3628
(irule
FeatureMatrix
p3629
(dp3630
g23
(lp3631
sg25
Nsbasg33
I00
sg25
Nsg35
I00
sg36
S'R'
sbsg47
(irule
FeatureMatrix
p3632
(dp3633
g23
(lp3634
sg25
Nsbsg25
Nsba(irule
Rule
p3635
(dp3636
g15
(irule
Guard
p3637
(dp3638
g18
I00
sg19
(lp3639
(irule
FeatureMatrix
p3640
(dp3641
g23
(lp3642
sg25
Nsba(irule
FeatureMatrix
p3643
(dp3644
g23
(lp3645
(I01
g2877
tp3646
asg25
Nsbasg33
I00
sg25
Nsg35
I00
sg36
S'L'
sbsg37
(irule
FeatureMatrix
p3647
(dp3648
g23
(lp3649
(I01
g2877
tp3650
asg25
Nsbsg43
(irule
Guard
p3651
(dp3652
g18
I00
sg19
(lp3653
(irule
FeatureMatrix
p3654
(dp3655
g23
(lp3656
sg25
Nsbasg33
I00
sg25
Nsg35
I00
sg36
S'R'
sbsg47
(irule
FeatureMatrix
p3657
(dp3658
g23
(lp3659
(I01
g3119
tp3660
asg25
Nsbsg25
Nsba(irule
Rule
p3661
(dp3662
g15
(irule
Guard
p3663
(dp3664
g18
I00
sg19
(lp3665
(irule
FeatureMatrix
p3666
(dp3667
g23
(lp3668
sg25
Nsba(irule
FeatureMatrix
p3669
(dp3670
g23
(lp3671
(I00
S'liquid'
p3672
tp3673
a(I01
g2877
tp3674
asg25
Nsbasg33
I00
sg25
Nsg35
I00
sg36
S'L'
sbsg37
(irule
FeatureMatrix
p3675
(dp3676
g23
(lp3677
(I01
g2877
tp3678
asg25
Nsbsg43
(irule
Guard
p3679
(dp3680
g18
I00
sg19
(lp3681
(irule
FeatureMatrix
p3682
(dp3683
g23
(lp3684
sg25
Nsbasg33
I00
sg25
Nsg35
I00
sg36
S'R'
sbsg47
(irule
FeatureMatrix
p3685
(dp3686
g23
(lp3687
sg25
Nsbsg25
Nsba(irule
Rule
p3688
(dp3689
g15
(irule
Guard
p3690
(dp3691
g18
I00
sg19
(lp3692
(irule
FeatureMatrix
p3693
(dp3694
g23
(lp3695
sg25
Nsba(irule
FeatureMatrix
p3696
(dp3697
g23
(lp3698
(I00
g3010
tp3699
a(I01
g2877
tp3700
asg25
Nsbasg33
I00
sg25
Nsg35
I00
sg36
S'L'
sbsg37
(irule
FeatureMatrix
p3701
(dp3702
g23
(lp3703
(I01
g2877
tp3704
asg25
Nsbsg43
(irule
Guard
p3705
(dp3706
g18
I00
sg19
(lp3707
(irule
FeatureMatrix
p3708
(dp3709
g23
(lp3710
sg25
Nsbasg33
I00
sg25
Nsg35
I00
sg36
S'R'
sbsg47
(irule
FeatureMatrix
p3711
(dp3712
g23
(lp3713
sg25
Nsbsg25
Nsba(irule
Rule
p3714
(dp3715
g15
(irule
Guard
p3716
(dp3717
g18
I00
sg19
(lp3718
(irule
FeatureMatrix
p3719
(dp3720
g23
(lp3721
sg25
Nsba(irule
FeatureMatrix
p3722
(dp3723
g23
(lp3724
(I00
S'anterior'
p3725
tp3726
a(I01
g2877
tp3727
asg25
Nsbasg33
I00
sg25
Nsg35
I00
sg36
S'L'
sbsg37
(irule
FeatureMatrix
p3728
(dp3729
g23
(lp3730
(I01
g2877
tp3731
asg25
Nsbsg43
(irule
Guard
p3732
(dp3733
g18
I00
sg19
(lp3734
(irule
FeatureMatrix
p3735
(dp3736
g23
(lp3737
sg25
Nsbasg33
I00
sg25
Nsg35
I00
sg36
S'R'
sbsg47
(irule
FeatureMatrix
p3738
(dp3739
g23
(lp3740
sg25
Nsbsg25
Nsba(irule
Rule
p3741
(dp3742
g15
(irule
Guard
p3743
(dp3744
g18
I00
sg19
(lp3745
(irule
FeatureMatrix
p3746
(dp3747
g23
(lp3748
sg25
Nsba(irule
FeatureMatrix
p3749
(dp3750
g23
(lp3751
(I01
g2877
tp3752
a(I01
S'sonorant'
p3753
tp3754
asg25
Nsbasg33
I00
sg25
Nsg35
I00
sg36
S'L'
sbsg37
(irule
FeatureMatrix
p3755
(dp3756
g23
(lp3757
(I01
g2877
tp3758
asg25
Nsbsg43
(irule
Guard
p3759
(dp3760
g18
I00
sg19
(lp3761
(irule
FeatureMatrix
p3762
(dp3763
g23
(lp3764
sg25
Nsbasg33
I00
sg25
Nsg35
I00
sg36
S'R'
sbsg47
(irule
FeatureMatrix
p3765
(dp3766
g23
(lp3767
sg25
Nsbsg25
Nsba(irule
Rule
p3768
(dp3769
g15
(irule
Guard
p3770
(dp3771
g18
I00
sg19
(lp3772
(irule
FeatureMatrix
p3773
(dp3774
g23
(lp3775
sg25
Nsba(irule
FeatureMatrix
p3776
(dp3777
g23
(lp3778
(I01
g2877
tp3779
asg25
Nsbasg33
I00
sg25
Nsg35
I00
sg36
S'L'
sbsg37
(irule
FeatureMatrix
p3780
(dp3781
g23
(lp3782
(I01
g2877
tp3783
asg25
Nsbsg43
(irule
Guard
p3784
(dp3785
g18
I00
sg19
(lp3786
(irule
FeatureMatrix
p3787
(dp3788
g23
(lp3789
sg25
Nsbasg33
I00
sg25
Nsg35
I00
sg36
S'R'
sbsg47
(irule
FeatureMatrix
p3790
(dp3791
g23
(lp3792
(I00
g2877
tp3793
asg25
Nsbsg25
Nsba(irule
Rule
p3794
(dp3795
g15
(irule
Guard
p3796
(dp3797
g18
I00
sg19
(lp3798
(irule
FeatureMatrix
p3799
(dp3800
g23
(lp3801
sg25
Nsba(irule
FeatureMatrix
p3802
(dp3803
g23
(lp3804
(I01
g3424
tp3805
a(I01
g2877
tp3806
asg25
Nsbasg33
I00
sg25
Nsg35
I00
sg36
S'L'
sbsg37
(irule
FeatureMatrix
p3807
(dp3808
g23
(lp3809
(I01
g2877
tp3810
asg25
Nsbsg43
(irule
Guard
p3811
(dp3812
g18
I00
sg19
(lp3813
(irule
FeatureMatrix
p3814
(dp3815
g23
(lp3816
sg25
Nsbasg33
I00
sg25
Nsg35
I00
sg36
S'R'
sbsg47
(irule
FeatureMatrix
p3817
(dp3818
g23
(lp3819
sg25
Nsbsg25
Nsba(irule
Rule
p3820
(dp3821
g15
(irule
Guard
p3822
(dp3823
g18
I00
sg19
(lp3824
(irule
FeatureMatrix
p3825
(dp3826
g23
(lp3827
sg25
Nsba(irule
FeatureMatrix
p3828
(dp3829
g23
(lp3830
(I01
g2877
tp3831
asg25
Nsbasg33
I00
sg25
Nsg35
I00
sg36
S'L'
sbsg37
(irule
FeatureMatrix
p3832
(dp3833
g23
(lp3834
(I01
g2877
tp3835
a(I00
g3225
tp3836
asg25
Nsbsg43
(irule
Guard
p3837
(dp3838
g18
I00
sg19
(lp3839
(irule
FeatureMatrix
p3840
(dp3841
g23
(lp3842
sg25
Nsbasg33
I00
sg25
Nsg35
I00
sg36
S'R'
sbsg47
(irule
FeatureMatrix
p3843
(dp3844
g23
(lp3845
sg25
Nsbsg25
Nsba(irule
Rule
p3846
(dp3847
g15
(irule
Guard
p3848
(dp3849
g18
I00
sg19
(lp3850
(irule
FeatureMatrix
p3851
(dp3852
g23
(lp3853
sg25
Nsba(irule
FeatureMatrix
p3854
(dp3855
g23
(lp3856
(I01
g2877
tp3857
asg25
Nsbasg33
I00
sg25
Nsg35
I00
sg36
S'L'
sbsg37
(irule
FeatureMatrix
p3858
(dp3859
g23
(lp3860
(I01
g2877
tp3861
a(I01
g2947
tp3862
asg25
Nsbsg43
(irule
Guard
p3863
(dp3864
g18
I00
sg19
(lp3865
(irule
FeatureMatrix
p3866
(dp3867
g23
(lp3868
sg25
Nsbasg33
I00
sg25
Nsg35
I00
sg36
S'R'
sbsg47
(irule
FeatureMatrix
p3869
(dp3870
g23
(lp3871
sg25
Nsbsg25
Nsba(irule
Rule
p3872
(dp3873
g15
(irule
Guard
p3874
(dp3875
g18
I00
sg19
(lp3876
(irule
FeatureMatrix
p3877
(dp3878
g23
(lp3879
sg25
Nsba(irule
FeatureMatrix
p3880
(dp3881
g23
(lp3882
(I01
g2877
tp3883
asg25
Nsbasg33
I00
sg25
Nsg35
I00
sg36
S'L'
sbsg37
(irule
FeatureMatrix
p3884
(dp3885
g23
(lp3886
(I01
g2877
tp3887
a(I00
g3358
tp3888
asg25
Nsbsg43
(irule
Guard
p3889
(dp3890
g18
I00
sg19
(lp3891
(irule
FeatureMatrix
p3892
(dp3893
g23
(lp3894
sg25
Nsbasg33
I00
sg25
Nsg35
I00
sg36
S'R'
sbsg47
(irule
FeatureMatrix
p3895
(dp3896
g23
(lp3897
sg25
Nsbsg25
Nsba(irule
Rule
p3898
(dp3899
g15
(irule
Guard
p3900
(dp3901
g18
I00
sg19
(lp3902
(irule
FeatureMatrix
p3903
(dp3904
g23
(lp3905
sg25
Nsba(irule
FeatureMatrix
p3906
(dp3907
g23
(lp3908
(I01
g2877
tp3909
asg25
Nsbasg33
I00
sg25
Nsg35
I00
sg36
S'L'
sbsg37
(irule
FeatureMatrix
p3910
(dp3911
g23
(lp3912
(I01
g2877
tp3913
asg25
Nsbsg43
(irule
Guard
p3914
(dp3915
g18
I00
sg19
(lp3916
(irule
FeatureMatrix
p3917
(dp3918
g23
(lp3919
sg25
Nsbasg33
I00
sg25
Nsg35
I00
sg36
S'R'
sbsg47
(irule
FeatureMatrix
p3920
(dp3921
g23
(lp3922
(I01
g3753
tp3923
asg25
Nsbsg25
Nsba(irule
Rule
p3924
(dp3925
g15
(irule
Guard
p3926
(dp3927
g18
I00
sg19
(lp3928
(irule
FeatureMatrix
p3929
(dp3930
g23
(lp3931
sg25
Nsba(irule
FeatureMatrix
p3932
(dp3933
g23
(lp3934
(I01
g2877
tp3935
asg25
Nsbasg33
I00
sg25
Nsg35
I00
sg36
S'L'
sbsg37
(irule
FeatureMatrix
p3936
(dp3937
g23
(lp3938
(I01
g2877
tp3939
a(I00
g2892
tp3940
asg25
Nsbsg43
(irule
Guard
p3941
(dp3942
g18
I00
sg19
(lp3943
(irule
FeatureMatrix
p3944
(dp3945
g23
(lp3946
sg25
Nsbasg33
I00
sg25
Nsg35
I00
sg36
S'R'
sbsg47
(irule
FeatureMatrix
p3947
(dp3948
g23
(lp3949
sg25
Nsbsg25
Nsba(irule
Rule
p3950
(dp3951
g15
(irule
Guard
p3952
(dp3953
g18
I00
sg19
(lp3954
(irule
FeatureMatrix
p3955
(dp3956
g23
(lp3957
sg25
Nsba(irule
FeatureMatrix
p3958
(dp3959
g23
(lp3960
(I01
g2877
tp3961
asg25
Nsbasg33
I00
sg25
Nsg35
I00
sg36
S'L'
sbsg37
(irule
FeatureMatrix
p3962
(dp3963
g23
(lp3964
(I00
g3318
tp3965
a(I01
g2877
tp3966
asg25
Nsbsg43
(irule
Guard
p3967
(dp3968
g18
I00
sg19
(lp3969
(irule
FeatureMatrix
p3970
(dp3971
g23
(lp3972
sg25
Nsbasg33
I00
sg25
Nsg35
I00
sg36
S'R'
sbsg47
(irule
FeatureMatrix
p3973
(dp3974
g23
(lp3975
sg25
Nsbsg25
Nsba(irule
Rule
p3976
(dp3977
g15
(irule
Guard
p3978
(dp3979
g18
I00
sg19
(lp3980
(irule
FeatureMatrix
p3981
(dp3982
g23
(lp3983
sg25
Nsba(irule
FeatureMatrix
p3984
(dp3985
g23
(lp3986
(I01
g2877
tp3987
asg25
Nsbasg33
I00
sg25
Nsg35
I00
sg36
S'L'
sbsg37
(irule
FeatureMatrix
p3988
(dp3989
g23
(lp3990
(I01
g2877
tp3991
asg25
Nsbsg43
(irule
Guard
p3992
(dp3993
g18
I00
sg19
(lp3994
(irule
FeatureMatrix
p3995
(dp3996
g23
(lp3997
sg25
Nsbasg33
I00
sg25
Nsg35
I00
sg36
S'R'
sbsg47
(irule
FeatureMatrix
p3998
(dp3999
g23
(lp4000
(I00
g3725
tp4001
asg25
Nsbsg25
Nsba(irule
Rule
p4002
(dp4003
g15
(irule
Guard
p4004
(dp4005
g18
I00
sg19
(lp4006
(irule
FeatureMatrix
p4007
(dp4008
g23
(lp4009
sg25
Nsba(irule
FeatureMatrix
p4010
(dp4011
g23
(lp4012
(I01
g2877
tp4013
asg25
Nsbasg33
I00
sg25
Nsg35
I00
sg36
S'L'
sbsg37
(irule
FeatureMatrix
p4014
(dp4015
g23
(lp4016
(I00
g3593
tp4017
a(I01
g2877
tp4018
asg25
Nsbsg43
(irule
Guard
p4019
(dp4020
g18
I00
sg19
(lp4021
(irule
FeatureMatrix
p4022
(dp4023
g23
(lp4024
sg25
Nsbasg33
I00
sg25
Nsg35
I00
sg36
S'R'
sbsg47
(irule
FeatureMatrix
p4025
(dp4026
g23
(lp4027
sg25
Nsbsg25
Nsba(irule
Rule
p4028
(dp4029
g15
(irule
Guard
p4030
(dp4031
g18
I00
sg19
(lp4032
(irule
FeatureMatrix
p4033
(dp4034
g23
(lp4035
sg25
Nsba(irule
FeatureMatrix
p4036
(dp4037
g23
(lp4038
(I01
g2877
tp4039
asg25
Nsbasg33
I00
sg25
Nsg35
I00
sg36
S'L'
sbsg37
(irule
FeatureMatrix
p4040
(dp4041
g23
(lp4042
(I00
g3672
tp4043
a(I01
g2877
tp4044
asg25
Nsbsg43
(irule
Guard
p4045
(dp4046
g18
I00
sg19
(lp4047
(irule
FeatureMatrix
p4048
(dp4049
g23
(lp4050
sg25
Nsbasg33
I00
sg25
Nsg35
I00
sg36
S'R'
sbsg47
(irule
FeatureMatrix
p4051
(dp4052
g23
(lp4053
sg25
Nsbsg25
Nsba(irule
Rule
p4054
(dp4055
g15
(irule
Guard
p4056
(dp4057
g18
I00
sg19
(lp4058
(irule
FeatureMatrix
p4059
(dp4060
g23
(lp4061
sg25
Nsba(irule
FeatureMatrix
p4062
(dp4063
g23
(lp4064
(I01
g2877
tp4065
asg25
Nsbasg33
I00
sg25
Nsg35
I00
sg36
S'L'
sbsg37
(irule
FeatureMatrix
p4066
(dp4067
g23
(lp4068
(I00
g3725
tp4069
a(I01
g2877
tp4070
asg25
Nsbsg43
(irule
Guard
p4071
(dp4072
g18
I00
sg19
(lp4073
(irule
FeatureMatrix
p4074
(dp4075
g23
(lp4076
sg25
Nsbasg33
I00
sg25
Nsg35
I00
sg36
S'R'
sbsg47
(irule
FeatureMatrix
p4077
(dp4078
g23
(lp4079
sg25
Nsbsg25
Nsba(irule
Rule
p4080
(dp4081
g15
(irule
Guard
p4082
(dp4083
g18
I00
sg19
(lp4084
(irule
FeatureMatrix
p4085
(dp4086
g23
(lp4087
sg25
Nsba(irule
FeatureMatrix
p4088
(dp4089
g23
(lp4090
(I01
g2877
tp4091
asg25
Nsbasg33
I00
sg25
Nsg35
I00
sg36
S'L'
sbsg37
(irule
FeatureMatrix
p4092
(dp4093
g23
(lp4094
(I01
g2877
tp4095
a(I01
g3753
tp4096
asg25
Nsbsg43
(irule
Guard
p4097
(dp4098
g18
I00
sg19
(lp4099
(irule
FeatureMatrix
p4100
(dp4101
g23
(lp4102
sg25
Nsbasg33
I00
sg25
Nsg35
I00
sg36
S'R'
sbsg47
(irule
FeatureMatrix
p4103
(dp4104
g23
(lp4105
sg25
Nsbsg25
Nsba(irule
Rule
p4106
(dp4107
g15
(irule
Guard
p4108
(dp4109
g18
I00
sg19
(lp4110
(irule
FeatureMatrix
p4111
(dp4112
g23
(lp4113
sg25
Nsba(irule
FeatureMatrix
p4114
(dp4115
g23
(lp4116
(I01
g2877
tp4117
asg25
Nsbasg33
I00
sg25
Nsg35
I00
sg36
S'L'
sbsg37
(irule
FeatureMatrix
p4118
(dp4119
g23
(lp4120
(I01
g3424
tp4121
a(I01
g2877
tp4122
asg25
Nsbsg43
(irule
Guard
p4123
(dp4124
g18
I00
sg19
(lp4125
(irule
FeatureMatrix
p4126
(dp4127
g23
(lp4128
sg25
Nsbasg33
I00
sg25
Nsg35
I00
sg36
S'R'
sbsg47
(irule
FeatureMatrix
p4129
(dp4130
g23
(lp4131
sg25
Nsbsg25
Nsba(irule
Rule
p4132
(dp4133
g15
(irule
Guard
p4134
(dp4135
g18
I00
sg19
(lp4136
(irule
FeatureMatrix
p4137
(dp4138
g23
(lp4139
sg25
Nsba(irule
FeatureMatrix
p4140
(dp4141
g23
(lp4142
(I01
g2877
tp4143
asg25
Nsbasg33
I00
sg25
Nsg35
I00
sg36
S'L'
sbsg37
(irule
FeatureMatrix
p4144
(dp4145
g23
(lp4146
(I01
g2877
tp4147
asg25
Nsbsg43
(irule
Guard
p4148
(dp4149
g18
I00
sg19
(lp4150
(irule
FeatureMatrix
p4151
(dp4152
g23
(lp4153
sg25
Nsbasg33
I00
sg25
Nsg35
I00
sg36
S'R'
sbsg47
(irule
FeatureMatrix
p4154
(dp4155
g23
(lp4156
(I01
g2971
tp4157
asg25
Nsbsg25
Nsba(irule
Rule
p4158
(dp4159
g15
(irule
Guard
p4160
(dp4161
g18
I00
sg19
(lp4162
(irule
FeatureMatrix
p4163
(dp4164
g23
(lp4165
sg25
Nsba(irule
FeatureMatrix
p4166
(dp4167
g23
(lp4168
(I01
g2877
tp4169
asg25
Nsbasg33
I00
sg25
Nsg35
I00
sg36
S'L'
sbsg37
(irule
FeatureMatrix
p4170
(dp4171
g23
(lp4172
(I01
g2877
tp4173
asg25
Nsbsg43
(irule
Guard
p4174
(dp4175
g18
I00
sg19
(lp4176
(irule
FeatureMatrix
p4177
(dp4178
g23
(lp4179
sg25
Nsbasg33
I00
sg25
Nsg35
I00
sg36
S'R'
sbsg47
(irule
FeatureMatrix
p4180
(dp4181
g23
(lp4182
(I00
g3225
tp4183
asg25
Nsbsg25
Nsba(irule
Rule
p4184
(dp4185
g15
(irule
Guard
p4186
(dp4187
g18
I00
sg19
(lp4188
(irule
FeatureMatrix
p4189
(dp4190
g23
(lp4191
sg25
Nsba(irule
FeatureMatrix
p4192
(dp4193
g23
(lp4194
(I01
g2877
tp4195
asg25
Nsbasg33
I00
sg25
Nsg35
I00
sg36
S'L'
sbsg37
(irule
FeatureMatrix
p4196
(dp4197
g23
(lp4198
(I01
g2877
tp4199
asg25
Nsbsg43
(irule
Guard
p4200
(dp4201
g18
I00
sg19
(lp4202
(irule
FeatureMatrix
p4203
(dp4204
g23
(lp4205
sg25
Nsbasg33
I00
sg25
Nsg35
I00
sg36
S'R'
sbsg47
(irule
FeatureMatrix
p4206
(dp4207
g23
(lp4208
(I00
g3358
tp4209
asg25
Nsbsg25
Nsba(irule
Rule
p4210
(dp4211
g15
(irule
Guard
p4212
(dp4213
g18
I00
sg19
(lp4214
(irule
FeatureMatrix
p4215
(dp4216
g23
(lp4217
sg25
Nsba(irule
FeatureMatrix
p4218
(dp4219
g23
(lp4220
(I01
g2877
tp4221
asg25
Nsbasg33
I00
sg25
Nsg35
I00
sg36
S'L'
sbsg37
(irule
FeatureMatrix
p4222
(dp4223
g23
(lp4224
(I01
g2877
tp4225
asg25
Nsbsg43
(irule
Guard
p4226
(dp4227
g18
I00
sg19
(lp4228
(irule
FeatureMatrix
p4229
(dp4230
g23
(lp4231
sg25
Nsbasg33
I00
sg25
Nsg35
I00
sg36
S'R'
sbsg47
(irule
FeatureMatrix
p4232
(dp4233
g23
(lp4234
(I00
g3593
tp4235
asg25
Nsbsg25
Nsba(irule
Rule
p4236
(dp4237
g15
(irule
Guard
p4238
(dp4239
g18
I00
sg19
(lp4240
(irule
FeatureMatrix
p4241
(dp4242
g23
(lp4243
sg25
Nsba(irule
FeatureMatrix
p4244
(dp4245
g23
(lp4246
(I01
g2877
tp4247
asg25
Nsbasg33
I00
sg25
Nsg35
I00
sg36
S'L'
sbsg37
(irule
FeatureMatrix
p4248
(dp4249
g23
(lp4250
(I01
g2877
tp4251
asg25
Nsbsg43
(irule
Guard
p4252
(dp4253
g18
I00
sg19
(lp4254
(irule
FeatureMatrix
p4255
(dp4256
g23
(lp4257
sg25
Nsbasg33
I00
sg25
Nsg35
I00
sg36
S'R'
sbsg47
(irule
FeatureMatrix
p4258
(dp4259
g23
(lp4260
(I00
g3672
tp4261
asg25
Nsbsg25
Nsba(irule
Rule
p4262
(dp4263
g15
(irule
Guard
p4264
(dp4265
g18
I00
sg19
(lp4266
(irule
FeatureMatrix
p4267
(dp4268
g23
(lp4269
sg25
Nsba(irule
FeatureMatrix
p4270
(dp4271
g23
(lp4272
(I01
g2877
tp4273
a(I01
g3119
tp4274
asg25
Nsbasg33
I00
sg25
Nsg35
I00
sg36
S'L'
sbsg37
(irule
FeatureMatrix
p4275
(dp4276
g23
(lp4277
(I01
g2877
tp4278
asg25
Nsbsg43
(irule
Guard
p4279
(dp4280
g18
I00
sg19
(lp4281
(irule
FeatureMatrix
p4282
(dp4283
g23
(lp4284
sg25
Nsba(irule
FeatureMatrix
p4285
(dp4286
g23
(lp4287
sg25
Nsbasg33
I00
sg25
Nsg35
I00
sg36
S'R'
sbsg47
(irule
FeatureMatrix
p4288
(dp4289
g23
(lp4290
sg25
Nsbsg25
Nsba(irule
Rule
p4291
(dp4292
g15
(irule
Guard
p4293
(dp4294
g18
I00
sg19
(lp4295
(irule
FeatureMatrix
p4296
(dp4297
g23
(lp4298
sg25
Nsba(irule
FeatureMatrix
p4299
(dp4300
g23
(lp4301
(I01
g2877
tp4302
a(I01
g3753
tp4303
asg25
Nsbasg33
I00
sg25
Nsg35
I00
sg36
S'L'
sbsg37
(irule
FeatureMatrix
p4304
(dp4305
g23
(lp4306
(I01
g2877
tp4307
asg25
Nsbsg43
(irule
Guard
p4308
(dp4309
g18
I00
sg19
(lp4310
(irule
FeatureMatrix
p4311
(dp4312
g23
(lp4313
sg25
Nsba(irule
FeatureMatrix
p4314
(dp4315
g23
(lp4316
sg25
Nsbasg33
I00
sg25
Nsg35
I00
sg36
S'R'
sbsg47
(irule
FeatureMatrix
p4317
(dp4318
g23
(lp4319
sg25
Nsbsg25
Nsba(irule
Rule
p4320
(dp4321
g15
(irule
Guard
p4322
(dp4323
g18
I00
sg19
(lp4324
(irule
FeatureMatrix
p4325
(dp4326
g23
(lp4327
sg25
Nsba(irule
FeatureMatrix
p4328
(dp4329
g23
(lp4330
(I01
g2877
tp4331
asg25
Nsbasg33
I00
sg25
Nsg35
I00
sg36
S'L'
sbsg37
(irule
FeatureMatrix
p4332
(dp4333
g23
(lp4334
(I01
g2877
tp4335
asg25
Nsbsg43
(irule
Guard
p4336
(dp4337
g18
I00
sg19
(lp4338
(irule
FeatureMatrix
p4339
(dp4340
g23
(lp4341
sg25
Nsba(irule
FeatureMatrix
p4342
(dp4343
g23
(lp4344
(I00
g2877
tp4345
asg25
Nsbasg33
I00
sg25
Nsg35
I00
sg36
S'R'
sbsg47
(irule
FeatureMatrix
p4346
(dp4347
g23
(lp4348
sg25
Nsbsg25
Nsba(irule
Rule
p4349
(dp4350
g15
(irule
Guard
p4351
(dp4352
g18
I00
sg19
(lp4353
(irule
FeatureMatrix
p4354
(dp4355
g23
(lp4356
sg25
Nsba(irule
FeatureMatrix
p4357
(dp4358
g23
(lp4359
(I01
g2877
tp4360
asg25
Nsbasg33
I00
sg25
Nsg35
I00
sg36
S'L'
sbsg37
(irule
FeatureMatrix
p4361
(dp4362
g23
(lp4363
(I01
g2877
tp4364
asg25
Nsbsg43
(irule
Guard
p4365
(dp4366
g18
I00
sg19
(lp4367
(irule
FeatureMatrix
p4368
(dp4369
g23
(lp4370
sg25
Nsba(irule
FeatureMatrix
p4371
(dp4372
g23
(lp4373
(I00
g3318
tp4374
asg25
Nsbasg33
I00
sg25
Nsg35
I00
sg36
S'R'
sbsg47
(irule
FeatureMatrix
p4375
(dp4376
g23
(lp4377
sg25
Nsbsg25
Nsba(irule
Rule
p4378
(dp4379
g15
(irule
Guard
p4380
(dp4381
g18
I00
sg19
(lp4382
(irule
FeatureMatrix
p4383
(dp4384
g23
(lp4385
sg25
Nsba(irule
FeatureMatrix
p4386
(dp4387
g23
(lp4388
(I01
g2877
tp4389
asg25
Nsbasg33
I00
sg25
Nsg35
I00
sg36
S'L'
sbsg37
(irule
FeatureMatrix
p4390
(dp4391
g23
(lp4392
(I01
g2877
tp4393
asg25
Nsbsg43
(irule
Guard
p4394
(dp4395
g18
I00
sg19
(lp4396
(irule
FeatureMatrix
p4397
(dp4398
g23
(lp4399
(I00
g2971
tp4400
asg25
Nsba(irule
FeatureMatrix
p4401
(dp4402
g23
(lp4403
sg25
Nsbasg33
I00
sg25
Nsg35
I00
sg36
S'R'
sbsg47
(irule
FeatureMatrix
p4404
(dp4405
g23
(lp4406
sg25
Nsbsg25
Nsba(irule
Rule
p4407
(dp4408
g15
(irule
Guard
p4409
(dp4410
g18
I00
sg19
(lp4411
(irule
FeatureMatrix
p4412
(dp4413
g23
(lp4414
(I00
g2877
tp4415
asg25
Nsba(irule
FeatureMatrix
p4416
(dp4417
g23
(lp4418
(I01
g2877
tp4419
asg25
Nsbasg33
I00
sg25
Nsg35
I00
sg36
S'L'
sbsg37
(irule
FeatureMatrix
p4420
(dp4421
g23
(lp4422
(I01
g2877
tp4423
asg25
Nsbsg43
(irule
Guard
p4424
(dp4425
g18
I00
sg19
(lp4426
(irule
FeatureMatrix
p4427
(dp4428
g23
(lp4429
sg25
Nsba(irule
FeatureMatrix
p4430
(dp4431
g23
(lp4432
sg25
Nsbasg33
I00
sg25
Nsg35
I00
sg36
S'R'
sbsg47
(irule
FeatureMatrix
p4433
(dp4434
g23
(lp4435
sg25
Nsbsg25
Nsba(irule
Rule
p4436
(dp4437
g15
(irule
Guard
p4438
(dp4439
g18
I00
sg19
(lp4440
(irule
FeatureMatrix
p4441
(dp4442
g23
(lp4443
(I00
g3010
tp4444
asg25
Nsba(irule
FeatureMatrix
p4445
(dp4446
g23
(lp4447
(I01
g2877
tp4448
asg25
Nsbasg33
I00
sg25
Nsg35
I00
sg36
S'L'
sbsg37
(irule
FeatureMatrix
p4449
(dp4450
g23
(lp4451
(I01
g2877
tp4452
asg25
Nsbsg43
(irule
Guard
p4453
(dp4454
g18
I00
sg19
(lp4455
(irule
FeatureMatrix
p4456
(dp4457
g23
(lp4458
sg25
Nsba(irule
FeatureMatrix
p4459
(dp4460
g23
(lp4461
sg25
Nsbasg33
I00
sg25
Nsg35
I00
sg36
S'R'
sbsg47
(irule
FeatureMatrix
p4462
(dp4463
g23
(lp4464
sg25
Nsbsg25
Nsba(irule
Rule
p4465
(dp4466
g15
(irule
Guard
p4467
(dp4468
g18
I00
sg19
(lp4469
(irule
FeatureMatrix
p4470
(dp4471
g23
(lp4472
sg25
Nsba(irule
FeatureMatrix
p4473
(dp4474
g23
(lp4475
(I01
g2877
tp4476
asg25
Nsbasg33
I00
sg25
Nsg35
I00
sg36
S'L'
sbsg37
(irule
FeatureMatrix
p4477
(dp4478
g23
(lp4479
(I01
g2877
tp4480
asg25
Nsbsg43
(irule
Guard
p4481
(dp4482
g18
I00
sg19
(lp4483
(irule
FeatureMatrix
p4484
(dp4485
g23
(lp4486
(I00
g2947
tp4487
asg25
Nsba(irule
FeatureMatrix
p4488
(dp4489
g23
(lp4490
sg25
Nsbasg33
I00
sg25
Nsg35
I00
sg36
S'R'
sbsg47
(irule
FeatureMatrix
p4491
(dp4492
g23
(lp4493
sg25
Nsbsg25
Nsba(irule
Rule
p4494
(dp4495
g15
(irule
Guard
p4496
(dp4497
g18
I00
sg19
(lp4498
(irule
FeatureMatrix
p4499
(dp4500
g23
(lp4501
sg25
Nsba(irule
FeatureMatrix
p4502
(dp4503
g23
(lp4504
(I01
g2877
tp4505
asg25
Nsbasg33
I00
sg25
Nsg35
I00
sg36
S'L'
sbsg37
(irule
FeatureMatrix
p4506
(dp4507
g23
(lp4508
(I01
g2877
tp4509
a(I00
g3225
tp4510
a(I01
g3119
tp4511
asg25
Nsbsg43
(irule
Guard
p4512
(dp4513
g18
I00
sg19
(lp4514
(irule
FeatureMatrix
p4515
(dp4516
g23
(lp4517
sg25
Nsbasg33
I00
sg25
Nsg35
I00
sg36
S'R'
sbsg47
(irule
FeatureMatrix
p4518
(dp4519
g23
(lp4520
sg25
Nsbsg25
Nsba(irule
Rule
p4521
(dp4522
g15
(irule
Guard
p4523
(dp4524
g18
I00
sg19
(lp4525
(irule
FeatureMatrix
p4526
(dp4527
g23
(lp4528
sg25
Nsba(irule
FeatureMatrix
p4529
(dp4530
g23
(lp4531
(I01
g2877
tp4532
asg25
Nsbasg33
I00
sg25
Nsg35
I00
sg36
S'L'
sbsg37
(irule
FeatureMatrix
p4533
(dp4534
g23
(lp4535
(I01
g2877
tp4536
asg25
Nsbsg43
(irule
Guard
p4537
(dp4538
g18
I00
sg19
(lp4539
(irule
FeatureMatrix
p4540
(dp4541
g23
(lp4542
(I00
g3208
tp4543
asg25
Nsba(irule
FeatureMatrix
p4544
(dp4545
g23
(lp4546
sg25
Nsbasg33
I00
sg25
Nsg35
I00
sg36
S'R'
sbsg47
(irule
FeatureMatrix
p4547
(dp4548
g23
(lp4549
sg25
Nsbsg25
Nsba(irule
Rule
p4550
(dp4551
g15
(irule
Guard
p4552
(dp4553
g18
I00
sg19
(lp4554
(irule
FeatureMatrix
p4555
(dp4556
g23
(lp4557
sg25
Nsba(irule
FeatureMatrix
p4558
(dp4559
g23
(lp4560
(I01
g2877
tp4561
asg25
Nsbasg33
I00
sg25
Nsg35
I00
sg36
S'L'
sbsg37
(irule
FeatureMatrix
p4562
(dp4563
g23
(lp4564
(I01
g2877
tp4565
a(I01
g2971
tp4566
a(I00
g3225
tp4567
asg25
Nsbsg43
(irule
Guard
p4568
(dp4569
g18
I00
sg19
(lp4570
(irule
FeatureMatrix
p4571
(dp4572
g23
(lp4573
sg25
Nsbasg33
I00
sg25
Nsg35
I00
sg36
S'R'
sbsg47
(irule
FeatureMatrix
p4574
(dp4575
g23
(lp4576
sg25
Nsbsg25
Nsba(irule
Rule
p4577
(dp4578
g15
(irule
Guard
p4579
(dp4580
g18
I00
sg19
(lp4581
(irule
FeatureMatrix
p4582
(dp4583
g23
(lp4584
(I00
g3262
tp4585
asg25
Nsba(irule
FeatureMatrix
p4586
(dp4587
g23
(lp4588
(I01
g2877
tp4589
asg25
Nsbasg33
I00
sg25
Nsg35
I00
sg36
S'L'
sbsg37
(irule
FeatureMatrix
p4590
(dp4591
g23
(lp4592
(I01
g2877
tp4593
asg25
Nsbsg43
(irule
Guard
p4594
(dp4595
g18
I00
sg19
(lp4596
(irule
FeatureMatrix
p4597
(dp4598
g23
(lp4599
sg25
Nsba(irule
FeatureMatrix
p4600
(dp4601
g23
(lp4602
sg25
Nsbasg33
I00
sg25
Nsg35
I00
sg36
S'R'
sbsg47
(irule
FeatureMatrix
p4603
(dp4604
g23
(lp4605
sg25
Nsbsg25
Nsba(irule
Rule
p4606
(dp4607
g15
(irule
Guard
p4608
(dp4609
g18
I00
sg19
(lp4610
(irule
FeatureMatrix
p4611
(dp4612
g23
(lp4613
(I00
g2877
tp4614
asg25
Nsba(irule
FeatureMatrix
p4615
(dp4616
g23
(lp4617
(I01
g2877
tp4618
asg25
Nsbasg33
I00
sg25
Nsg35
I00
sg36
S'L'
sbsg37
(irule
FeatureMatrix
p4619
(dp4620
g23
(lp4621
(I01
g2877
tp4622
asg25
Nsbsg43
(irule
Guard
p4623
(dp4624
g18
I00
sg19
(lp4625
(irule
FeatureMatrix
p4626
(dp4627
g23
(lp4628
(I00
g2971
tp4629
asg25
Nsbasg33
I00
sg25
Nsg35
I00
sg36
S'R'
sbsg47
(irule
FeatureMatrix
p4630
(dp4631
g23
(lp4632
sg25
Nsbsg25
Nsba(irule
Rule
p4633
(dp4634
g15
(irule
Guard
p4635
(dp4636
g18
I00
sg19
(lp4637
(irule
FeatureMatrix
p4638
(dp4639
g23
(lp4640
sg25
Nsba(irule
FeatureMatrix
p4641
(dp4642
g23
(lp4643
(I01
g2877
tp4644
asg25
Nsbasg33
I00
sg25
Nsg35
I00
sg36
S'L'
sbsg37
(irule
FeatureMatrix
p4645
(dp4646
g23
(lp4647
(I01
g2877
tp4648
a(I00
g3225
tp4649
asg25
Nsbsg43
(irule
Guard
p4650
(dp4651
g18
I00
sg19
(lp4652
(irule
FeatureMatrix
p4653
(dp4654
g23
(lp4655
sg25
Nsba(irule
FeatureMatrix
p4656
(dp4657
g23
(lp4658
sg25
Nsbasg33
I00
sg25
Nsg35
I00
sg36
S'R'
sbsg47
(irule
FeatureMatrix
p4659
(dp4660
g23
(lp4661
sg25
Nsbsg25
Nsba(irule
Rule
p4662
(dp4663
g15
(irule
Guard
p4664
(dp4665
g18
I00
sg19
(lp4666
(irule
FeatureMatrix
p4667
(dp4668
g23
(lp4669
sg25
Nsba(irule
FeatureMatrix
p4670
(dp4671
g23
(lp4672
(I01
g2877
tp4673
asg25
Nsbasg33
I00
sg25
Nsg35
I00
sg36
S'L'
sbsg37
(irule
FeatureMatrix
p4674
(dp4675
g23
(lp4676
(I01
g2877
tp4677
asg25
Nsbsg43
(irule
Guard
p4678
(dp4679
g18
I00
sg19
(lp4680
(irule
FeatureMatrix
p4681
(dp4682
g23
(lp4683
(I00
g3262
tp4684
a(I00
g2971
tp4685
asg25
Nsbasg33
I00
sg25
Nsg35
I00
sg36
S'R'
sbsg47
(irule
FeatureMatrix
p4686
(dp4687
g23
(lp4688
sg25
Nsbsg25
Nsba(irule
Rule
p4689
(dp4690
g15
(irule
Guard
p4691
(dp4692
g18
I00
sg19
(lp4693
(irule
FeatureMatrix
p4694
(dp4695
g23
(lp4696
sg25
Nsba(irule
FeatureMatrix
p4697
(dp4698
g23
(lp4699
(I01
g2877
tp4700
asg25
Nsbasg33
I00
sg25
Nsg35
I00
sg36
S'L'
sbsg37
(irule
FeatureMatrix
p4701
(dp4702
g23
(lp4703
(I00
g3593
tp4704
a(I01
g2877
tp4705
asg25
Nsbsg43
(irule
Guard
p4706
(dp4707
g18
I00
sg19
(lp4708
(irule
FeatureMatrix
p4709
(dp4710
g23
(lp4711
sg25
Nsbasg33
I00
sg25
Nsg35
I00
sg36
S'R'
sbsg47
(irule
FeatureMatrix
p4712
(dp4713
g23
(lp4714
(I01
g3424
tp4715
asg25
Nsbsg25
Nsba(irule
Rule
p4716
(dp4717
g15
(irule
Guard
p4718
(dp4719
g18
I00
sg19
(lp4720
(irule
FeatureMatrix
p4721
(dp4722
g23
(lp4723
(I00
g2877
tp4724
asg25
Nsba(irule
FeatureMatrix
p4725
(dp4726
g23
(lp4727
(I01
g2877
tp4728
a(I01
g2971
tp4729
asg25
Nsbasg33
I00
sg25
Nsg35
I00
sg36
S'L'
sbsg37
(irule
FeatureMatrix
p4730
(dp4731
g23
(lp4732
(I01
g2877
tp4733
asg25
Nsbsg43
(irule
Guard
p4734
(dp4735
g18
I00
sg19
(lp4736
(irule
FeatureMatrix
p4737
(dp4738
g23
(lp4739
sg25
Nsbasg33
I00
sg25
Nsg35
I00
sg36
S'R'
sbsg47
(irule
FeatureMatrix
p4740
(dp4741
g23
(lp4742
sg25
Nsbsg25
Nsba(irule
Rule
p4743
(dp4744
g15
(irule
Guard
p4745
(dp4746
g18
I00
sg19
(lp4747
(irule
FeatureMatrix
p4748
(dp4749
g23
(lp4750
sg25
Nsba(irule
FeatureMatrix
p4751
(dp4752
g23
(lp4753
(I01
g2877
tp4754
a(I01
g2947
tp4755
a(I01
g2971
tp4756
asg25
Nsbasg33
I00
sg25
Nsg35
I00
sg36
S'L'
sbsg37
(irule
FeatureMatrix
p4757
(dp4758
g23
(lp4759
(I01
g2877
tp4760
asg25
Nsbsg43
(irule
Guard
p4761
(dp4762
g18
I00
sg19
(lp4763
(irule
FeatureMatrix
p4764
(dp4765
g23
(lp4766
sg25
Nsbasg33
I00
sg25
Nsg35
I00
sg36
S'R'
sbsg47
(irule
FeatureMatrix
p4767
(dp4768
g23
(lp4769
sg25
Nsbsg25
Nsba(irule
Rule
p4770
(dp4771
g15
(irule
Guard
p4772
(dp4773
g18
I00
sg19
(lp4774
(irule
FeatureMatrix
p4775
(dp4776
g23
(lp4777
sg25
Nsba(irule
FeatureMatrix
p4778
(dp4779
g23
(lp4780
(I01
g2877
tp4781
asg25
Nsbasg33
I00
sg25
Nsg35
I00
sg36
S'L'
sbsg37
(irule
FeatureMatrix
p4782
(dp4783
g23
(lp4784
(I01
g2877
tp4785
asg25
Nsbsg43
(irule
Guard
p4786
(dp4787
g18
I00
sg19
(lp4788
(irule
FeatureMatrix
p4789
(dp4790
g23
(lp4791
(I00
g2877
tp4792
asg25
Nsba(irule
FeatureMatrix
p4793
(dp4794
g23
(lp4795
sg25
Nsbasg33
I00
sg25
Nsg35
I00
sg36
S'R'
sbsg47
(irule
FeatureMatrix
p4796
(dp4797
g23
(lp4798
sg25
Nsbsg25
Nsba(irule
Rule
p4799
(dp4800
g15
(irule
Guard
p4801
(dp4802
g18
I00
sg19
(lp4803
(irule
FeatureMatrix
p4804
(dp4805
g23
(lp4806
(I00
g2877
tp4807
asg25
Nsba(irule
FeatureMatrix
p4808
(dp4809
g23
(lp4810
(I01
g2877
tp4811
asg25
Nsbasg33
I00
sg25
Nsg35
I00
sg36
S'L'
sbsg37
(irule
FeatureMatrix
p4812
(dp4813
g23
(lp4814
(I01
g2877
tp4815
asg25
Nsbsg43
(irule
Guard
p4816
(dp4817
g18
I00
sg19
(lp4818
(irule
FeatureMatrix
p4819
(dp4820
g23
(lp4821
(I00
g3262
tp4822
asg25
Nsbasg33
I00
sg25
Nsg35
I00
sg36
S'R'
sbsg47
(irule
FeatureMatrix
p4823
(dp4824
g23
(lp4825
sg25
Nsbsg25
Nsba(irule
Rule
p4826
(dp4827
g15
(irule
Guard
p4828
(dp4829
g18
I00
sg19
(lp4830
(irule
FeatureMatrix
p4831
(dp4832
g23
(lp4833
sg25
Nsba(irule
FeatureMatrix
p4834
(dp4835
g23
(lp4836
(I01
g2877
tp4837
asg25
Nsbasg33
I00
sg25
Nsg35
I00
sg36
S'L'
sbsg37
(irule
FeatureMatrix
p4838
(dp4839
g23
(lp4840
(I00
g3010
tp4841
a(I01
g2877
tp4842
asg25
Nsbsg43
(irule
Guard
p4843
(dp4844
g18
I00
sg19
(lp4845
(irule
FeatureMatrix
p4846
(dp4847
g23
(lp4848
sg25
Nsba(irule
FeatureMatrix
p4849
(dp4850
g23
(lp4851
sg25
Nsbasg33
I00
sg25
Nsg35
I00
sg36
S'R'
sbsg47
(irule
FeatureMatrix
p4852
(dp4853
g23
(lp4854
sg25
Nsbsg25
Nsba(irule
Rule
p4855
(dp4856
g15
(irule
Guard
p4857
(dp4858
g18
I00
sg19
(lp4859
(irule
FeatureMatrix
p4860
(dp4861
g23
(lp4862
(I00
g2877
tp4863
asg25
Nsba(irule
FeatureMatrix
p4864
(dp4865
g23
(lp4866
(I01
g2877
tp4867
a(I01
g3119
tp4868
asg25
Nsbasg33
I00
sg25
Nsg35
I00
sg36
S'L'
sbsg37
(irule
FeatureMatrix
p4869
(dp4870
g23
(lp4871
(I01
g2877
tp4872
asg25
Nsbsg43
(irule
Guard
p4873
(dp4874
g18
I00
sg19
(lp4875
(irule
FeatureMatrix
p4876
(dp4877
g23
(lp4878
sg25
Nsbasg33
I00
sg25
Nsg35
I00
sg36
S'R'
sbsg47
(irule
FeatureMatrix
p4879
(dp4880
g23
(lp4881
sg25
Nsbsg25
Nsba(irule
Rule
p4882
(dp4883
g15
(irule
Guard
p4884
(dp4885
g18
I00
sg19
(lp4886
(irule
FeatureMatrix
p4887
(dp4888
g23
(lp4889
sg25
Nsba(irule
FeatureMatrix
p4890
(dp4891
g23
(lp4892
(I01
g2877
tp4893
asg25
Nsbasg33
I00
sg25
Nsg35
I00
sg36
S'L'
sbsg37
(irule
FeatureMatrix
p4894
(dp4895
g23
(lp4896
(I01
g2877
tp4897
asg25
Nsbsg43
(irule
Guard
p4898
(dp4899
g18
I00
sg19
(lp4900
(irule
FeatureMatrix
p4901
(dp4902
g23
(lp4903
sg25
Nsba(irule
FeatureMatrix
p4904
(dp4905
g23
(lp4906
(I01
g2971
tp4907
asg25
Nsbasg33
I00
sg25
Nsg35
I00
sg36
S'R'
sbsg47
(irule
FeatureMatrix
p4908
(dp4909
g23
(lp4910
sg25
Nsbsg25
Nsba(irule
Rule
p4911
(dp4912
g15
(irule
Guard
p4913
(dp4914
g18
I00
sg19
(lp4915
(irule
FeatureMatrix
p4916
(dp4917
g23
(lp4918
sg25
Nsba(irule
FeatureMatrix
p4919
(dp4920
g23
(lp4921
(I01
g2877
tp4922
asg25
Nsbasg33
I00
sg25
Nsg35
I00
sg36
S'L'
sbsg37
(irule
FeatureMatrix
p4923
(dp4924
g23
(lp4925
(I01
g2877
tp4926
asg25
Nsbsg43
(irule
Guard
p4927
(dp4928
g18
I00
sg19
(lp4929
(irule
FeatureMatrix
p4930
(dp4931
g23
(lp4932
(I00
g3208
tp4933
a(I00
g2971
tp4934
asg25
Nsbasg33
I00
sg25
Nsg35
I00
sg36
S'R'
sbsg47
(irule
FeatureMatrix
p4935
(dp4936
g23
(lp4937
sg25
Nsbsg25
Nsba(irule
Rule
p4938
(dp4939
g15
(irule
Guard
p4940
(dp4941
g18
I00
sg19
(lp4942
(irule
FeatureMatrix
p4943
(dp4944
g23
(lp4945
sg25
Nsba(irule
FeatureMatrix
p4946
(dp4947
g23
(lp4948
(I01
g2877
tp4949
asg25
Nsbasg33
I00
sg25
Nsg35
I00
sg36
S'L'
sbsg37
(irule
FeatureMatrix
p4950
(dp4951
g23
(lp4952
(I01
g2877
tp4953
asg25
Nsbsg43
(irule
Guard
p4954
(dp4955
g18
I00
sg19
(lp4956
(irule
FeatureMatrix
p4957
(dp4958
g23
(lp4959
(I00
g3262
tp4960
asg25
Nsba(irule
FeatureMatrix
p4961
(dp4962
g23
(lp4963
sg25
Nsbasg33
I00
sg25
Nsg35
I00
sg36
S'R'
sbsg47
(irule
FeatureMatrix
p4964
(dp4965
g23
(lp4966
sg25
Nsbsg25
Nsba(irule
Rule
p4967
(dp4968
g15
(irule
Guard
p4969
(dp4970
g18
I00
sg19
(lp4971
(irule
FeatureMatrix
p4972
(dp4973
g23
(lp4974
sg25
Nsba(irule
FeatureMatrix
p4975
(dp4976
g23
(lp4977
(I00
g3725
tp4978
a(I01
g2877
tp4979
asg25
Nsbasg33
I00
sg25
Nsg35
I00
sg36
S'L'
sbsg37
(irule
FeatureMatrix
p4980
(dp4981
g23
(lp4982
(I01
g2877
tp4983
asg25
Nsbsg43
(irule
Guard
p4984
(dp4985
g18
I00
sg19
(lp4986
(irule
FeatureMatrix
p4987
(dp4988
g23
(lp4989
(I00
g2971
tp4990
asg25
Nsbasg33
I00
sg25
Nsg35
I00
sg36
S'R'
sbsg47
(irule
FeatureMatrix
p4991
(dp4992
g23
(lp4993
sg25
Nsbsg25
Nsba(irule
Rule
p4994
(dp4995
g15
(irule
Guard
p4996
(dp4997
g18
I00
sg19
(lp4998
(irule
FeatureMatrix
p4999
(dp5000
g23
(lp5001
(I00
g2877
tp5002
asg25
Nsba(irule
FeatureMatrix
p5003
(dp5004
g23
(lp5005
(I01
g2877
tp5006
asg25
Nsbasg33
I00
sg25
Nsg35
I00
sg36
S'L'
sbsg37
(irule
FeatureMatrix
p5007
(dp5008
g23
(lp5009
(I01
g2877
tp5010
asg25
Nsbsg43
(irule
Guard
p5011
(dp5012
g18
I00
sg19
(lp5013
(irule
FeatureMatrix
p5014
(dp5015
g23
(lp5016
(I00
g3208
tp5017
asg25
Nsbasg33
I00
sg25
Nsg35
I00
sg36
S'R'
sbsg47
(irule
FeatureMatrix
p5018
(dp5019
g23
(lp5020
sg25
Nsbsg25
Nsba(irule
Rule
p5021
(dp5022
g15
(irule
Guard
p5023
(dp5024
g18
I00
sg19
(lp5025
(irule
FeatureMatrix
p5026
(dp5027
g23
(lp5028
sg25
Nsba(irule
FeatureMatrix
p5029
(dp5030
g23
(lp5031
(I01
g2877
tp5032
asg25
Nsbasg33
I00
sg25
Nsg35
I00
sg36
S'L'
sbsg37
(irule
FeatureMatrix
p5033
(dp5034
g23
(lp5035
(I01
g2877
tp5036
asg25
Nsbsg43
(irule
Guard
p5037
(dp5038
g18
I00
sg19
(lp5039
(irule
FeatureMatrix
p5040
(dp5041
g23
(lp5042
sg25
Nsba(irule
FeatureMatrix
p5043
(dp5044
g23
(lp5045
sg25
Nsbasg33
I00
sg25
Nsg35
I00
sg36
S'R'
sbsg47
(irule
FeatureMatrix
p5046
(dp5047
g23
(lp5048
(I00
g3593
tp5049
asg25
Nsbsg25
Nsba(irule
Rule
p5050
(dp5051
g15
(irule
Guard
p5052
(dp5053
g18
I00
sg19
(lp5054
(irule
FeatureMatrix
p5055
(dp5056
g23
(lp5057
(I00
g2877
tp5058
asg25
Nsba(irule
FeatureMatrix
p5059
(dp5060
g23
(lp5061
(I01
g2877
tp5062
a(I00
g3225
tp5063
asg25
Nsbasg33
I00
sg25
Nsg35
I00
sg36
S'L'
sbsg37
(irule
FeatureMatrix
p5064
(dp5065
g23
(lp5066
(I01
g2877
tp5067
asg25
Nsbsg43
(irule
Guard
p5068
(dp5069
g18
I00
sg19
(lp5070
(irule
FeatureMatrix
p5071
(dp5072
g23
(lp5073
sg25
Nsbasg33
I00
sg25
Nsg35
I00
sg36
S'R'
sbsg47
(irule
FeatureMatrix
p5074
(dp5075
g23
(lp5076
sg25
Nsbsg25
Nsba(irule
Rule
p5077
(dp5078
g15
(irule
Guard
p5079
(dp5080
g18
I00
sg19
(lp5081
(irule
FeatureMatrix
p5082
(dp5083
g23
(lp5084
sg25
Nsba(irule
FeatureMatrix
p5085
(dp5086
g23
(lp5087
(I01
g2877
tp5088
asg25
Nsbasg33
I00
sg25
Nsg35
I00
sg36
S'L'
sbsg37
(irule
FeatureMatrix
p5089
(dp5090
g23
(lp5091
(I01
g2877
tp5092
asg25
Nsbsg43
(irule
Guard
p5093
(dp5094
g18
I00
sg19
(lp5095
(irule
FeatureMatrix
p5096
(dp5097
g23
(lp5098
sg25
Nsba(irule
FeatureMatrix
p5099
(dp5100
g23
(lp5101
sg25
Nsbasg33
I00
sg25
Nsg35
I00
sg36
S'R'
sbsg47
(irule
FeatureMatrix
p5102
(dp5103
g23
(lp5104
(I01
g2971
tp5105
asg25
Nsbsg25
Nsba(irule
Rule
p5106
(dp5107
g15
(irule
Guard
p5108
(dp5109
g18
I00
sg19
(lp5110
(irule
FeatureMatrix
p5111
(dp5112
g23
(lp5113
sg25
Nsba(irule
FeatureMatrix
p5114
(dp5115
g23
(lp5116
(I01
g2877
tp5117
asg25
Nsbasg33
I00
sg25
Nsg35
I00
sg36
S'L'
sbsg37
(irule
FeatureMatrix
p5118
(dp5119
g23
(lp5120
(I01
g2877
tp5121
asg25
Nsbsg43
(irule
Guard
p5122
(dp5123
g18
I00
sg19
(lp5124
(irule
FeatureMatrix
p5125
(dp5126
g23
(lp5127
sg25
Nsba(irule
FeatureMatrix
p5128
(dp5129
g23
(lp5130
(I00
g3725
tp5131
asg25
Nsbasg33
I00
sg25
Nsg35
I00
sg36
S'R'
sbsg47
(irule
FeatureMatrix
p5132
(dp5133
g23
(lp5134
sg25
Nsbsg25
Nsba(irule
Rule
p5135
(dp5136
g15
(irule
Guard
p5137
(dp5138
g18
I00
sg19
(lp5139
(irule
FeatureMatrix
p5140
(dp5141
g23
(lp5142
(I00
g3010
tp5143
asg25
Nsba(irule
FeatureMatrix
p5144
(dp5145
g23
(lp5146
(I01
g2877
tp5147
a(I01
g2971
tp5148
asg25
Nsbasg33
I00
sg25
Nsg35
I00
sg36
S'L'
sbsg37
(irule
FeatureMatrix
p5149
(dp5150
g23
(lp5151
(I01
g2877
tp5152
asg25
Nsbsg43
(irule
Guard
p5153
(dp5154
g18
I00
sg19
(lp5155
(irule
FeatureMatrix
p5156
(dp5157
g23
(lp5158
sg25
Nsbasg33
I00
sg25
Nsg35
I00
sg36
S'R'
sbsg47
(irule
FeatureMatrix
p5159
(dp5160
g23
(lp5161
sg25
Nsbsg25
Nsba(irule
Rule
p5162
(dp5163
g15
(irule
Guard
p5164
(dp5165
g18
I00
sg19
(lp5166
(irule
FeatureMatrix
p5167
(dp5168
g23
(lp5169
(I00
g2877
tp5170
asg25
Nsba(irule
FeatureMatrix
p5171
(dp5172
g23
(lp5173
(I01
g2877
tp5174
asg25
Nsbasg33
I00
sg25
Nsg35
I00
sg36
S'L'
sbsg37
(irule
FeatureMatrix
p5175
(dp5176
g23
(lp5177
(I01
g2877
tp5178
asg25
Nsbsg43
(irule
Guard
p5179
(dp5180
g18
I00
sg19
(lp5181
(irule
FeatureMatrix
p5182
(dp5183
g23
(lp5184
(I00
g2947
tp5185
asg25
Nsbasg33
I00
sg25
Nsg35
I00
sg36
S'R'
sbsg47
(irule
FeatureMatrix
p5186
(dp5187
g23
(lp5188
sg25
Nsbsg25
Nsba(irule
Rule
p5189
(dp5190
g15
(irule
Guard
p5191
(dp5192
g18
I00
sg19
(lp5193
(irule
FeatureMatrix
p5194
(dp5195
g23
(lp5196
(I00
g3262
tp5197
asg25
Nsba(irule
FeatureMatrix
p5198
(dp5199
g23
(lp5200
(I01
g2877
tp5201
a(I01
g3119
tp5202
asg25
Nsbasg33
I00
sg25
Nsg35
I00
sg36
S'L'
sbsg37
(irule
FeatureMatrix
p5203
(dp5204
g23
(lp5205
(I01
g2877
tp5206
asg25
Nsbsg43
(irule
Guard
p5207
(dp5208
g18
I00
sg19
(lp5209
(irule
FeatureMatrix
p5210
(dp5211
g23
(lp5212
sg25
Nsbasg33
I00
sg25
Nsg35
I00
sg36
S'R'
sbsg47
(irule
FeatureMatrix
p5213
(dp5214
g23
(lp5215
sg25
Nsbsg25
Nsba(irule
Rule
p5216
(dp5217
g15
(irule
Guard
p5218
(dp5219
g18
I00
sg19
(lp5220
(irule
FeatureMatrix
p5221
(dp5222
g23
(lp5223
(I00
g3010
tp5224
asg25
Nsba(irule
FeatureMatrix
p5225
(dp5226
g23
(lp5227
(I01
g2877
tp5228
asg25
Nsbasg33
I00
sg25
Nsg35
I00
sg36
S'L'
sbsg37
(irule
FeatureMatrix
p5229
(dp5230
g23
(lp5231
(I01
g2877
tp5232
asg25
Nsbsg43
(irule
Guard
p5233
(dp5234
g18
I00
sg19
(lp5235
(irule
FeatureMatrix
p5236
(dp5237
g23
(lp5238
(I00
g2971
tp5239
asg25
Nsbasg33
I00
sg25
Nsg35
I00
sg36
S'R'
sbsg47
(irule
FeatureMatrix
p5240
(dp5241
g23
(lp5242
sg25
Nsbsg25
Nsba(irule
Rule
p5243
(dp5244
g15
(irule
Guard
p5245
(dp5246
g18
I00
sg19
(lp5247
(irule
FeatureMatrix
p5248
(dp5249
g23
(lp5250
sg25
Nsba(irule
FeatureMatrix
p5251
(dp5252
g23
(lp5253
(I01
g2877
tp5254
a(I00
g3225
tp5255
asg25
Nsbasg33
I00
sg25
Nsg35
I00
sg36
S'L'
sbsg37
(irule
FeatureMatrix
p5256
(dp5257
g23
(lp5258
(I01
g2877
tp5259
asg25
Nsbsg43
(irule
Guard
p5260
(dp5261
g18
I00
sg19
(lp5262
(irule
FeatureMatrix
p5263
(dp5264
g23
(lp5265
sg25
Nsba(irule
FeatureMatrix
p5266
(dp5267
g23
(lp5268
sg25
Nsbasg33
I00
sg25
Nsg35
I00
sg36
S'R'
sbsg47
(irule
FeatureMatrix
p5269
(dp5270
g23
(lp5271
sg25
Nsbsg25
Nsba(irule
Rule
p5272
(dp5273
g15
(irule
Guard
p5274
(dp5275
g18
I00
sg19
(lp5276
(irule
FeatureMatrix
p5277
(dp5278
g23
(lp5279
(I00
g2877
tp5280
asg25
Nsba(irule
FeatureMatrix
p5281
(dp5282
g23
(lp5283
(I01
g2877
tp5284
a(I00
g3358
tp5285
asg25
Nsbasg33
I00
sg25
Nsg35
I00
sg36
S'L'
sbsg37
(irule
FeatureMatrix
p5286
(dp5287
g23
(lp5288
(I01
g2877
tp5289
asg25
Nsbsg43
(irule
Guard
p5290
(dp5291
g18
I00
sg19
(lp5292
(irule
FeatureMatrix
p5293
(dp5294
g23
(lp5295
sg25
Nsbasg33
I00
sg25
Nsg35
I00
sg36
S'R'
sbsg47
(irule
FeatureMatrix
p5296
(dp5297
g23
(lp5298
sg25
Nsbsg25
Nsba(irule
Rule
p5299
(dp5300
g15
(irule
Guard
p5301
(dp5302
g18
I00
sg19
(lp5303
(irule
FeatureMatrix
p5304
(dp5305
g23
(lp5306
sg25
Nsba(irule
FeatureMatrix
p5307
(dp5308
g23
(lp5309
(I01
g2877
tp5310
a(I01
g2971
tp5311
asg25
Nsbasg33
I00
sg25
Nsg35
I00
sg36
S'L'
sbsg37
(irule
FeatureMatrix
p5312
(dp5313
g23
(lp5314
(I01
g2877
tp5315
asg25
Nsbsg43
(irule
Guard
p5316
(dp5317
g18
I00
sg19
(lp5318
(irule
FeatureMatrix
p5319
(dp5320
g23
(lp5321
sg25
Nsbasg33
I00
sg25
Nsg35
I00
sg36
S'R'
sbsg47
(irule
FeatureMatrix
p5322
(dp5323
g23
(lp5324
(I00
g3318
tp5325
asg25
Nsbsg25
Nsba(irule
Rule
p5326
(dp5327
g15
(irule
Guard
p5328
(dp5329
g18
I00
sg19
(lp5330
(irule
FeatureMatrix
p5331
(dp5332
g23
(lp5333
sg25
Nsba(irule
FeatureMatrix
p5334
(dp5335
g23
(lp5336
(I01
g2877
tp5337
asg25
Nsbasg33
I00
sg25
Nsg35
I00
sg36
S'L'
sbsg37
(irule
FeatureMatrix
p5338
(dp5339
g23
(lp5340
(I01
g2877
tp5341
a(I00
g3358
tp5342
asg25
Nsbsg43
(irule
Guard
p5343
(dp5344
g18
I00
sg19
(lp5345
(irule
FeatureMatrix
p5346
(dp5347
g23
(lp5348
sg25
Nsba(irule
FeatureMatrix
p5349
(dp5350
g23
(lp5351
sg25
Nsbasg33
I00
sg25
Nsg35
I00
sg36
S'R'
sbsg47
(irule
FeatureMatrix
p5352
(dp5353
g23
(lp5354
sg25
Nsbsg25
Nsba(irule
Rule
p5355
(dp5356
g15
(irule
Guard
p5357
(dp5358
g18
I00
sg19
(lp5359
(irule
FeatureMatrix
p5360
(dp5361
g23
(lp5362
sg25
Nsba(irule
FeatureMatrix
p5363
(dp5364
g23
(lp5365
(I01
g2877
tp5366
a(I01
g2971
tp5367
asg25
Nsbasg33
I00
sg25
Nsg35
I00
sg36
S'L'
sbsg37
(irule
FeatureMatrix
p5368
(dp5369
g23
(lp5370
(I00
g3010
tp5371
a(I01
g2877
tp5372
asg25
Nsbsg43
(irule
Guard
p5373
(dp5374
g18
I00
sg19
(lp5375
(irule
FeatureMatrix
p5376
(dp5377
g23
(lp5378
sg25
Nsbasg33
I00
sg25
Nsg35
I00
sg36
S'R'
sbsg47
(irule
FeatureMatrix
p5379
(dp5380
g23
(lp5381
sg25
Nsbsg25
Nsba(irule
Rule
p5382
(dp5383
g15
(irule
Guard
p5384
(dp5385
g18
I00
sg19
(lp5386
(irule
FeatureMatrix
p5387
(dp5388
g23
(lp5389
sg25
Nsba(irule
FeatureMatrix
p5390
(dp5391
g23
(lp5392
(I01
g2877
tp5393
a(I00
g3225
tp5394
a(I01
g3119
tp5395
asg25
Nsbasg33
I00
sg25
Nsg35
I00
sg36
S'L'
sbsg37
(irule
FeatureMatrix
p5396
(dp5397
g23
(lp5398
(I01
g2877
tp5399
asg25
Nsbsg43
(irule
Guard
p5400
(dp5401
g18
I00
sg19
(lp5402
(irule
FeatureMatrix
p5403
(dp5404
g23
(lp5405
sg25
Nsbasg33
I00
sg25
Nsg35
I00
sg36
S'R'
sbsg47
(irule
FeatureMatrix
p5406
(dp5407
g23
(lp5408
sg25
Nsbsg25
Nsba(irule
Rule
p5409
(dp5410
g15
(irule
Guard
p5411
(dp5412
g18
I00
sg19
(lp5413
(irule
FeatureMatrix
p5414
(dp5415
g23
(lp5416
sg25
Nsba(irule
FeatureMatrix
p5417
(dp5418
g23
(lp5419
(I01
g2877
tp5420
asg25
Nsbasg33
I00
sg25
Nsg35
I00
sg36
S'L'
sbsg37
(irule
FeatureMatrix
p5421
(dp5422
g23
(lp5423
(I01
g2877
tp5424
asg25
Nsbsg43
(irule
Guard
p5425
(dp5426
g18
I00
sg19
(lp5427
(irule
FeatureMatrix
p5428
(dp5429
g23
(lp5430
sg25
Nsbasg33
I00
sg25
Nsg35
I00
sg36
S'R'
sbsg47
(irule
FeatureMatrix
p5431
(dp5432
g23
(lp5433
(I00
g2892
tp5434
a(I01
g2947
tp5435
asg25
Nsbsg25
Nsba(irule
Rule
p5436
(dp5437
g15
(irule
Guard
p5438
(dp5439
g18
I00
sg19
(lp5440
(irule
FeatureMatrix
p5441
(dp5442
g23
(lp5443
(I00
g3010
tp5444
asg25
Nsba(irule
FeatureMatrix
p5445
(dp5446
g23
(lp5447
(I01
g2877
tp5448
a(I01
g3119
tp5449
asg25
Nsbasg33
I00
sg25
Nsg35
I00
sg36
S'L'
sbsg37
(irule
FeatureMatrix
p5450
(dp5451
g23
(lp5452
(I01
g2877
tp5453
asg25
Nsbsg43
(irule
Guard
p5454
(dp5455
g18
I00
sg19
(lp5456
(irule
FeatureMatrix
p5457
(dp5458
g23
(lp5459
sg25
Nsbasg33
I00
sg25
Nsg35
I00
sg36
S'R'
sbsg47
(irule
FeatureMatrix
p5460
(dp5461
g23
(lp5462
sg25
Nsbsg25
Nsba(irule
Rule
p5463
(dp5464
g15
(irule
Guard
p5465
(dp5466
g18
I00
sg19
(lp5467
(irule
FeatureMatrix
p5468
(dp5469
g23
(lp5470
(I00
g2971
tp5471
asg25
Nsba(irule
FeatureMatrix
p5472
(dp5473
g23
(lp5474
(I01
g2877
tp5475
asg25
Nsbasg33
I00
sg25
Nsg35
I00
sg36
S'L'
sbsg37
(irule
FeatureMatrix
p5476
(dp5477
g23
(lp5478
(I01
g2877
tp5479
asg25
Nsbsg43
(irule
Guard
p5480
(dp5481
g18
I00
sg19
(lp5482
(irule
FeatureMatrix
p5483
(dp5484
g23
(lp5485
sg25
Nsba(irule
FeatureMatrix
p5486
(dp5487
g23
(lp5488
sg25
Nsbasg33
I00
sg25
Nsg35
I00
sg36
S'R'
sbsg47
(irule
FeatureMatrix
p5489
(dp5490
g23
(lp5491
sg25
Nsbsg25
Nsba(irule
Rule
p5492
(dp5493
g15
(irule
Guard
p5494
(dp5495
g18
I00
sg19
(lp5496
(irule
FeatureMatrix
p5497
(dp5498
g23
(lp5499
(I00
g2877
tp5500
asg25
Nsba(irule
FeatureMatrix
p5501
(dp5502
g23
(lp5503
(I01
g2877
tp5504
a(I00
g2892
tp5505
asg25
Nsbasg33
I00
sg25
Nsg35
I00
sg36
S'L'
sbsg37
(irule
FeatureMatrix
p5506
(dp5507
g23
(lp5508
(I01
g2877
tp5509
asg25
Nsbsg43
(irule
Guard
p5510
(dp5511
g18
I00
sg19
(lp5512
(irule
FeatureMatrix
p5513
(dp5514
g23
(lp5515
sg25
Nsbasg33
I00
sg25
Nsg35
I00
sg36
S'R'
sbsg47
(irule
FeatureMatrix
p5516
(dp5517
g23
(lp5518
sg25
Nsbsg25
Nsba(irule
Rule
p5519
(dp5520
g15
(irule
Guard
p5521
(dp5522
g18
I00
sg19
(lp5523
(irule
FeatureMatrix
p5524
(dp5525
g23
(lp5526
sg25
Nsba(irule
FeatureMatrix
p5527
(dp5528
g23
(lp5529
(I01
g2877
tp5530
asg25
Nsbasg33
I00
sg25
Nsg35
I00
sg36
S'L'
sbsg37
(irule
FeatureMatrix
p5531
(dp5532
g23
(lp5533
(I01
g2877
tp5534
asg25
Nsbsg43
(irule
Guard
p5535
(dp5536
g18
I00
sg19
(lp5537
(irule
FeatureMatrix
p5538
(dp5539
g23
(lp5540
sg25
Nsba(irule
FeatureMatrix
p5541
(dp5542
g23
(lp5543
sg25
Nsbasg33
I00
sg25
Nsg35
I00
sg36
S'R'
sbsg47
(irule
FeatureMatrix
p5544
(dp5545
g23
(lp5546
(I01
g3424
tp5547
asg25
Nsbsg25
NsbaasbsS'parameters'
p5548
g6
(cargparse
Namespace
p5549
g8
NtRp5550
(dp5551
S'dummy'
p5552
I00
sS'task'
p5553
S'CEGIS'
p5554
sS'features'
p5555
S'sophisticated'
p5556
sS'resume'
p5557
I00
sS'geometry'
p5558
I01
sS'top'
p5559
I100
sS'disableClean'
p5560
I00
sS'universal'
p5561
NsS'restrict'
p5562
NsS'window'
p5563
NsS'seed'
p5564
S'0'
sS'restore'
p5565
NsS'verbosity'
p5566
I0
sS'timeout'
p5567
F24
sS'debug'
p5568
NsS'cores'
p5569
I40
sg483
S'Odden_3.1_Kerewe'
p5570
sS'save'
p5571
NsS'serial'
p5572
I00
sS'alignment'
p5573
I00
sS'samples'
p5574
I30
sbsb.