(iresult
Result
p1
(dp2
S'startTime'
p3
F1559578467.8286991
sS'solutionSequence'
p4
(lp5
(ccopy_reg
_reconstructor
p6
(csolution
Solution
p7
c__builtin__
object
p8
NtRp9
(dp10
S'rules'
p11
(lp12
(irule
Rule
p13
(dp14
S'leftTriggers'
p15
(irule
Guard
p16
(dp17
S'endOfString'
p18
I00
sS'specifications'
p19
(lp20
sS'optionalEnding'
p21
I00
sS'representation'
p22
V
sS'starred'
p23
I00
sS'side'
p24
S'L'
sbsS'structuralChange'
p25
(irule
FeatureMatrix
p26
(dp27
S'featuresAndPolarities'
p28
(lp29
sg22
V[  ]
p30
sbsS'rightTriggers'
p31
(irule
Guard
p32
(dp33
g18
I00
sg19
(lp34
sg21
I00
sg22
V
sg23
I00
sg24
S'R'
sbsS'focus'
p35
(irule
FeatureMatrix
p36
(dp37
g28
(lp38
sg22
V[  ]
p39
sbsg22
V[  ] ---> [  ] /  _ 
p40
sbasS'prefixes'
p41
(lp42
(imorph
Morph
p43
(dp44
S'phonemes'
p45
(lp46
V\u0263
aVo
asbasS'underlyingForms'
p47
(dp48
((imorph
Morph
p49
(dp50
g45
(lp51
V\u0263
aVo
aVt
aV\u025b
aV\u014b
aV\u025b
aVr
aVa
asbtp52
(imorph
Morph
p53
(dp54
g45
(lp55
Vt
aV\u025b
aV\u014b
aV\u025b
aVr
asbs((imorph
Morph
p56
(dp57
g45
(lp58
V\u0263
aVo
aVk
aVu
aVu
aVa
asbtp59
(imorph
Morph
p60
(dp61
g45
(lp62
Vk
aVu
aVu
asbs((imorph
Morph
p63
(dp64
g45
(lp65
V\u0263
aVo
aVk
aVo
aVo
aVr
aVa
asbtp66
(imorph
Morph
p67
(dp68
g45
(lp69
Vk
aVo
aVo
aVr
asbssS'suffixes'
p70
(lp71
(imorph
Morph
p72
(dp73
g45
(lp74
Va
asbasbF13.916083812713623
tp75
a(g6
(g7
g8
NtRp76
(dp77
g11
(lp78
sg41
(lp79
(imorph
Morph
p80
(dp81
g45
(lp82
sbasg47
(dp83
((imorph
Morph
(dp84
g45
(lp85
Vk
aVo
aVm
aV\u025b
aV\u0272
aVa
asbtp86
(imorph
Morph
p87
(dp88
g45
(lp89
Vk
aVo
aVm
aV\u025b
aV\u0272
asbs((imorph
Morph
(dp90
g45
(lp91
V\u0263
aVo
aVk
aVa
aVy
aVa
asbtp92
(imorph
Morph
p93
(dp94
g45
(lp95
V\u0263
aVo
aVk
aVa
aVy
asbs((imorph
Morph
(dp96
g45
(lp97
V\u0263
aVo
aVc\u030c
p98
aVi
aVn
aVa
asbtp99
(imorph
Morph
p100
(dp101
g45
(lp102
V\u0263
aVo
aVc\u030c
p103
aVi
aVn
asbs((imorph
Morph
(dp104
g45
(lp105
Vk
aVo
aVr
aVu
aV\u0263
aVa
asbtp106
(imorph
Morph
p107
(dp108
g45
(lp109
Vk
aVo
aVr
aVu
aV\u0263
asbs((imorph
Morph
(dp110
g45
(lp111
Vk
aVo
aV\u0263
aVe
aVe
aVr
aVa
asbtp112
(imorph
Morph
p113
(dp114
g45
(lp115
Vk
aVo
aV\u0263
aVe
aVe
aVr
asbs((imorph
Morph
(dp116
g45
(lp117
Vk
aVo
aVh
aV\u0254
aVt
aVa
asbtp118
(imorph
Morph
p119
(dp120
g45
(lp121
Vk
aVo
aVh
aV\u0254
aVt
asbs((imorph
Morph
(dp122
g45
(lp123
V\u0263
aVo
aVt
aV\u025b
aV\u014b
aV\u025b
aVr
aVa
asbtp124
(imorph
Morph
p125
(dp126
g45
(lp127
V\u0263
aVo
aVt
aV\u025b
aV\u014b
aV\u025b
aVr
asbs((imorph
Morph
(dp128
g45
(lp129
V\u0263
aVo
aVk
aVu
aVu
aVa
asbtp130
(imorph
Morph
p131
(dp132
g45
(lp133
V\u0263
aVo
aVk
aVu
aVu
asbs((imorph
Morph
(dp134
g45
(lp135
Vk
aVo
aVi
aVn
aVa
asbtp136
(imorph
Morph
p137
(dp138
g45
(lp139
Vk
aVo
aVi
aVn
asbs((imorph
Morph
(dp140
g45
(lp141
Vk
aVo
aV\u0263
aVa
aVy
aVa
asbtp142
(imorph
Morph
p143
(dp144
g45
(lp145
Vk
aVo
aV\u0263
aVa
aVy
asbs((imorph
Morph
(dp146
g45
(lp147
V\u0263
aVo
aVc\u030c
p148
aVu
aVu
aVk
aVa
asbtp149
(imorph
Morph
p150
(dp151
g45
(lp152
V\u0263
aVo
ag103
aVu
aVu
aVk
asbs((imorph
Morph
(dp153
g45
(lp154
V\u0263
aVo
aVk
aVo
aVo
aVr
aVa
asbtp155
(imorph
Morph
p156
(dp157
g45
(lp158
V\u0263
aVo
aVk
aVo
aVo
aVr
asbs((imorph
Morph
(dp159
g45
(lp160
Vk
aVo
aVo
aVr
aVi
aVa
asbtp161
(imorph
Morph
p162
(dp163
g45
(lp164
Vk
aVo
aVo
aVr
aVi
asbssg70
(lp165
(imorph
Morph
p166
(dp167
g45
(lp168
Va
asbasbF471.60339879989624
tp169
asS'problem'
p170
S'Odden_1.2_Kikuyu'
p171
sS'finalFrontier'
p172
g6
(csolution
Frontier
p173
g8
NtRp174
(dp175
g41
g79
sg70
g165
sg47
g83
sS'frontiers'
p176
(lp177
sbsS'parameters'
p178
g6
(cargparse
Namespace
p179
g8
NtRp180
(dp181
S'restore'
p182
NsS'features'
p183
S'none'
p184
sS'universal'
p185
NsS'restrict'
p186
NsS'seed'
p187
S'0'
sS'serial'
p188
I00
sS'alignment'
p189
I00
sS'top'
p190
I1
sS'maximumDepth'
p191
I3
sS'window'
p192
NsS'minimizeBits'
p193
I5
sS'samples'
p194
I30
sS'save'
p195
NsS'resume'
p196
I00
sS'disableClean'
p197
I01
sS'stemBaseline'
p198
I30
sS'dummy'
p199
I00
sS'task'
p200
S'incremental'
p201
sS'geometry'
p202
NsS'verbosity'
p203
I0
sS'timeout'
p204
F24
sS'debug'
p205
NsS'cores'
p206
I40
sg170
S'Odden_1.2_Kikuyu'
p207
sbsb.