(iresult
Result
p1
(dp2
S'startTime'
p3
F1591191648.9343989
sS'solutionSequence'
p4
(lp5
(ccopy_reg
_reconstructor
p6
(csolution
Solution
p7
c__builtin__
object
p8
NtRp9
(dp10
S'rules'
p11
(lp12
(irule
Rule
p13
(dp14
S'leftTriggers'
p15
(irule
Guard
p16
(dp17
S'endOfString'
p18
I00
sS'specifications'
p19
(lp20
(irule
FeatureMatrix
p21
(dp22
S'featuresAndPolarities'
p23
(lp24
sS'representation'
p25
V[  ]
p26
sba(irule
ConstantPhoneme
p27
(dp28
S'p'
Va
sbasS'optionalEnding'
p29
I00
sg25
Va [  ]*
p30
sS'starred'
p31
I01
sS'side'
p32
S'L'
sbsS'structuralChange'
p33
(irule
ConstantPhoneme
p34
(dp35
S'p'
Vi
sbsS'rightTriggers'
p36
(irule
Guard
p37
(dp38
g18
I00
sg19
(lp39
sg29
I00
sg25
V
sg31
I00
sg32
S'R'
sbsS'focus'
p40
(irule
FeatureMatrix
p41
(dp42
g23
(lp43
(I01
S'rounded'
p44
tp45
asg25
V[ +rounded ]
p46
sbsg25
V[ +rounded ] ---> i / a [  ]* _ 
p47
sbasS'prefixes'
p48
(lp49
(imorph
Morph
p50
(dp51
S'phonemes'
p52
(lp53
sba(imorph
Morph
p54
(dp55
g52
(lp56
sba(imorph
Morph
p57
(dp58
g52
(lp59
sba(imorph
Morph
p60
(dp61
g52
(lp62
sbasS'underlyingForms'
p63
(dp64
((imorph
Morph
p65
(dp66
g52
(lp67
Vd
aVu
aVb
aVh
aVu
aVn
asb(imorph
Morph
p68
(dp69
g52
(lp70
Vd
aVu
aVb
aVk
aVa
asb(imorph
Morph
p71
(dp72
g52
(lp73
Vd
aVu
aVb
aVa
aVl
asb(imorph
Morph
p74
(dp75
g52
(lp76
Vd
aVu
aVb
aVu
aVt
asbtp77
(imorph
Morph
p78
(dp79
g52
(lp80
Vd
aVu
aVb
asbs((imorph
Morph
p81
(dp82
g52
(lp83
Vx
aVa
aVt
aVh
aVi
aVn
asb(imorph
Morph
p84
(dp85
g52
(lp86
Vx
aVa
aVt
aVk
aVa
asb(imorph
Morph
p87
(dp88
g52
(lp89
Vx
aVa
aVt
aVa
aVl
asb(imorph
Morph
p90
(dp91
g52
(lp92
Vx
aVa
aVt
aVi
aVt
asbtp93
(imorph
Morph
p94
(dp95
g52
(lp96
Vx
aVa
aVt
asbssS'suffixes'
p97
(lp98
(imorph
Morph
p99
(dp100
g52
(lp101
Vh
aVu
aVn
asba(imorph
Morph
p102
(dp103
g52
(lp104
Vk
aVa
asba(imorph
Morph
p105
(dp106
g52
(lp107
Va
aVl
asba(imorph
Morph
p108
(dp109
g52
(lp110
Vu
aVt
asbasbF44.596489191055298
tp111
a(g6
(g7
g8
NtRp112
(dp113
g11
(lp114
(irule
Rule
p115
(dp116
g15
(irule
Guard
p117
(dp118
g18
I00
sg19
(lp119
(irule
FeatureMatrix
p120
(dp121
g23
(lp122
sg25
V[  ]
p123
sba(irule
ConstantPhoneme
p124
(dp125
S'p'
Vx
sbasg29
I00
sg25
Vx [  ]*
p126
sg31
I01
sg32
S'L'
sbsg33
(irule
ConstantPhoneme
p127
(dp128
S'p'
Vi
sbsg36
(irule
Guard
p129
(dp130
g18
I00
sg19
(lp131
sg29
I00
sg25
V
sg31
I00
sg32
S'R'
sbsg40
(irule
ConstantPhoneme
p132
(dp133
S'p'
Vu
sbsg25
Vu ---> i / x [  ]* _ 
p134
sbasg48
(lp135
(imorph
Morph
p136
(dp137
g52
(lp138
sba(imorph
Morph
p139
(dp140
g52
(lp141
sba(imorph
Morph
p142
(dp143
g52
(lp144
sba(imorph
Morph
p145
(dp146
g52
(lp147
sbasg63
(dp148
(g65
g68
g71
g74
tp149
(imorph
Morph
p150
(dp151
g52
(lp152
Vd
aVu
aVb
asbs((imorph
Morph
p153
(dp154
g52
(lp155
Vx
aVi
aVl
aVh
aVi
aVn
asb(imorph
Morph
p156
(dp157
g52
(lp158
Vx
aVi
aVl
aVk
aVa
asb(imorph
Morph
p159
(dp160
g52
(lp161
Vx
aVi
aVl
aVa
aVl
asb(imorph
Morph
p162
(dp163
g52
(lp164
Vx
aVi
aVl
aVi
aVt
asbtp165
(imorph
Morph
p166
(dp167
g52
(lp168
Vx
aVu
aVl
asbs(g81
g84
g87
g90
tp169
(imorph
Morph
p170
(dp171
g52
(lp172
Vx
aVa
aVt
asbssg97
(lp173
(imorph
Morph
p174
(dp175
g52
(lp176
Vh
aVu
aVn
asba(imorph
Morph
p177
(dp178
g52
(lp179
Vk
aVa
asba(imorph
Morph
p180
(dp181
g52
(lp182
Va
aVl
asba(imorph
Morph
p183
(dp184
g52
(lp185
Vu
aVt
asbasbF143.09142208099365
tp186
a(g6
(g7
g8
NtRp187
(dp188
g11
(lp189
(irule
Rule
p190
(dp191
g15
(irule
Guard
p192
(dp193
g18
I00
sg19
(lp194
(irule
FeatureMatrix
p195
(dp196
g23
(lp197
sg25
V[  ]
p198
sba(irule
FeatureMatrix
p199
(dp200
g23
(lp201
(I01
S'coronal'
p202
tp203
asg25
V[ +coronal ]
p204
sbasg29
I00
sg25
V[ +coronal ] [  ]*
p205
sg31
I01
sg32
S'L'
sbsg33
(irule
ConstantPhoneme
p206
(dp207
S'p'
Va
sbsg36
(irule
Guard
p208
(dp209
g18
I00
sg19
(lp210
sg29
I00
sg25
V
sg31
I00
sg32
S'R'
sbsg40
(irule
ConstantPhoneme
p211
(dp212
S'p'
Vo
sbsg25
Vo ---> a / [ +coronal ] [  ]* _ 
p213
sba(irule
Rule
p214
(dp215
g15
(irule
Guard
p216
(dp217
g18
I00
sg19
(lp218
(irule
FeatureMatrix
p219
(dp220
g23
(lp221
sg25
V[  ]
p222
sba(irule
ConstantPhoneme
p223
(dp224
S'p'
Vb
sbasg29
I00
sg25
Vb [  ]*
p225
sg31
I01
sg32
S'L'
sbsg33
(irule
ConstantPhoneme
p226
(dp227
S'p'
Vu
sbsg36
(irule
Guard
p228
(dp229
g18
I00
sg19
(lp230
sg29
I00
sg25
V
sg31
I00
sg32
S'R'
sbsg40
(irule
ConstantPhoneme
p231
(dp232
S'p'
Vi
sbsg25
Vi ---> u / b [  ]* _ 
p233
sbasg48
(lp234
(imorph
Morph
p235
(dp236
g52
(lp237
sba(imorph
Morph
p238
(dp239
g52
(lp240
sba(imorph
Morph
p241
(dp242
g52
(lp243
sba(imorph
Morph
p244
(dp245
g52
(lp246
sbasg63
(dp247
((imorph
Morph
p248
(dp249
g52
(lp250
Vk
aVo
aV\u0294
aVh
aVi
aVn
asb(imorph
Morph
p251
(dp252
g52
(lp253
Vk
aVo
aV\u0294
aVk
aVo
asb(imorph
Morph
p254
(dp255
g52
(lp256
Vk
aVo
aV\u0294
aVo
aVl
asb(imorph
Morph
p257
(dp258
g52
(lp259
Vk
aVo
aV\u0294
aVi
aVt
asbtp260
(imorph
Morph
p261
(dp262
g52
(lp263
Vk
aVo
aV\u0294
asbs(g65
g68
g71
g74
tp264
(imorph
Morph
p265
(dp266
g52
(lp267
Vd
aVu
aVb
asbs(g153
g156
g159
g162
tp268
(imorph
Morph
p269
(dp270
g52
(lp271
Vx
aVi
aVl
asbs(g81
g84
g87
g90
tp272
(imorph
Morph
p273
(dp274
g52
(lp275
Vx
aVa
aVt
asbssg97
(lp276
(imorph
Morph
p277
(dp278
g52
(lp279
Vh
aVi
aVn
asba(imorph
Morph
p280
(dp281
g52
(lp282
Vk
aVo
asba(imorph
Morph
p283
(dp284
g52
(lp285
Vo
aVl
asba(imorph
Morph
p286
(dp287
g52
(lp288
Vi
aVt
asbasbF3579.8631951808929
tp289
asS'problem'
p290
S'Odden_170_Yawelmani'
p291
sS'finalFrontier'
p292
g6
(csolution
Frontier
p293
g8
NtRp294
(dp295
g48
g234
sg97
g276
sg63
g247
sS'frontiers'
p296
(lp297
(lp298
(irule
Rule
p299
(dp300
g15
(irule
Guard
p301
(dp302
g18
I00
sg19
(lp303
(irule
FeatureMatrix
p304
(dp305
g23
(lp306
sg25
V[  ]
p307
sba(irule
FeatureMatrix
p308
(dp309
g23
(lp310
(I01
S'coronal'
p311
tp312
asg25
V[ +coronal ]
p313
sbasg29
I00
sg25
V[ +coronal ] [  ]*
p314
sg31
I01
sg32
S'L'
sbsg33
(irule
ConstantPhoneme
p315
(dp316
S'p'
Va
sbsg36
(irule
Guard
p317
(dp318
g18
I00
sg19
(lp319
sg29
I00
sg25
V
sg31
I00
sg32
S'R'
sbsg40
(irule
ConstantPhoneme
p320
(dp321
S'p'
Vo
sbsg25
Vo ---> a / [ +coronal ] [  ]* _ 
p322
sba(irule
Rule
p323
(dp324
g15
(irule
Guard
p325
(dp326
g18
I00
sg19
(lp327
(irule
FeatureMatrix
p328
(dp329
g23
(lp330
(I00
S'low'
p331
tp332
asg25
Nsba(irule
FeatureMatrix
p333
(dp334
g23
(lp335
(I01
S'continuant'
p336
tp337
asg25
Nsbasg29
I00
sg25
Nsg31
I01
sg32
S'L'
sbsg33
(irule
ConstantPhoneme
p338
(dp339
S'p'
Va
sbsg36
(irule
Guard
p340
(dp341
g18
I00
sg19
(lp342
sg29
I00
sg25
Nsg31
I00
sg32
S'R'
sbsg40
(irule
FeatureMatrix
p343
(dp344
g23
(lp345
(I01
S'rounded'
p346
tp347
asg25
Nsbsg25
Nsba(irule
Rule
p348
(dp349
g15
(irule
Guard
p350
(dp351
g18
I00
sg19
(lp352
(irule
FeatureMatrix
p353
(dp354
g23
(lp355
sg25
Nsba(irule
FeatureMatrix
p356
(dp357
g23
(lp358
(I00
g346
tp359
a(I01
S'voice'
p360
tp361
asg25
Nsbasg29
I00
sg25
Nsg31
I01
sg32
S'L'
sbsg33
(irule
ConstantPhoneme
p362
(dp363
S'p'
Va
sbsg36
(irule
Guard
p364
(dp365
g18
I00
sg19
(lp366
sg29
I00
sg25
Nsg31
I00
sg32
S'R'
sbsg40
(irule
ConstantPhoneme
p367
(dp368
S'p'
Vo
sbsg25
Nsba(irule
Rule
p369
(dp370
g15
(irule
Guard
p371
(dp372
g18
I00
sg19
(lp373
(irule
FeatureMatrix
p374
(dp375
g23
(lp376
sg25
Nsba(irule
FeatureMatrix
p377
(dp378
g23
(lp379
(I01
g311
tp380
asg25
Nsbasg29
I00
sg25
Nsg31
I01
sg32
S'L'
sbsg33
(irule
FeatureMatrix
p381
(dp382
g23
(lp383
(I00
g346
tp384
a(I01
g331
tp385
asg25
Nsbsg36
(irule
Guard
p386
(dp387
g18
I00
sg19
(lp388
sg29
I00
sg25
Nsg31
I00
sg32
S'R'
sbsg40
(irule
ConstantPhoneme
p389
(dp390
S'p'
Vo
sbsg25
Nsba(irule
Rule
p391
(dp392
g15
(irule
Guard
p393
(dp394
g18
I00
sg19
(lp395
(irule
FeatureMatrix
p396
(dp397
g23
(lp398
sg25
Nsba(irule
FeatureMatrix
p399
(dp400
g23
(lp401
(I01
g311
tp402
asg25
Nsbasg29
I00
sg25
Nsg31
I01
sg32
S'L'
sbsg33
(irule
ConstantPhoneme
p403
(dp404
S'p'
Va
sbsg36
(irule
Guard
p405
(dp406
g18
I00
sg19
(lp407
sg29
I00
sg25
Nsg31
I00
sg32
S'R'
sbsg40
(irule
FeatureMatrix
p408
(dp409
g23
(lp410
(I00
S'high'
p411
tp412
a(I01
S'vowel'
p413
tp414
asg25
Nsbsg25
Nsba(irule
Rule
p415
(dp416
g15
(irule
Guard
p417
(dp418
g18
I00
sg19
(lp419
(irule
FeatureMatrix
p420
(dp421
g23
(lp422
sg25
Nsba(irule
FeatureMatrix
p423
(dp424
g23
(lp425
(I01
g311
tp426
asg25
Nsbasg29
I00
sg25
Nsg31
I01
sg32
S'L'
sbsg33
(irule
ConstantPhoneme
p427
(dp428
S'p'
Va
sbsg36
(irule
Guard
p429
(dp430
g18
I00
sg19
(lp431
sg29
I00
sg25
Nsg31
I00
sg32
S'R'
sbsg40
(irule
FeatureMatrix
p432
(dp433
g23
(lp434
(I01
S'back'
p435
tp436
a(I00
g411
tp437
asg25
Nsbsg25
Nsba(irule
Rule
p438
(dp439
g15
(irule
Guard
p440
(dp441
g18
I00
sg19
(lp442
(irule
FeatureMatrix
p443
(dp444
g23
(lp445
sg25
Nsba(irule
FeatureMatrix
p446
(dp447
g23
(lp448
(I01
g311
tp449
asg25
Nsbasg29
I00
sg25
Nsg31
I01
sg32
S'L'
sbsg33
(irule
ConstantPhoneme
p450
(dp451
S'p'
Va
sbsg36
(irule
Guard
p452
(dp453
g18
I00
sg19
(lp454
sg29
I00
sg25
Nsg31
I00
sg32
S'R'
sbsg40
(irule
FeatureMatrix
p455
(dp456
g23
(lp457
(I00
g411
tp458
a(I01
S'tense'
p459
tp460
asg25
Nsbsg25
Nsba(irule
Rule
p461
(dp462
g15
(irule
Guard
p463
(dp464
g18
I00
sg19
(lp465
(irule
FeatureMatrix
p466
(dp467
g23
(lp468
sg25
Nsba(irule
FeatureMatrix
p469
(dp470
g23
(lp471
(I01
g311
tp472
asg25
Nsbasg29
I00
sg25
Nsg31
I01
sg32
S'L'
sbsg33
(irule
ConstantPhoneme
p473
(dp474
S'p'
Va
sbsg36
(irule
Guard
p475
(dp476
g18
I00
sg19
(lp477
sg29
I00
sg25
Nsg31
I00
sg32
S'R'
sbsg40
(irule
FeatureMatrix
p478
(dp479
g23
(lp480
(I01
g346
tp481
a(I00
g411
tp482
asg25
Nsbsg25
Nsba(irule
Rule
p483
(dp484
g15
(irule
Guard
p485
(dp486
g18
I00
sg19
(lp487
(irule
FeatureMatrix
p488
(dp489
g23
(lp490
sg25
Nsba(irule
FeatureMatrix
p491
(dp492
g23
(lp493
(I00
g435
tp494
a(I00
g331
tp495
asg25
Nsbasg29
I00
sg25
Nsg31
I01
sg32
S'L'
sbsg33
(irule
ConstantPhoneme
p496
(dp497
S'p'
Va
sbsg36
(irule
Guard
p498
(dp499
g18
I00
sg19
(lp500
sg29
I00
sg25
Nsg31
I00
sg32
S'R'
sbsg40
(irule
ConstantPhoneme
p501
(dp502
S'p'
Vo
sbsg25
Nsba(irule
Rule
p503
(dp504
g15
(irule
Guard
p505
(dp506
g18
I00
sg19
(lp507
(irule
FeatureMatrix
p508
(dp509
g23
(lp510
(I00
g331
tp511
asg25
Nsba(irule
FeatureMatrix
p512
(dp513
g23
(lp514
(I01
g336
tp515
asg25
Nsbasg29
I00
sg25
Nsg31
I01
sg32
S'L'
sbsg33
(irule
ConstantPhoneme
p516
(dp517
S'p'
Va
sbsg36
(irule
Guard
p518
(dp519
g18
I00
sg19
(lp520
sg29
I00
sg25
Nsg31
I00
sg32
S'R'
sbsg40
(irule
ConstantPhoneme
p521
(dp522
S'p'
Vo
sbsg25
Nsba(irule
Rule
p523
(dp524
g15
(irule
Guard
p525
(dp526
g18
I00
sg19
(lp527
(irule
FeatureMatrix
p528
(dp529
g23
(lp530
sg25
Nsba(irule
FeatureMatrix
p531
(dp532
g23
(lp533
(I01
g311
tp534
a(I00
S'sibilant'
p535
tp536
asg25
Nsbasg29
I00
sg25
Nsg31
I01
sg32
S'L'
sbsg33
(irule
ConstantPhoneme
p537
(dp538
S'p'
Va
sbsg36
(irule
Guard
p539
(dp540
g18
I00
sg19
(lp541
sg29
I00
sg25
Nsg31
I00
sg32
S'R'
sbsg40
(irule
ConstantPhoneme
p542
(dp543
S'p'
Vo
sbsg25
Nsba(irule
Rule
p544
(dp545
g15
(irule
Guard
p546
(dp547
g18
I00
sg19
(lp548
(irule
FeatureMatrix
p549
(dp550
g23
(lp551
sg25
Nsba(irule
FeatureMatrix
p552
(dp553
g23
(lp554
(I01
g336
tp555
a(I01
g411
tp556
asg25
Nsbasg29
I00
sg25
Nsg31
I01
sg32
S'L'
sbsg33
(irule
ConstantPhoneme
p557
(dp558
S'p'
Va
sbsg36
(irule
Guard
p559
(dp560
g18
I00
sg19
(lp561
sg29
I00
sg25
Nsg31
I00
sg32
S'R'
sbsg40
(irule
FeatureMatrix
p562
(dp563
g23
(lp564
(I01
g346
tp565
asg25
Nsbsg25
Nsba(irule
Rule
p566
(dp567
g15
(irule
Guard
p568
(dp569
g18
I00
sg19
(lp570
(irule
FeatureMatrix
p571
(dp572
g23
(lp573
sg25
Nsba(irule
FeatureMatrix
p574
(dp575
g23
(lp576
(I01
g311
tp577
a(I00
S'retroflex'
p578
tp579
asg25
Nsbasg29
I00
sg25
Nsg31
I01
sg32
S'L'
sbsg33
(irule
ConstantPhoneme
p580
(dp581
S'p'
Va
sbsg36
(irule
Guard
p582
(dp583
g18
I00
sg19
(lp584
sg29
I00
sg25
Nsg31
I00
sg32
S'R'
sbsg40
(irule
ConstantPhoneme
p585
(dp586
S'p'
Vo
sbsg25
Nsba(irule
Rule
p587
(dp588
g15
(irule
Guard
p589
(dp590
g18
I00
sg19
(lp591
(irule
FeatureMatrix
p592
(dp593
g23
(lp594
(I00
g331
tp595
asg25
Nsba(irule
FeatureMatrix
p596
(dp597
g23
(lp598
(I01
g413
tp599
asg25
Nsbasg29
I00
sg25
Nsg31
I01
sg32
S'L'
sbsg33
(irule
ConstantPhoneme
p600
(dp601
S'p'
Va
sbsg36
(irule
Guard
p602
(dp603
g18
I00
sg19
(lp604
sg29
I00
sg25
Nsg31
I00
sg32
S'R'
sbsg40
(irule
FeatureMatrix
p605
(dp606
g23
(lp607
(I01
g346
tp608
asg25
Nsbsg25
Nsba(irule
Rule
p609
(dp610
g15
(irule
Guard
p611
(dp612
g18
I00
sg19
(lp613
(irule
FeatureMatrix
p614
(dp615
g23
(lp616
(I00
g331
tp617
asg25
Nsba(irule
FeatureMatrix
p618
(dp619
g23
(lp620
(I01
g459
tp621
asg25
Nsbasg29
I00
sg25
Nsg31
I01
sg32
S'L'
sbsg33
(irule
ConstantPhoneme
p622
(dp623
S'p'
Va
sbsg36
(irule
Guard
p624
(dp625
g18
I00
sg19
(lp626
sg29
I00
sg25
Nsg31
I00
sg32
S'R'
sbsg40
(irule
FeatureMatrix
p627
(dp628
g23
(lp629
(I01
g346
tp630
asg25
Nsbsg25
Nsba(irule
Rule
p631
(dp632
g15
(irule
Guard
p633
(dp634
g18
I00
sg19
(lp635
(irule
FeatureMatrix
p636
(dp637
g23
(lp638
(I00
S'sonorant'
p639
tp640
asg25
Nsba(irule
FeatureMatrix
p641
(dp642
g23
(lp643
(I01
g360
tp644
asg25
Nsbasg29
I00
sg25
Nsg31
I01
sg32
S'L'
sbsg33
(irule
ConstantPhoneme
p645
(dp646
S'p'
Va
sbsg36
(irule
Guard
p647
(dp648
g18
I00
sg19
(lp649
sg29
I00
sg25
Nsg31
I00
sg32
S'R'
sbsg40
(irule
ConstantPhoneme
p650
(dp651
S'p'
Vo
sbsg25
Nsba(irule
Rule
p652
(dp653
g15
(irule
Guard
p654
(dp655
g18
I00
sg19
(lp656
(irule
FeatureMatrix
p657
(dp658
g23
(lp659
(I00
g639
tp660
asg25
Nsba(irule
FeatureMatrix
p661
(dp662
g23
(lp663
(I01
g336
tp664
asg25
Nsbasg29
I00
sg25
Nsg31
I01
sg32
S'L'
sbsg33
(irule
ConstantPhoneme
p665
(dp666
S'p'
Va
sbsg36
(irule
Guard
p667
(dp668
g18
I00
sg19
(lp669
sg29
I00
sg25
Nsg31
I00
sg32
S'R'
sbsg40
(irule
FeatureMatrix
p670
(dp671
g23
(lp672
(I01
g346
tp673
asg25
Nsbsg25
Nsba(irule
Rule
p674
(dp675
g15
(irule
Guard
p676
(dp677
g18
I00
sg19
(lp678
(irule
FeatureMatrix
p679
(dp680
g23
(lp681
(I00
g639
tp682
asg25
Nsba(irule
FeatureMatrix
p683
(dp684
g23
(lp685
(I01
g336
tp686
asg25
Nsbasg29
I00
sg25
Nsg31
I01
sg32
S'L'
sbsg33
(irule
ConstantPhoneme
p687
(dp688
S'p'
Va
sbsg36
(irule
Guard
p689
(dp690
g18
I00
sg19
(lp691
sg29
I00
sg25
Nsg31
I00
sg32
S'R'
sbsg40
(irule
ConstantPhoneme
p692
(dp693
S'p'
Vo
sbsg25
Nsba(irule
Rule
p694
(dp695
g15
(irule
Guard
p696
(dp697
g18
I00
sg19
(lp698
(irule
FeatureMatrix
p699
(dp700
g23
(lp701
(I00
g578
tp702
asg25
Nsba(irule
FeatureMatrix
p703
(dp704
g23
(lp705
(I01
g311
tp706
asg25
Nsbasg29
I00
sg25
Nsg31
I01
sg32
S'L'
sbsg33
(irule
ConstantPhoneme
p707
(dp708
S'p'
Va
sbsg36
(irule
Guard
p709
(dp710
g18
I00
sg19
(lp711
sg29
I00
sg25
Nsg31
I00
sg32
S'R'
sbsg40
(irule
ConstantPhoneme
p712
(dp713
S'p'
Vo
sbsg25
Nsba(irule
Rule
p714
(dp715
g15
(irule
Guard
p716
(dp717
g18
I00
sg19
(lp718
(irule
FeatureMatrix
p719
(dp720
g23
(lp721
(I00
g331
tp722
asg25
Nsba(irule
FeatureMatrix
p723
(dp724
g23
(lp725
(I01
g360
tp726
asg25
Nsbasg29
I00
sg25
Nsg31
I01
sg32
S'L'
sbsg33
(irule
ConstantPhoneme
p727
(dp728
S'p'
Va
sbsg36
(irule
Guard
p729
(dp730
g18
I00
sg19
(lp731
sg29
I00
sg25
Nsg31
I00
sg32
S'R'
sbsg40
(irule
ConstantPhoneme
p732
(dp733
S'p'
Vo
sbsg25
Nsba(irule
Rule
p734
(dp735
g15
(irule
Guard
p736
(dp737
g18
I00
sg19
(lp738
(irule
FeatureMatrix
p739
(dp740
g23
(lp741
sg25
Nsba(irule
FeatureMatrix
p742
(dp743
g23
(lp744
(I01
g311
tp745
a(I00
g413
tp746
asg25
Nsbasg29
I00
sg25
Nsg31
I01
sg32
S'L'
sbsg33
(irule
ConstantPhoneme
p747
(dp748
S'p'
Va
sbsg36
(irule
Guard
p749
(dp750
g18
I00
sg19
(lp751
sg29
I00
sg25
Nsg31
I00
sg32
S'R'
sbsg40
(irule
ConstantPhoneme
p752
(dp753
S'p'
Vo
sbsg25
Nsba(irule
Rule
p754
(dp755
g15
(irule
Guard
p756
(dp757
g18
I00
sg19
(lp758
(irule
FeatureMatrix
p759
(dp760
g23
(lp761
(I00
g331
tp762
asg25
Nsba(irule
FeatureMatrix
p763
(dp764
g23
(lp765
(I01
g413
tp766
asg25
Nsbasg29
I00
sg25
Nsg31
I01
sg32
S'L'
sbsg33
(irule
ConstantPhoneme
p767
(dp768
S'p'
Va
sbsg36
(irule
Guard
p769
(dp770
g18
I00
sg19
(lp771
sg29
I00
sg25
Nsg31
I00
sg32
S'R'
sbsg40
(irule
ConstantPhoneme
p772
(dp773
S'p'
Vo
sbsg25
Nsba(irule
Rule
p774
(dp775
g15
(irule
Guard
p776
(dp777
g18
I00
sg19
(lp778
(irule
FeatureMatrix
p779
(dp780
g23
(lp781
(I00
g331
tp782
asg25
Nsba(irule
FeatureMatrix
p783
(dp784
g23
(lp785
(I01
g459
tp786
asg25
Nsbasg29
I00
sg25
Nsg31
I01
sg32
S'L'
sbsg33
(irule
ConstantPhoneme
p787
(dp788
S'p'
Va
sbsg36
(irule
Guard
p789
(dp790
g18
I00
sg19
(lp791
sg29
I00
sg25
Nsg31
I00
sg32
S'R'
sbsg40
(irule
ConstantPhoneme
p792
(dp793
S'p'
Vo
sbsg25
Nsba(irule
Rule
p794
(dp795
g15
(irule
Guard
p796
(dp797
g18
I00
sg19
(lp798
(irule
FeatureMatrix
p799
(dp800
g23
(lp801
sg25
Nsba(irule
FeatureMatrix
p802
(dp803
g23
(lp804
(I01
g336
tp805
a(I01
g411
tp806
asg25
Nsbasg29
I00
sg25
Nsg31
I01
sg32
S'L'
sbsg33
(irule
ConstantPhoneme
p807
(dp808
S'p'
Va
sbsg36
(irule
Guard
p809
(dp810
g18
I00
sg19
(lp811
sg29
I00
sg25
Nsg31
I00
sg32
S'R'
sbsg40
(irule
ConstantPhoneme
p812
(dp813
S'p'
Vo
sbsg25
Nsba(irule
Rule
p814
(dp815
g15
(irule
Guard
p816
(dp817
g18
I00
sg19
(lp818
(irule
FeatureMatrix
p819
(dp820
g23
(lp821
sg25
Nsba(irule
FeatureMatrix
p822
(dp823
g23
(lp824
(I00
S'nasal'
p825
tp826
a(I01
g311
tp827
asg25
Nsbasg29
I00
sg25
Nsg31
I01
sg32
S'L'
sbsg33
(irule
ConstantPhoneme
p828
(dp829
S'p'
Va
sbsg36
(irule
Guard
p830
(dp831
g18
I00
sg19
(lp832
sg29
I00
sg25
Nsg31
I00
sg32
S'R'
sbsg40
(irule
ConstantPhoneme
p833
(dp834
S'p'
Vo
sbsg25
Nsba(irule
Rule
p835
(dp836
g15
(irule
Guard
p837
(dp838
g18
I00
sg19
(lp839
(irule
FeatureMatrix
p840
(dp841
g23
(lp842
sg25
Nsba(irule
FeatureMatrix
p843
(dp844
g23
(lp845
(I01
g311
tp846
a(I00
g459
tp847
asg25
Nsbasg29
I00
sg25
Nsg31
I01
sg32
S'L'
sbsg33
(irule
ConstantPhoneme
p848
(dp849
S'p'
Va
sbsg36
(irule
Guard
p850
(dp851
g18
I00
sg19
(lp852
sg29
I00
sg25
Nsg31
I00
sg32
S'R'
sbsg40
(irule
ConstantPhoneme
p853
(dp854
S'p'
Vo
sbsg25
Nsba(irule
Rule
p855
(dp856
g15
(irule
Guard
p857
(dp858
g18
I00
sg19
(lp859
(irule
FeatureMatrix
p860
(dp861
g23
(lp862
(I00
g331
tp863
asg25
Nsba(irule
FeatureMatrix
p864
(dp865
g23
(lp866
(I01
g311
tp867
asg25
Nsbasg29
I00
sg25
Nsg31
I01
sg32
S'L'
sbsg33
(irule
ConstantPhoneme
p868
(dp869
S'p'
Va
sbsg36
(irule
Guard
p870
(dp871
g18
I00
sg19
(lp872
sg29
I00
sg25
Nsg31
I00
sg32
S'R'
sbsg40
(irule
ConstantPhoneme
p873
(dp874
S'p'
Vo
sbsg25
Nsba(irule
Rule
p875
(dp876
g15
(irule
Guard
p877
(dp878
g18
I00
sg19
(lp879
(irule
FeatureMatrix
p880
(dp881
g23
(lp882
(I00
S'palletized'
p883
tp884
asg25
Nsba(irule
FeatureMatrix
p885
(dp886
g23
(lp887
(I01
g311
tp888
asg25
Nsbasg29
I00
sg25
Nsg31
I01
sg32
S'L'
sbsg33
(irule
ConstantPhoneme
p889
(dp890
S'p'
Va
sbsg36
(irule
Guard
p891
(dp892
g18
I00
sg19
(lp893
sg29
I00
sg25
Nsg31
I00
sg32
S'R'
sbsg40
(irule
ConstantPhoneme
p894
(dp895
S'p'
Vo
sbsg25
Nsba(irule
Rule
p896
(dp897
g15
(irule
Guard
p898
(dp899
g18
I00
sg19
(lp900
(irule
FeatureMatrix
p901
(dp902
g23
(lp903
(I00
g535
tp904
asg25
Nsba(irule
FeatureMatrix
p905
(dp906
g23
(lp907
(I01
g311
tp908
asg25
Nsbasg29
I00
sg25
Nsg31
I01
sg32
S'L'
sbsg33
(irule
ConstantPhoneme
p909
(dp910
S'p'
Va
sbsg36
(irule
Guard
p911
(dp912
g18
I00
sg19
(lp913
sg29
I00
sg25
Nsg31
I00
sg32
S'R'
sbsg40
(irule
ConstantPhoneme
p914
(dp915
S'p'
Vo
sbsg25
Nsba(irule
Rule
p916
(dp917
g15
(irule
Guard
p918
(dp919
g18
I00
sg19
(lp920
(irule
FeatureMatrix
p921
(dp922
g23
(lp923
(I00
g311
tp924
asg25
Nsba(irule
FeatureMatrix
p925
(dp926
g23
(lp927
(I01
g311
tp928
asg25
Nsbasg29
I00
sg25
Nsg31
I01
sg32
S'L'
sbsg33
(irule
ConstantPhoneme
p929
(dp930
S'p'
Va
sbsg36
(irule
Guard
p931
(dp932
g18
I00
sg19
(lp933
sg29
I00
sg25
Nsg31
I00
sg32
S'R'
sbsg40
(irule
ConstantPhoneme
p934
(dp935
S'p'
Vo
sbsg25
Nsba(irule
Rule
p936
(dp937
g15
(irule
Guard
p938
(dp939
g18
I00
sg19
(lp940
(irule
FeatureMatrix
p941
(dp942
g23
(lp943
sg25
Nsba(irule
FeatureMatrix
p944
(dp945
g23
(lp946
(I01
g311
tp947
a(I00
g331
tp948
asg25
Nsbasg29
I00
sg25
Nsg31
I01
sg32
S'L'
sbsg33
(irule
ConstantPhoneme
p949
(dp950
S'p'
Va
sbsg36
(irule
Guard
p951
(dp952
g18
I00
sg19
(lp953
sg29
I00
sg25
Nsg31
I00
sg32
S'R'
sbsg40
(irule
ConstantPhoneme
p954
(dp955
S'p'
Vo
sbsg25
Nsba(irule
Rule
p956
(dp957
g15
(irule
Guard
p958
(dp959
g18
I00
sg19
(lp960
(irule
FeatureMatrix
p961
(dp962
g23
(lp963
sg25
Nsba(irule
FeatureMatrix
p964
(dp965
g23
(lp966
(I00
g346
tp967
a(I01
g311
tp968
asg25
Nsbasg29
I00
sg25
Nsg31
I01
sg32
S'L'
sbsg33
(irule
ConstantPhoneme
p969
(dp970
S'p'
Va
sbsg36
(irule
Guard
p971
(dp972
g18
I00
sg19
(lp973
sg29
I00
sg25
Nsg31
I00
sg32
S'R'
sbsg40
(irule
ConstantPhoneme
p974
(dp975
S'p'
Vo
sbsg25
Nsba(irule
Rule
p976
(dp977
g15
(irule
Guard
p978
(dp979
g18
I00
sg19
(lp980
(irule
FeatureMatrix
p981
(dp982
g23
(lp983
(I00
g825
tp984
asg25
Nsba(irule
FeatureMatrix
p985
(dp986
g23
(lp987
(I01
g311
tp988
asg25
Nsbasg29
I00
sg25
Nsg31
I01
sg32
S'L'
sbsg33
(irule
ConstantPhoneme
p989
(dp990
S'p'
Va
sbsg36
(irule
Guard
p991
(dp992
g18
I00
sg19
(lp993
sg29
I00
sg25
Nsg31
I00
sg32
S'R'
sbsg40
(irule
ConstantPhoneme
p994
(dp995
S'p'
Vo
sbsg25
Nsba(irule
Rule
p996
(dp997
g15
(irule
Guard
p998
(dp999
g18
I00
sg19
(lp1000
(irule
FeatureMatrix
p1001
(dp1002
g23
(lp1003
sg25
Nsba(irule
FeatureMatrix
p1004
(dp1005
g23
(lp1006
(I00
S'long'
p1007
tp1008
a(I01
g311
tp1009
asg25
Nsbasg29
I00
sg25
Nsg31
I01
sg32
S'L'
sbsg33
(irule
ConstantPhoneme
p1010
(dp1011
S'p'
Va
sbsg36
(irule
Guard
p1012
(dp1013
g18
I00
sg19
(lp1014
sg29
I00
sg25
Nsg31
I00
sg32
S'R'
sbsg40
(irule
ConstantPhoneme
p1015
(dp1016
S'p'
Vo
sbsg25
Nsba(irule
Rule
p1017
(dp1018
g15
(irule
Guard
p1019
(dp1020
g18
I00
sg19
(lp1021
(irule
FeatureMatrix
p1022
(dp1023
g23
(lp1024
sg25
Nsba(irule
FeatureMatrix
p1025
(dp1026
g23
(lp1027
(I00
S'glide'
p1028
tp1029
a(I01
g311
tp1030
asg25
Nsbasg29
I00
sg25
Nsg31
I01
sg32
S'L'
sbsg33
(irule
ConstantPhoneme
p1031
(dp1032
S'p'
Va
sbsg36
(irule
Guard
p1033
(dp1034
g18
I00
sg19
(lp1035
sg29
I00
sg25
Nsg31
I00
sg32
S'R'
sbsg40
(irule
ConstantPhoneme
p1036
(dp1037
S'p'
Vo
sbsg25
Nsba(irule
Rule
p1038
(dp1039
g15
(irule
Guard
p1040
(dp1041
g18
I00
sg19
(lp1042
(irule
FeatureMatrix
p1043
(dp1044
g23
(lp1045
sg25
Nsba(irule
FeatureMatrix
p1046
(dp1047
g23
(lp1048
(I00
g435
tp1049
a(I01
g311
tp1050
asg25
Nsbasg29
I00
sg25
Nsg31
I01
sg32
S'L'
sbsg33
(irule
ConstantPhoneme
p1051
(dp1052
S'p'
Va
sbsg36
(irule
Guard
p1053
(dp1054
g18
I00
sg19
(lp1055
sg29
I00
sg25
Nsg31
I00
sg32
S'R'
sbsg40
(irule
ConstantPhoneme
p1056
(dp1057
S'p'
Vo
sbsg25
Nsba(irule
Rule
p1058
(dp1059
g15
(irule
Guard
p1060
(dp1061
g18
I00
sg19
(lp1062
(irule
FeatureMatrix
p1063
(dp1064
g23
(lp1065
(I00
S'lateral'
tp1066
asg25
Nsba(irule
FeatureMatrix
p1067
(dp1068
g23
(lp1069
(I01
g311
tp1070
asg25
Nsbasg29
I00
sg25
Nsg31
I01
sg32
S'L'
sbsg33
(irule
ConstantPhoneme
p1071
(dp1072
S'p'
Va
sbsg36
(irule
Guard
p1073
(dp1074
g18
I00
sg19
(lp1075
sg29
I00
sg25
Nsg31
I00
sg32
S'R'
sbsg40
(irule
ConstantPhoneme
p1076
(dp1077
S'p'
Vo
sbsg25
Nsba(irule
Rule
p1078
(dp1079
g15
(irule
Guard
p1080
(dp1081
g18
I00
sg19
(lp1082
(irule
FeatureMatrix
p1083
(dp1084
g23
(lp1085
sg25
Nsba(irule
FeatureMatrix
p1086
(dp1087
g23
(lp1088
(I00
g411
tp1089
a(I01
g311
tp1090
asg25
Nsbasg29
I00
sg25
Nsg31
I01
sg32
S'L'
sbsg33
(irule
ConstantPhoneme
p1091
(dp1092
S'p'
Va
sbsg36
(irule
Guard
p1093
(dp1094
g18
I00
sg19
(lp1095
sg29
I00
sg25
Nsg31
I00
sg32
S'R'
sbsg40
(irule
ConstantPhoneme
p1096
(dp1097
S'p'
Vo
sbsg25
Nsba(irule
Rule
p1098
(dp1099
g15
(irule
Guard
p1100
(dp1101
g18
I00
sg19
(lp1102
(irule
FeatureMatrix
p1103
(dp1104
g23
(lp1105
sg25
Nsba(irule
FeatureMatrix
p1106
(dp1107
g23
(lp1108
(I00
g883
tp1109
a(I01
g311
tp1110
asg25
Nsbasg29
I00
sg25
Nsg31
I01
sg32
S'L'
sbsg33
(irule
ConstantPhoneme
p1111
(dp1112
S'p'
Va
sbsg36
(irule
Guard
p1113
(dp1114
g18
I00
sg19
(lp1115
sg29
I00
sg25
Nsg31
I00
sg32
S'R'
sbsg40
(irule
ConstantPhoneme
p1116
(dp1117
S'p'
Vo
sbsg25
Nsba(irule
Rule
p1118
(dp1119
g15
(irule
Guard
p1120
(dp1121
g18
I00
sg19
(lp1122
(irule
FeatureMatrix
p1123
(dp1124
g23
(lp1125
(I00
S'liquid'
p1126
tp1127
asg25
Nsba(irule
FeatureMatrix
p1128
(dp1129
g23
(lp1130
(I01
g311
tp1131
asg25
Nsbasg29
I00
sg25
Nsg31
I01
sg32
S'L'
sbsg33
(irule
ConstantPhoneme
p1132
(dp1133
S'p'
Va
sbsg36
(irule
Guard
p1134
(dp1135
g18
I00
sg19
(lp1136
sg29
I00
sg25
Nsg31
I00
sg32
S'R'
sbsg40
(irule
ConstantPhoneme
p1137
(dp1138
S'p'
Vo
sbsg25
Nsba(irule
Rule
p1139
(dp1140
g15
(irule
Guard
p1141
(dp1142
g18
I00
sg19
(lp1143
(irule
FeatureMatrix
p1144
(dp1145
g23
(lp1146
(I00
g1028
tp1147
asg25
Nsba(irule
FeatureMatrix
p1148
(dp1149
g23
(lp1150
(I01
g311
tp1151
asg25
Nsbasg29
I00
sg25
Nsg31
I01
sg32
S'L'
sbsg33
(irule
ConstantPhoneme
p1152
(dp1153
S'p'
Va
sbsg36
(irule
Guard
p1154
(dp1155
g18
I00
sg19
(lp1156
sg29
I00
sg25
Nsg31
I00
sg32
S'R'
sbsg40
(irule
ConstantPhoneme
p1157
(dp1158
S'p'
Vo
sbsg25
Nsba(irule
Rule
p1159
(dp1160
g15
(irule
Guard
p1161
(dp1162
g18
I00
sg19
(lp1163
(irule
FeatureMatrix
p1164
(dp1165
g23
(lp1166
(I00
g1007
tp1167
asg25
Nsba(irule
FeatureMatrix
p1168
(dp1169
g23
(lp1170
(I01
g311
tp1171
asg25
Nsbasg29
I00
sg25
Nsg31
I01
sg32
S'L'
sbsg33
(irule
ConstantPhoneme
p1172
(dp1173
S'p'
Va
sbsg36
(irule
Guard
p1174
(dp1175
g18
I00
sg19
(lp1176
sg29
I00
sg25
Nsg31
I00
sg32
S'R'
sbsg40
(irule
ConstantPhoneme
p1177
(dp1178
S'p'
Vo
sbsg25
Nsba(irule
Rule
p1179
(dp1180
g15
(irule
Guard
p1181
(dp1182
g18
I00
sg19
(lp1183
(irule
FeatureMatrix
p1184
(dp1185
g23
(lp1186
sg25
Nsba(irule
FeatureMatrix
p1187
(dp1188
g23
(lp1189
(I01
g311
tp1190
asg25
Nsbasg29
I00
sg25
Nsg31
I01
sg32
S'L'
sbsg33
(irule
FeatureMatrix
p1191
(dp1192
g23
(lp1193
(I00
g346
tp1194
a(I01
g336
tp1195
a(I01
g331
tp1196
asg25
Nsbsg36
(irule
Guard
p1197
(dp1198
g18
I00
sg19
(lp1199
sg29
I00
sg25
Nsg31
I00
sg32
S'R'
sbsg40
(irule
ConstantPhoneme
p1200
(dp1201
S'p'
Vo
sbsg25
Nsba(irule
Rule
p1202
(dp1203
g15
(irule
Guard
p1204
(dp1205
g18
I00
sg19
(lp1206
(irule
FeatureMatrix
p1207
(dp1208
g23
(lp1209
(I00
g336
tp1210
asg25
Nsba(irule
FeatureMatrix
p1211
(dp1212
g23
(lp1213
(I00
g346
tp1214
a(I01
g360
tp1215
asg25
Nsbasg29
I00
sg25
Nsg31
I01
sg32
S'L'
sbsg33
(irule
ConstantPhoneme
p1216
(dp1217
S'p'
Va
sbsg36
(irule
Guard
p1218
(dp1219
g18
I00
sg19
(lp1220
sg29
I00
sg25
Nsg31
I00
sg32
S'R'
sbsg40
(irule
ConstantPhoneme
p1221
(dp1222
S'p'
Vo
sbsg25
Nsba(irule
Rule
p1223
(dp1224
g15
(irule
Guard
p1225
(dp1226
g18
I00
sg19
(lp1227
(irule
FeatureMatrix
p1228
(dp1229
g23
(lp1230
sg25
Nsba(irule
FeatureMatrix
p1231
(dp1232
g23
(lp1233
(I01
g311
tp1234
asg25
Nsbasg29
I00
sg25
Nsg31
I01
sg32
S'L'
sbsg33
(irule
ConstantPhoneme
p1235
(dp1236
S'p'
Va
sbsg36
(irule
Guard
p1237
(dp1238
g18
I00
sg19
(lp1239
sg29
I00
sg25
Nsg31
I00
sg32
S'R'
sbsg40
(irule
FeatureMatrix
p1240
(dp1241
g23
(lp1242
(I00
g1007
tp1243
a(I01
g346
tp1244
a(I00
g411
tp1245
asg25
Nsbsg25
Nsba(irule
Rule
p1246
(dp1247
g15
(irule
Guard
p1248
(dp1249
g18
I00
sg19
(lp1250
(irule
FeatureMatrix
p1251
(dp1252
g23
(lp1253
(I00
g331
tp1254
asg25
Nsba(irule
FeatureMatrix
p1255
(dp1256
g23
(lp1257
(I00
g1007
tp1258
a(I01
g360
tp1259
asg25
Nsbasg29
I00
sg25
Nsg31
I01
sg32
S'L'
sbsg33
(irule
ConstantPhoneme
p1260
(dp1261
S'p'
Va
sbsg36
(irule
Guard
p1262
(dp1263
g18
I00
sg19
(lp1264
sg29
I00
sg25
Nsg31
I00
sg32
S'R'
sbsg40
(irule
ConstantPhoneme
p1265
(dp1266
S'p'
Vo
sbsg25
Nsba(irule
Rule
p1267
(dp1268
g15
(irule
Guard
p1269
(dp1270
g18
I00
sg19
(lp1271
(irule
FeatureMatrix
p1272
(dp1273
g23
(lp1274
sg25
Nsba(irule
FeatureMatrix
p1275
(dp1276
g23
(lp1277
(I01
g311
tp1278
asg25
Nsbasg29
I00
sg25
Nsg31
I01
sg32
S'L'
sbsg33
(irule
FeatureMatrix
p1279
(dp1280
g23
(lp1281
(I00
g1007
tp1282
a(I00
g346
tp1283
a(I01
g331
tp1284
asg25
Nsbsg36
(irule
Guard
p1285
(dp1286
g18
I00
sg19
(lp1287
sg29
I00
sg25
Nsg31
I00
sg32
S'R'
sbsg40
(irule
ConstantPhoneme
p1288
(dp1289
S'p'
Vo
sbsg25
Nsba(irule
Rule
p1290
(dp1291
g15
(irule
Guard
p1292
(dp1293
g18
I00
sg19
(lp1294
(irule
FeatureMatrix
p1295
(dp1296
g23
(lp1297
(I00
g346
tp1298
asg25
Nsba(irule
FeatureMatrix
p1299
(dp1300
g23
(lp1301
(I00
g346
tp1302
a(I01
g360
tp1303
asg25
Nsbasg29
I00
sg25
Nsg31
I01
sg32
S'L'
sbsg33
(irule
ConstantPhoneme
p1304
(dp1305
S'p'
Va
sbsg36
(irule
Guard
p1306
(dp1307
g18
I00
sg19
(lp1308
sg29
I00
sg25
Nsg31
I00
sg32
S'R'
sbsg40
(irule
ConstantPhoneme
p1309
(dp1310
S'p'
Vo
sbsg25
Nsba(irule
Rule
p1311
(dp1312
g15
(irule
Guard
p1313
(dp1314
g18
I00
sg19
(lp1315
(irule
FeatureMatrix
p1316
(dp1317
g23
(lp1318
(I00
g1007
tp1319
asg25
Nsba(irule
FeatureMatrix
p1320
(dp1321
g23
(lp1322
(I00
g346
tp1323
a(I01
g360
tp1324
asg25
Nsbasg29
I00
sg25
Nsg31
I01
sg32
S'L'
sbsg33
(irule
ConstantPhoneme
p1325
(dp1326
S'p'
Va
sbsg36
(irule
Guard
p1327
(dp1328
g18
I00
sg19
(lp1329
sg29
I00
sg25
Nsg31
I00
sg32
S'R'
sbsg40
(irule
ConstantPhoneme
p1330
(dp1331
S'p'
Vo
sbsg25
Nsba(irule
Rule
p1332
(dp1333
g15
(irule
Guard
p1334
(dp1335
g18
I00
sg19
(lp1336
(irule
FeatureMatrix
p1337
(dp1338
g23
(lp1339
(I00
g535
tp1340
a(I00
g578
tp1341
asg25
Nsba(irule
FeatureMatrix
p1342
(dp1343
g23
(lp1344
(I01
g311
tp1345
asg25
Nsbasg29
I00
sg25
Nsg31
I01
sg32
S'L'
sbsg33
(irule
ConstantPhoneme
p1346
(dp1347
S'p'
Va
sbsg36
(irule
Guard
p1348
(dp1349
g18
I00
sg19
(lp1350
sg29
I00
sg25
Nsg31
I00
sg32
S'R'
sbsg40
(irule
ConstantPhoneme
p1351
(dp1352
S'p'
Vo
sbsg25
Nsba(irule
Rule
p1353
(dp1354
g15
(irule
Guard
p1355
(dp1356
g18
I00
sg19
(lp1357
(irule
FeatureMatrix
p1358
(dp1359
g23
(lp1360
(I00
g331
tp1361
asg25
Nsba(irule
FeatureMatrix
p1362
(dp1363
g23
(lp1364
(I00
S'anterior'
p1365
tp1366
a(I01
g360
tp1367
asg25
Nsbasg29
I00
sg25
Nsg31
I01
sg32
S'L'
sbsg33
(irule
ConstantPhoneme
p1368
(dp1369
S'p'
Va
sbsg36
(irule
Guard
p1370
(dp1371
g18
I00
sg19
(lp1372
sg29
I00
sg25
Nsg31
I00
sg32
S'R'
sbsg40
(irule
FeatureMatrix
p1373
(dp1374
g23
(lp1375
(I01
g346
tp1376
asg25
Nsbsg25
Nsba(irule
Rule
p1377
(dp1378
g15
(irule
Guard
p1379
(dp1380
g18
I00
sg19
(lp1381
(irule
FeatureMatrix
p1382
(dp1383
g23
(lp1384
sg25
Nsba(irule
FeatureMatrix
p1385
(dp1386
g23
(lp1387
(I00
g1007
tp1388
a(I00
g346
tp1389
a(I01
g360
tp1390
asg25
Nsbasg29
I00
sg25
Nsg31
I01
sg32
S'L'
sbsg33
(irule
ConstantPhoneme
p1391
(dp1392
S'p'
Va
sbsg36
(irule
Guard
p1393
(dp1394
g18
I00
sg19
(lp1395
sg29
I00
sg25
Nsg31
I00
sg32
S'R'
sbsg40
(irule
ConstantPhoneme
p1396
(dp1397
S'p'
Vo
sbsg25
Nsba(irule
Rule
p1398
(dp1399
g15
(irule
Guard
p1400
(dp1401
g18
I00
sg19
(lp1402
(irule
FeatureMatrix
p1403
(dp1404
g23
(lp1405
(I00
g639
tp1406
asg25
Nsba(irule
FeatureMatrix
p1407
(dp1408
g23
(lp1409
(I00
g1365
tp1410
a(I01
g360
tp1411
asg25
Nsbasg29
I00
sg25
Nsg31
I01
sg32
S'L'
sbsg33
(irule
ConstantPhoneme
p1412
(dp1413
S'p'
Va
sbsg36
(irule
Guard
p1414
(dp1415
g18
I00
sg19
(lp1416
sg29
I00
sg25
Nsg31
I00
sg32
S'R'
sbsg40
(irule
FeatureMatrix
p1417
(dp1418
g23
(lp1419
(I01
g346
tp1420
asg25
Nsbsg25
Nsba(irule
Rule
p1421
(dp1422
g15
(irule
Guard
p1423
(dp1424
g18
I00
sg19
(lp1425
(irule
FeatureMatrix
p1426
(dp1427
g23
(lp1428
sg25
Nsba(irule
FeatureMatrix
p1429
(dp1430
g23
(lp1431
(I00
g346
tp1432
a(I00
g311
tp1433
a(I01
g360
tp1434
asg25
Nsbasg29
I00
sg25
Nsg31
I01
sg32
S'L'
sbsg33
(irule
ConstantPhoneme
p1435
(dp1436
S'p'
Va
sbsg36
(irule
Guard
p1437
(dp1438
g18
I00
sg19
(lp1439
sg29
I00
sg25
Nsg31
I00
sg32
S'R'
sbsg40
(irule
FeatureMatrix
p1440
(dp1441
g23
(lp1442
(I01
g346
tp1443
asg25
Nsbsg25
Nsba(irule
Rule
p1444
(dp1445
g15
(irule
Guard
p1446
(dp1447
g18
I00
sg19
(lp1448
(irule
FeatureMatrix
p1449
(dp1450
g23
(lp1451
sg25
Nsba(irule
FeatureMatrix
p1452
(dp1453
g23
(lp1454
(I00
g346
tp1455
a(I01
g360
tp1456
asg25
Nsbasg29
I00
sg25
Nsg31
I01
sg32
S'L'
sbsg33
(irule
ConstantPhoneme
p1457
(dp1458
S'p'
Va
sbsg36
(irule
Guard
p1459
(dp1460
g18
I00
sg19
(lp1461
sg29
I00
sg25
Nsg31
I00
sg32
S'R'
sbsg40
(irule
FeatureMatrix
p1462
(dp1463
g23
(lp1464
(I01
g346
tp1465
a(I00
g411
tp1466
asg25
Nsbsg25
Nsba(irule
Rule
p1467
(dp1468
g15
(irule
Guard
p1469
(dp1470
g18
I00
sg19
(lp1471
(irule
FeatureMatrix
p1472
(dp1473
g23
(lp1474
(I00
g639
tp1475
asg25
Nsba(irule
FeatureMatrix
p1476
(dp1477
g23
(lp1478
(I00
g1365
tp1479
a(I01
g360
tp1480
asg25
Nsbasg29
I00
sg25
Nsg31
I01
sg32
S'L'
sbsg33
(irule
ConstantPhoneme
p1481
(dp1482
S'p'
Va
sbsg36
(irule
Guard
p1483
(dp1484
g18
I00
sg19
(lp1485
sg29
I00
sg25
Nsg31
I00
sg32
S'R'
sbsg40
(irule
ConstantPhoneme
p1486
(dp1487
S'p'
Vo
sbsg25
Nsba(irule
Rule
p1488
(dp1489
g15
(irule
Guard
p1490
(dp1491
g18
I00
sg19
(lp1492
(irule
FeatureMatrix
p1493
(dp1494
g23
(lp1495
sg25
Nsba(irule
FeatureMatrix
p1496
(dp1497
g23
(lp1498
(I00
g346
tp1499
a(I00
g1028
tp1500
a(I01
g360
tp1501
asg25
Nsbasg29
I00
sg25
Nsg31
I01
sg32
S'L'
sbsg33
(irule
ConstantPhoneme
p1502
(dp1503
S'p'
Va
sbsg36
(irule
Guard
p1504
(dp1505
g18
I00
sg19
(lp1506
sg29
I00
sg25
Nsg31
I00
sg32
S'R'
sbsg40
(irule
ConstantPhoneme
p1507
(dp1508
S'p'
Vo
sbsg25
Nsba(irule
Rule
p1509
(dp1510
g15
(irule
Guard
p1511
(dp1512
g18
I00
sg19
(lp1513
(irule
FeatureMatrix
p1514
(dp1515
g23
(lp1516
sg25
Nsba(irule
FeatureMatrix
p1517
(dp1518
g23
(lp1519
(I00
g346
tp1520
a(I00
g1126
tp1521
a(I01
g360
tp1522
asg25
Nsbasg29
I00
sg25
Nsg31
I01
sg32
S'L'
sbsg33
(irule
ConstantPhoneme
p1523
(dp1524
S'p'
Va
sbsg36
(irule
Guard
p1525
(dp1526
g18
I00
sg19
(lp1527
sg29
I00
sg25
Nsg31
I00
sg32
S'R'
sbsg40
(irule
ConstantPhoneme
p1528
(dp1529
S'p'
Vo
sbsg25
Nsba(irule
Rule
p1530
(dp1531
g15
(irule
Guard
p1532
(dp1533
g18
I00
sg19
(lp1534
(irule
FeatureMatrix
p1535
(dp1536
g23
(lp1537
(I00
g336
tp1538
a(I00
g331
tp1539
asg25
Nsba(irule
FeatureMatrix
p1540
(dp1541
g23
(lp1542
(I01
g336
tp1543
asg25
Nsbasg29
I00
sg25
Nsg31
I01
sg32
S'L'
sbsg33
(irule
ConstantPhoneme
p1544
(dp1545
S'p'
Va
sbsg36
(irule
Guard
p1546
(dp1547
g18
I00
sg19
(lp1548
sg29
I00
sg25
Nsg31
I00
sg32
S'R'
sbsg40
(irule
FeatureMatrix
p1549
(dp1550
g23
(lp1551
(I01
g346
tp1552
asg25
Nsbsg25
Nsba(irule
Rule
p1553
(dp1554
g15
(irule
Guard
p1555
(dp1556
g18
I00
sg19
(lp1557
(irule
FeatureMatrix
p1558
(dp1559
g23
(lp1560
sg25
Nsba(irule
FeatureMatrix
p1561
(dp1562
g23
(lp1563
(I01
g311
tp1564
asg25
Nsbasg29
I00
sg25
Nsg31
I01
sg32
S'L'
sbsg33
(irule
ConstantPhoneme
p1565
(dp1566
S'p'
Va
sbsg36
(irule
Guard
p1567
(dp1568
g18
I00
sg19
(lp1569
sg29
I00
sg25
Nsg31
I00
sg32
S'R'
sbsg40
(irule
FeatureMatrix
p1570
(dp1571
g23
(lp1572
(I01
g346
tp1573
a(I00
g1028
tp1574
a(I00
g411
tp1575
asg25
Nsbsg25
Nsba(irule
Rule
p1576
(dp1577
g15
(irule
Guard
p1578
(dp1579
g18
I00
sg19
(lp1580
(irule
FeatureMatrix
p1581
(dp1582
g23
(lp1583
(I00
g639
tp1584
asg25
Nsba(irule
FeatureMatrix
p1585
(dp1586
g23
(lp1587
(I00
g346
tp1588
a(I01
g360
tp1589
asg25
Nsbasg29
I00
sg25
Nsg31
I01
sg32
S'L'
sbsg33
(irule
ConstantPhoneme
p1590
(dp1591
S'p'
Va
sbsg36
(irule
Guard
p1592
(dp1593
g18
I00
sg19
(lp1594
sg29
I00
sg25
Nsg31
I00
sg32
S'R'
sbsg40
(irule
ConstantPhoneme
p1595
(dp1596
S'p'
Vo
sbsg25
Nsba(irule
Rule
p1597
(dp1598
g15
(irule
Guard
p1599
(dp1600
g18
I00
sg19
(lp1601
(irule
FeatureMatrix
p1602
(dp1603
g23
(lp1604
(I00
g331
tp1605
asg25
Nsba(irule
FeatureMatrix
p1606
(dp1607
g23
(lp1608
(I01
g336
tp1609
asg25
Nsbasg29
I00
sg25
Nsg31
I01
sg32
S'L'
sbsg33
(irule
ConstantPhoneme
p1610
(dp1611
S'p'
Va
sbsg36
(irule
Guard
p1612
(dp1613
g18
I00
sg19
(lp1614
sg29
I00
sg25
Nsg31
I00
sg32
S'R'
sbsg40
(irule
FeatureMatrix
p1615
(dp1616
g23
(lp1617
(I01
g346
tp1618
a(I00
g411
tp1619
asg25
Nsbsg25
Nsba(irule
Rule
p1620
(dp1621
g15
(irule
Guard
p1622
(dp1623
g18
I00
sg19
(lp1624
(irule
FeatureMatrix
p1625
(dp1626
g23
(lp1627
(I00
g336
tp1628
a(I00
g331
tp1629
asg25
Nsba(irule
FeatureMatrix
p1630
(dp1631
g23
(lp1632
(I01
g336
tp1633
asg25
Nsbasg29
I00
sg25
Nsg31
I01
sg32
S'L'
sbsg33
(irule
ConstantPhoneme
p1634
(dp1635
S'p'
Va
sbsg36
(irule
Guard
p1636
(dp1637
g18
I00
sg19
(lp1638
sg29
I00
sg25
Nsg31
I00
sg32
S'R'
sbsg40
(irule
ConstantPhoneme
p1639
(dp1640
S'p'
Vo
sbsg25
Nsba(irule
Rule
p1641
(dp1642
g15
(irule
Guard
p1643
(dp1644
g18
I00
sg19
(lp1645
(irule
FeatureMatrix
p1646
(dp1647
g23
(lp1648
(I00
g331
tp1649
asg25
Nsba(irule
FeatureMatrix
p1650
(dp1651
g23
(lp1652
(I01
g336
tp1653
a(I01
g360
tp1654
asg25
Nsbasg29
I00
sg25
Nsg31
I01
sg32
S'L'
sbsg33
(irule
ConstantPhoneme
p1655
(dp1656
S'p'
Va
sbsg36
(irule
Guard
p1657
(dp1658
g18
I00
sg19
(lp1659
sg29
I00
sg25
Nsg31
I00
sg32
S'R'
sbsg40
(irule
FeatureMatrix
p1660
(dp1661
g23
(lp1662
(I01
g346
tp1663
asg25
Nsbsg25
Nsba(irule
Rule
p1664
(dp1665
g15
(irule
Guard
p1666
(dp1667
g18
I00
sg19
(lp1668
(irule
FeatureMatrix
p1669
(dp1670
g23
(lp1671
(I00
g639
tp1672
asg25
Nsba(irule
FeatureMatrix
p1673
(dp1674
g23
(lp1675
(I01
g336
tp1676
a(I01
g360
tp1677
asg25
Nsbasg29
I00
sg25
Nsg31
I01
sg32
S'L'
sbsg33
(irule
ConstantPhoneme
p1678
(dp1679
S'p'
Va
sbsg36
(irule
Guard
p1680
(dp1681
g18
I00
sg19
(lp1682
sg29
I00
sg25
Nsg31
I00
sg32
S'R'
sbsg40
(irule
FeatureMatrix
p1683
(dp1684
g23
(lp1685
(I01
g346
tp1686
asg25
Nsbsg25
Nsba(irule
Rule
p1687
(dp1688
g15
(irule
Guard
p1689
(dp1690
g18
I00
sg19
(lp1691
(irule
FeatureMatrix
p1692
(dp1693
g23
(lp1694
(I00
g331
tp1695
asg25
Nsba(irule
FeatureMatrix
p1696
(dp1697
g23
(lp1698
(I00
g1365
tp1699
a(I01
g360
tp1700
asg25
Nsbasg29
I00
sg25
Nsg31
I01
sg32
S'L'
sbsg33
(irule
ConstantPhoneme
p1701
(dp1702
S'p'
Va
sbsg36
(irule
Guard
p1703
(dp1704
g18
I00
sg19
(lp1705
sg29
I00
sg25
Nsg31
I00
sg32
S'R'
sbsg40
(irule
ConstantPhoneme
p1706
(dp1707
S'p'
Vo
sbsg25
Nsba(irule
Rule
p1708
(dp1709
g15
(irule
Guard
p1710
(dp1711
g18
I00
sg19
(lp1712
(irule
FeatureMatrix
p1713
(dp1714
g23
(lp1715
(I00
g331
tp1716
asg25
Nsba(irule
FeatureMatrix
p1717
(dp1718
g23
(lp1719
(I00
g311
tp1720
a(I01
g360
tp1721
asg25
Nsbasg29
I00
sg25
Nsg31
I01
sg32
S'L'
sbsg33
(irule
ConstantPhoneme
p1722
(dp1723
S'p'
Va
sbsg36
(irule
Guard
p1724
(dp1725
g18
I00
sg19
(lp1726
sg29
I00
sg25
Nsg31
I00
sg32
S'R'
sbsg40
(irule
FeatureMatrix
p1727
(dp1728
g23
(lp1729
(I01
g346
tp1730
asg25
Nsbsg25
Nsba(irule
Rule
p1731
(dp1732
g15
(irule
Guard
p1733
(dp1734
g18
I00
sg19
(lp1735
(irule
FeatureMatrix
p1736
(dp1737
g23
(lp1738
(I00
g639
tp1739
asg25
Nsba(irule
FeatureMatrix
p1740
(dp1741
g23
(lp1742
(I00
g411
tp1743
a(I01
g360
tp1744
asg25
Nsbasg29
I00
sg25
Nsg31
I01
sg32
S'L'
sbsg33
(irule
ConstantPhoneme
p1745
(dp1746
S'p'
Va
sbsg36
(irule
Guard
p1747
(dp1748
g18
I00
sg19
(lp1749
sg29
I00
sg25
Nsg31
I00
sg32
S'R'
sbsg40
(irule
ConstantPhoneme
p1750
(dp1751
S'p'
Vo
sbsg25
Nsba(irule
Rule
p1752
(dp1753
g15
(irule
Guard
p1754
(dp1755
g18
I00
sg19
(lp1756
(irule
FeatureMatrix
p1757
(dp1758
g23
(lp1759
sg25
Nsba(irule
FeatureMatrix
p1760
(dp1761
g23
(lp1762
(I00
g346
tp1763
a(I00
g311
tp1764
a(I01
g360
tp1765
asg25
Nsbasg29
I00
sg25
Nsg31
I01
sg32
S'L'
sbsg33
(irule
ConstantPhoneme
p1766
(dp1767
S'p'
Va
sbsg36
(irule
Guard
p1768
(dp1769
g18
I00
sg19
(lp1770
sg29
I00
sg25
Nsg31
I00
sg32
S'R'
sbsg40
(irule
ConstantPhoneme
p1771
(dp1772
S'p'
Vo
sbsg25
Nsba(irule
Rule
p1773
(dp1774
g15
(irule
Guard
p1775
(dp1776
g18
I00
sg19
(lp1777
(irule
FeatureMatrix
p1778
(dp1779
g23
(lp1780
sg25
Nsba(irule
FeatureMatrix
p1781
(dp1782
g23
(lp1783
(I01
g336
tp1784
a(I01
g411
tp1785
asg25
Nsbasg29
I00
sg25
Nsg31
I01
sg32
S'L'
sbsg33
(irule
FeatureMatrix
p1786
(dp1787
g23
(lp1788
(I00
g346
tp1789
a(I01
g331
tp1790
asg25
Nsbsg36
(irule
Guard
p1791
(dp1792
g18
I00
sg19
(lp1793
sg29
I00
sg25
Nsg31
I00
sg32
S'R'
sbsg40
(irule
FeatureMatrix
p1794
(dp1795
g23
(lp1796
(I01
g346
tp1797
asg25
Nsbsg25
Nsba(irule
Rule
p1798
(dp1799
g15
(irule
Guard
p1800
(dp1801
g18
I00
sg19
(lp1802
(irule
FeatureMatrix
p1803
(dp1804
g23
(lp1805
sg25
Nsba(irule
FeatureMatrix
p1806
(dp1807
g23
(lp1808
(I01
g311
tp1809
asg25
Nsbasg29
I00
sg25
Nsg31
I01
sg32
S'L'
sbsg33
(irule
FeatureMatrix
p1810
(dp1811
g23
(lp1812
(I00
g346
tp1813
a(I01
g331
tp1814
a(I00
g578
tp1815
asg25
Nsbsg36
(irule
Guard
p1816
(dp1817
g18
I00
sg19
(lp1818
sg29
I00
sg25
Nsg31
I00
sg32
S'R'
sbsg40
(irule
ConstantPhoneme
p1819
(dp1820
S'p'
Vo
sbsg25
Nsba(irule
Rule
p1821
(dp1822
g15
(irule
Guard
p1823
(dp1824
g18
I00
sg19
(lp1825
(irule
FeatureMatrix
p1826
(dp1827
g23
(lp1828
sg25
Nsba(irule
FeatureMatrix
p1829
(dp1830
g23
(lp1831
(I00
g435
tp1832
a(I00
g331
tp1833
asg25
Nsbasg29
I00
sg25
Nsg31
I01
sg32
S'L'
sbsg33
(irule
ConstantPhoneme
p1834
(dp1835
S'p'
Va
sbsg36
(irule
Guard
p1836
(dp1837
g18
I00
sg19
(lp1838
sg29
I00
sg25
Nsg31
I00
sg32
S'R'
sbsg40
(irule
FeatureMatrix
p1839
(dp1840
g23
(lp1841
(I01
g346
tp1842
a(I00
g411
tp1843
asg25
Nsbsg25
Nsba(irule
Rule
p1844
(dp1845
g15
(irule
Guard
p1846
(dp1847
g18
I00
sg19
(lp1848
(irule
FeatureMatrix
p1849
(dp1850
g23
(lp1851
(I00
g459
tp1852
a(I00
g331
tp1853
asg25
Nsba(irule
FeatureMatrix
p1854
(dp1855
g23
(lp1856
(I01
g336
tp1857
asg25
Nsbasg29
I00
sg25
Nsg31
I01
sg32
S'L'
sbsg33
(irule
ConstantPhoneme
p1858
(dp1859
S'p'
Va
sbsg36
(irule
Guard
p1860
(dp1861
g18
I00
sg19
(lp1862
sg29
I00
sg25
Nsg31
I00
sg32
S'R'
sbsg40
(irule
FeatureMatrix
p1863
(dp1864
g23
(lp1865
(I01
g346
tp1866
asg25
Nsbsg25
Nsba(irule
Rule
p1867
(dp1868
g15
(irule
Guard
p1869
(dp1870
g18
I00
sg19
(lp1871
(irule
FeatureMatrix
p1872
(dp1873
g23
(lp1874
(I00
g331
tp1875
asg25
Nsba(irule
FeatureMatrix
p1876
(dp1877
g23
(lp1878
(I01
g639
tp1879
a(I01
g360
tp1880
asg25
Nsbasg29
I00
sg25
Nsg31
I01
sg32
S'L'
sbsg33
(irule
ConstantPhoneme
p1881
(dp1882
S'p'
Va
sbsg36
(irule
Guard
p1883
(dp1884
g18
I00
sg19
(lp1885
sg29
I00
sg25
Nsg31
I00
sg32
S'R'
sbsg40
(irule
FeatureMatrix
p1886
(dp1887
g23
(lp1888
(I01
g346
tp1889
asg25
Nsbsg25
Nsba(irule
Rule
p1890
(dp1891
g15
(irule
Guard
p1892
(dp1893
g18
I00
sg19
(lp1894
(irule
FeatureMatrix
p1895
(dp1896
g23
(lp1897
(I00
g639
tp1898
asg25
Nsba(irule
FeatureMatrix
p1899
(dp1900
g23
(lp1901
(I01
g639
tp1902
a(I01
g360
tp1903
asg25
Nsbasg29
I00
sg25
Nsg31
I01
sg32
S'L'
sbsg33
(irule
ConstantPhoneme
p1904
(dp1905
S'p'
Va
sbsg36
(irule
Guard
p1906
(dp1907
g18
I00
sg19
(lp1908
sg29
I00
sg25
Nsg31
I00
sg32
S'R'
sbsg40
(irule
FeatureMatrix
p1909
(dp1910
g23
(lp1911
(I01
g346
tp1912
asg25
Nsbsg25
Nsba(irule
Rule
p1913
(dp1914
g15
(irule
Guard
p1915
(dp1916
g18
I00
sg19
(lp1917
(irule
FeatureMatrix
p1918
(dp1919
g23
(lp1920
(I00
g639
tp1921
asg25
Nsba(irule
FeatureMatrix
p1922
(dp1923
g23
(lp1924
(I00
g1007
tp1925
a(I01
g360
tp1926
asg25
Nsbasg29
I00
sg25
Nsg31
I01
sg32
S'L'
sbsg33
(irule
ConstantPhoneme
p1927
(dp1928
S'p'
Va
sbsg36
(irule
Guard
p1929
(dp1930
g18
I00
sg19
(lp1931
sg29
I00
sg25
Nsg31
I00
sg32
S'R'
sbsg40
(irule
ConstantPhoneme
p1932
(dp1933
S'p'
Vo
sbsg25
Nsba(irule
Rule
p1934
(dp1935
g15
(irule
Guard
p1936
(dp1937
g18
I00
sg19
(lp1938
(irule
FeatureMatrix
p1939
(dp1940
g23
(lp1941
(I00
g331
tp1942
asg25
Nsba(irule
FeatureMatrix
p1943
(dp1944
g23
(lp1945
(I01
g360
tp1946
asg25
Nsbasg29
I00
sg25
Nsg31
I01
sg32
S'L'
sbsg33
(irule
ConstantPhoneme
p1947
(dp1948
S'p'
Va
sbsg36
(irule
Guard
p1949
(dp1950
g18
I00
sg19
(lp1951
sg29
I00
sg25
Nsg31
I00
sg32
S'R'
sbsg40
(irule
FeatureMatrix
p1952
(dp1953
g23
(lp1954
(I00
g411
tp1955
a(I01
g459
tp1956
asg25
Nsbsg25
Nsba(irule
Rule
p1957
(dp1958
g15
(irule
Guard
p1959
(dp1960
g18
I00
sg19
(lp1961
(irule
FeatureMatrix
p1962
(dp1963
g23
(lp1964
(I00
g331
tp1965
asg25
Nsba(irule
FeatureMatrix
p1966
(dp1967
g23
(lp1968
(I01
g336
tp1969
a(I00
g535
tp1970
asg25
Nsbasg29
I00
sg25
Nsg31
I01
sg32
S'L'
sbsg33
(irule
ConstantPhoneme
p1971
(dp1972
S'p'
Va
sbsg36
(irule
Guard
p1973
(dp1974
g18
I00
sg19
(lp1975
sg29
I00
sg25
Nsg31
I00
sg32
S'R'
sbsg40
(irule
FeatureMatrix
p1976
(dp1977
g23
(lp1978
(I01
g346
tp1979
asg25
Nsbsg25
Nsba(irule
Rule
p1980
(dp1981
g15
(irule
Guard
p1982
(dp1983
g18
I00
sg19
(lp1984
(irule
FeatureMatrix
p1985
(dp1986
g23
(lp1987
(I00
g331
tp1988
asg25
Nsba(irule
FeatureMatrix
p1989
(dp1990
g23
(lp1991
(I01
g413
tp1992
a(I01
g360
tp1993
asg25
Nsbasg29
I00
sg25
Nsg31
I01
sg32
S'L'
sbsg33
(irule
ConstantPhoneme
p1994
(dp1995
S'p'
Va
sbsg36
(irule
Guard
p1996
(dp1997
g18
I00
sg19
(lp1998
sg29
I00
sg25
Nsg31
I00
sg32
S'R'
sbsg40
(irule
FeatureMatrix
p1999
(dp2000
g23
(lp2001
(I01
g346
tp2002
asg25
Nsbsg25
Nsba(irule
Rule
p2003
(dp2004
g15
(irule
Guard
p2005
(dp2006
g18
I00
sg19
(lp2007
(irule
FeatureMatrix
p2008
(dp2009
g23
(lp2010
(I00
g639
tp2011
asg25
Nsba(irule
FeatureMatrix
p2012
(dp2013
g23
(lp2014
(I00
g1028
tp2015
a(I01
g360
tp2016
asg25
Nsbasg29
I00
sg25
Nsg31
I01
sg32
S'L'
sbsg33
(irule
ConstantPhoneme
p2017
(dp2018
S'p'
Va
sbsg36
(irule
Guard
p2019
(dp2020
g18
I00
sg19
(lp2021
sg29
I00
sg25
Nsg31
I00
sg32
S'R'
sbsg40
(irule
ConstantPhoneme
p2022
(dp2023
S'p'
Vo
sbsg25
Nsba(irule
Rule
p2024
(dp2025
g15
(irule
Guard
p2026
(dp2027
g18
I00
sg19
(lp2028
(irule
FeatureMatrix
p2029
(dp2030
g23
(lp2031
sg25
Nsba(irule
FeatureMatrix
p2032
(dp2033
g23
(lp2034
(I01
g311
tp2035
asg25
Nsbasg29
I00
sg25
Nsg31
I01
sg32
S'L'
sbsg33
(irule
ConstantPhoneme
p2036
(dp2037
S'p'
Va
sbsg36
(irule
Guard
p2038
(dp2039
g18
I00
sg19
(lp2040
sg29
I00
sg25
Nsg31
I00
sg32
S'R'
sbsg40
(irule
FeatureMatrix
p2041
(dp2042
g23
(lp2043
(I01
g346
tp2044
a(I00
g1126
tp2045
a(I00
g411
tp2046
asg25
Nsbsg25
Nsba(irule
Rule
p2047
(dp2048
g15
(irule
Guard
p2049
(dp2050
g18
I00
sg19
(lp2051
(irule
FeatureMatrix
p2052
(dp2053
g23
(lp2054
sg25
Nsba(irule
FeatureMatrix
p2055
(dp2056
g23
(lp2057
(I00
g346
tp2058
a(I01
g360
tp2059
asg25
Nsbasg29
I00
sg25
Nsg31
I01
sg32
S'L'
sbsg33
(irule
FeatureMatrix
p2060
(dp2061
g23
(lp2062
(I00
g346
tp2063
a(I01
g331
tp2064
asg25
Nsbsg36
(irule
Guard
p2065
(dp2066
g18
I00
sg19
(lp2067
sg29
I00
sg25
Nsg31
I00
sg32
S'R'
sbsg40
(irule
ConstantPhoneme
p2068
(dp2069
S'p'
Vo
sbsg25
Nsba(irule
Rule
p2070
(dp2071
g15
(irule
Guard
p2072
(dp2073
g18
I00
sg19
(lp2074
(irule
FeatureMatrix
p2075
(dp2076
g23
(lp2077
sg25
Nsba(irule
FeatureMatrix
p2078
(dp2079
g23
(lp2080
(I00
g435
tp2081
a(I00
g331
tp2082
asg25
Nsbasg29
I00
sg25
Nsg31
I01
sg32
S'L'
sbsg33
(irule
FeatureMatrix
p2083
(dp2084
g23
(lp2085
(I00
g346
tp2086
a(I01
g331
tp2087
asg25
Nsbsg36
(irule
Guard
p2088
(dp2089
g18
I00
sg19
(lp2090
sg29
I00
sg25
Nsg31
I00
sg32
S'R'
sbsg40
(irule
ConstantPhoneme
p2091
(dp2092
S'p'
Vo
sbsg25
Nsba(irule
Rule
p2093
(dp2094
g15
(irule
Guard
p2095
(dp2096
g18
I00
sg19
(lp2097
(irule
FeatureMatrix
p2098
(dp2099
g23
(lp2100
(I00
g639
tp2101
asg25
Nsba(irule
FeatureMatrix
p2102
(dp2103
g23
(lp2104
(I01
g639
tp2105
a(I01
g360
tp2106
asg25
Nsbasg29
I00
sg25
Nsg31
I01
sg32
S'L'
sbsg33
(irule
ConstantPhoneme
p2107
(dp2108
S'p'
Va
sbsg36
(irule
Guard
p2109
(dp2110
g18
I00
sg19
(lp2111
sg29
I00
sg25
Nsg31
I00
sg32
S'R'
sbsg40
(irule
ConstantPhoneme
p2112
(dp2113
S'p'
Vo
sbsg25
Nsba(irule
Rule
p2114
(dp2115
g15
(irule
Guard
p2116
(dp2117
g18
I00
sg19
(lp2118
(irule
FeatureMatrix
p2119
(dp2120
g23
(lp2121
(I00
g331
tp2122
asg25
Nsba(irule
FeatureMatrix
p2123
(dp2124
g23
(lp2125
(I01
g336
tp2126
asg25
Nsbasg29
I00
sg25
Nsg31
I01
sg32
S'L'
sbsg33
(irule
ConstantPhoneme
p2127
(dp2128
S'p'
Va
sbsg36
(irule
Guard
p2129
(dp2130
g18
I00
sg19
(lp2131
sg29
I00
sg25
Nsg31
I00
sg32
S'R'
sbsg40
(irule
FeatureMatrix
p2132
(dp2133
g23
(lp2134
(I01
g346
tp2135
a(I00
g1126
tp2136
asg25
Nsbsg25
Nsba(irule
Rule
p2137
(dp2138
g15
(irule
Guard
p2139
(dp2140
g18
I00
sg19
(lp2141
(irule
FeatureMatrix
p2142
(dp2143
g23
(lp2144
(I00
g331
tp2145
asg25
Nsba(irule
FeatureMatrix
p2146
(dp2147
g23
(lp2148
(I01
g413
tp2149
asg25
Nsbasg29
I00
sg25
Nsg31
I01
sg32
S'L'
sbsg33
(irule
FeatureMatrix
p2150
(dp2151
g23
(lp2152
(I00
g346
tp2153
a(I01
g331
tp2154
asg25
Nsbsg36
(irule
Guard
p2155
(dp2156
g18
I00
sg19
(lp2157
sg29
I00
sg25
Nsg31
I00
sg32
S'R'
sbsg40
(irule
FeatureMatrix
p2158
(dp2159
g23
(lp2160
(I01
g346
tp2161
asg25
Nsbsg25
Nsba(irule
Rule
p2162
(dp2163
g15
(irule
Guard
p2164
(dp2165
g18
I00
sg19
(lp2166
(irule
FeatureMatrix
p2167
(dp2168
g23
(lp2169
(I00
g639
tp2170
asg25
Nsba(irule
FeatureMatrix
p2171
(dp2172
g23
(lp2173
(I00
g1007
tp2174
a(I01
g336
tp2175
asg25
Nsbasg29
I00
sg25
Nsg31
I01
sg32
S'L'
sbsg33
(irule
ConstantPhoneme
p2176
(dp2177
S'p'
Va
sbsg36
(irule
Guard
p2178
(dp2179
g18
I00
sg19
(lp2180
sg29
I00
sg25
Nsg31
I00
sg32
S'R'
sbsg40
(irule
FeatureMatrix
p2181
(dp2182
g23
(lp2183
(I01
g346
tp2184
asg25
Nsbsg25
Nsba(irule
Rule
p2185
(dp2186
g15
(irule
Guard
p2187
(dp2188
g18
I00
sg19
(lp2189
(irule
FeatureMatrix
p2190
(dp2191
g23
(lp2192
(I00
g459
tp2193
asg25
Nsba(irule
FeatureMatrix
p2194
(dp2195
g23
(lp2196
(I00
g346
tp2197
a(I01
g360
tp2198
asg25
Nsbasg29
I00
sg25
Nsg31
I01
sg32
S'L'
sbsg33
(irule
ConstantPhoneme
p2199
(dp2200
S'p'
Va
sbsg36
(irule
Guard
p2201
(dp2202
g18
I00
sg19
(lp2203
sg29
I00
sg25
Nsg31
I00
sg32
S'R'
sbsg40
(irule
ConstantPhoneme
p2204
(dp2205
S'p'
Vo
sbsg25
Nsba(irule
Rule
p2206
(dp2207
g15
(irule
Guard
p2208
(dp2209
g18
I00
sg19
(lp2210
(irule
FeatureMatrix
p2211
(dp2212
g23
(lp2213
(I00
g331
tp2214
asg25
Nsba(irule
FeatureMatrix
p2215
(dp2216
g23
(lp2217
(I01
g459
tp2218
a(I01
g360
tp2219
asg25
Nsbasg29
I00
sg25
Nsg31
I01
sg32
S'L'
sbsg33
(irule
ConstantPhoneme
p2220
(dp2221
S'p'
Va
sbsg36
(irule
Guard
p2222
(dp2223
g18
I00
sg19
(lp2224
sg29
I00
sg25
Nsg31
I00
sg32
S'R'
sbsg40
(irule
FeatureMatrix
p2225
(dp2226
g23
(lp2227
(I01
g346
tp2228
asg25
Nsbsg25
Nsba(irule
Rule
p2229
(dp2230
g15
(irule
Guard
p2231
(dp2232
g18
I00
sg19
(lp2233
(irule
FeatureMatrix
p2234
(dp2235
g23
(lp2236
sg25
Nsba(irule
FeatureMatrix
p2237
(dp2238
g23
(lp2239
(I01
g336
tp2240
a(I01
g411
tp2241
asg25
Nsbasg29
I00
sg25
Nsg31
I01
sg32
S'L'
sbsg33
(irule
FeatureMatrix
p2242
(dp2243
g23
(lp2244
(I00
g346
tp2245
a(I01
g331
tp2246
asg25
Nsbsg36
(irule
Guard
p2247
(dp2248
g18
I00
sg19
(lp2249
sg29
I00
sg25
Nsg31
I00
sg32
S'R'
sbsg40
(irule
ConstantPhoneme
p2250
(dp2251
S'p'
Vo
sbsg25
Nsba(irule
Rule
p2252
(dp2253
g15
(irule
Guard
p2254
(dp2255
g18
I00
sg19
(lp2256
(irule
FeatureMatrix
p2257
(dp2258
g23
(lp2259
(I00
g639
tp2260
asg25
Nsba(irule
FeatureMatrix
p2261
(dp2262
g23
(lp2263
(I01
g336
tp2264
a(I00
g535
tp2265
asg25
Nsbasg29
I00
sg25
Nsg31
I01
sg32
S'L'
sbsg33
(irule
ConstantPhoneme
p2266
(dp2267
S'p'
Va
sbsg36
(irule
Guard
p2268
(dp2269
g18
I00
sg19
(lp2270
sg29
I00
sg25
Nsg31
I00
sg32
S'R'
sbsg40
(irule
FeatureMatrix
p2271
(dp2272
g23
(lp2273
(I01
g346
tp2274
asg25
Nsbsg25
Nsba(irule
Rule
p2275
(dp2276
g15
(irule
Guard
p2277
(dp2278
g18
I00
sg19
(lp2279
(irule
FeatureMatrix
p2280
(dp2281
g23
(lp2282
(I00
g1028
tp2283
asg25
Nsba(irule
FeatureMatrix
p2284
(dp2285
g23
(lp2286
(I00
g346
tp2287
a(I01
g360
tp2288
asg25
Nsbasg29
I00
sg25
Nsg31
I01
sg32
S'L'
sbsg33
(irule
ConstantPhoneme
p2289
(dp2290
S'p'
Va
sbsg36
(irule
Guard
p2291
(dp2292
g18
I00
sg19
(lp2293
sg29
I00
sg25
Nsg31
I00
sg32
S'R'
sbsg40
(irule
ConstantPhoneme
p2294
(dp2295
S'p'
Vo
sbsg25
Nsba(irule
Rule
p2296
(dp2297
g15
(irule
Guard
p2298
(dp2299
g18
I00
sg19
(lp2300
(irule
FeatureMatrix
p2301
(dp2302
g23
(lp2303
sg25
Nsba(irule
FeatureMatrix
p2304
(dp2305
g23
(lp2306
(I00
g346
tp2307
a(I01
g360
tp2308
asg25
Nsbasg29
I00
sg25
Nsg31
I01
sg32
S'L'
sbsg33
(irule
ConstantPhoneme
p2309
(dp2310
S'p'
Va
sbsg36
(irule
Guard
p2311
(dp2312
g18
I00
sg19
(lp2313
sg29
I00
sg25
Nsg31
I00
sg32
S'R'
sbsg40
(irule
FeatureMatrix
p2314
(dp2315
g23
(lp2316
(I00
g411
tp2317
a(I01
g459
tp2318
asg25
Nsbsg25
Nsba(irule
Rule
p2319
(dp2320
g15
(irule
Guard
p2321
(dp2322
g18
I00
sg19
(lp2323
(irule
FeatureMatrix
p2324
(dp2325
g23
(lp2326
(I00
g639
tp2327
asg25
Nsba(irule
FeatureMatrix
p2328
(dp2329
g23
(lp2330
(I00
g1365
tp2331
a(I01
g336
tp2332
asg25
Nsbasg29
I00
sg25
Nsg31
I01
sg32
S'L'
sbsg33
(irule
ConstantPhoneme
p2333
(dp2334
S'p'
Va
sbsg36
(irule
Guard
p2335
(dp2336
g18
I00
sg19
(lp2337
sg29
I00
sg25
Nsg31
I00
sg32
S'R'
sbsg40
(irule
FeatureMatrix
p2338
(dp2339
g23
(lp2340
(I01
g346
tp2341
asg25
Nsbsg25
Nsba(irule
Rule
p2342
(dp2343
g15
(irule
Guard
p2344
(dp2345
g18
I00
sg19
(lp2346
(irule
FeatureMatrix
p2347
(dp2348
g23
(lp2349
(I00
g346
tp2350
a(I00
g639
tp2351
asg25
Nsba(irule
FeatureMatrix
p2352
(dp2353
g23
(lp2354
(I01
g336
tp2355
asg25
Nsbasg29
I00
sg25
Nsg31
I01
sg32
S'L'
sbsg33
(irule
ConstantPhoneme
p2356
(dp2357
S'p'
Va
sbsg36
(irule
Guard
p2358
(dp2359
g18
I00
sg19
(lp2360
sg29
I00
sg25
Nsg31
I00
sg32
S'R'
sbsg40
(irule
FeatureMatrix
p2361
(dp2362
g23
(lp2363
(I01
g346
tp2364
asg25
Nsbsg25
Nsba(irule
Rule
p2365
(dp2366
g15
(irule
Guard
p2367
(dp2368
g18
I00
sg19
(lp2369
(irule
FeatureMatrix
p2370
(dp2371
g23
(lp2372
sg25
Nsba(irule
FeatureMatrix
p2373
(dp2374
g23
(lp2375
(I01
g311
tp2376
asg25
Nsbasg29
I00
sg25
Nsg31
I01
sg32
S'L'
sbsg33
(irule
ConstantPhoneme
p2377
(dp2378
S'p'
Va
sbsg36
(irule
Guard
p2379
(dp2380
g18
I00
sg19
(lp2381
sg29
I00
sg25
Nsg31
I00
sg32
S'R'
sbsg40
(irule
FeatureMatrix
p2382
(dp2383
g23
(lp2384
(I00
g411
tp2385
a(I00
g883
tp2386
a(I01
g459
tp2387
asg25
Nsbsg25
Nsba(irule
Rule
p2388
(dp2389
g15
(irule
Guard
p2390
(dp2391
g18
I00
sg19
(lp2392
(irule
FeatureMatrix
p2393
(dp2394
g23
(lp2395
(I00
g639
tp2396
asg25
Nsba(irule
FeatureMatrix
p2397
(dp2398
g23
(lp2399
(I01
g336
tp2400
a(I00
g578
tp2401
asg25
Nsbasg29
I00
sg25
Nsg31
I01
sg32
S'L'
sbsg33
(irule
ConstantPhoneme
p2402
(dp2403
S'p'
Va
sbsg36
(irule
Guard
p2404
(dp2405
g18
I00
sg19
(lp2406
sg29
I00
sg25
Nsg31
I00
sg32
S'R'
sbsg40
(irule
FeatureMatrix
p2407
(dp2408
g23
(lp2409
(I01
g346
tp2410
asg25
Nsbsg25
Nsba(irule
Rule
p2411
(dp2412
g15
(irule
Guard
p2413
(dp2414
g18
I00
sg19
(lp2415
(irule
FeatureMatrix
p2416
(dp2417
g23
(lp2418
sg25
Nsba(irule
FeatureMatrix
p2419
(dp2420
g23
(lp2421
(I01
g311
tp2422
asg25
Nsbasg29
I00
sg25
Nsg31
I01
sg32
S'L'
sbsg33
(irule
FeatureMatrix
p2423
(dp2424
g23
(lp2425
(I00
g1365
tp2426
a(I00
g346
tp2427
a(I01
g331
tp2428
asg25
Nsbsg36
(irule
Guard
p2429
(dp2430
g18
I00
sg19
(lp2431
sg29
I00
sg25
Nsg31
I00
sg32
S'R'
sbsg40
(irule
ConstantPhoneme
p2432
(dp2433
S'p'
Vo
sbsg25
Nsba(irule
Rule
p2434
(dp2435
g15
(irule
Guard
p2436
(dp2437
g18
I00
sg19
(lp2438
(irule
FeatureMatrix
p2439
(dp2440
g23
(lp2441
(I00
g639
tp2442
asg25
Nsba(irule
FeatureMatrix
p2443
(dp2444
g23
(lp2445
(I01
g336
tp2446
asg25
Nsbasg29
I00
sg25
Nsg31
I01
sg32
S'L'
sbsg33
(irule
FeatureMatrix
p2447
(dp2448
g23
(lp2449
(I00
g346
tp2450
a(I01
g331
tp2451
asg25
Nsbsg36
(irule
Guard
p2452
(dp2453
g18
I00
sg19
(lp2454
sg29
I00
sg25
Nsg31
I00
sg32
S'R'
sbsg40
(irule
FeatureMatrix
p2455
(dp2456
g23
(lp2457
(I01
g346
tp2458
asg25
Nsbsg25
Nsba(irule
Rule
p2459
(dp2460
g15
(irule
Guard
p2461
(dp2462
g18
I00
sg19
(lp2463
(irule
FeatureMatrix
p2464
(dp2465
g23
(lp2466
(I00
g331
tp2467
asg25
Nsba(irule
FeatureMatrix
p2468
(dp2469
g23
(lp2470
(I01
g336
tp2471
asg25
Nsbasg29
I00
sg25
Nsg31
I01
sg32
S'L'
sbsg33
(irule
ConstantPhoneme
p2472
(dp2473
S'p'
Va
sbsg36
(irule
Guard
p2474
(dp2475
g18
I00
sg19
(lp2476
sg29
I00
sg25
Nsg31
I00
sg32
S'R'
sbsg40
(irule
FeatureMatrix
p2477
(dp2478
g23
(lp2479
(I00
g411
tp2480
a(I01
g459
tp2481
asg25
Nsbsg25
Nsbaa(lp2482
(irule
Rule
p2483
(dp2484
g15
(irule
Guard
p2485
(dp2486
g18
I00
sg19
(lp2487
(irule
FeatureMatrix
p2488
(dp2489
g23
(lp2490
sg25
V[  ]
p2491
sba(irule
ConstantPhoneme
p2492
(dp2493
S'p'
Vb
sbasg29
I00
sg25
Vb [  ]*
p2494
sg31
I01
sg32
S'L'
sbsg33
(irule
ConstantPhoneme
p2495
(dp2496
S'p'
Vu
sbsg36
(irule
Guard
p2497
(dp2498
g18
I00
sg19
(lp2499
sg29
I00
sg25
V
sg31
I00
sg32
S'R'
sbsg40
(irule
ConstantPhoneme
p2500
(dp2501
S'p'
Vi
sbsg25
Vi ---> u / b [  ]* _ 
p2502
sba(irule
Rule
p2503
(dp2504
g15
(irule
Guard
p2505
(dp2506
g18
I00
sg19
(lp2507
(irule
FeatureMatrix
p2508
(dp2509
g23
(lp2510
sg25
Nsba(irule
ConstantPhoneme
p2511
(dp2512
S'p'
Vu
sbasg29
I00
sg25
Nsg31
I01
sg32
S'L'
sbsg33
(irule
ConstantPhoneme
p2513
(dp2514
S'p'
Vu
sbsg36
(irule
Guard
p2515
(dp2516
g18
I00
sg19
(lp2517
sg29
I00
sg25
Nsg31
I00
sg32
S'R'
sbsg40
(irule
ConstantPhoneme
p2518
(dp2519
S'p'
Vi
sbsg25
Nsba(irule
Rule
p2520
(dp2521
g15
(irule
Guard
p2522
(dp2523
g18
I00
sg19
(lp2524
(irule
FeatureMatrix
p2525
(dp2526
g23
(lp2527
sg25
Nsba(irule
ConstantPhoneme
p2528
(dp2529
S'p'
Vd
sbasg29
I00
sg25
Nsg31
I01
sg32
S'L'
sbsg33
(irule
ConstantPhoneme
p2530
(dp2531
S'p'
Vu
sbsg36
(irule
Guard
p2532
(dp2533
g18
I00
sg19
(lp2534
sg29
I00
sg25
Nsg31
I00
sg32
S'R'
sbsg40
(irule
ConstantPhoneme
p2535
(dp2536
S'p'
Vi
sbsg25
Nsba(irule
Rule
p2537
(dp2538
g15
(irule
Guard
p2539
(dp2540
g18
I00
sg19
(lp2541
(irule
FeatureMatrix
p2542
(dp2543
g23
(lp2544
sg25
Nsba(irule
FeatureMatrix
p2545
(dp2546
g23
(lp2547
(I00
S'continuant'
p2548
tp2549
a(I01
S'voice'
p2550
tp2551
asg25
Nsbasg29
I00
sg25
Nsg31
I01
sg32
S'L'
sbsg33
(irule
ConstantPhoneme
p2552
(dp2553
S'p'
Vu
sbsg36
(irule
Guard
p2554
(dp2555
g18
I00
sg19
(lp2556
sg29
I00
sg25
Nsg31
I00
sg32
S'R'
sbsg40
(irule
ConstantPhoneme
p2557
(dp2558
S'p'
Vi
sbsg25
Nsba(irule
Rule
p2559
(dp2560
g15
(irule
Guard
p2561
(dp2562
g18
I00
sg19
(lp2563
(irule
FeatureMatrix
p2564
(dp2565
g23
(lp2566
sg25
Nsba(irule
ConstantPhoneme
p2567
(dp2568
S'p'
Vu
sbasg29
I00
sg25
Nsg31
I01
sg32
S'L'
sbsg33
(irule
ConstantPhoneme
p2569
(dp2570
S'p'
Vu
sbsg36
(irule
Guard
p2571
(dp2572
g18
I00
sg19
(lp2573
(irule
FeatureMatrix
p2574
(dp2575
g23
(lp2576
sg25
Nsbasg29
I00
sg25
Nsg31
I00
sg32
S'R'
sbsg40
(irule
ConstantPhoneme
p2577
(dp2578
S'p'
Vi
sbsg25
Nsba(irule
Rule
p2579
(dp2580
g15
(irule
Guard
p2581
(dp2582
g18
I00
sg19
(lp2583
(irule
FeatureMatrix
p2584
(dp2585
g23
(lp2586
sg25
Nsba(irule
ConstantPhoneme
p2587
(dp2588
S'p'
Vu
sbasg29
I00
sg25
Nsg31
I01
sg32
S'L'
sbsg33
(irule
ConstantPhoneme
p2589
(dp2590
S'p'
Vu
sbsg36
(irule
Guard
p2591
(dp2592
g18
I00
sg19
(lp2593
(irule
FeatureMatrix
p2594
(dp2595
g23
(lp2596
(I01
S'anterior'
p2597
tp2598
asg25
Nsbasg29
I00
sg25
Nsg31
I00
sg32
S'R'
sbsg40
(irule
FeatureMatrix
p2599
(dp2600
g23
(lp2601
sg25
Nsbsg25
Nsba(irule
Rule
p2602
(dp2603
g15
(irule
Guard
p2604
(dp2605
g18
I00
sg19
(lp2606
(irule
FeatureMatrix
p2607
(dp2608
g23
(lp2609
sg25
Nsba(irule
ConstantPhoneme
p2610
(dp2611
S'p'
Vd
sbasg29
I00
sg25
Nsg31
I01
sg32
S'L'
sbsg33
(irule
ConstantPhoneme
p2612
(dp2613
S'p'
Vu
sbsg36
(irule
Guard
p2614
(dp2615
g18
I00
sg19
(lp2616
(irule
FeatureMatrix
p2617
(dp2618
g23
(lp2619
(I01
g2597
tp2620
asg25
Nsbasg29
I00
sg25
Nsg31
I00
sg32
S'R'
sbsg40
(irule
FeatureMatrix
p2621
(dp2622
g23
(lp2623
sg25
Nsbsg25
Nsba(irule
Rule
p2624
(dp2625
g15
(irule
Guard
p2626
(dp2627
g18
I00
sg19
(lp2628
(irule
FeatureMatrix
p2629
(dp2630
g23
(lp2631
sg25
Nsba(irule
ConstantPhoneme
p2632
(dp2633
S'p'
Vb
sbasg29
I00
sg25
Nsg31
I01
sg32
S'L'
sbsg33
(irule
ConstantPhoneme
p2634
(dp2635
S'p'
Vu
sbsg36
(irule
Guard
p2636
(dp2637
g18
I00
sg19
(lp2638
(irule
FeatureMatrix
p2639
(dp2640
g23
(lp2641
(I01
g2597
tp2642
asg25
Nsbasg29
I00
sg25
Nsg31
I00
sg32
S'R'
sbsg40
(irule
FeatureMatrix
p2643
(dp2644
g23
(lp2645
sg25
Nsbsg25
Nsba(irule
Rule
p2646
(dp2647
g15
(irule
Guard
p2648
(dp2649
g18
I00
sg19
(lp2650
(irule
FeatureMatrix
p2651
(dp2652
g23
(lp2653
sg25
Nsba(irule
ConstantPhoneme
p2654
(dp2655
S'p'
Vu
sbasg29
I00
sg25
Nsg31
I01
sg32
S'L'
sbsg33
(irule
ConstantPhoneme
p2656
(dp2657
S'p'
Vu
sbsg36
(irule
Guard
p2658
(dp2659
g18
I00
sg19
(lp2660
sg29
I00
sg25
Nsg31
I00
sg32
S'R'
sbsg40
(irule
FeatureMatrix
p2661
(dp2662
g23
(lp2663
(I01
S'tense'
p2664
tp2665
a(I00
S'low'
p2666
tp2667
asg25
Nsbsg25
Nsba(irule
Rule
p2668
(dp2669
g15
(irule
Guard
p2670
(dp2671
g18
I00
sg19
(lp2672
(irule
FeatureMatrix
p2673
(dp2674
g23
(lp2675
sg25
Nsba(irule
ConstantPhoneme
p2676
(dp2677
S'p'
Vb
sbasg29
I00
sg25
Nsg31
I01
sg32
S'L'
sbsg33
(irule
FeatureMatrix
p2678
(dp2679
g23
(lp2680
(I01
S'rounded'
p2681
tp2682
a(I01
S'back'
p2683
tp2684
asg25
Nsbsg36
(irule
Guard
p2685
(dp2686
g18
I00
sg19
(lp2687
sg29
I00
sg25
Nsg31
I00
sg32
S'R'
sbsg40
(irule
ConstantPhoneme
p2688
(dp2689
S'p'
Vi
sbsg25
Nsba(irule
Rule
p2690
(dp2691
g15
(irule
Guard
p2692
(dp2693
g18
I00
sg19
(lp2694
(irule
FeatureMatrix
p2695
(dp2696
g23
(lp2697
sg25
Nsba(irule
ConstantPhoneme
p2698
(dp2699
S'p'
Vd
sbasg29
I00
sg25
Nsg31
I01
sg32
S'L'
sbsg33
(irule
FeatureMatrix
p2700
(dp2701
g23
(lp2702
(I01
g2681
tp2703
a(I01
g2683
tp2704
asg25
Nsbsg36
(irule
Guard
p2705
(dp2706
g18
I00
sg19
(lp2707
sg29
I00
sg25
Nsg31
I00
sg32
S'R'
sbsg40
(irule
ConstantPhoneme
p2708
(dp2709
S'p'
Vi
sbsg25
Nsba(irule
Rule
p2710
(dp2711
g15
(irule
Guard
p2712
(dp2713
g18
I00
sg19
(lp2714
(irule
FeatureMatrix
p2715
(dp2716
g23
(lp2717
sg25
Nsba(irule
ConstantPhoneme
p2718
(dp2719
S'p'
Vd
sbasg29
I00
sg25
Nsg31
I01
sg32
S'L'
sbsg33
(irule
ConstantPhoneme
p2720
(dp2721
S'p'
Vu
sbsg36
(irule
Guard
p2722
(dp2723
g18
I00
sg19
(lp2724
(irule
FeatureMatrix
p2725
(dp2726
g23
(lp2727
sg25
Nsbasg29
I00
sg25
Nsg31
I00
sg32
S'R'
sbsg40
(irule
ConstantPhoneme
p2728
(dp2729
S'p'
Vi
sbsg25
Nsba(irule
Rule
p2730
(dp2731
g15
(irule
Guard
p2732
(dp2733
g18
I00
sg19
(lp2734
(irule
FeatureMatrix
p2735
(dp2736
g23
(lp2737
sg25
Nsba(irule
ConstantPhoneme
p2738
(dp2739
S'p'
Vb
sbasg29
I00
sg25
Nsg31
I01
sg32
S'L'
sbsg33
(irule
ConstantPhoneme
p2740
(dp2741
S'p'
Vu
sbsg36
(irule
Guard
p2742
(dp2743
g18
I00
sg19
(lp2744
(irule
FeatureMatrix
p2745
(dp2746
g23
(lp2747
(I00
g2548
tp2748
asg25
Nsbasg29
I00
sg25
Nsg31
I00
sg32
S'R'
sbsg40
(irule
FeatureMatrix
p2749
(dp2750
g23
(lp2751
sg25
Nsbsg25
Nsba(irule
Rule
p2752
(dp2753
g15
(irule
Guard
p2754
(dp2755
g18
I00
sg19
(lp2756
(irule
FeatureMatrix
p2757
(dp2758
g23
(lp2759
sg25
Nsba(irule
ConstantPhoneme
p2760
(dp2761
S'p'
Vb
sbasg29
I00
sg25
Nsg31
I01
sg32
S'L'
sbsg33
(irule
ConstantPhoneme
p2762
(dp2763
S'p'
Vu
sbsg36
(irule
Guard
p2764
(dp2765
g18
I00
sg19
(lp2766
sg29
I00
sg25
Nsg31
I00
sg32
S'R'
sbsg40
(irule
FeatureMatrix
p2767
(dp2768
g23
(lp2769
(I00
g2683
tp2770
a(I01
S'vowel'
p2771
tp2772
asg25
Nsbsg25
Nsba(irule
Rule
p2773
(dp2774
g15
(irule
Guard
p2775
(dp2776
g18
I00
sg19
(lp2777
(irule
FeatureMatrix
p2778
(dp2779
g23
(lp2780
sg25
Nsba(irule
ConstantPhoneme
p2781
(dp2782
S'p'
Vu
sbasg29
I00
sg25
Nsg31
I01
sg32
S'L'
sbsg33
(irule
FeatureMatrix
p2783
(dp2784
g23
(lp2785
(I01
g2681
tp2786
a(I01
g2683
tp2787
asg25
Nsbsg36
(irule
Guard
p2788
(dp2789
g18
I00
sg19
(lp2790
sg29
I00
sg25
Nsg31
I00
sg32
S'R'
sbsg40
(irule
ConstantPhoneme
p2791
(dp2792
S'p'
Vi
sbsg25
Nsba(irule
Rule
p2793
(dp2794
g15
(irule
Guard
p2795
(dp2796
g18
I00
sg19
(lp2797
(irule
FeatureMatrix
p2798
(dp2799
g23
(lp2800
sg25
Nsba(irule
ConstantPhoneme
p2801
(dp2802
S'p'
Vb
sbasg29
I00
sg25
Nsg31
I01
sg32
S'L'
sbsg33
(irule
ConstantPhoneme
p2803
(dp2804
S'p'
Vu
sbsg36
(irule
Guard
p2805
(dp2806
g18
I00
sg19
(lp2807
(irule
FeatureMatrix
p2808
(dp2809
g23
(lp2810
sg25
Nsbasg29
I00
sg25
Nsg31
I00
sg32
S'R'
sbsg40
(irule
ConstantPhoneme
p2811
(dp2812
S'p'
Vi
sbsg25
Nsba(irule
Rule
p2813
(dp2814
g15
(irule
Guard
p2815
(dp2816
g18
I00
sg19
(lp2817
(irule
FeatureMatrix
p2818
(dp2819
g23
(lp2820
(I00
S'retroflex'
p2821
tp2822
asg25
Nsba(irule
ConstantPhoneme
p2823
(dp2824
S'p'
Vu
sbasg29
I00
sg25
Nsg31
I01
sg32
S'L'
sbsg33
(irule
ConstantPhoneme
p2825
(dp2826
S'p'
Vu
sbsg36
(irule
Guard
p2827
(dp2828
g18
I00
sg19
(lp2829
sg29
I00
sg25
Nsg31
I00
sg32
S'R'
sbsg40
(irule
ConstantPhoneme
p2830
(dp2831
S'p'
Vi
sbsg25
Nsba(irule
Rule
p2832
(dp2833
g15
(irule
Guard
p2834
(dp2835
g18
I00
sg19
(lp2836
(irule
FeatureMatrix
p2837
(dp2838
g23
(lp2839
sg25
Nsba(irule
FeatureMatrix
p2840
(dp2841
g23
(lp2842
(I01
g2681
tp2843
a(I01
S'high'
p2844
tp2845
asg25
Nsbasg29
I00
sg25
Nsg31
I01
sg32
S'L'
sbsg33
(irule
ConstantPhoneme
p2846
(dp2847
S'p'
Vu
sbsg36
(irule
Guard
p2848
(dp2849
g18
I00
sg19
(lp2850
sg29
I00
sg25
Nsg31
I00
sg32
S'R'
sbsg40
(irule
ConstantPhoneme
p2851
(dp2852
S'p'
Vi
sbsg25
Nsba(irule
Rule
p2853
(dp2854
g15
(irule
Guard
p2855
(dp2856
g18
I00
sg19
(lp2857
(irule
FeatureMatrix
p2858
(dp2859
g23
(lp2860
(I00
g2821
tp2861
asg25
Nsba(irule
ConstantPhoneme
p2862
(dp2863
S'p'
Vd
sbasg29
I00
sg25
Nsg31
I01
sg32
S'L'
sbsg33
(irule
ConstantPhoneme
p2864
(dp2865
S'p'
Vu
sbsg36
(irule
Guard
p2866
(dp2867
g18
I00
sg19
(lp2868
sg29
I00
sg25
Nsg31
I00
sg32
S'R'
sbsg40
(irule
ConstantPhoneme
p2869
(dp2870
S'p'
Vi
sbsg25
Nsba(irule
Rule
p2871
(dp2872
g15
(irule
Guard
p2873
(dp2874
g18
I01
sg19
(lp2875
(irule
FeatureMatrix
p2876
(dp2877
g23
(lp2878
sg25
Nsba(irule
FeatureMatrix
p2879
(dp2880
g23
(lp2881
(I01
g2550
tp2882
asg25
Nsbasg29
I00
sg25
Nsg31
I01
sg32
S'L'
sbsg33
(irule
ConstantPhoneme
p2883
(dp2884
S'p'
Vu
sbsg36
(irule
Guard
p2885
(dp2886
g18
I00
sg19
(lp2887
sg29
I00
sg25
Nsg31
I00
sg32
S'R'
sbsg40
(irule
ConstantPhoneme
p2888
(dp2889
S'p'
Vi
sbsg25
Nsba(irule
Rule
p2890
(dp2891
g15
(irule
Guard
p2892
(dp2893
g18
I01
sg19
(lp2894
(irule
FeatureMatrix
p2895
(dp2896
g23
(lp2897
sg25
Nsba(irule
FeatureMatrix
p2898
(dp2899
g23
(lp2900
(I01
S'coronal'
p2901
tp2902
asg25
Nsbasg29
I00
sg25
Nsg31
I01
sg32
S'L'
sbsg33
(irule
ConstantPhoneme
p2903
(dp2904
S'p'
Vu
sbsg36
(irule
Guard
p2905
(dp2906
g18
I00
sg19
(lp2907
sg29
I00
sg25
Nsg31
I00
sg32
S'R'
sbsg40
(irule
ConstantPhoneme
p2908
(dp2909
S'p'
Vi
sbsg25
Nsba(irule
Rule
p2910
(dp2911
g15
(irule
Guard
p2912
(dp2913
g18
I01
sg19
(lp2914
(irule
FeatureMatrix
p2915
(dp2916
g23
(lp2917
sg25
Nsba(irule
FeatureMatrix
p2918
(dp2919
g23
(lp2920
(I00
g2844
tp2921
asg25
Nsbasg29
I00
sg25
Nsg31
I01
sg32
S'L'
sbsg33
(irule
ConstantPhoneme
p2922
(dp2923
S'p'
Vu
sbsg36
(irule
Guard
p2924
(dp2925
g18
I00
sg19
(lp2926
sg29
I00
sg25
Nsg31
I00
sg32
S'R'
sbsg40
(irule
ConstantPhoneme
p2927
(dp2928
S'p'
Vi
sbsg25
Nsba(irule
Rule
p2929
(dp2930
g15
(irule
Guard
p2931
(dp2932
g18
I01
sg19
(lp2933
(irule
FeatureMatrix
p2934
(dp2935
g23
(lp2936
sg25
Nsba(irule
FeatureMatrix
p2937
(dp2938
g23
(lp2939
(I00
g2683
tp2940
asg25
Nsbasg29
I00
sg25
Nsg31
I01
sg32
S'L'
sbsg33
(irule
ConstantPhoneme
p2941
(dp2942
S'p'
Vu
sbsg36
(irule
Guard
p2943
(dp2944
g18
I00
sg19
(lp2945
sg29
I00
sg25
Nsg31
I00
sg32
S'R'
sbsg40
(irule
ConstantPhoneme
p2946
(dp2947
S'p'
Vi
sbsg25
Nsba(irule
Rule
p2948
(dp2949
g15
(irule
Guard
p2950
(dp2951
g18
I01
sg19
(lp2952
(irule
FeatureMatrix
p2953
(dp2954
g23
(lp2955
sg25
Nsba(irule
FeatureMatrix
p2956
(dp2957
g23
(lp2958
(I01
g2597
tp2959
asg25
Nsbasg29
I00
sg25
Nsg31
I01
sg32
S'L'
sbsg33
(irule
ConstantPhoneme
p2960
(dp2961
S'p'
Vu
sbsg36
(irule
Guard
p2962
(dp2963
g18
I00
sg19
(lp2964
sg29
I00
sg25
Nsg31
I00
sg32
S'R'
sbsg40
(irule
ConstantPhoneme
p2965
(dp2966
S'p'
Vi
sbsg25
Nsba(irule
Rule
p2967
(dp2968
g15
(irule
Guard
p2969
(dp2970
g18
I00
sg19
(lp2971
(irule
FeatureMatrix
p2972
(dp2973
g23
(lp2974
sg25
Nsba(irule
FeatureMatrix
p2975
(dp2976
g23
(lp2977
(I01
g2597
tp2978
a(I00
g2901
tp2979
asg25
Nsbasg29
I00
sg25
Nsg31
I01
sg32
S'L'
sbsg33
(irule
ConstantPhoneme
p2980
(dp2981
S'p'
Vu
sbsg36
(irule
Guard
p2982
(dp2983
g18
I00
sg19
(lp2984
sg29
I00
sg25
Nsg31
I00
sg32
S'R'
sbsg40
(irule
ConstantPhoneme
p2985
(dp2986
S'p'
Vi
sbsg25
Nsba(irule
Rule
p2987
(dp2988
g15
(irule
Guard
p2989
(dp2990
g18
I01
sg19
(lp2991
(irule
FeatureMatrix
p2992
(dp2993
g23
(lp2994
sg25
Nsba(irule
ConstantPhoneme
p2995
(dp2996
S'p'
Vd
sbasg29
I00
sg25
Nsg31
I01
sg32
S'L'
sbsg33
(irule
ConstantPhoneme
p2997
(dp2998
S'p'
Vu
sbsg36
(irule
Guard
p2999
(dp3000
g18
I00
sg19
(lp3001
sg29
I00
sg25
Nsg31
I00
sg32
S'R'
sbsg40
(irule
ConstantPhoneme
p3002
(dp3003
S'p'
Vi
sbsg25
Nsba(irule
Rule
p3004
(dp3005
g15
(irule
Guard
p3006
(dp3007
g18
I00
sg19
(lp3008
(irule
FeatureMatrix
p3009
(dp3010
g23
(lp3011
sg25
Nsba(irule
FeatureMatrix
p3012
(dp3013
g23
(lp3014
(I01
g2597
tp3015
a(I01
g2550
tp3016
asg25
Nsbasg29
I00
sg25
Nsg31
I01
sg32
S'L'
sbsg33
(irule
ConstantPhoneme
p3017
(dp3018
S'p'
Vu
sbsg36
(irule
Guard
p3019
(dp3020
g18
I00
sg19
(lp3021
sg29
I00
sg25
Nsg31
I00
sg32
S'R'
sbsg40
(irule
ConstantPhoneme
p3022
(dp3023
S'p'
Vi
sbsg25
Nsba(irule
Rule
p3024
(dp3025
g15
(irule
Guard
p3026
(dp3027
g18
I00
sg19
(lp3028
(irule
FeatureMatrix
p3029
(dp3030
g23
(lp3031
sg25
Nsba(irule
FeatureMatrix
p3032
(dp3033
g23
(lp3034
(I00
S'sonorant'
p3035
tp3036
a(I01
g2550
tp3037
asg25
Nsbasg29
I00
sg25
Nsg31
I01
sg32
S'L'
sbsg33
(irule
ConstantPhoneme
p3038
(dp3039
S'p'
Vu
sbsg36
(irule
Guard
p3040
(dp3041
g18
I00
sg19
(lp3042
sg29
I00
sg25
Nsg31
I00
sg32
S'R'
sbsg40
(irule
ConstantPhoneme
p3043
(dp3044
S'p'
Vi
sbsg25
Nsba(irule
Rule
p3045
(dp3046
g15
(irule
Guard
p3047
(dp3048
g18
I00
sg19
(lp3049
(irule
FeatureMatrix
p3050
(dp3051
g23
(lp3052
sg25
Nsba(irule
ConstantPhoneme
p3053
(dp3054
S'p'
Vu
sbasg29
I00
sg25
Nsg31
I01
sg32
S'L'
sbsg33
(irule
ConstantPhoneme
p3055
(dp3056
S'p'
Vu
sbsg36
(irule
Guard
p3057
(dp3058
g18
I00
sg19
(lp3059
sg29
I00
sg25
Nsg31
I00
sg32
S'R'
sbsg40
(irule
FeatureMatrix
p3060
(dp3061
g23
(lp3062
(I00
g2683
tp3063
a(I01
g2844
tp3064
asg25
Nsbsg25
Nsba(irule
Rule
p3065
(dp3066
g15
(irule
Guard
p3067
(dp3068
g18
I00
sg19
(lp3069
(irule
FeatureMatrix
p3070
(dp3071
g23
(lp3072
sg25
Nsba(irule
ConstantPhoneme
p3073
(dp3074
S'p'
Vb
sbasg29
I00
sg25
Nsg31
I01
sg32
S'L'
sbsg33
(irule
ConstantPhoneme
p3075
(dp3076
S'p'
Vu
sbsg36
(irule
Guard
p3077
(dp3078
g18
I00
sg19
(lp3079
sg29
I00
sg25
Nsg31
I00
sg32
S'R'
sbsg40
(irule
FeatureMatrix
p3080
(dp3081
g23
(lp3082
(I01
g2664
tp3083
a(I00
g2666
tp3084
asg25
Nsbsg25
Nsba(irule
Rule
p3085
(dp3086
g15
(irule
Guard
p3087
(dp3088
g18
I00
sg19
(lp3089
(irule
FeatureMatrix
p3090
(dp3091
g23
(lp3092
sg25
Nsba(irule
ConstantPhoneme
p3093
(dp3094
S'p'
Vd
sbasg29
I00
sg25
Nsg31
I01
sg32
S'L'
sbsg33
(irule
ConstantPhoneme
p3095
(dp3096
S'p'
Vu
sbsg36
(irule
Guard
p3097
(dp3098
g18
I00
sg19
(lp3099
sg29
I00
sg25
Nsg31
I00
sg32
S'R'
sbsg40
(irule
FeatureMatrix
p3100
(dp3101
g23
(lp3102
(I00
g2666
tp3103
a(I01
g2771
tp3104
asg25
Nsbsg25
Nsba(irule
Rule
p3105
(dp3106
g15
(irule
Guard
p3107
(dp3108
g18
I00
sg19
(lp3109
(irule
FeatureMatrix
p3110
(dp3111
g23
(lp3112
(I00
g2821
tp3113
asg25
Nsba(irule
ConstantPhoneme
p3114
(dp3115
S'p'
Vb
sbasg29
I00
sg25
Nsg31
I01
sg32
S'L'
sbsg33
(irule
ConstantPhoneme
p3116
(dp3117
S'p'
Vu
sbsg36
(irule
Guard
p3118
(dp3119
g18
I00
sg19
(lp3120
sg29
I00
sg25
Nsg31
I00
sg32
S'R'
sbsg40
(irule
ConstantPhoneme
p3121
(dp3122
S'p'
Vi
sbsg25
Nsba(irule
Rule
p3123
(dp3124
g15
(irule
Guard
p3125
(dp3126
g18
I00
sg19
(lp3127
(irule
FeatureMatrix
p3128
(dp3129
g23
(lp3130
(I00
g2550
tp3131
asg25
Nsba(irule
ConstantPhoneme
p3132
(dp3133
S'p'
Vb
sbasg29
I00
sg25
Nsg31
I01
sg32
S'L'
sbsg33
(irule
ConstantPhoneme
p3134
(dp3135
S'p'
Vu
sbsg36
(irule
Guard
p3136
(dp3137
g18
I00
sg19
(lp3138
sg29
I00
sg25
Nsg31
I00
sg32
S'R'
sbsg40
(irule
ConstantPhoneme
p3139
(dp3140
S'p'
Vi
sbsg25
Nsba(irule
Rule
p3141
(dp3142
g15
(irule
Guard
p3143
(dp3144
g18
I00
sg19
(lp3145
(irule
FeatureMatrix
p3146
(dp3147
g23
(lp3148
(I01
g2548
tp3149
asg25
Nsba(irule
ConstantPhoneme
p3150
(dp3151
S'p'
Vb
sbasg29
I00
sg25
Nsg31
I01
sg32
S'L'
sbsg33
(irule
ConstantPhoneme
p3152
(dp3153
S'p'
Vu
sbsg36
(irule
Guard
p3154
(dp3155
g18
I00
sg19
(lp3156
sg29
I00
sg25
Nsg31
I00
sg32
S'R'
sbsg40
(irule
ConstantPhoneme
p3157
(dp3158
S'p'
Vi
sbsg25
Nsba(irule
Rule
p3159
(dp3160
g15
(irule
Guard
p3161
(dp3162
g18
I00
sg19
(lp3163
(irule
FeatureMatrix
p3164
(dp3165
g23
(lp3166
sg25
Nsba(irule
ConstantPhoneme
p3167
(dp3168
S'p'
Vu
sbasg29
I00
sg25
Nsg31
I01
sg32
S'L'
sbsg33
(irule
ConstantPhoneme
p3169
(dp3170
S'p'
Vu
sbsg36
(irule
Guard
p3171
(dp3172
g18
I00
sg19
(lp3173
sg29
I00
sg25
Nsg31
I00
sg32
S'R'
sbsg40
(irule
FeatureMatrix
p3174
(dp3175
g23
(lp3176
(I00
g2683
tp3177
a(I01
g2664
tp3178
asg25
Nsbsg25
Nsba(irule
Rule
p3179
(dp3180
g15
(irule
Guard
p3181
(dp3182
g18
I00
sg19
(lp3183
(irule
FeatureMatrix
p3184
(dp3185
g23
(lp3186
(I00
g2901
tp3187
asg25
Nsba(irule
ConstantPhoneme
p3188
(dp3189
S'p'
Vu
sbasg29
I00
sg25
Nsg31
I01
sg32
S'L'
sbsg33
(irule
ConstantPhoneme
p3190
(dp3191
S'p'
Vu
sbsg36
(irule
Guard
p3192
(dp3193
g18
I00
sg19
(lp3194
sg29
I00
sg25
Nsg31
I00
sg32
S'R'
sbsg40
(irule
ConstantPhoneme
p3195
(dp3196
S'p'
Vi
sbsg25
Nsba(irule
Rule
p3197
(dp3198
g15
(irule
Guard
p3199
(dp3200
g18
I00
sg19
(lp3201
(irule
FeatureMatrix
p3202
(dp3203
g23
(lp3204
(I00
g2901
tp3205
asg25
Nsba(irule
ConstantPhoneme
p3206
(dp3207
S'p'
Vd
sbasg29
I00
sg25
Nsg31
I01
sg32
S'L'
sbsg33
(irule
ConstantPhoneme
p3208
(dp3209
S'p'
Vu
sbsg36
(irule
Guard
p3210
(dp3211
g18
I00
sg19
(lp3212
sg29
I00
sg25
Nsg31
I00
sg32
S'R'
sbsg40
(irule
ConstantPhoneme
p3213
(dp3214
S'p'
Vi
sbsg25
Nsba(irule
Rule
p3215
(dp3216
g15
(irule
Guard
p3217
(dp3218
g18
I00
sg19
(lp3219
(irule
FeatureMatrix
p3220
(dp3221
g23
(lp3222
sg25
Nsba(irule
ConstantPhoneme
p3223
(dp3224
S'p'
Vd
sbasg29
I00
sg25
Nsg31
I01
sg32
S'L'
sbsg33
(irule
ConstantPhoneme
p3225
(dp3226
S'p'
Vu
sbsg36
(irule
Guard
p3227
(dp3228
g18
I00
sg19
(lp3229
sg29
I00
sg25
Nsg31
I00
sg32
S'R'
sbsg40
(irule
FeatureMatrix
p3230
(dp3231
g23
(lp3232
(I00
g2683
tp3233
a(I01
g2771
tp3234
asg25
Nsbsg25
Nsba(irule
Rule
p3235
(dp3236
g15
(irule
Guard
p3237
(dp3238
g18
I00
sg19
(lp3239
(irule
FeatureMatrix
p3240
(dp3241
g23
(lp3242
sg25
Nsba(irule
ConstantPhoneme
p3243
(dp3244
S'p'
Vd
sbasg29
I00
sg25
Nsg31
I01
sg32
S'L'
sbsg33
(irule
ConstantPhoneme
p3245
(dp3246
S'p'
Vu
sbsg36
(irule
Guard
p3247
(dp3248
g18
I00
sg19
(lp3249
sg29
I00
sg25
Nsg31
I00
sg32
S'R'
sbsg40
(irule
FeatureMatrix
p3250
(dp3251
g23
(lp3252
(I01
g2844
tp3253
a(I01
g2550
tp3254
asg25
Nsbsg25
Nsba(irule
Rule
p3255
(dp3256
g15
(irule
Guard
p3257
(dp3258
g18
I00
sg19
(lp3259
(irule
FeatureMatrix
p3260
(dp3261
g23
(lp3262
(I00
S'sibilant'
p3263
tp3264
asg25
Nsba(irule
ConstantPhoneme
p3265
(dp3266
S'p'
Vd
sbasg29
I00
sg25
Nsg31
I01
sg32
S'L'
sbsg33
(irule
ConstantPhoneme
p3267
(dp3268
S'p'
Vu
sbsg36
(irule
Guard
p3269
(dp3270
g18
I00
sg19
(lp3271
sg29
I00
sg25
Nsg31
I00
sg32
S'R'
sbsg40
(irule
ConstantPhoneme
p3272
(dp3273
S'p'
Vi
sbsg25
Nsba(irule
Rule
p3274
(dp3275
g15
(irule
Guard
p3276
(dp3277
g18
I00
sg19
(lp3278
(irule
FeatureMatrix
p3279
(dp3280
g23
(lp3281
(I00
g3263
tp3282
asg25
Nsba(irule
ConstantPhoneme
p3283
(dp3284
S'p'
Vu
sbasg29
I00
sg25
Nsg31
I01
sg32
S'L'
sbsg33
(irule
ConstantPhoneme
p3285
(dp3286
S'p'
Vu
sbsg36
(irule
Guard
p3287
(dp3288
g18
I00
sg19
(lp3289
sg29
I00
sg25
Nsg31
I00
sg32
S'R'
sbsg40
(irule
ConstantPhoneme
p3290
(dp3291
S'p'
Vi
sbsg25
Nsba(irule
Rule
p3292
(dp3293
g15
(irule
Guard
p3294
(dp3295
g18
I00
sg19
(lp3296
(irule
FeatureMatrix
p3297
(dp3298
g23
(lp3299
(I00
S'palletized'
p3300
tp3301
asg25
Nsba(irule
ConstantPhoneme
p3302
(dp3303
S'p'
Vd
sbasg29
I00
sg25
Nsg31
I01
sg32
S'L'
sbsg33
(irule
ConstantPhoneme
p3304
(dp3305
S'p'
Vu
sbsg36
(irule
Guard
p3306
(dp3307
g18
I00
sg19
(lp3308
sg29
I00
sg25
Nsg31
I00
sg32
S'R'
sbsg40
(irule
ConstantPhoneme
p3309
(dp3310
S'p'
Vi
sbsg25
Nsba(irule
Rule
p3311
(dp3312
g15
(irule
Guard
p3313
(dp3314
g18
I00
sg19
(lp3315
(irule
FeatureMatrix
p3316
(dp3317
g23
(lp3318
(I00
g2771
tp3319
asg25
Nsba(irule
ConstantPhoneme
p3320
(dp3321
S'p'
Vu
sbasg29
I00
sg25
Nsg31
I01
sg32
S'L'
sbsg33
(irule
ConstantPhoneme
p3322
(dp3323
S'p'
Vu
sbsg36
(irule
Guard
p3324
(dp3325
g18
I00
sg19
(lp3326
sg29
I00
sg25
Nsg31
I00
sg32
S'R'
sbsg40
(irule
ConstantPhoneme
p3327
(dp3328
S'p'
Vi
sbsg25
Nsba(irule
Rule
p3329
(dp3330
g15
(irule
Guard
p3331
(dp3332
g18
I00
sg19
(lp3333
(irule
FeatureMatrix
p3334
(dp3335
g23
(lp3336
(I00
g2664
tp3337
asg25
Nsba(irule
ConstantPhoneme
p3338
(dp3339
S'p'
Vu
sbasg29
I00
sg25
Nsg31
I01
sg32
S'L'
sbsg33
(irule
ConstantPhoneme
p3340
(dp3341
S'p'
Vu
sbsg36
(irule
Guard
p3342
(dp3343
g18
I00
sg19
(lp3344
sg29
I00
sg25
Nsg31
I00
sg32
S'R'
sbsg40
(irule
ConstantPhoneme
p3345
(dp3346
S'p'
Vi
sbsg25
Nsba(irule
Rule
p3347
(dp3348
g15
(irule
Guard
p3349
(dp3350
g18
I00
sg19
(lp3351
(irule
FeatureMatrix
p3352
(dp3353
g23
(lp3354
(I00
g3300
tp3355
asg25
Nsba(irule
ConstantPhoneme
p3356
(dp3357
S'p'
Vu
sbasg29
I00
sg25
Nsg31
I01
sg32
S'L'
sbsg33
(irule
ConstantPhoneme
p3358
(dp3359
S'p'
Vu
sbsg36
(irule
Guard
p3360
(dp3361
g18
I00
sg19
(lp3362
sg29
I00
sg25
Nsg31
I00
sg32
S'R'
sbsg40
(irule
ConstantPhoneme
p3363
(dp3364
S'p'
Vi
sbsg25
Nsba(irule
Rule
p3365
(dp3366
g15
(irule
Guard
p3367
(dp3368
g18
I00
sg19
(lp3369
(irule
FeatureMatrix
p3370
(dp3371
g23
(lp3372
sg25
Nsba(irule
ConstantPhoneme
p3373
(dp3374
S'p'
Vu
sbasg29
I00
sg25
Nsg31
I01
sg32
S'L'
sbsg33
(irule
ConstantPhoneme
p3375
(dp3376
S'p'
Vu
sbsg36
(irule
Guard
p3377
(dp3378
g18
I00
sg19
(lp3379
sg29
I00
sg25
Nsg31
I00
sg32
S'R'
sbsg40
(irule
FeatureMatrix
p3380
(dp3381
g23
(lp3382
(I00
g2683
tp3383
a(I01
g2771
tp3384
asg25
Nsbsg25
Nsba(irule
Rule
p3385
(dp3386
g15
(irule
Guard
p3387
(dp3388
g18
I00
sg19
(lp3389
(irule
FeatureMatrix
p3390
(dp3391
g23
(lp3392
sg25
Nsba(irule
ConstantPhoneme
p3393
(dp3394
S'p'
Vd
sbasg29
I00
sg25
Nsg31
I01
sg32
S'L'
sbsg33
(irule
ConstantPhoneme
p3395
(dp3396
S'p'
Vu
sbsg36
(irule
Guard
p3397
(dp3398
g18
I00
sg19
(lp3399
sg29
I00
sg25
Nsg31
I00
sg32
S'R'
sbsg40
(irule
FeatureMatrix
p3400
(dp3401
g23
(lp3402
(I01
g2664
tp3403
a(I00
g2666
tp3404
asg25
Nsbsg25
Nsba(irule
Rule
p3405
(dp3406
g15
(irule
Guard
p3407
(dp3408
g18
I00
sg19
(lp3409
(irule
FeatureMatrix
p3410
(dp3411
g23
(lp3412
sg25
Nsba(irule
ConstantPhoneme
p3413
(dp3414
S'p'
Vu
sbasg29
I00
sg25
Nsg31
I01
sg32
S'L'
sbsg33
(irule
ConstantPhoneme
p3415
(dp3416
S'p'
Vu
sbsg36
(irule
Guard
p3417
(dp3418
g18
I00
sg19
(lp3419
sg29
I00
sg25
Nsg31
I00
sg32
S'R'
sbsg40
(irule
FeatureMatrix
p3420
(dp3421
g23
(lp3422
(I00
g2666
tp3423
a(I01
g2771
tp3424
asg25
Nsbsg25
Nsba(irule
Rule
p3425
(dp3426
g15
(irule
Guard
p3427
(dp3428
g18
I00
sg19
(lp3429
(irule
FeatureMatrix
p3430
(dp3431
g23
(lp3432
sg25
Nsba(irule
ConstantPhoneme
p3433
(dp3434
S'p'
Vb
sbasg29
I00
sg25
Nsg31
I01
sg32
S'L'
sbsg33
(irule
ConstantPhoneme
p3435
(dp3436
S'p'
Vu
sbsg36
(irule
Guard
p3437
(dp3438
g18
I00
sg19
(lp3439
sg29
I00
sg25
Nsg31
I00
sg32
S'R'
sbsg40
(irule
FeatureMatrix
p3440
(dp3441
g23
(lp3442
(I01
g2548
tp3443
a(I01
g2844
tp3444
asg25
Nsbsg25
Nsba(irule
Rule
p3445
(dp3446
g15
(irule
Guard
p3447
(dp3448
g18
I00
sg19
(lp3449
(irule
FeatureMatrix
p3450
(dp3451
g23
(lp3452
(I00
S'nasal'
p3453
tp3454
asg25
Nsba(irule
ConstantPhoneme
p3455
(dp3456
S'p'
Vd
sbasg29
I00
sg25
Nsg31
I01
sg32
S'L'
sbsg33
(irule
ConstantPhoneme
p3457
(dp3458
S'p'
Vu
sbsg36
(irule
Guard
p3459
(dp3460
g18
I00
sg19
(lp3461
sg29
I00
sg25
Nsg31
I00
sg32
S'R'
sbsg40
(irule
ConstantPhoneme
p3462
(dp3463
S'p'
Vi
sbsg25
Nsba(irule
Rule
p3464
(dp3465
g15
(irule
Guard
p3466
(dp3467
g18
I00
sg19
(lp3468
(irule
FeatureMatrix
p3469
(dp3470
g23
(lp3471
sg25
Nsba(irule
ConstantPhoneme
p3472
(dp3473
S'p'
Vb
sbasg29
I00
sg25
Nsg31
I01
sg32
S'L'
sbsg33
(irule
ConstantPhoneme
p3474
(dp3475
S'p'
Vu
sbsg36
(irule
Guard
p3476
(dp3477
g18
I00
sg19
(lp3478
sg29
I00
sg25
Nsg31
I00
sg32
S'R'
sbsg40
(irule
FeatureMatrix
p3479
(dp3480
g23
(lp3481
(I00
g2666
tp3482
a(I01
g2771
tp3483
asg25
Nsbsg25
Nsba(irule
Rule
p3484
(dp3485
g15
(irule
Guard
p3486
(dp3487
g18
I00
sg19
(lp3488
(irule
FeatureMatrix
p3489
(dp3490
g23
(lp3491
sg25
Nsba(irule
ConstantPhoneme
p3492
(dp3493
S'p'
Vd
sbasg29
I00
sg25
Nsg31
I01
sg32
S'L'
sbsg33
(irule
ConstantPhoneme
p3494
(dp3495
S'p'
Vu
sbsg36
(irule
Guard
p3496
(dp3497
g18
I00
sg19
(lp3498
sg29
I00
sg25
Nsg31
I00
sg32
S'R'
sbsg40
(irule
FeatureMatrix
p3499
(dp3500
g23
(lp3501
(I01
g2844
tp3502
a(I01
g2771
tp3503
asg25
Nsbsg25
Nsba(irule
Rule
p3504
(dp3505
g15
(irule
Guard
p3506
(dp3507
g18
I00
sg19
(lp3508
(irule
FeatureMatrix
p3509
(dp3510
g23
(lp3511
sg25
Nsba(irule
ConstantPhoneme
p3512
(dp3513
S'p'
Vu
sbasg29
I00
sg25
Nsg31
I01
sg32
S'L'
sbsg33
(irule
ConstantPhoneme
p3514
(dp3515
S'p'
Vu
sbsg36
(irule
Guard
p3516
(dp3517
g18
I00
sg19
(lp3518
sg29
I00
sg25
Nsg31
I00
sg32
S'R'
sbsg40
(irule
FeatureMatrix
p3519
(dp3520
g23
(lp3521
(I01
g2548
tp3522
a(I01
g2844
tp3523
asg25
Nsbsg25
Nsba(irule
Rule
p3524
(dp3525
g15
(irule
Guard
p3526
(dp3527
g18
I00
sg19
(lp3528
(irule
FeatureMatrix
p3529
(dp3530
g23
(lp3531
sg25
Nsba(irule
ConstantPhoneme
p3532
(dp3533
S'p'
Vu
sbasg29
I00
sg25
Nsg31
I01
sg32
S'L'
sbsg33
(irule
ConstantPhoneme
p3534
(dp3535
S'p'
Vu
sbsg36
(irule
Guard
p3536
(dp3537
g18
I00
sg19
(lp3538
sg29
I00
sg25
Nsg31
I00
sg32
S'R'
sbsg40
(irule
FeatureMatrix
p3539
(dp3540
g23
(lp3541
(I01
g2844
tp3542
a(I01
g2771
tp3543
asg25
Nsbsg25
Nsba(irule
Rule
p3544
(dp3545
g15
(irule
Guard
p3546
(dp3547
g18
I00
sg19
(lp3548
(irule
FeatureMatrix
p3549
(dp3550
g23
(lp3551
sg25
Nsba(irule
ConstantPhoneme
p3552
(dp3553
S'p'
Vu
sbasg29
I00
sg25
Nsg31
I01
sg32
S'L'
sbsg33
(irule
ConstantPhoneme
p3554
(dp3555
S'p'
Vu
sbsg36
(irule
Guard
p3556
(dp3557
g18
I00
sg19
(lp3558
sg29
I00
sg25
Nsg31
I00
sg32
S'R'
sbsg40
(irule
FeatureMatrix
p3559
(dp3560
g23
(lp3561
(I01
g3035
tp3562
a(I01
g2844
tp3563
asg25
Nsbsg25
Nsba(irule
Rule
p3564
(dp3565
g15
(irule
Guard
p3566
(dp3567
g18
I00
sg19
(lp3568
(irule
FeatureMatrix
p3569
(dp3570
g23
(lp3571
sg25
Nsba(irule
ConstantPhoneme
p3572
(dp3573
S'p'
Vd
sbasg29
I00
sg25
Nsg31
I01
sg32
S'L'
sbsg33
(irule
ConstantPhoneme
p3574
(dp3575
S'p'
Vu
sbsg36
(irule
Guard
p3576
(dp3577
g18
I00
sg19
(lp3578
sg29
I00
sg25
Nsg31
I00
sg32
S'R'
sbsg40
(irule
FeatureMatrix
p3579
(dp3580
g23
(lp3581
(I00
g2683
tp3582
a(I01
g2664
tp3583
asg25
Nsbsg25
Nsba(irule
Rule
p3584
(dp3585
g15
(irule
Guard
p3586
(dp3587
g18
I00
sg19
(lp3588
(irule
FeatureMatrix
p3589
(dp3590
g23
(lp3591
sg25
Nsba(irule
ConstantPhoneme
p3592
(dp3593
S'p'
Vb
sbasg29
I00
sg25
Nsg31
I01
sg32
S'L'
sbsg33
(irule
ConstantPhoneme
p3594
(dp3595
S'p'
Vu
sbsg36
(irule
Guard
p3596
(dp3597
g18
I00
sg19
(lp3598
sg29
I00
sg25
Nsg31
I00
sg32
S'R'
sbsg40
(irule
FeatureMatrix
p3599
(dp3600
g23
(lp3601
(I00
g2683
tp3602
a(I01
g2664
tp3603
asg25
Nsbsg25
Nsba(irule
Rule
p3604
(dp3605
g15
(irule
Guard
p3606
(dp3607
g18
I00
sg19
(lp3608
(irule
FeatureMatrix
p3609
(dp3610
g23
(lp3611
(I00
g3263
tp3612
asg25
Nsba(irule
ConstantPhoneme
p3613
(dp3614
S'p'
Vb
sbasg29
I00
sg25
Nsg31
I01
sg32
S'L'
sbsg33
(irule
ConstantPhoneme
p3615
(dp3616
S'p'
Vu
sbsg36
(irule
Guard
p3617
(dp3618
g18
I00
sg19
(lp3619
sg29
I00
sg25
Nsg31
I00
sg32
S'R'
sbsg40
(irule
ConstantPhoneme
p3620
(dp3621
S'p'
Vi
sbsg25
Nsba(irule
Rule
p3622
(dp3623
g15
(irule
Guard
p3624
(dp3625
g18
I00
sg19
(lp3626
(irule
FeatureMatrix
p3627
(dp3628
g23
(lp3629
sg25
Nsba(irule
ConstantPhoneme
p3630
(dp3631
S'p'
Vd
sbasg29
I00
sg25
Nsg31
I01
sg32
S'L'
sbsg33
(irule
ConstantPhoneme
p3632
(dp3633
S'p'
Vu
sbsg36
(irule
Guard
p3634
(dp3635
g18
I00
sg19
(lp3636
sg29
I00
sg25
Nsg31
I00
sg32
S'R'
sbsg40
(irule
FeatureMatrix
p3637
(dp3638
g23
(lp3639
(I00
g2683
tp3640
a(I01
g2844
tp3641
asg25
Nsbsg25
Nsba(irule
Rule
p3642
(dp3643
g15
(irule
Guard
p3644
(dp3645
g18
I00
sg19
(lp3646
(irule
FeatureMatrix
p3647
(dp3648
g23
(lp3649
(I00
g2664
tp3650
asg25
Nsba(irule
ConstantPhoneme
p3651
(dp3652
S'p'
Vb
sbasg29
I00
sg25
Nsg31
I01
sg32
S'L'
sbsg33
(irule
ConstantPhoneme
p3653
(dp3654
S'p'
Vu
sbsg36
(irule
Guard
p3655
(dp3656
g18
I00
sg19
(lp3657
sg29
I00
sg25
Nsg31
I00
sg32
S'R'
sbsg40
(irule
ConstantPhoneme
p3658
(dp3659
S'p'
Vi
sbsg25
Nsba(irule
Rule
p3660
(dp3661
g15
(irule
Guard
p3662
(dp3663
g18
I00
sg19
(lp3664
(irule
FeatureMatrix
p3665
(dp3666
g23
(lp3667
sg25
Nsba(irule
ConstantPhoneme
p3668
(dp3669
S'p'
Vb
sbasg29
I00
sg25
Nsg31
I01
sg32
S'L'
sbsg33
(irule
ConstantPhoneme
p3670
(dp3671
S'p'
Vu
sbsg36
(irule
Guard
p3672
(dp3673
g18
I00
sg19
(lp3674
sg29
I00
sg25
Nsg31
I00
sg32
S'R'
sbsg40
(irule
FeatureMatrix
p3675
(dp3676
g23
(lp3677
(I01
g3035
tp3678
a(I01
g2844
tp3679
asg25
Nsbsg25
Nsba(irule
Rule
p3680
(dp3681
g15
(irule
Guard
p3682
(dp3683
g18
I00
sg19
(lp3684
(irule
FeatureMatrix
p3685
(dp3686
g23
(lp3687
sg25
Nsba(irule
ConstantPhoneme
p3688
(dp3689
S'p'
Vd
sbasg29
I00
sg25
Nsg31
I01
sg32
S'L'
sbsg33
(irule
ConstantPhoneme
p3690
(dp3691
S'p'
Vu
sbsg36
(irule
Guard
p3692
(dp3693
g18
I00
sg19
(lp3694
sg29
I00
sg25
Nsg31
I00
sg32
S'R'
sbsg40
(irule
FeatureMatrix
p3695
(dp3696
g23
(lp3697
(I01
g2844
tp3698
a(I01
g2664
tp3699
asg25
Nsbsg25
Nsba(irule
Rule
p3700
(dp3701
g15
(irule
Guard
p3702
(dp3703
g18
I00
sg19
(lp3704
(irule
FeatureMatrix
p3705
(dp3706
g23
(lp3707
sg25
Nsba(irule
ConstantPhoneme
p3708
(dp3709
S'p'
Vu
sbasg29
I00
sg25
Nsg31
I01
sg32
S'L'
sbsg33
(irule
ConstantPhoneme
p3710
(dp3711
S'p'
Vu
sbsg36
(irule
Guard
p3712
(dp3713
g18
I00
sg19
(lp3714
sg29
I00
sg25
Nsg31
I00
sg32
S'R'
sbsg40
(irule
FeatureMatrix
p3715
(dp3716
g23
(lp3717
(I01
g2844
tp3718
a(I01
g2550
tp3719
asg25
Nsbsg25
Nsba(irule
Rule
p3720
(dp3721
g15
(irule
Guard
p3722
(dp3723
g18
I00
sg19
(lp3724
(irule
FeatureMatrix
p3725
(dp3726
g23
(lp3727
sg25
Nsba(irule
ConstantPhoneme
p3728
(dp3729
S'p'
Vu
sbasg29
I00
sg25
Nsg31
I01
sg32
S'L'
sbsg33
(irule
ConstantPhoneme
p3730
(dp3731
S'p'
Vu
sbsg36
(irule
Guard
p3732
(dp3733
g18
I00
sg19
(lp3734
sg29
I00
sg25
Nsg31
I00
sg32
S'R'
sbsg40
(irule
FeatureMatrix
p3735
(dp3736
g23
(lp3737
(I01
g2844
tp3738
a(I01
g2664
tp3739
asg25
Nsbsg25
Nsba(irule
Rule
p3740
(dp3741
g15
(irule
Guard
p3742
(dp3743
g18
I00
sg19
(lp3744
(irule
FeatureMatrix
p3745
(dp3746
g23
(lp3747
(I00
g2771
tp3748
asg25
Nsba(irule
ConstantPhoneme
p3749
(dp3750
S'p'
Vb
sbasg29
I00
sg25
Nsg31
I01
sg32
S'L'
sbsg33
(irule
ConstantPhoneme
p3751
(dp3752
S'p'
Vu
sbsg36
(irule
Guard
p3753
(dp3754
g18
I00
sg19
(lp3755
sg29
I00
sg25
Nsg31
I00
sg32
S'R'
sbsg40
(irule
ConstantPhoneme
p3756
(dp3757
S'p'
Vi
sbsg25
Nsba(irule
Rule
p3758
(dp3759
g15
(irule
Guard
p3760
(dp3761
g18
I00
sg19
(lp3762
(irule
FeatureMatrix
p3763
(dp3764
g23
(lp3765
sg25
Nsba(irule
ConstantPhoneme
p3766
(dp3767
S'p'
Vb
sbasg29
I00
sg25
Nsg31
I01
sg32
S'L'
sbsg33
(irule
ConstantPhoneme
p3768
(dp3769
S'p'
Vu
sbsg36
(irule
Guard
p3770
(dp3771
g18
I00
sg19
(lp3772
sg29
I00
sg25
Nsg31
I00
sg32
S'R'
sbsg40
(irule
FeatureMatrix
p3773
(dp3774
g23
(lp3775
(I01
g2844
tp3776
a(I01
g2550
tp3777
asg25
Nsbsg25
Nsba(irule
Rule
p3778
(dp3779
g15
(irule
Guard
p3780
(dp3781
g18
I00
sg19
(lp3782
(irule
FeatureMatrix
p3783
(dp3784
g23
(lp3785
sg25
Nsba(irule
ConstantPhoneme
p3786
(dp3787
S'p'
Vb
sbasg29
I00
sg25
Nsg31
I01
sg32
S'L'
sbsg33
(irule
ConstantPhoneme
p3788
(dp3789
S'p'
Vu
sbsg36
(irule
Guard
p3790
(dp3791
g18
I00
sg19
(lp3792
sg29
I00
sg25
Nsg31
I00
sg32
S'R'
sbsg40
(irule
FeatureMatrix
p3793
(dp3794
g23
(lp3795
(I00
g2683
tp3796
a(I01
g2844
tp3797
asg25
Nsbsg25
Nsba(irule
Rule
p3798
(dp3799
g15
(irule
Guard
p3800
(dp3801
g18
I00
sg19
(lp3802
(irule
FeatureMatrix
p3803
(dp3804
g23
(lp3805
sg25
Nsba(irule
ConstantPhoneme
p3806
(dp3807
S'p'
Vb
sbasg29
I00
sg25
Nsg31
I01
sg32
S'L'
sbsg33
(irule
ConstantPhoneme
p3808
(dp3809
S'p'
Vu
sbsg36
(irule
Guard
p3810
(dp3811
g18
I00
sg19
(lp3812
sg29
I00
sg25
Nsg31
I00
sg32
S'R'
sbsg40
(irule
FeatureMatrix
p3813
(dp3814
g23
(lp3815
(I01
g2844
tp3816
a(I01
g2771
tp3817
asg25
Nsbsg25
Nsba(irule
Rule
p3818
(dp3819
g15
(irule
Guard
p3820
(dp3821
g18
I00
sg19
(lp3822
(irule
FeatureMatrix
p3823
(dp3824
g23
(lp3825
(I00
S'lateral'
p3826
tp3827
asg25
Nsba(irule
ConstantPhoneme
p3828
(dp3829
S'p'
Vd
sbasg29
I00
sg25
Nsg31
I01
sg32
S'L'
sbsg33
(irule
ConstantPhoneme
p3830
(dp3831
S'p'
Vu
sbsg36
(irule
Guard
p3832
(dp3833
g18
I00
sg19
(lp3834
sg29
I00
sg25
Nsg31
I00
sg32
S'R'
sbsg40
(irule
ConstantPhoneme
p3835
(dp3836
S'p'
Vi
sbsg25
Nsba(irule
Rule
p3837
(dp3838
g15
(irule
Guard
p3839
(dp3840
g18
I00
sg19
(lp3841
(irule
FeatureMatrix
p3842
(dp3843
g23
(lp3844
sg25
Nsba(irule
ConstantPhoneme
p3845
(dp3846
S'p'
Vb
sbasg29
I00
sg25
Nsg31
I01
sg32
S'L'
sbsg33
(irule
ConstantPhoneme
p3847
(dp3848
S'p'
Vu
sbsg36
(irule
Guard
p3849
(dp3850
g18
I00
sg19
(lp3851
sg29
I00
sg25
Nsg31
I00
sg32
S'R'
sbsg40
(irule
FeatureMatrix
p3852
(dp3853
g23
(lp3854
(I01
g2844
tp3855
a(I01
g2664
tp3856
asg25
Nsbsg25
Nsba(irule
Rule
p3857
(dp3858
g15
(irule
Guard
p3859
(dp3860
g18
I00
sg19
(lp3861
(irule
FeatureMatrix
p3862
(dp3863
g23
(lp3864
sg25
Nsba(irule
ConstantPhoneme
p3865
(dp3866
S'p'
Vd
sbasg29
I00
sg25
Nsg31
I01
sg32
S'L'
sbsg33
(irule
ConstantPhoneme
p3867
(dp3868
S'p'
Vu
sbsg36
(irule
Guard
p3869
(dp3870
g18
I00
sg19
(lp3871
sg29
I00
sg25
Nsg31
I00
sg32
S'R'
sbsg40
(irule
FeatureMatrix
p3872
(dp3873
g23
(lp3874
(I01
g3035
tp3875
a(I01
g2844
tp3876
asg25
Nsbsg25
Nsba(irule
Rule
p3877
(dp3878
g15
(irule
Guard
p3879
(dp3880
g18
I00
sg19
(lp3881
(irule
FeatureMatrix
p3882
(dp3883
g23
(lp3884
(I00
g2901
tp3885
asg25
Nsba(irule
ConstantPhoneme
p3886
(dp3887
S'p'
Vb
sbasg29
I00
sg25
Nsg31
I01
sg32
S'L'
sbsg33
(irule
ConstantPhoneme
p3888
(dp3889
S'p'
Vu
sbsg36
(irule
Guard
p3890
(dp3891
g18
I00
sg19
(lp3892
sg29
I00
sg25
Nsg31
I00
sg32
S'R'
sbsg40
(irule
ConstantPhoneme
p3893
(dp3894
S'p'
Vi
sbsg25
Nsba(irule
Rule
p3895
(dp3896
g15
(irule
Guard
p3897
(dp3898
g18
I00
sg19
(lp3899
(irule
FeatureMatrix
p3900
(dp3901
g23
(lp3902
(I00
S'liquid'
p3903
tp3904
asg25
Nsba(irule
ConstantPhoneme
p3905
(dp3906
S'p'
Vd
sbasg29
I00
sg25
Nsg31
I01
sg32
S'L'
sbsg33
(irule
ConstantPhoneme
p3907
(dp3908
S'p'
Vu
sbsg36
(irule
Guard
p3909
(dp3910
g18
I00
sg19
(lp3911
sg29
I00
sg25
Nsg31
I00
sg32
S'R'
sbsg40
(irule
ConstantPhoneme
p3912
(dp3913
S'p'
Vi
sbsg25
Nsba(irule
Rule
p3914
(dp3915
g15
(irule
Guard
p3916
(dp3917
g18
I00
sg19
(lp3918
(irule
FeatureMatrix
p3919
(dp3920
g23
(lp3921
(I00
g3453
tp3922
asg25
Nsba(irule
ConstantPhoneme
p3923
(dp3924
S'p'
Vu
sbasg29
I00
sg25
Nsg31
I01
sg32
S'L'
sbsg33
(irule
ConstantPhoneme
p3925
(dp3926
S'p'
Vu
sbsg36
(irule
Guard
p3927
(dp3928
g18
I00
sg19
(lp3929
sg29
I00
sg25
Nsg31
I00
sg32
S'R'
sbsg40
(irule
ConstantPhoneme
p3930
(dp3931
S'p'
Vi
sbsg25
Nsba(irule
Rule
p3932
(dp3933
g15
(irule
Guard
p3934
(dp3935
g18
I00
sg19
(lp3936
(irule
FeatureMatrix
p3937
(dp3938
g23
(lp3939
(I00
S'glide'
p3940
tp3941
asg25
Nsba(irule
ConstantPhoneme
p3942
(dp3943
S'p'
Vd
sbasg29
I00
sg25
Nsg31
I01
sg32
S'L'
sbsg33
(irule
ConstantPhoneme
p3944
(dp3945
S'p'
Vu
sbsg36
(irule
Guard
p3946
(dp3947
g18
I00
sg19
(lp3948
sg29
I00
sg25
Nsg31
I00
sg32
S'R'
sbsg40
(irule
ConstantPhoneme
p3949
(dp3950
S'p'
Vi
sbsg25
Nsba(irule
Rule
p3951
(dp3952
g15
(irule
Guard
p3953
(dp3954
g18
I00
sg19
(lp3955
(irule
FeatureMatrix
p3956
(dp3957
g23
(lp3958
(I00
S'long'
p3959
tp3960
asg25
Nsba(irule
ConstantPhoneme
p3961
(dp3962
S'p'
Vd
sbasg29
I00
sg25
Nsg31
I01
sg32
S'L'
sbsg33
(irule
ConstantPhoneme
p3963
(dp3964
S'p'
Vu
sbsg36
(irule
Guard
p3965
(dp3966
g18
I00
sg19
(lp3967
sg29
I00
sg25
Nsg31
I00
sg32
S'R'
sbsg40
(irule
ConstantPhoneme
p3968
(dp3969
S'p'
Vi
sbsg25
Nsba(irule
Rule
p3970
(dp3971
g15
(irule
Guard
p3972
(dp3973
g18
I00
sg19
(lp3974
(irule
FeatureMatrix
p3975
(dp3976
g23
(lp3977
sg25
Nsba(irule
ConstantPhoneme
p3978
(dp3979
S'p'
Vd
sbasg29
I00
sg25
Nsg31
I01
sg32
S'L'
sbsg33
(irule
ConstantPhoneme
p3980
(dp3981
S'p'
Vu
sbsg36
(irule
Guard
p3982
(dp3983
g18
I00
sg19
(lp3984
sg29
I00
sg25
Nsg31
I00
sg32
S'R'
sbsg40
(irule
FeatureMatrix
p3985
(dp3986
g23
(lp3987
(I01
g2548
tp3988
a(I01
g2844
tp3989
asg25
Nsbsg25
Nsba(irule
Rule
p3990
(dp3991
g15
(irule
Guard
p3992
(dp3993
g18
I00
sg19
(lp3994
(irule
FeatureMatrix
p3995
(dp3996
g23
(lp3997
(I00
g2683
tp3998
asg25
Nsba(irule
ConstantPhoneme
p3999
(dp4000
S'p'
Vu
sbasg29
I00
sg25
Nsg31
I01
sg32
S'L'
sbsg33
(irule
ConstantPhoneme
p4001
(dp4002
S'p'
Vu
sbsg36
(irule
Guard
p4003
(dp4004
g18
I00
sg19
(lp4005
sg29
I00
sg25
Nsg31
I00
sg32
S'R'
sbsg40
(irule
ConstantPhoneme
p4006
(dp4007
S'p'
Vi
sbsg25
Nsba(irule
Rule
p4008
(dp4009
g15
(irule
Guard
p4010
(dp4011
g18
I00
sg19
(lp4012
(irule
FeatureMatrix
p4013
(dp4014
g23
(lp4015
(I01
g2666
tp4016
asg25
Nsba(irule
ConstantPhoneme
p4017
(dp4018
S'p'
Vb
sbasg29
I00
sg25
Nsg31
I01
sg32
S'L'
sbsg33
(irule
ConstantPhoneme
p4019
(dp4020
S'p'
Vu
sbsg36
(irule
Guard
p4021
(dp4022
g18
I00
sg19
(lp4023
sg29
I00
sg25
Nsg31
I00
sg32
S'R'
sbsg40
(irule
ConstantPhoneme
p4024
(dp4025
S'p'
Vi
sbsg25
Nsba(irule
Rule
p4026
(dp4027
g15
(irule
Guard
p4028
(dp4029
g18
I00
sg19
(lp4030
(irule
FeatureMatrix
p4031
(dp4032
g23
(lp4033
(I00
g2844
tp4034
asg25
Nsba(irule
ConstantPhoneme
p4035
(dp4036
S'p'
Vu
sbasg29
I00
sg25
Nsg31
I01
sg32
S'L'
sbsg33
(irule
ConstantPhoneme
p4037
(dp4038
S'p'
Vu
sbsg36
(irule
Guard
p4039
(dp4040
g18
I00
sg19
(lp4041
sg29
I00
sg25
Nsg31
I00
sg32
S'R'
sbsg40
(irule
ConstantPhoneme
p4042
(dp4043
S'p'
Vi
sbsg25
Nsba(irule
Rule
p4044
(dp4045
g15
(irule
Guard
p4046
(dp4047
g18
I00
sg19
(lp4048
(irule
FeatureMatrix
p4049
(dp4050
g23
(lp4051
(I00
g3300
tp4052
asg25
Nsba(irule
ConstantPhoneme
p4053
(dp4054
S'p'
Vb
sbasg29
I00
sg25
Nsg31
I01
sg32
S'L'
sbsg33
(irule
ConstantPhoneme
p4055
(dp4056
S'p'
Vu
sbsg36
(irule
Guard
p4057
(dp4058
g18
I00
sg19
(lp4059
sg29
I00
sg25
Nsg31
I00
sg32
S'R'
sbsg40
(irule
ConstantPhoneme
p4060
(dp4061
S'p'
Vi
sbsg25
Nsba(irule
Rule
p4062
(dp4063
g15
(irule
Guard
p4064
(dp4065
g18
I00
sg19
(lp4066
(irule
FeatureMatrix
p4067
(dp4068
g23
(lp4069
(I00
g2844
tp4070
asg25
Nsba(irule
ConstantPhoneme
p4071
(dp4072
S'p'
Vb
sbasg29
I00
sg25
Nsg31
I01
sg32
S'L'
sbsg33
(irule
ConstantPhoneme
p4073
(dp4074
S'p'
Vu
sbsg36
(irule
Guard
p4075
(dp4076
g18
I00
sg19
(lp4077
sg29
I00
sg25
Nsg31
I00
sg32
S'R'
sbsg40
(irule
ConstantPhoneme
p4078
(dp4079
S'p'
Vi
sbsg25
Nsba(irule
Rule
p4080
(dp4081
g15
(irule
Guard
p4082
(dp4083
g18
I00
sg19
(lp4084
(irule
FeatureMatrix
p4085
(dp4086
g23
(lp4087
(I01
g3035
tp4088
asg25
Nsba(irule
ConstantPhoneme
p4089
(dp4090
S'p'
Vb
sbasg29
I00
sg25
Nsg31
I01
sg32
S'L'
sbsg33
(irule
ConstantPhoneme
p4091
(dp4092
S'p'
Vu
sbsg36
(irule
Guard
p4093
(dp4094
g18
I00
sg19
(lp4095
sg29
I00
sg25
Nsg31
I00
sg32
S'R'
sbsg40
(irule
ConstantPhoneme
p4096
(dp4097
S'p'
Vi
sbsg25
Nsba(irule
Rule
p4098
(dp4099
g15
(irule
Guard
p4100
(dp4101
g18
I00
sg19
(lp4102
(irule
FeatureMatrix
p4103
(dp4104
g23
(lp4105
(I00
g3826
tp4106
asg25
Nsba(irule
ConstantPhoneme
p4107
(dp4108
S'p'
Vu
sbasg29
I00
sg25
Nsg31
I01
sg32
S'L'
sbsg33
(irule
ConstantPhoneme
p4109
(dp4110
S'p'
Vu
sbsg36
(irule
Guard
p4111
(dp4112
g18
I00
sg19
(lp4113
sg29
I00
sg25
Nsg31
I00
sg32
S'R'
sbsg40
(irule
ConstantPhoneme
p4114
(dp4115
S'p'
Vi
sbsg25
Nsba(irule
Rule
p4116
(dp4117
g15
(irule
Guard
p4118
(dp4119
g18
I00
sg19
(lp4120
(irule
FeatureMatrix
p4121
(dp4122
g23
(lp4123
(I00
g2683
tp4124
asg25
Nsba(irule
ConstantPhoneme
p4125
(dp4126
S'p'
Vb
sbasg29
I00
sg25
Nsg31
I01
sg32
S'L'
sbsg33
(irule
ConstantPhoneme
p4127
(dp4128
S'p'
Vu
sbsg36
(irule
Guard
p4129
(dp4130
g18
I00
sg19
(lp4131
sg29
I00
sg25
Nsg31
I00
sg32
S'R'
sbsg40
(irule
ConstantPhoneme
p4132
(dp4133
S'p'
Vi
sbsg25
Nsba(irule
Rule
p4134
(dp4135
g15
(irule
Guard
p4136
(dp4137
g18
I00
sg19
(lp4138
(irule
FeatureMatrix
p4139
(dp4140
g23
(lp4141
(I00
g2681
tp4142
asg25
Nsba(irule
ConstantPhoneme
p4143
(dp4144
S'p'
Vu
sbasg29
I00
sg25
Nsg31
I01
sg32
S'L'
sbsg33
(irule
ConstantPhoneme
p4145
(dp4146
S'p'
Vu
sbsg36
(irule
Guard
p4147
(dp4148
g18
I00
sg19
(lp4149
sg29
I00
sg25
Nsg31
I00
sg32
S'R'
sbsg40
(irule
ConstantPhoneme
p4150
(dp4151
S'p'
Vi
sbsg25
Nsba(irule
Rule
p4152
(dp4153
g15
(irule
Guard
p4154
(dp4155
g18
I00
sg19
(lp4156
(irule
FeatureMatrix
p4157
(dp4158
g23
(lp4159
(I00
g3903
tp4160
asg25
Nsba(irule
ConstantPhoneme
p4161
(dp4162
S'p'
Vu
sbasg29
I00
sg25
Nsg31
I01
sg32
S'L'
sbsg33
(irule
ConstantPhoneme
p4163
(dp4164
S'p'
Vu
sbsg36
(irule
Guard
p4165
(dp4166
g18
I00
sg19
(lp4167
sg29
I00
sg25
Nsg31
I00
sg32
S'R'
sbsg40
(irule
ConstantPhoneme
p4168
(dp4169
S'p'
Vi
sbsg25
Nsba(irule
Rule
p4170
(dp4171
g15
(irule
Guard
p4172
(dp4173
g18
I00
sg19
(lp4174
(irule
FeatureMatrix
p4175
(dp4176
g23
(lp4177
(I00
g3940
tp4178
asg25
Nsba(irule
ConstantPhoneme
p4179
(dp4180
S'p'
Vu
sbasg29
I00
sg25
Nsg31
I01
sg32
S'L'
sbsg33
(irule
ConstantPhoneme
p4181
(dp4182
S'p'
Vu
sbsg36
(irule
Guard
p4183
(dp4184
g18
I00
sg19
(lp4185
sg29
I00
sg25
Nsg31
I00
sg32
S'R'
sbsg40
(irule
ConstantPhoneme
p4186
(dp4187
S'p'
Vi
sbsg25
Nsba(irule
Rule
p4188
(dp4189
g15
(irule
Guard
p4190
(dp4191
g18
I00
sg19
(lp4192
(irule
FeatureMatrix
p4193
(dp4194
g23
(lp4195
(I00
g3959
tp4196
asg25
Nsba(irule
ConstantPhoneme
p4197
(dp4198
S'p'
Vu
sbasg29
I00
sg25
Nsg31
I01
sg32
S'L'
sbsg33
(irule
ConstantPhoneme
p4199
(dp4200
S'p'
Vu
sbsg36
(irule
Guard
p4201
(dp4202
g18
I00
sg19
(lp4203
sg29
I00
sg25
Nsg31
I00
sg32
S'R'
sbsg40
(irule
ConstantPhoneme
p4204
(dp4205
S'p'
Vi
sbsg25
Nsba(irule
Rule
p4206
(dp4207
g15
(irule
Guard
p4208
(dp4209
g18
I00
sg19
(lp4210
(irule
FeatureMatrix
p4211
(dp4212
g23
(lp4213
(I00
g3453
tp4214
asg25
Nsba(irule
ConstantPhoneme
p4215
(dp4216
S'p'
Vb
sbasg29
I00
sg25
Nsg31
I01
sg32
S'L'
sbsg33
(irule
ConstantPhoneme
p4217
(dp4218
S'p'
Vu
sbsg36
(irule
Guard
p4219
(dp4220
g18
I00
sg19
(lp4221
sg29
I00
sg25
Nsg31
I00
sg32
S'R'
sbsg40
(irule
ConstantPhoneme
p4222
(dp4223
S'p'
Vi
sbsg25
Nsba(irule
Rule
p4224
(dp4225
g15
(irule
Guard
p4226
(dp4227
g18
I00
sg19
(lp4228
(irule
FeatureMatrix
p4229
(dp4230
g23
(lp4231
(I00
g2681
tp4232
asg25
Nsba(irule
ConstantPhoneme
p4233
(dp4234
S'p'
Vb
sbasg29
I00
sg25
Nsg31
I01
sg32
S'L'
sbsg33
(irule
ConstantPhoneme
p4235
(dp4236
S'p'
Vu
sbsg36
(irule
Guard
p4237
(dp4238
g18
I00
sg19
(lp4239
sg29
I00
sg25
Nsg31
I00
sg32
S'R'
sbsg40
(irule
ConstantPhoneme
p4240
(dp4241
S'p'
Vi
sbsg25
Nsba(irule
Rule
p4242
(dp4243
g15
(irule
Guard
p4244
(dp4245
g18
I00
sg19
(lp4246
(irule
FeatureMatrix
p4247
(dp4248
g23
(lp4249
(I00
g3826
tp4250
asg25
Nsba(irule
ConstantPhoneme
p4251
(dp4252
S'p'
Vb
sbasg29
I00
sg25
Nsg31
I01
sg32
S'L'
sbsg33
(irule
ConstantPhoneme
p4253
(dp4254
S'p'
Vu
sbsg36
(irule
Guard
p4255
(dp4256
g18
I00
sg19
(lp4257
sg29
I00
sg25
Nsg31
I00
sg32
S'R'
sbsg40
(irule
ConstantPhoneme
p4258
(dp4259
S'p'
Vi
sbsg25
Nsba(irule
Rule
p4260
(dp4261
g15
(irule
Guard
p4262
(dp4263
g18
I00
sg19
(lp4264
(irule
FeatureMatrix
p4265
(dp4266
g23
(lp4267
(I00
g3940
tp4268
asg25
Nsba(irule
ConstantPhoneme
p4269
(dp4270
S'p'
Vb
sbasg29
I00
sg25
Nsg31
I01
sg32
S'L'
sbsg33
(irule
ConstantPhoneme
p4271
(dp4272
S'p'
Vu
sbsg36
(irule
Guard
p4273
(dp4274
g18
I00
sg19
(lp4275
sg29
I00
sg25
Nsg31
I00
sg32
S'R'
sbsg40
(irule
ConstantPhoneme
p4276
(dp4277
S'p'
Vi
sbsg25
Nsba(irule
Rule
p4278
(dp4279
g15
(irule
Guard
p4280
(dp4281
g18
I00
sg19
(lp4282
(irule
FeatureMatrix
p4283
(dp4284
g23
(lp4285
(I00
g2597
tp4286
asg25
Nsba(irule
ConstantPhoneme
p4287
(dp4288
S'p'
Vb
sbasg29
I00
sg25
Nsg31
I01
sg32
S'L'
sbsg33
(irule
ConstantPhoneme
p4289
(dp4290
S'p'
Vu
sbsg36
(irule
Guard
p4291
(dp4292
g18
I00
sg19
(lp4293
sg29
I00
sg25
Nsg31
I00
sg32
S'R'
sbsg40
(irule
ConstantPhoneme
p4294
(dp4295
S'p'
Vi
sbsg25
Nsba(irule
Rule
p4296
(dp4297
g15
(irule
Guard
p4298
(dp4299
g18
I00
sg19
(lp4300
(irule
FeatureMatrix
p4301
(dp4302
g23
(lp4303
(I00
g3959
tp4304
asg25
Nsba(irule
ConstantPhoneme
p4305
(dp4306
S'p'
Vb
sbasg29
I00
sg25
Nsg31
I01
sg32
S'L'
sbsg33
(irule
ConstantPhoneme
p4307
(dp4308
S'p'
Vu
sbsg36
(irule
Guard
p4309
(dp4310
g18
I00
sg19
(lp4311
sg29
I00
sg25
Nsg31
I00
sg32
S'R'
sbsg40
(irule
ConstantPhoneme
p4312
(dp4313
S'p'
Vi
sbsg25
Nsba(irule
Rule
p4314
(dp4315
g15
(irule
Guard
p4316
(dp4317
g18
I00
sg19
(lp4318
(irule
FeatureMatrix
p4319
(dp4320
g23
(lp4321
(I00
g3903
tp4322
asg25
Nsba(irule
ConstantPhoneme
p4323
(dp4324
S'p'
Vb
sbasg29
I00
sg25
Nsg31
I01
sg32
S'L'
sbsg33
(irule
ConstantPhoneme
p4325
(dp4326
S'p'
Vu
sbsg36
(irule
Guard
p4327
(dp4328
g18
I00
sg19
(lp4329
sg29
I00
sg25
Nsg31
I00
sg32
S'R'
sbsg40
(irule
ConstantPhoneme
p4330
(dp4331
S'p'
Vi
sbsg25
Nsba(irule
Rule
p4332
(dp4333
g15
(irule
Guard
p4334
(dp4335
g18
I00
sg19
(lp4336
(irule
FeatureMatrix
p4337
(dp4338
g23
(lp4339
sg25
Nsba(irule
ConstantPhoneme
p4340
(dp4341
S'p'
Vu
sbasg29
I00
sg25
Nsg31
I01
sg32
S'L'
sbsg33
(irule
FeatureMatrix
p4342
(dp4343
g23
(lp4344
(I01
g2681
tp4345
a(I01
g2683
tp4346
asg25
Nsbsg36
(irule
Guard
p4347
(dp4348
g18
I00
sg19
(lp4349
(irule
FeatureMatrix
p4350
(dp4351
g23
(lp4352
(I01
g2597
tp4353
asg25
Nsbasg29
I00
sg25
Nsg31
I00
sg32
S'R'
sbsg40
(irule
FeatureMatrix
p4354
(dp4355
g23
(lp4356
sg25
Nsbsg25
Nsba(irule
Rule
p4357
(dp4358
g15
(irule
Guard
p4359
(dp4360
g18
I00
sg19
(lp4361
(irule
FeatureMatrix
p4362
(dp4363
g23
(lp4364
sg25
Nsba(irule
ConstantPhoneme
p4365
(dp4366
S'p'
Vu
sbasg29
I00
sg25
Nsg31
I01
sg32
S'L'
sbsg33
(irule
ConstantPhoneme
p4367
(dp4368
S'p'
Vu
sbsg36
(irule
Guard
p4369
(dp4370
g18
I00
sg19
(lp4371
(irule
FeatureMatrix
p4372
(dp4373
g23
(lp4374
(I00
g3903
tp4375
a(I01
g2901
tp4376
asg25
Nsbasg29
I00
sg25
Nsg31
I00
sg32
S'R'
sbsg40
(irule
FeatureMatrix
p4377
(dp4378
g23
(lp4379
sg25
Nsbsg25
Nsba(irule
Rule
p4380
(dp4381
g15
(irule
Guard
p4382
(dp4383
g18
I00
sg19
(lp4384
(irule
FeatureMatrix
p4385
(dp4386
g23
(lp4387
sg25
Nsba(irule
FeatureMatrix
p4388
(dp4389
g23
(lp4390
(I01
g2681
tp4391
a(I01
g2844
tp4392
asg25
Nsbasg29
I00
sg25
Nsg31
I01
sg32
S'L'
sbsg33
(irule
ConstantPhoneme
p4393
(dp4394
S'p'
Vu
sbsg36
(irule
Guard
p4395
(dp4396
g18
I00
sg19
(lp4397
(irule
FeatureMatrix
p4398
(dp4399
g23
(lp4400
(I01
g2597
tp4401
asg25
Nsbasg29
I00
sg25
Nsg31
I00
sg32
S'R'
sbsg40
(irule
FeatureMatrix
p4402
(dp4403
g23
(lp4404
sg25
Nsbsg25
Nsba(irule
Rule
p4405
(dp4406
g15
(irule
Guard
p4407
(dp4408
g18
I01
sg19
(lp4409
(irule
FeatureMatrix
p4410
(dp4411
g23
(lp4412
sg25
Nsba(irule
FeatureMatrix
p4413
(dp4414
g23
(lp4415
(I01
g2550
tp4416
asg25
Nsbasg29
I00
sg25
Nsg31
I01
sg32
S'L'
sbsg33
(irule
ConstantPhoneme
p4417
(dp4418
S'p'
Vu
sbsg36
(irule
Guard
p4419
(dp4420
g18
I00
sg19
(lp4421
(irule
FeatureMatrix
p4422
(dp4423
g23
(lp4424
(I01
g2597
tp4425
asg25
Nsbasg29
I00
sg25
Nsg31
I00
sg32
S'R'
sbsg40
(irule
FeatureMatrix
p4426
(dp4427
g23
(lp4428
sg25
Nsbsg25
NsbaasbsS'parameters'
p4429
g6
(cargparse
Namespace
p4430
g8
NtRp4431
(dp4432
S'restore'
p4433
NsS'features'
p4434
S'sophisticated'
p4435
sS'universal'
p4436
NsS'restrict'
p4437
NsS'seed'
p4438
NsS'serial'
p4439
I00
sS'cv'
p4440
I00
sS'alignment'
p4441
I00
sS'top'
p4442
I100
sS'maximumDepth'
p4443
I3
sS'window'
p4444
NsS'minimizeBits'
p4445
I5
sS'samples'
p4446
I30
sS'save'
p4447
NsS'resume'
p4448
I00
sS'disableClean'
p4449
I00
sS'stemBaseline'
p4450
I30
sS'dummy'
p4451
I00
sS'task'
p4452
S'CEGIS'
p4453
sS'geometry'
p4454
I01
sS'verbosity'
p4455
I0
sS'noConstant'
p4456
I00
sS'timeout'
p4457
F24
sS'debug'
p4458
NsS'cores'
p4459
I40
sg290
S'Odden_170_Yawelmani'
p4460
sS'mergeFrontiers'
p4461
I00
sbsb.