(iresult
Result
p1
(dp2
S'startTime'
p3
F1549559699.4264569
sS'problem'
p4
S'Odden_79_Jita'
p5
sS'solutionSequence'
p6
(lp7
(ccopy_reg
_reconstructor
p8
(csolution
Solution
p9
c__builtin__
object
p10
NtRp11
(dp12
S'rules'
p13
(lp14
sS'prefixes'
p15
(lp16
(imorph
Morph
p17
(dp18
S'phonemes'
p19
(lp20
sba(imorph
Morph
p21
(dp22
g19
(lp23
sba(imorph
Morph
p24
(dp25
g19
(lp26
sba(imorph
Morph
p27
(dp28
g19
(lp29
sba(imorph
Morph
p30
(dp31
g19
(lp32
sba(imorph
Morph
p33
(dp34
g19
(lp35
sba(imorph
Morph
p36
(dp37
g19
(lp38
sba(imorph
Morph
p39
(dp40
g19
(lp41
sbasS'underlyingForms'
p42
(dp43
((imorph
Morph
(dp44
g19
(lp45
Vo
aVk
aVu
aV\u03b2
aVu
aVm
aVa
asb(imorph
Morph
(dp46
g19
(lp47
Vo
aVk
aVu
aV\u03b2
aVu
aVm
aVi
aVr
aVa
asb(imorph
Morph
(dp48
g19
(lp49
Vo
aVk
aVu
aV\u03b2
aVu
aVm
aVa
aVn
aVa
asb(imorph
Morph
(dp50
g19
(lp51
Vo
aVk
aVu
aV\u03b2
aVu
aVm
aVi
aVr
aVa
aVn
aVa
asb(imorph
Morph
(dp52
g19
(lp53
Vo
aVk
aVu
aVm
aVu
aV\u03b2
aVu\u0301
p54
aVm
aVa
asb(imorph
Morph
(dp55
g19
(lp56
Vo
aVk
aVu
aVm
aVu
aV\u03b2
aVu\u0301
p57
aVm
aVi
aVr
aVa
asb(imorph
Morph
(dp58
g19
(lp59
Vo
aVk
aVu
aVc\u030c
p60
aVi
aV\u03b2
aVu\u0301
p61
aVm
aVa
asb(imorph
Morph
(dp62
g19
(lp63
Vo
aVk
aVu
aVc\u030c
p64
aVi
aV\u03b2
aVu\u0301
p65
aVm
aVi
aVr
aVa
asbtp66
(imorph
Morph
p67
(dp68
g19
(lp69
Vo
aVk
aVu
asbssS'suffixes'
p70
(lp71
(imorph
Morph
p72
(dp73
g19
(lp74
V\u03b2
aVu
aVm
aVa
asba(imorph
Morph
p75
(dp76
g19
(lp77
V\u03b2
aVu
aVm
aVi
aVr
aVa
asba(imorph
Morph
p78
(dp79
g19
(lp80
V\u03b2
aVu
aVm
aVa
aVn
aVa
asba(imorph
Morph
p81
(dp82
g19
(lp83
V\u03b2
aVu
aVm
aVi
aVr
aVa
aVn
aVa
asba(imorph
Morph
p84
(dp85
g19
(lp86
Vm
aVu
aV\u03b2
aVu\u0301
p87
aVm
aVa
asba(imorph
Morph
p88
(dp89
g19
(lp90
Vm
aVu
aV\u03b2
ag87
aVm
aVi
aVr
aVa
asba(imorph
Morph
p91
(dp92
g19
(lp93
Vc\u030c
p94
aVi
aV\u03b2
ag87
aVm
aVa
asba(imorph
Morph
p95
(dp96
g19
(lp97
g94
aVi
aV\u03b2
ag87
aVm
aVi
aVr
aVa
asbasbF244.74901604652405
tp98
a(g8
(g9
g10
NtRp99
(dp100
g13
(lp101
(irule
Rule
p102
(dp103
S'leftTriggers'
p104
(irule
Guard
p105
(dp106
S'endOfString'
p107
I00
sS'specifications'
p108
(lp109
(irule
FeatureMatrix
p110
(dp111
S'featuresAndPolarities'
p112
(lp113
sS'representation'
p114
V[  ]
p115
sba(irule
ConstantPhoneme
p116
(dp117
S'p'
Vu
sbasS'optionalEnding'
p118
I00
sg114
Vu [  ]
p119
sS'starred'
p120
I00
sS'side'
p121
S'L'
sbsS'structuralChange'
p122
(irule
FeatureMatrix
p123
(dp124
g112
(lp125
(I00
S'highTone'
tp126
asg114
V[ -highTone ]
p127
sbsS'rightTriggers'
p128
(irule
Guard
p129
(dp130
g107
I00
sg108
(lp131
sg118
I00
sg114
V
sg120
I00
sg121
S'R'
sbsS'focus'
p132
(irule
FeatureMatrix
p133
(dp134
g112
(lp135
sg114
V[  ]
p136
sbsg114
V[  ] ---> [ -highTone ] / u [  ] _ 
p137
sbasg15
(lp138
(imorph
Morph
p139
(dp140
g19
(lp141
Vo
aVk
aVu
asba(imorph
Morph
p142
(dp143
g19
(lp144
Vo
aVk
aVu
asba(imorph
Morph
p145
(dp146
g19
(lp147
Vo
aVk
aVu
asba(imorph
Morph
p148
(dp149
g19
(lp150
Vo
aVk
aVu
asba(imorph
Morph
p151
(dp152
g19
(lp153
Vo
aVk
aVu
aVm
aVu\u0301
p154
asba(imorph
Morph
p155
(dp156
g19
(lp157
Vo
aVk
aVu
aVm
ag154
asba(imorph
Morph
p158
(dp159
g19
(lp160
Vo
aVk
aVu
aVc\u030c
p161
aVi
asba(imorph
Morph
p162
(dp163
g19
(lp164
Vo
aVk
aVu
ag161
aVi
asbasg42
(dp165
((imorph
Morph
(dp166
g19
(lp167
Vo
aVk
aVu
aV\u03b2
aVu
aVm
aVa
asb(imorph
Morph
(dp168
g19
(lp169
Vo
aVk
aVu
aV\u03b2
aVu
aVm
aVi
aVr
aVa
asb(imorph
Morph
(dp170
g19
(lp171
Vo
aVk
aVu
aV\u03b2
aVu
aVm
aVa
aVn
aVa
asb(imorph
Morph
(dp172
g19
(lp173
Vo
aVk
aVu
aV\u03b2
aVu
aVm
aVi
aVr
aVa
aVn
aVa
asb(imorph
Morph
(dp174
g19
(lp175
Vo
aVk
aVu
aVm
aVu
aV\u03b2
aVu\u0301
p176
aVm
aVa
asb(imorph
Morph
(dp177
g19
(lp178
Vo
aVk
aVu
aVm
aVu
aV\u03b2
aVu\u0301
p179
aVm
aVi
aVr
aVa
asb(imorph
Morph
(dp180
g19
(lp181
Vo
aVk
aVu
aVc\u030c
p182
aVi
aV\u03b2
aVu\u0301
p183
aVm
aVa
asb(imorph
Morph
(dp184
g19
(lp185
Vo
aVk
aVu
aVc\u030c
p186
aVi
aV\u03b2
aVu\u0301
p187
aVm
aVi
aVr
aVa
asbtp188
(imorph
Morph
p189
(dp190
g19
(lp191
V\u03b2
ag154
aVm
asbs((imorph
Morph
(dp192
g19
(lp193
Vo
aVk
aVu
aVs
aVi
aV\u03b2
aVa
asb(imorph
Morph
(dp194
g19
(lp195
Vo
aVk
aVu
aVs
aVi
aV\u03b2
aVi
aVr
aVa
asb(imorph
Morph
(dp196
g19
(lp197
Vo
aVk
aVu
aVs
aVi
aV\u03b2
aVa
aVn
aVa
asb(imorph
Morph
(dp198
g19
(lp199
Vo
aVk
aVu
aVs
aVi
aV\u03b2
aVi
aVr
aVa
aVn
aVa
asb(imorph
Morph
(dp200
g19
(lp201
Vo
aVk
aVu
aVm
aVu
aVs
aVi\u0301
p202
aV\u03b2
aVa
asb(imorph
Morph
(dp203
g19
(lp204
Vo
aVk
aVu
aVm
aVu
aVs
aVi\u0301
p205
aV\u03b2
aVi
aVr
aVa
asb(imorph
Morph
(dp206
g19
(lp207
Vo
aVk
aVu
aVc\u030c
p208
aVi
aVs
aVi\u0301
p209
aV\u03b2
aVa
asb(imorph
Morph
(dp210
g19
(lp211
Vo
aVk
aVu
aVc\u030c
p212
aVi
aVs
aVi\u0301
p213
aV\u03b2
aVi
aVr
aVa
asbtp214
(imorph
Morph
p215
(dp216
g19
(lp217
Vs
aVi\u0301
p218
aV\u03b2
asbssg70
(lp219
(imorph
Morph
p220
(dp221
g19
(lp222
Va
asba(imorph
Morph
p223
(dp224
g19
(lp225
Vi
aVr
aVa
asba(imorph
Morph
p226
(dp227
g19
(lp228
Va
aVn
aVa
asba(imorph
Morph
p229
(dp230
g19
(lp231
Vi
aVr
aVa
aVn
aVa
asba(imorph
Morph
p232
(dp233
g19
(lp234
Va
asba(imorph
Morph
p235
(dp236
g19
(lp237
Vi
aVr
aVa
asba(imorph
Morph
p238
(dp239
g19
(lp240
Va
asba(imorph
Morph
p241
(dp242
g19
(lp243
Vi
aVr
aVa
asbasbF7185.4540271759033
tp244
a(g8
(g9
g10
NtRp245
(dp246
g13
(lp247
(irule
Rule
p248
(dp249
g104
(irule
Guard
p250
(dp251
g107
I00
sg108
(lp252
(irule
FeatureMatrix
p253
(dp254
g112
(lp255
sg114
V[  ]
p256
sba(irule
FeatureMatrix
p257
(dp258
g112
(lp259
(I01
S'highTone'
p260
tp261
asg114
V[ +highTone ]
p262
sbasg118
I00
sg114
V[ +highTone ] [  ]
p263
sg120
I00
sg121
S'L'
sbsg122
(irule
FeatureMatrix
p264
(dp265
g112
(lp266
(I01
g260
tp267
asg114
V[ +highTone ]
p268
sbsg128
(irule
Guard
p269
(dp270
g107
I00
sg108
(lp271
(irule
FeatureMatrix
p272
(dp273
g112
(lp274
sg114
V[  ]
p275
sbasg118
I00
sg114
g275
sg120
I00
sg121
S'R'
sbsg132
(irule
FeatureMatrix
p276
(dp277
g112
(lp278
sg114
V[  ]
p279
sbsg114
V[  ] ---> [ +highTone ] / [ +highTone ] [  ] _ [  ]
p280
sba(irule
Rule
p281
(dp282
g104
(irule
Guard
p283
(dp284
g107
I00
sg108
(lp285
sg118
I00
sg114
V
sg120
I00
sg121
S'L'
sbsg122
(irule
FeatureMatrix
p286
(dp287
g112
(lp288
(I00
g260
tp289
asg114
V[ -highTone ]
p290
sbsg128
(irule
Guard
p291
(dp292
g107
I00
sg108
(lp293
(irule
FeatureMatrix
p294
(dp295
g112
(lp296
sg114
V[  ]
p297
sba(irule
FeatureMatrix
p298
(dp299
g112
(lp300
(I01
g260
tp301
asg114
V[ +highTone ]
p302
sbasg118
I00
sg114
V[  ] [ +highTone ]
p303
sg120
I00
sg121
S'R'
sbsg132
(irule
FeatureMatrix
p304
(dp305
g112
(lp306
sg114
V[  ]
p307
sbsg114
V[  ] ---> [ -highTone ] /  _ [  ] [ +highTone ]
p308
sbasg15
(lp309
(imorph
Morph
p310
(dp311
g19
(lp312
Vo
aVk
aVu
asba(imorph
Morph
p313
(dp314
g19
(lp315
Vo
aVk
aVu
asba(imorph
Morph
p316
(dp317
g19
(lp318
Vo
aVk
aVu
asba(imorph
Morph
p319
(dp320
g19
(lp321
Vo
aVk
aVu
asba(imorph
Morph
p322
(dp323
g19
(lp324
Vo
aVk
aVu\u0301
p325
aVm
ag325
asba(imorph
Morph
p326
(dp327
g19
(lp328
Vo
aVk
ag325
aVm
ag325
asba(imorph
Morph
p329
(dp330
g19
(lp331
Vo
aVk
aVu
aVc\u030c
p332
aVi\u0301
p333
asba(imorph
Morph
p334
(dp335
g19
(lp336
Vo
aVk
ag325
ag332
ag333
asbasg42
(dp337
((imorph
Morph
(dp338
g19
(lp339
Vo
aVk
aVu
aVl
aVu\u0301
p340
aVm
aVa
asb(imorph
Morph
(dp341
g19
(lp342
Vo
aVk
aVu
aVl
aVu
aVm
aVi\u0301
p343
aVr
aVa
asb(imorph
Morph
(dp344
g19
(lp345
Vo
aVk
aVu
aVl
aVu
aVm
aVa\u0301
p346
aVn
aVa
asb(imorph
Morph
(dp347
g19
(lp348
Vo
aVk
aVu
aVl
aVu
aVm
aVi\u0301
p349
aVr
aVa
aVn
aVa
asbNNNNtp350
(imorph
Morph
p351
(dp352
g19
(lp353
Vl
ag325
aVm
asbs((imorph
Morph
(dp354
g19
(lp355
Vo
aVk
aVu
aV\u03b2
aVu
aVm
aVa
asb(imorph
Morph
(dp356
g19
(lp357
Vo
aVk
aVu
aV\u03b2
aVu
aVm
aVi
aVr
aVa
asb(imorph
Morph
(dp358
g19
(lp359
Vo
aVk
aVu
aV\u03b2
aVu
aVm
aVa
aVn
aVa
asb(imorph
Morph
(dp360
g19
(lp361
Vo
aVk
aVu
aV\u03b2
aVu
aVm
aVi
aVr
aVa
aVn
aVa
asb(imorph
Morph
(dp362
g19
(lp363
Vo
aVk
aVu
aVm
aVu
aV\u03b2
aVu\u0301
p364
aVm
aVa
asb(imorph
Morph
(dp365
g19
(lp366
Vo
aVk
aVu
aVm
aVu
aV\u03b2
aVu\u0301
p367
aVm
aVi
aVr
aVa
asb(imorph
Morph
(dp368
g19
(lp369
Vo
aVk
aVu
aVc\u030c
p370
aVi
aV\u03b2
aVu\u0301
p371
aVm
aVa
asb(imorph
Morph
(dp372
g19
(lp373
Vo
aVk
aVu
aVc\u030c
p374
aVi
aV\u03b2
aVu\u0301
p375
aVm
aVi
aVr
aVa
asbtp376
(imorph
Morph
p377
(dp378
g19
(lp379
V\u03b2
aVu
aVm
asbs((imorph
Morph
(dp380
g19
(lp381
Vo
aVk
aVu
aVs
aVi
aV\u03b2
aVa
asb(imorph
Morph
(dp382
g19
(lp383
Vo
aVk
aVu
aVs
aVi
aV\u03b2
aVi
aVr
aVa
asb(imorph
Morph
(dp384
g19
(lp385
Vo
aVk
aVu
aVs
aVi
aV\u03b2
aVa
aVn
aVa
asb(imorph
Morph
(dp386
g19
(lp387
Vo
aVk
aVu
aVs
aVi
aV\u03b2
aVi
aVr
aVa
aVn
aVa
asb(imorph
Morph
(dp388
g19
(lp389
Vo
aVk
aVu
aVm
aVu
aVs
aVi\u0301
p390
aV\u03b2
aVa
asb(imorph
Morph
(dp391
g19
(lp392
Vo
aVk
aVu
aVm
aVu
aVs
aVi\u0301
p393
aV\u03b2
aVi
aVr
aVa
asb(imorph
Morph
(dp394
g19
(lp395
Vo
aVk
aVu
aVc\u030c
p396
aVi
aVs
aVi\u0301
p397
aV\u03b2
aVa
asb(imorph
Morph
(dp398
g19
(lp399
Vo
aVk
aVu
aVc\u030c
p400
aVi
aVs
aVi\u0301
p401
aV\u03b2
aVi
aVr
aVa
asbtp402
(imorph
Morph
p403
(dp404
g19
(lp405
Vs
aVi
aV\u03b2
asbssg70
(lp406
(imorph
Morph
p407
(dp408
g19
(lp409
Va
asba(imorph
Morph
p410
(dp411
g19
(lp412
Vi
aVr
aVa
asba(imorph
Morph
p413
(dp414
g19
(lp415
Va
aVn
aVa
asba(imorph
Morph
p416
(dp417
g19
(lp418
Vi
aVr
aVa
aVn
aVa
asba(imorph
Morph
p419
(dp420
g19
(lp421
Va
asba(imorph
Morph
p422
(dp423
g19
(lp424
Vi
aVr
aVa
asba(imorph
Morph
p425
(dp426
g19
(lp427
Va
asba(imorph
Morph
p428
(dp429
g19
(lp430
Vi
aVr
aVa
asbasbF28811.020524024963
tp431
asS'finalFrontier'
p432
g8
(csolution
Frontier
p433
g10
NtRp434
(dp435
g15
g309
sg70
g406
sg42
(dp436
((imorph
Morph
(dp437
g19
(lp438
Vo
aVk
aVu
aVl
aVu\u0301
p439
aVm
aVa
asb(imorph
Morph
(dp440
g19
(lp441
Vo
aVk
aVu
aVl
aVu
aVm
aVi\u0301
p442
aVr
aVa
asb(imorph
Morph
(dp443
g19
(lp444
Vo
aVk
aVu
aVl
aVu
aVm
aVa\u0301
p445
aVn
aVa
asb(imorph
Morph
(dp446
g19
(lp447
Vo
aVk
aVu
aVl
aVu
aVm
aVi\u0301
p448
aVr
aVa
aVn
aVa
asbNNNNtp449
(imorph
Morph
p450
(dp451
g19
(lp452
Vl
aVu\u0301
p453
aVm
asbs((imorph
Morph
(dp454
g19
(lp455
Vo
aVk
aVu
aV\u03b2
aVu
aVm
aVa
asb(imorph
Morph
(dp456
g19
(lp457
Vo
aVk
aVu
aV\u03b2
aVu
aVm
aVi
aVr
aVa
asb(imorph
Morph
(dp458
g19
(lp459
Vo
aVk
aVu
aV\u03b2
aVu
aVm
aVa
aVn
aVa
asb(imorph
Morph
(dp460
g19
(lp461
Vo
aVk
aVu
aV\u03b2
aVu
aVm
aVi
aVr
aVa
aVn
aVa
asb(imorph
Morph
(dp462
g19
(lp463
Vo
aVk
aVu
aVm
aVu
aV\u03b2
aVu\u0301
p464
aVm
aVa
asb(imorph
Morph
(dp465
g19
(lp466
Vo
aVk
aVu
aVm
aVu
aV\u03b2
aVu\u0301
p467
aVm
aVi
aVr
aVa
asb(imorph
Morph
(dp468
g19
(lp469
Vo
aVk
aVu
aVc\u030c
p470
aVi
aV\u03b2
aVu\u0301
p471
aVm
aVa
asb(imorph
Morph
(dp472
g19
(lp473
Vo
aVk
aVu
aVc\u030c
p474
aVi
aV\u03b2
aVu\u0301
p475
aVm
aVi
aVr
aVa
asbtp476
(imorph
Morph
p477
(dp478
g19
(lp479
V\u03b2
aVu
aVm
asbs((imorph
Morph
(dp480
g19
(lp481
Vo
aVk
aVu
aVk
aVu\u0301
p482
aV\u03b2
aVa
asb(imorph
Morph
(dp483
g19
(lp484
Vo
aVk
aVu
aVk
aVu
aV\u03b2
aVi\u0301
p485
aVr
aVa
asb(imorph
Morph
(dp486
g19
(lp487
Vo
aVk
aVu
aVk
aVu
aV\u03b2
aVa\u0301
p488
aVn
aVa
asb(imorph
Morph
(dp489
g19
(lp490
Vo
aVk
aVu
aVk
aVu
aV\u03b2
aVi\u0301
p491
aVr
aVa
aVn
aVa
asbNNNNtp492
(imorph
Morph
p493
(dp494
g19
(lp495
Vk
ag453
aV\u03b2
asbs((imorph
Morph
(dp496
g19
(lp497
Vo
aVk
aVu
aVs
aVi
aV\u03b2
aVa
asb(imorph
Morph
(dp498
g19
(lp499
Vo
aVk
aVu
aVs
aVi
aV\u03b2
aVi
aVr
aVa
asb(imorph
Morph
(dp500
g19
(lp501
Vo
aVk
aVu
aVs
aVi
aV\u03b2
aVa
aVn
aVa
asb(imorph
Morph
(dp502
g19
(lp503
Vo
aVk
aVu
aVs
aVi
aV\u03b2
aVi
aVr
aVa
aVn
aVa
asb(imorph
Morph
(dp504
g19
(lp505
Vo
aVk
aVu
aVm
aVu
aVs
aVi\u0301
p506
aV\u03b2
aVa
asb(imorph
Morph
(dp507
g19
(lp508
Vo
aVk
aVu
aVm
aVu
aVs
aVi\u0301
p509
aV\u03b2
aVi
aVr
aVa
asb(imorph
Morph
(dp510
g19
(lp511
Vo
aVk
aVu
aVc\u030c
p512
aVi
aVs
aVi\u0301
p513
aV\u03b2
aVa
asb(imorph
Morph
(dp514
g19
(lp515
Vo
aVk
aVu
aVc\u030c
p516
aVi
aVs
aVi\u0301
p517
aV\u03b2
aVi
aVr
aVa
asbtp518
(imorph
Morph
p519
(dp520
g19
(lp521
Vs
aVi
aV\u03b2
asbssS'frontiers'
p522
(lp523
(lp524
(irule
Rule
p525
(dp526
g104
(irule
Guard
p527
(dp528
g107
I00
sg108
(lp529
(irule
FeatureMatrix
p530
(dp531
g112
(lp532
sg114
V[  ]
p533
sba(irule
FeatureMatrix
p534
(dp535
g112
(lp536
(I01
S'highTone'
p537
tp538
asg114
V[ +highTone ]
p539
sbasg118
I00
sg114
V[ +highTone ] [  ]
p540
sg120
I00
sg121
S'L'
sbsg122
(irule
FeatureMatrix
p541
(dp542
g112
(lp543
(I01
g537
tp544
asg114
V[ +highTone ]
p545
sbsg128
(irule
Guard
p546
(dp547
g107
I00
sg108
(lp548
(irule
FeatureMatrix
p549
(dp550
g112
(lp551
sg114
V[  ]
p552
sbasg118
I00
sg114
g552
sg120
I00
sg121
S'R'
sbsg132
(irule
FeatureMatrix
p553
(dp554
g112
(lp555
sg114
V[  ]
p556
sbsg114
V[  ] ---> [ +highTone ] / [ +highTone ] [  ] _ [  ]
p557
sba(irule
Rule
p558
(dp559
g104
(irule
Guard
p560
(dp561
g107
I00
sg108
(lp562
(irule
FeatureMatrix
p563
(dp564
g112
(lp565
(I00
S'liquid'
p566
tp567
asg114
V[ -liquid ]
p568
sba(irule
FeatureMatrix
p569
(dp570
g112
(lp571
(I01
S'highTone'
p572
tp573
asg114
V[ +highTone ]
p574
sbasg118
I00
sg114
V[ +highTone ] [ -liquid ]
p575
sg120
I00
sg121
S'L'
sbsg122
(irule
FeatureMatrix
p576
(dp577
g112
(lp578
(I01
g572
tp579
asg114
V[ +highTone ]
p580
sbsg128
(irule
Guard
p581
(dp582
g107
I00
sg108
(lp583
(irule
FeatureMatrix
p584
(dp585
g112
(lp586
sg114
V[  ]
p587
sbasg118
I00
sg114
g587
sg120
I00
sg121
S'R'
sbsg132
(irule
FeatureMatrix
p588
(dp589
g112
(lp590
sg114
V[  ]
p591
sbsg114
V[  ] ---> [ +highTone ] / [ +highTone ] [ -liquid ] _ [  ]
p592
sba(irule
Rule
p593
(dp594
g104
(irule
Guard
p595
(dp596
g107
I00
sg108
(lp597
(irule
FeatureMatrix
p598
(dp599
g112
(lp600
sg114
V[  ]
p601
sba(irule
FeatureMatrix
p602
(dp603
g112
(lp604
(I01
g572
tp605
a(I01
S'voice'
p606
tp607
asg114
V[ +highTone +voice ]
p608
sbasg118
I00
sg114
V[ +highTone +voice ] [  ]
p609
sg120
I00
sg121
S'L'
sbsg122
(irule
FeatureMatrix
p610
(dp611
g112
(lp612
(I01
g572
tp613
asg114
V[ +highTone ]
p614
sbsg128
(irule
Guard
p615
(dp616
g107
I00
sg108
(lp617
(irule
FeatureMatrix
p618
(dp619
g112
(lp620
sg114
V[  ]
p621
sbasg118
I00
sg114
g621
sg120
I00
sg121
S'R'
sbsg132
(irule
FeatureMatrix
p622
(dp623
g112
(lp624
sg114
V[  ]
p625
sbsg114
V[  ] ---> [ +highTone ] / [ +highTone +voice ] [  ] _ [  ]
p626
sba(irule
Rule
p627
(dp628
g104
(irule
Guard
p629
(dp630
g107
I00
sg108
(lp631
(irule
FeatureMatrix
p632
(dp633
g112
(lp634
sg114
V[  ]
p635
sba(irule
FeatureMatrix
p636
(dp637
g112
(lp638
(I01
g572
tp639
asg114
V[ +highTone ]
p640
sbasg118
I00
sg114
V[ +highTone ] [  ]
p641
sg120
I00
sg121
S'L'
sbsg122
(irule
FeatureMatrix
p642
(dp643
g112
(lp644
(I01
g572
tp645
a(I01
g606
tp646
asg114
V[ +highTone +voice ]
p647
sbsg128
(irule
Guard
p648
(dp649
g107
I00
sg108
(lp650
(irule
FeatureMatrix
p651
(dp652
g112
(lp653
sg114
V[  ]
p654
sbasg118
I00
sg114
g654
sg120
I00
sg121
S'R'
sbsg132
(irule
FeatureMatrix
p655
(dp656
g112
(lp657
sg114
V[  ]
p658
sbsg114
V[  ] ---> [ +highTone +voice ] / [ +highTone ] [  ] _ [  ]
p659
sba(irule
Rule
p660
(dp661
g104
(irule
Guard
p662
(dp663
g107
I00
sg108
(lp664
(irule
FeatureMatrix
p665
(dp666
g112
(lp667
sg114
V[  ]
p668
sba(irule
FeatureMatrix
p669
(dp670
g112
(lp671
(I01
g572
tp672
asg114
V[ +highTone ]
p673
sbasg118
I00
sg114
V[ +highTone ] [  ]
p674
sg120
I00
sg121
S'L'
sbsg122
(irule
FeatureMatrix
p675
(dp676
g112
(lp677
(I01
g572
tp678
a(I01
S'vowel'
p679
tp680
asg114
V[ +highTone +vowel ]
p681
sbsg128
(irule
Guard
p682
(dp683
g107
I00
sg108
(lp684
(irule
FeatureMatrix
p685
(dp686
g112
(lp687
sg114
V[  ]
p688
sbasg118
I00
sg114
g688
sg120
I00
sg121
S'R'
sbsg132
(irule
FeatureMatrix
p689
(dp690
g112
(lp691
sg114
V[  ]
p692
sbsg114
V[  ] ---> [ +highTone +vowel ] / [ +highTone ] [  ] _ [  ]
p693
sba(irule
Rule
p694
(dp695
g104
(irule
Guard
p696
(dp697
g107
I00
sg108
(lp698
(irule
FeatureMatrix
p699
(dp700
g112
(lp701
sg114
V[  ]
p702
sba(irule
FeatureMatrix
p703
(dp704
g112
(lp705
(I01
g572
tp706
asg114
V[ +highTone ]
p707
sbasg118
I00
sg114
V[ +highTone ] [  ]
p708
sg120
I00
sg121
S'L'
sbsg122
(irule
FeatureMatrix
p709
(dp710
g112
(lp711
(I00
S'anterior'
p712
tp713
a(I01
g572
tp714
asg114
V[ +highTone -anterior ]
p715
sbsg128
(irule
Guard
p716
(dp717
g107
I00
sg108
(lp718
(irule
FeatureMatrix
p719
(dp720
g112
(lp721
sg114
V[  ]
p722
sbasg118
I00
sg114
g722
sg120
I00
sg121
S'R'
sbsg132
(irule
FeatureMatrix
p723
(dp724
g112
(lp725
sg114
V[  ]
p726
sbsg114
V[  ] ---> [ +highTone -anterior ] / [ +highTone ] [  ] _ [  ]
p727
sba(irule
Rule
p728
(dp729
g104
(irule
Guard
p730
(dp731
g107
I00
sg108
(lp732
(irule
FeatureMatrix
p733
(dp734
g112
(lp735
(I00
S'rounded'
p736
tp737
asg114
V[ -rounded ]
p738
sba(irule
FeatureMatrix
p739
(dp740
g112
(lp741
(I01
g572
tp742
asg114
V[ +highTone ]
p743
sbasg118
I00
sg114
V[ +highTone ] [ -rounded ]
p744
sg120
I00
sg121
S'L'
sbsg122
(irule
FeatureMatrix
p745
(dp746
g112
(lp747
(I01
g572
tp748
asg114
V[ +highTone ]
p749
sbsg128
(irule
Guard
p750
(dp751
g107
I00
sg108
(lp752
(irule
FeatureMatrix
p753
(dp754
g112
(lp755
sg114
V[  ]
p756
sbasg118
I00
sg114
g756
sg120
I00
sg121
S'R'
sbsg132
(irule
FeatureMatrix
p757
(dp758
g112
(lp759
sg114
V[  ]
p760
sbsg114
V[  ] ---> [ +highTone ] / [ +highTone ] [ -rounded ] _ [  ]
p761
sba(irule
Rule
p762
(dp763
g104
(irule
Guard
p764
(dp765
g107
I00
sg108
(lp766
(irule
FeatureMatrix
p767
(dp768
g112
(lp769
sg114
V[  ]
p770
sba(irule
FeatureMatrix
p771
(dp772
g112
(lp773
(I01
g572
tp774
asg114
V[ +highTone ]
p775
sbasg118
I00
sg114
V[ +highTone ] [  ]
p776
sg120
I00
sg121
S'L'
sbsg122
(irule
FeatureMatrix
p777
(dp778
g112
(lp779
(I01
g572
tp780
asg114
V[ +highTone ]
p781
sbsg128
(irule
Guard
p782
(dp783
g107
I00
sg108
(lp784
(irule
FeatureMatrix
p785
(dp786
g112
(lp787
sg114
V[  ]
p788
sbasg118
I00
sg114
g788
sg120
I00
sg121
S'R'
sbsg132
(irule
FeatureMatrix
p789
(dp790
g112
(lp791
(I00
S'sibilant'
p792
tp793
asg114
V[ -sibilant ]
p794
sbsg114
V[ -sibilant ] ---> [ +highTone ] / [ +highTone ] [  ] _ [  ]
p795
sba(irule
Rule
p796
(dp797
g104
(irule
Guard
p798
(dp799
g107
I00
sg108
(lp800
(irule
FeatureMatrix
p801
(dp802
g112
(lp803
(I00
S'lateral'
p804
tp805
asg114
V[ -lateral ]
p806
sba(irule
FeatureMatrix
p807
(dp808
g112
(lp809
(I01
g572
tp810
asg114
V[ +highTone ]
p811
sbasg118
I00
sg114
V[ +highTone ] [ -lateral ]
p812
sg120
I00
sg121
S'L'
sbsg122
(irule
FeatureMatrix
p813
(dp814
g112
(lp815
(I01
g572
tp816
asg114
V[ +highTone ]
p817
sbsg128
(irule
Guard
p818
(dp819
g107
I00
sg108
(lp820
(irule
FeatureMatrix
p821
(dp822
g112
(lp823
sg114
V[  ]
p824
sbasg118
I00
sg114
g824
sg120
I00
sg121
S'R'
sbsg132
(irule
FeatureMatrix
p825
(dp826
g112
(lp827
sg114
V[  ]
p828
sbsg114
V[  ] ---> [ +highTone ] / [ +highTone ] [ -lateral ] _ [  ]
p829
sba(irule
Rule
p830
(dp831
g104
(irule
Guard
p832
(dp833
g107
I00
sg108
(lp834
(irule
FeatureMatrix
p835
(dp836
g112
(lp837
(I00
S'high'
p838
tp839
asg114
V[ -high ]
p840
sba(irule
FeatureMatrix
p841
(dp842
g112
(lp843
(I01
g572
tp844
asg114
V[ +highTone ]
p845
sbasg118
I00
sg114
V[ +highTone ] [ -high ]
p846
sg120
I00
sg121
S'L'
sbsg122
(irule
FeatureMatrix
p847
(dp848
g112
(lp849
(I01
g572
tp850
asg114
V[ +highTone ]
p851
sbsg128
(irule
Guard
p852
(dp853
g107
I00
sg108
(lp854
(irule
FeatureMatrix
p855
(dp856
g112
(lp857
sg114
V[  ]
p858
sbasg118
I00
sg114
g858
sg120
I00
sg121
S'R'
sbsg132
(irule
FeatureMatrix
p859
(dp860
g112
(lp861
sg114
V[  ]
p862
sbsg114
V[  ] ---> [ +highTone ] / [ +highTone ] [ -high ] _ [  ]
p863
sba(irule
Rule
p864
(dp865
g104
(irule
Guard
p866
(dp867
g107
I00
sg108
(lp868
(irule
FeatureMatrix
p869
(dp870
g112
(lp871
sg114
V[  ]
p872
sba(irule
FeatureMatrix
p873
(dp874
g112
(lp875
(I01
g572
tp876
asg114
V[ +highTone ]
p877
sbasg118
I00
sg114
V[ +highTone ] [  ]
p878
sg120
I00
sg121
S'L'
sbsg122
(irule
FeatureMatrix
p879
(dp880
g112
(lp881
(I01
g572
tp882
a(I00
g792
tp883
asg114
V[ +highTone -sibilant ]
p884
sbsg128
(irule
Guard
p885
(dp886
g107
I00
sg108
(lp887
(irule
FeatureMatrix
p888
(dp889
g112
(lp890
sg114
V[  ]
p891
sbasg118
I00
sg114
g891
sg120
I00
sg121
S'R'
sbsg132
(irule
FeatureMatrix
p892
(dp893
g112
(lp894
sg114
V[  ]
p895
sbsg114
V[  ] ---> [ +highTone -sibilant ] / [ +highTone ] [  ] _ [  ]
p896
sba(irule
Rule
p897
(dp898
g104
(irule
Guard
p899
(dp900
g107
I00
sg108
(lp901
(irule
FeatureMatrix
p902
(dp903
g112
(lp904
sg114
V[  ]
p905
sba(irule
FeatureMatrix
p906
(dp907
g112
(lp908
(I01
g572
tp909
asg114
V[ +highTone ]
p910
sbasg118
I00
sg114
V[ +highTone ] [  ]
p911
sg120
I00
sg121
S'L'
sbsg122
(irule
FeatureMatrix
p912
(dp913
g112
(lp914
(I01
g572
tp915
asg114
V[ +highTone ]
p916
sbsg128
(irule
Guard
p917
(dp918
g107
I00
sg108
(lp919
(irule
FeatureMatrix
p920
(dp921
g112
(lp922
(I00
S'low'
p923
tp924
asg114
V[ -low ]
p925
sbasg118
I00
sg114
g925
sg120
I00
sg121
S'R'
sbsg132
(irule
FeatureMatrix
p926
(dp927
g112
(lp928
sg114
V[  ]
p929
sbsg114
V[  ] ---> [ +highTone ] / [ +highTone ] [  ] _ [ -low ]
p930
sba(irule
Rule
p931
(dp932
g104
(irule
Guard
p933
(dp934
g107
I00
sg108
(lp935
(irule
FeatureMatrix
p936
(dp937
g112
(lp938
sg114
V[  ]
p939
sba(irule
FeatureMatrix
p940
(dp941
g112
(lp942
(I01
g572
tp943
asg114
V[ +highTone ]
p944
sbasg118
I00
sg114
V[ +highTone ] [  ]
p945
sg120
I00
sg121
S'L'
sbsg122
(irule
FeatureMatrix
p946
(dp947
g112
(lp948
(I01
g572
tp949
asg114
V[ +highTone ]
p950
sbsg128
(irule
Guard
p951
(dp952
g107
I00
sg108
(lp953
(irule
FeatureMatrix
p954
(dp955
g112
(lp956
(I00
g804
tp957
asg114
V[ -lateral ]
p958
sbasg118
I00
sg114
g958
sg120
I00
sg121
S'R'
sbsg132
(irule
FeatureMatrix
p959
(dp960
g112
(lp961
sg114
V[  ]
p962
sbsg114
V[  ] ---> [ +highTone ] / [ +highTone ] [  ] _ [ -lateral ]
p963
sba(irule
Rule
p964
(dp965
g104
(irule
Guard
p966
(dp967
g107
I00
sg108
(lp968
(irule
FeatureMatrix
p969
(dp970
g112
(lp971
sg114
V[  ]
p972
sba(irule
FeatureMatrix
p973
(dp974
g112
(lp975
(I01
g572
tp976
asg114
V[ +highTone ]
p977
sbasg118
I00
sg114
V[ +highTone ] [  ]
p978
sg120
I00
sg121
S'L'
sbsg122
(irule
FeatureMatrix
p979
(dp980
g112
(lp981
(I01
g572
tp982
asg114
V[ +highTone ]
p983
sbsg128
(irule
Guard
p984
(dp985
g107
I00
sg108
(lp986
(irule
FeatureMatrix
p987
(dp988
g112
(lp989
(I00
g736
tp990
asg114
V[ -rounded ]
p991
sbasg118
I00
sg114
g991
sg120
I00
sg121
S'R'
sbsg132
(irule
FeatureMatrix
p992
(dp993
g112
(lp994
sg114
V[  ]
p995
sbsg114
V[  ] ---> [ +highTone ] / [ +highTone ] [  ] _ [ -rounded ]
p996
sba(irule
Rule
p997
(dp998
g104
(irule
Guard
p999
(dp1000
g107
I00
sg108
(lp1001
(irule
FeatureMatrix
p1002
(dp1003
g112
(lp1004
(I00
g679
tp1005
asg114
V[ -vowel ]
p1006
sba(irule
FeatureMatrix
p1007
(dp1008
g112
(lp1009
(I01
g572
tp1010
asg114
V[ +highTone ]
p1011
sbasg118
I00
sg114
V[ +highTone ] [ -vowel ]
p1012
sg120
I00
sg121
S'L'
sbsg122
(irule
FeatureMatrix
p1013
(dp1014
g112
(lp1015
(I01
g572
tp1016
asg114
V[ +highTone ]
p1017
sbsg128
(irule
Guard
p1018
(dp1019
g107
I00
sg108
(lp1020
(irule
FeatureMatrix
p1021
(dp1022
g112
(lp1023
sg114
V[  ]
p1024
sbasg118
I00
sg114
g1024
sg120
I00
sg121
S'R'
sbsg132
(irule
FeatureMatrix
p1025
(dp1026
g112
(lp1027
sg114
V[  ]
p1028
sbsg114
V[  ] ---> [ +highTone ] / [ +highTone ] [ -vowel ] _ [  ]
p1029
sba(irule
Rule
p1030
(dp1031
g104
(irule
Guard
p1032
(dp1033
g107
I00
sg108
(lp1034
(irule
FeatureMatrix
p1035
(dp1036
g112
(lp1037
sg114
V[  ]
p1038
sba(irule
FeatureMatrix
p1039
(dp1040
g112
(lp1041
(I01
g572
tp1042
asg114
V[ +highTone ]
p1043
sbasg118
I00
sg114
V[ +highTone ] [  ]
p1044
sg120
I00
sg121
S'L'
sbsg122
(irule
FeatureMatrix
p1045
(dp1046
g112
(lp1047
(I01
g572
tp1048
asg114
V[ +highTone ]
p1049
sbsg128
(irule
Guard
p1050
(dp1051
g107
I00
sg108
(lp1052
(irule
FeatureMatrix
p1053
(dp1054
g112
(lp1055
(I00
S'back'
p1056
tp1057
asg114
V[ -back ]
p1058
sbasg118
I00
sg114
g1058
sg120
I00
sg121
S'R'
sbsg132
(irule
FeatureMatrix
p1059
(dp1060
g112
(lp1061
sg114
V[  ]
p1062
sbsg114
V[  ] ---> [ +highTone ] / [ +highTone ] [  ] _ [ -back ]
p1063
sba(irule
Rule
p1064
(dp1065
g104
(irule
Guard
p1066
(dp1067
g107
I00
sg108
(lp1068
(irule
FeatureMatrix
p1069
(dp1070
g112
(lp1071
(I01
g712
tp1072
asg114
V[ +anterior ]
p1073
sba(irule
FeatureMatrix
p1074
(dp1075
g112
(lp1076
(I01
g572
tp1077
asg114
V[ +highTone ]
p1078
sbasg118
I00
sg114
V[ +highTone ] [ +anterior ]
p1079
sg120
I00
sg121
S'L'
sbsg122
(irule
FeatureMatrix
p1080
(dp1081
g112
(lp1082
(I01
g572
tp1083
asg114
V[ +highTone ]
p1084
sbsg128
(irule
Guard
p1085
(dp1086
g107
I00
sg108
(lp1087
(irule
FeatureMatrix
p1088
(dp1089
g112
(lp1090
sg114
V[  ]
p1091
sbasg118
I00
sg114
g1091
sg120
I00
sg121
S'R'
sbsg132
(irule
FeatureMatrix
p1092
(dp1093
g112
(lp1094
sg114
V[  ]
p1095
sbsg114
V[  ] ---> [ +highTone ] / [ +highTone ] [ +anterior ] _ [  ]
p1096
sba(irule
Rule
p1097
(dp1098
g104
(irule
Guard
p1099
(dp1100
g107
I00
sg108
(lp1101
(irule
FeatureMatrix
p1102
(dp1103
g112
(lp1104
sg114
V[  ]
p1105
sba(irule
FeatureMatrix
p1106
(dp1107
g112
(lp1108
(I01
g572
tp1109
asg114
V[ +highTone ]
p1110
sbasg118
I00
sg114
V[ +highTone ] [  ]
p1111
sg120
I00
sg121
S'L'
sbsg122
(irule
FeatureMatrix
p1112
(dp1113
g112
(lp1114
(I01
g572
tp1115
asg114
V[ +highTone ]
p1116
sbsg128
(irule
Guard
p1117
(dp1118
g107
I00
sg108
(lp1119
(irule
FeatureMatrix
p1120
(dp1121
g112
(lp1122
(I00
g572
tp1123
asg114
V[ -highTone ]
p1124
sbasg118
I00
sg114
g1124
sg120
I00
sg121
S'R'
sbsg132
(irule
FeatureMatrix
p1125
(dp1126
g112
(lp1127
sg114
V[  ]
p1128
sbsg114
V[  ] ---> [ +highTone ] / [ +highTone ] [  ] _ [ -highTone ]
p1129
sba(irule
Rule
p1130
(dp1131
g104
(irule
Guard
p1132
(dp1133
g107
I00
sg108
(lp1134
(irule
FeatureMatrix
p1135
(dp1136
g112
(lp1137
sg114
V[  ]
p1138
sba(irule
FeatureMatrix
p1139
(dp1140
g112
(lp1141
(I01
g572
tp1142
asg114
V[ +highTone ]
p1143
sbasg118
I00
sg114
V[ +highTone ] [  ]
p1144
sg120
I00
sg121
S'L'
sbsg122
(irule
FeatureMatrix
p1145
(dp1146
g112
(lp1147
(I01
g572
tp1148
asg114
V[ +highTone ]
p1149
sbsg128
(irule
Guard
p1150
(dp1151
g107
I00
sg108
(lp1152
(irule
FeatureMatrix
p1153
(dp1154
g112
(lp1155
sg114
V[  ]
p1156
sba(irule
FeatureMatrix
p1157
(dp1158
g112
(lp1159
sg114
V[  ]
p1160
sbasg118
I00
sg114
V[  ] [  ]
p1161
sg120
I00
sg121
S'R'
sbsg132
(irule
FeatureMatrix
p1162
(dp1163
g112
(lp1164
sg114
V[  ]
p1165
sbsg114
V[  ] ---> [ +highTone ] / [ +highTone ] [  ] _ [  ] [  ]
p1166
sba(irule
Rule
p1167
(dp1168
g104
(irule
Guard
p1169
(dp1170
g107
I00
sg108
(lp1171
(irule
FeatureMatrix
p1172
(dp1173
g112
(lp1174
sg114
V[  ]
p1175
sba(irule
FeatureMatrix
p1176
(dp1177
g112
(lp1178
(I01
g572
tp1179
asg114
V[ +highTone ]
p1180
sbasg118
I00
sg114
V[ +highTone ] [  ]
p1181
sg120
I00
sg121
S'L'
sbsg122
(irule
FeatureMatrix
p1182
(dp1183
g112
(lp1184
(I01
g572
tp1185
asg114
V[ +highTone ]
p1186
sbsg128
(irule
Guard
p1187
(dp1188
g107
I00
sg108
(lp1189
(irule
FeatureMatrix
p1190
(dp1191
g112
(lp1192
(I00
g679
tp1193
asg114
V[ -vowel ]
p1194
sbasg118
I00
sg114
g1194
sg120
I00
sg121
S'R'
sbsg132
(irule
FeatureMatrix
p1195
(dp1196
g112
(lp1197
sg114
V[  ]
p1198
sbsg114
V[  ] ---> [ +highTone ] / [ +highTone ] [  ] _ [ -vowel ]
p1199
sba(irule
Rule
p1200
(dp1201
g104
(irule
Guard
p1202
(dp1203
g107
I00
sg108
(lp1204
(irule
FeatureMatrix
p1205
(dp1206
g112
(lp1207
sg114
V[  ]
p1208
sba(irule
FeatureMatrix
p1209
(dp1210
g112
(lp1211
(I01
g572
tp1212
asg114
V[ +highTone ]
p1213
sbasg118
I00
sg114
V[ +highTone ] [  ]
p1214
sg120
I00
sg121
S'L'
sbsg122
(irule
FeatureMatrix
p1215
(dp1216
g112
(lp1217
(I01
g572
tp1218
asg114
V[ +highTone ]
p1219
sbsg128
(irule
Guard
p1220
(dp1221
g107
I00
sg108
(lp1222
(irule
FeatureMatrix
p1223
(dp1224
g112
(lp1225
(I01
g606
tp1226
asg114
V[ +voice ]
p1227
sbasg118
I00
sg114
g1227
sg120
I00
sg121
S'R'
sbsg132
(irule
FeatureMatrix
p1228
(dp1229
g112
(lp1230
sg114
V[  ]
p1231
sbsg114
V[  ] ---> [ +highTone ] / [ +highTone ] [  ] _ [ +voice ]
p1232
sba(irule
Rule
p1233
(dp1234
g104
(irule
Guard
p1235
(dp1236
g107
I00
sg108
(lp1237
(irule
FeatureMatrix
p1238
(dp1239
g112
(lp1240
sg114
V[  ]
p1241
sba(irule
FeatureMatrix
p1242
(dp1243
g112
(lp1244
(I01
g572
tp1245
asg114
V[ +highTone ]
p1246
sbasg118
I00
sg114
V[ +highTone ] [  ]
p1247
sg120
I00
sg121
S'L'
sbsg122
(irule
FeatureMatrix
p1248
(dp1249
g112
(lp1250
(I01
g572
tp1251
asg114
V[ +highTone ]
p1252
sbsg128
(irule
Guard
p1253
(dp1254
g107
I00
sg108
(lp1255
(irule
FeatureMatrix
p1256
(dp1257
g112
(lp1258
(I00
S'tense'
p1259
tp1260
asg114
V[ -tense ]
p1261
sbasg118
I00
sg114
g1261
sg120
I00
sg121
S'R'
sbsg132
(irule
FeatureMatrix
p1262
(dp1263
g112
(lp1264
sg114
V[  ]
p1265
sbsg114
V[  ] ---> [ +highTone ] / [ +highTone ] [  ] _ [ -tense ]
p1266
sba(irule
Rule
p1267
(dp1268
g104
(irule
Guard
p1269
(dp1270
g107
I00
sg108
(lp1271
(irule
FeatureMatrix
p1272
(dp1273
g112
(lp1274
sg114
V[  ]
p1275
sba(irule
FeatureMatrix
p1276
(dp1277
g112
(lp1278
(I01
g572
tp1279
asg114
V[ +highTone ]
p1280
sbasg118
I00
sg114
V[ +highTone ] [  ]
p1281
sg120
I00
sg121
S'L'
sbsg122
(irule
FeatureMatrix
p1282
(dp1283
g112
(lp1284
(I01
g572
tp1285
asg114
V[ +highTone ]
p1286
sbsg128
(irule
Guard
p1287
(dp1288
g107
I00
sg108
(lp1289
(irule
FeatureMatrix
p1290
(dp1291
g112
(lp1292
sg114
V[  ]
p1293
sbasg118
I00
sg114
g1293
sg120
I00
sg121
S'R'
sbsg132
(irule
FeatureMatrix
p1294
(dp1295
g112
(lp1296
(I01
g679
tp1297
asg114
V[ +vowel ]
p1298
sbsg114
V[ +vowel ] ---> [ +highTone ] / [ +highTone ] [  ] _ [  ]
p1299
sba(irule
Rule
p1300
(dp1301
g104
(irule
Guard
p1302
(dp1303
g107
I00
sg108
(lp1304
(irule
FeatureMatrix
p1305
(dp1306
g112
(lp1307
(I00
g572
tp1308
asg114
V[ -highTone ]
p1309
sba(irule
FeatureMatrix
p1310
(dp1311
g112
(lp1312
(I01
g572
tp1313
asg114
V[ +highTone ]
p1314
sbasg118
I00
sg114
V[ +highTone ] [ -highTone ]
p1315
sg120
I00
sg121
S'L'
sbsg122
(irule
FeatureMatrix
p1316
(dp1317
g112
(lp1318
(I01
g572
tp1319
asg114
V[ +highTone ]
p1320
sbsg128
(irule
Guard
p1321
(dp1322
g107
I00
sg108
(lp1323
(irule
FeatureMatrix
p1324
(dp1325
g112
(lp1326
sg114
V[  ]
p1327
sbasg118
I00
sg114
g1327
sg120
I00
sg121
S'R'
sbsg132
(irule
FeatureMatrix
p1328
(dp1329
g112
(lp1330
sg114
V[  ]
p1331
sbsg114
V[  ] ---> [ +highTone ] / [ +highTone ] [ -highTone ] _ [  ]
p1332
sba(irule
Rule
p1333
(dp1334
g104
(irule
Guard
p1335
(dp1336
g107
I00
sg108
(lp1337
(irule
FeatureMatrix
p1338
(dp1339
g112
(lp1340
sg114
V[  ]
p1341
sba(irule
FeatureMatrix
p1342
(dp1343
g112
(lp1344
(I01
g572
tp1345
asg114
V[ +highTone ]
p1346
sbasg118
I00
sg114
V[ +highTone ] [  ]
p1347
sg120
I00
sg121
S'L'
sbsg122
(irule
FeatureMatrix
p1348
(dp1349
g112
(lp1350
(I01
g572
tp1351
asg114
V[ +highTone ]
p1352
sbsg128
(irule
Guard
p1353
(dp1354
g107
I00
sg108
(lp1355
(irule
FeatureMatrix
p1356
(dp1357
g112
(lp1358
(I00
g838
tp1359
asg114
V[ -high ]
p1360
sbasg118
I00
sg114
g1360
sg120
I00
sg121
S'R'
sbsg132
(irule
FeatureMatrix
p1361
(dp1362
g112
(lp1363
sg114
V[  ]
p1364
sbsg114
V[  ] ---> [ +highTone ] / [ +highTone ] [  ] _ [ -high ]
p1365
sba(irule
Rule
p1366
(dp1367
g104
(irule
Guard
p1368
(dp1369
g107
I00
sg108
(lp1370
(irule
FeatureMatrix
p1371
(dp1372
g112
(lp1373
sg114
V[  ]
p1374
sba(irule
FeatureMatrix
p1375
(dp1376
g112
(lp1377
(I01
g572
tp1378
asg114
V[ +highTone ]
p1379
sbasg118
I00
sg114
V[ +highTone ] [  ]
p1380
sg120
I00
sg121
S'L'
sbsg122
(irule
FeatureMatrix
p1381
(dp1382
g112
(lp1383
(I01
g572
tp1384
asg114
V[ +highTone ]
p1385
sbsg128
(irule
Guard
p1386
(dp1387
g107
I00
sg108
(lp1388
(irule
FeatureMatrix
p1389
(dp1390
g112
(lp1391
sg114
V[  ]
p1392
sbasg118
I00
sg114
g1392
sg120
I00
sg121
S'R'
sbsg132
(irule
FeatureMatrix
p1393
(dp1394
g112
(lp1395
(I01
S'continuant'
p1396
tp1397
asg114
V[ +continuant ]
p1398
sbsg114
V[ +continuant ] ---> [ +highTone ] / [ +highTone ] [  ] _ [  ]
p1399
sba(irule
Rule
p1400
(dp1401
g104
(irule
Guard
p1402
(dp1403
g107
I00
sg108
(lp1404
(irule
FeatureMatrix
p1405
(dp1406
g112
(lp1407
(I00
g1259
tp1408
asg114
V[ -tense ]
p1409
sba(irule
FeatureMatrix
p1410
(dp1411
g112
(lp1412
(I01
g572
tp1413
asg114
V[ +highTone ]
p1414
sbasg118
I00
sg114
V[ +highTone ] [ -tense ]
p1415
sg120
I00
sg121
S'L'
sbsg122
(irule
FeatureMatrix
p1416
(dp1417
g112
(lp1418
(I01
g572
tp1419
asg114
V[ +highTone ]
p1420
sbsg128
(irule
Guard
p1421
(dp1422
g107
I00
sg108
(lp1423
(irule
FeatureMatrix
p1424
(dp1425
g112
(lp1426
sg114
V[  ]
p1427
sbasg118
I00
sg114
g1427
sg120
I00
sg121
S'R'
sbsg132
(irule
FeatureMatrix
p1428
(dp1429
g112
(lp1430
sg114
V[  ]
p1431
sbsg114
V[  ] ---> [ +highTone ] / [ +highTone ] [ -tense ] _ [  ]
p1432
sba(irule
Rule
p1433
(dp1434
g104
(irule
Guard
p1435
(dp1436
g107
I00
sg108
(lp1437
(irule
FeatureMatrix
p1438
(dp1439
g112
(lp1440
(I00
g1056
tp1441
asg114
V[ -back ]
p1442
sba(irule
FeatureMatrix
p1443
(dp1444
g112
(lp1445
(I01
g572
tp1446
asg114
V[ +highTone ]
p1447
sbasg118
I00
sg114
V[ +highTone ] [ -back ]
p1448
sg120
I00
sg121
S'L'
sbsg122
(irule
FeatureMatrix
p1449
(dp1450
g112
(lp1451
(I01
g572
tp1452
asg114
V[ +highTone ]
p1453
sbsg128
(irule
Guard
p1454
(dp1455
g107
I00
sg108
(lp1456
(irule
FeatureMatrix
p1457
(dp1458
g112
(lp1459
sg114
V[  ]
p1460
sbasg118
I00
sg114
g1460
sg120
I00
sg121
S'R'
sbsg132
(irule
FeatureMatrix
p1461
(dp1462
g112
(lp1463
sg114
V[  ]
p1464
sbsg114
V[  ] ---> [ +highTone ] / [ +highTone ] [ -back ] _ [  ]
p1465
sba(irule
Rule
p1466
(dp1467
g104
(irule
Guard
p1468
(dp1469
g107
I00
sg108
(lp1470
(irule
FeatureMatrix
p1471
(dp1472
g112
(lp1473
sg114
V[  ]
p1474
sba(irule
FeatureMatrix
p1475
(dp1476
g112
(lp1477
(I00
g566
tp1478
a(I01
g572
tp1479
asg114
V[ +highTone -liquid ]
p1480
sbasg118
I00
sg114
V[ +highTone -liquid ] [  ]
p1481
sg120
I00
sg121
S'L'
sbsg122
(irule
FeatureMatrix
p1482
(dp1483
g112
(lp1484
(I01
g572
tp1485
asg114
V[ +highTone ]
p1486
sbsg128
(irule
Guard
p1487
(dp1488
g107
I00
sg108
(lp1489
(irule
FeatureMatrix
p1490
(dp1491
g112
(lp1492
sg114
V[  ]
p1493
sbasg118
I00
sg114
g1493
sg120
I00
sg121
S'R'
sbsg132
(irule
FeatureMatrix
p1494
(dp1495
g112
(lp1496
sg114
V[  ]
p1497
sbsg114
V[  ] ---> [ +highTone ] / [ +highTone -liquid ] [  ] _ [  ]
p1498
sba(irule
Rule
p1499
(dp1500
g104
(irule
Guard
p1501
(dp1502
g107
I00
sg108
(lp1503
(irule
FeatureMatrix
p1504
(dp1505
g112
(lp1506
sg114
V[  ]
p1507
sba(irule
FeatureMatrix
p1508
(dp1509
g112
(lp1510
(I01
g572
tp1511
asg114
V[ +highTone ]
p1512
sbasg118
I00
sg114
V[ +highTone ] [  ]
p1513
sg120
I00
sg121
S'L'
sbsg122
(irule
FeatureMatrix
p1514
(dp1515
g112
(lp1516
(I01
g572
tp1517
asg114
V[ +highTone ]
p1518
sbsg128
(irule
Guard
p1519
(dp1520
g107
I00
sg108
(lp1521
(irule
FeatureMatrix
p1522
(dp1523
g112
(lp1524
(I00
g792
tp1525
asg114
V[ -sibilant ]
p1526
sbasg118
I00
sg114
g1526
sg120
I00
sg121
S'R'
sbsg132
(irule
FeatureMatrix
p1527
(dp1528
g112
(lp1529
sg114
V[  ]
p1530
sbsg114
V[  ] ---> [ +highTone ] / [ +highTone ] [  ] _ [ -sibilant ]
p1531
sba(irule
Rule
p1532
(dp1533
g104
(irule
Guard
p1534
(dp1535
g107
I00
sg108
(lp1536
(irule
FeatureMatrix
p1537
(dp1538
g112
(lp1539
sg114
V[  ]
p1540
sba(irule
FeatureMatrix
p1541
(dp1542
g112
(lp1543
(I00
g804
tp1544
a(I01
g572
tp1545
asg114
V[ +highTone -lateral ]
p1546
sbasg118
I00
sg114
V[ +highTone -lateral ] [  ]
p1547
sg120
I00
sg121
S'L'
sbsg122
(irule
FeatureMatrix
p1548
(dp1549
g112
(lp1550
(I01
g572
tp1551
asg114
V[ +highTone ]
p1552
sbsg128
(irule
Guard
p1553
(dp1554
g107
I00
sg108
(lp1555
(irule
FeatureMatrix
p1556
(dp1557
g112
(lp1558
sg114
V[  ]
p1559
sbasg118
I00
sg114
g1559
sg120
I00
sg121
S'R'
sbsg132
(irule
FeatureMatrix
p1560
(dp1561
g112
(lp1562
sg114
V[  ]
p1563
sbsg114
V[  ] ---> [ +highTone ] / [ +highTone -lateral ] [  ] _ [  ]
p1564
sba(irule
Rule
p1565
(dp1566
g104
(irule
Guard
p1567
(dp1568
g107
I00
sg108
(lp1569
(irule
FeatureMatrix
p1570
(dp1571
g112
(lp1572
sg114
V[  ]
p1573
sba(irule
FeatureMatrix
p1574
(dp1575
g112
(lp1576
(I01
g572
tp1577
asg114
V[ +highTone ]
p1578
sbasg118
I00
sg114
V[ +highTone ] [  ]
p1579
sg120
I00
sg121
S'L'
sbsg122
(irule
FeatureMatrix
p1580
(dp1581
g112
(lp1582
(I01
g572
tp1583
a(I00
S'coronal'
p1584
tp1585
asg114
V[ +highTone -coronal ]
p1586
sbsg128
(irule
Guard
p1587
(dp1588
g107
I00
sg108
(lp1589
(irule
FeatureMatrix
p1590
(dp1591
g112
(lp1592
sg114
V[  ]
p1593
sbasg118
I00
sg114
g1593
sg120
I00
sg121
S'R'
sbsg132
(irule
FeatureMatrix
p1594
(dp1595
g112
(lp1596
sg114
V[  ]
p1597
sbsg114
V[  ] ---> [ +highTone -coronal ] / [ +highTone ] [  ] _ [  ]
p1598
sba(irule
Rule
p1599
(dp1600
g104
(irule
Guard
p1601
(dp1602
g107
I00
sg108
(lp1603
(irule
FeatureMatrix
p1604
(dp1605
g112
(lp1606
sg114
V[  ]
p1607
sba(irule
FeatureMatrix
p1608
(dp1609
g112
(lp1610
(I01
g572
tp1611
asg114
V[ +highTone ]
p1612
sbasg118
I00
sg114
V[ +highTone ] [  ]
p1613
sg120
I00
sg121
S'L'
sbsg122
(irule
FeatureMatrix
p1614
(dp1615
g112
(lp1616
(I01
g572
tp1617
asg114
V[ +highTone ]
p1618
sbsg128
(irule
Guard
p1619
(dp1620
g107
I00
sg108
(lp1621
(irule
FeatureMatrix
p1622
(dp1623
g112
(lp1624
sg114
V[  ]
p1625
sbasg118
I00
sg114
g1625
sg120
I00
sg121
S'R'
sbsg132
(irule
FeatureMatrix
p1626
(dp1627
g112
(lp1628
(I00
g712
tp1629
asg114
V[ -anterior ]
p1630
sbsg114
V[ -anterior ] ---> [ +highTone ] / [ +highTone ] [  ] _ [  ]
p1631
sba(irule
Rule
p1632
(dp1633
g104
(irule
Guard
p1634
(dp1635
g107
I00
sg108
(lp1636
(irule
FeatureMatrix
p1637
(dp1638
g112
(lp1639
(I00
g923
tp1640
asg114
V[ -low ]
p1641
sba(irule
FeatureMatrix
p1642
(dp1643
g112
(lp1644
(I01
g572
tp1645
asg114
V[ +highTone ]
p1646
sbasg118
I00
sg114
V[ +highTone ] [ -low ]
p1647
sg120
I00
sg121
S'L'
sbsg122
(irule
FeatureMatrix
p1648
(dp1649
g112
(lp1650
(I01
g572
tp1651
asg114
V[ +highTone ]
p1652
sbsg128
(irule
Guard
p1653
(dp1654
g107
I00
sg108
(lp1655
(irule
FeatureMatrix
p1656
(dp1657
g112
(lp1658
sg114
V[  ]
p1659
sbasg118
I00
sg114
g1659
sg120
I00
sg121
S'R'
sbsg132
(irule
FeatureMatrix
p1660
(dp1661
g112
(lp1662
sg114
V[  ]
p1663
sbsg114
V[  ] ---> [ +highTone ] / [ +highTone ] [ -low ] _ [  ]
p1664
sba(irule
Rule
p1665
(dp1666
g104
(irule
Guard
p1667
(dp1668
g107
I00
sg108
(lp1669
(irule
FeatureMatrix
p1670
(dp1671
g112
(lp1672
sg114
V[  ]
p1673
sba(irule
FeatureMatrix
p1674
(dp1675
g112
(lp1676
(I01
g572
tp1677
asg114
V[ +highTone ]
p1678
sbasg118
I00
sg114
V[ +highTone ] [  ]
p1679
sg120
I00
sg121
S'L'
sbsg122
(irule
FeatureMatrix
p1680
(dp1681
g112
(lp1682
(I00
g566
tp1683
a(I01
g572
tp1684
asg114
V[ +highTone -liquid ]
p1685
sbsg128
(irule
Guard
p1686
(dp1687
g107
I00
sg108
(lp1688
(irule
FeatureMatrix
p1689
(dp1690
g112
(lp1691
sg114
V[  ]
p1692
sbasg118
I00
sg114
g1692
sg120
I00
sg121
S'R'
sbsg132
(irule
FeatureMatrix
p1693
(dp1694
g112
(lp1695
sg114
V[  ]
p1696
sbsg114
V[  ] ---> [ +highTone -liquid ] / [ +highTone ] [  ] _ [  ]
p1697
sba(irule
Rule
p1698
(dp1699
g104
(irule
Guard
p1700
(dp1701
g107
I00
sg108
(lp1702
(irule
FeatureMatrix
p1703
(dp1704
g112
(lp1705
sg114
V[  ]
p1706
sba(irule
FeatureMatrix
p1707
(dp1708
g112
(lp1709
(I01
g572
tp1710
a(I00
g792
tp1711
asg114
V[ +highTone -sibilant ]
p1712
sbasg118
I00
sg114
V[ +highTone -sibilant ] [  ]
p1713
sg120
I00
sg121
S'L'
sbsg122
(irule
FeatureMatrix
p1714
(dp1715
g112
(lp1716
(I01
g572
tp1717
asg114
V[ +highTone ]
p1718
sbsg128
(irule
Guard
p1719
(dp1720
g107
I00
sg108
(lp1721
(irule
FeatureMatrix
p1722
(dp1723
g112
(lp1724
sg114
V[  ]
p1725
sbasg118
I00
sg114
g1725
sg120
I00
sg121
S'R'
sbsg132
(irule
FeatureMatrix
p1726
(dp1727
g112
(lp1728
sg114
V[  ]
p1729
sbsg114
V[  ] ---> [ +highTone ] / [ +highTone -sibilant ] [  ] _ [  ]
p1730
sba(irule
Rule
p1731
(dp1732
g104
(irule
Guard
p1733
(dp1734
g107
I00
sg108
(lp1735
(irule
FeatureMatrix
p1736
(dp1737
g112
(lp1738
sg114
V[  ]
p1739
sba(irule
FeatureMatrix
p1740
(dp1741
g112
(lp1742
(I01
g572
tp1743
a(I01
g679
tp1744
asg114
V[ +highTone +vowel ]
p1745
sbasg118
I00
sg114
V[ +highTone +vowel ] [  ]
p1746
sg120
I00
sg121
S'L'
sbsg122
(irule
FeatureMatrix
p1747
(dp1748
g112
(lp1749
(I01
g572
tp1750
asg114
V[ +highTone ]
p1751
sbsg128
(irule
Guard
p1752
(dp1753
g107
I00
sg108
(lp1754
(irule
FeatureMatrix
p1755
(dp1756
g112
(lp1757
sg114
V[  ]
p1758
sbasg118
I00
sg114
g1758
sg120
I00
sg121
S'R'
sbsg132
(irule
FeatureMatrix
p1759
(dp1760
g112
(lp1761
sg114
V[  ]
p1762
sbsg114
V[  ] ---> [ +highTone ] / [ +highTone +vowel ] [  ] _ [  ]
p1763
sba(irule
Rule
p1764
(dp1765
g104
(irule
Guard
p1766
(dp1767
g107
I00
sg108
(lp1768
(irule
FeatureMatrix
p1769
(dp1770
g112
(lp1771
sg114
V[  ]
p1772
sba(irule
FeatureMatrix
p1773
(dp1774
g112
(lp1775
(I01
g572
tp1776
a(I01
g838
tp1777
asg114
V[ +high +highTone ]
p1778
sbasg118
I00
sg114
V[ +high +highTone ] [  ]
p1779
sg120
I00
sg121
S'L'
sbsg122
(irule
FeatureMatrix
p1780
(dp1781
g112
(lp1782
(I01
g572
tp1783
asg114
V[ +highTone ]
p1784
sbsg128
(irule
Guard
p1785
(dp1786
g107
I00
sg108
(lp1787
(irule
FeatureMatrix
p1788
(dp1789
g112
(lp1790
sg114
V[  ]
p1791
sbasg118
I00
sg114
g1791
sg120
I00
sg121
S'R'
sbsg132
(irule
FeatureMatrix
p1792
(dp1793
g112
(lp1794
sg114
V[  ]
p1795
sbsg114
V[  ] ---> [ +highTone ] / [ +high +highTone ] [  ] _ [  ]
p1796
sba(irule
Rule
p1797
(dp1798
g104
(irule
Guard
p1799
(dp1800
g107
I00
sg108
(lp1801
(irule
FeatureMatrix
p1802
(dp1803
g112
(lp1804
sg114
V[  ]
p1805
sba(irule
FeatureMatrix
p1806
(dp1807
g112
(lp1808
(I01
g572
tp1809
asg114
V[ +highTone ]
p1810
sbasg118
I00
sg114
V[ +highTone ] [  ]
p1811
sg120
I00
sg121
S'L'
sbsg122
(irule
FeatureMatrix
p1812
(dp1813
g112
(lp1814
(I01
g572
tp1815
asg114
V[ +highTone ]
p1816
sbsg128
(irule
Guard
p1817
(dp1818
g107
I00
sg108
(lp1819
(irule
FeatureMatrix
p1820
(dp1821
g112
(lp1822
sg114
V[  ]
p1823
sbasg118
I00
sg114
g1823
sg120
I00
sg121
S'R'
sbsg132
(irule
FeatureMatrix
p1824
(dp1825
g112
(lp1826
(I01
g1259
tp1827
asg114
V[ +tense ]
p1828
sbsg114
V[ +tense ] ---> [ +highTone ] / [ +highTone ] [  ] _ [  ]
p1829
sba(irule
Rule
p1830
(dp1831
g104
(irule
Guard
p1832
(dp1833
g107
I00
sg108
(lp1834
(irule
FeatureMatrix
p1835
(dp1836
g112
(lp1837
sg114
V[  ]
p1838
sba(irule
FeatureMatrix
p1839
(dp1840
g112
(lp1841
(I01
g572
tp1842
a(I00
g923
tp1843
asg114
V[ +highTone -low ]
p1844
sbasg118
I00
sg114
V[ +highTone -low ] [  ]
p1845
sg120
I00
sg121
S'L'
sbsg122
(irule
FeatureMatrix
p1846
(dp1847
g112
(lp1848
(I01
g572
tp1849
asg114
V[ +highTone ]
p1850
sbsg128
(irule
Guard
p1851
(dp1852
g107
I00
sg108
(lp1853
(irule
FeatureMatrix
p1854
(dp1855
g112
(lp1856
sg114
V[  ]
p1857
sbasg118
I00
sg114
g1857
sg120
I00
sg121
S'R'
sbsg132
(irule
FeatureMatrix
p1858
(dp1859
g112
(lp1860
sg114
V[  ]
p1861
sbsg114
V[  ] ---> [ +highTone ] / [ +highTone -low ] [  ] _ [  ]
p1862
sba(irule
Rule
p1863
(dp1864
g104
(irule
Guard
p1865
(dp1866
g107
I00
sg108
(lp1867
(irule
FeatureMatrix
p1868
(dp1869
g112
(lp1870
sg114
V[  ]
p1871
sba(irule
FeatureMatrix
p1872
(dp1873
g112
(lp1874
(I01
g572
tp1875
asg114
V[ +highTone ]
p1876
sbasg118
I00
sg114
V[ +highTone ] [  ]
p1877
sg120
I00
sg121
S'L'
sbsg122
(irule
FeatureMatrix
p1878
(dp1879
g112
(lp1880
(I01
g572
tp1881
asg114
V[ +highTone ]
p1882
sbsg128
(irule
Guard
p1883
(dp1884
g107
I00
sg108
(lp1885
(irule
FeatureMatrix
p1886
(dp1887
g112
(lp1888
sg114
V[  ]
p1889
sbasg118
I00
sg114
g1889
sg120
I00
sg121
S'R'
sbsg132
(irule
FeatureMatrix
p1890
(dp1891
g112
(lp1892
(I01
g606
tp1893
asg114
V[ +voice ]
p1894
sbsg114
V[ +voice ] ---> [ +highTone ] / [ +highTone ] [  ] _ [  ]
p1895
sba(irule
Rule
p1896
(dp1897
g104
(irule
Guard
p1898
(dp1899
g107
I00
sg108
(lp1900
(irule
FeatureMatrix
p1901
(dp1902
g112
(lp1903
sg114
V[  ]
p1904
sba(irule
FeatureMatrix
p1905
(dp1906
g112
(lp1907
(I01
g572
tp1908
asg114
V[ +highTone ]
p1909
sbasg118
I00
sg114
V[ +highTone ] [  ]
p1910
sg120
I00
sg121
S'L'
sbsg122
(irule
FeatureMatrix
p1911
(dp1912
g112
(lp1913
(I00
g804
tp1914
a(I01
g572
tp1915
asg114
V[ +highTone -lateral ]
p1916
sbsg128
(irule
Guard
p1917
(dp1918
g107
I00
sg108
(lp1919
(irule
FeatureMatrix
p1920
(dp1921
g112
(lp1922
sg114
V[  ]
p1923
sbasg118
I00
sg114
g1923
sg120
I00
sg121
S'R'
sbsg132
(irule
FeatureMatrix
p1924
(dp1925
g112
(lp1926
sg114
V[  ]
p1927
sbsg114
V[  ] ---> [ +highTone -lateral ] / [ +highTone ] [  ] _ [  ]
p1928
sba(irule
Rule
p1929
(dp1930
g104
(irule
Guard
p1931
(dp1932
g107
I00
sg108
(lp1933
(irule
FeatureMatrix
p1934
(dp1935
g112
(lp1936
sg114
V[  ]
p1937
sba(irule
FeatureMatrix
p1938
(dp1939
g112
(lp1940
(I00
S'nasal'
p1941
tp1942
a(I01
g572
tp1943
asg114
V[ +highTone -nasal ]
p1944
sbasg118
I00
sg114
V[ +highTone -nasal ] [  ]
p1945
sg120
I00
sg121
S'L'
sbsg122
(irule
FeatureMatrix
p1946
(dp1947
g112
(lp1948
(I01
g572
tp1949
asg114
V[ +highTone ]
p1950
sbsg128
(irule
Guard
p1951
(dp1952
g107
I00
sg108
(lp1953
(irule
FeatureMatrix
p1954
(dp1955
g112
(lp1956
sg114
V[  ]
p1957
sbasg118
I00
sg114
g1957
sg120
I00
sg121
S'R'
sbsg132
(irule
FeatureMatrix
p1958
(dp1959
g112
(lp1960
sg114
V[  ]
p1961
sbsg114
V[  ] ---> [ +highTone ] / [ +highTone -nasal ] [  ] _ [  ]
p1962
sba(irule
Rule
p1963
(dp1964
g104
(irule
Guard
p1965
(dp1966
g107
I00
sg108
(lp1967
(irule
FeatureMatrix
p1968
(dp1969
g112
(lp1970
sg114
V[  ]
p1971
sba(irule
FeatureMatrix
p1972
(dp1973
g112
(lp1974
(I01
g572
tp1975
a(I00
g1584
tp1976
asg114
V[ +highTone -coronal ]
p1977
sbasg118
I00
sg114
V[ +highTone -coronal ] [  ]
p1978
sg120
I00
sg121
S'L'
sbsg122
(irule
FeatureMatrix
p1979
(dp1980
g112
(lp1981
(I01
g572
tp1982
asg114
V[ +highTone ]
p1983
sbsg128
(irule
Guard
p1984
(dp1985
g107
I00
sg108
(lp1986
(irule
FeatureMatrix
p1987
(dp1988
g112
(lp1989
sg114
V[  ]
p1990
sbasg118
I00
sg114
g1990
sg120
I00
sg121
S'R'
sbsg132
(irule
FeatureMatrix
p1991
(dp1992
g112
(lp1993
sg114
V[  ]
p1994
sbsg114
V[  ] ---> [ +highTone ] / [ +highTone -coronal ] [  ] _ [  ]
p1995
sba(irule
Rule
p1996
(dp1997
g104
(irule
Guard
p1998
(dp1999
g107
I00
sg108
(lp2000
(irule
FeatureMatrix
p2001
(dp2002
g112
(lp2003
sg114
V[  ]
p2004
sba(irule
FeatureMatrix
p2005
(dp2006
g112
(lp2007
(I00
g712
tp2008
a(I01
g572
tp2009
asg114
V[ +highTone -anterior ]
p2010
sbasg118
I00
sg114
V[ +highTone -anterior ] [  ]
p2011
sg120
I00
sg121
S'L'
sbsg122
(irule
FeatureMatrix
p2012
(dp2013
g112
(lp2014
(I01
g572
tp2015
asg114
V[ +highTone ]
p2016
sbsg128
(irule
Guard
p2017
(dp2018
g107
I00
sg108
(lp2019
(irule
FeatureMatrix
p2020
(dp2021
g112
(lp2022
sg114
V[  ]
p2023
sbasg118
I00
sg114
g2023
sg120
I00
sg121
S'R'
sbsg132
(irule
FeatureMatrix
p2024
(dp2025
g112
(lp2026
sg114
V[  ]
p2027
sbsg114
V[  ] ---> [ +highTone ] / [ +highTone -anterior ] [  ] _ [  ]
p2028
sba(irule
Rule
p2029
(dp2030
g104
(irule
Guard
p2031
(dp2032
g107
I00
sg108
(lp2033
(irule
FeatureMatrix
p2034
(dp2035
g112
(lp2036
sg114
V[  ]
p2037
sba(irule
FeatureMatrix
p2038
(dp2039
g112
(lp2040
(I01
g572
tp2041
asg114
V[ +highTone ]
p2042
sbasg118
I00
sg114
V[ +highTone ] [  ]
p2043
sg120
I00
sg121
S'L'
sbsg122
(irule
FeatureMatrix
p2044
(dp2045
g112
(lp2046
(I01
g572
tp2047
asg114
V[ +highTone ]
p2048
sbsg128
(irule
Guard
p2049
(dp2050
g107
I00
sg108
(lp2051
(irule
FeatureMatrix
p2052
(dp2053
g112
(lp2054
sg114
V[  ]
p2055
sbasg118
I00
sg114
g2055
sg120
I00
sg121
S'R'
sbsg132
(irule
FeatureMatrix
p2056
(dp2057
g112
(lp2058
(I00
g572
tp2059
asg114
V[ -highTone ]
p2060
sbsg114
V[ -highTone ] ---> [ +highTone ] / [ +highTone ] [  ] _ [  ]
p2061
sba(irule
Rule
p2062
(dp2063
g104
(irule
Guard
p2064
(dp2065
g107
I00
sg108
(lp2066
(irule
FeatureMatrix
p2067
(dp2068
g112
(lp2069
sg114
V[  ]
p2070
sba(irule
FeatureMatrix
p2071
(dp2072
g112
(lp2073
(I01
g572
tp2074
asg114
V[ +highTone ]
p2075
sbasg118
I00
sg114
V[ +highTone ] [  ]
p2076
sg120
I00
sg121
S'L'
sbsg122
(irule
FeatureMatrix
p2077
(dp2078
g112
(lp2079
(I01
g572
tp2080
asg114
V[ +highTone ]
p2081
sbsg128
(irule
Guard
p2082
(dp2083
g107
I00
sg108
(lp2084
(irule
FeatureMatrix
p2085
(dp2086
g112
(lp2087
sg114
V[  ]
p2088
sbasg118
I00
sg114
g2088
sg120
I00
sg121
S'R'
sbsg132
(irule
FeatureMatrix
p2089
(dp2090
g112
(lp2091
(I00
g804
tp2092
asg114
V[ -lateral ]
p2093
sbsg114
V[ -lateral ] ---> [ +highTone ] / [ +highTone ] [  ] _ [  ]
p2094
sba(irule
Rule
p2095
(dp2096
g104
(irule
Guard
p2097
(dp2098
g107
I00
sg108
(lp2099
(irule
FeatureMatrix
p2100
(dp2101
g112
(lp2102
sg114
V[  ]
p2103
sba(irule
FeatureMatrix
p2104
(dp2105
g112
(lp2106
(I01
g572
tp2107
asg114
V[ +highTone ]
p2108
sbasg118
I00
sg114
V[ +highTone ] [  ]
p2109
sg120
I00
sg121
S'L'
sbsg122
(irule
FeatureMatrix
p2110
(dp2111
g112
(lp2112
(I01
g1396
tp2113
a(I01
g572
tp2114
asg114
V[ +continuant +highTone ]
p2115
sbsg128
(irule
Guard
p2116
(dp2117
g107
I00
sg108
(lp2118
(irule
FeatureMatrix
p2119
(dp2120
g112
(lp2121
sg114
V[  ]
p2122
sbasg118
I00
sg114
g2122
sg120
I00
sg121
S'R'
sbsg132
(irule
FeatureMatrix
p2123
(dp2124
g112
(lp2125
sg114
V[  ]
p2126
sbsg114
V[  ] ---> [ +continuant +highTone ] / [ +highTone ] [  ] _ [  ]
p2127
sba(irule
Rule
p2128
(dp2129
g104
(irule
Guard
p2130
(dp2131
g107
I00
sg108
(lp2132
(irule
FeatureMatrix
p2133
(dp2134
g112
(lp2135
sg114
V[  ]
p2136
sba(irule
FeatureMatrix
p2137
(dp2138
g112
(lp2139
(I01
g572
tp2140
a(I01
g1259
tp2141
asg114
V[ +highTone +tense ]
p2142
sbasg118
I00
sg114
V[ +highTone +tense ] [  ]
p2143
sg120
I00
sg121
S'L'
sbsg122
(irule
FeatureMatrix
p2144
(dp2145
g112
(lp2146
(I01
g572
tp2147
asg114
V[ +highTone ]
p2148
sbsg128
(irule
Guard
p2149
(dp2150
g107
I00
sg108
(lp2151
(irule
FeatureMatrix
p2152
(dp2153
g112
(lp2154
sg114
V[  ]
p2155
sbasg118
I00
sg114
g2155
sg120
I00
sg121
S'R'
sbsg132
(irule
FeatureMatrix
p2156
(dp2157
g112
(lp2158
sg114
V[  ]
p2159
sbsg114
V[  ] ---> [ +highTone ] / [ +highTone +tense ] [  ] _ [  ]
p2160
sba(irule
Rule
p2161
(dp2162
g104
(irule
Guard
p2163
(dp2164
g107
I00
sg108
(lp2165
(irule
FeatureMatrix
p2166
(dp2167
g112
(lp2168
sg114
V[  ]
p2169
sba(irule
FeatureMatrix
p2170
(dp2171
g112
(lp2172
(I01
g572
tp2173
asg114
V[ +highTone ]
p2174
sbasg118
I00
sg114
V[ +highTone ] [  ]
p2175
sg120
I00
sg121
S'L'
sbsg122
(irule
FeatureMatrix
p2176
(dp2177
g112
(lp2178
(I01
g572
tp2179
asg114
V[ +highTone ]
p2180
sbsg128
(irule
Guard
p2181
(dp2182
g107
I00
sg108
(lp2183
(irule
FeatureMatrix
p2184
(dp2185
g112
(lp2186
sg114
V[  ]
p2187
sbasg118
I00
sg114
g2187
sg120
I00
sg121
S'R'
sbsg132
(irule
FeatureMatrix
p2188
(dp2189
g112
(lp2190
(I00
g1941
tp2191
asg114
V[ -nasal ]
p2192
sbsg114
V[ -nasal ] ---> [ +highTone ] / [ +highTone ] [  ] _ [  ]
p2193
sba(irule
Rule
p2194
(dp2195
g104
(irule
Guard
p2196
(dp2197
g107
I00
sg108
(lp2198
(irule
FeatureMatrix
p2199
(dp2200
g112
(lp2201
sg114
V[  ]
p2202
sba(irule
FeatureMatrix
p2203
(dp2204
g112
(lp2205
(I01
g572
tp2206
asg114
V[ +highTone ]
p2207
sbasg118
I00
sg114
V[ +highTone ] [  ]
p2208
sg120
I00
sg121
S'L'
sbsg122
(irule
FeatureMatrix
p2209
(dp2210
g112
(lp2211
(I00
g1941
tp2212
a(I01
g572
tp2213
asg114
V[ +highTone -nasal ]
p2214
sbsg128
(irule
Guard
p2215
(dp2216
g107
I00
sg108
(lp2217
(irule
FeatureMatrix
p2218
(dp2219
g112
(lp2220
sg114
V[  ]
p2221
sbasg118
I00
sg114
g2221
sg120
I00
sg121
S'R'
sbsg132
(irule
FeatureMatrix
p2222
(dp2223
g112
(lp2224
sg114
V[  ]
p2225
sbsg114
V[  ] ---> [ +highTone -nasal ] / [ +highTone ] [  ] _ [  ]
p2226
sba(irule
Rule
p2227
(dp2228
g104
(irule
Guard
p2229
(dp2230
g107
I00
sg108
(lp2231
(irule
FeatureMatrix
p2232
(dp2233
g112
(lp2234
sg114
V[  ]
p2235
sba(irule
FeatureMatrix
p2236
(dp2237
g112
(lp2238
(I01
g572
tp2239
asg114
V[ +highTone ]
p2240
sbasg118
I00
sg114
V[ +highTone ] [  ]
p2241
sg120
I00
sg121
S'L'
sbsg122
(irule
FeatureMatrix
p2242
(dp2243
g112
(lp2244
(I01
g572
tp2245
a(I01
S'sonorant'
p2246
tp2247
asg114
V[ +highTone +sonorant ]
p2248
sbsg128
(irule
Guard
p2249
(dp2250
g107
I00
sg108
(lp2251
(irule
FeatureMatrix
p2252
(dp2253
g112
(lp2254
sg114
V[  ]
p2255
sbasg118
I00
sg114
g2255
sg120
I00
sg121
S'R'
sbsg132
(irule
FeatureMatrix
p2256
(dp2257
g112
(lp2258
sg114
V[  ]
p2259
sbsg114
V[  ] ---> [ +highTone +sonorant ] / [ +highTone ] [  ] _ [  ]
p2260
sba(irule
Rule
p2261
(dp2262
g104
(irule
Guard
p2263
(dp2264
g107
I00
sg108
(lp2265
(irule
FeatureMatrix
p2266
(dp2267
g112
(lp2268
sg114
V[  ]
p2269
sba(irule
FeatureMatrix
p2270
(dp2271
g112
(lp2272
(I01
g572
tp2273
asg114
V[ +highTone ]
p2274
sbasg118
I00
sg114
V[ +highTone ] [  ]
p2275
sg120
I00
sg121
S'L'
sbsg122
(irule
FeatureMatrix
p2276
(dp2277
g112
(lp2278
(I01
g572
tp2279
asg114
V[ +highTone ]
p2280
sbsg128
(irule
Guard
p2281
(dp2282
g107
I00
sg108
(lp2283
(irule
FeatureMatrix
p2284
(dp2285
g112
(lp2286
sg114
V[  ]
p2287
sbasg118
I00
sg114
g2287
sg120
I00
sg121
S'R'
sbsg132
(irule
FeatureMatrix
p2288
(dp2289
g112
(lp2290
(I00
g566
tp2291
asg114
V[ -liquid ]
p2292
sbsg114
V[ -liquid ] ---> [ +highTone ] / [ +highTone ] [  ] _ [  ]
p2293
sba(irule
Rule
p2294
(dp2295
g104
(irule
Guard
p2296
(dp2297
g107
I00
sg108
(lp2298
(irule
FeatureMatrix
p2299
(dp2300
g112
(lp2301
sg114
V[  ]
p2302
sba(irule
FeatureMatrix
p2303
(dp2304
g112
(lp2305
(I01
g572
tp2306
a(I01
g2246
tp2307
asg114
V[ +highTone +sonorant ]
p2308
sbasg118
I00
sg114
V[ +highTone +sonorant ] [  ]
p2309
sg120
I00
sg121
S'L'
sbsg122
(irule
FeatureMatrix
p2310
(dp2311
g112
(lp2312
(I01
g572
tp2313
asg114
V[ +highTone ]
p2314
sbsg128
(irule
Guard
p2315
(dp2316
g107
I00
sg108
(lp2317
(irule
FeatureMatrix
p2318
(dp2319
g112
(lp2320
sg114
V[  ]
p2321
sbasg118
I00
sg114
g2321
sg120
I00
sg121
S'R'
sbsg132
(irule
FeatureMatrix
p2322
(dp2323
g112
(lp2324
sg114
V[  ]
p2325
sbsg114
V[  ] ---> [ +highTone ] / [ +highTone +sonorant ] [  ] _ [  ]
p2326
sba(irule
Rule
p2327
(dp2328
g104
(irule
Guard
p2329
(dp2330
g107
I00
sg108
(lp2331
(irule
FeatureMatrix
p2332
(dp2333
g112
(lp2334
sg114
V[  ]
p2335
sba(irule
FeatureMatrix
p2336
(dp2337
g112
(lp2338
(I01
g1396
tp2339
a(I01
g572
tp2340
asg114
V[ +continuant +highTone ]
p2341
sbasg118
I00
sg114
V[ +continuant +highTone ] [  ]
p2342
sg120
I00
sg121
S'L'
sbsg122
(irule
FeatureMatrix
p2343
(dp2344
g112
(lp2345
(I01
g572
tp2346
asg114
V[ +highTone ]
p2347
sbsg128
(irule
Guard
p2348
(dp2349
g107
I00
sg108
(lp2350
(irule
FeatureMatrix
p2351
(dp2352
g112
(lp2353
sg114
V[  ]
p2354
sbasg118
I00
sg114
g2354
sg120
I00
sg121
S'R'
sbsg132
(irule
FeatureMatrix
p2355
(dp2356
g112
(lp2357
sg114
V[  ]
p2358
sbsg114
V[  ] ---> [ +highTone ] / [ +continuant +highTone ] [  ] _ [  ]
p2359
sba(irule
Rule
p2360
(dp2361
g104
(irule
Guard
p2362
(dp2363
g107
I00
sg108
(lp2364
(irule
FeatureMatrix
p2365
(dp2366
g112
(lp2367
sg114
V[  ]
p2368
sba(irule
FeatureMatrix
p2369
(dp2370
g112
(lp2371
(I01
g572
tp2372
asg114
V[ +highTone ]
p2373
sbasg118
I00
sg114
V[ +highTone ] [  ]
p2374
sg120
I00
sg121
S'L'
sbsg122
(irule
FeatureMatrix
p2375
(dp2376
g112
(lp2377
(I01
g572
tp2378
asg114
V[ +highTone ]
p2379
sbsg128
(irule
Guard
p2380
(dp2381
g107
I00
sg108
(lp2382
(irule
FeatureMatrix
p2383
(dp2384
g112
(lp2385
sg114
V[  ]
p2386
sbasg118
I00
sg114
g2386
sg120
I00
sg121
S'R'
sbsg132
(irule
FeatureMatrix
p2387
(dp2388
g112
(lp2389
(I00
g1584
tp2390
asg114
V[ -coronal ]
p2391
sbsg114
V[ -coronal ] ---> [ +highTone ] / [ +highTone ] [  ] _ [  ]
p2392
sba(irule
Rule
p2393
(dp2394
g104
(irule
Guard
p2395
(dp2396
g107
I00
sg108
(lp2397
(irule
FeatureMatrix
p2398
(dp2399
g112
(lp2400
sg114
V[  ]
p2401
sba(irule
FeatureMatrix
p2402
(dp2403
g112
(lp2404
(I01
g572
tp2405
asg114
V[ +highTone ]
p2406
sbasg118
I00
sg114
V[ +highTone ] [  ]
p2407
sg120
I00
sg121
S'L'
sbsg122
(irule
FeatureMatrix
p2408
(dp2409
g112
(lp2410
(I01
g572
tp2411
a(I01
g1259
tp2412
asg114
V[ +highTone +tense ]
p2413
sbsg128
(irule
Guard
p2414
(dp2415
g107
I00
sg108
(lp2416
(irule
FeatureMatrix
p2417
(dp2418
g112
(lp2419
sg114
V[  ]
p2420
sbasg118
I00
sg114
g2420
sg120
I00
sg121
S'R'
sbsg132
(irule
FeatureMatrix
p2421
(dp2422
g112
(lp2423
sg114
V[  ]
p2424
sbsg114
V[  ] ---> [ +highTone +tense ] / [ +highTone ] [  ] _ [  ]
p2425
sba(irule
Rule
p2426
(dp2427
g104
(irule
Guard
p2428
(dp2429
g107
I00
sg108
(lp2430
(irule
FeatureMatrix
p2431
(dp2432
g112
(lp2433
sg114
V[  ]
p2434
sba(irule
FeatureMatrix
p2435
(dp2436
g112
(lp2437
(I01
g572
tp2438
asg114
V[ +highTone ]
p2439
sbasg118
I00
sg114
V[ +highTone ] [  ]
p2440
sg120
I00
sg121
S'L'
sbsg122
(irule
FeatureMatrix
p2441
(dp2442
g112
(lp2443
(I01
g572
tp2444
asg114
V[ +highTone ]
p2445
sbsg128
(irule
Guard
p2446
(dp2447
g107
I00
sg108
(lp2448
(irule
FeatureMatrix
p2449
(dp2450
g112
(lp2451
sg114
V[  ]
p2452
sbasg118
I00
sg114
g2452
sg120
I00
sg121
S'R'
sbsg132
(irule
FeatureMatrix
p2453
(dp2454
g112
(lp2455
(I01
g2246
tp2456
asg114
V[ +sonorant ]
p2457
sbsg114
V[ +sonorant ] ---> [ +highTone ] / [ +highTone ] [  ] _ [  ]
p2458
sba(irule
Rule
p2459
(dp2460
g104
(irule
Guard
p2461
(dp2462
g107
I00
sg108
(lp2463
(irule
FeatureMatrix
p2464
(dp2465
g112
(lp2466
sg114
V[  ]
p2467
sba(irule
FeatureMatrix
p2468
(dp2469
g112
(lp2470
(I01
g572
tp2471
asg114
V[ +highTone ]
p2472
sbasg118
I00
sg114
V[ +highTone ] [  ]
p2473
sg120
I00
sg121
S'L'
sbsg122
(irule
FeatureMatrix
p2474
(dp2475
g112
(lp2476
(I01
g572
tp2477
asg114
V[ +highTone ]
p2478
sbsg128
(irule
Guard
p2479
(dp2480
g107
I00
sg108
(lp2481
(irule
FeatureMatrix
p2482
(dp2483
g112
(lp2484
(I00
g923
tp2485
asg114
V[ -low ]
p2486
sbasg118
I00
sg114
g2486
sg120
I00
sg121
S'R'
sbsg132
(irule
FeatureMatrix
p2487
(dp2488
g112
(lp2489
(I00
g572
tp2490
asg114
V[ -highTone ]
p2491
sbsg114
V[ -highTone ] ---> [ +highTone ] / [ +highTone ] [  ] _ [ -low ]
p2492
sba(irule
Rule
p2493
(dp2494
g104
(irule
Guard
p2495
(dp2496
g107
I00
sg108
(lp2497
(irule
FeatureMatrix
p2498
(dp2499
g112
(lp2500
(I01
g712
tp2501
asg114
V[ +anterior ]
p2502
sba(irule
FeatureMatrix
p2503
(dp2504
g112
(lp2505
(I01
g572
tp2506
asg114
V[ +highTone ]
p2507
sbasg118
I00
sg114
V[ +highTone ] [ +anterior ]
p2508
sg120
I00
sg121
S'L'
sbsg122
(irule
FeatureMatrix
p2509
(dp2510
g112
(lp2511
(I01
g572
tp2512
asg114
V[ +highTone ]
p2513
sbsg128
(irule
Guard
p2514
(dp2515
g107
I00
sg108
(lp2516
(irule
FeatureMatrix
p2517
(dp2518
g112
(lp2519
sg114
V[  ]
p2520
sbasg118
I00
sg114
g2520
sg120
I00
sg121
S'R'
sbsg132
(irule
FeatureMatrix
p2521
(dp2522
g112
(lp2523
(I01
g1396
tp2524
asg114
V[ +continuant ]
p2525
sbsg114
V[ +continuant ] ---> [ +highTone ] / [ +highTone ] [ +anterior ] _ [  ]
p2526
sba(irule
Rule
p2527
(dp2528
g104
(irule
Guard
p2529
(dp2530
g107
I00
sg108
(lp2531
(irule
FeatureMatrix
p2532
(dp2533
g112
(lp2534
sg114
V[  ]
p2535
sba(irule
FeatureMatrix
p2536
(dp2537
g112
(lp2538
(I01
g572
tp2539
asg114
V[ +highTone ]
p2540
sbasg118
I00
sg114
V[ +highTone ] [  ]
p2541
sg120
I00
sg121
S'L'
sbsg122
(irule
FeatureMatrix
p2542
(dp2543
g112
(lp2544
(I01
g572
tp2545
asg114
V[ +highTone ]
p2546
sbsg128
(irule
Guard
p2547
(dp2548
g107
I00
sg108
(lp2549
(irule
FeatureMatrix
p2550
(dp2551
g112
(lp2552
(I00
g736
tp2553
a(I00
g572
tp2554
asg114
V[ -highTone -rounded ]
p2555
sbasg118
I00
sg114
g2555
sg120
I00
sg121
S'R'
sbsg132
(irule
FeatureMatrix
p2556
(dp2557
g112
(lp2558
sg114
V[  ]
p2559
sbsg114
V[  ] ---> [ +highTone ] / [ +highTone ] [  ] _ [ -highTone -rounded ]
p2560
sba(irule
Rule
p2561
(dp2562
g104
(irule
Guard
p2563
(dp2564
g107
I00
sg108
(lp2565
(irule
FeatureMatrix
p2566
(dp2567
g112
(lp2568
(I00
g1056
tp2569
asg114
V[ -back ]
p2570
sba(irule
FeatureMatrix
p2571
(dp2572
g112
(lp2573
(I01
g572
tp2574
asg114
V[ +highTone ]
p2575
sbasg118
I00
sg114
V[ +highTone ] [ -back ]
p2576
sg120
I00
sg121
S'L'
sbsg122
(irule
FeatureMatrix
p2577
(dp2578
g112
(lp2579
(I01
g572
tp2580
asg114
V[ +highTone ]
p2581
sbsg128
(irule
Guard
p2582
(dp2583
g107
I00
sg108
(lp2584
(irule
FeatureMatrix
p2585
(dp2586
g112
(lp2587
sg114
V[  ]
p2588
sbasg118
I00
sg114
g2588
sg120
I00
sg121
S'R'
sbsg132
(irule
FeatureMatrix
p2589
(dp2590
g112
(lp2591
(I01
g679
tp2592
asg114
V[ +vowel ]
p2593
sbsg114
V[ +vowel ] ---> [ +highTone ] / [ +highTone ] [ -back ] _ [  ]
p2594
sba(irule
Rule
p2595
(dp2596
g104
(irule
Guard
p2597
(dp2598
g107
I00
sg108
(lp2599
(irule
FeatureMatrix
p2600
(dp2601
g112
(lp2602
sg114
V[  ]
p2603
sba(irule
FeatureMatrix
p2604
(dp2605
g112
(lp2606
(I01
g572
tp2607
asg114
V[ +highTone ]
p2608
sbasg118
I00
sg114
V[ +highTone ] [  ]
p2609
sg120
I00
sg121
S'L'
sbsg122
(irule
FeatureMatrix
p2610
(dp2611
g112
(lp2612
(I01
g572
tp2613
asg114
V[ +highTone ]
p2614
sbsg128
(irule
Guard
p2615
(dp2616
g107
I00
sg108
(lp2617
(irule
FeatureMatrix
p2618
(dp2619
g112
(lp2620
(I00
g804
tp2621
asg114
V[ -lateral ]
p2622
sbasg118
I00
sg114
g2622
sg120
I00
sg121
S'R'
sbsg132
(irule
FeatureMatrix
p2623
(dp2624
g112
(lp2625
(I00
g792
tp2626
asg114
V[ -sibilant ]
p2627
sbsg114
V[ -sibilant ] ---> [ +highTone ] / [ +highTone ] [  ] _ [ -lateral ]
p2628
sba(irule
Rule
p2629
(dp2630
g104
(irule
Guard
p2631
(dp2632
g107
I00
sg108
(lp2633
(irule
FeatureMatrix
p2634
(dp2635
g112
(lp2636
(I00
g838
tp2637
asg114
V[ -high ]
p2638
sba(irule
FeatureMatrix
p2639
(dp2640
g112
(lp2641
(I01
g572
tp2642
asg114
V[ +highTone ]
p2643
sbasg118
I00
sg114
V[ +highTone ] [ -high ]
p2644
sg120
I00
sg121
S'L'
sbsg122
(irule
FeatureMatrix
p2645
(dp2646
g112
(lp2647
(I01
g572
tp2648
asg114
V[ +highTone ]
p2649
sbsg128
(irule
Guard
p2650
(dp2651
g107
I00
sg108
(lp2652
(irule
FeatureMatrix
p2653
(dp2654
g112
(lp2655
sg114
V[  ]
p2656
sbasg118
I00
sg114
g2656
sg120
I00
sg121
S'R'
sbsg132
(irule
FeatureMatrix
p2657
(dp2658
g112
(lp2659
(I01
g1396
tp2660
asg114
V[ +continuant ]
p2661
sbsg114
V[ +continuant ] ---> [ +highTone ] / [ +highTone ] [ -high ] _ [  ]
p2662
sba(irule
Rule
p2663
(dp2664
g104
(irule
Guard
p2665
(dp2666
g107
I00
sg108
(lp2667
(irule
FeatureMatrix
p2668
(dp2669
g112
(lp2670
(I00
g1056
tp2671
asg114
V[ -back ]
p2672
sba(irule
FeatureMatrix
p2673
(dp2674
g112
(lp2675
(I01
g572
tp2676
asg114
V[ +highTone ]
p2677
sbasg118
I00
sg114
V[ +highTone ] [ -back ]
p2678
sg120
I00
sg121
S'L'
sbsg122
(irule
FeatureMatrix
p2679
(dp2680
g112
(lp2681
(I01
g572
tp2682
asg114
V[ +highTone ]
p2683
sbsg128
(irule
Guard
p2684
(dp2685
g107
I00
sg108
(lp2686
(irule
FeatureMatrix
p2687
(dp2688
g112
(lp2689
sg114
V[  ]
p2690
sbasg118
I00
sg114
g2690
sg120
I00
sg121
S'R'
sbsg132
(irule
FeatureMatrix
p2691
(dp2692
g112
(lp2693
(I00
g712
tp2694
asg114
V[ -anterior ]
p2695
sbsg114
V[ -anterior ] ---> [ +highTone ] / [ +highTone ] [ -back ] _ [  ]
p2696
sba(irule
Rule
p2697
(dp2698
g104
(irule
Guard
p2699
(dp2700
g107
I00
sg108
(lp2701
(irule
FeatureMatrix
p2702
(dp2703
g112
(lp2704
(I00
g736
tp2705
a(I00
g1056
tp2706
asg114
V[ -back -rounded ]
p2707
sba(irule
FeatureMatrix
p2708
(dp2709
g112
(lp2710
(I01
g572
tp2711
asg114
V[ +highTone ]
p2712
sbasg118
I00
sg114
V[ +highTone ] [ -back -rounded ]
p2713
sg120
I00
sg121
S'L'
sbsg122
(irule
FeatureMatrix
p2714
(dp2715
g112
(lp2716
(I01
g572
tp2717
asg114
V[ +highTone ]
p2718
sbsg128
(irule
Guard
p2719
(dp2720
g107
I00
sg108
(lp2721
(irule
FeatureMatrix
p2722
(dp2723
g112
(lp2724
sg114
V[  ]
p2725
sbasg118
I00
sg114
g2725
sg120
I00
sg121
S'R'
sbsg132
(irule
FeatureMatrix
p2726
(dp2727
g112
(lp2728
sg114
V[  ]
p2729
sbsg114
V[  ] ---> [ +highTone ] / [ +highTone ] [ -back -rounded ] _ [  ]
p2730
sba(irule
Rule
p2731
(dp2732
g104
(irule
Guard
p2733
(dp2734
g107
I00
sg108
(lp2735
(irule
FeatureMatrix
p2736
(dp2737
g112
(lp2738
sg114
V[  ]
p2739
sba(irule
FeatureMatrix
p2740
(dp2741
g112
(lp2742
(I01
g572
tp2743
asg114
V[ +highTone ]
p2744
sbasg118
I00
sg114
V[ +highTone ] [  ]
p2745
sg120
I00
sg121
S'L'
sbsg122
(irule
FeatureMatrix
p2746
(dp2747
g112
(lp2748
(I01
g572
tp2749
asg114
V[ +highTone ]
p2750
sbsg128
(irule
Guard
p2751
(dp2752
g107
I00
sg108
(lp2753
(irule
FeatureMatrix
p2754
(dp2755
g112
(lp2756
(I00
g804
tp2757
a(I00
g838
tp2758
asg114
V[ -high -lateral ]
p2759
sbasg118
I00
sg114
g2759
sg120
I00
sg121
S'R'
sbsg132
(irule
FeatureMatrix
p2760
(dp2761
g112
(lp2762
sg114
V[  ]
p2763
sbsg114
V[  ] ---> [ +highTone ] / [ +highTone ] [  ] _ [ -high -lateral ]
p2764
sba(irule
Rule
p2765
(dp2766
g104
(irule
Guard
p2767
(dp2768
g107
I00
sg108
(lp2769
(irule
FeatureMatrix
p2770
(dp2771
g112
(lp2772
sg114
V[  ]
p2773
sba(irule
FeatureMatrix
p2774
(dp2775
g112
(lp2776
(I01
g572
tp2777
asg114
V[ +highTone ]
p2778
sbasg118
I00
sg114
V[ +highTone ] [  ]
p2779
sg120
I00
sg121
S'L'
sbsg122
(irule
FeatureMatrix
p2780
(dp2781
g112
(lp2782
(I01
g572
tp2783
asg114
V[ +highTone ]
p2784
sbsg128
(irule
Guard
p2785
(dp2786
g107
I00
sg108
(lp2787
(irule
FeatureMatrix
p2788
(dp2789
g112
(lp2790
(I00
g804
tp2791
a(I00
g1056
tp2792
asg114
V[ -back -lateral ]
p2793
sbasg118
I00
sg114
g2793
sg120
I00
sg121
S'R'
sbsg132
(irule
FeatureMatrix
p2794
(dp2795
g112
(lp2796
sg114
V[  ]
p2797
sbsg114
V[  ] ---> [ +highTone ] / [ +highTone ] [  ] _ [ -back -lateral ]
p2798
sba(irule
Rule
p2799
(dp2800
g104
(irule
Guard
p2801
(dp2802
g107
I00
sg108
(lp2803
(irule
FeatureMatrix
p2804
(dp2805
g112
(lp2806
(I01
g712
tp2807
asg114
V[ +anterior ]
p2808
sba(irule
FeatureMatrix
p2809
(dp2810
g112
(lp2811
(I01
g572
tp2812
asg114
V[ +highTone ]
p2813
sbasg118
I00
sg114
V[ +highTone ] [ +anterior ]
p2814
sg120
I00
sg121
S'L'
sbsg122
(irule
FeatureMatrix
p2815
(dp2816
g112
(lp2817
(I00
g712
tp2818
a(I01
g572
tp2819
asg114
V[ +highTone -anterior ]
p2820
sbsg128
(irule
Guard
p2821
(dp2822
g107
I00
sg108
(lp2823
(irule
FeatureMatrix
p2824
(dp2825
g112
(lp2826
sg114
V[  ]
p2827
sbasg118
I00
sg114
g2827
sg120
I00
sg121
S'R'
sbsg132
(irule
FeatureMatrix
p2828
(dp2829
g112
(lp2830
sg114
V[  ]
p2831
sbsg114
V[  ] ---> [ +highTone -anterior ] / [ +highTone ] [ +anterior ] _ [  ]
p2832
sba(irule
Rule
p2833
(dp2834
g104
(irule
Guard
p2835
(dp2836
g107
I00
sg108
(lp2837
(irule
FeatureMatrix
p2838
(dp2839
g112
(lp2840
sg114
V[  ]
p2841
sba(irule
FeatureMatrix
p2842
(dp2843
g112
(lp2844
(I01
g572
tp2845
asg114
V[ +highTone ]
p2846
sbasg118
I00
sg114
V[ +highTone ] [  ]
p2847
sg120
I00
sg121
S'L'
sbsg122
(irule
FeatureMatrix
p2848
(dp2849
g112
(lp2850
(I01
g572
tp2851
asg114
V[ +highTone ]
p2852
sbsg128
(irule
Guard
p2853
(dp2854
g107
I00
sg108
(lp2855
(irule
FeatureMatrix
p2856
(dp2857
g112
(lp2858
(I00
g804
tp2859
a(I00
g923
tp2860
asg114
V[ -lateral -low ]
p2861
sbasg118
I00
sg114
g2861
sg120
I00
sg121
S'R'
sbsg132
(irule
FeatureMatrix
p2862
(dp2863
g112
(lp2864
sg114
V[  ]
p2865
sbsg114
V[  ] ---> [ +highTone ] / [ +highTone ] [  ] _ [ -lateral -low ]
p2866
sba(irule
Rule
p2867
(dp2868
g104
(irule
Guard
p2869
(dp2870
g107
I00
sg108
(lp2871
(irule
FeatureMatrix
p2872
(dp2873
g112
(lp2874
(I00
g838
tp2875
asg114
V[ -high ]
p2876
sba(irule
FeatureMatrix
p2877
(dp2878
g112
(lp2879
(I01
g572
tp2880
asg114
V[ +highTone ]
p2881
sbasg118
I00
sg114
V[ +highTone ] [ -high ]
p2882
sg120
I00
sg121
S'L'
sbsg122
(irule
FeatureMatrix
p2883
(dp2884
g112
(lp2885
(I01
g572
tp2886
asg114
V[ +highTone ]
p2887
sbsg128
(irule
Guard
p2888
(dp2889
g107
I00
sg108
(lp2890
(irule
FeatureMatrix
p2891
(dp2892
g112
(lp2893
sg114
V[  ]
p2894
sbasg118
I00
sg114
g2894
sg120
I00
sg121
S'R'
sbsg132
(irule
FeatureMatrix
p2895
(dp2896
g112
(lp2897
(I00
g712
tp2898
asg114
V[ -anterior ]
p2899
sbsg114
V[ -anterior ] ---> [ +highTone ] / [ +highTone ] [ -high ] _ [  ]
p2900
sba(irule
Rule
p2901
(dp2902
g104
(irule
Guard
p2903
(dp2904
g107
I00
sg108
(lp2905
(irule
FeatureMatrix
p2906
(dp2907
g112
(lp2908
(I00
g838
tp2909
asg114
V[ -high ]
p2910
sba(irule
FeatureMatrix
p2911
(dp2912
g112
(lp2913
(I01
g572
tp2914
asg114
V[ +highTone ]
p2915
sbasg118
I00
sg114
V[ +highTone ] [ -high ]
p2916
sg120
I00
sg121
S'L'
sbsg122
(irule
FeatureMatrix
p2917
(dp2918
g112
(lp2919
(I01
g572
tp2920
asg114
V[ +highTone ]
p2921
sbsg128
(irule
Guard
p2922
(dp2923
g107
I00
sg108
(lp2924
(irule
FeatureMatrix
p2925
(dp2926
g112
(lp2927
sg114
V[  ]
p2928
sbasg118
I00
sg114
g2928
sg120
I00
sg121
S'R'
sbsg132
(irule
FeatureMatrix
p2929
(dp2930
g112
(lp2931
(I01
g679
tp2932
asg114
V[ +vowel ]
p2933
sbsg114
V[ +vowel ] ---> [ +highTone ] / [ +highTone ] [ -high ] _ [  ]
p2934
sba(irule
Rule
p2935
(dp2936
g104
(irule
Guard
p2937
(dp2938
g107
I00
sg108
(lp2939
(irule
FeatureMatrix
p2940
(dp2941
g112
(lp2942
sg114
V[  ]
p2943
sba(irule
FeatureMatrix
p2944
(dp2945
g112
(lp2946
(I01
g572
tp2947
asg114
V[ +highTone ]
p2948
sbasg118
I00
sg114
V[ +highTone ] [  ]
p2949
sg120
I00
sg121
S'L'
sbsg122
(irule
FeatureMatrix
p2950
(dp2951
g112
(lp2952
(I01
g572
tp2953
asg114
V[ +highTone ]
p2954
sbsg128
(irule
Guard
p2955
(dp2956
g107
I00
sg108
(lp2957
(irule
FeatureMatrix
p2958
(dp2959
g112
(lp2960
(I00
g1056
tp2961
asg114
V[ -back ]
p2962
sbasg118
I00
sg114
g2962
sg120
I00
sg121
S'R'
sbsg132
(irule
FeatureMatrix
p2963
(dp2964
g112
(lp2965
(I00
g572
tp2966
asg114
V[ -highTone ]
p2967
sbsg114
V[ -highTone ] ---> [ +highTone ] / [ +highTone ] [  ] _ [ -back ]
p2968
sba(irule
Rule
p2969
(dp2970
g104
(irule
Guard
p2971
(dp2972
g107
I00
sg108
(lp2973
(irule
FeatureMatrix
p2974
(dp2975
g112
(lp2976
(I01
g712
tp2977
asg114
V[ +anterior ]
p2978
sba(irule
FeatureMatrix
p2979
(dp2980
g112
(lp2981
(I01
g572
tp2982
asg114
V[ +highTone ]
p2983
sbasg118
I00
sg114
V[ +highTone ] [ +anterior ]
p2984
sg120
I00
sg121
S'L'
sbsg122
(irule
FeatureMatrix
p2985
(dp2986
g112
(lp2987
(I00
g1941
tp2988
a(I01
g572
tp2989
asg114
V[ +highTone -nasal ]
p2990
sbsg128
(irule
Guard
p2991
(dp2992
g107
I00
sg108
(lp2993
(irule
FeatureMatrix
p2994
(dp2995
g112
(lp2996
sg114
V[  ]
p2997
sbasg118
I00
sg114
g2997
sg120
I00
sg121
S'R'
sbsg132
(irule
FeatureMatrix
p2998
(dp2999
g112
(lp3000
sg114
V[  ]
p3001
sbsg114
V[  ] ---> [ +highTone -nasal ] / [ +highTone ] [ +anterior ] _ [  ]
p3002
sba(irule
Rule
p3003
(dp3004
g104
(irule
Guard
p3005
(dp3006
g107
I00
sg108
(lp3007
(irule
FeatureMatrix
p3008
(dp3009
g112
(lp3010
sg114
V[  ]
p3011
sba(irule
FeatureMatrix
p3012
(dp3013
g112
(lp3014
(I01
g572
tp3015
asg114
V[ +highTone ]
p3016
sbasg118
I00
sg114
V[ +highTone ] [  ]
p3017
sg120
I00
sg121
S'L'
sbsg122
(irule
FeatureMatrix
p3018
(dp3019
g112
(lp3020
(I00
g712
tp3021
a(I01
g572
tp3022
asg114
V[ +highTone -anterior ]
p3023
sbsg128
(irule
Guard
p3024
(dp3025
g107
I00
sg108
(lp3026
(irule
FeatureMatrix
p3027
(dp3028
g112
(lp3029
(I00
g923
tp3030
asg114
V[ -low ]
p3031
sbasg118
I00
sg114
g3031
sg120
I00
sg121
S'R'
sbsg132
(irule
FeatureMatrix
p3032
(dp3033
g112
(lp3034
sg114
V[  ]
p3035
sbsg114
V[  ] ---> [ +highTone -anterior ] / [ +highTone ] [  ] _ [ -low ]
p3036
sba(irule
Rule
p3037
(dp3038
g104
(irule
Guard
p3039
(dp3040
g107
I00
sg108
(lp3041
(irule
FeatureMatrix
p3042
(dp3043
g112
(lp3044
sg114
V[  ]
p3045
sba(irule
FeatureMatrix
p3046
(dp3047
g112
(lp3048
(I01
g572
tp3049
asg114
V[ +highTone ]
p3050
sbasg118
I00
sg114
V[ +highTone ] [  ]
p3051
sg120
I00
sg121
S'L'
sbsg122
(irule
FeatureMatrix
p3052
(dp3053
g112
(lp3054
(I01
g572
tp3055
asg114
V[ +highTone ]
p3056
sbsg128
(irule
Guard
p3057
(dp3058
g107
I00
sg108
(lp3059
(irule
FeatureMatrix
p3060
(dp3061
g112
(lp3062
sg114
V[  ]
p3063
sbasg118
I00
sg114
g3063
sg120
I00
sg121
S'R'
sbsg132
(irule
FeatureMatrix
p3064
(dp3065
g112
(lp3066
(I00
g712
tp3067
a(I01
g679
tp3068
asg114
V[ +vowel -anterior ]
p3069
sbsg114
V[ +vowel -anterior ] ---> [ +highTone ] / [ +highTone ] [  ] _ [  ]
p3070
sba(irule
Rule
p3071
(dp3072
g104
(irule
Guard
p3073
(dp3074
g107
I00
sg108
(lp3075
(irule
FeatureMatrix
p3076
(dp3077
g112
(lp3078
sg114
V[  ]
p3079
sba(irule
FeatureMatrix
p3080
(dp3081
g112
(lp3082
(I01
g572
tp3083
asg114
V[ +highTone ]
p3084
sbasg118
I00
sg114
V[ +highTone ] [  ]
p3085
sg120
I00
sg121
S'L'
sbsg122
(irule
FeatureMatrix
p3086
(dp3087
g112
(lp3088
(I01
g572
tp3089
asg114
V[ +highTone ]
p3090
sbsg128
(irule
Guard
p3091
(dp3092
g107
I00
sg108
(lp3093
(irule
FeatureMatrix
p3094
(dp3095
g112
(lp3096
(I00
g572
tp3097
a(I00
g1056
tp3098
asg114
V[ -back -highTone ]
p3099
sbasg118
I00
sg114
g3099
sg120
I00
sg121
S'R'
sbsg132
(irule
FeatureMatrix
p3100
(dp3101
g112
(lp3102
sg114
V[  ]
p3103
sbsg114
V[  ] ---> [ +highTone ] / [ +highTone ] [  ] _ [ -back -highTone ]
p3104
sba(irule
Rule
p3105
(dp3106
g104
(irule
Guard
p3107
(dp3108
g107
I00
sg108
(lp3109
(irule
FeatureMatrix
p3110
(dp3111
g112
(lp3112
sg114
V[  ]
p3113
sba(irule
FeatureMatrix
p3114
(dp3115
g112
(lp3116
(I01
g572
tp3117
asg114
V[ +highTone ]
p3118
sbasg118
I00
sg114
V[ +highTone ] [  ]
p3119
sg120
I00
sg121
S'L'
sbsg122
(irule
FeatureMatrix
p3120
(dp3121
g112
(lp3122
(I01
g572
tp3123
asg114
V[ +highTone ]
p3124
sbsg128
(irule
Guard
p3125
(dp3126
g107
I00
sg108
(lp3127
(irule
FeatureMatrix
p3128
(dp3129
g112
(lp3130
(I00
g572
tp3131
a(I00
g838
tp3132
asg114
V[ -high -highTone ]
p3133
sbasg118
I00
sg114
g3133
sg120
I00
sg121
S'R'
sbsg132
(irule
FeatureMatrix
p3134
(dp3135
g112
(lp3136
sg114
V[  ]
p3137
sbsg114
V[  ] ---> [ +highTone ] / [ +highTone ] [  ] _ [ -high -highTone ]
p3138
sba(irule
Rule
p3139
(dp3140
g104
(irule
Guard
p3141
(dp3142
g107
I00
sg108
(lp3143
(irule
FeatureMatrix
p3144
(dp3145
g112
(lp3146
sg114
V[  ]
p3147
sba(irule
FeatureMatrix
p3148
(dp3149
g112
(lp3150
(I01
g572
tp3151
asg114
V[ +highTone ]
p3152
sbasg118
I00
sg114
V[ +highTone ] [  ]
p3153
sg120
I00
sg121
S'L'
sbsg122
(irule
FeatureMatrix
p3154
(dp3155
g112
(lp3156
(I01
g572
tp3157
a(I00
g792
tp3158
a(I01
g606
tp3159
asg114
V[ +highTone +voice -sibilant ]
p3160
sbsg128
(irule
Guard
p3161
(dp3162
g107
I00
sg108
(lp3163
(irule
FeatureMatrix
p3164
(dp3165
g112
(lp3166
sg114
V[  ]
p3167
sbasg118
I00
sg114
g3167
sg120
I00
sg121
S'R'
sbsg132
(irule
FeatureMatrix
p3168
(dp3169
g112
(lp3170
sg114
V[  ]
p3171
sbsg114
V[  ] ---> [ +highTone +voice -sibilant ] / [ +highTone ] [  ] _ [  ]
p3172
sba(irule
Rule
p3173
(dp3174
g104
(irule
Guard
p3175
(dp3176
g107
I00
sg108
(lp3177
(irule
FeatureMatrix
p3178
(dp3179
g112
(lp3180
(I01
g712
tp3181
asg114
V[ +anterior ]
p3182
sba(irule
FeatureMatrix
p3183
(dp3184
g112
(lp3185
(I01
g572
tp3186
asg114
V[ +highTone ]
p3187
sbasg118
I00
sg114
V[ +highTone ] [ +anterior ]
p3188
sg120
I00
sg121
S'L'
sbsg122
(irule
FeatureMatrix
p3189
(dp3190
g112
(lp3191
(I01
g572
tp3192
asg114
V[ +highTone ]
p3193
sbsg128
(irule
Guard
p3194
(dp3195
g107
I00
sg108
(lp3196
(irule
FeatureMatrix
p3197
(dp3198
g112
(lp3199
(I00
g804
tp3200
asg114
V[ -lateral ]
p3201
sbasg118
I00
sg114
g3201
sg120
I00
sg121
S'R'
sbsg132
(irule
FeatureMatrix
p3202
(dp3203
g112
(lp3204
sg114
V[  ]
p3205
sbsg114
V[  ] ---> [ +highTone ] / [ +highTone ] [ +anterior ] _ [ -lateral ]
p3206
sba(irule
Rule
p3207
(dp3208
g104
(irule
Guard
p3209
(dp3210
g107
I00
sg108
(lp3211
(irule
FeatureMatrix
p3212
(dp3213
g112
(lp3214
sg114
V[  ]
p3215
sba(irule
FeatureMatrix
p3216
(dp3217
g112
(lp3218
(I01
g572
tp3219
a(I01
g606
tp3220
asg114
V[ +highTone +voice ]
p3221
sbasg118
I00
sg114
V[ +highTone +voice ] [  ]
p3222
sg120
I00
sg121
S'L'
sbsg122
(irule
FeatureMatrix
p3223
(dp3224
g112
(lp3225
(I01
g572
tp3226
asg114
V[ +highTone ]
p3227
sbsg128
(irule
Guard
p3228
(dp3229
g107
I00
sg108
(lp3230
(irule
FeatureMatrix
p3231
(dp3232
g112
(lp3233
(I00
g804
tp3234
asg114
V[ -lateral ]
p3235
sbasg118
I00
sg114
g3235
sg120
I00
sg121
S'R'
sbsg132
(irule
FeatureMatrix
p3236
(dp3237
g112
(lp3238
sg114
V[  ]
p3239
sbsg114
V[  ] ---> [ +highTone ] / [ +highTone +voice ] [  ] _ [ -lateral ]
p3240
sba(irule
Rule
p3241
(dp3242
g104
(irule
Guard
p3243
(dp3244
g107
I00
sg108
(lp3245
(irule
FeatureMatrix
p3246
(dp3247
g112
(lp3248
sg114
V[  ]
p3249
sba(irule
FeatureMatrix
p3250
(dp3251
g112
(lp3252
(I01
g572
tp3253
a(I00
g792
tp3254
asg114
V[ +highTone -sibilant ]
p3255
sbasg118
I00
sg114
V[ +highTone -sibilant ] [  ]
p3256
sg120
I00
sg121
S'L'
sbsg122
(irule
FeatureMatrix
p3257
(dp3258
g112
(lp3259
(I01
g572
tp3260
asg114
V[ +highTone ]
p3261
sbsg128
(irule
Guard
p3262
(dp3263
g107
I00
sg108
(lp3264
(irule
FeatureMatrix
p3265
(dp3266
g112
(lp3267
(I00
g804
tp3268
asg114
V[ -lateral ]
p3269
sbasg118
I00
sg114
g3269
sg120
I00
sg121
S'R'
sbsg132
(irule
FeatureMatrix
p3270
(dp3271
g112
(lp3272
sg114
V[  ]
p3273
sbsg114
V[  ] ---> [ +highTone ] / [ +highTone -sibilant ] [  ] _ [ -lateral ]
p3274
sba(irule
Rule
p3275
(dp3276
g104
(irule
Guard
p3277
(dp3278
g107
I00
sg108
(lp3279
(irule
FeatureMatrix
p3280
(dp3281
g112
(lp3282
sg114
V[  ]
p3283
sba(irule
FeatureMatrix
p3284
(dp3285
g112
(lp3286
(I01
g572
tp3287
asg114
V[ +highTone ]
p3288
sbasg118
I00
sg114
V[ +highTone ] [  ]
p3289
sg120
I00
sg121
S'L'
sbsg122
(irule
FeatureMatrix
p3290
(dp3291
g112
(lp3292
(I00
g1941
tp3293
a(I00
g804
tp3294
a(I01
g572
tp3295
asg114
V[ +highTone -lateral -nasal ]
p3296
sbsg128
(irule
Guard
p3297
(dp3298
g107
I00
sg108
(lp3299
(irule
FeatureMatrix
p3300
(dp3301
g112
(lp3302
sg114
V[  ]
p3303
sbasg118
I00
sg114
g3303
sg120
I00
sg121
S'R'
sbsg132
(irule
FeatureMatrix
p3304
(dp3305
g112
(lp3306
sg114
V[  ]
p3307
sbsg114
V[  ] ---> [ +highTone -lateral -nasal ] / [ +highTone ] [  ] _ [  ]
p3308
sba(irule
Rule
p3309
(dp3310
g104
(irule
Guard
p3311
(dp3312
g107
I00
sg108
(lp3313
(irule
FeatureMatrix
p3314
(dp3315
g112
(lp3316
sg114
V[  ]
p3317
sba(irule
FeatureMatrix
p3318
(dp3319
g112
(lp3320
(I01
g572
tp3321
asg114
V[ +highTone ]
p3322
sbasg118
I00
sg114
V[ +highTone ] [  ]
p3323
sg120
I00
sg121
S'L'
sbsg122
(irule
FeatureMatrix
p3324
(dp3325
g112
(lp3326
(I00
g712
tp3327
a(I01
g572
tp3328
asg114
V[ +highTone -anterior ]
p3329
sbsg128
(irule
Guard
p3330
(dp3331
g107
I00
sg108
(lp3332
(irule
FeatureMatrix
p3333
(dp3334
g112
(lp3335
(I00
g1056
tp3336
asg114
V[ -back ]
p3337
sbasg118
I00
sg114
g3337
sg120
I00
sg121
S'R'
sbsg132
(irule
FeatureMatrix
p3338
(dp3339
g112
(lp3340
sg114
V[  ]
p3341
sbsg114
V[  ] ---> [ +highTone -anterior ] / [ +highTone ] [  ] _ [ -back ]
p3342
sba(irule
Rule
p3343
(dp3344
g104
(irule
Guard
p3345
(dp3346
g107
I00
sg108
(lp3347
(irule
FeatureMatrix
p3348
(dp3349
g112
(lp3350
sg114
V[  ]
p3351
sba(irule
FeatureMatrix
p3352
(dp3353
g112
(lp3354
(I01
g572
tp3355
asg114
V[ +highTone ]
p3356
sbasg118
I00
sg114
V[ +highTone ] [  ]
p3357
sg120
I00
sg121
S'L'
sbsg122
(irule
FeatureMatrix
p3358
(dp3359
g112
(lp3360
(I01
g572
tp3361
asg114
V[ +highTone ]
p3362
sbsg128
(irule
Guard
p3363
(dp3364
g107
I00
sg108
(lp3365
(irule
FeatureMatrix
p3366
(dp3367
g112
(lp3368
(I00
g804
tp3369
a(I00
g679
tp3370
asg114
V[ -lateral -vowel ]
p3371
sbasg118
I00
sg114
g3371
sg120
I00
sg121
S'R'
sbsg132
(irule
FeatureMatrix
p3372
(dp3373
g112
(lp3374
sg114
V[  ]
p3375
sbsg114
V[  ] ---> [ +highTone ] / [ +highTone ] [  ] _ [ -lateral -vowel ]
p3376
sba(irule
Rule
p3377
(dp3378
g104
(irule
Guard
p3379
(dp3380
g107
I00
sg108
(lp3381
(irule
FeatureMatrix
p3382
(dp3383
g112
(lp3384
sg114
V[  ]
p3385
sba(irule
FeatureMatrix
p3386
(dp3387
g112
(lp3388
(I01
g572
tp3389
asg114
V[ +highTone ]
p3390
sbasg118
I00
sg114
V[ +highTone ] [  ]
p3391
sg120
I00
sg121
S'L'
sbsg122
(irule
FeatureMatrix
p3392
(dp3393
g112
(lp3394
(I00
g1941
tp3395
a(I01
g572
tp3396
asg114
V[ +highTone -nasal ]
p3397
sbsg128
(irule
Guard
p3398
(dp3399
g107
I00
sg108
(lp3400
(irule
FeatureMatrix
p3401
(dp3402
g112
(lp3403
(I00
g923
tp3404
asg114
V[ -low ]
p3405
sbasg118
I00
sg114
g3405
sg120
I00
sg121
S'R'
sbsg132
(irule
FeatureMatrix
p3406
(dp3407
g112
(lp3408
sg114
V[  ]
p3409
sbsg114
V[  ] ---> [ +highTone -nasal ] / [ +highTone ] [  ] _ [ -low ]
p3410
sba(irule
Rule
p3411
(dp3412
g104
(irule
Guard
p3413
(dp3414
g107
I00
sg108
(lp3415
(irule
FeatureMatrix
p3416
(dp3417
g112
(lp3418
(I00
g572
tp3419
asg114
V[ -highTone ]
p3420
sba(irule
FeatureMatrix
p3421
(dp3422
g112
(lp3423
(I01
g572
tp3424
asg114
V[ +highTone ]
p3425
sbasg118
I00
sg114
V[ +highTone ] [ -highTone ]
p3426
sg120
I00
sg121
S'L'
sbsg122
(irule
FeatureMatrix
p3427
(dp3428
g112
(lp3429
(I01
g572
tp3430
asg114
V[ +highTone ]
p3431
sbsg128
(irule
Guard
p3432
(dp3433
g107
I00
sg108
(lp3434
(irule
FeatureMatrix
p3435
(dp3436
g112
(lp3437
(I00
g923
tp3438
asg114
V[ -low ]
p3439
sbasg118
I00
sg114
g3439
sg120
I00
sg121
S'R'
sbsg132
(irule
FeatureMatrix
p3440
(dp3441
g112
(lp3442
sg114
V[  ]
p3443
sbsg114
V[  ] ---> [ +highTone ] / [ +highTone ] [ -highTone ] _ [ -low ]
p3444
sba(irule
Rule
p3445
(dp3446
g104
(irule
Guard
p3447
(dp3448
g107
I00
sg108
(lp3449
(irule
FeatureMatrix
p3450
(dp3451
g112
(lp3452
(I01
g712
tp3453
asg114
V[ +anterior ]
p3454
sba(irule
FeatureMatrix
p3455
(dp3456
g112
(lp3457
(I01
g572
tp3458
asg114
V[ +highTone ]
p3459
sbasg118
I00
sg114
V[ +highTone ] [ +anterior ]
p3460
sg120
I00
sg121
S'L'
sbsg122
(irule
FeatureMatrix
p3461
(dp3462
g112
(lp3463
(I01
g572
tp3464
asg114
V[ +highTone ]
p3465
sbsg128
(irule
Guard
p3466
(dp3467
g107
I00
sg108
(lp3468
(irule
FeatureMatrix
p3469
(dp3470
g112
(lp3471
(I00
g923
tp3472
asg114
V[ -low ]
p3473
sbasg118
I00
sg114
g3473
sg120
I00
sg121
S'R'
sbsg132
(irule
FeatureMatrix
p3474
(dp3475
g112
(lp3476
sg114
V[  ]
p3477
sbsg114
V[  ] ---> [ +highTone ] / [ +highTone ] [ +anterior ] _ [ -low ]
p3478
sba(irule
Rule
p3479
(dp3480
g104
(irule
Guard
p3481
(dp3482
g107
I00
sg108
(lp3483
(irule
FeatureMatrix
p3484
(dp3485
g112
(lp3486
sg114
V[  ]
p3487
sba(irule
FeatureMatrix
p3488
(dp3489
g112
(lp3490
(I01
g572
tp3491
asg114
V[ +highTone ]
p3492
sbasg118
I00
sg114
V[ +highTone ] [  ]
p3493
sg120
I00
sg121
S'L'
sbsg122
(irule
FeatureMatrix
p3494
(dp3495
g112
(lp3496
(I01
g572
tp3497
asg114
V[ +highTone ]
p3498
sbsg128
(irule
Guard
p3499
(dp3500
g107
I00
sg108
(lp3501
(irule
FeatureMatrix
p3502
(dp3503
g112
(lp3504
(I00
g736
tp3505
a(I00
g838
tp3506
asg114
V[ -high -rounded ]
p3507
sbasg118
I00
sg114
g3507
sg120
I00
sg121
S'R'
sbsg132
(irule
FeatureMatrix
p3508
(dp3509
g112
(lp3510
sg114
V[  ]
p3511
sbsg114
V[  ] ---> [ +highTone ] / [ +highTone ] [  ] _ [ -high -rounded ]
p3512
sba(irule
Rule
p3513
(dp3514
g104
(irule
Guard
p3515
(dp3516
g107
I00
sg108
(lp3517
(irule
FeatureMatrix
p3518
(dp3519
g112
(lp3520
(I00
g838
tp3521
asg114
V[ -high ]
p3522
sba(irule
FeatureMatrix
p3523
(dp3524
g112
(lp3525
(I01
g572
tp3526
asg114
V[ +highTone ]
p3527
sbasg118
I00
sg114
V[ +highTone ] [ -high ]
p3528
sg120
I00
sg121
S'L'
sbsg122
(irule
FeatureMatrix
p3529
(dp3530
g112
(lp3531
(I01
g572
tp3532
asg114
V[ +highTone ]
p3533
sbsg128
(irule
Guard
p3534
(dp3535
g107
I00
sg108
(lp3536
(irule
FeatureMatrix
p3537
(dp3538
g112
(lp3539
sg114
V[  ]
p3540
sbasg118
I00
sg114
g3540
sg120
I00
sg121
S'R'
sbsg132
(irule
FeatureMatrix
p3541
(dp3542
g112
(lp3543
(I00
g804
tp3544
asg114
V[ -lateral ]
p3545
sbsg114
V[ -lateral ] ---> [ +highTone ] / [ +highTone ] [ -high ] _ [  ]
p3546
sba(irule
Rule
p3547
(dp3548
g104
(irule
Guard
p3549
(dp3550
g107
I00
sg108
(lp3551
(irule
FeatureMatrix
p3552
(dp3553
g112
(lp3554
(I00
g566
tp3555
asg114
V[ -liquid ]
p3556
sba(irule
FeatureMatrix
p3557
(dp3558
g112
(lp3559
(I01
g572
tp3560
asg114
V[ +highTone ]
p3561
sbasg118
I00
sg114
V[ +highTone ] [ -liquid ]
p3562
sg120
I00
sg121
S'L'
sbsg122
(irule
FeatureMatrix
p3563
(dp3564
g112
(lp3565
(I01
g572
tp3566
asg114
V[ +highTone ]
p3567
sbsg128
(irule
Guard
p3568
(dp3569
g107
I00
sg108
(lp3570
(irule
FeatureMatrix
p3571
(dp3572
g112
(lp3573
(I00
g804
tp3574
asg114
V[ -lateral ]
p3575
sbasg118
I00
sg114
g3575
sg120
I00
sg121
S'R'
sbsg132
(irule
FeatureMatrix
p3576
(dp3577
g112
(lp3578
sg114
V[  ]
p3579
sbsg114
V[  ] ---> [ +highTone ] / [ +highTone ] [ -liquid ] _ [ -lateral ]
p3580
sba(irule
Rule
p3581
(dp3582
g104
(irule
Guard
p3583
(dp3584
g107
I00
sg108
(lp3585
(irule
FeatureMatrix
p3586
(dp3587
g112
(lp3588
sg114
V[  ]
p3589
sba(irule
FeatureMatrix
p3590
(dp3591
g112
(lp3592
(I01
g572
tp3593
asg114
V[ +highTone ]
p3594
sbasg118
I00
sg114
V[ +highTone ] [  ]
p3595
sg120
I00
sg121
S'L'
sbsg122
(irule
FeatureMatrix
p3596
(dp3597
g112
(lp3598
(I00
g1941
tp3599
a(I01
g572
tp3600
asg114
V[ +highTone -nasal ]
p3601
sbsg128
(irule
Guard
p3602
(dp3603
g107
I00
sg108
(lp3604
(irule
FeatureMatrix
p3605
(dp3606
g112
(lp3607
(I00
g679
tp3608
asg114
V[ -vowel ]
p3609
sbasg118
I00
sg114
g3609
sg120
I00
sg121
S'R'
sbsg132
(irule
FeatureMatrix
p3610
(dp3611
g112
(lp3612
sg114
V[  ]
p3613
sbsg114
V[  ] ---> [ +highTone -nasal ] / [ +highTone ] [  ] _ [ -vowel ]
p3614
sba(irule
Rule
p3615
(dp3616
g104
(irule
Guard
p3617
(dp3618
g107
I00
sg108
(lp3619
(irule
FeatureMatrix
p3620
(dp3621
g112
(lp3622
sg114
V[  ]
p3623
sba(irule
FeatureMatrix
p3624
(dp3625
g112
(lp3626
(I01
g572
tp3627
a(I00
g792
tp3628
asg114
V[ +highTone -sibilant ]
p3629
sbasg118
I00
sg114
V[ +highTone -sibilant ] [  ]
p3630
sg120
I00
sg121
S'L'
sbsg122
(irule
FeatureMatrix
p3631
(dp3632
g112
(lp3633
(I01
g572
tp3634
asg114
V[ +highTone ]
p3635
sbsg128
(irule
Guard
p3636
(dp3637
g107
I00
sg108
(lp3638
(irule
FeatureMatrix
p3639
(dp3640
g112
(lp3641
sg114
V[  ]
p3642
sbasg118
I00
sg114
g3642
sg120
I00
sg121
S'R'
sbsg132
(irule
FeatureMatrix
p3643
(dp3644
g112
(lp3645
(I00
g572
tp3646
asg114
V[ -highTone ]
p3647
sbsg114
V[ -highTone ] ---> [ +highTone ] / [ +highTone -sibilant ] [  ] _ [  ]
p3648
sba(irule
Rule
p3649
(dp3650
g104
(irule
Guard
p3651
(dp3652
g107
I00
sg108
(lp3653
(irule
FeatureMatrix
p3654
(dp3655
g112
(lp3656
sg114
V[  ]
p3657
sba(irule
FeatureMatrix
p3658
(dp3659
g112
(lp3660
(I01
g572
tp3661
asg114
V[ +highTone ]
p3662
sbasg118
I00
sg114
V[ +highTone ] [  ]
p3663
sg120
I00
sg121
S'L'
sbsg122
(irule
FeatureMatrix
p3664
(dp3665
g112
(lp3666
(I01
g572
tp3667
asg114
V[ +highTone ]
p3668
sbsg128
(irule
Guard
p3669
(dp3670
g107
I00
sg108
(lp3671
(irule
FeatureMatrix
p3672
(dp3673
g112
(lp3674
(I00
g736
tp3675
a(I00
g1056
tp3676
asg114
V[ -back -rounded ]
p3677
sbasg118
I00
sg114
g3677
sg120
I00
sg121
S'R'
sbsg132
(irule
FeatureMatrix
p3678
(dp3679
g112
(lp3680
sg114
V[  ]
p3681
sbsg114
V[  ] ---> [ +highTone ] / [ +highTone ] [  ] _ [ -back -rounded ]
p3682
sba(irule
Rule
p3683
(dp3684
g104
(irule
Guard
p3685
(dp3686
g107
I00
sg108
(lp3687
(irule
FeatureMatrix
p3688
(dp3689
g112
(lp3690
sg114
V[  ]
p3691
sba(irule
FeatureMatrix
p3692
(dp3693
g112
(lp3694
(I01
g572
tp3695
asg114
V[ +highTone ]
p3696
sbasg118
I00
sg114
V[ +highTone ] [  ]
p3697
sg120
I00
sg121
S'L'
sbsg122
(irule
FeatureMatrix
p3698
(dp3699
g112
(lp3700
(I01
g572
tp3701
asg114
V[ +highTone ]
p3702
sbsg128
(irule
Guard
p3703
(dp3704
g107
I00
sg108
(lp3705
(irule
FeatureMatrix
p3706
(dp3707
g112
(lp3708
(I00
g923
tp3709
asg114
V[ -low ]
p3710
sbasg118
I00
sg114
g3710
sg120
I00
sg121
S'R'
sbsg132
(irule
FeatureMatrix
p3711
(dp3712
g112
(lp3713
(I01
g1396
tp3714
asg114
V[ +continuant ]
p3715
sbsg114
V[ +continuant ] ---> [ +highTone ] / [ +highTone ] [  ] _ [ -low ]
p3716
sba(irule
Rule
p3717
(dp3718
g104
(irule
Guard
p3719
(dp3720
g107
I00
sg108
(lp3721
(irule
FeatureMatrix
p3722
(dp3723
g112
(lp3724
(I00
g804
tp3725
asg114
V[ -lateral ]
p3726
sba(irule
FeatureMatrix
p3727
(dp3728
g112
(lp3729
(I01
g572
tp3730
asg114
V[ +highTone ]
p3731
sbasg118
I00
sg114
V[ +highTone ] [ -lateral ]
p3732
sg120
I00
sg121
S'L'
sbsg122
(irule
FeatureMatrix
p3733
(dp3734
g112
(lp3735
(I01
g572
tp3736
asg114
V[ +highTone ]
p3737
sbsg128
(irule
Guard
p3738
(dp3739
g107
I00
sg108
(lp3740
(irule
FeatureMatrix
p3741
(dp3742
g112
(lp3743
(I01
g606
tp3744
asg114
V[ +voice ]
p3745
sbasg118
I00
sg114
g3745
sg120
I00
sg121
S'R'
sbsg132
(irule
FeatureMatrix
p3746
(dp3747
g112
(lp3748
sg114
V[  ]
p3749
sbsg114
V[  ] ---> [ +highTone ] / [ +highTone ] [ -lateral ] _ [ +voice ]
p3750
sba(irule
Rule
p3751
(dp3752
g104
(irule
Guard
p3753
(dp3754
g107
I00
sg108
(lp3755
(irule
FeatureMatrix
p3756
(dp3757
g112
(lp3758
sg114
V[  ]
p3759
sba(irule
FeatureMatrix
p3760
(dp3761
g112
(lp3762
(I01
g572
tp3763
a(I01
g679
tp3764
asg114
V[ +highTone +vowel ]
p3765
sbasg118
I00
sg114
V[ +highTone +vowel ] [  ]
p3766
sg120
I00
sg121
S'L'
sbsg122
(irule
FeatureMatrix
p3767
(dp3768
g112
(lp3769
(I01
g572
tp3770
asg114
V[ +highTone ]
p3771
sbsg128
(irule
Guard
p3772
(dp3773
g107
I00
sg108
(lp3774
(irule
FeatureMatrix
p3775
(dp3776
g112
(lp3777
(I00
g804
tp3778
asg114
V[ -lateral ]
p3779
sbasg118
I00
sg114
g3779
sg120
I00
sg121
S'R'
sbsg132
(irule
FeatureMatrix
p3780
(dp3781
g112
(lp3782
sg114
V[  ]
p3783
sbsg114
V[  ] ---> [ +highTone ] / [ +highTone +vowel ] [  ] _ [ -lateral ]
p3784
sba(irule
Rule
p3785
(dp3786
g104
(irule
Guard
p3787
(dp3788
g107
I00
sg108
(lp3789
(irule
FeatureMatrix
p3790
(dp3791
g112
(lp3792
(I01
g712
tp3793
asg114
V[ +anterior ]
p3794
sba(irule
FeatureMatrix
p3795
(dp3796
g112
(lp3797
(I01
g572
tp3798
a(I01
g606
tp3799
asg114
V[ +highTone +voice ]
p3800
sbasg118
I00
sg114
V[ +highTone +voice ] [ +anterior ]
p3801
sg120
I00
sg121
S'L'
sbsg122
(irule
FeatureMatrix
p3802
(dp3803
g112
(lp3804
(I01
g572
tp3805
asg114
V[ +highTone ]
p3806
sbsg128
(irule
Guard
p3807
(dp3808
g107
I00
sg108
(lp3809
(irule
FeatureMatrix
p3810
(dp3811
g112
(lp3812
sg114
V[  ]
p3813
sbasg118
I00
sg114
g3813
sg120
I00
sg121
S'R'
sbsg132
(irule
FeatureMatrix
p3814
(dp3815
g112
(lp3816
sg114
V[  ]
p3817
sbsg114
V[  ] ---> [ +highTone ] / [ +highTone +voice ] [ +anterior ] _ [  ]
p3818
sba(irule
Rule
p3819
(dp3820
g104
(irule
Guard
p3821
(dp3822
g107
I00
sg108
(lp3823
(irule
FeatureMatrix
p3824
(dp3825
g112
(lp3826
(I00
g736
tp3827
asg114
V[ -rounded ]
p3828
sba(irule
FeatureMatrix
p3829
(dp3830
g112
(lp3831
(I01
g572
tp3832
a(I01
g606
tp3833
asg114
V[ +highTone +voice ]
p3834
sbasg118
I00
sg114
V[ +highTone +voice ] [ -rounded ]
p3835
sg120
I00
sg121
S'L'
sbsg122
(irule
FeatureMatrix
p3836
(dp3837
g112
(lp3838
(I01
g572
tp3839
asg114
V[ +highTone ]
p3840
sbsg128
(irule
Guard
p3841
(dp3842
g107
I00
sg108
(lp3843
(irule
FeatureMatrix
p3844
(dp3845
g112
(lp3846
sg114
V[  ]
p3847
sbasg118
I00
sg114
g3847
sg120
I00
sg121
S'R'
sbsg132
(irule
FeatureMatrix
p3848
(dp3849
g112
(lp3850
sg114
V[  ]
p3851
sbsg114
V[  ] ---> [ +highTone ] / [ +highTone +voice ] [ -rounded ] _ [  ]
p3852
sba(irule
Rule
p3853
(dp3854
g104
(irule
Guard
p3855
(dp3856
g107
I00
sg108
(lp3857
(irule
FeatureMatrix
p3858
(dp3859
g112
(lp3860
sg114
V[  ]
p3861
sba(irule
FeatureMatrix
p3862
(dp3863
g112
(lp3864
(I01
g572
tp3865
asg114
V[ +highTone ]
p3866
sbasg118
I00
sg114
V[ +highTone ] [  ]
p3867
sg120
I00
sg121
S'L'
sbsg122
(irule
FeatureMatrix
p3868
(dp3869
g112
(lp3870
(I01
g572
tp3871
asg114
V[ +highTone ]
p3872
sbsg128
(irule
Guard
p3873
(dp3874
g107
I00
sg108
(lp3875
(irule
FeatureMatrix
p3876
(dp3877
g112
(lp3878
(I00
g736
tp3879
a(I00
g923
tp3880
asg114
V[ -low -rounded ]
p3881
sbasg118
I00
sg114
g3881
sg120
I00
sg121
S'R'
sbsg132
(irule
FeatureMatrix
p3882
(dp3883
g112
(lp3884
sg114
V[  ]
p3885
sbsg114
V[  ] ---> [ +highTone ] / [ +highTone ] [  ] _ [ -low -rounded ]
p3886
sbaa(lp3887
(irule
Rule
p3888
(dp3889
g104
(irule
Guard
p3890
(dp3891
g107
I00
sg108
(lp3892
sg118
I00
sg114
V
sg120
I00
sg121
S'L'
sbsg122
(irule
FeatureMatrix
p3893
(dp3894
g112
(lp3895
(I00
S'highTone'
p3896
tp3897
asg114
V[ -highTone ]
p3898
sbsg128
(irule
Guard
p3899
(dp3900
g107
I00
sg108
(lp3901
(irule
FeatureMatrix
p3902
(dp3903
g112
(lp3904
sg114
V[  ]
p3905
sba(irule
FeatureMatrix
p3906
(dp3907
g112
(lp3908
(I01
g3896
tp3909
asg114
V[ +highTone ]
p3910
sbasg118
I00
sg114
V[  ] [ +highTone ]
p3911
sg120
I00
sg121
S'R'
sbsg132
(irule
FeatureMatrix
p3912
(dp3913
g112
(lp3914
sg114
V[  ]
p3915
sbsg114
V[  ] ---> [ -highTone ] /  _ [  ] [ +highTone ]
p3916
sba(irule
Rule
p3917
(dp3918
g104
(irule
Guard
p3919
(dp3920
g107
I00
sg108
(lp3921
sg118
I00
sg114
V
sg120
I00
sg121
S'L'
sbsg122
(irule
FeatureMatrix
p3922
(dp3923
g112
(lp3924
(I00
S'highTone'
p3925
tp3926
asg114
V[ -highTone ]
p3927
sbsg128
(irule
Guard
p3928
(dp3929
g107
I00
sg108
(lp3930
(irule
FeatureMatrix
p3931
(dp3932
g112
(lp3933
sg114
V[  ]
p3934
sba(irule
FeatureMatrix
p3935
(dp3936
g112
(lp3937
(I00
S'liquid'
p3938
tp3939
a(I01
g3925
tp3940
asg114
V[ +highTone -liquid ]
p3941
sbasg118
I00
sg114
V[  ] [ +highTone -liquid ]
p3942
sg120
I00
sg121
S'R'
sbsg132
(irule
FeatureMatrix
p3943
(dp3944
g112
(lp3945
sg114
V[  ]
p3946
sbsg114
V[  ] ---> [ -highTone ] /  _ [  ] [ +highTone -liquid ]
p3947
sba(irule
Rule
p3948
(dp3949
g104
(irule
Guard
p3950
(dp3951
g107
I00
sg108
(lp3952
sg118
I00
sg114
V
sg120
I00
sg121
S'L'
sbsg122
(irule
FeatureMatrix
p3953
(dp3954
g112
(lp3955
(I00
S'anterior'
p3956
tp3957
a(I00
g3925
tp3958
asg114
V[ -anterior -highTone ]
p3959
sbsg128
(irule
Guard
p3960
(dp3961
g107
I00
sg108
(lp3962
(irule
FeatureMatrix
p3963
(dp3964
g112
(lp3965
sg114
V[  ]
p3966
sba(irule
FeatureMatrix
p3967
(dp3968
g112
(lp3969
(I01
g3925
tp3970
asg114
V[ +highTone ]
p3971
sbasg118
I00
sg114
V[  ] [ +highTone ]
p3972
sg120
I00
sg121
S'R'
sbsg132
(irule
FeatureMatrix
p3973
(dp3974
g112
(lp3975
sg114
V[  ]
p3976
sbsg114
V[  ] ---> [ -anterior -highTone ] /  _ [  ] [ +highTone ]
p3977
sba(irule
Rule
p3978
(dp3979
g104
(irule
Guard
p3980
(dp3981
g107
I00
sg108
(lp3982
sg118
I00
sg114
V
sg120
I00
sg121
S'L'
sbsg122
(irule
FeatureMatrix
p3983
(dp3984
g112
(lp3985
(I00
g3925
tp3986
asg114
V[ -highTone ]
p3987
sbsg128
(irule
Guard
p3988
(dp3989
g107
I00
sg108
(lp3990
(irule
FeatureMatrix
p3991
(dp3992
g112
(lp3993
sg114
V[  ]
p3994
sba(irule
FeatureMatrix
p3995
(dp3996
g112
(lp3997
(I01
g3925
tp3998
a(I01
S'voice'
p3999
tp4000
asg114
V[ +highTone +voice ]
p4001
sbasg118
I00
sg114
V[  ] [ +highTone +voice ]
p4002
sg120
I00
sg121
S'R'
sbsg132
(irule
FeatureMatrix
p4003
(dp4004
g112
(lp4005
sg114
V[  ]
p4006
sbsg114
V[  ] ---> [ -highTone ] /  _ [  ] [ +highTone +voice ]
p4007
sba(irule
Rule
p4008
(dp4009
g104
(irule
Guard
p4010
(dp4011
g107
I00
sg108
(lp4012
sg118
I00
sg114
V
sg120
I00
sg121
S'L'
sbsg122
(irule
FeatureMatrix
p4013
(dp4014
g112
(lp4015
(I00
g3925
tp4016
asg114
V[ -highTone ]
p4017
sbsg128
(irule
Guard
p4018
(dp4019
g107
I00
sg108
(lp4020
(irule
FeatureMatrix
p4021
(dp4022
g112
(lp4023
sg114
V[  ]
p4024
sba(irule
FeatureMatrix
p4025
(dp4026
g112
(lp4027
(I01
g3925
tp4028
asg114
V[ +highTone ]
p4029
sbasg118
I00
sg114
V[  ] [ +highTone ]
p4030
sg120
I00
sg121
S'R'
sbsg132
(irule
FeatureMatrix
p4031
(dp4032
g112
(lp4033
(I01
S'high'
p4034
tp4035
asg114
V[ +high ]
p4036
sbsg114
V[ +high ] ---> [ -highTone ] /  _ [  ] [ +highTone ]
p4037
sba(irule
Rule
p4038
(dp4039
g104
(irule
Guard
p4040
(dp4041
g107
I00
sg108
(lp4042
(irule
FeatureMatrix
p4043
(dp4044
g112
(lp4045
sg114
V[  ]
p4046
sbasg118
I00
sg114
g4046
sg120
I00
sg121
S'L'
sbsg122
(irule
FeatureMatrix
p4047
(dp4048
g112
(lp4049
(I00
g3925
tp4050
asg114
V[ -highTone ]
p4051
sbsg128
(irule
Guard
p4052
(dp4053
g107
I00
sg108
(lp4054
(irule
FeatureMatrix
p4055
(dp4056
g112
(lp4057
sg114
V[  ]
p4058
sba(irule
FeatureMatrix
p4059
(dp4060
g112
(lp4061
(I01
g3925
tp4062
asg114
V[ +highTone ]
p4063
sbasg118
I00
sg114
V[  ] [ +highTone ]
p4064
sg120
I00
sg121
S'R'
sbsg132
(irule
FeatureMatrix
p4065
(dp4066
g112
(lp4067
sg114
V[  ]
p4068
sbsg114
V[  ] ---> [ -highTone ] / [  ] _ [  ] [ +highTone ]
p4069
sba(irule
Rule
p4070
(dp4071
g104
(irule
Guard
p4072
(dp4073
g107
I00
sg108
(lp4074
sg118
I00
sg114
V
sg120
I00
sg121
S'L'
sbsg122
(irule
FeatureMatrix
p4075
(dp4076
g112
(lp4077
(I00
g3938
tp4078
a(I00
g3925
tp4079
asg114
V[ -highTone -liquid ]
p4080
sbsg128
(irule
Guard
p4081
(dp4082
g107
I00
sg108
(lp4083
(irule
FeatureMatrix
p4084
(dp4085
g112
(lp4086
sg114
V[  ]
p4087
sba(irule
FeatureMatrix
p4088
(dp4089
g112
(lp4090
(I01
g3925
tp4091
asg114
V[ +highTone ]
p4092
sbasg118
I00
sg114
V[  ] [ +highTone ]
p4093
sg120
I00
sg121
S'R'
sbsg132
(irule
FeatureMatrix
p4094
(dp4095
g112
(lp4096
sg114
V[  ]
p4097
sbsg114
V[  ] ---> [ -highTone -liquid ] /  _ [  ] [ +highTone ]
p4098
sba(irule
Rule
p4099
(dp4100
g104
(irule
Guard
p4101
(dp4102
g107
I00
sg108
(lp4103
sg118
I00
sg114
V
sg120
I00
sg121
S'L'
sbsg122
(irule
FeatureMatrix
p4104
(dp4105
g112
(lp4106
(I00
g3925
tp4107
a(I01
g3999
tp4108
asg114
V[ +voice -highTone ]
p4109
sbsg128
(irule
Guard
p4110
(dp4111
g107
I00
sg108
(lp4112
(irule
FeatureMatrix
p4113
(dp4114
g112
(lp4115
sg114
V[  ]
p4116
sba(irule
FeatureMatrix
p4117
(dp4118
g112
(lp4119
(I01
g3925
tp4120
asg114
V[ +highTone ]
p4121
sbasg118
I00
sg114
V[  ] [ +highTone ]
p4122
sg120
I00
sg121
S'R'
sbsg132
(irule
FeatureMatrix
p4123
(dp4124
g112
(lp4125
sg114
V[  ]
p4126
sbsg114
V[  ] ---> [ +voice -highTone ] /  _ [  ] [ +highTone ]
p4127
sba(irule
Rule
p4128
(dp4129
g104
(irule
Guard
p4130
(dp4131
g107
I00
sg108
(lp4132
sg118
I00
sg114
V
sg120
I00
sg121
S'L'
sbsg122
(irule
FeatureMatrix
p4133
(dp4134
g112
(lp4135
(I00
g3925
tp4136
asg114
V[ -highTone ]
p4137
sbsg128
(irule
Guard
p4138
(dp4139
g107
I00
sg108
(lp4140
(irule
FeatureMatrix
p4141
(dp4142
g112
(lp4143
sg114
V[  ]
p4144
sba(irule
FeatureMatrix
p4145
(dp4146
g112
(lp4147
(I01
g3925
tp4148
a(I00
S'sibilant'
p4149
tp4150
asg114
V[ +highTone -sibilant ]
p4151
sbasg118
I00
sg114
V[  ] [ +highTone -sibilant ]
p4152
sg120
I00
sg121
S'R'
sbsg132
(irule
FeatureMatrix
p4153
(dp4154
g112
(lp4155
sg114
V[  ]
p4156
sbsg114
V[  ] ---> [ -highTone ] /  _ [  ] [ +highTone -sibilant ]
p4157
sba(irule
Rule
p4158
(dp4159
g104
(irule
Guard
p4160
(dp4161
g107
I00
sg108
(lp4162
sg118
I00
sg114
V
sg120
I00
sg121
S'L'
sbsg122
(irule
FeatureMatrix
p4163
(dp4164
g112
(lp4165
(I00
g3925
tp4166
asg114
V[ -highTone ]
p4167
sbsg128
(irule
Guard
p4168
(dp4169
g107
I00
sg108
(lp4170
(irule
FeatureMatrix
p4171
(dp4172
g112
(lp4173
sg114
V[  ]
p4174
sba(irule
FeatureMatrix
p4175
(dp4176
g112
(lp4177
(I01
g3925
tp4178
asg114
V[ +highTone ]
p4179
sbasg118
I00
sg114
V[  ] [ +highTone ]
p4180
sg120
I00
sg121
S'R'
sbsg132
(irule
FeatureMatrix
p4181
(dp4182
g112
(lp4183
(I01
g3925
tp4184
asg114
V[ +highTone ]
p4185
sbsg114
V[ +highTone ] ---> [ -highTone ] /  _ [  ] [ +highTone ]
p4186
sba(irule
Rule
p4187
(dp4188
g104
(irule
Guard
p4189
(dp4190
g107
I00
sg108
(lp4191
sg118
I00
sg114
V
sg120
I00
sg121
S'L'
sbsg122
(irule
FeatureMatrix
p4192
(dp4193
g112
(lp4194
(I00
S'nasal'
p4195
tp4196
a(I00
g3925
tp4197
asg114
V[ -highTone -nasal ]
p4198
sbsg128
(irule
Guard
p4199
(dp4200
g107
I00
sg108
(lp4201
(irule
FeatureMatrix
p4202
(dp4203
g112
(lp4204
sg114
V[  ]
p4205
sba(irule
FeatureMatrix
p4206
(dp4207
g112
(lp4208
(I01
g3925
tp4209
asg114
V[ +highTone ]
p4210
sbasg118
I00
sg114
V[  ] [ +highTone ]
p4211
sg120
I00
sg121
S'R'
sbsg132
(irule
FeatureMatrix
p4212
(dp4213
g112
(lp4214
sg114
V[  ]
p4215
sbsg114
V[  ] ---> [ -highTone -nasal ] /  _ [  ] [ +highTone ]
p4216
sba(irule
Rule
p4217
(dp4218
g104
(irule
Guard
p4219
(dp4220
g107
I00
sg108
(lp4221
sg118
I00
sg114
V
sg120
I00
sg121
S'L'
sbsg122
(irule
FeatureMatrix
p4222
(dp4223
g112
(lp4224
(I01
S'continuant'
p4225
tp4226
a(I00
g3925
tp4227
asg114
V[ +continuant -highTone ]
p4228
sbsg128
(irule
Guard
p4229
(dp4230
g107
I00
sg108
(lp4231
(irule
FeatureMatrix
p4232
(dp4233
g112
(lp4234
sg114
V[  ]
p4235
sba(irule
FeatureMatrix
p4236
(dp4237
g112
(lp4238
(I01
g3925
tp4239
asg114
V[ +highTone ]
p4240
sbasg118
I00
sg114
V[  ] [ +highTone ]
p4241
sg120
I00
sg121
S'R'
sbsg132
(irule
FeatureMatrix
p4242
(dp4243
g112
(lp4244
sg114
V[  ]
p4245
sbsg114
V[  ] ---> [ +continuant -highTone ] /  _ [  ] [ +highTone ]
p4246
sba(irule
Rule
p4247
(dp4248
g104
(irule
Guard
p4249
(dp4250
g107
I00
sg108
(lp4251
sg118
I00
sg114
V
sg120
I00
sg121
S'L'
sbsg122
(irule
FeatureMatrix
p4252
(dp4253
g112
(lp4254
(I00
g3925
tp4255
asg114
V[ -highTone ]
p4256
sbsg128
(irule
Guard
p4257
(dp4258
g107
I00
sg108
(lp4259
(irule
FeatureMatrix
p4260
(dp4261
g112
(lp4262
sg114
V[  ]
p4263
sba(irule
FeatureMatrix
p4264
(dp4265
g112
(lp4266
(I00
S'lateral'
p4267
tp4268
a(I01
g3925
tp4269
asg114
V[ +highTone -lateral ]
p4270
sbasg118
I00
sg114
V[  ] [ +highTone -lateral ]
p4271
sg120
I00
sg121
S'R'
sbsg132
(irule
FeatureMatrix
p4272
(dp4273
g112
(lp4274
sg114
V[  ]
p4275
sbsg114
V[  ] ---> [ -highTone ] /  _ [  ] [ +highTone -lateral ]
p4276
sba(irule
Rule
p4277
(dp4278
g104
(irule
Guard
p4279
(dp4280
g107
I00
sg108
(lp4281
sg118
I00
sg114
V
sg120
I00
sg121
S'L'
sbsg122
(irule
FeatureMatrix
p4282
(dp4283
g112
(lp4284
(I00
g3925
tp4285
a(I00
g4149
tp4286
asg114
V[ -highTone -sibilant ]
p4287
sbsg128
(irule
Guard
p4288
(dp4289
g107
I00
sg108
(lp4290
(irule
FeatureMatrix
p4291
(dp4292
g112
(lp4293
sg114
V[  ]
p4294
sba(irule
FeatureMatrix
p4295
(dp4296
g112
(lp4297
(I01
g3925
tp4298
asg114
V[ +highTone ]
p4299
sbasg118
I00
sg114
V[  ] [ +highTone ]
p4300
sg120
I00
sg121
S'R'
sbsg132
(irule
FeatureMatrix
p4301
(dp4302
g112
(lp4303
sg114
V[  ]
p4304
sbsg114
V[  ] ---> [ -highTone -sibilant ] /  _ [  ] [ +highTone ]
p4305
sba(irule
Rule
p4306
(dp4307
g104
(irule
Guard
p4308
(dp4309
g107
I00
sg108
(lp4310
sg118
I00
sg114
V
sg120
I00
sg121
S'L'
sbsg122
(irule
FeatureMatrix
p4311
(dp4312
g112
(lp4313
(I00
g3925
tp4314
a(I01
S'vowel'
p4315
tp4316
asg114
V[ +vowel -highTone ]
p4317
sbsg128
(irule
Guard
p4318
(dp4319
g107
I00
sg108
(lp4320
(irule
FeatureMatrix
p4321
(dp4322
g112
(lp4323
sg114
V[  ]
p4324
sba(irule
FeatureMatrix
p4325
(dp4326
g112
(lp4327
(I01
g3925
tp4328
asg114
V[ +highTone ]
p4329
sbasg118
I00
sg114
V[  ] [ +highTone ]
p4330
sg120
I00
sg121
S'R'
sbsg132
(irule
FeatureMatrix
p4331
(dp4332
g112
(lp4333
sg114
V[  ]
p4334
sbsg114
V[  ] ---> [ +vowel -highTone ] /  _ [  ] [ +highTone ]
p4335
sba(irule
Rule
p4336
(dp4337
g104
(irule
Guard
p4338
(dp4339
g107
I00
sg108
(lp4340
sg118
I00
sg114
V
sg120
I00
sg121
S'L'
sbsg122
(irule
FeatureMatrix
p4341
(dp4342
g112
(lp4343
(I00
g3925
tp4344
asg114
V[ -highTone ]
p4345
sbsg128
(irule
Guard
p4346
(dp4347
g107
I00
sg108
(lp4348
(irule
FeatureMatrix
p4349
(dp4350
g112
(lp4351
sg114
V[  ]
p4352
sba(irule
FeatureMatrix
p4353
(dp4354
g112
(lp4355
(I00
g3956
tp4356
a(I01
g3925
tp4357
asg114
V[ +highTone -anterior ]
p4358
sbasg118
I00
sg114
V[  ] [ +highTone -anterior ]
p4359
sg120
I00
sg121
S'R'
sbsg132
(irule
FeatureMatrix
p4360
(dp4361
g112
(lp4362
sg114
V[  ]
p4363
sbsg114
V[  ] ---> [ -highTone ] /  _ [  ] [ +highTone -anterior ]
p4364
sba(irule
Rule
p4365
(dp4366
g104
(irule
Guard
p4367
(dp4368
g107
I00
sg108
(lp4369
sg118
I00
sg114
V
sg120
I00
sg121
S'L'
sbsg122
(irule
FeatureMatrix
p4370
(dp4371
g112
(lp4372
(I00
g3925
tp4373
asg114
V[ -highTone ]
p4374
sbsg128
(irule
Guard
p4375
(dp4376
g107
I00
sg108
(lp4377
(irule
FeatureMatrix
p4378
(dp4379
g112
(lp4380
sg114
V[  ]
p4381
sba(irule
FeatureMatrix
p4382
(dp4383
g112
(lp4384
(I01
g3925
tp4385
a(I01
S'sonorant'
p4386
tp4387
asg114
V[ +highTone +sonorant ]
p4388
sbasg118
I00
sg114
V[  ] [ +highTone +sonorant ]
p4389
sg120
I00
sg121
S'R'
sbsg132
(irule
FeatureMatrix
p4390
(dp4391
g112
(lp4392
sg114
V[  ]
p4393
sbsg114
V[  ] ---> [ -highTone ] /  _ [  ] [ +highTone +sonorant ]
p4394
sba(irule
Rule
p4395
(dp4396
g104
(irule
Guard
p4397
(dp4398
g107
I00
sg108
(lp4399
sg118
I00
sg114
V
sg120
I00
sg121
S'L'
sbsg122
(irule
FeatureMatrix
p4400
(dp4401
g112
(lp4402
(I00
g3925
tp4403
asg114
V[ -highTone ]
p4404
sbsg128
(irule
Guard
p4405
(dp4406
g107
I00
sg108
(lp4407
(irule
FeatureMatrix
p4408
(dp4409
g112
(lp4410
sg114
V[  ]
p4411
sba(irule
FeatureMatrix
p4412
(dp4413
g112
(lp4414
(I00
g4195
tp4415
a(I01
g3925
tp4416
asg114
V[ +highTone -nasal ]
p4417
sbasg118
I00
sg114
V[  ] [ +highTone -nasal ]
p4418
sg120
I00
sg121
S'R'
sbsg132
(irule
FeatureMatrix
p4419
(dp4420
g112
(lp4421
sg114
V[  ]
p4422
sbsg114
V[  ] ---> [ -highTone ] /  _ [  ] [ +highTone -nasal ]
p4423
sba(irule
Rule
p4424
(dp4425
g104
(irule
Guard
p4426
(dp4427
g107
I00
sg108
(lp4428
sg118
I00
sg114
V
sg120
I00
sg121
S'L'
sbsg122
(irule
FeatureMatrix
p4429
(dp4430
g112
(lp4431
(I00
g4267
tp4432
a(I00
g3925
tp4433
asg114
V[ -highTone -lateral ]
p4434
sbsg128
(irule
Guard
p4435
(dp4436
g107
I00
sg108
(lp4437
(irule
FeatureMatrix
p4438
(dp4439
g112
(lp4440
sg114
V[  ]
p4441
sba(irule
FeatureMatrix
p4442
(dp4443
g112
(lp4444
(I01
g3925
tp4445
asg114
V[ +highTone ]
p4446
sbasg118
I00
sg114
V[  ] [ +highTone ]
p4447
sg120
I00
sg121
S'R'
sbsg132
(irule
FeatureMatrix
p4448
(dp4449
g112
(lp4450
sg114
V[  ]
p4451
sbsg114
V[  ] ---> [ -highTone -lateral ] /  _ [  ] [ +highTone ]
p4452
sba(irule
Rule
p4453
(dp4454
g104
(irule
Guard
p4455
(dp4456
g107
I00
sg108
(lp4457
sg118
I00
sg114
V
sg120
I00
sg121
S'L'
sbsg122
(irule
FeatureMatrix
p4458
(dp4459
g112
(lp4460
(I00
g3925
tp4461
asg114
V[ -highTone ]
p4462
sbsg128
(irule
Guard
p4463
(dp4464
g107
I00
sg108
(lp4465
(irule
FeatureMatrix
p4466
(dp4467
g112
(lp4468
sg114
V[  ]
p4469
sba(irule
FeatureMatrix
p4470
(dp4471
g112
(lp4472
(I01
g3925
tp4473
a(I01
g4315
tp4474
asg114
V[ +highTone +vowel ]
p4475
sbasg118
I00
sg114
V[  ] [ +highTone +vowel ]
p4476
sg120
I00
sg121
S'R'
sbsg132
(irule
FeatureMatrix
p4477
(dp4478
g112
(lp4479
sg114
V[  ]
p4480
sbsg114
V[  ] ---> [ -highTone ] /  _ [  ] [ +highTone +vowel ]
p4481
sba(irule
Rule
p4482
(dp4483
g104
(irule
Guard
p4484
(dp4485
g107
I00
sg108
(lp4486
sg118
I00
sg114
V
sg120
I00
sg121
S'L'
sbsg122
(irule
FeatureMatrix
p4487
(dp4488
g112
(lp4489
(I00
g3925
tp4490
asg114
V[ -highTone ]
p4491
sbsg128
(irule
Guard
p4492
(dp4493
g107
I00
sg108
(lp4494
(irule
FeatureMatrix
p4495
(dp4496
g112
(lp4497
(I00
S'rounded'
p4498
tp4499
asg114
V[ -rounded ]
p4500
sba(irule
FeatureMatrix
p4501
(dp4502
g112
(lp4503
(I01
g3925
tp4504
asg114
V[ +highTone ]
p4505
sbasg118
I00
sg114
V[ -rounded ] [ +highTone ]
p4506
sg120
I00
sg121
S'R'
sbsg132
(irule
FeatureMatrix
p4507
(dp4508
g112
(lp4509
sg114
V[  ]
p4510
sbsg114
V[  ] ---> [ -highTone ] /  _ [ -rounded ] [ +highTone ]
p4511
sba(irule
Rule
p4512
(dp4513
g104
(irule
Guard
p4514
(dp4515
g107
I00
sg108
(lp4516
sg118
I00
sg114
V
sg120
I00
sg121
S'L'
sbsg122
(irule
FeatureMatrix
p4517
(dp4518
g112
(lp4519
(I00
g3925
tp4520
a(I01
g4386
tp4521
asg114
V[ +sonorant -highTone ]
p4522
sbsg128
(irule
Guard
p4523
(dp4524
g107
I00
sg108
(lp4525
(irule
FeatureMatrix
p4526
(dp4527
g112
(lp4528
sg114
V[  ]
p4529
sba(irule
FeatureMatrix
p4530
(dp4531
g112
(lp4532
(I01
g3925
tp4533
asg114
V[ +highTone ]
p4534
sbasg118
I00
sg114
V[  ] [ +highTone ]
p4535
sg120
I00
sg121
S'R'
sbsg132
(irule
FeatureMatrix
p4536
(dp4537
g112
(lp4538
sg114
V[  ]
p4539
sbsg114
V[  ] ---> [ +sonorant -highTone ] /  _ [  ] [ +highTone ]
p4540
sba(irule
Rule
p4541
(dp4542
g104
(irule
Guard
p4543
(dp4544
g107
I00
sg108
(lp4545
sg118
I00
sg114
V
sg120
I00
sg121
S'L'
sbsg122
(irule
FeatureMatrix
p4546
(dp4547
g112
(lp4548
(I00
g3925
tp4549
a(I00
S'low'
p4550
tp4551
asg114
V[ -highTone -low ]
p4552
sbsg128
(irule
Guard
p4553
(dp4554
g107
I00
sg108
(lp4555
(irule
FeatureMatrix
p4556
(dp4557
g112
(lp4558
sg114
V[  ]
p4559
sba(irule
FeatureMatrix
p4560
(dp4561
g112
(lp4562
(I01
g3925
tp4563
asg114
V[ +highTone ]
p4564
sbasg118
I00
sg114
V[  ] [ +highTone ]
p4565
sg120
I00
sg121
S'R'
sbsg132
(irule
FeatureMatrix
p4566
(dp4567
g112
(lp4568
sg114
V[  ]
p4569
sbsg114
V[  ] ---> [ -highTone -low ] /  _ [  ] [ +highTone ]
p4570
sba(irule
Rule
p4571
(dp4572
g104
(irule
Guard
p4573
(dp4574
g107
I00
sg108
(lp4575
sg118
I00
sg114
V
sg120
I00
sg121
S'L'
sbsg122
(irule
FeatureMatrix
p4576
(dp4577
g112
(lp4578
(I00
g3925
tp4579
a(I01
S'tense'
p4580
tp4581
asg114
V[ +tense -highTone ]
p4582
sbsg128
(irule
Guard
p4583
(dp4584
g107
I00
sg108
(lp4585
(irule
FeatureMatrix
p4586
(dp4587
g112
(lp4588
sg114
V[  ]
p4589
sba(irule
FeatureMatrix
p4590
(dp4591
g112
(lp4592
(I01
g3925
tp4593
asg114
V[ +highTone ]
p4594
sbasg118
I00
sg114
V[  ] [ +highTone ]
p4595
sg120
I00
sg121
S'R'
sbsg132
(irule
FeatureMatrix
p4596
(dp4597
g112
(lp4598
sg114
V[  ]
p4599
sbsg114
V[  ] ---> [ +tense -highTone ] /  _ [  ] [ +highTone ]
p4600
sba(irule
Rule
p4601
(dp4602
g104
(irule
Guard
p4603
(dp4604
g107
I00
sg108
(lp4605
sg118
I00
sg114
V
sg120
I00
sg121
S'L'
sbsg122
(irule
FeatureMatrix
p4606
(dp4607
g112
(lp4608
(I00
g3925
tp4609
a(I00
S'coronal'
p4610
tp4611
asg114
V[ -coronal -highTone ]
p4612
sbsg128
(irule
Guard
p4613
(dp4614
g107
I00
sg108
(lp4615
(irule
FeatureMatrix
p4616
(dp4617
g112
(lp4618
sg114
V[  ]
p4619
sba(irule
FeatureMatrix
p4620
(dp4621
g112
(lp4622
(I01
g3925
tp4623
asg114
V[ +highTone ]
p4624
sbasg118
I00
sg114
V[  ] [ +highTone ]
p4625
sg120
I00
sg121
S'R'
sbsg132
(irule
FeatureMatrix
p4626
(dp4627
g112
(lp4628
sg114
V[  ]
p4629
sbsg114
V[  ] ---> [ -coronal -highTone ] /  _ [  ] [ +highTone ]
p4630
sba(irule
Rule
p4631
(dp4632
g104
(irule
Guard
p4633
(dp4634
g107
I00
sg108
(lp4635
sg118
I00
sg114
V
sg120
I00
sg121
S'L'
sbsg122
(irule
FeatureMatrix
p4636
(dp4637
g112
(lp4638
(I00
g3925
tp4639
asg114
V[ -highTone ]
p4640
sbsg128
(irule
Guard
p4641
(dp4642
g107
I00
sg108
(lp4643
(irule
FeatureMatrix
p4644
(dp4645
g112
(lp4646
sg114
V[  ]
p4647
sba(irule
FeatureMatrix
p4648
(dp4649
g112
(lp4650
(I01
g3925
tp4651
a(I00
g4610
tp4652
asg114
V[ +highTone -coronal ]
p4653
sbasg118
I00
sg114
V[  ] [ +highTone -coronal ]
p4654
sg120
I00
sg121
S'R'
sbsg132
(irule
FeatureMatrix
p4655
(dp4656
g112
(lp4657
sg114
V[  ]
p4658
sbsg114
V[  ] ---> [ -highTone ] /  _ [  ] [ +highTone -coronal ]
p4659
sba(irule
Rule
p4660
(dp4661
g104
(irule
Guard
p4662
(dp4663
g107
I00
sg108
(lp4664
sg118
I00
sg114
V
sg120
I00
sg121
S'L'
sbsg122
(irule
FeatureMatrix
p4665
(dp4666
g112
(lp4667
(I00
g3925
tp4668
asg114
V[ -highTone ]
p4669
sbsg128
(irule
Guard
p4670
(dp4671
g107
I00
sg108
(lp4672
(irule
FeatureMatrix
p4673
(dp4674
g112
(lp4675
sg114
V[  ]
p4676
sba(irule
FeatureMatrix
p4677
(dp4678
g112
(lp4679
(I01
g3925
tp4680
asg114
V[ +highTone ]
p4681
sbasg118
I00
sg114
V[  ] [ +highTone ]
p4682
sg120
I00
sg121
S'R'
sbsg132
(irule
FeatureMatrix
p4683
(dp4684
g112
(lp4685
(I00
g4550
tp4686
asg114
V[ -low ]
p4687
sbsg114
V[ -low ] ---> [ -highTone ] /  _ [  ] [ +highTone ]
p4688
sba(irule
Rule
p4689
(dp4690
g104
(irule
Guard
p4691
(dp4692
g107
I00
sg108
(lp4693
sg118
I00
sg114
V
sg120
I00
sg121
S'L'
sbsg122
(irule
FeatureMatrix
p4694
(dp4695
g112
(lp4696
(I00
g3925
tp4697
asg114
V[ -highTone ]
p4698
sbsg128
(irule
Guard
p4699
(dp4700
g107
I00
sg108
(lp4701
(irule
FeatureMatrix
p4702
(dp4703
g112
(lp4704
sg114
V[  ]
p4705
sba(irule
FeatureMatrix
p4706
(dp4707
g112
(lp4708
(I01
g4225
tp4709
a(I01
g3925
tp4710
asg114
V[ +continuant +highTone ]
p4711
sbasg118
I00
sg114
V[  ] [ +continuant +highTone ]
p4712
sg120
I00
sg121
S'R'
sbsg132
(irule
FeatureMatrix
p4713
(dp4714
g112
(lp4715
sg114
V[  ]
p4716
sbsg114
V[  ] ---> [ -highTone ] /  _ [  ] [ +continuant +highTone ]
p4717
sba(irule
Rule
p4718
(dp4719
g104
(irule
Guard
p4720
(dp4721
g107
I00
sg108
(lp4722
sg118
I00
sg114
V
sg120
I00
sg121
S'L'
sbsg122
(irule
FeatureMatrix
p4723
(dp4724
g112
(lp4725
(I00
g3925
tp4726
asg114
V[ -highTone ]
p4727
sbsg128
(irule
Guard
p4728
(dp4729
g107
I00
sg108
(lp4730
(irule
FeatureMatrix
p4731
(dp4732
g112
(lp4733
sg114
V[  ]
p4734
sba(irule
FeatureMatrix
p4735
(dp4736
g112
(lp4737
(I01
g3925
tp4738
asg114
V[ +highTone ]
p4739
sbasg118
I00
sg114
V[  ] [ +highTone ]
p4740
sg120
I00
sg121
S'R'
sbsg132
(irule
FeatureMatrix
p4741
(dp4742
g112
(lp4743
(I01
g4580
tp4744
asg114
V[ +tense ]
p4745
sbsg114
V[ +tense ] ---> [ -highTone ] /  _ [  ] [ +highTone ]
p4746
sba(irule
Rule
p4747
(dp4748
g104
(irule
Guard
p4749
(dp4750
g107
I00
sg108
(lp4751
sg118
I00
sg114
V
sg120
I00
sg121
S'L'
sbsg122
(irule
FeatureMatrix
p4752
(dp4753
g112
(lp4754
(I00
g3925
tp4755
asg114
V[ -highTone ]
p4756
sbsg128
(irule
Guard
p4757
(dp4758
g107
I00
sg108
(lp4759
(irule
FeatureMatrix
p4760
(dp4761
g112
(lp4762
sg114
V[  ]
p4763
sba(irule
FeatureMatrix
p4764
(dp4765
g112
(lp4766
(I01
g3925
tp4767
asg114
V[ +highTone ]
p4768
sbasg118
I00
sg114
V[  ] [ +highTone ]
p4769
sg120
I00
sg121
S'R'
sbsg132
(irule
FeatureMatrix
p4770
(dp4771
g112
(lp4772
(I00
g4149
tp4773
asg114
V[ -sibilant ]
p4774
sbsg114
V[ -sibilant ] ---> [ -highTone ] /  _ [  ] [ +highTone ]
p4775
sba(irule
Rule
p4776
(dp4777
g104
(irule
Guard
p4778
(dp4779
g107
I00
sg108
(lp4780
sg118
I00
sg114
V
sg120
I00
sg121
S'L'
sbsg122
(irule
FeatureMatrix
p4781
(dp4782
g112
(lp4783
(I00
g3925
tp4784
asg114
V[ -highTone ]
p4785
sbsg128
(irule
Guard
p4786
(dp4787
g107
I00
sg108
(lp4788
(irule
FeatureMatrix
p4789
(dp4790
g112
(lp4791
sg114
V[  ]
p4792
sba(irule
FeatureMatrix
p4793
(dp4794
g112
(lp4795
(I01
g3925
tp4796
asg114
V[ +highTone ]
p4797
sbasg118
I00
sg114
V[  ] [ +highTone ]
p4798
sg120
I00
sg121
S'R'
sbsg132
(irule
FeatureMatrix
p4799
(dp4800
g112
(lp4801
(I01
g3999
tp4802
asg114
V[ +voice ]
p4803
sbsg114
V[ +voice ] ---> [ -highTone ] /  _ [  ] [ +highTone ]
p4804
sba(irule
Rule
p4805
(dp4806
g104
(irule
Guard
p4807
(dp4808
g107
I00
sg108
(lp4809
sg118
I00
sg114
V
sg120
I00
sg121
S'L'
sbsg122
(irule
FeatureMatrix
p4810
(dp4811
g112
(lp4812
(I00
g3925
tp4813
asg114
V[ -highTone ]
p4814
sbsg128
(irule
Guard
p4815
(dp4816
g107
I00
sg108
(lp4817
(irule
FeatureMatrix
p4818
(dp4819
g112
(lp4820
sg114
V[  ]
p4821
sba(irule
FeatureMatrix
p4822
(dp4823
g112
(lp4824
(I01
g3925
tp4825
asg114
V[ +highTone ]
p4826
sbasg118
I00
sg114
V[  ] [ +highTone ]
p4827
sg120
I00
sg121
S'R'
sbsg132
(irule
FeatureMatrix
p4828
(dp4829
g112
(lp4830
(I00
g4610
tp4831
asg114
V[ -coronal ]
p4832
sbsg114
V[ -coronal ] ---> [ -highTone ] /  _ [  ] [ +highTone ]
p4833
sba(irule
Rule
p4834
(dp4835
g104
(irule
Guard
p4836
(dp4837
g107
I00
sg108
(lp4838
sg118
I00
sg114
V
sg120
I00
sg121
S'L'
sbsg122
(irule
FeatureMatrix
p4839
(dp4840
g112
(lp4841
(I00
g3925
tp4842
asg114
V[ -highTone ]
p4843
sbsg128
(irule
Guard
p4844
(dp4845
g107
I00
sg108
(lp4846
(irule
FeatureMatrix
p4847
(dp4848
g112
(lp4849
sg114
V[  ]
p4850
sba(irule
FeatureMatrix
p4851
(dp4852
g112
(lp4853
(I01
g3925
tp4854
asg114
V[ +highTone ]
p4855
sbasg118
I00
sg114
V[  ]* [ +highTone ]
p4856
sg120
I01
sg121
S'R'
sbsg132
(irule
FeatureMatrix
p4857
(dp4858
g112
(lp4859
sg114
V[  ]
p4860
sbsg114
V[  ] ---> [ -highTone ] /  _ [  ]* [ +highTone ]
p4861
sba(irule
Rule
p4862
(dp4863
g104
(irule
Guard
p4864
(dp4865
g107
I00
sg108
(lp4866
sg118
I00
sg114
V
sg120
I00
sg121
S'L'
sbsg122
(irule
FeatureMatrix
p4867
(dp4868
g112
(lp4869
(I00
g3925
tp4870
asg114
V[ -highTone ]
p4871
sbsg128
(irule
Guard
p4872
(dp4873
g107
I00
sg108
(lp4874
(irule
FeatureMatrix
p4875
(dp4876
g112
(lp4877
sg114
V[  ]
p4878
sba(irule
FeatureMatrix
p4879
(dp4880
g112
(lp4881
(I01
g3925
tp4882
asg114
V[ +highTone ]
p4883
sbasg118
I00
sg114
V[  ] [ +highTone ]
p4884
sg120
I00
sg121
S'R'
sbsg132
(irule
FeatureMatrix
p4885
(dp4886
g112
(lp4887
(I01
g4315
tp4888
asg114
V[ +vowel ]
p4889
sbsg114
V[ +vowel ] ---> [ -highTone ] /  _ [  ] [ +highTone ]
p4890
sba(irule
Rule
p4891
(dp4892
g104
(irule
Guard
p4893
(dp4894
g107
I00
sg108
(lp4895
sg118
I00
sg114
V
sg120
I00
sg121
S'L'
sbsg122
(irule
FeatureMatrix
p4896
(dp4897
g112
(lp4898
(I00
g3925
tp4899
asg114
V[ -highTone ]
p4900
sbsg128
(irule
Guard
p4901
(dp4902
g107
I00
sg108
(lp4903
(irule
FeatureMatrix
p4904
(dp4905
g112
(lp4906
sg114
V[  ]
p4907
sba(irule
FeatureMatrix
p4908
(dp4909
g112
(lp4910
(I01
g3925
tp4911
a(I01
g4580
tp4912
asg114
V[ +highTone +tense ]
p4913
sbasg118
I00
sg114
V[  ] [ +highTone +tense ]
p4914
sg120
I00
sg121
S'R'
sbsg132
(irule
FeatureMatrix
p4915
(dp4916
g112
(lp4917
sg114
V[  ]
p4918
sbsg114
V[  ] ---> [ -highTone ] /  _ [  ] [ +highTone +tense ]
p4919
sba(irule
Rule
p4920
(dp4921
g104
(irule
Guard
p4922
(dp4923
g107
I00
sg108
(lp4924
sg118
I00
sg114
V
sg120
I00
sg121
S'L'
sbsg122
(irule
FeatureMatrix
p4925
(dp4926
g112
(lp4927
(I00
g3925
tp4928
asg114
V[ -highTone ]
p4929
sbsg128
(irule
Guard
p4930
(dp4931
g107
I00
sg108
(lp4932
(irule
FeatureMatrix
p4933
(dp4934
g112
(lp4935
sg114
V[  ]
p4936
sba(irule
FeatureMatrix
p4937
(dp4938
g112
(lp4939
(I01
g3925
tp4940
asg114
V[ +highTone ]
p4941
sbasg118
I00
sg114
V[  ] [ +highTone ]
p4942
sg120
I00
sg121
S'R'
sbsg132
(irule
FeatureMatrix
p4943
(dp4944
g112
(lp4945
(I00
g4267
tp4946
asg114
V[ -lateral ]
p4947
sbsg114
V[ -lateral ] ---> [ -highTone ] /  _ [  ] [ +highTone ]
p4948
sba(irule
Rule
p4949
(dp4950
g104
(irule
Guard
p4951
(dp4952
g107
I00
sg108
(lp4953
sg118
I00
sg114
V
sg120
I00
sg121
S'L'
sbsg122
(irule
FeatureMatrix
p4954
(dp4955
g112
(lp4956
(I00
g3925
tp4957
asg114
V[ -highTone ]
p4958
sbsg128
(irule
Guard
p4959
(dp4960
g107
I00
sg108
(lp4961
(irule
FeatureMatrix
p4962
(dp4963
g112
(lp4964
(I00
g4550
tp4965
asg114
V[ -low ]
p4966
sba(irule
FeatureMatrix
p4967
(dp4968
g112
(lp4969
(I01
g3925
tp4970
asg114
V[ +highTone ]
p4971
sbasg118
I00
sg114
V[ -low ] [ +highTone ]
p4972
sg120
I00
sg121
S'R'
sbsg132
(irule
FeatureMatrix
p4973
(dp4974
g112
(lp4975
sg114
V[  ]
p4976
sbsg114
V[  ] ---> [ -highTone ] /  _ [ -low ] [ +highTone ]
p4977
sba(irule
Rule
p4978
(dp4979
g104
(irule
Guard
p4980
(dp4981
g107
I00
sg108
(lp4982
sg118
I00
sg114
V
sg120
I00
sg121
S'L'
sbsg122
(irule
FeatureMatrix
p4983
(dp4984
g112
(lp4985
(I00
g3925
tp4986
asg114
V[ -highTone ]
p4987
sbsg128
(irule
Guard
p4988
(dp4989
g107
I00
sg108
(lp4990
(irule
FeatureMatrix
p4991
(dp4992
g112
(lp4993
(I00
g4580
tp4994
asg114
V[ -tense ]
p4995
sba(irule
FeatureMatrix
p4996
(dp4997
g112
(lp4998
(I01
g3925
tp4999
asg114
V[ +highTone ]
p5000
sbasg118
I00
sg114
V[ -tense ] [ +highTone ]
p5001
sg120
I00
sg121
S'R'
sbsg132
(irule
FeatureMatrix
p5002
(dp5003
g112
(lp5004
sg114
V[  ]
p5005
sbsg114
V[  ] ---> [ -highTone ] /  _ [ -tense ] [ +highTone ]
p5006
sba(irule
Rule
p5007
(dp5008
g104
(irule
Guard
p5009
(dp5010
g107
I00
sg108
(lp5011
sg118
I00
sg114
V
sg120
I00
sg121
S'L'
sbsg122
(irule
FeatureMatrix
p5012
(dp5013
g112
(lp5014
(I00
g3925
tp5015
asg114
V[ -highTone ]
p5016
sbsg128
(irule
Guard
p5017
(dp5018
g107
I00
sg108
(lp5019
(irule
FeatureMatrix
p5020
(dp5021
g112
(lp5022
(I00
g4315
tp5023
asg114
V[ -vowel ]
p5024
sba(irule
FeatureMatrix
p5025
(dp5026
g112
(lp5027
(I01
g3925
tp5028
asg114
V[ +highTone ]
p5029
sbasg118
I00
sg114
V[ -vowel ] [ +highTone ]
p5030
sg120
I00
sg121
S'R'
sbsg132
(irule
FeatureMatrix
p5031
(dp5032
g112
(lp5033
sg114
V[  ]
p5034
sbsg114
V[  ] ---> [ -highTone ] /  _ [ -vowel ] [ +highTone ]
p5035
sba(irule
Rule
p5036
(dp5037
g104
(irule
Guard
p5038
(dp5039
g107
I00
sg108
(lp5040
sg118
I00
sg114
V
sg120
I00
sg121
S'L'
sbsg122
(irule
FeatureMatrix
p5041
(dp5042
g112
(lp5043
(I00
g3925
tp5044
asg114
V[ -highTone ]
p5045
sbsg128
(irule
Guard
p5046
(dp5047
g107
I00
sg108
(lp5048
(irule
FeatureMatrix
p5049
(dp5050
g112
(lp5051
(I00
g3925
tp5052
asg114
V[ -highTone ]
p5053
sba(irule
FeatureMatrix
p5054
(dp5055
g112
(lp5056
(I01
g3925
tp5057
asg114
V[ +highTone ]
p5058
sbasg118
I00
sg114
V[ -highTone ] [ +highTone ]
p5059
sg120
I00
sg121
S'R'
sbsg132
(irule
FeatureMatrix
p5060
(dp5061
g112
(lp5062
sg114
V[  ]
p5063
sbsg114
V[  ] ---> [ -highTone ] /  _ [ -highTone ] [ +highTone ]
p5064
sba(irule
Rule
p5065
(dp5066
g104
(irule
Guard
p5067
(dp5068
g107
I00
sg108
(lp5069
sg118
I00
sg114
V
sg120
I00
sg121
S'L'
sbsg122
(irule
FeatureMatrix
p5070
(dp5071
g112
(lp5072
(I00
g3925
tp5073
asg114
V[ -highTone ]
p5074
sbsg128
(irule
Guard
p5075
(dp5076
g107
I00
sg108
(lp5077
(irule
FeatureMatrix
p5078
(dp5079
g112
(lp5080
sg114
V[  ]
p5081
sba(irule
FeatureMatrix
p5082
(dp5083
g112
(lp5084
(I01
g3925
tp5085
asg114
V[ +highTone ]
p5086
sbasg118
I00
sg114
V[  ] [ +highTone ]
p5087
sg120
I00
sg121
S'R'
sbsg132
(irule
FeatureMatrix
p5088
(dp5089
g112
(lp5090
(I01
g4386
tp5091
asg114
V[ +sonorant ]
p5092
sbsg114
V[ +sonorant ] ---> [ -highTone ] /  _ [  ] [ +highTone ]
p5093
sba(irule
Rule
p5094
(dp5095
g104
(irule
Guard
p5096
(dp5097
g107
I00
sg108
(lp5098
sg118
I00
sg114
V
sg120
I00
sg121
S'L'
sbsg122
(irule
FeatureMatrix
p5099
(dp5100
g112
(lp5101
(I00
g3925
tp5102
asg114
V[ -highTone ]
p5103
sbsg128
(irule
Guard
p5104
(dp5105
g107
I00
sg108
(lp5106
(irule
FeatureMatrix
p5107
(dp5108
g112
(lp5109
sg114
V[  ]
p5110
sba(irule
FeatureMatrix
p5111
(dp5112
g112
(lp5113
(I01
g3925
tp5114
asg114
V[ +highTone ]
p5115
sbasg118
I00
sg114
V[  ] [ +highTone ]
p5116
sg120
I00
sg121
S'R'
sbsg132
(irule
FeatureMatrix
p5117
(dp5118
g112
(lp5119
(I00
g4195
tp5120
asg114
V[ -nasal ]
p5121
sbsg114
V[ -nasal ] ---> [ -highTone ] /  _ [  ] [ +highTone ]
p5122
sba(irule
Rule
p5123
(dp5124
g104
(irule
Guard
p5125
(dp5126
g107
I00
sg108
(lp5127
sg118
I00
sg114
V
sg120
I00
sg121
S'L'
sbsg122
(irule
FeatureMatrix
p5128
(dp5129
g112
(lp5130
(I00
g3925
tp5131
asg114
V[ -highTone ]
p5132
sbsg128
(irule
Guard
p5133
(dp5134
g107
I00
sg108
(lp5135
(irule
FeatureMatrix
p5136
(dp5137
g112
(lp5138
sg114
V[  ]
p5139
sba(irule
FeatureMatrix
p5140
(dp5141
g112
(lp5142
(I01
g3925
tp5143
asg114
V[ +highTone ]
p5144
sbasg118
I00
sg114
V[  ] [ +highTone ]
p5145
sg120
I00
sg121
S'R'
sbsg132
(irule
FeatureMatrix
p5146
(dp5147
g112
(lp5148
(I00
g3938
tp5149
asg114
V[ -liquid ]
p5150
sbsg114
V[ -liquid ] ---> [ -highTone ] /  _ [  ] [ +highTone ]
p5151
sba(irule
Rule
p5152
(dp5153
g104
(irule
Guard
p5154
(dp5155
g107
I00
sg108
(lp5156
sg118
I00
sg114
V
sg120
I00
sg121
S'L'
sbsg122
(irule
FeatureMatrix
p5157
(dp5158
g112
(lp5159
(I00
g3925
tp5160
asg114
V[ -highTone ]
p5161
sbsg128
(irule
Guard
p5162
(dp5163
g107
I00
sg108
(lp5164
(irule
FeatureMatrix
p5165
(dp5166
g112
(lp5167
sg114
V[  ]
p5168
sba(irule
FeatureMatrix
p5169
(dp5170
g112
(lp5171
(I01
g3925
tp5172
asg114
V[ +highTone ]
p5173
sbasg118
I00
sg114
V[  ] [ +highTone ]
p5174
sg120
I00
sg121
S'R'
sbsg132
(irule
FeatureMatrix
p5175
(dp5176
g112
(lp5177
(I00
g3956
tp5178
asg114
V[ -anterior ]
p5179
sbsg114
V[ -anterior ] ---> [ -highTone ] /  _ [  ] [ +highTone ]
p5180
sba(irule
Rule
p5181
(dp5182
g104
(irule
Guard
p5183
(dp5184
g107
I00
sg108
(lp5185
sg118
I00
sg114
V
sg120
I00
sg121
S'L'
sbsg122
(irule
FeatureMatrix
p5186
(dp5187
g112
(lp5188
(I00
g3925
tp5189
asg114
V[ -highTone ]
p5190
sbsg128
(irule
Guard
p5191
(dp5192
g107
I00
sg108
(lp5193
(irule
FeatureMatrix
p5194
(dp5195
g112
(lp5196
sg114
V[  ]
p5197
sba(irule
FeatureMatrix
p5198
(dp5199
g112
(lp5200
(I01
g3925
tp5201
asg114
V[ +highTone ]
p5202
sbasg118
I00
sg114
V[  ] [ +highTone ]
p5203
sg120
I00
sg121
S'R'
sbsg132
(irule
FeatureMatrix
p5204
(dp5205
g112
(lp5206
(I01
g4225
tp5207
asg114
V[ +continuant ]
p5208
sbsg114
V[ +continuant ] ---> [ -highTone ] /  _ [  ] [ +highTone ]
p5209
sba(irule
Rule
p5210
(dp5211
g104
(irule
Guard
p5212
(dp5213
g107
I00
sg108
(lp5214
sg118
I00
sg114
V
sg120
I00
sg121
S'L'
sbsg122
(irule
FeatureMatrix
p5215
(dp5216
g112
(lp5217
(I00
g3956
tp5218
a(I00
g3938
tp5219
a(I00
g3925
tp5220
asg114
V[ -anterior -highTone -liquid ]
p5221
sbsg128
(irule
Guard
p5222
(dp5223
g107
I00
sg108
(lp5224
(irule
FeatureMatrix
p5225
(dp5226
g112
(lp5227
sg114
V[  ]
p5228
sba(irule
FeatureMatrix
p5229
(dp5230
g112
(lp5231
(I01
g3925
tp5232
asg114
V[ +highTone ]
p5233
sbasg118
I00
sg114
V[  ] [ +highTone ]
p5234
sg120
I00
sg121
S'R'
sbsg132
(irule
FeatureMatrix
p5235
(dp5236
g112
(lp5237
sg114
V[  ]
p5238
sbsg114
V[  ] ---> [ -anterior -highTone -liquid ] /  _ [  ] [ +highTone ]
p5239
sba(irule
Rule
p5240
(dp5241
g104
(irule
Guard
p5242
(dp5243
g107
I00
sg108
(lp5244
sg118
I00
sg114
V
sg120
I00
sg121
S'L'
sbsg122
(irule
FeatureMatrix
p5245
(dp5246
g112
(lp5247
(I00
g3956
tp5248
a(I00
g3925
tp5249
asg114
V[ -anterior -highTone ]
p5250
sbsg128
(irule
Guard
p5251
(dp5252
g107
I00
sg108
(lp5253
(irule
FeatureMatrix
p5254
(dp5255
g112
(lp5256
sg114
V[  ]
p5257
sba(irule
FeatureMatrix
p5258
(dp5259
g112
(lp5260
(I00
g3938
tp5261
a(I01
g3925
tp5262
asg114
V[ +highTone -liquid ]
p5263
sbasg118
I00
sg114
V[  ] [ +highTone -liquid ]
p5264
sg120
I00
sg121
S'R'
sbsg132
(irule
FeatureMatrix
p5265
(dp5266
g112
(lp5267
sg114
V[  ]
p5268
sbsg114
V[  ] ---> [ -anterior -highTone ] /  _ [  ] [ +highTone -liquid ]
p5269
sba(irule
Rule
p5270
(dp5271
g104
(irule
Guard
p5272
(dp5273
g107
I00
sg108
(lp5274
sg118
I00
sg114
V
sg120
I00
sg121
S'L'
sbsg122
(irule
FeatureMatrix
p5275
(dp5276
g112
(lp5277
(I00
g3925
tp5278
a(I01
g3999
tp5279
asg114
V[ +voice -highTone ]
p5280
sbsg128
(irule
Guard
p5281
(dp5282
g107
I00
sg108
(lp5283
(irule
FeatureMatrix
p5284
(dp5285
g112
(lp5286
sg114
V[  ]
p5287
sba(irule
FeatureMatrix
p5288
(dp5289
g112
(lp5290
(I00
g3938
tp5291
a(I01
g3925
tp5292
asg114
V[ +highTone -liquid ]
p5293
sbasg118
I00
sg114
V[  ] [ +highTone -liquid ]
p5294
sg120
I00
sg121
S'R'
sbsg132
(irule
FeatureMatrix
p5295
(dp5296
g112
(lp5297
sg114
V[  ]
p5298
sbsg114
V[  ] ---> [ +voice -highTone ] /  _ [  ] [ +highTone -liquid ]
p5299
sba(irule
Rule
p5300
(dp5301
g104
(irule
Guard
p5302
(dp5303
g107
I00
sg108
(lp5304
sg118
I00
sg114
V
sg120
I00
sg121
S'L'
sbsg122
(irule
FeatureMatrix
p5305
(dp5306
g112
(lp5307
(I00
g3938
tp5308
a(I00
g3925
tp5309
asg114
V[ -highTone -liquid ]
p5310
sbsg128
(irule
Guard
p5311
(dp5312
g107
I00
sg108
(lp5313
(irule
FeatureMatrix
p5314
(dp5315
g112
(lp5316
sg114
V[  ]
p5317
sba(irule
FeatureMatrix
p5318
(dp5319
g112
(lp5320
(I01
g3925
tp5321
a(I00
g4149
tp5322
asg114
V[ +highTone -sibilant ]
p5323
sbasg118
I00
sg114
V[  ] [ +highTone -sibilant ]
p5324
sg120
I00
sg121
S'R'
sbsg132
(irule
FeatureMatrix
p5325
(dp5326
g112
(lp5327
sg114
V[  ]
p5328
sbsg114
V[  ] ---> [ -highTone -liquid ] /  _ [  ] [ +highTone -sibilant ]
p5329
sba(irule
Rule
p5330
(dp5331
g104
(irule
Guard
p5332
(dp5333
g107
I00
sg108
(lp5334
sg118
I00
sg114
V
sg120
I00
sg121
S'L'
sbsg122
(irule
FeatureMatrix
p5335
(dp5336
g112
(lp5337
(I00
g3925
tp5338
a(I01
g3999
tp5339
asg114
V[ +voice -highTone ]
p5340
sbsg128
(irule
Guard
p5341
(dp5342
g107
I00
sg108
(lp5343
(irule
FeatureMatrix
p5344
(dp5345
g112
(lp5346
sg114
V[  ]
p5347
sba(irule
FeatureMatrix
p5348
(dp5349
g112
(lp5350
(I01
g3925
tp5351
a(I01
g3999
tp5352
asg114
V[ +highTone +voice ]
p5353
sbasg118
I00
sg114
V[  ] [ +highTone +voice ]
p5354
sg120
I00
sg121
S'R'
sbsg132
(irule
FeatureMatrix
p5355
(dp5356
g112
(lp5357
sg114
V[  ]
p5358
sbsg114
V[  ] ---> [ +voice -highTone ] /  _ [  ] [ +highTone +voice ]
p5359
sba(irule
Rule
p5360
(dp5361
g104
(irule
Guard
p5362
(dp5363
g107
I00
sg108
(lp5364
(irule
FeatureMatrix
p5365
(dp5366
g112
(lp5367
sg114
V[  ]
p5368
sbasg118
I00
sg114
g5368
sg120
I00
sg121
S'L'
sbsg122
(irule
FeatureMatrix
p5369
(dp5370
g112
(lp5371
(I00
g3925
tp5372
asg114
V[ -highTone ]
p5373
sbsg128
(irule
Guard
p5374
(dp5375
g107
I00
sg108
(lp5376
(irule
FeatureMatrix
p5377
(dp5378
g112
(lp5379
sg114
V[  ]
p5380
sba(irule
FeatureMatrix
p5381
(dp5382
g112
(lp5383
(I01
g3925
tp5384
asg114
V[ +highTone ]
p5385
sbasg118
I00
sg114
V[  ] [ +highTone ]
p5386
sg120
I00
sg121
S'R'
sbsg132
(irule
FeatureMatrix
p5387
(dp5388
g112
(lp5389
(I01
g4034
tp5390
asg114
V[ +high ]
p5391
sbsg114
V[ +high ] ---> [ -highTone ] / [  ] _ [  ] [ +highTone ]
p5392
sba(irule
Rule
p5393
(dp5394
g104
(irule
Guard
p5395
(dp5396
g107
I00
sg108
(lp5397
sg118
I00
sg114
V
sg120
I00
sg121
S'L'
sbsg122
(irule
FeatureMatrix
p5398
(dp5399
g112
(lp5400
(I00
g3925
tp5401
asg114
V[ -highTone ]
p5402
sbsg128
(irule
Guard
p5403
(dp5404
g107
I00
sg108
(lp5405
(irule
FeatureMatrix
p5406
(dp5407
g112
(lp5408
(I00
g4498
tp5409
asg114
V[ -rounded ]
p5410
sba(irule
FeatureMatrix
p5411
(dp5412
g112
(lp5413
(I00
g3938
tp5414
a(I01
g3925
tp5415
asg114
V[ +highTone -liquid ]
p5416
sbasg118
I00
sg114
V[ -rounded ] [ +highTone -liquid ]
p5417
sg120
I00
sg121
S'R'
sbsg132
(irule
FeatureMatrix
p5418
(dp5419
g112
(lp5420
sg114
V[  ]
p5421
sbsg114
V[  ] ---> [ -highTone ] /  _ [ -rounded ] [ +highTone -liquid ]
p5422
sba(irule
Rule
p5423
(dp5424
g104
(irule
Guard
p5425
(dp5426
g107
I00
sg108
(lp5427
(irule
FeatureMatrix
p5428
(dp5429
g112
(lp5430
sg114
V[  ]
p5431
sbasg118
I00
sg114
g5431
sg120
I00
sg121
S'L'
sbsg122
(irule
FeatureMatrix
p5432
(dp5433
g112
(lp5434
(I00
g3925
tp5435
asg114
V[ -highTone ]
p5436
sbsg128
(irule
Guard
p5437
(dp5438
g107
I00
sg108
(lp5439
(irule
FeatureMatrix
p5440
(dp5441
g112
(lp5442
sg114
V[  ]
p5443
sba(irule
FeatureMatrix
p5444
(dp5445
g112
(lp5446
(I00
g3938
tp5447
a(I01
g3925
tp5448
asg114
V[ +highTone -liquid ]
p5449
sbasg118
I00
sg114
V[  ] [ +highTone -liquid ]
p5450
sg120
I00
sg121
S'R'
sbsg132
(irule
FeatureMatrix
p5451
(dp5452
g112
(lp5453
sg114
V[  ]
p5454
sbsg114
V[  ] ---> [ -highTone ] / [  ] _ [  ] [ +highTone -liquid ]
p5455
sba(irule
Rule
p5456
(dp5457
g104
(irule
Guard
p5458
(dp5459
g107
I00
sg108
(lp5460
sg118
I00
sg114
V
sg120
I00
sg121
S'L'
sbsg122
(irule
FeatureMatrix
p5461
(dp5462
g112
(lp5463
(I00
g3925
tp5464
asg114
V[ -highTone ]
p5465
sbsg128
(irule
Guard
p5466
(dp5467
g107
I00
sg108
(lp5468
(irule
FeatureMatrix
p5469
(dp5470
g112
(lp5471
sg114
V[  ]
p5472
sba(irule
FeatureMatrix
p5473
(dp5474
g112
(lp5475
(I00
g3938
tp5476
a(I01
g3925
tp5477
asg114
V[ +highTone -liquid ]
p5478
sbasg118
I00
sg114
V[  ] [ +highTone -liquid ]
p5479
sg120
I00
sg121
S'R'
sbsg132
(irule
FeatureMatrix
p5480
(dp5481
g112
(lp5482
(I01
g3999
tp5483
asg114
V[ +voice ]
p5484
sbsg114
V[ +voice ] ---> [ -highTone ] /  _ [  ] [ +highTone -liquid ]
p5485
sba(irule
Rule
p5486
(dp5487
g104
(irule
Guard
p5488
(dp5489
g107
I00
sg108
(lp5490
sg118
I00
sg114
V
sg120
I00
sg121
S'L'
sbsg122
(irule
FeatureMatrix
p5491
(dp5492
g112
(lp5493
(I00
g4195
tp5494
a(I00
g3925
tp5495
asg114
V[ -highTone -nasal ]
p5496
sbsg128
(irule
Guard
p5497
(dp5498
g107
I00
sg108
(lp5499
(irule
FeatureMatrix
p5500
(dp5501
g112
(lp5502
sg114
V[  ]
p5503
sba(irule
FeatureMatrix
p5504
(dp5505
g112
(lp5506
(I00
g3938
tp5507
a(I01
g3925
tp5508
asg114
V[ +highTone -liquid ]
p5509
sbasg118
I00
sg114
V[  ] [ +highTone -liquid ]
p5510
sg120
I00
sg121
S'R'
sbsg132
(irule
FeatureMatrix
p5511
(dp5512
g112
(lp5513
sg114
V[  ]
p5514
sbsg114
V[  ] ---> [ -highTone -nasal ] /  _ [  ] [ +highTone -liquid ]
p5515
sba(irule
Rule
p5516
(dp5517
g104
(irule
Guard
p5518
(dp5519
g107
I00
sg108
(lp5520
sg118
I00
sg114
V
sg120
I00
sg121
S'L'
sbsg122
(irule
FeatureMatrix
p5521
(dp5522
g112
(lp5523
(I00
g3925
tp5524
asg114
V[ -highTone ]
p5525
sbsg128
(irule
Guard
p5526
(dp5527
g107
I00
sg108
(lp5528
(irule
FeatureMatrix
p5529
(dp5530
g112
(lp5531
(I00
g4580
tp5532
asg114
V[ -tense ]
p5533
sba(irule
FeatureMatrix
p5534
(dp5535
g112
(lp5536
(I01
g3925
tp5537
asg114
V[ +highTone ]
p5538
sbasg118
I00
sg114
V[ -tense ] [ +highTone ]
p5539
sg120
I00
sg121
S'R'
sbsg132
(irule
FeatureMatrix
p5540
(dp5541
g112
(lp5542
(I00
g4550
tp5543
asg114
V[ -low ]
p5544
sbsg114
V[ -low ] ---> [ -highTone ] /  _ [ -tense ] [ +highTone ]
p5545
sba(irule
Rule
p5546
(dp5547
g104
(irule
Guard
p5548
(dp5549
g107
I00
sg108
(lp5550
sg118
I00
sg114
V
sg120
I00
sg121
S'L'
sbsg122
(irule
FeatureMatrix
p5551
(dp5552
g112
(lp5553
(I00
g3956
tp5554
a(I00
g3925
tp5555
a(I00
g4610
tp5556
asg114
V[ -anterior -coronal -highTone ]
p5557
sbsg128
(irule
Guard
p5558
(dp5559
g107
I00
sg108
(lp5560
(irule
FeatureMatrix
p5561
(dp5562
g112
(lp5563
sg114
V[  ]
p5564
sba(irule
FeatureMatrix
p5565
(dp5566
g112
(lp5567
(I01
g3925
tp5568
asg114
V[ +highTone ]
p5569
sbasg118
I00
sg114
V[  ] [ +highTone ]
p5570
sg120
I00
sg121
S'R'
sbsg132
(irule
FeatureMatrix
p5571
(dp5572
g112
(lp5573
sg114
V[  ]
p5574
sbsg114
V[  ] ---> [ -anterior -coronal -highTone ] /  _ [  ] [ +highTone ]
p5575
sba(irule
Rule
p5576
(dp5577
g104
(irule
Guard
p5578
(dp5579
g107
I00
sg108
(lp5580
sg118
I00
sg114
V
sg120
I00
sg121
S'L'
sbsg122
(irule
FeatureMatrix
p5581
(dp5582
g112
(lp5583
(I00
g3925
tp5584
a(I00
g4149
tp5585
a(I01
g3999
tp5586
asg114
V[ +voice -highTone -sibilant ]
p5587
sbsg128
(irule
Guard
p5588
(dp5589
g107
I00
sg108
(lp5590
(irule
FeatureMatrix
p5591
(dp5592
g112
(lp5593
sg114
V[  ]
p5594
sba(irule
FeatureMatrix
p5595
(dp5596
g112
(lp5597
(I01
g3925
tp5598
asg114
V[ +highTone ]
p5599
sbasg118
I00
sg114
V[  ] [ +highTone ]
p5600
sg120
I00
sg121
S'R'
sbsg132
(irule
FeatureMatrix
p5601
(dp5602
g112
(lp5603
sg114
V[  ]
p5604
sbsg114
V[  ] ---> [ +voice -highTone -sibilant ] /  _ [  ] [ +highTone ]
p5605
sba(irule
Rule
p5606
(dp5607
g104
(irule
Guard
p5608
(dp5609
g107
I00
sg108
(lp5610
sg118
I00
sg114
V
sg120
I00
sg121
S'L'
sbsg122
(irule
FeatureMatrix
p5611
(dp5612
g112
(lp5613
(I00
g3925
tp5614
a(I01
g3999
tp5615
asg114
V[ +voice -highTone ]
p5616
sbsg128
(irule
Guard
p5617
(dp5618
g107
I00
sg108
(lp5619
(irule
FeatureMatrix
p5620
(dp5621
g112
(lp5622
sg114
V[  ]
p5623
sba(irule
FeatureMatrix
p5624
(dp5625
g112
(lp5626
(I00
g4195
tp5627
a(I01
g3925
tp5628
asg114
V[ +highTone -nasal ]
p5629
sbasg118
I00
sg114
V[  ] [ +highTone -nasal ]
p5630
sg120
I00
sg121
S'R'
sbsg132
(irule
FeatureMatrix
p5631
(dp5632
g112
(lp5633
sg114
V[  ]
p5634
sbsg114
V[  ] ---> [ +voice -highTone ] /  _ [  ] [ +highTone -nasal ]
p5635
sba(irule
Rule
p5636
(dp5637
g104
(irule
Guard
p5638
(dp5639
g107
I00
sg108
(lp5640
sg118
I00
sg114
V
sg120
I00
sg121
S'L'
sbsg122
(irule
FeatureMatrix
p5641
(dp5642
g112
(lp5643
(I00
g4195
tp5644
a(I00
g4267
tp5645
a(I00
g3925
tp5646
asg114
V[ -highTone -lateral -nasal ]
p5647
sbsg128
(irule
Guard
p5648
(dp5649
g107
I00
sg108
(lp5650
(irule
FeatureMatrix
p5651
(dp5652
g112
(lp5653
sg114
V[  ]
p5654
sba(irule
FeatureMatrix
p5655
(dp5656
g112
(lp5657
(I01
g3925
tp5658
asg114
V[ +highTone ]
p5659
sbasg118
I00
sg114
V[  ] [ +highTone ]
p5660
sg120
I00
sg121
S'R'
sbsg132
(irule
FeatureMatrix
p5661
(dp5662
g112
(lp5663
sg114
V[  ]
p5664
sbsg114
V[  ] ---> [ -highTone -lateral -nasal ] /  _ [  ] [ +highTone ]
p5665
sba(irule
Rule
p5666
(dp5667
g104
(irule
Guard
p5668
(dp5669
g107
I00
sg108
(lp5670
(irule
FeatureMatrix
p5671
(dp5672
g112
(lp5673
sg114
V[  ]
p5674
sbasg118
I00
sg114
g5674
sg120
I00
sg121
S'L'
sbsg122
(irule
FeatureMatrix
p5675
(dp5676
g112
(lp5677
(I00
g3925
tp5678
asg114
V[ -highTone ]
p5679
sbsg128
(irule
Guard
p5680
(dp5681
g107
I00
sg108
(lp5682
(irule
FeatureMatrix
p5683
(dp5684
g112
(lp5685
(I00
g4498
tp5686
asg114
V[ -rounded ]
p5687
sba(irule
FeatureMatrix
p5688
(dp5689
g112
(lp5690
(I01
g3925
tp5691
asg114
V[ +highTone ]
p5692
sbasg118
I00
sg114
V[ -rounded ] [ +highTone ]
p5693
sg120
I00
sg121
S'R'
sbsg132
(irule
FeatureMatrix
p5694
(dp5695
g112
(lp5696
sg114
V[  ]
p5697
sbsg114
V[  ] ---> [ -highTone ] / [  ] _ [ -rounded ] [ +highTone ]
p5698
sba(irule
Rule
p5699
(dp5700
g104
(irule
Guard
p5701
(dp5702
g107
I00
sg108
(lp5703
(irule
FeatureMatrix
p5704
(dp5705
g112
(lp5706
sg114
V[  ]
p5707
sbasg118
I00
sg114
g5707
sg120
I00
sg121
S'L'
sbsg122
(irule
FeatureMatrix
p5708
(dp5709
g112
(lp5710
(I00
g3925
tp5711
asg114
V[ -highTone ]
p5712
sbsg128
(irule
Guard
p5713
(dp5714
g107
I00
sg108
(lp5715
(irule
FeatureMatrix
p5716
(dp5717
g112
(lp5718
sg114
V[  ]
p5719
sba(irule
FeatureMatrix
p5720
(dp5721
g112
(lp5722
(I00
g3956
tp5723
a(I01
g3925
tp5724
asg114
V[ +highTone -anterior ]
p5725
sbasg118
I00
sg114
V[  ] [ +highTone -anterior ]
p5726
sg120
I00
sg121
S'R'
sbsg132
(irule
FeatureMatrix
p5727
(dp5728
g112
(lp5729
sg114
V[  ]
p5730
sbsg114
V[  ] ---> [ -highTone ] / [  ] _ [  ] [ +highTone -anterior ]
p5731
sba(irule
Rule
p5732
(dp5733
g104
(irule
Guard
p5734
(dp5735
g107
I00
sg108
(lp5736
sg118
I00
sg114
V
sg120
I00
sg121
S'L'
sbsg122
(irule
FeatureMatrix
p5737
(dp5738
g112
(lp5739
(I00
g3925
tp5740
asg114
V[ -highTone ]
p5741
sbsg128
(irule
Guard
p5742
(dp5743
g107
I00
sg108
(lp5744
(irule
FeatureMatrix
p5745
(dp5746
g112
(lp5747
(I00
g4550
tp5748
asg114
V[ -low ]
p5749
sba(irule
FeatureMatrix
p5750
(dp5751
g112
(lp5752
(I00
g3938
tp5753
a(I01
g3925
tp5754
asg114
V[ +highTone -liquid ]
p5755
sbasg118
I00
sg114
V[ -low ] [ +highTone -liquid ]
p5756
sg120
I00
sg121
S'R'
sbsg132
(irule
FeatureMatrix
p5757
(dp5758
g112
(lp5759
sg114
V[  ]
p5760
sbsg114
V[  ] ---> [ -highTone ] /  _ [ -low ] [ +highTone -liquid ]
p5761
sba(irule
Rule
p5762
(dp5763
g104
(irule
Guard
p5764
(dp5765
g107
I00
sg108
(lp5766
(irule
FeatureMatrix
p5767
(dp5768
g112
(lp5769
sg114
V[  ]
p5770
sbasg118
I00
sg114
g5770
sg120
I00
sg121
S'L'
sbsg122
(irule
FeatureMatrix
p5771
(dp5772
g112
(lp5773
(I00
g3925
tp5774
asg114
V[ -highTone ]
p5775
sbsg128
(irule
Guard
p5776
(dp5777
g107
I00
sg108
(lp5778
(irule
FeatureMatrix
p5779
(dp5780
g112
(lp5781
(I00
g4580
tp5782
asg114
V[ -tense ]
p5783
sba(irule
FeatureMatrix
p5784
(dp5785
g112
(lp5786
(I01
g3925
tp5787
asg114
V[ +highTone ]
p5788
sbasg118
I00
sg114
V[ -tense ] [ +highTone ]
p5789
sg120
I00
sg121
S'R'
sbsg132
(irule
FeatureMatrix
p5790
(dp5791
g112
(lp5792
sg114
V[  ]
p5793
sbsg114
V[  ] ---> [ -highTone ] / [  ] _ [ -tense ] [ +highTone ]
p5794
sba(irule
Rule
p5795
(dp5796
g104
(irule
Guard
p5797
(dp5798
g107
I00
sg108
(lp5799
sg118
I00
sg114
V
sg120
I00
sg121
S'L'
sbsg122
(irule
FeatureMatrix
p5800
(dp5801
g112
(lp5802
(I00
g3925
tp5803
asg114
V[ -highTone ]
p5804
sbsg128
(irule
Guard
p5805
(dp5806
g107
I00
sg108
(lp5807
(irule
FeatureMatrix
p5808
(dp5809
g112
(lp5810
sg114
V[  ]
p5811
sba(irule
FeatureMatrix
p5812
(dp5813
g112
(lp5814
(I01
g3925
tp5815
asg114
V[ +highTone ]
p5816
sbasg118
I00
sg114
V[  ] [ +highTone ]
p5817
sg120
I00
sg121
S'R'
sbsg132
(irule
FeatureMatrix
p5818
(dp5819
g112
(lp5820
(I01
g4034
tp5821
a(I00
g4149
tp5822
asg114
V[ +high -sibilant ]
p5823
sbsg114
V[ +high -sibilant ] ---> [ -highTone ] /  _ [  ] [ +highTone ]
p5824
sba(irule
Rule
p5825
(dp5826
g104
(irule
Guard
p5827
(dp5828
g107
I00
sg108
(lp5829
sg118
I00
sg114
V
sg120
I00
sg121
S'L'
sbsg122
(irule
FeatureMatrix
p5830
(dp5831
g112
(lp5832
(I00
g3925
tp5833
asg114
V[ -highTone ]
p5834
sbsg128
(irule
Guard
p5835
(dp5836
g107
I00
sg108
(lp5837
(irule
FeatureMatrix
p5838
(dp5839
g112
(lp5840
(I00
g4580
tp5841
asg114
V[ -tense ]
p5842
sba(irule
FeatureMatrix
p5843
(dp5844
g112
(lp5845
(I00
g3938
tp5846
a(I01
g3925
tp5847
asg114
V[ +highTone -liquid ]
p5848
sbasg118
I00
sg114
V[ -tense ] [ +highTone -liquid ]
p5849
sg120
I00
sg121
S'R'
sbsg132
(irule
FeatureMatrix
p5850
(dp5851
g112
(lp5852
sg114
V[  ]
p5853
sbsg114
V[  ] ---> [ -highTone ] /  _ [ -tense ] [ +highTone -liquid ]
p5854
sba(irule
Rule
p5855
(dp5856
g104
(irule
Guard
p5857
(dp5858
g107
I00
sg108
(lp5859
sg118
I00
sg114
V
sg120
I00
sg121
S'L'
sbsg122
(irule
FeatureMatrix
p5860
(dp5861
g112
(lp5862
(I00
g3925
tp5863
asg114
V[ -highTone ]
p5864
sbsg128
(irule
Guard
p5865
(dp5866
g107
I00
sg108
(lp5867
(irule
FeatureMatrix
p5868
(dp5869
g112
(lp5870
sg114
V[  ]
p5871
sba(irule
FeatureMatrix
p5872
(dp5873
g112
(lp5874
(I00
g3938
tp5875
a(I01
g3925
tp5876
asg114
V[ +highTone -liquid ]
p5877
sbasg118
I00
sg114
V[  ] [ +highTone -liquid ]
p5878
sg120
I00
sg121
S'R'
sbsg132
(irule
FeatureMatrix
p5879
(dp5880
g112
(lp5881
(I00
g3956
tp5882
asg114
V[ -anterior ]
p5883
sbsg114
V[ -anterior ] ---> [ -highTone ] /  _ [  ] [ +highTone -liquid ]
p5884
sba(irule
Rule
p5885
(dp5886
g104
(irule
Guard
p5887
(dp5888
g107
I00
sg108
(lp5889
sg118
I00
sg114
V
sg120
I00
sg121
S'L'
sbsg122
(irule
FeatureMatrix
p5890
(dp5891
g112
(lp5892
(I00
g3925
tp5893
asg114
V[ -highTone ]
p5894
sbsg128
(irule
Guard
p5895
(dp5896
g107
I00
sg108
(lp5897
(irule
FeatureMatrix
p5898
(dp5899
g112
(lp5900
sg114
V[  ]
p5901
sba(irule
FeatureMatrix
p5902
(dp5903
g112
(lp5904
(I01
g3925
tp5905
asg114
V[ +highTone ]
p5906
sbasg118
I00
sg114
V[  ] [ +highTone ]
p5907
sg120
I00
sg121
S'R'
sbsg132
(irule
FeatureMatrix
p5908
(dp5909
g112
(lp5910
(I01
g4034
tp5911
a(I00
g4550
tp5912
asg114
V[ +high -low ]
p5913
sbsg114
V[ +high -low ] ---> [ -highTone ] /  _ [  ] [ +highTone ]
p5914
sba(irule
Rule
p5915
(dp5916
g104
(irule
Guard
p5917
(dp5918
g107
I00
sg108
(lp5919
sg118
I00
sg114
V
sg120
I00
sg121
S'L'
sbsg122
(irule
FeatureMatrix
p5920
(dp5921
g112
(lp5922
(I00
g3925
tp5923
a(I01
g3999
tp5924
asg114
V[ +voice -highTone ]
p5925
sbsg128
(irule
Guard
p5926
(dp5927
g107
I00
sg108
(lp5928
(irule
FeatureMatrix
p5929
(dp5930
g112
(lp5931
sg114
V[  ]
p5932
sba(irule
FeatureMatrix
p5933
(dp5934
g112
(lp5935
(I01
g3925
tp5936
asg114
V[ +highTone ]
p5937
sbasg118
I00
sg114
V[  ] [ +highTone ]
p5938
sg120
I00
sg121
S'R'
sbsg132
(irule
FeatureMatrix
p5939
(dp5940
g112
(lp5941
(I00
g4550
tp5942
asg114
V[ -low ]
p5943
sbsg114
V[ -low ] ---> [ +voice -highTone ] /  _ [  ] [ +highTone ]
p5944
sba(irule
Rule
p5945
(dp5946
g104
(irule
Guard
p5947
(dp5948
g107
I00
sg108
(lp5949
(irule
FeatureMatrix
p5950
(dp5951
g112
(lp5952
sg114
V[  ]
p5953
sbasg118
I00
sg114
g5953
sg120
I00
sg121
S'L'
sbsg122
(irule
FeatureMatrix
p5954
(dp5955
g112
(lp5956
(I00
g3925
tp5957
asg114
V[ -highTone ]
p5958
sbsg128
(irule
Guard
p5959
(dp5960
g107
I00
sg108
(lp5961
(irule
FeatureMatrix
p5962
(dp5963
g112
(lp5964
sg114
V[  ]
p5965
sba(irule
FeatureMatrix
p5966
(dp5967
g112
(lp5968
(I01
g3925
tp5969
a(I01
g3999
tp5970
asg114
V[ +highTone +voice ]
p5971
sbasg118
I00
sg114
V[  ] [ +highTone +voice ]
p5972
sg120
I00
sg121
S'R'
sbsg132
(irule
FeatureMatrix
p5973
(dp5974
g112
(lp5975
sg114
V[  ]
p5976
sbsg114
V[  ] ---> [ -highTone ] / [  ] _ [  ] [ +highTone +voice ]
p5977
sba(irule
Rule
p5978
(dp5979
g104
(irule
Guard
p5980
(dp5981
g107
I00
sg108
(lp5982
sg118
I00
sg114
V
sg120
I00
sg121
S'L'
sbsg122
(irule
FeatureMatrix
p5983
(dp5984
g112
(lp5985
(I00
g3925
tp5986
a(I00
g4149
tp5987
asg114
V[ -highTone -sibilant ]
p5988
sbsg128
(irule
Guard
p5989
(dp5990
g107
I00
sg108
(lp5991
(irule
FeatureMatrix
p5992
(dp5993
g112
(lp5994
sg114
V[  ]
p5995
sba(irule
FeatureMatrix
p5996
(dp5997
g112
(lp5998
(I00
g3938
tp5999
a(I01
g3925
tp6000
asg114
V[ +highTone -liquid ]
p6001
sbasg118
I00
sg114
V[  ] [ +highTone -liquid ]
p6002
sg120
I00
sg121
S'R'
sbsg132
(irule
FeatureMatrix
p6003
(dp6004
g112
(lp6005
sg114
V[  ]
p6006
sbsg114
V[  ] ---> [ -highTone -sibilant ] /  _ [  ] [ +highTone -liquid ]
p6007
sba(irule
Rule
p6008
(dp6009
g104
(irule
Guard
p6010
(dp6011
g107
I00
sg108
(lp6012
(irule
FeatureMatrix
p6013
(dp6014
g112
(lp6015
sg114
V[  ]
p6016
sbasg118
I00
sg114
g6016
sg120
I00
sg121
S'L'
sbsg122
(irule
FeatureMatrix
p6017
(dp6018
g112
(lp6019
(I00
g3925
tp6020
asg114
V[ -highTone ]
p6021
sbsg128
(irule
Guard
p6022
(dp6023
g107
I00
sg108
(lp6024
(irule
FeatureMatrix
p6025
(dp6026
g112
(lp6027
sg114
V[  ]
p6028
sba(irule
FeatureMatrix
p6029
(dp6030
g112
(lp6031
(I01
g3925
tp6032
asg114
V[ +highTone ]
p6033
sbasg118
I00
sg114
V[  ] [ +highTone ]
p6034
sg120
I00
sg121
S'R'
sbsg132
(irule
FeatureMatrix
p6035
(dp6036
g112
(lp6037
(I00
g4550
tp6038
asg114
V[ -low ]
p6039
sbsg114
V[ -low ] ---> [ -highTone ] / [  ] _ [  ] [ +highTone ]
p6040
sba(irule
Rule
p6041
(dp6042
g104
(irule
Guard
p6043
(dp6044
g107
I00
sg108
(lp6045
sg118
I00
sg114
V
sg120
I00
sg121
S'L'
sbsg122
(irule
FeatureMatrix
p6046
(dp6047
g112
(lp6048
(I00
g3925
tp6049
a(I01
g4580
tp6050
a(I01
g3999
tp6051
asg114
V[ +tense +voice -highTone ]
p6052
sbsg128
(irule
Guard
p6053
(dp6054
g107
I00
sg108
(lp6055
(irule
FeatureMatrix
p6056
(dp6057
g112
(lp6058
sg114
V[  ]
p6059
sba(irule
FeatureMatrix
p6060
(dp6061
g112
(lp6062
(I01
g3925
tp6063
asg114
V[ +highTone ]
p6064
sbasg118
I00
sg114
V[  ] [ +highTone ]
p6065
sg120
I00
sg121
S'R'
sbsg132
(irule
FeatureMatrix
p6066
(dp6067
g112
(lp6068
sg114
V[  ]
p6069
sbsg114
V[  ] ---> [ +tense +voice -highTone ] /  _ [  ] [ +highTone ]
p6070
sba(irule
Rule
p6071
(dp6072
g104
(irule
Guard
p6073
(dp6074
g107
I00
sg108
(lp6075
sg118
I00
sg114
V
sg120
I00
sg121
S'L'
sbsg122
(irule
FeatureMatrix
p6076
(dp6077
g112
(lp6078
(I00
g3938
tp6079
a(I00
g4195
tp6080
a(I00
g3925
tp6081
asg114
V[ -highTone -liquid -nasal ]
p6082
sbsg128
(irule
Guard
p6083
(dp6084
g107
I00
sg108
(lp6085
(irule
FeatureMatrix
p6086
(dp6087
g112
(lp6088
sg114
V[  ]
p6089
sba(irule
FeatureMatrix
p6090
(dp6091
g112
(lp6092
(I01
g3925
tp6093
asg114
V[ +highTone ]
p6094
sbasg118
I00
sg114
V[  ] [ +highTone ]
p6095
sg120
I00
sg121
S'R'
sbsg132
(irule
FeatureMatrix
p6096
(dp6097
g112
(lp6098
sg114
V[  ]
p6099
sbsg114
V[  ] ---> [ -highTone -liquid -nasal ] /  _ [  ] [ +highTone ]
p6100
sba(irule
Rule
p6101
(dp6102
g104
(irule
Guard
p6103
(dp6104
g107
I00
sg108
(lp6105
sg118
I00
sg114
V
sg120
I00
sg121
S'L'
sbsg122
(irule
FeatureMatrix
p6106
(dp6107
g112
(lp6108
(I00
g3925
tp6109
asg114
V[ -highTone ]
p6110
sbsg128
(irule
Guard
p6111
(dp6112
g107
I00
sg108
(lp6113
(irule
FeatureMatrix
p6114
(dp6115
g112
(lp6116
sg114
V[  ]
p6117
sba(irule
FeatureMatrix
p6118
(dp6119
g112
(lp6120
(I00
g3938
tp6121
a(I01
g3925
tp6122
asg114
V[ +highTone -liquid ]
p6123
sbasg118
I00
sg114
V[  ] [ +highTone -liquid ]
p6124
sg120
I00
sg121
S'R'
sbsg132
(irule
FeatureMatrix
p6125
(dp6126
g112
(lp6127
(I00
g4550
tp6128
asg114
V[ -low ]
p6129
sbsg114
V[ -low ] ---> [ -highTone ] /  _ [  ] [ +highTone -liquid ]
p6130
sba(irule
Rule
p6131
(dp6132
g104
(irule
Guard
p6133
(dp6134
g107
I00
sg108
(lp6135
sg118
I00
sg114
V
sg120
I00
sg121
S'L'
sbsg122
(irule
FeatureMatrix
p6136
(dp6137
g112
(lp6138
(I00
g4267
tp6139
a(I00
g3925
tp6140
a(I01
g4386
tp6141
asg114
V[ +sonorant -highTone -lateral ]
p6142
sbsg128
(irule
Guard
p6143
(dp6144
g107
I00
sg108
(lp6145
(irule
FeatureMatrix
p6146
(dp6147
g112
(lp6148
sg114
V[  ]
p6149
sba(irule
FeatureMatrix
p6150
(dp6151
g112
(lp6152
(I01
g3925
tp6153
asg114
V[ +highTone ]
p6154
sbasg118
I00
sg114
V[  ] [ +highTone ]
p6155
sg120
I00
sg121
S'R'
sbsg132
(irule
FeatureMatrix
p6156
(dp6157
g112
(lp6158
sg114
V[  ]
p6159
sbsg114
V[  ] ---> [ +sonorant -highTone -lateral ] /  _ [  ] [ +highTone ]
p6160
sba(irule
Rule
p6161
(dp6162
g104
(irule
Guard
p6163
(dp6164
g107
I00
sg108
(lp6165
sg118
I00
sg114
V
sg120
I00
sg121
S'L'
sbsg122
(irule
FeatureMatrix
p6166
(dp6167
g112
(lp6168
(I00
g4195
tp6169
a(I00
g3925
tp6170
a(I01
g4315
tp6171
asg114
V[ +vowel -highTone -nasal ]
p6172
sbsg128
(irule
Guard
p6173
(dp6174
g107
I00
sg108
(lp6175
(irule
FeatureMatrix
p6176
(dp6177
g112
(lp6178
sg114
V[  ]
p6179
sba(irule
FeatureMatrix
p6180
(dp6181
g112
(lp6182
(I01
g3925
tp6183
asg114
V[ +highTone ]
p6184
sbasg118
I00
sg114
V[  ] [ +highTone ]
p6185
sg120
I00
sg121
S'R'
sbsg132
(irule
FeatureMatrix
p6186
(dp6187
g112
(lp6188
sg114
V[  ]
p6189
sbsg114
V[  ] ---> [ +vowel -highTone -nasal ] /  _ [  ] [ +highTone ]
p6190
sba(irule
Rule
p6191
(dp6192
g104
(irule
Guard
p6193
(dp6194
g107
I00
sg108
(lp6195
sg118
I00
sg114
V
sg120
I00
sg121
S'L'
sbsg122
(irule
FeatureMatrix
p6196
(dp6197
g112
(lp6198
(I00
g3925
tp6199
a(I01
g4315
tp6200
a(I00
g4149
tp6201
asg114
V[ +vowel -highTone -sibilant ]
p6202
sbsg128
(irule
Guard
p6203
(dp6204
g107
I00
sg108
(lp6205
(irule
FeatureMatrix
p6206
(dp6207
g112
(lp6208
sg114
V[  ]
p6209
sba(irule
FeatureMatrix
p6210
(dp6211
g112
(lp6212
(I01
g3925
tp6213
asg114
V[ +highTone ]
p6214
sbasg118
I00
sg114
V[  ] [ +highTone ]
p6215
sg120
I00
sg121
S'R'
sbsg132
(irule
FeatureMatrix
p6216
(dp6217
g112
(lp6218
sg114
V[  ]
p6219
sbsg114
V[  ] ---> [ +vowel -highTone -sibilant ] /  _ [  ] [ +highTone ]
p6220
sba(irule
Rule
p6221
(dp6222
g104
(irule
Guard
p6223
(dp6224
g107
I00
sg108
(lp6225
(irule
FeatureMatrix
p6226
(dp6227
g112
(lp6228
sg114
V[  ]
p6229
sbasg118
I00
sg114
g6229
sg120
I00
sg121
S'L'
sbsg122
(irule
FeatureMatrix
p6230
(dp6231
g112
(lp6232
(I00
g3925
tp6233
asg114
V[ -highTone ]
p6234
sbsg128
(irule
Guard
p6235
(dp6236
g107
I00
sg108
(lp6237
(irule
FeatureMatrix
p6238
(dp6239
g112
(lp6240
sg114
V[  ]
p6241
sba(irule
FeatureMatrix
p6242
(dp6243
g112
(lp6244
(I01
g3925
tp6245
asg114
V[ +highTone ]
p6246
sbasg118
I00
sg114
V[  ] [ +highTone ]
p6247
sg120
I00
sg121
S'R'
sbsg132
(irule
FeatureMatrix
p6248
(dp6249
g112
(lp6250
(I00
g4149
tp6251
asg114
V[ -sibilant ]
p6252
sbsg114
V[ -sibilant ] ---> [ -highTone ] / [  ] _ [  ] [ +highTone ]
p6253
sba(irule
Rule
p6254
(dp6255
g104
(irule
Guard
p6256
(dp6257
g107
I00
sg108
(lp6258
sg118
I00
sg114
V
sg120
I00
sg121
S'L'
sbsg122
(irule
FeatureMatrix
p6259
(dp6260
g112
(lp6261
(I00
g3925
tp6262
asg114
V[ -highTone ]
p6263
sbsg128
(irule
Guard
p6264
(dp6265
g107
I00
sg108
(lp6266
(irule
FeatureMatrix
p6267
(dp6268
g112
(lp6269
sg114
V[  ]
p6270
sba(irule
FeatureMatrix
p6271
(dp6272
g112
(lp6273
(I00
g3938
tp6274
a(I01
g3925
tp6275
a(I01
g3999
tp6276
asg114
V[ +highTone +voice -liquid ]
p6277
sbasg118
I00
sg114
V[  ] [ +highTone +voice -liquid ]
p6278
sg120
I00
sg121
S'R'
sbsg132
(irule
FeatureMatrix
p6279
(dp6280
g112
(lp6281
sg114
V[  ]
p6282
sbsg114
V[  ] ---> [ -highTone ] /  _ [  ] [ +highTone +voice -liquid ]
p6283
sba(irule
Rule
p6284
(dp6285
g104
(irule
Guard
p6286
(dp6287
g107
I00
sg108
(lp6288
sg118
I00
sg114
V
sg120
I00
sg121
S'L'
sbsg122
(irule
FeatureMatrix
p6289
(dp6290
g112
(lp6291
(I00
g3925
tp6292
a(I00
g4149
tp6293
asg114
V[ -highTone -sibilant ]
p6294
sbsg128
(irule
Guard
p6295
(dp6296
g107
I00
sg108
(lp6297
(irule
FeatureMatrix
p6298
(dp6299
g112
(lp6300
sg114
V[  ]
p6301
sba(irule
FeatureMatrix
p6302
(dp6303
g112
(lp6304
(I01
g3925
tp6305
a(I01
g3999
tp6306
asg114
V[ +highTone +voice ]
p6307
sbasg118
I00
sg114
V[  ] [ +highTone +voice ]
p6308
sg120
I00
sg121
S'R'
sbsg132
(irule
FeatureMatrix
p6309
(dp6310
g112
(lp6311
sg114
V[  ]
p6312
sbsg114
V[  ] ---> [ -highTone -sibilant ] /  _ [  ] [ +highTone +voice ]
p6313
sba(irule
Rule
p6314
(dp6315
g104
(irule
Guard
p6316
(dp6317
g107
I00
sg108
(lp6318
sg118
I00
sg114
V
sg120
I00
sg121
S'L'
sbsg122
(irule
FeatureMatrix
p6319
(dp6320
g112
(lp6321
(I00
g3925
tp6322
a(I00
g4149
tp6323
asg114
V[ -highTone -sibilant ]
p6324
sbsg128
(irule
Guard
p6325
(dp6326
g107
I00
sg108
(lp6327
(irule
FeatureMatrix
p6328
(dp6329
g112
(lp6330
sg114
V[  ]
p6331
sba(irule
FeatureMatrix
p6332
(dp6333
g112
(lp6334
(I00
g3956
tp6335
a(I01
g3925
tp6336
asg114
V[ +highTone -anterior ]
p6337
sbasg118
I00
sg114
V[  ] [ +highTone -anterior ]
p6338
sg120
I00
sg121
S'R'
sbsg132
(irule
FeatureMatrix
p6339
(dp6340
g112
(lp6341
sg114
V[  ]
p6342
sbsg114
V[  ] ---> [ -highTone -sibilant ] /  _ [  ] [ +highTone -anterior ]
p6343
sba(irule
Rule
p6344
(dp6345
g104
(irule
Guard
p6346
(dp6347
g107
I00
sg108
(lp6348
sg118
I00
sg114
V
sg120
I00
sg121
S'L'
sbsg122
(irule
FeatureMatrix
p6349
(dp6350
g112
(lp6351
(I00
g3925
tp6352
asg114
V[ -highTone ]
p6353
sbsg128
(irule
Guard
p6354
(dp6355
g107
I00
sg108
(lp6356
(irule
FeatureMatrix
p6357
(dp6358
g112
(lp6359
(I00
g4580
tp6360
asg114
V[ -tense ]
p6361
sba(irule
FeatureMatrix
p6362
(dp6363
g112
(lp6364
(I01
g3925
tp6365
a(I00
g4149
tp6366
asg114
V[ +highTone -sibilant ]
p6367
sbasg118
I00
sg114
V[ -tense ] [ +highTone -sibilant ]
p6368
sg120
I00
sg121
S'R'
sbsg132
(irule
FeatureMatrix
p6369
(dp6370
g112
(lp6371
sg114
V[  ]
p6372
sbsg114
V[  ] ---> [ -highTone ] /  _ [ -tense ] [ +highTone -sibilant ]
p6373
sba(irule
Rule
p6374
(dp6375
g104
(irule
Guard
p6376
(dp6377
g107
I00
sg108
(lp6378
sg118
I00
sg114
V
sg120
I00
sg121
S'L'
sbsg122
(irule
FeatureMatrix
p6379
(dp6380
g112
(lp6381
(I00
g3925
tp6382
asg114
V[ -highTone ]
p6383
sbsg128
(irule
Guard
p6384
(dp6385
g107
I00
sg108
(lp6386
(irule
FeatureMatrix
p6387
(dp6388
g112
(lp6389
(I00
g4498
tp6390
asg114
V[ -rounded ]
p6391
sba(irule
FeatureMatrix
p6392
(dp6393
g112
(lp6394
(I01
g3925
tp6395
asg114
V[ +highTone ]
p6396
sbasg118
I00
sg114
V[ -rounded ] [ +highTone ]
p6397
sg120
I00
sg121
S'R'
sbsg132
(irule
FeatureMatrix
p6398
(dp6399
g112
(lp6400
(I00
g4550
tp6401
asg114
V[ -low ]
p6402
sbsg114
V[ -low ] ---> [ -highTone ] /  _ [ -rounded ] [ +highTone ]
p6403
sba(irule
Rule
p6404
(dp6405
g104
(irule
Guard
p6406
(dp6407
g107
I00
sg108
(lp6408
sg118
I00
sg114
V
sg120
I00
sg121
S'L'
sbsg122
(irule
FeatureMatrix
p6409
(dp6410
g112
(lp6411
(I00
g3925
tp6412
a(I01
g4580
tp6413
asg114
V[ +tense -highTone ]
p6414
sbsg128
(irule
Guard
p6415
(dp6416
g107
I00
sg108
(lp6417
(irule
FeatureMatrix
p6418
(dp6419
g112
(lp6420
sg114
V[  ]
p6421
sba(irule
FeatureMatrix
p6422
(dp6423
g112
(lp6424
(I00
g3938
tp6425
a(I01
g3925
tp6426
asg114
V[ +highTone -liquid ]
p6427
sbasg118
I00
sg114
V[  ] [ +highTone -liquid ]
p6428
sg120
I00
sg121
S'R'
sbsg132
(irule
FeatureMatrix
p6429
(dp6430
g112
(lp6431
sg114
V[  ]
p6432
sbsg114
V[  ] ---> [ +tense -highTone ] /  _ [  ] [ +highTone -liquid ]
p6433
sba(irule
Rule
p6434
(dp6435
g104
(irule
Guard
p6436
(dp6437
g107
I00
sg108
(lp6438
sg118
I00
sg114
V
sg120
I00
sg121
S'L'
sbsg122
(irule
FeatureMatrix
p6439
(dp6440
g112
(lp6441
(I00
g3925
tp6442
a(I00
g4149
tp6443
asg114
V[ -highTone -sibilant ]
p6444
sbsg128
(irule
Guard
p6445
(dp6446
g107
I00
sg108
(lp6447
(irule
FeatureMatrix
p6448
(dp6449
g112
(lp6450
sg114
V[  ]
p6451
sba(irule
FeatureMatrix
p6452
(dp6453
g112
(lp6454
(I01
g4225
tp6455
a(I01
g3925
tp6456
asg114
V[ +continuant +highTone ]
p6457
sbasg118
I00
sg114
V[  ] [ +continuant +highTone ]
p6458
sg120
I00
sg121
S'R'
sbsg132
(irule
FeatureMatrix
p6459
(dp6460
g112
(lp6461
sg114
V[  ]
p6462
sbsg114
V[  ] ---> [ -highTone -sibilant ] /  _ [  ] [ +continuant +highTone ]
p6463
sba(irule
Rule
p6464
(dp6465
g104
(irule
Guard
p6466
(dp6467
g107
I00
sg108
(lp6468
sg118
I00
sg114
V
sg120
I00
sg121
S'L'
sbsg122
(irule
FeatureMatrix
p6469
(dp6470
g112
(lp6471
(I00
g3925
tp6472
asg114
V[ -highTone ]
p6473
sbsg128
(irule
Guard
p6474
(dp6475
g107
I00
sg108
(lp6476
(irule
FeatureMatrix
p6477
(dp6478
g112
(lp6479
(I00
g4580
tp6480
asg114
V[ -tense ]
p6481
sba(irule
FeatureMatrix
p6482
(dp6483
g112
(lp6484
(I00
g4267
tp6485
a(I01
g3925
tp6486
asg114
V[ +highTone -lateral ]
p6487
sbasg118
I00
sg114
V[ -tense ] [ +highTone -lateral ]
p6488
sg120
I00
sg121
S'R'
sbsg132
(irule
FeatureMatrix
p6489
(dp6490
g112
(lp6491
sg114
V[  ]
p6492
sbsg114
V[  ] ---> [ -highTone ] /  _ [ -tense ] [ +highTone -lateral ]
p6493
sba(irule
Rule
p6494
(dp6495
g104
(irule
Guard
p6496
(dp6497
g107
I00
sg108
(lp6498
sg118
I00
sg114
V
sg120
I00
sg121
S'L'
sbsg122
(irule
FeatureMatrix
p6499
(dp6500
g112
(lp6501
(I00
g3925
tp6502
a(I01
g3999
tp6503
asg114
V[ +voice -highTone ]
p6504
sbsg128
(irule
Guard
p6505
(dp6506
g107
I00
sg108
(lp6507
(irule
FeatureMatrix
p6508
(dp6509
g112
(lp6510
sg114
V[  ]
p6511
sba(irule
FeatureMatrix
p6512
(dp6513
g112
(lp6514
(I00
g3956
tp6515
a(I01
g3925
tp6516
asg114
V[ +highTone -anterior ]
p6517
sbasg118
I00
sg114
V[  ] [ +highTone -anterior ]
p6518
sg120
I00
sg121
S'R'
sbsg132
(irule
FeatureMatrix
p6519
(dp6520
g112
(lp6521
sg114
V[  ]
p6522
sbsg114
V[  ] ---> [ +voice -highTone ] /  _ [  ] [ +highTone -anterior ]
p6523
sba(irule
Rule
p6524
(dp6525
g104
(irule
Guard
p6526
(dp6527
g107
I00
sg108
(lp6528
(irule
FeatureMatrix
p6529
(dp6530
g112
(lp6531
sg114
V[  ]
p6532
sbasg118
I00
sg114
g6532
sg120
I00
sg121
S'L'
sbsg122
(irule
FeatureMatrix
p6533
(dp6534
g112
(lp6535
(I00
g3925
tp6536
asg114
V[ -highTone ]
p6537
sbsg128
(irule
Guard
p6538
(dp6539
g107
I00
sg108
(lp6540
(irule
FeatureMatrix
p6541
(dp6542
g112
(lp6543
sg114
V[  ]
p6544
sba(irule
FeatureMatrix
p6545
(dp6546
g112
(lp6547
(I01
g4225
tp6548
a(I01
g3925
tp6549
asg114
V[ +continuant +highTone ]
p6550
sbasg118
I00
sg114
V[  ] [ +continuant +highTone ]
p6551
sg120
I00
sg121
S'R'
sbsg132
(irule
FeatureMatrix
p6552
(dp6553
g112
(lp6554
sg114
V[  ]
p6555
sbsg114
V[  ] ---> [ -highTone ] / [  ] _ [  ] [ +continuant +highTone ]
p6556
sba(irule
Rule
p6557
(dp6558
g104
(irule
Guard
p6559
(dp6560
g107
I00
sg108
(lp6561
sg118
I00
sg114
V
sg120
I00
sg121
S'L'
sbsg122
(irule
FeatureMatrix
p6562
(dp6563
g112
(lp6564
(I00
g3925
tp6565
asg114
V[ -highTone ]
p6566
sbsg128
(irule
Guard
p6567
(dp6568
g107
I00
sg108
(lp6569
(irule
FeatureMatrix
p6570
(dp6571
g112
(lp6572
sg114
V[  ]
p6573
sba(irule
FeatureMatrix
p6574
(dp6575
g112
(lp6576
(I00
g3938
tp6577
a(I00
g4267
tp6578
a(I01
g3925
tp6579
asg114
V[ +highTone -lateral -liquid ]
p6580
sbasg118
I00
sg114
V[  ] [ +highTone -lateral -liquid ]
p6581
sg120
I00
sg121
S'R'
sbsg132
(irule
FeatureMatrix
p6582
(dp6583
g112
(lp6584
sg114
V[  ]
p6585
sbsg114
V[  ] ---> [ -highTone ] /  _ [  ] [ +highTone -lateral -liquid ]
p6586
sba(irule
Rule
p6587
(dp6588
g104
(irule
Guard
p6589
(dp6590
g107
I00
sg108
(lp6591
sg118
I00
sg114
V
sg120
I00
sg121
S'L'
sbsg122
(irule
FeatureMatrix
p6592
(dp6593
g112
(lp6594
(I00
g3956
tp6595
a(I00
g4195
tp6596
a(I00
g3925
tp6597
asg114
V[ -anterior -highTone -nasal ]
p6598
sbsg128
(irule
Guard
p6599
(dp6600
g107
I00
sg108
(lp6601
(irule
FeatureMatrix
p6602
(dp6603
g112
(lp6604
sg114
V[  ]
p6605
sba(irule
FeatureMatrix
p6606
(dp6607
g112
(lp6608
(I01
g3925
tp6609
asg114
V[ +highTone ]
p6610
sbasg118
I00
sg114
V[  ] [ +highTone ]
p6611
sg120
I00
sg121
S'R'
sbsg132
(irule
FeatureMatrix
p6612
(dp6613
g112
(lp6614
sg114
V[  ]
p6615
sbsg114
V[  ] ---> [ -anterior -highTone -nasal ] /  _ [  ] [ +highTone ]
p6616
sba(irule
Rule
p6617
(dp6618
g104
(irule
Guard
p6619
(dp6620
g107
I00
sg108
(lp6621
sg118
I00
sg114
V
sg120
I00
sg121
S'L'
sbsg122
(irule
FeatureMatrix
p6622
(dp6623
g112
(lp6624
(I00
g3925
tp6625
a(I00
g4550
tp6626
a(I00
g4149
tp6627
asg114
V[ -highTone -low -sibilant ]
p6628
sbsg128
(irule
Guard
p6629
(dp6630
g107
I00
sg108
(lp6631
(irule
FeatureMatrix
p6632
(dp6633
g112
(lp6634
sg114
V[  ]
p6635
sba(irule
FeatureMatrix
p6636
(dp6637
g112
(lp6638
(I01
g3925
tp6639
asg114
V[ +highTone ]
p6640
sbasg118
I00
sg114
V[  ] [ +highTone ]
p6641
sg120
I00
sg121
S'R'
sbsg132
(irule
FeatureMatrix
p6642
(dp6643
g112
(lp6644
sg114
V[  ]
p6645
sbsg114
V[  ] ---> [ -highTone -low -sibilant ] /  _ [  ] [ +highTone ]
p6646
sba(irule
Rule
p6647
(dp6648
g104
(irule
Guard
p6649
(dp6650
g107
I00
sg108
(lp6651
sg118
I00
sg114
V
sg120
I00
sg121
S'L'
sbsg122
(irule
FeatureMatrix
p6652
(dp6653
g112
(lp6654
(I00
g4195
tp6655
a(I00
g3925
tp6656
a(I00
g4610
tp6657
asg114
V[ -coronal -highTone -nasal ]
p6658
sbsg128
(irule
Guard
p6659
(dp6660
g107
I00
sg108
(lp6661
(irule
FeatureMatrix
p6662
(dp6663
g112
(lp6664
sg114
V[  ]
p6665
sba(irule
FeatureMatrix
p6666
(dp6667
g112
(lp6668
(I01
g3925
tp6669
asg114
V[ +highTone ]
p6670
sbasg118
I00
sg114
V[  ] [ +highTone ]
p6671
sg120
I00
sg121
S'R'
sbsg132
(irule
FeatureMatrix
p6672
(dp6673
g112
(lp6674
sg114
V[  ]
p6675
sbsg114
V[  ] ---> [ -coronal -highTone -nasal ] /  _ [  ] [ +highTone ]
p6676
sba(irule
Rule
p6677
(dp6678
g104
(irule
Guard
p6679
(dp6680
g107
I00
sg108
(lp6681
sg118
I00
sg114
V
sg120
I00
sg121
S'L'
sbsg122
(irule
FeatureMatrix
p6682
(dp6683
g112
(lp6684
(I00
g3956
tp6685
a(I00
g4267
tp6686
a(I00
g3925
tp6687
asg114
V[ -anterior -highTone -lateral ]
p6688
sbsg128
(irule
Guard
p6689
(dp6690
g107
I00
sg108
(lp6691
(irule
FeatureMatrix
p6692
(dp6693
g112
(lp6694
sg114
V[  ]
p6695
sba(irule
FeatureMatrix
p6696
(dp6697
g112
(lp6698
(I01
g3925
tp6699
asg114
V[ +highTone ]
p6700
sbasg118
I00
sg114
V[  ] [ +highTone ]
p6701
sg120
I00
sg121
S'R'
sbsg132
(irule
FeatureMatrix
p6702
(dp6703
g112
(lp6704
sg114
V[  ]
p6705
sbsg114
V[  ] ---> [ -anterior -highTone -lateral ] /  _ [  ] [ +highTone ]
p6706
sba(irule
Rule
p6707
(dp6708
g104
(irule
Guard
p6709
(dp6710
g107
I00
sg108
(lp6711
sg118
I00
sg114
V
sg120
I00
sg121
S'L'
sbsg122
(irule
FeatureMatrix
p6712
(dp6713
g112
(lp6714
(I00
g3938
tp6715
a(I00
g4267
tp6716
a(I00
g3925
tp6717
asg114
V[ -highTone -lateral -liquid ]
p6718
sbsg128
(irule
Guard
p6719
(dp6720
g107
I00
sg108
(lp6721
(irule
FeatureMatrix
p6722
(dp6723
g112
(lp6724
sg114
V[  ]
p6725
sba(irule
FeatureMatrix
p6726
(dp6727
g112
(lp6728
(I01
g3925
tp6729
asg114
V[ +highTone ]
p6730
sbasg118
I00
sg114
V[  ] [ +highTone ]
p6731
sg120
I00
sg121
S'R'
sbsg132
(irule
FeatureMatrix
p6732
(dp6733
g112
(lp6734
sg114
V[  ]
p6735
sbsg114
V[  ] ---> [ -highTone -lateral -liquid ] /  _ [  ] [ +highTone ]
p6736
sba(irule
Rule
p6737
(dp6738
g104
(irule
Guard
p6739
(dp6740
g107
I00
sg108
(lp6741
sg118
I00
sg114
V
sg120
I00
sg121
S'L'
sbsg122
(irule
FeatureMatrix
p6742
(dp6743
g112
(lp6744
(I00
g3925
tp6745
asg114
V[ -highTone ]
p6746
sbsg128
(irule
Guard
p6747
(dp6748
g107
I00
sg108
(lp6749
(irule
FeatureMatrix
p6750
(dp6751
g112
(lp6752
(I00
g4580
tp6753
asg114
V[ -tense ]
p6754
sba(irule
FeatureMatrix
p6755
(dp6756
g112
(lp6757
(I01
g3925
tp6758
a(I01
g3999
tp6759
asg114
V[ +highTone +voice ]
p6760
sbasg118
I00
sg114
V[ -tense ] [ +highTone +voice ]
p6761
sg120
I00
sg121
S'R'
sbsg132
(irule
FeatureMatrix
p6762
(dp6763
g112
(lp6764
sg114
V[  ]
p6765
sbsg114
V[  ] ---> [ -highTone ] /  _ [ -tense ] [ +highTone +voice ]
p6766
sba(irule
Rule
p6767
(dp6768
g104
(irule
Guard
p6769
(dp6770
g107
I00
sg108
(lp6771
sg118
I00
sg114
V
sg120
I00
sg121
S'L'
sbsg122
(irule
FeatureMatrix
p6772
(dp6773
g112
(lp6774
(I00
g3925
tp6775
a(I01
g4315
tp6776
asg114
V[ +vowel -highTone ]
p6777
sbsg128
(irule
Guard
p6778
(dp6779
g107
I00
sg108
(lp6780
(irule
FeatureMatrix
p6781
(dp6782
g112
(lp6783
sg114
V[  ]
p6784
sba(irule
FeatureMatrix
p6785
(dp6786
g112
(lp6787
(I00
g3938
tp6788
a(I01
g3925
tp6789
asg114
V[ +highTone -liquid ]
p6790
sbasg118
I00
sg114
V[  ] [ +highTone -liquid ]
p6791
sg120
I00
sg121
S'R'
sbsg132
(irule
FeatureMatrix
p6792
(dp6793
g112
(lp6794
sg114
V[  ]
p6795
sbsg114
V[  ] ---> [ +vowel -highTone ] /  _ [  ] [ +highTone -liquid ]
p6796
sba(irule
Rule
p6797
(dp6798
g104
(irule
Guard
p6799
(dp6800
g107
I00
sg108
(lp6801
sg118
I00
sg114
V
sg120
I00
sg121
S'L'
sbsg122
(irule
FeatureMatrix
p6802
(dp6803
g112
(lp6804
(I00
g4195
tp6805
a(I00
g3925
tp6806
a(I01
g4386
tp6807
asg114
V[ +sonorant -highTone -nasal ]
p6808
sbsg128
(irule
Guard
p6809
(dp6810
g107
I00
sg108
(lp6811
(irule
FeatureMatrix
p6812
(dp6813
g112
(lp6814
sg114
V[  ]
p6815
sba(irule
FeatureMatrix
p6816
(dp6817
g112
(lp6818
(I01
g3925
tp6819
asg114
V[ +highTone ]
p6820
sbasg118
I00
sg114
V[  ] [ +highTone ]
p6821
sg120
I00
sg121
S'R'
sbsg132
(irule
FeatureMatrix
p6822
(dp6823
g112
(lp6824
sg114
V[  ]
p6825
sbsg114
V[  ] ---> [ +sonorant -highTone -nasal ] /  _ [  ] [ +highTone ]
p6826
sba(irule
Rule
p6827
(dp6828
g104
(irule
Guard
p6829
(dp6830
g107
I00
sg108
(lp6831
sg118
I00
sg114
V
sg120
I00
sg121
S'L'
sbsg122
(irule
FeatureMatrix
p6832
(dp6833
g112
(lp6834
(I00
g3925
tp6835
a(I01
g4580
tp6836
a(I00
g4550
tp6837
asg114
V[ +tense -highTone -low ]
p6838
sbsg128
(irule
Guard
p6839
(dp6840
g107
I00
sg108
(lp6841
(irule
FeatureMatrix
p6842
(dp6843
g112
(lp6844
sg114
V[  ]
p6845
sba(irule
FeatureMatrix
p6846
(dp6847
g112
(lp6848
(I01
g3925
tp6849
asg114
V[ +highTone ]
p6850
sbasg118
I00
sg114
V[  ] [ +highTone ]
p6851
sg120
I00
sg121
S'R'
sbsg132
(irule
FeatureMatrix
p6852
(dp6853
g112
(lp6854
sg114
V[  ]
p6855
sbsg114
V[  ] ---> [ +tense -highTone -low ] /  _ [  ] [ +highTone ]
p6856
sba(irule
Rule
p6857
(dp6858
g104
(irule
Guard
p6859
(dp6860
g107
I00
sg108
(lp6861
(irule
FeatureMatrix
p6862
(dp6863
g112
(lp6864
sg114
V[  ]
p6865
sbasg118
I00
sg114
g6865
sg120
I00
sg121
S'L'
sbsg122
(irule
FeatureMatrix
p6866
(dp6867
g112
(lp6868
(I00
g3925
tp6869
asg114
V[ -highTone ]
p6870
sbsg128
(irule
Guard
p6871
(dp6872
g107
I00
sg108
(lp6873
(irule
FeatureMatrix
p6874
(dp6875
g112
(lp6876
sg114
V[  ]
p6877
sba(irule
FeatureMatrix
p6878
(dp6879
g112
(lp6880
(I01
g3925
tp6881
asg114
V[ +highTone ]
p6882
sbasg118
I00
sg114
V[  ] [ +highTone ]
p6883
sg120
I00
sg121
S'R'
sbsg132
(irule
FeatureMatrix
p6884
(dp6885
g112
(lp6886
(I00
g4195
tp6887
asg114
V[ -nasal ]
p6888
sbsg114
V[ -nasal ] ---> [ -highTone ] / [  ] _ [  ] [ +highTone ]
p6889
sbaasbsS'parameters'
p6890
g8
(cargparse
Namespace
p6891
g10
NtRp6892
(dp6893
S'dummy'
p6894
I00
sS'task'
p6895
S'incremental'
p6896
sS'features'
p6897
S'sophisticated'
p6898
sS'resume'
p6899
I00
sS'geometry'
p6900
I01
sS'top'
p6901
I1
sS'disableClean'
p6902
I00
sS'universal'
p6903
NsS'restrict'
p6904
NsS'window'
p6905
NsS'seed'
p6906
S'0'
sS'restore'
p6907
NsS'serial'
p6908
I00
sS'timeout'
p6909
NsS'debug'
p6910
NsS'cores'
p6911
I40
sg4
S'Odden_79_Jita'
p6912
sS'save'
p6913
NsS'verbosity'
p6914
I0
sS'alignment'
p6915
I00
sS'samples'
p6916
I30
sbsb.