(iresult
Result
p1
(dp2
S'startTime'
p3
F1555271111.3415029
sS'solutionSequence'
p4
(lp5
(ccopy_reg
_reconstructor
p6
(csolution
Solution
p7
c__builtin__
object
p8
NtRp9
(dp10
S'rules'
p11
(lp12
(irule
Rule
p13
(dp14
S'leftTriggers'
p15
(irule
Guard
p16
(dp17
S'endOfString'
p18
I00
sS'specifications'
p19
(lp20
(irule
FeatureMatrix
p21
(dp22
S'featuresAndPolarities'
p23
(lp24
sS'representation'
p25
V[  ]
p26
sba(irule
FeatureMatrix
p27
(dp28
g23
(lp29
(I00
S'low'
p30
tp31
asg25
V[ -low ]
p32
sbasS'optionalEnding'
p33
I00
sg25
V[ -low ] [  ]
p34
sS'starred'
p35
I00
sS'side'
p36
S'L'
sbsS'structuralChange'
p37
(irule
FeatureMatrix
p38
(dp39
g23
(lp40
(I00
S'back'
p41
tp42
a(I00
g30
tp43
asg25
V[ -back -low ]
p44
sbsS'rightTriggers'
p45
(irule
Guard
p46
(dp47
g18
I00
sg19
(lp48
sg33
I00
sg25
V
sg35
I00
sg36
S'R'
sbsS'focus'
p49
(irule
FeatureMatrix
p50
(dp51
g23
(lp52
sg25
V[  ]
p53
sbsg25
V[  ] ---> [ -back -low ] / [ -low ] [  ] _ 
p54
sbasS'prefixes'
p55
(lp56
(imorph
Morph
p57
(dp58
S'phonemes'
p59
(lp60
sba(imorph
Morph
p61
(dp62
g59
(lp63
sba(imorph
Morph
p64
(dp65
g59
(lp66
sba(imorph
Morph
p67
(dp68
g59
(lp69
sba(imorph
Morph
p70
(dp71
g59
(lp72
sbasS'underlyingForms'
p73
(dp74
((imorph
Morph
p75
(dp76
g59
(lp77
Vd
aVe
aVr
aVe
asb(imorph
Morph
p78
(dp79
g59
(lp80
Vd
aVe
aVr
aVe
aVs
aVi
asb(imorph
Morph
p81
(dp82
g59
(lp83
Vd
aVe
aVr
aVe
aVy
aVe
asb(imorph
Morph
p84
(dp85
g59
(lp86
Vd
aVe
aVr
aVe
aVd
aVe
aVn
asb(imorph
Morph
p87
(dp88
g59
(lp89
Vd
aVe
aVr
aVe
aVl
aVe
aVr
asbtp90
(imorph
Morph
p91
(dp92
g59
(lp93
Vd
aVe
aVr
aVe
asbs((imorph
Morph
p94
(dp95
g59
(lp96
Vo
aVd
aVa
asb(imorph
Morph
p97
(dp98
g59
(lp99
Vo
aVd
aVa
aVs
aV\u0268
asb(imorph
Morph
p100
(dp101
g59
(lp102
Vo
aVd
aVa
aVy
aVa
asb(imorph
Morph
p103
(dp104
g59
(lp105
Vo
aVd
aVa
aVd
aVa
aVn
asb(imorph
Morph
p106
(dp107
g59
(lp108
Vo
aVd
aVa
aVl
aVa
aVr
asbtp109
(imorph
Morph
p110
(dp111
g59
(lp112
Vo
aVd
aVa
asbssS'suffixes'
p113
(lp114
(imorph
Morph
p115
(dp116
g59
(lp117
sba(imorph
Morph
p118
(dp119
g59
(lp120
Vs
aV\u0268
asba(imorph
Morph
p121
(dp122
g59
(lp123
Vy
aVa
asba(imorph
Morph
p124
(dp125
g59
(lp126
Vd
aVa
aVn
asba(imorph
Morph
p127
(dp128
g59
(lp129
Vl
aVa
aVr
asbasbF117.41236805915833
tp130
a(g6
(g7
g8
NtRp131
(dp132
g11
(lp133
(irule
Rule
p134
(dp135
g15
(irule
Guard
p136
(dp137
g18
I00
sg19
(lp138
(irule
FeatureMatrix
p139
(dp140
g23
(lp141
sg25
V[  ]
p142
sba(irule
FeatureMatrix
p143
(dp144
g23
(lp145
(I01
S'high'
p146
tp147
asg25
V[ +high ]
p148
sbasg33
I00
sg25
V[ +high ] [  ]
p149
sg35
I00
sg36
S'L'
sbsg37
(irule
OffsetSpecification
p150
(dp151
S'offset'
p152
I-2
sbsg45
(irule
Guard
p153
(dp154
g18
I00
sg19
(lp155
sg33
I00
sg25
V
sg35
I00
sg36
S'R'
sbsg49
(irule
FeatureMatrix
p156
(dp157
g23
(lp158
sg25
V[  ]
p159
sbsg25
V[  ] ---> -2 / [ +high ] [  ] _ 
p160
sba(irule
Rule
p161
(dp162
g15
(irule
Guard
p163
(dp164
g18
I00
sg19
(lp165
(irule
FeatureMatrix
p166
(dp167
g23
(lp168
(I01
S'voice'
p169
tp170
asg25
V[ +voice ]
p171
sbasg33
I00
sg25
g171
sg35
I00
sg36
S'L'
sbsg37
(irule
ConstantPhoneme
p172
(dp173
S'p'
Ve
sbsg45
(irule
Guard
p174
(dp175
g18
I00
sg19
(lp176
sg33
I00
sg25
V
sg35
I00
sg36
S'R'
sbsg49
(irule
FeatureMatrix
p177
(dp178
g23
(lp179
(I01
g146
tp180
asg25
V[ +high ]
p181
sbsg25
V[ +high ] ---> e / [ +voice ] _ 
p182
sbasg55
(lp183
(imorph
Morph
p184
(dp185
g59
(lp186
sba(imorph
Morph
p187
(dp188
g59
(lp189
sba(imorph
Morph
p190
(dp191
g59
(lp192
sba(imorph
Morph
p193
(dp194
g59
(lp195
sba(imorph
Morph
p196
(dp197
g59
(lp198
sbasg73
(dp199
((imorph
Morph
p200
(dp201
g59
(lp202
Vu\u0308
p203
aVt
aVu\u0308
p204
asb(imorph
Morph
p205
(dp206
g59
(lp207
Vu\u0308
p208
aVt
aVu\u0308
p209
aVs
aVu\u0308
p210
asb(imorph
Morph
p211
(dp212
g59
(lp213
Vu\u0308
p214
aVt
aVu\u0308
p215
aVy
aVe
asb(imorph
Morph
p216
(dp217
g59
(lp218
Vu\u0308
p219
aVt
aVu\u0308
p220
aVd
aVe
aVn
asb(imorph
Morph
p221
(dp222
g59
(lp223
Vu\u0308
p224
aVt
aVu\u0308
p225
aVl
aVe
aVr
asbtp226
(imorph
Morph
p227
(dp228
g59
(lp229
Vu\u0308
p230
aVt
ag230
asbs(g75
g78
g81
g84
g87
tp231
(imorph
Morph
p232
(dp233
g59
(lp234
Vd
ag230
aVr
aVi
asbs(g94
g97
g100
g103
g106
tp235
(imorph
Morph
p236
(dp237
g59
(lp238
Vo
aVd
aVa
asbssg113
(lp239
(imorph
Morph
p240
(dp241
g59
(lp242
sba(imorph
Morph
p243
(dp244
g59
(lp245
Vs
aV\u0268
asba(imorph
Morph
p246
(dp247
g59
(lp248
Vy
aVa
asba(imorph
Morph
p249
(dp250
g59
(lp251
Vd
aVa
aVn
asba(imorph
Morph
p252
(dp253
g59
(lp254
Vl
aVa
aVr
asbasbF2529.6968832015991
tp255
a(g6
(g7
g8
NtRp256
(dp257
g11
(lp258
(irule
Rule
p259
(dp260
g15
(irule
Guard
p261
(dp262
g18
I00
sg19
(lp263
(irule
FeatureMatrix
p264
(dp265
g23
(lp266
sg25
V[  ]
p267
sba(irule
FeatureMatrix
p268
(dp269
g23
(lp270
(I00
g30
tp271
asg25
V[ -low ]
p272
sbasg33
I00
sg25
V[ -low ] [  ]
p273
sg35
I00
sg36
S'L'
sbsg37
(irule
OffsetSpecification
p274
(dp275
g152
I-2
sbsg45
(irule
Guard
p276
(dp277
g18
I00
sg19
(lp278
sg33
I00
sg25
V
sg35
I00
sg36
S'R'
sbsg49
(irule
FeatureMatrix
p279
(dp280
g23
(lp281
(I01
g146
tp282
asg25
V[ +high ]
p283
sbsg25
V[ +high ] ---> -2 / [ -low ] [  ] _ 
p284
sba(irule
Rule
p285
(dp286
g15
(irule
Guard
p287
(dp288
g18
I00
sg19
(lp289
(irule
FeatureMatrix
p290
(dp291
g23
(lp292
(I01
g169
tp293
asg25
V[ +voice ]
p294
sba(irule
FeatureMatrix
p295
(dp296
g23
(lp297
(I01
g41
tp298
asg25
V[ +back ]
p299
sbasg33
I00
sg25
V[ +back ] [ +voice ]
p300
sg35
I00
sg36
S'L'
sbsg37
(irule
ConstantPhoneme
p301
(dp302
S'p'
Va
sbsg45
(irule
Guard
p303
(dp304
g18
I00
sg19
(lp305
sg33
I00
sg25
V
sg35
I00
sg36
S'R'
sbsg49
(irule
FeatureMatrix
p306
(dp307
g23
(lp308
(I00
S'rounded'
p309
tp310
asg25
V[ -rounded ]
p311
sbsg25
V[ -rounded ] ---> a / [ +back ] [ +voice ] _ 
p312
sbasg55
(lp313
(imorph
Morph
p314
(dp315
g59
(lp316
sba(imorph
Morph
p317
(dp318
g59
(lp319
sba(imorph
Morph
p320
(dp321
g59
(lp322
sba(imorph
Morph
p323
(dp324
g59
(lp325
sba(imorph
Morph
p326
(dp327
g59
(lp328
sbasg73
(dp329
(g200
g205
g211
g216
g221
tp330
(imorph
Morph
p331
(dp332
g59
(lp333
g230
aVt
ag230
asbs((imorph
Morph
p334
(dp335
g59
(lp336
Vb
aVa
aVl
aVo
asb(imorph
Morph
p337
(dp338
g59
(lp339
Vb
aVa
aVl
aVo
aVs
aVu
asb(imorph
Morph
p340
(dp341
g59
(lp342
Vb
aVa
aVl
aVo
aVy
aVa
asb(imorph
Morph
p343
(dp344
g59
(lp345
Vb
aVa
aVl
aVo
aVd
aVa
aVn
asb(imorph
Morph
p346
(dp347
g59
(lp348
Vb
aVa
aVl
aVo
aVl
aVa
aVr
asbtp349
(imorph
Morph
p350
(dp351
g59
(lp352
Vb
aVa
aVl
aVo
asbs(g75
g78
g81
g84
g87
tp353
(imorph
Morph
p354
(dp355
g59
(lp356
Vd
aVe
aVr
aVi
asbs(g94
g97
g100
g103
g106
tp357
(imorph
Morph
p358
(dp359
g59
(lp360
Vo
aVd
aV\u0268
asbssg113
(lp361
(imorph
Morph
p362
(dp363
g59
(lp364
sba(imorph
Morph
p365
(dp366
g59
(lp367
Vs
aVu
asba(imorph
Morph
p368
(dp369
g59
(lp370
Vy
aVe
asba(imorph
Morph
p371
(dp372
g59
(lp373
Vd
aVe
aVn
asba(imorph
Morph
p374
(dp375
g59
(lp376
Vl
aVe
aVr
asbasbF4573.5520741939545
tp377
a(g6
(g7
g8
NtRp378
(dp379
g11
(lp380
(irule
Rule
p381
(dp382
g15
(irule
Guard
p383
(dp384
g18
I00
sg19
(lp385
(irule
FeatureMatrix
p386
(dp387
g23
(lp388
sg25
V[  ]
p389
sba(irule
FeatureMatrix
p390
(dp391
g23
(lp392
(I00
g309
tp393
asg25
V[ -rounded ]
p394
sbasg33
I00
sg25
V[ -rounded ] [  ]
p395
sg35
I00
sg36
S'L'
sbsg37
(irule
ConstantPhoneme
p396
(dp397
S'p'
V\u0268
sbsg45
(irule
Guard
p398
(dp399
g18
I00
sg19
(lp400
sg33
I00
sg25
V
sg35
I00
sg36
S'R'
sbsg49
(irule
FeatureMatrix
p401
(dp402
g23
(lp403
(I01
g146
tp404
asg25
V[ +high ]
p405
sbsg25
V[ +high ] ---> \u0268 / [ -rounded ] [  ] _ 
p406
sba(irule
Rule
p407
(dp408
g15
(irule
Guard
p409
(dp410
g18
I00
sg19
(lp411
(irule
FeatureMatrix
p412
(dp413
g23
(lp414
sg25
V[  ]
p415
sba(irule
FeatureMatrix
p416
(dp417
g23
(lp418
(I00
g41
tp419
asg25
V[ -back ]
p420
sbasg33
I00
sg25
V[ -back ] [  ]
p421
sg35
I00
sg36
S'L'
sbsg37
(irule
FeatureMatrix
p422
(dp423
g23
(lp424
(I00
g41
tp425
a(I00
g30
tp426
asg25
V[ -back -low ]
p427
sbsg45
(irule
Guard
p428
(dp429
g18
I00
sg19
(lp430
sg33
I00
sg25
V
sg35
I00
sg36
S'R'
sbsg49
(irule
FeatureMatrix
p431
(dp432
g23
(lp433
sg25
V[  ]
p434
sbsg25
V[  ] ---> [ -back -low ] / [ -back ] [  ] _ 
p435
sbasg55
(lp436
(imorph
Morph
p437
(dp438
g59
(lp439
sba(imorph
Morph
p440
(dp441
g59
(lp442
sba(imorph
Morph
p443
(dp444
g59
(lp445
sba(imorph
Morph
p446
(dp447
g59
(lp448
sba(imorph
Morph
p449
(dp450
g59
(lp451
sbasg73
(dp452
(g200
g205
g211
g216
g221
tp453
(imorph
Morph
p454
(dp455
g59
(lp456
g230
aVt
ag230
asbs(g334
g337
g340
g343
g346
tp457
(imorph
Morph
p458
(dp459
g59
(lp460
Vb
aVa
aVl
aVo
asbs(g75
g78
g81
g84
g87
tp461
(imorph
Morph
p462
(dp463
g59
(lp464
Vd
aVe
aVr
aVe
asbs(g94
g97
g100
g103
g106
tp465
(imorph
Morph
p466
(dp467
g59
(lp468
Vo
aVd
aVa
asbs((imorph
Morph
p469
(dp470
g59
(lp471
Va
aVr
aV\u0268
asb(imorph
Morph
p472
(dp473
g59
(lp474
Va
aVr
aV\u0268
aVs
aV\u0268
asb(imorph
Morph
p475
(dp476
g59
(lp477
Va
aVr
aV\u0268
aVy
aVa
asb(imorph
Morph
p478
(dp479
g59
(lp480
Va
aVr
aV\u0268
aVd
aVa
aVn
asb(imorph
Morph
p481
(dp482
g59
(lp483
Va
aVr
aV\u0268
aVl
aVa
aVr
asbtp484
(imorph
Morph
p485
(dp486
g59
(lp487
Va
aVr
aVi
asbssg113
(lp488
(imorph
Morph
p489
(dp490
g59
(lp491
sba(imorph
Morph
p492
(dp493
g59
(lp494
Vs
aVu
asba(imorph
Morph
p495
(dp496
g59
(lp497
Vy
aVa
asba(imorph
Morph
p498
(dp499
g59
(lp500
Vd
aVa
aVn
asba(imorph
Morph
p501
(dp502
g59
(lp503
Vl
aVa
aVr
asbasbF7854.4229290485382
tp504
a(g6
(g7
g8
NtRp505
(dp506
g11
(lp507
(irule
Rule
p508
(dp509
g15
(irule
Guard
p510
(dp511
g18
I00
sg19
(lp512
(irule
FeatureMatrix
p513
(dp514
g23
(lp515
(I00
S'nasal'
p516
tp517
asg25
V[ -nasal ]
p518
sba(irule
FeatureMatrix
p519
(dp520
g23
(lp521
(I00
g41
tp522
asg25
V[ -back ]
p523
sbasg33
I00
sg25
V[ -back ] [ -nasal ]
p524
sg35
I00
sg36
S'L'
sbsg37
(irule
FeatureMatrix
p525
(dp526
g23
(lp527
(I00
g41
tp528
a(I00
g30
tp529
asg25
V[ -back -low ]
p530
sbsg45
(irule
Guard
p531
(dp532
g18
I00
sg19
(lp533
sg33
I00
sg25
V
sg35
I00
sg36
S'R'
sbsg49
(irule
FeatureMatrix
p534
(dp535
g23
(lp536
sg25
V[  ]
p537
sbsg25
V[  ] ---> [ -back -low ] / [ -back ] [ -nasal ] _ 
p538
sba(irule
Rule
p539
(dp540
g15
(irule
Guard
p541
(dp542
g18
I00
sg19
(lp543
(irule
ConstantPhoneme
p544
(dp545
S'p'
Vs
sba(irule
FeatureMatrix
p546
(dp547
g23
(lp548
(I01
g309
tp549
asg25
V[ +rounded ]
p550
sbasg33
I00
sg25
V[ +rounded ] s
p551
sg35
I00
sg36
S'L'
sbsg37
(irule
FeatureMatrix
p552
(dp553
g23
(lp554
(I01
g309
tp555
asg25
V[ +rounded ]
p556
sbsg45
(irule
Guard
p557
(dp558
g18
I00
sg19
(lp559
sg33
I00
sg25
V
sg35
I00
sg36
S'R'
sbsg49
(irule
FeatureMatrix
p560
(dp561
g23
(lp562
sg25
V[  ]
p563
sbsg25
V[  ] ---> [ +rounded ] / [ +rounded ] s _ 
p564
sbasg55
(lp565
(imorph
Morph
p566
(dp567
g59
(lp568
sba(imorph
Morph
p569
(dp570
g59
(lp571
sba(imorph
Morph
p572
(dp573
g59
(lp574
sba(imorph
Morph
p575
(dp576
g59
(lp577
sba(imorph
Morph
p578
(dp579
g59
(lp580
sbasg73
(dp581
(g200
g205
g211
g216
g221
tp582
(imorph
Morph
p583
(dp584
g59
(lp585
g230
aVt
ag230
asbs(g94
g97
g100
g103
g106
tp586
(imorph
Morph
p587
(dp588
g59
(lp589
Vo
aVd
aVa
asbs(g334
g337
g340
g343
g346
tp590
(imorph
Morph
p591
(dp592
g59
(lp593
Vb
aVa
aVl
aVo
asbs(g469
g472
g475
g478
g481
tp594
(imorph
Morph
p595
(dp596
g59
(lp597
Va
aVr
aV\u0268
asbs((imorph
Morph
p598
(dp599
g59
(lp600
Vb
aVi
aVn
aVa:
p601
asb(imorph
Morph
p602
(dp603
g59
(lp604
Vb
aVi
aVn
aVa:
p605
aVs
aV\u0268
asb(imorph
Morph
p606
(dp607
g59
(lp608
Vb
aVi
aVn
aVa:
p609
aVy
aVa
asb(imorph
Morph
p610
(dp611
g59
(lp612
Vb
aVi
aVn
aVa:
p613
aVd
aVa
aVn
asb(imorph
Morph
p614
(dp615
g59
(lp616
Vb
aVi
aVn
aVa:
p617
aVl
aVa
aVr
asbtp618
(imorph
Morph
p619
(dp620
g59
(lp621
Vb
aVi
aVn
aVa:
p622
asbs(g75
g78
g81
g84
g87
tp623
(imorph
Morph
p624
(dp625
g59
(lp626
Vd
aVe
aVr
aVe
asbssg113
(lp627
(imorph
Morph
p628
(dp629
g59
(lp630
sba(imorph
Morph
p631
(dp632
g59
(lp633
Vs
aV\u0268
asba(imorph
Morph
p634
(dp635
g59
(lp636
Vy
aVa
asba(imorph
Morph
p637
(dp638
g59
(lp639
Vd
aVa
aVn
asba(imorph
Morph
p640
(dp641
g59
(lp642
Vl
aVa
aVr
asbasbF14294.194404125214
tp643
a(g6
(g7
g8
NtRp644
(dp645
g11
(lp646
(irule
Rule
p647
(dp648
g15
(irule
Guard
p649
(dp650
g18
I00
sg19
(lp651
(irule
FeatureMatrix
p652
(dp653
g23
(lp654
sg25
V[  ]
p655
sba(irule
FeatureMatrix
p656
(dp657
g23
(lp658
(I00
g41
tp659
asg25
V[ -back ]
p660
sbasg33
I00
sg25
V[ -back ] [  ]
p661
sg35
I00
sg36
S'L'
sbsg37
(irule
FeatureMatrix
p662
(dp663
g23
(lp664
(I00
g41
tp665
a(I00
g30
tp666
asg25
V[ -back -low ]
p667
sbsg45
(irule
Guard
p668
(dp669
g18
I00
sg19
(lp670
sg33
I00
sg25
V
sg35
I00
sg36
S'R'
sbsg49
(irule
FeatureMatrix
p671
(dp672
g23
(lp673
(I00
S'long'
p674
tp675
asg25
V[ -long ]
p676
sbsg25
V[ -long ] ---> [ -back -low ] / [ -back ] [  ] _ 
p677
sba(irule
Rule
p678
(dp679
g15
(irule
Guard
p680
(dp681
g18
I00
sg19
(lp682
(irule
FeatureMatrix
p683
(dp684
g23
(lp685
(I00
g169
tp686
asg25
V[ -voice ]
p687
sba(irule
FeatureMatrix
p688
(dp689
g23
(lp690
(I01
g309
tp691
asg25
V[ +rounded ]
p692
sbasg33
I00
sg25
V[ +rounded ] [ -voice ]
p693
sg35
I00
sg36
S'L'
sbsg37
(irule
FeatureMatrix
p694
(dp695
g23
(lp696
(I01
g309
tp697
asg25
V[ +rounded ]
p698
sbsg45
(irule
Guard
p699
(dp700
g18
I00
sg19
(lp701
sg33
I00
sg25
V
sg35
I00
sg36
S'R'
sbsg49
(irule
FeatureMatrix
p702
(dp703
g23
(lp704
sg25
V[  ]
p705
sbsg25
V[  ] ---> [ +rounded ] / [ +rounded ] [ -voice ] _ 
p706
sbasg55
(lp707
(imorph
Morph
p708
(dp709
g59
(lp710
sba(imorph
Morph
p711
(dp712
g59
(lp713
sba(imorph
Morph
p714
(dp715
g59
(lp716
sba(imorph
Morph
p717
(dp718
g59
(lp719
sba(imorph
Morph
p720
(dp721
g59
(lp722
sbasg73
(dp723
(g200
g205
g211
g216
g221
tp724
(imorph
Morph
p725
(dp726
g59
(lp727
g230
aVt
ag230
asbs((imorph
Morph
p728
(dp729
g59
(lp730
Vi
aVm
aVl
aVa:
p731
asb(imorph
Morph
p732
(dp733
g59
(lp734
Vi
aVm
aVl
aVa:
p735
aVs
aV\u0268
asb(imorph
Morph
p736
(dp737
g59
(lp738
Vi
aVm
aVl
aVa:
p739
aVy
aVa
asb(imorph
Morph
p740
(dp741
g59
(lp742
Vi
aVm
aVl
aVa:
p743
aVd
aVa
aVn
asb(imorph
Morph
p744
(dp745
g59
(lp746
Vi
aVm
aVl
aVa:
p747
aVl
aVa
aVr
asbtp748
(imorph
Morph
p749
(dp750
g59
(lp751
Vi
aVm
aVl
ag622
asbs(g94
g97
g100
g103
g106
tp752
(imorph
Morph
p753
(dp754
g59
(lp755
Vo
aVd
aVa
asbs(g334
g337
g340
g343
g346
tp756
(imorph
Morph
p757
(dp758
g59
(lp759
Vb
aVa
aVl
aVo
asbs(g469
g472
g475
g478
g481
tp760
(imorph
Morph
p761
(dp762
g59
(lp763
Va
aVr
aV\u0268
asbs(g598
g602
g606
g610
g614
tp764
(imorph
Morph
p765
(dp766
g59
(lp767
Vb
aVi
aVn
ag622
asbs(g75
g78
g81
g84
g87
tp768
(imorph
Morph
p769
(dp770
g59
(lp771
Vd
aVe
aVr
aVe
asbs((imorph
Morph
(dp772
g59
(lp773
Vb
aVe:
p774
asb(imorph
Morph
(dp775
g59
(lp776
Vb
aVe:
p777
aVs
aVi
asb(imorph
Morph
(dp778
g59
(lp779
Vb
aVe:
p780
aVy
aVe
asb(imorph
Morph
(dp781
g59
(lp782
Vb
aVe:
p783
aVd
aVe
aVn
asb(imorph
Morph
(dp784
g59
(lp785
Vb
aVe:
p786
aVl
aVe
aVr
asbtp787
(imorph
Morph
p788
(dp789
g59
(lp790
Vb
aVe:
p791
asbs((imorph
Morph
(dp792
g59
(lp793
Vl
aVa:
p794
asb(imorph
Morph
(dp795
g59
(lp796
Vl
aVa:
p797
aVs
aV\u0268
asb(imorph
Morph
(dp798
g59
(lp799
Vl
aVa:
p800
aVy
aVa
asb(imorph
Morph
(dp801
g59
(lp802
Vl
aVa:
p803
aVd
aVa
aVn
asb(imorph
Morph
(dp804
g59
(lp805
Vl
aVa:
p806
aVl
aVa
aVr
asbtp807
(imorph
Morph
p808
(dp809
g59
(lp810
Vl
ag622
asbssg113
(lp811
(imorph
Morph
p812
(dp813
g59
(lp814
sba(imorph
Morph
p815
(dp816
g59
(lp817
Vs
aV\u0268
asba(imorph
Morph
p818
(dp819
g59
(lp820
Vy
aVa
asba(imorph
Morph
p821
(dp822
g59
(lp823
Vd
aVa
aVn
asba(imorph
Morph
p824
(dp825
g59
(lp826
Vl
aVa
aVr
asbasbF20984.637117147446
tp827
asS'problem'
p828
S'Odden_4.5_Turkish'
p829
sS'finalFrontier'
p830
g6
(csolution
Frontier
p831
g8
NtRp832
(dp833
g55
g707
sg113
g811
sg73
g723
sS'frontiers'
p834
(lp835
(lp836
(irule
Rule
p837
(dp838
g15
(irule
Guard
p839
(dp840
g18
I00
sg19
(lp841
(irule
FeatureMatrix
p842
(dp843
g23
(lp844
sg25
V[  ]
p845
sba(irule
FeatureMatrix
p846
(dp847
g23
(lp848
(I00
S'back'
p849
tp850
asg25
V[ -back ]
p851
sbasg33
I00
sg25
V[ -back ] [  ]
p852
sg35
I00
sg36
S'L'
sbsg37
(irule
FeatureMatrix
p853
(dp854
g23
(lp855
(I00
g849
tp856
a(I00
S'low'
tp857
asg25
V[ -back -low ]
p858
sbsg45
(irule
Guard
p859
(dp860
g18
I00
sg19
(lp861
sg33
I00
sg25
V
sg35
I00
sg36
S'R'
sbsg49
(irule
FeatureMatrix
p862
(dp863
g23
(lp864
(I00
S'long'
tp865
asg25
V[ -long ]
p866
sbsg25
V[ -long ] ---> [ -back -low ] / [ -back ] [  ] _ 
p867
sba(irule
Rule
p868
(dp869
g15
(irule
Guard
p870
(dp871
g18
I00
sg19
(lp872
(irule
FeatureMatrix
p873
(dp874
g23
(lp875
(I00
S'nasal'
p876
tp877
asg25
Nsba(irule
FeatureMatrix
p878
(dp879
g23
(lp880
(I00
S'back'
p881
tp882
asg25
Nsbasg33
I00
sg25
Nsg35
I00
sg36
S'L'
sbsg37
(irule
FeatureMatrix
p883
(dp884
g23
(lp885
(I00
g881
tp886
a(I00
S'low'
p887
tp888
asg25
Nsbsg45
(irule
Guard
p889
(dp890
g18
I00
sg19
(lp891
sg33
I00
sg25
Nsg35
I00
sg36
S'R'
sbsg49
(irule
FeatureMatrix
p892
(dp893
g23
(lp894
(I00
S'long'
p895
tp896
asg25
Nsbsg25
Nsba(irule
Rule
p897
(dp898
g15
(irule
Guard
p899
(dp900
g18
I00
sg19
(lp901
(irule
FeatureMatrix
p902
(dp903
g23
(lp904
(I00
g876
tp905
asg25
Nsba(irule
FeatureMatrix
p906
(dp907
g23
(lp908
(I00
g881
tp909
a(I01
S'vowel'
p910
tp911
asg25
Nsbasg33
I00
sg25
Nsg35
I00
sg36
S'L'
sbsg37
(irule
FeatureMatrix
p912
(dp913
g23
(lp914
(I00
g881
tp915
a(I00
g887
tp916
asg25
Nsbsg45
(irule
Guard
p917
(dp918
g18
I00
sg19
(lp919
sg33
I00
sg25
Nsg35
I00
sg36
S'R'
sbsg49
(irule
FeatureMatrix
p920
(dp921
g23
(lp922
sg25
Nsbsg25
Nsba(irule
Rule
p923
(dp924
g15
(irule
Guard
p925
(dp926
g18
I00
sg19
(lp927
(irule
FeatureMatrix
p928
(dp929
g23
(lp930
(I00
g876
tp931
asg25
Nsba(irule
FeatureMatrix
p932
(dp933
g23
(lp934
(I00
S'anterior'
p935
tp936
a(I00
g881
tp937
asg25
Nsbasg33
I00
sg25
Nsg35
I00
sg36
S'L'
sbsg37
(irule
FeatureMatrix
p938
(dp939
g23
(lp940
(I00
g881
tp941
a(I00
g887
tp942
asg25
Nsbsg45
(irule
Guard
p943
(dp944
g18
I00
sg19
(lp945
sg33
I00
sg25
Nsg35
I00
sg36
S'R'
sbsg49
(irule
FeatureMatrix
p946
(dp947
g23
(lp948
sg25
Nsbsg25
Nsba(irule
Rule
p949
(dp950
g15
(irule
Guard
p951
(dp952
g18
I00
sg19
(lp953
(irule
FeatureMatrix
p954
(dp955
g23
(lp956
sg25
Nsba(irule
FeatureMatrix
p957
(dp958
g23
(lp959
(I00
g881
tp960
asg25
Nsbasg33
I00
sg25
Nsg35
I00
sg36
S'L'
sbsg37
(irule
FeatureMatrix
p961
(dp962
g23
(lp963
(I00
g895
tp964
a(I00
g881
tp965
a(I00
g887
tp966
asg25
Nsbsg45
(irule
Guard
p967
(dp968
g18
I00
sg19
(lp969
sg33
I00
sg25
Nsg35
I00
sg36
S'R'
sbsg49
(irule
FeatureMatrix
p970
(dp971
g23
(lp972
(I00
g895
tp973
asg25
Nsbsg25
Nsba(irule
Rule
p974
(dp975
g15
(irule
Guard
p976
(dp977
g18
I00
sg19
(lp978
(irule
FeatureMatrix
p979
(dp980
g23
(lp981
sg25
Nsba(irule
FeatureMatrix
p982
(dp983
g23
(lp984
(I00
g881
tp985
asg25
Nsbasg33
I00
sg25
Nsg35
I00
sg36
S'L'
sbsg37
(irule
FeatureMatrix
p986
(dp987
g23
(lp988
(I00
g881
tp989
a(I00
g887
tp990
asg25
Nsbsg45
(irule
Guard
p991
(dp992
g18
I00
sg19
(lp993
sg33
I00
sg25
Nsg35
I00
sg36
S'R'
sbsg49
(irule
FeatureMatrix
p994
(dp995
g23
(lp996
(I00
g895
tp997
a(I00
S'coronal'
p998
tp999
asg25
Nsbsg25
Nsba(irule
Rule
p1000
(dp1001
g15
(irule
Guard
p1002
(dp1003
g18
I00
sg19
(lp1004
(irule
FeatureMatrix
p1005
(dp1006
g23
(lp1007
(I00
g876
tp1008
asg25
Nsba(irule
FeatureMatrix
p1009
(dp1010
g23
(lp1011
(I00
g876
tp1012
a(I00
g881
tp1013
asg25
Nsbasg33
I00
sg25
Nsg35
I00
sg36
S'L'
sbsg37
(irule
FeatureMatrix
p1014
(dp1015
g23
(lp1016
(I00
g881
tp1017
a(I00
g887
tp1018
asg25
Nsbsg45
(irule
Guard
p1019
(dp1020
g18
I00
sg19
(lp1021
sg33
I00
sg25
Nsg35
I00
sg36
S'R'
sbsg49
(irule
FeatureMatrix
p1022
(dp1023
g23
(lp1024
sg25
Nsbsg25
Nsba(irule
Rule
p1025
(dp1026
g15
(irule
Guard
p1027
(dp1028
g18
I00
sg19
(lp1029
(irule
FeatureMatrix
p1030
(dp1031
g23
(lp1032
(I00
g876
tp1033
asg25
Nsba(irule
FeatureMatrix
p1034
(dp1035
g23
(lp1036
(I00
g881
tp1037
a(I01
S'tense'
p1038
tp1039
asg25
Nsbasg33
I00
sg25
Nsg35
I00
sg36
S'L'
sbsg37
(irule
FeatureMatrix
p1040
(dp1041
g23
(lp1042
(I00
g881
tp1043
a(I00
g887
tp1044
asg25
Nsbsg45
(irule
Guard
p1045
(dp1046
g18
I00
sg19
(lp1047
sg33
I00
sg25
Nsg35
I00
sg36
S'R'
sbsg49
(irule
FeatureMatrix
p1048
(dp1049
g23
(lp1050
sg25
Nsbsg25
Nsba(irule
Rule
p1051
(dp1052
g15
(irule
Guard
p1053
(dp1054
g18
I00
sg19
(lp1055
(irule
FeatureMatrix
p1056
(dp1057
g23
(lp1058
sg25
Nsba(irule
FeatureMatrix
p1059
(dp1060
g23
(lp1061
(I00
g881
tp1062
a(I01
g910
tp1063
asg25
Nsbasg33
I00
sg25
Nsg35
I00
sg36
S'L'
sbsg37
(irule
FeatureMatrix
p1064
(dp1065
g23
(lp1066
(I00
g881
tp1067
a(I00
g887
tp1068
asg25
Nsbsg45
(irule
Guard
p1069
(dp1070
g18
I00
sg19
(lp1071
sg33
I00
sg25
Nsg35
I00
sg36
S'R'
sbsg49
(irule
FeatureMatrix
p1072
(dp1073
g23
(lp1074
(I00
g895
tp1075
asg25
Nsbsg25
Nsba(irule
Rule
p1076
(dp1077
g15
(irule
Guard
p1078
(dp1079
g18
I00
sg19
(lp1080
(irule
FeatureMatrix
p1081
(dp1082
g23
(lp1083
sg25
Nsba(irule
FeatureMatrix
p1084
(dp1085
g23
(lp1086
(I00
g881
tp1087
a(I00
S'sibilant'
p1088
tp1089
asg25
Nsbasg33
I00
sg25
Nsg35
I00
sg36
S'L'
sbsg37
(irule
FeatureMatrix
p1090
(dp1091
g23
(lp1092
(I00
g881
tp1093
a(I00
g887
tp1094
asg25
Nsbsg45
(irule
Guard
p1095
(dp1096
g18
I00
sg19
(lp1097
sg33
I00
sg25
Nsg35
I00
sg36
S'R'
sbsg49
(irule
FeatureMatrix
p1098
(dp1099
g23
(lp1100
(I00
g895
tp1101
asg25
Nsbsg25
Nsba(irule
Rule
p1102
(dp1103
g15
(irule
Guard
p1104
(dp1105
g18
I00
sg19
(lp1106
(irule
FeatureMatrix
p1107
(dp1108
g23
(lp1109
(I00
g876
tp1110
asg25
Nsba(irule
FeatureMatrix
p1111
(dp1112
g23
(lp1113
(I01
S'continuant'
p1114
tp1115
a(I00
g881
tp1116
asg25
Nsbasg33
I00
sg25
Nsg35
I00
sg36
S'L'
sbsg37
(irule
FeatureMatrix
p1117
(dp1118
g23
(lp1119
(I00
g881
tp1120
a(I00
g887
tp1121
asg25
Nsbsg45
(irule
Guard
p1122
(dp1123
g18
I00
sg19
(lp1124
sg33
I00
sg25
Nsg35
I00
sg36
S'R'
sbsg49
(irule
FeatureMatrix
p1125
(dp1126
g23
(lp1127
sg25
Nsbsg25
Nsba(irule
Rule
p1128
(dp1129
g15
(irule
Guard
p1130
(dp1131
g18
I00
sg19
(lp1132
(irule
FeatureMatrix
p1133
(dp1134
g23
(lp1135
(I00
g881
tp1136
asg25
Nsba(irule
FeatureMatrix
p1137
(dp1138
g23
(lp1139
(I00
g881
tp1140
asg25
Nsbasg33
I00
sg25
Nsg35
I00
sg36
S'L'
sbsg37
(irule
FeatureMatrix
p1141
(dp1142
g23
(lp1143
(I00
g881
tp1144
a(I00
g887
tp1145
asg25
Nsbsg45
(irule
Guard
p1146
(dp1147
g18
I00
sg19
(lp1148
sg33
I00
sg25
Nsg35
I00
sg36
S'R'
sbsg49
(irule
FeatureMatrix
p1149
(dp1150
g23
(lp1151
(I00
g895
tp1152
asg25
Nsbsg25
Nsba(irule
Rule
p1153
(dp1154
g15
(irule
Guard
p1155
(dp1156
g18
I00
sg19
(lp1157
(irule
FeatureMatrix
p1158
(dp1159
g23
(lp1160
sg25
Nsba(irule
FeatureMatrix
p1161
(dp1162
g23
(lp1163
(I00
g881
tp1164
asg25
Nsbasg33
I00
sg25
Nsg35
I00
sg36
S'L'
sbsg37
(irule
FeatureMatrix
p1165
(dp1166
g23
(lp1167
(I00
g881
tp1168
a(I00
g887
tp1169
asg25
Nsbsg45
(irule
Guard
p1170
(dp1171
g18
I00
sg19
(lp1172
sg33
I00
sg25
Nsg35
I00
sg36
S'R'
sbsg49
(irule
FeatureMatrix
p1173
(dp1174
g23
(lp1175
(I00
g895
tp1176
a(I01
g1114
tp1177
asg25
Nsbsg25
Nsba(irule
Rule
p1178
(dp1179
g15
(irule
Guard
p1180
(dp1181
g18
I00
sg19
(lp1182
(irule
FeatureMatrix
p1183
(dp1184
g23
(lp1185
sg25
Nsba(irule
FeatureMatrix
p1186
(dp1187
g23
(lp1188
(I00
S'glide'
p1189
tp1190
a(I00
g881
tp1191
asg25
Nsbasg33
I00
sg25
Nsg35
I00
sg36
S'L'
sbsg37
(irule
FeatureMatrix
p1192
(dp1193
g23
(lp1194
(I00
g881
tp1195
a(I00
g887
tp1196
asg25
Nsbsg45
(irule
Guard
p1197
(dp1198
g18
I00
sg19
(lp1199
sg33
I00
sg25
Nsg35
I00
sg36
S'R'
sbsg49
(irule
FeatureMatrix
p1200
(dp1201
g23
(lp1202
(I00
g895
tp1203
asg25
Nsbsg25
Nsba(irule
Rule
p1204
(dp1205
g15
(irule
Guard
p1206
(dp1207
g18
I00
sg19
(lp1208
(irule
FeatureMatrix
p1209
(dp1210
g23
(lp1211
sg25
Nsba(irule
FeatureMatrix
p1212
(dp1213
g23
(lp1214
(I01
g1114
tp1215
a(I00
g881
tp1216
asg25
Nsbasg33
I00
sg25
Nsg35
I00
sg36
S'L'
sbsg37
(irule
FeatureMatrix
p1217
(dp1218
g23
(lp1219
(I00
g881
tp1220
a(I00
g887
tp1221
asg25
Nsbsg45
(irule
Guard
p1222
(dp1223
g18
I00
sg19
(lp1224
sg33
I00
sg25
Nsg35
I00
sg36
S'R'
sbsg49
(irule
FeatureMatrix
p1225
(dp1226
g23
(lp1227
(I00
g895
tp1228
asg25
Nsbsg25
Nsba(irule
Rule
p1229
(dp1230
g15
(irule
Guard
p1231
(dp1232
g18
I00
sg19
(lp1233
(irule
FeatureMatrix
p1234
(dp1235
g23
(lp1236
sg25
Nsba(irule
FeatureMatrix
p1237
(dp1238
g23
(lp1239
(I00
g881
tp1240
asg25
Nsbasg33
I00
sg25
Nsg35
I00
sg36
S'L'
sbsg37
(irule
FeatureMatrix
p1241
(dp1242
g23
(lp1243
(I00
g881
tp1244
a(I00
g887
tp1245
asg25
Nsbsg45
(irule
Guard
p1246
(dp1247
g18
I00
sg19
(lp1248
sg33
I00
sg25
Nsg35
I00
sg36
S'R'
sbsg49
(irule
FeatureMatrix
p1249
(dp1250
g23
(lp1251
(I00
g895
tp1252
a(I01
g881
tp1253
asg25
Nsbsg25
Nsba(irule
Rule
p1254
(dp1255
g15
(irule
Guard
p1256
(dp1257
g18
I00
sg19
(lp1258
(irule
FeatureMatrix
p1259
(dp1260
g23
(lp1261
sg25
Nsba(irule
FeatureMatrix
p1262
(dp1263
g23
(lp1264
(I00
g881
tp1265
a(I01
S'voice'
p1266
tp1267
asg25
Nsbasg33
I00
sg25
Nsg35
I00
sg36
S'L'
sbsg37
(irule
FeatureMatrix
p1268
(dp1269
g23
(lp1270
(I00
g881
tp1271
a(I00
g887
tp1272
asg25
Nsbsg45
(irule
Guard
p1273
(dp1274
g18
I00
sg19
(lp1275
sg33
I00
sg25
Nsg35
I00
sg36
S'R'
sbsg49
(irule
FeatureMatrix
p1276
(dp1277
g23
(lp1278
(I00
g895
tp1279
asg25
Nsbsg25
Nsba(irule
Rule
p1280
(dp1281
g15
(irule
Guard
p1282
(dp1283
g18
I00
sg19
(lp1284
(irule
FeatureMatrix
p1285
(dp1286
g23
(lp1287
sg25
Nsba(irule
FeatureMatrix
p1288
(dp1289
g23
(lp1290
(I00
g881
tp1291
asg25
Nsbasg33
I00
sg25
Nsg35
I00
sg36
S'L'
sbsg37
(irule
FeatureMatrix
p1292
(dp1293
g23
(lp1294
(I00
g881
tp1295
a(I00
g887
tp1296
asg25
Nsbsg45
(irule
Guard
p1297
(dp1298
g18
I00
sg19
(lp1299
sg33
I00
sg25
Nsg35
I00
sg36
S'R'
sbsg49
(irule
FeatureMatrix
p1300
(dp1301
g23
(lp1302
(I00
g935
tp1303
a(I00
g895
tp1304
asg25
Nsbsg25
Nsba(irule
Rule
p1305
(dp1306
g15
(irule
Guard
p1307
(dp1308
g18
I00
sg19
(lp1309
(irule
FeatureMatrix
p1310
(dp1311
g23
(lp1312
sg25
Nsba(irule
FeatureMatrix
p1313
(dp1314
g23
(lp1315
(I00
g881
tp1316
a(I01
g1038
tp1317
asg25
Nsbasg33
I00
sg25
Nsg35
I00
sg36
S'L'
sbsg37
(irule
FeatureMatrix
p1318
(dp1319
g23
(lp1320
(I00
g881
tp1321
a(I00
g887
tp1322
asg25
Nsbsg45
(irule
Guard
p1323
(dp1324
g18
I00
sg19
(lp1325
sg33
I00
sg25
Nsg35
I00
sg36
S'R'
sbsg49
(irule
FeatureMatrix
p1326
(dp1327
g23
(lp1328
(I00
g895
tp1329
asg25
Nsbsg25
Nsba(irule
Rule
p1330
(dp1331
g15
(irule
Guard
p1332
(dp1333
g18
I00
sg19
(lp1334
(irule
FeatureMatrix
p1335
(dp1336
g23
(lp1337
sg25
Nsba(irule
FeatureMatrix
p1338
(dp1339
g23
(lp1340
(I00
g881
tp1341
a(I00
g998
tp1342
asg25
Nsbasg33
I00
sg25
Nsg35
I00
sg36
S'L'
sbsg37
(irule
FeatureMatrix
p1343
(dp1344
g23
(lp1345
(I00
g881
tp1346
a(I00
g887
tp1347
asg25
Nsbsg45
(irule
Guard
p1348
(dp1349
g18
I00
sg19
(lp1350
sg33
I00
sg25
Nsg35
I00
sg36
S'R'
sbsg49
(irule
FeatureMatrix
p1351
(dp1352
g23
(lp1353
(I00
g895
tp1354
asg25
Nsbsg25
Nsba(irule
Rule
p1355
(dp1356
g15
(irule
Guard
p1357
(dp1358
g18
I00
sg19
(lp1359
(irule
FeatureMatrix
p1360
(dp1361
g23
(lp1362
(I00
S'rounded'
p1363
tp1364
asg25
Nsba(irule
FeatureMatrix
p1365
(dp1366
g23
(lp1367
(I00
g881
tp1368
asg25
Nsbasg33
I00
sg25
Nsg35
I00
sg36
S'L'
sbsg37
(irule
FeatureMatrix
p1369
(dp1370
g23
(lp1371
(I00
g881
tp1372
a(I00
g887
tp1373
asg25
Nsbsg45
(irule
Guard
p1374
(dp1375
g18
I00
sg19
(lp1376
sg33
I00
sg25
Nsg35
I00
sg36
S'R'
sbsg49
(irule
FeatureMatrix
p1377
(dp1378
g23
(lp1379
(I00
g895
tp1380
asg25
Nsbsg25
Nsba(irule
Rule
p1381
(dp1382
g15
(irule
Guard
p1383
(dp1384
g18
I00
sg19
(lp1385
(irule
FeatureMatrix
p1386
(dp1387
g23
(lp1388
sg25
Nsba(irule
FeatureMatrix
p1389
(dp1390
g23
(lp1391
(I00
g881
tp1392
a(I00
g887
tp1393
asg25
Nsbasg33
I00
sg25
Nsg35
I00
sg36
S'L'
sbsg37
(irule
FeatureMatrix
p1394
(dp1395
g23
(lp1396
(I00
g881
tp1397
a(I00
g887
tp1398
asg25
Nsbsg45
(irule
Guard
p1399
(dp1400
g18
I00
sg19
(lp1401
sg33
I00
sg25
Nsg35
I00
sg36
S'R'
sbsg49
(irule
FeatureMatrix
p1402
(dp1403
g23
(lp1404
(I00
g895
tp1405
asg25
Nsbsg25
Nsba(irule
Rule
p1406
(dp1407
g15
(irule
Guard
p1408
(dp1409
g18
I00
sg19
(lp1410
(irule
FeatureMatrix
p1411
(dp1412
g23
(lp1413
sg25
Nsba(irule
FeatureMatrix
p1414
(dp1415
g23
(lp1416
(I00
g881
tp1417
a(I01
S'sonorant'
p1418
tp1419
asg25
Nsbasg33
I00
sg25
Nsg35
I00
sg36
S'L'
sbsg37
(irule
FeatureMatrix
p1420
(dp1421
g23
(lp1422
(I00
g881
tp1423
a(I00
g887
tp1424
asg25
Nsbsg45
(irule
Guard
p1425
(dp1426
g18
I00
sg19
(lp1427
sg33
I00
sg25
Nsg35
I00
sg36
S'R'
sbsg49
(irule
FeatureMatrix
p1428
(dp1429
g23
(lp1430
(I00
g895
tp1431
asg25
Nsbsg25
Nsba(irule
Rule
p1432
(dp1433
g15
(irule
Guard
p1434
(dp1435
g18
I00
sg19
(lp1436
(irule
FeatureMatrix
p1437
(dp1438
g23
(lp1439
sg25
Nsba(irule
FeatureMatrix
p1440
(dp1441
g23
(lp1442
(I00
g881
tp1443
a(I00
S'palletized'
p1444
tp1445
asg25
Nsbasg33
I00
sg25
Nsg35
I00
sg36
S'L'
sbsg37
(irule
FeatureMatrix
p1446
(dp1447
g23
(lp1448
(I00
g881
tp1449
a(I00
g887
tp1450
asg25
Nsbsg45
(irule
Guard
p1451
(dp1452
g18
I00
sg19
(lp1453
sg33
I00
sg25
Nsg35
I00
sg36
S'R'
sbsg49
(irule
FeatureMatrix
p1454
(dp1455
g23
(lp1456
(I00
g895
tp1457
asg25
Nsbsg25
Nsba(irule
Rule
p1458
(dp1459
g15
(irule
Guard
p1460
(dp1461
g18
I00
sg19
(lp1462
(irule
FeatureMatrix
p1463
(dp1464
g23
(lp1465
(I00
g895
tp1466
asg25
Nsba(irule
FeatureMatrix
p1467
(dp1468
g23
(lp1469
(I00
g881
tp1470
asg25
Nsbasg33
I00
sg25
Nsg35
I00
sg36
S'L'
sbsg37
(irule
FeatureMatrix
p1471
(dp1472
g23
(lp1473
(I00
g881
tp1474
a(I00
g887
tp1475
asg25
Nsbsg45
(irule
Guard
p1476
(dp1477
g18
I00
sg19
(lp1478
sg33
I00
sg25
Nsg35
I00
sg36
S'R'
sbsg49
(irule
FeatureMatrix
p1479
(dp1480
g23
(lp1481
(I00
g895
tp1482
asg25
Nsbsg25
Nsba(irule
Rule
p1483
(dp1484
g15
(irule
Guard
p1485
(dp1486
g18
I00
sg19
(lp1487
(irule
FeatureMatrix
p1488
(dp1489
g23
(lp1490
sg25
Nsba(irule
FeatureMatrix
p1491
(dp1492
g23
(lp1493
(I00
S'lateral'
p1494
tp1495
a(I00
g881
tp1496
asg25
Nsbasg33
I00
sg25
Nsg35
I00
sg36
S'L'
sbsg37
(irule
FeatureMatrix
p1497
(dp1498
g23
(lp1499
(I00
g881
tp1500
a(I00
g887
tp1501
asg25
Nsbsg45
(irule
Guard
p1502
(dp1503
g18
I00
sg19
(lp1504
sg33
I00
sg25
Nsg35
I00
sg36
S'R'
sbsg49
(irule
FeatureMatrix
p1505
(dp1506
g23
(lp1507
(I00
g895
tp1508
asg25
Nsbsg25
Nsba(irule
Rule
p1509
(dp1510
g15
(irule
Guard
p1511
(dp1512
g18
I00
sg19
(lp1513
(irule
FeatureMatrix
p1514
(dp1515
g23
(lp1516
sg25
Nsba(irule
FeatureMatrix
p1517
(dp1518
g23
(lp1519
(I00
g876
tp1520
a(I00
g881
tp1521
asg25
Nsbasg33
I00
sg25
Nsg35
I00
sg36
S'L'
sbsg37
(irule
FeatureMatrix
p1522
(dp1523
g23
(lp1524
(I00
g881
tp1525
a(I00
g887
tp1526
asg25
Nsbsg45
(irule
Guard
p1527
(dp1528
g18
I00
sg19
(lp1529
sg33
I00
sg25
Nsg35
I00
sg36
S'R'
sbsg49
(irule
FeatureMatrix
p1530
(dp1531
g23
(lp1532
(I00
g895
tp1533
asg25
Nsbsg25
Nsba(irule
Rule
p1534
(dp1535
g15
(irule
Guard
p1536
(dp1537
g18
I00
sg19
(lp1538
(irule
FeatureMatrix
p1539
(dp1540
g23
(lp1541
sg25
Nsba(irule
FeatureMatrix
p1542
(dp1543
g23
(lp1544
(I00
g881
tp1545
asg25
Nsbasg33
I00
sg25
Nsg35
I00
sg36
S'L'
sbsg37
(irule
FeatureMatrix
p1546
(dp1547
g23
(lp1548
(I00
g881
tp1549
a(I00
g887
tp1550
asg25
Nsbsg45
(irule
Guard
p1551
(dp1552
g18
I00
sg19
(lp1553
sg33
I00
sg25
Nsg35
I00
sg36
S'R'
sbsg49
(irule
FeatureMatrix
p1554
(dp1555
g23
(lp1556
(I00
g895
tp1557
a(I00
g1189
tp1558
asg25
Nsbsg25
Nsba(irule
Rule
p1559
(dp1560
g15
(irule
Guard
p1561
(dp1562
g18
I00
sg19
(lp1563
(irule
FeatureMatrix
p1564
(dp1565
g23
(lp1566
sg25
Nsba(irule
FeatureMatrix
p1567
(dp1568
g23
(lp1569
(I00
S'liquid'
p1570
tp1571
a(I00
g881
tp1572
asg25
Nsbasg33
I00
sg25
Nsg35
I00
sg36
S'L'
sbsg37
(irule
FeatureMatrix
p1573
(dp1574
g23
(lp1575
(I00
g881
tp1576
a(I00
g887
tp1577
asg25
Nsbsg45
(irule
Guard
p1578
(dp1579
g18
I00
sg19
(lp1580
sg33
I00
sg25
Nsg35
I00
sg36
S'R'
sbsg49
(irule
FeatureMatrix
p1581
(dp1582
g23
(lp1583
(I00
g895
tp1584
asg25
Nsbsg25
Nsba(irule
Rule
p1585
(dp1586
g15
(irule
Guard
p1587
(dp1588
g18
I00
sg19
(lp1589
(irule
FeatureMatrix
p1590
(dp1591
g23
(lp1592
sg25
Nsba(irule
FeatureMatrix
p1593
(dp1594
g23
(lp1595
(I00
g935
tp1596
a(I00
g881
tp1597
asg25
Nsbasg33
I00
sg25
Nsg35
I00
sg36
S'L'
sbsg37
(irule
FeatureMatrix
p1598
(dp1599
g23
(lp1600
(I00
g881
tp1601
a(I00
g887
tp1602
asg25
Nsbsg45
(irule
Guard
p1603
(dp1604
g18
I00
sg19
(lp1605
sg33
I00
sg25
Nsg35
I00
sg36
S'R'
sbsg49
(irule
FeatureMatrix
p1606
(dp1607
g23
(lp1608
(I00
g895
tp1609
asg25
Nsbsg25
Nsba(irule
Rule
p1610
(dp1611
g15
(irule
Guard
p1612
(dp1613
g18
I00
sg19
(lp1614
(irule
FeatureMatrix
p1615
(dp1616
g23
(lp1617
sg25
Nsba(irule
FeatureMatrix
p1618
(dp1619
g23
(lp1620
(I00
g881
tp1621
asg25
Nsbasg33
I00
sg25
Nsg35
I00
sg36
S'L'
sbsg37
(irule
FeatureMatrix
p1622
(dp1623
g23
(lp1624
(I00
g881
tp1625
a(I00
g887
tp1626
asg25
Nsbsg45
(irule
Guard
p1627
(dp1628
g18
I00
sg19
(lp1629
sg33
I00
sg25
Nsg35
I00
sg36
S'R'
sbsg49
(irule
FeatureMatrix
p1630
(dp1631
g23
(lp1632
(I00
g895
tp1633
a(I00
g1444
tp1634
asg25
Nsbsg25
Nsba(irule
Rule
p1635
(dp1636
g15
(irule
Guard
p1637
(dp1638
g18
I00
sg19
(lp1639
(irule
FeatureMatrix
p1640
(dp1641
g23
(lp1642
(I00
S'high'
tp1643
asg25
Nsba(irule
FeatureMatrix
p1644
(dp1645
g23
(lp1646
(I00
g881
tp1647
asg25
Nsbasg33
I00
sg25
Nsg35
I00
sg36
S'L'
sbsg37
(irule
FeatureMatrix
p1648
(dp1649
g23
(lp1650
(I00
g881
tp1651
a(I00
g887
tp1652
asg25
Nsbsg45
(irule
Guard
p1653
(dp1654
g18
I00
sg19
(lp1655
sg33
I00
sg25
Nsg35
I00
sg36
S'R'
sbsg49
(irule
FeatureMatrix
p1656
(dp1657
g23
(lp1658
(I00
g895
tp1659
asg25
Nsbsg25
Nsba(irule
Rule
p1660
(dp1661
g15
(irule
Guard
p1662
(dp1663
g18
I00
sg19
(lp1664
(irule
FeatureMatrix
p1665
(dp1666
g23
(lp1667
sg25
Nsba(irule
FeatureMatrix
p1668
(dp1669
g23
(lp1670
(I00
g881
tp1671
asg25
Nsbasg33
I00
sg25
Nsg35
I00
sg36
S'L'
sbsg37
(irule
FeatureMatrix
p1672
(dp1673
g23
(lp1674
(I00
g881
tp1675
a(I00
g887
tp1676
asg25
Nsbsg45
(irule
Guard
p1677
(dp1678
g18
I00
sg19
(lp1679
sg33
I00
sg25
Nsg35
I00
sg36
S'R'
sbsg49
(irule
FeatureMatrix
p1680
(dp1681
g23
(lp1682
(I00
g895
tp1683
a(I00
g1363
tp1684
asg25
Nsbsg25
Nsba(irule
Rule
p1685
(dp1686
g15
(irule
Guard
p1687
(dp1688
g18
I00
sg19
(lp1689
(irule
FeatureMatrix
p1690
(dp1691
g23
(lp1692
sg25
Nsba(irule
FeatureMatrix
p1693
(dp1694
g23
(lp1695
(I00
g881
tp1696
asg25
Nsbasg33
I00
sg25
Nsg35
I00
sg36
S'L'
sbsg37
(irule
FeatureMatrix
p1697
(dp1698
g23
(lp1699
(I00
g881
tp1700
a(I00
g887
tp1701
asg25
Nsbsg45
(irule
Guard
p1702
(dp1703
g18
I00
sg19
(lp1704
sg33
I00
sg25
Nsg35
I00
sg36
S'R'
sbsg49
(irule
FeatureMatrix
p1705
(dp1706
g23
(lp1707
(I00
g895
tp1708
a(I01
g1266
tp1709
asg25
Nsbsg25
Nsba(irule
Rule
p1710
(dp1711
g15
(irule
Guard
p1712
(dp1713
g18
I00
sg19
(lp1714
(irule
FeatureMatrix
p1715
(dp1716
g23
(lp1717
sg25
Nsba(irule
FeatureMatrix
p1718
(dp1719
g23
(lp1720
(I00
g881
tp1721
asg25
Nsbasg33
I00
sg25
Nsg35
I00
sg36
S'L'
sbsg37
(irule
FeatureMatrix
p1722
(dp1723
g23
(lp1724
(I00
g881
tp1725
a(I00
g887
tp1726
asg25
Nsbsg45
(irule
Guard
p1727
(dp1728
g18
I00
sg19
(lp1729
sg33
I00
sg25
Nsg35
I00
sg36
S'R'
sbsg49
(irule
FeatureMatrix
p1730
(dp1731
g23
(lp1732
(I00
g895
tp1733
a(I00
g1088
tp1734
asg25
Nsbsg25
Nsba(irule
Rule
p1735
(dp1736
g15
(irule
Guard
p1737
(dp1738
g18
I00
sg19
(lp1739
(irule
FeatureMatrix
p1740
(dp1741
g23
(lp1742
(I00
g1038
tp1743
asg25
Nsba(irule
FeatureMatrix
p1744
(dp1745
g23
(lp1746
(I00
g881
tp1747
asg25
Nsbasg33
I00
sg25
Nsg35
I00
sg36
S'L'
sbsg37
(irule
FeatureMatrix
p1748
(dp1749
g23
(lp1750
(I00
g881
tp1751
a(I00
g887
tp1752
asg25
Nsbsg45
(irule
Guard
p1753
(dp1754
g18
I00
sg19
(lp1755
sg33
I00
sg25
Nsg35
I00
sg36
S'R'
sbsg49
(irule
FeatureMatrix
p1756
(dp1757
g23
(lp1758
(I00
g895
tp1759
asg25
Nsbsg25
Nsba(irule
Rule
p1760
(dp1761
g15
(irule
Guard
p1762
(dp1763
g18
I00
sg19
(lp1764
(irule
FeatureMatrix
p1765
(dp1766
g23
(lp1767
sg25
Nsba(irule
FeatureMatrix
p1768
(dp1769
g23
(lp1770
(I00
g881
tp1771
asg25
Nsbasg33
I00
sg25
Nsg35
I00
sg36
S'L'
sbsg37
(irule
FeatureMatrix
p1772
(dp1773
g23
(lp1774
(I00
g881
tp1775
a(I00
g887
tp1776
asg25
Nsbsg45
(irule
Guard
p1777
(dp1778
g18
I00
sg19
(lp1779
sg33
I00
sg25
Nsg35
I00
sg36
S'R'
sbsg49
(irule
FeatureMatrix
p1780
(dp1781
g23
(lp1782
(I00
g895
tp1783
a(I00
g1494
tp1784
asg25
Nsbsg25
Nsba(irule
Rule
p1785
(dp1786
g15
(irule
Guard
p1787
(dp1788
g18
I00
sg19
(lp1789
(irule
FeatureMatrix
p1790
(dp1791
g23
(lp1792
sg25
Nsba(irule
FeatureMatrix
p1793
(dp1794
g23
(lp1795
(I00
g881
tp1796
asg25
Nsbasg33
I00
sg25
Nsg35
I00
sg36
S'L'
sbsg37
(irule
FeatureMatrix
p1797
(dp1798
g23
(lp1799
(I00
g881
tp1800
a(I00
g887
tp1801
asg25
Nsbsg45
(irule
Guard
p1802
(dp1803
g18
I00
sg19
(lp1804
sg33
I00
sg25
Nsg35
I00
sg36
S'R'
sbsg49
(irule
FeatureMatrix
p1805
(dp1806
g23
(lp1807
(I00
g895
tp1808
a(I00
g876
tp1809
asg25
Nsbsg25
Nsba(irule
Rule
p1810
(dp1811
g15
(irule
Guard
p1812
(dp1813
g18
I00
sg19
(lp1814
(irule
FeatureMatrix
p1815
(dp1816
g23
(lp1817
sg25
Nsba(irule
FeatureMatrix
p1818
(dp1819
g23
(lp1820
(I00
g881
tp1821
asg25
Nsbasg33
I00
sg25
Nsg35
I00
sg36
S'L'
sbsg37
(irule
FeatureMatrix
p1822
(dp1823
g23
(lp1824
(I00
g881
tp1825
a(I00
g887
tp1826
asg25
Nsbsg45
(irule
Guard
p1827
(dp1828
g18
I00
sg19
(lp1829
sg33
I00
sg25
Nsg35
I00
sg36
S'R'
sbsg49
(irule
FeatureMatrix
p1830
(dp1831
g23
(lp1832
(I00
g895
tp1833
a(I00
g1570
tp1834
asg25
Nsbsg25
Nsba(irule
Rule
p1835
(dp1836
g15
(irule
Guard
p1837
(dp1838
g18
I00
sg19
(lp1839
(irule
FeatureMatrix
p1840
(dp1841
g23
(lp1842
sg25
Nsba(irule
FeatureMatrix
p1843
(dp1844
g23
(lp1845
(I00
g881
tp1846
asg25
Nsbasg33
I00
sg25
Nsg35
I00
sg36
S'L'
sbsg37
(irule
FeatureMatrix
p1847
(dp1848
g23
(lp1849
(I00
g881
tp1850
a(I00
g887
tp1851
asg25
Nsbsg45
(irule
Guard
p1852
(dp1853
g18
I00
sg19
(lp1854
sg33
I00
sg25
Nsg35
I00
sg36
S'R'
sbsg49
(irule
FeatureMatrix
p1855
(dp1856
g23
(lp1857
(I00
g895
tp1858
a(I01
g1038
tp1859
asg25
Nsbsg25
Nsba(irule
Rule
p1860
(dp1861
g15
(irule
Guard
p1862
(dp1863
g18
I00
sg19
(lp1864
(irule
FeatureMatrix
p1865
(dp1866
g23
(lp1867
(I00
g887
tp1868
asg25
Nsba(irule
FeatureMatrix
p1869
(dp1870
g23
(lp1871
(I00
g881
tp1872
asg25
Nsbasg33
I00
sg25
Nsg35
I00
sg36
S'L'
sbsg37
(irule
FeatureMatrix
p1873
(dp1874
g23
(lp1875
(I00
g881
tp1876
a(I00
g887
tp1877
asg25
Nsbsg45
(irule
Guard
p1878
(dp1879
g18
I00
sg19
(lp1880
sg33
I00
sg25
Nsg35
I00
sg36
S'R'
sbsg49
(irule
FeatureMatrix
p1881
(dp1882
g23
(lp1883
(I00
g895
tp1884
asg25
Nsbsg25
Nsba(irule
Rule
p1885
(dp1886
g15
(irule
Guard
p1887
(dp1888
g18
I00
sg19
(lp1889
(irule
FeatureMatrix
p1890
(dp1891
g23
(lp1892
sg25
Nsba(irule
FeatureMatrix
p1893
(dp1894
g23
(lp1895
(I00
g881
tp1896
asg25
Nsbasg33
I00
sg25
Nsg35
I00
sg36
S'L'
sbsg37
(irule
FeatureMatrix
p1897
(dp1898
g23
(lp1899
(I00
g881
tp1900
a(I00
g887
tp1901
asg25
Nsbsg45
(irule
Guard
p1902
(dp1903
g18
I00
sg19
(lp1904
sg33
I00
sg25
Nsg35
I00
sg36
S'R'
sbsg49
(irule
FeatureMatrix
p1905
(dp1906
g23
(lp1907
(I00
g895
tp1908
a(I01
g1418
tp1909
asg25
Nsbsg25
Nsba(irule
Rule
p1910
(dp1911
g15
(irule
Guard
p1912
(dp1913
g18
I00
sg19
(lp1914
(irule
FeatureMatrix
p1915
(dp1916
g23
(lp1917
(I00
g910
tp1918
asg25
Nsba(irule
FeatureMatrix
p1919
(dp1920
g23
(lp1921
(I00
g881
tp1922
asg25
Nsbasg33
I00
sg25
Nsg35
I00
sg36
S'L'
sbsg37
(irule
FeatureMatrix
p1923
(dp1924
g23
(lp1925
(I00
g881
tp1926
a(I00
g887
tp1927
asg25
Nsbsg45
(irule
Guard
p1928
(dp1929
g18
I00
sg19
(lp1930
sg33
I00
sg25
Nsg35
I00
sg36
S'R'
sbsg49
(irule
FeatureMatrix
p1931
(dp1932
g23
(lp1933
(I00
g895
tp1934
asg25
Nsbsg25
Nsba(irule
Rule
p1935
(dp1936
g15
(irule
Guard
p1937
(dp1938
g18
I00
sg19
(lp1939
(irule
FeatureMatrix
p1940
(dp1941
g23
(lp1942
sg25
Nsba(irule
FeatureMatrix
p1943
(dp1944
g23
(lp1945
(I00
g881
tp1946
asg25
Nsbasg33
I00
sg25
Nsg35
I00
sg36
S'L'
sbsg37
(irule
FeatureMatrix
p1947
(dp1948
g23
(lp1949
(I00
g881
tp1950
a(I00
g887
tp1951
asg25
Nsbsg45
(irule
Guard
p1952
(dp1953
g18
I00
sg19
(lp1954
sg33
I00
sg25
Nsg35
I00
sg36
S'R'
sbsg49
(irule
FeatureMatrix
p1955
(dp1956
g23
(lp1957
(I00
g895
tp1958
a(I01
g910
tp1959
asg25
Nsbsg25
Nsba(irule
Rule
p1960
(dp1961
g15
(irule
Guard
p1962
(dp1963
g18
I00
sg19
(lp1964
(irule
FeatureMatrix
p1965
(dp1966
g23
(lp1967
(I00
g876
tp1968
asg25
Nsba(irule
FeatureMatrix
p1969
(dp1970
g23
(lp1971
(I00
g881
tp1972
a(I01
g1038
tp1973
asg25
Nsbasg33
I00
sg25
Nsg35
I00
sg36
S'L'
sbsg37
(irule
FeatureMatrix
p1974
(dp1975
g23
(lp1976
(I00
g881
tp1977
a(I00
g887
tp1978
asg25
Nsbsg45
(irule
Guard
p1979
(dp1980
g18
I00
sg19
(lp1981
sg33
I00
sg25
Nsg35
I00
sg36
S'R'
sbsg49
(irule
FeatureMatrix
p1982
(dp1983
g23
(lp1984
(I00
g1363
tp1985
asg25
Nsbsg25
Nsba(irule
Rule
p1986
(dp1987
g15
(irule
Guard
p1988
(dp1989
g18
I00
sg19
(lp1990
(irule
FeatureMatrix
p1991
(dp1992
g23
(lp1993
(I00
g876
tp1994
asg25
Nsba(irule
FeatureMatrix
p1995
(dp1996
g23
(lp1997
(I00
g876
tp1998
a(I00
g881
tp1999
a(I01
g910
tp2000
asg25
Nsbasg33
I00
sg25
Nsg35
I00
sg36
S'L'
sbsg37
(irule
FeatureMatrix
p2001
(dp2002
g23
(lp2003
(I00
g881
tp2004
a(I00
g887
tp2005
asg25
Nsbsg45
(irule
Guard
p2006
(dp2007
g18
I00
sg19
(lp2008
sg33
I00
sg25
Nsg35
I00
sg36
S'R'
sbsg49
(irule
FeatureMatrix
p2009
(dp2010
g23
(lp2011
sg25
Nsbsg25
Nsba(irule
Rule
p2012
(dp2013
g15
(irule
Guard
p2014
(dp2015
g18
I00
sg19
(lp2016
(irule
FeatureMatrix
p2017
(dp2018
g23
(lp2019
(I00
g876
tp2020
asg25
Nsba(irule
FeatureMatrix
p2021
(dp2022
g23
(lp2023
(I00
g881
tp2024
a(I01
g910
tp2025
asg25
Nsbasg33
I00
sg25
Nsg35
I00
sg36
S'L'
sbsg37
(irule
FeatureMatrix
p2026
(dp2027
g23
(lp2028
(I00
g881
tp2029
a(I00
g998
tp2030
a(I00
g887
tp2031
asg25
Nsbsg45
(irule
Guard
p2032
(dp2033
g18
I00
sg19
(lp2034
sg33
I00
sg25
Nsg35
I00
sg36
S'R'
sbsg49
(irule
FeatureMatrix
p2035
(dp2036
g23
(lp2037
sg25
Nsbsg25
Nsba(irule
Rule
p2038
(dp2039
g15
(irule
Guard
p2040
(dp2041
g18
I00
sg19
(lp2042
(irule
FeatureMatrix
p2043
(dp2044
g23
(lp2045
(I00
g876
tp2046
asg25
Nsba(irule
FeatureMatrix
p2047
(dp2048
g23
(lp2049
(I00
g881
tp2050
a(I01
g910
tp2051
asg25
Nsbasg33
I00
sg25
Nsg35
I00
sg36
S'L'
sbsg37
(irule
FeatureMatrix
p2052
(dp2053
g23
(lp2054
(I00
g881
tp2055
a(I00
g887
tp2056
asg25
Nsbsg45
(irule
Guard
p2057
(dp2058
g18
I00
sg19
(lp2059
sg33
I00
sg25
Nsg35
I00
sg36
S'R'
sbsg49
(irule
FeatureMatrix
p2060
(dp2061
g23
(lp2062
(I00
g998
tp2063
asg25
Nsbsg25
Nsba(irule
Rule
p2064
(dp2065
g15
(irule
Guard
p2066
(dp2067
g18
I00
sg19
(lp2068
(irule
FeatureMatrix
p2069
(dp2070
g23
(lp2071
(I00
g876
tp2072
asg25
Nsba(irule
FeatureMatrix
p2073
(dp2074
g23
(lp2075
(I00
g1189
tp2076
a(I00
g881
tp2077
a(I01
g910
tp2078
asg25
Nsbasg33
I00
sg25
Nsg35
I00
sg36
S'L'
sbsg37
(irule
FeatureMatrix
p2079
(dp2080
g23
(lp2081
(I00
g881
tp2082
a(I00
g887
tp2083
asg25
Nsbsg45
(irule
Guard
p2084
(dp2085
g18
I00
sg19
(lp2086
sg33
I00
sg25
Nsg35
I00
sg36
S'R'
sbsg49
(irule
FeatureMatrix
p2087
(dp2088
g23
(lp2089
sg25
Nsbsg25
Nsba(irule
Rule
p2090
(dp2091
g15
(irule
Guard
p2092
(dp2093
g18
I00
sg19
(lp2094
(irule
FeatureMatrix
p2095
(dp2096
g23
(lp2097
(I00
g876
tp2098
asg25
Nsba(irule
FeatureMatrix
p2099
(dp2100
g23
(lp2101
(I00
g881
tp2102
a(I01
g910
tp2103
asg25
Nsbasg33
I00
sg25
Nsg35
I00
sg36
S'L'
sbsg37
(irule
FeatureMatrix
p2104
(dp2105
g23
(lp2106
(I00
g881
tp2107
a(I00
g887
tp2108
a(I01
g910
tp2109
asg25
Nsbsg45
(irule
Guard
p2110
(dp2111
g18
I00
sg19
(lp2112
sg33
I00
sg25
Nsg35
I00
sg36
S'R'
sbsg49
(irule
FeatureMatrix
p2113
(dp2114
g23
(lp2115
sg25
Nsbsg25
Nsba(irule
Rule
p2116
(dp2117
g15
(irule
Guard
p2118
(dp2119
g18
I00
sg19
(lp2120
(irule
FeatureMatrix
p2121
(dp2122
g23
(lp2123
sg25
Nsba(irule
FeatureMatrix
p2124
(dp2125
g23
(lp2126
(I00
g881
tp2127
asg25
Nsbasg33
I00
sg25
Nsg35
I00
sg36
S'L'
sbsg37
(irule
FeatureMatrix
p2128
(dp2129
g23
(lp2130
(I00
g881
tp2131
a(I00
g887
tp2132
a(I01
g1266
tp2133
asg25
Nsbsg45
(irule
Guard
p2134
(dp2135
g18
I00
sg19
(lp2136
sg33
I00
sg25
Nsg35
I00
sg36
S'R'
sbsg49
(irule
FeatureMatrix
p2137
(dp2138
g23
(lp2139
(I00
g895
tp2140
a(I00
g998
tp2141
asg25
Nsbsg25
Nsba(irule
Rule
p2142
(dp2143
g15
(irule
Guard
p2144
(dp2145
g18
I00
sg19
(lp2146
(irule
FeatureMatrix
p2147
(dp2148
g23
(lp2149
(I00
g876
tp2150
asg25
Nsba(irule
FeatureMatrix
p2151
(dp2152
g23
(lp2153
(I00
g881
tp2154
a(I01
g910
tp2155
asg25
Nsbasg33
I00
sg25
Nsg35
I00
sg36
S'L'
sbsg37
(irule
FeatureMatrix
p2156
(dp2157
g23
(lp2158
(I00
g881
tp2159
a(I00
g887
tp2160
asg25
Nsbsg45
(irule
Guard
p2161
(dp2162
g18
I00
sg19
(lp2163
sg33
I00
sg25
Nsg35
I00
sg36
S'R'
sbsg49
(irule
FeatureMatrix
p2164
(dp2165
g23
(lp2166
(I00
g1444
tp2167
asg25
Nsbsg25
Nsba(irule
Rule
p2168
(dp2169
g15
(irule
Guard
p2170
(dp2171
g18
I00
sg19
(lp2172
(irule
FeatureMatrix
p2173
(dp2174
g23
(lp2175
(I00
g876
tp2176
asg25
Nsba(irule
FeatureMatrix
p2177
(dp2178
g23
(lp2179
(I00
g881
tp2180
a(I01
g910
tp2181
asg25
Nsbasg33
I00
sg25
Nsg35
I00
sg36
S'L'
sbsg37
(irule
FeatureMatrix
p2182
(dp2183
g23
(lp2184
(I00
g935
tp2185
a(I00
g881
tp2186
a(I00
g887
tp2187
asg25
Nsbsg45
(irule
Guard
p2188
(dp2189
g18
I00
sg19
(lp2190
sg33
I00
sg25
Nsg35
I00
sg36
S'R'
sbsg49
(irule
FeatureMatrix
p2191
(dp2192
g23
(lp2193
sg25
Nsbsg25
Nsba(irule
Rule
p2194
(dp2195
g15
(irule
Guard
p2196
(dp2197
g18
I00
sg19
(lp2198
(irule
FeatureMatrix
p2199
(dp2200
g23
(lp2201
(I00
g876
tp2202
asg25
Nsba(irule
FeatureMatrix
p2203
(dp2204
g23
(lp2205
(I00
g881
tp2206
a(I01
g910
tp2207
asg25
Nsbasg33
I00
sg25
Nsg35
I00
sg36
S'L'
sbsg37
(irule
FeatureMatrix
p2208
(dp2209
g23
(lp2210
(I00
g881
tp2211
a(I00
g887
tp2212
asg25
Nsbsg45
(irule
Guard
p2213
(dp2214
g18
I00
sg19
(lp2215
sg33
I00
sg25
Nsg35
I00
sg36
S'R'
sbsg49
(irule
FeatureMatrix
p2216
(dp2217
g23
(lp2218
(I01
g1266
tp2219
asg25
Nsbsg25
Nsba(irule
Rule
p2220
(dp2221
g15
(irule
Guard
p2222
(dp2223
g18
I00
sg19
(lp2224
(irule
FeatureMatrix
p2225
(dp2226
g23
(lp2227
(I00
g876
tp2228
asg25
Nsba(irule
FeatureMatrix
p2229
(dp2230
g23
(lp2231
(I00
g876
tp2232
a(I00
g881
tp2233
a(I00
g887
tp2234
asg25
Nsbasg33
I00
sg25
Nsg35
I00
sg36
S'L'
sbsg37
(irule
FeatureMatrix
p2235
(dp2236
g23
(lp2237
(I00
g881
tp2238
a(I00
g887
tp2239
asg25
Nsbsg45
(irule
Guard
p2240
(dp2241
g18
I00
sg19
(lp2242
sg33
I00
sg25
Nsg35
I00
sg36
S'R'
sbsg49
(irule
FeatureMatrix
p2243
(dp2244
g23
(lp2245
sg25
Nsbsg25
Nsba(irule
Rule
p2246
(dp2247
g15
(irule
Guard
p2248
(dp2249
g18
I00
sg19
(lp2250
(irule
FeatureMatrix
p2251
(dp2252
g23
(lp2253
(I00
g876
tp2254
asg25
Nsba(irule
FeatureMatrix
p2255
(dp2256
g23
(lp2257
(I00
g881
tp2258
a(I01
g910
tp2259
asg25
Nsbasg33
I00
sg25
Nsg35
I00
sg36
S'L'
sbsg37
(irule
FeatureMatrix
p2260
(dp2261
g23
(lp2262
(I00
g1494
tp2263
a(I00
g881
tp2264
a(I00
g887
tp2265
asg25
Nsbsg45
(irule
Guard
p2266
(dp2267
g18
I00
sg19
(lp2268
sg33
I00
sg25
Nsg35
I00
sg36
S'R'
sbsg49
(irule
FeatureMatrix
p2269
(dp2270
g23
(lp2271
sg25
Nsbsg25
Nsba(irule
Rule
p2272
(dp2273
g15
(irule
Guard
p2274
(dp2275
g18
I00
sg19
(lp2276
(irule
FeatureMatrix
p2277
(dp2278
g23
(lp2279
(I00
g876
tp2280
a(I00
g910
tp2281
asg25
Nsba(irule
FeatureMatrix
p2282
(dp2283
g23
(lp2284
(I00
g881
tp2285
a(I01
g910
tp2286
asg25
Nsbasg33
I00
sg25
Nsg35
I00
sg36
S'L'
sbsg37
(irule
FeatureMatrix
p2287
(dp2288
g23
(lp2289
(I00
g881
tp2290
a(I00
g887
tp2291
asg25
Nsbsg45
(irule
Guard
p2292
(dp2293
g18
I00
sg19
(lp2294
sg33
I00
sg25
Nsg35
I00
sg36
S'R'
sbsg49
(irule
FeatureMatrix
p2295
(dp2296
g23
(lp2297
sg25
Nsbsg25
Nsba(irule
Rule
p2298
(dp2299
g15
(irule
Guard
p2300
(dp2301
g18
I00
sg19
(lp2302
(irule
FeatureMatrix
p2303
(dp2304
g23
(lp2305
(I00
g876
tp2306
asg25
Nsba(irule
FeatureMatrix
p2307
(dp2308
g23
(lp2309
(I00
g881
tp2310
a(I01
g1038
tp2311
asg25
Nsbasg33
I00
sg25
Nsg35
I00
sg36
S'L'
sbsg37
(irule
FeatureMatrix
p2312
(dp2313
g23
(lp2314
(I00
g881
tp2315
a(I00
g998
tp2316
a(I00
g887
tp2317
asg25
Nsbsg45
(irule
Guard
p2318
(dp2319
g18
I00
sg19
(lp2320
sg33
I00
sg25
Nsg35
I00
sg36
S'R'
sbsg49
(irule
FeatureMatrix
p2321
(dp2322
g23
(lp2323
sg25
Nsbsg25
Nsba(irule
Rule
p2324
(dp2325
g15
(irule
Guard
p2326
(dp2327
g18
I00
sg19
(lp2328
(irule
FeatureMatrix
p2329
(dp2330
g23
(lp2331
(I00
g876
tp2332
asg25
Nsba(irule
FeatureMatrix
p2333
(dp2334
g23
(lp2335
(I00
g881
tp2336
a(I01
g1038
tp2337
asg25
Nsbasg33
I00
sg25
Nsg35
I00
sg36
S'L'
sbsg37
(irule
FeatureMatrix
p2338
(dp2339
g23
(lp2340
(I00
g881
tp2341
a(I00
g887
tp2342
asg25
Nsbsg45
(irule
Guard
p2343
(dp2344
g18
I00
sg19
(lp2345
sg33
I00
sg25
Nsg35
I00
sg36
S'R'
sbsg49
(irule
FeatureMatrix
p2346
(dp2347
g23
(lp2348
(I00
g998
tp2349
asg25
Nsbsg25
Nsba(irule
Rule
p2350
(dp2351
g15
(irule
Guard
p2352
(dp2353
g18
I00
sg19
(lp2354
(irule
FeatureMatrix
p2355
(dp2356
g23
(lp2357
(I00
g876
tp2358
asg25
Nsba(irule
FeatureMatrix
p2359
(dp2360
g23
(lp2361
(I00
g881
tp2362
a(I01
g910
tp2363
asg25
Nsbasg33
I00
sg25
Nsg35
I00
sg36
S'L'
sbsg37
(irule
FeatureMatrix
p2364
(dp2365
g23
(lp2366
(I00
g881
tp2367
a(I00
g887
tp2368
asg25
Nsbsg45
(irule
Guard
p2369
(dp2370
g18
I00
sg19
(lp2371
sg33
I00
sg25
Nsg35
I00
sg36
S'R'
sbsg49
(irule
FeatureMatrix
p2372
(dp2373
g23
(lp2374
(I01
g910
tp2375
asg25
Nsbsg25
Nsba(irule
Rule
p2376
(dp2377
g15
(irule
Guard
p2378
(dp2379
g18
I00
sg19
(lp2380
(irule
FeatureMatrix
p2381
(dp2382
g23
(lp2383
sg25
Nsba(irule
FeatureMatrix
p2384
(dp2385
g23
(lp2386
(I00
g1189
tp2387
a(I00
g881
tp2388
a(I01
g910
tp2389
asg25
Nsbasg33
I00
sg25
Nsg35
I00
sg36
S'L'
sbsg37
(irule
FeatureMatrix
p2390
(dp2391
g23
(lp2392
(I00
g881
tp2393
a(I00
g887
tp2394
asg25
Nsbsg45
(irule
Guard
p2395
(dp2396
g18
I00
sg19
(lp2397
sg33
I00
sg25
Nsg35
I00
sg36
S'R'
sbsg49
(irule
FeatureMatrix
p2398
(dp2399
g23
(lp2400
(I00
g895
tp2401
asg25
Nsbsg25
Nsba(irule
Rule
p2402
(dp2403
g15
(irule
Guard
p2404
(dp2405
g18
I00
sg19
(lp2406
(irule
FeatureMatrix
p2407
(dp2408
g23
(lp2409
(I00
g876
tp2410
asg25
Nsba(irule
FeatureMatrix
p2411
(dp2412
g23
(lp2413
(I00
g881
tp2414
a(I01
g910
tp2415
asg25
Nsbasg33
I00
sg25
Nsg35
I00
sg36
S'L'
sbsg37
(irule
FeatureMatrix
p2416
(dp2417
g23
(lp2418
(I00
g881
tp2419
a(I00
g887
tp2420
asg25
Nsbsg45
(irule
Guard
p2421
(dp2422
g18
I00
sg19
(lp2423
sg33
I00
sg25
Nsg35
I00
sg36
S'R'
sbsg49
(irule
FeatureMatrix
p2424
(dp2425
g23
(lp2426
(I01
g1038
tp2427
asg25
Nsbsg25
Nsba(irule
Rule
p2428
(dp2429
g15
(irule
Guard
p2430
(dp2431
g18
I00
sg19
(lp2432
(irule
FeatureMatrix
p2433
(dp2434
g23
(lp2435
(I00
g876
tp2436
asg25
Nsba(irule
FeatureMatrix
p2437
(dp2438
g23
(lp2439
(I00
g1570
tp2440
a(I00
g881
tp2441
a(I01
g910
tp2442
asg25
Nsbasg33
I00
sg25
Nsg35
I00
sg36
S'L'
sbsg37
(irule
FeatureMatrix
p2443
(dp2444
g23
(lp2445
(I00
g881
tp2446
a(I00
g887
tp2447
asg25
Nsbsg45
(irule
Guard
p2448
(dp2449
g18
I00
sg19
(lp2450
sg33
I00
sg25
Nsg35
I00
sg36
S'R'
sbsg49
(irule
FeatureMatrix
p2451
(dp2452
g23
(lp2453
sg25
Nsbsg25
Nsba(irule
Rule
p2454
(dp2455
g15
(irule
Guard
p2456
(dp2457
g18
I00
sg19
(lp2458
(irule
FeatureMatrix
p2459
(dp2460
g23
(lp2461
(I00
g876
tp2462
asg25
Nsba(irule
FeatureMatrix
p2463
(dp2464
g23
(lp2465
(I00
g881
tp2466
a(I01
g910
tp2467
a(I00
g1088
tp2468
asg25
Nsbasg33
I00
sg25
Nsg35
I00
sg36
S'L'
sbsg37
(irule
FeatureMatrix
p2469
(dp2470
g23
(lp2471
(I00
g881
tp2472
a(I00
g887
tp2473
asg25
Nsbsg45
(irule
Guard
p2474
(dp2475
g18
I00
sg19
(lp2476
sg33
I00
sg25
Nsg35
I00
sg36
S'R'
sbsg49
(irule
FeatureMatrix
p2477
(dp2478
g23
(lp2479
sg25
Nsbsg25
Nsba(irule
Rule
p2480
(dp2481
g15
(irule
Guard
p2482
(dp2483
g18
I00
sg19
(lp2484
(irule
FeatureMatrix
p2485
(dp2486
g23
(lp2487
sg25
Nsba(irule
FeatureMatrix
p2488
(dp2489
g23
(lp2490
(I00
g881
tp2491
a(I01
g910
tp2492
a(I01
g1266
tp2493
asg25
Nsbasg33
I00
sg25
Nsg35
I00
sg36
S'L'
sbsg37
(irule
FeatureMatrix
p2494
(dp2495
g23
(lp2496
(I00
g881
tp2497
a(I00
g887
tp2498
asg25
Nsbsg45
(irule
Guard
p2499
(dp2500
g18
I00
sg19
(lp2501
sg33
I00
sg25
Nsg35
I00
sg36
S'R'
sbsg49
(irule
FeatureMatrix
p2502
(dp2503
g23
(lp2504
(I00
g895
tp2505
asg25
Nsbsg25
Nsba(irule
Rule
p2506
(dp2507
g15
(irule
Guard
p2508
(dp2509
g18
I00
sg19
(lp2510
(irule
FeatureMatrix
p2511
(dp2512
g23
(lp2513
(I00
g876
tp2514
asg25
Nsba(irule
FeatureMatrix
p2515
(dp2516
g23
(lp2517
(I00
g881
tp2518
a(I01
g910
tp2519
asg25
Nsbasg33
I00
sg25
Nsg35
I00
sg36
S'L'
sbsg37
(irule
FeatureMatrix
p2520
(dp2521
g23
(lp2522
(I00
g881
tp2523
a(I00
g887
tp2524
asg25
Nsbsg45
(irule
Guard
p2525
(dp2526
g18
I00
sg19
(lp2527
sg33
I00
sg25
Nsg35
I00
sg36
S'R'
sbsg49
(irule
FeatureMatrix
p2528
(dp2529
g23
(lp2530
(I00
g1363
tp2531
asg25
Nsbsg25
Nsba(irule
Rule
p2532
(dp2533
g15
(irule
Guard
p2534
(dp2535
g18
I00
sg19
(lp2536
(irule
FeatureMatrix
p2537
(dp2538
g23
(lp2539
sg25
Nsba(irule
FeatureMatrix
p2540
(dp2541
g23
(lp2542
(I00
g881
tp2543
a(I01
g910
tp2544
asg25
Nsbasg33
I00
sg25
Nsg35
I00
sg36
S'L'
sbsg37
(irule
FeatureMatrix
p2545
(dp2546
g23
(lp2547
(I00
g881
tp2548
a(I00
g887
tp2549
a(I00
g1088
tp2550
asg25
Nsbsg45
(irule
Guard
p2551
(dp2552
g18
I00
sg19
(lp2553
sg33
I00
sg25
Nsg35
I00
sg36
S'R'
sbsg49
(irule
FeatureMatrix
p2554
(dp2555
g23
(lp2556
(I00
g895
tp2557
asg25
Nsbsg25
Nsba(irule
Rule
p2558
(dp2559
g15
(irule
Guard
p2560
(dp2561
g18
I00
sg19
(lp2562
(irule
FeatureMatrix
p2563
(dp2564
g23
(lp2565
(I00
g876
tp2566
asg25
Nsba(irule
FeatureMatrix
p2567
(dp2568
g23
(lp2569
(I00
g881
tp2570
a(I00
g1444
tp2571
a(I01
g910
tp2572
asg25
Nsbasg33
I00
sg25
Nsg35
I00
sg36
S'L'
sbsg37
(irule
FeatureMatrix
p2573
(dp2574
g23
(lp2575
(I00
g881
tp2576
a(I00
g887
tp2577
asg25
Nsbsg45
(irule
Guard
p2578
(dp2579
g18
I00
sg19
(lp2580
sg33
I00
sg25
Nsg35
I00
sg36
S'R'
sbsg49
(irule
FeatureMatrix
p2581
(dp2582
g23
(lp2583
sg25
Nsbsg25
Nsba(irule
Rule
p2584
(dp2585
g15
(irule
Guard
p2586
(dp2587
g18
I00
sg19
(lp2588
(irule
FeatureMatrix
p2589
(dp2590
g23
(lp2591
(I00
g876
tp2592
asg25
Nsba(irule
FeatureMatrix
p2593
(dp2594
g23
(lp2595
(I00
g876
tp2596
a(I00
g881
tp2597
asg25
Nsbasg33
I00
sg25
Nsg35
I00
sg36
S'L'
sbsg37
(irule
FeatureMatrix
p2598
(dp2599
g23
(lp2600
(I00
g881
tp2601
a(I00
g887
tp2602
asg25
Nsbsg45
(irule
Guard
p2603
(dp2604
g18
I00
sg19
(lp2605
sg33
I00
sg25
Nsg35
I00
sg36
S'R'
sbsg49
(irule
FeatureMatrix
p2606
(dp2607
g23
(lp2608
(I00
g998
tp2609
asg25
Nsbsg25
Nsba(irule
Rule
p2610
(dp2611
g15
(irule
Guard
p2612
(dp2613
g18
I00
sg19
(lp2614
(irule
FeatureMatrix
p2615
(dp2616
g23
(lp2617
(I00
g876
tp2618
asg25
Nsba(irule
FeatureMatrix
p2619
(dp2620
g23
(lp2621
(I00
g881
tp2622
a(I01
g910
tp2623
asg25
Nsbasg33
I00
sg25
Nsg35
I00
sg36
S'L'
sbsg37
(irule
FeatureMatrix
p2624
(dp2625
g23
(lp2626
(I00
g881
tp2627
a(I00
g887
tp2628
asg25
Nsbsg45
(irule
Guard
p2629
(dp2630
g18
I00
sg19
(lp2631
sg33
I00
sg25
Nsg35
I00
sg36
S'R'
sbsg49
(irule
FeatureMatrix
p2632
(dp2633
g23
(lp2634
(I00
g1189
tp2635
asg25
Nsbsg25
Nsba(irule
Rule
p2636
(dp2637
g15
(irule
Guard
p2638
(dp2639
g18
I00
sg19
(lp2640
(irule
FeatureMatrix
p2641
(dp2642
g23
(lp2643
(I00
g876
tp2644
asg25
Nsba(irule
FeatureMatrix
p2645
(dp2646
g23
(lp2647
(I00
g881
tp2648
a(I01
g1038
tp2649
asg25
Nsbasg33
I00
sg25
Nsg35
I00
sg36
S'L'
sbsg37
(irule
FeatureMatrix
p2650
(dp2651
g23
(lp2652
(I00
g881
tp2653
a(I00
g887
tp2654
asg25
Nsbsg45
(irule
Guard
p2655
(dp2656
g18
I00
sg19
(lp2657
sg33
I00
sg25
Nsg35
I00
sg36
S'R'
sbsg49
(irule
FeatureMatrix
p2658
(dp2659
g23
(lp2660
(I00
g1189
tp2661
asg25
Nsbsg25
Nsba(irule
Rule
p2662
(dp2663
g15
(irule
Guard
p2664
(dp2665
g18
I00
sg19
(lp2666
(irule
FeatureMatrix
p2667
(dp2668
g23
(lp2669
(I00
g876
tp2670
asg25
Nsba(irule
FeatureMatrix
p2671
(dp2672
g23
(lp2673
(I00
g881
tp2674
a(I01
g910
tp2675
asg25
Nsbasg33
I00
sg25
Nsg35
I00
sg36
S'L'
sbsg37
(irule
FeatureMatrix
p2676
(dp2677
g23
(lp2678
(I00
g881
tp2679
a(I00
g887
tp2680
asg25
Nsbsg45
(irule
Guard
p2681
(dp2682
g18
I00
sg19
(lp2683
sg33
I00
sg25
Nsg35
I00
sg36
S'R'
sbsg49
(irule
FeatureMatrix
p2684
(dp2685
g23
(lp2686
(I01
g1418
tp2687
asg25
Nsbsg25
Nsba(irule
Rule
p2688
(dp2689
g15
(irule
Guard
p2690
(dp2691
g18
I00
sg19
(lp2692
(irule
FeatureMatrix
p2693
(dp2694
g23
(lp2695
(I00
g876
tp2696
asg25
Nsba(irule
FeatureMatrix
p2697
(dp2698
g23
(lp2699
(I00
g881
tp2700
a(I01
g910
tp2701
asg25
Nsbasg33
I00
sg25
Nsg35
I00
sg36
S'L'
sbsg37
(irule
FeatureMatrix
p2702
(dp2703
g23
(lp2704
(I00
g881
tp2705
a(I00
g887
tp2706
asg25
Nsbsg45
(irule
Guard
p2707
(dp2708
g18
I00
sg19
(lp2709
sg33
I00
sg25
Nsg35
I00
sg36
S'R'
sbsg49
(irule
FeatureMatrix
p2710
(dp2711
g23
(lp2712
(I00
g1570
tp2713
asg25
Nsbsg25
Nsba(irule
Rule
p2714
(dp2715
g15
(irule
Guard
p2716
(dp2717
g18
I00
sg19
(lp2718
(irule
FeatureMatrix
p2719
(dp2720
g23
(lp2721
(I00
g876
tp2722
asg25
Nsba(irule
FeatureMatrix
p2723
(dp2724
g23
(lp2725
(I00
g1189
tp2726
a(I01
g1114
tp2727
a(I00
g881
tp2728
asg25
Nsbasg33
I00
sg25
Nsg35
I00
sg36
S'L'
sbsg37
(irule
FeatureMatrix
p2729
(dp2730
g23
(lp2731
(I00
g881
tp2732
a(I00
g887
tp2733
asg25
Nsbsg45
(irule
Guard
p2734
(dp2735
g18
I00
sg19
(lp2736
sg33
I00
sg25
Nsg35
I00
sg36
S'R'
sbsg49
(irule
FeatureMatrix
p2737
(dp2738
g23
(lp2739
sg25
Nsbsg25
Nsba(irule
Rule
p2740
(dp2741
g15
(irule
Guard
p2742
(dp2743
g18
I00
sg19
(lp2744
(irule
FeatureMatrix
p2745
(dp2746
g23
(lp2747
(I00
g876
tp2748
asg25
Nsba(irule
FeatureMatrix
p2749
(dp2750
g23
(lp2751
(I00
g881
tp2752
a(I01
g910
tp2753
asg25
Nsbasg33
I00
sg25
Nsg35
I00
sg36
S'L'
sbsg37
(irule
FeatureMatrix
p2754
(dp2755
g23
(lp2756
(I00
g1570
tp2757
a(I00
g881
tp2758
a(I00
g887
tp2759
asg25
Nsbsg45
(irule
Guard
p2760
(dp2761
g18
I00
sg19
(lp2762
sg33
I00
sg25
Nsg35
I00
sg36
S'R'
sbsg49
(irule
FeatureMatrix
p2763
(dp2764
g23
(lp2765
sg25
Nsbsg25
Nsba(irule
Rule
p2766
(dp2767
g15
(irule
Guard
p2768
(dp2769
g18
I00
sg19
(lp2770
(irule
FeatureMatrix
p2771
(dp2772
g23
(lp2773
sg25
Nsba(irule
FeatureMatrix
p2774
(dp2775
g23
(lp2776
(I00
g1570
tp2777
a(I00
g881
tp2778
a(I01
g910
tp2779
asg25
Nsbasg33
I00
sg25
Nsg35
I00
sg36
S'L'
sbsg37
(irule
FeatureMatrix
p2780
(dp2781
g23
(lp2782
(I00
g881
tp2783
a(I00
g887
tp2784
asg25
Nsbsg45
(irule
Guard
p2785
(dp2786
g18
I00
sg19
(lp2787
sg33
I00
sg25
Nsg35
I00
sg36
S'R'
sbsg49
(irule
FeatureMatrix
p2788
(dp2789
g23
(lp2790
(I00
g895
tp2791
asg25
Nsbsg25
Nsba(irule
Rule
p2792
(dp2793
g15
(irule
Guard
p2794
(dp2795
g18
I00
sg19
(lp2796
(irule
FeatureMatrix
p2797
(dp2798
g23
(lp2799
(I00
g876
tp2800
asg25
Nsba(irule
FeatureMatrix
p2801
(dp2802
g23
(lp2803
(I00
g881
tp2804
asg25
Nsbasg33
I00
sg25
Nsg35
I00
sg36
S'L'
sbsg37
(irule
FeatureMatrix
p2805
(dp2806
g23
(lp2807
(I00
g881
tp2808
a(I00
g887
tp2809
asg25
Nsbsg45
(irule
Guard
p2810
(dp2811
g18
I00
sg19
(lp2812
sg33
I00
sg25
Nsg35
I00
sg36
S'R'
sbsg49
(irule
FeatureMatrix
p2813
(dp2814
g23
(lp2815
(I00
g895
tp2816
a(I00
g1363
tp2817
asg25
Nsbsg25
Nsba(irule
Rule
p2818
(dp2819
g15
(irule
Guard
p2820
(dp2821
g18
I00
sg19
(lp2822
(irule
FeatureMatrix
p2823
(dp2824
g23
(lp2825
(I00
g876
tp2826
asg25
Nsba(irule
FeatureMatrix
p2827
(dp2828
g23
(lp2829
(I00
g881
tp2830
a(I01
g910
tp2831
asg25
Nsbasg33
I00
sg25
Nsg35
I00
sg36
S'L'
sbsg37
(irule
FeatureMatrix
p2832
(dp2833
g23
(lp2834
(I00
g881
tp2835
a(I00
g887
tp2836
asg25
Nsbsg45
(irule
Guard
p2837
(dp2838
g18
I00
sg19
(lp2839
sg33
I00
sg25
Nsg35
I00
sg36
S'R'
sbsg49
(irule
FeatureMatrix
p2840
(dp2841
g23
(lp2842
(I00
g1494
tp2843
asg25
Nsbsg25
Nsba(irule
Rule
p2844
(dp2845
g15
(irule
Guard
p2846
(dp2847
g18
I00
sg19
(lp2848
(irule
FeatureMatrix
p2849
(dp2850
g23
(lp2851
(I00
g876
tp2852
asg25
Nsba(irule
FeatureMatrix
p2853
(dp2854
g23
(lp2855
(I00
g881
tp2856
a(I01
g910
tp2857
asg25
Nsbasg33
I00
sg25
Nsg35
I00
sg36
S'L'
sbsg37
(irule
FeatureMatrix
p2858
(dp2859
g23
(lp2860
(I00
g881
tp2861
a(I00
g887
tp2862
a(I01
g1266
tp2863
asg25
Nsbsg45
(irule
Guard
p2864
(dp2865
g18
I00
sg19
(lp2866
sg33
I00
sg25
Nsg35
I00
sg36
S'R'
sbsg49
(irule
FeatureMatrix
p2867
(dp2868
g23
(lp2869
sg25
Nsbsg25
Nsba(irule
Rule
p2870
(dp2871
g15
(irule
Guard
p2872
(dp2873
g18
I00
sg19
(lp2874
(irule
FeatureMatrix
p2875
(dp2876
g23
(lp2877
(I00
g876
tp2878
asg25
Nsba(irule
FeatureMatrix
p2879
(dp2880
g23
(lp2881
(I00
g881
tp2882
a(I01
g910
tp2883
asg25
Nsbasg33
I00
sg25
Nsg35
I00
sg36
S'L'
sbsg37
(irule
FeatureMatrix
p2884
(dp2885
g23
(lp2886
(I00
g881
tp2887
a(I00
g887
tp2888
asg25
Nsbsg45
(irule
Guard
p2889
(dp2890
g18
I00
sg19
(lp2891
sg33
I00
sg25
Nsg35
I00
sg36
S'R'
sbsg49
(irule
FeatureMatrix
p2892
(dp2893
g23
(lp2894
(I00
g1088
tp2895
asg25
Nsbsg25
Nsba(irule
Rule
p2896
(dp2897
g15
(irule
Guard
p2898
(dp2899
g18
I00
sg19
(lp2900
(irule
FeatureMatrix
p2901
(dp2902
g23
(lp2903
sg25
Nsba(irule
FeatureMatrix
p2904
(dp2905
g23
(lp2906
(I00
g876
tp2907
a(I00
g881
tp2908
a(I01
g910
tp2909
asg25
Nsbasg33
I00
sg25
Nsg35
I00
sg36
S'L'
sbsg37
(irule
FeatureMatrix
p2910
(dp2911
g23
(lp2912
(I00
g881
tp2913
a(I00
g887
tp2914
asg25
Nsbsg45
(irule
Guard
p2915
(dp2916
g18
I00
sg19
(lp2917
sg33
I00
sg25
Nsg35
I00
sg36
S'R'
sbsg49
(irule
FeatureMatrix
p2918
(dp2919
g23
(lp2920
(I00
g895
tp2921
asg25
Nsbsg25
Nsba(irule
Rule
p2922
(dp2923
g15
(irule
Guard
p2924
(dp2925
g18
I00
sg19
(lp2926
(irule
FeatureMatrix
p2927
(dp2928
g23
(lp2929
(I00
g876
tp2930
asg25
Nsba(irule
FeatureMatrix
p2931
(dp2932
g23
(lp2933
(I00
g881
tp2934
a(I01
g910
tp2935
asg25
Nsbasg33
I00
sg25
Nsg35
I00
sg36
S'L'
sbsg37
(irule
FeatureMatrix
p2936
(dp2937
g23
(lp2938
(I00
g876
tp2939
a(I00
g881
tp2940
a(I00
g887
tp2941
asg25
Nsbsg45
(irule
Guard
p2942
(dp2943
g18
I00
sg19
(lp2944
sg33
I00
sg25
Nsg35
I00
sg36
S'R'
sbsg49
(irule
FeatureMatrix
p2945
(dp2946
g23
(lp2947
sg25
Nsbsg25
Nsba(irule
Rule
p2948
(dp2949
g15
(irule
Guard
p2950
(dp2951
g18
I00
sg19
(lp2952
(irule
FeatureMatrix
p2953
(dp2954
g23
(lp2955
(I00
g876
tp2956
asg25
Nsba(irule
FeatureMatrix
p2957
(dp2958
g23
(lp2959
(I00
g881
tp2960
a(I01
g910
tp2961
asg25
Nsbasg33
I00
sg25
Nsg35
I00
sg36
S'L'
sbsg37
(irule
FeatureMatrix
p2962
(dp2963
g23
(lp2964
(I00
g895
tp2965
a(I00
g881
tp2966
a(I00
g887
tp2967
asg25
Nsbsg45
(irule
Guard
p2968
(dp2969
g18
I00
sg19
(lp2970
sg33
I00
sg25
Nsg35
I00
sg36
S'R'
sbsg49
(irule
FeatureMatrix
p2971
(dp2972
g23
(lp2973
sg25
Nsbsg25
Nsba(irule
Rule
p2974
(dp2975
g15
(irule
Guard
p2976
(dp2977
g18
I00
sg19
(lp2978
(irule
FeatureMatrix
p2979
(dp2980
g23
(lp2981
sg25
Nsba(irule
FeatureMatrix
p2982
(dp2983
g23
(lp2984
(I00
g881
tp2985
a(I01
g910
tp2986
asg25
Nsbasg33
I00
sg25
Nsg35
I00
sg36
S'L'
sbsg37
(irule
FeatureMatrix
p2987
(dp2988
g23
(lp2989
(I00
g881
tp2990
a(I00
g887
tp2991
a(I01
g1266
tp2992
asg25
Nsbsg45
(irule
Guard
p2993
(dp2994
g18
I00
sg19
(lp2995
sg33
I00
sg25
Nsg35
I00
sg36
S'R'
sbsg49
(irule
FeatureMatrix
p2996
(dp2997
g23
(lp2998
(I00
g895
tp2999
asg25
Nsbsg25
Nsba(irule
Rule
p3000
(dp3001
g15
(irule
Guard
p3002
(dp3003
g18
I00
sg19
(lp3004
(irule
FeatureMatrix
p3005
(dp3006
g23
(lp3007
sg25
Nsba(irule
FeatureMatrix
p3008
(dp3009
g23
(lp3010
(I00
g881
tp3011
a(I01
g1038
tp3012
asg25
Nsbasg33
I00
sg25
Nsg35
I00
sg36
S'L'
sbsg37
(irule
FeatureMatrix
p3013
(dp3014
g23
(lp3015
(I00
g881
tp3016
a(I00
g887
tp3017
a(I00
g1088
tp3018
asg25
Nsbsg45
(irule
Guard
p3019
(dp3020
g18
I00
sg19
(lp3021
sg33
I00
sg25
Nsg35
I00
sg36
S'R'
sbsg49
(irule
FeatureMatrix
p3022
(dp3023
g23
(lp3024
(I00
g895
tp3025
asg25
Nsbsg25
Nsba(irule
Rule
p3026
(dp3027
g15
(irule
Guard
p3028
(dp3029
g18
I00
sg19
(lp3030
(irule
FeatureMatrix
p3031
(dp3032
g23
(lp3033
(I00
g876
tp3034
asg25
Nsba(irule
FeatureMatrix
p3035
(dp3036
g23
(lp3037
(I00
g881
tp3038
a(I01
g910
tp3039
asg25
Nsbasg33
I00
sg25
Nsg35
I00
sg36
S'L'
sbsg37
(irule
FeatureMatrix
p3040
(dp3041
g23
(lp3042
(I00
g881
tp3043
a(I00
g887
tp3044
asg25
Nsbsg45
(irule
Guard
p3045
(dp3046
g18
I00
sg19
(lp3047
sg33
I00
sg25
Nsg35
I00
sg36
S'R'
sbsg49
(irule
FeatureMatrix
p3048
(dp3049
g23
(lp3050
(I00
g876
tp3051
asg25
Nsbsg25
Nsba(irule
Rule
p3052
(dp3053
g15
(irule
Guard
p3054
(dp3055
g18
I00
sg19
(lp3056
(irule
FeatureMatrix
p3057
(dp3058
g23
(lp3059
(I00
g876
tp3060
asg25
Nsba(irule
FeatureMatrix
p3061
(dp3062
g23
(lp3063
(I00
g881
tp3064
a(I01
g910
tp3065
asg25
Nsbasg33
I00
sg25
Nsg35
I00
sg36
S'L'
sbsg37
(irule
FeatureMatrix
p3066
(dp3067
g23
(lp3068
(I00
g881
tp3069
a(I00
g887
tp3070
a(I00
g1088
tp3071
asg25
Nsbsg45
(irule
Guard
p3072
(dp3073
g18
I00
sg19
(lp3074
sg33
I00
sg25
Nsg35
I00
sg36
S'R'
sbsg49
(irule
FeatureMatrix
p3075
(dp3076
g23
(lp3077
sg25
Nsbsg25
Nsba(irule
Rule
p3078
(dp3079
g15
(irule
Guard
p3080
(dp3081
g18
I00
sg19
(lp3082
(irule
FeatureMatrix
p3083
(dp3084
g23
(lp3085
sg25
Nsba(irule
FeatureMatrix
p3086
(dp3087
g23
(lp3088
(I00
g881
tp3089
a(I01
g910
tp3090
asg25
Nsbasg33
I00
sg25
Nsg35
I00
sg36
S'L'
sbsg37
(irule
FeatureMatrix
p3091
(dp3092
g23
(lp3093
(I00
g881
tp3094
a(I00
g887
tp3095
asg25
Nsbsg45
(irule
Guard
p3096
(dp3097
g18
I00
sg19
(lp3098
sg33
I00
sg25
Nsg35
I00
sg36
S'R'
sbsg49
(irule
FeatureMatrix
p3099
(dp3100
g23
(lp3101
(I00
g895
tp3102
a(I00
g998
tp3103
asg25
Nsbsg25
Nsba(irule
Rule
p3104
(dp3105
g15
(irule
Guard
p3106
(dp3107
g18
I00
sg19
(lp3108
(irule
FeatureMatrix
p3109
(dp3110
g23
(lp3111
(I00
g876
tp3112
asg25
Nsba(irule
FeatureMatrix
p3113
(dp3114
g23
(lp3115
(I00
g881
tp3116
a(I01
g910
tp3117
asg25
Nsbasg33
I00
sg25
Nsg35
I00
sg36
S'L'
sbsg37
(irule
FeatureMatrix
p3118
(dp3119
g23
(lp3120
(I00
g881
tp3121
a(I00
g887
tp3122
asg25
Nsbsg45
(irule
Guard
p3123
(dp3124
g18
I00
sg19
(lp3125
sg33
I00
sg25
Nsg35
I00
sg36
S'R'
sbsg49
(irule
FeatureMatrix
p3126
(dp3127
g23
(lp3128
(I01
g881
tp3129
asg25
Nsbsg25
Nsba(irule
Rule
p3130
(dp3131
g15
(irule
Guard
p3132
(dp3133
g18
I00
sg19
(lp3134
(irule
FeatureMatrix
p3135
(dp3136
g23
(lp3137
sg25
Nsba(irule
FeatureMatrix
p3138
(dp3139
g23
(lp3140
(I00
g935
tp3141
a(I00
g881
tp3142
a(I01
g910
tp3143
asg25
Nsbasg33
I00
sg25
Nsg35
I00
sg36
S'L'
sbsg37
(irule
FeatureMatrix
p3144
(dp3145
g23
(lp3146
(I00
g881
tp3147
a(I00
g887
tp3148
asg25
Nsbsg45
(irule
Guard
p3149
(dp3150
g18
I00
sg19
(lp3151
sg33
I00
sg25
Nsg35
I00
sg36
S'R'
sbsg49
(irule
FeatureMatrix
p3152
(dp3153
g23
(lp3154
(I00
g895
tp3155
asg25
Nsbsg25
Nsba(irule
Rule
p3156
(dp3157
g15
(irule
Guard
p3158
(dp3159
g18
I00
sg19
(lp3160
(irule
FeatureMatrix
p3161
(dp3162
g23
(lp3163
(I00
g876
tp3164
asg25
Nsba(irule
FeatureMatrix
p3165
(dp3166
g23
(lp3167
(I00
g881
tp3168
a(I01
g910
tp3169
asg25
Nsbasg33
I00
sg25
Nsg35
I00
sg36
S'L'
sbsg37
(irule
FeatureMatrix
p3170
(dp3171
g23
(lp3172
(I01
g1114
tp3173
a(I00
g881
tp3174
a(I00
g887
tp3175
asg25
Nsbsg45
(irule
Guard
p3176
(dp3177
g18
I00
sg19
(lp3178
sg33
I00
sg25
Nsg35
I00
sg36
S'R'
sbsg49
(irule
FeatureMatrix
p3179
(dp3180
g23
(lp3181
sg25
Nsbsg25
Nsba(irule
Rule
p3182
(dp3183
g15
(irule
Guard
p3184
(dp3185
g18
I00
sg19
(lp3186
(irule
FeatureMatrix
p3187
(dp3188
g23
(lp3189
(I00
g876
tp3190
asg25
Nsba(irule
FeatureMatrix
p3191
(dp3192
g23
(lp3193
(I00
g881
tp3194
a(I01
g910
tp3195
asg25
Nsbasg33
I00
sg25
Nsg35
I00
sg36
S'L'
sbsg37
(irule
FeatureMatrix
p3196
(dp3197
g23
(lp3198
(I00
g881
tp3199
a(I01
g1038
tp3200
a(I00
g887
tp3201
asg25
Nsbsg45
(irule
Guard
p3202
(dp3203
g18
I00
sg19
(lp3204
sg33
I00
sg25
Nsg35
I00
sg36
S'R'
sbsg49
(irule
FeatureMatrix
p3205
(dp3206
g23
(lp3207
sg25
Nsbsg25
Nsba(irule
Rule
p3208
(dp3209
g15
(irule
Guard
p3210
(dp3211
g18
I00
sg19
(lp3212
(irule
FeatureMatrix
p3213
(dp3214
g23
(lp3215
(I00
g876
tp3216
asg25
Nsba(irule
FeatureMatrix
p3217
(dp3218
g23
(lp3219
(I00
g881
tp3220
a(I00
g887
tp3221
a(I01
g910
tp3222
asg25
Nsbasg33
I00
sg25
Nsg35
I00
sg36
S'L'
sbsg37
(irule
FeatureMatrix
p3223
(dp3224
g23
(lp3225
(I00
g881
tp3226
a(I00
g887
tp3227
asg25
Nsbsg45
(irule
Guard
p3228
(dp3229
g18
I00
sg19
(lp3230
sg33
I00
sg25
Nsg35
I00
sg36
S'R'
sbsg49
(irule
FeatureMatrix
p3231
(dp3232
g23
(lp3233
sg25
Nsbsg25
Nsba(irule
Rule
p3234
(dp3235
g15
(irule
Guard
p3236
(dp3237
g18
I00
sg19
(lp3238
(irule
FeatureMatrix
p3239
(dp3240
g23
(lp3241
sg25
Nsba(irule
FeatureMatrix
p3242
(dp3243
g23
(lp3244
(I00
g881
tp3245
a(I00
g887
tp3246
a(I01
g910
tp3247
asg25
Nsbasg33
I00
sg25
Nsg35
I00
sg36
S'L'
sbsg37
(irule
FeatureMatrix
p3248
(dp3249
g23
(lp3250
(I00
g881
tp3251
a(I00
g887
tp3252
asg25
Nsbsg45
(irule
Guard
p3253
(dp3254
g18
I00
sg19
(lp3255
sg33
I00
sg25
Nsg35
I00
sg36
S'R'
sbsg49
(irule
FeatureMatrix
p3256
(dp3257
g23
(lp3258
(I00
g895
tp3259
asg25
Nsbsg25
Nsba(irule
Rule
p3260
(dp3261
g15
(irule
Guard
p3262
(dp3263
g18
I00
sg19
(lp3264
(irule
FeatureMatrix
p3265
(dp3266
g23
(lp3267
(I00
g876
tp3268
asg25
Nsba(irule
FeatureMatrix
p3269
(dp3270
g23
(lp3271
(I00
g881
tp3272
a(I01
g910
tp3273
asg25
Nsbasg33
I00
sg25
Nsg35
I00
sg36
S'L'
sbsg37
(irule
FeatureMatrix
p3274
(dp3275
g23
(lp3276
(I00
g1189
tp3277
a(I00
g881
tp3278
a(I00
g887
tp3279
asg25
Nsbsg45
(irule
Guard
p3280
(dp3281
g18
I00
sg19
(lp3282
sg33
I00
sg25
Nsg35
I00
sg36
S'R'
sbsg49
(irule
FeatureMatrix
p3283
(dp3284
g23
(lp3285
sg25
Nsbsg25
Nsba(irule
Rule
p3286
(dp3287
g15
(irule
Guard
p3288
(dp3289
g18
I00
sg19
(lp3290
(irule
FeatureMatrix
p3291
(dp3292
g23
(lp3293
sg25
Nsba(irule
FeatureMatrix
p3294
(dp3295
g23
(lp3296
(I00
g881
tp3297
a(I01
g910
tp3298
asg25
Nsbasg33
I00
sg25
Nsg35
I00
sg36
S'L'
sbsg37
(irule
FeatureMatrix
p3299
(dp3300
g23
(lp3301
(I00
g881
tp3302
a(I00
g887
tp3303
asg25
Nsbsg45
(irule
Guard
p3304
(dp3305
g18
I00
sg19
(lp3306
sg33
I00
sg25
Nsg35
I00
sg36
S'R'
sbsg49
(irule
FeatureMatrix
p3307
(dp3308
g23
(lp3309
(I00
g895
tp3310
a(I01
g1266
tp3311
asg25
Nsbsg25
Nsba(irule
Rule
p3312
(dp3313
g15
(irule
Guard
p3314
(dp3315
g18
I00
sg19
(lp3316
(irule
FeatureMatrix
p3317
(dp3318
g23
(lp3319
sg25
Nsba(irule
FeatureMatrix
p3320
(dp3321
g23
(lp3322
(I00
g881
tp3323
a(I01
g1038
tp3324
asg25
Nsbasg33
I00
sg25
Nsg35
I00
sg36
S'L'
sbsg37
(irule
FeatureMatrix
p3325
(dp3326
g23
(lp3327
(I00
g881
tp3328
a(I00
g887
tp3329
asg25
Nsbsg45
(irule
Guard
p3330
(dp3331
g18
I00
sg19
(lp3332
sg33
I00
sg25
Nsg35
I00
sg36
S'R'
sbsg49
(irule
FeatureMatrix
p3333
(dp3334
g23
(lp3335
(I00
g895
tp3336
a(I01
g881
tp3337
asg25
Nsbsg25
Nsba(irule
Rule
p3338
(dp3339
g15
(irule
Guard
p3340
(dp3341
g18
I00
sg19
(lp3342
(irule
FeatureMatrix
p3343
(dp3344
g23
(lp3345
(I00
g876
tp3346
asg25
Nsba(irule
FeatureMatrix
p3347
(dp3348
g23
(lp3349
(I00
g881
tp3350
a(I01
g910
tp3351
asg25
Nsbasg33
I00
sg25
Nsg35
I00
sg36
S'L'
sbsg37
(irule
FeatureMatrix
p3352
(dp3353
g23
(lp3354
(I00
g881
tp3355
a(I00
g887
tp3356
asg25
Nsbsg45
(irule
Guard
p3357
(dp3358
g18
I00
sg19
(lp3359
sg33
I00
sg25
Nsg35
I00
sg36
S'R'
sbsg49
(irule
FeatureMatrix
p3360
(dp3361
g23
(lp3362
(I00
g935
tp3363
asg25
Nsbsg25
Nsba(irule
Rule
p3364
(dp3365
g15
(irule
Guard
p3366
(dp3367
g18
I00
sg19
(lp3368
(irule
FeatureMatrix
p3369
(dp3370
g23
(lp3371
sg25
Nsba(irule
FeatureMatrix
p3372
(dp3373
g23
(lp3374
(I00
g876
tp3375
a(I00
g881
tp3376
a(I01
g1418
tp3377
asg25
Nsbasg33
I00
sg25
Nsg35
I00
sg36
S'L'
sbsg37
(irule
FeatureMatrix
p3378
(dp3379
g23
(lp3380
(I00
g881
tp3381
a(I00
g887
tp3382
asg25
Nsbsg45
(irule
Guard
p3383
(dp3384
g18
I00
sg19
(lp3385
sg33
I00
sg25
Nsg35
I00
sg36
S'R'
sbsg49
(irule
FeatureMatrix
p3386
(dp3387
g23
(lp3388
(I00
g895
tp3389
asg25
Nsbsg25
Nsba(irule
Rule
p3390
(dp3391
g15
(irule
Guard
p3392
(dp3393
g18
I00
sg19
(lp3394
(irule
FeatureMatrix
p3395
(dp3396
g23
(lp3397
(I00
g876
tp3398
asg25
Nsba(irule
FeatureMatrix
p3399
(dp3400
g23
(lp3401
(I00
g935
tp3402
a(I00
g881
tp3403
asg25
Nsbasg33
I00
sg25
Nsg35
I00
sg36
S'L'
sbsg37
(irule
FeatureMatrix
p3404
(dp3405
g23
(lp3406
(I00
g881
tp3407
a(I00
g887
tp3408
asg25
Nsbsg45
(irule
Guard
p3409
(dp3410
g18
I00
sg19
(lp3411
sg33
I00
sg25
Nsg35
I00
sg36
S'R'
sbsg49
(irule
FeatureMatrix
p3412
(dp3413
g23
(lp3414
(I00
g998
tp3415
asg25
Nsbsg25
Nsbaa(lp3416
(irule
Rule
p3417
(dp3418
g15
(irule
Guard
p3419
(dp3420
g18
I00
sg19
(lp3421
(irule
FeatureMatrix
p3422
(dp3423
g23
(lp3424
(I00
S'voice'
tp3425
asg25
V[ -voice ]
p3426
sba(irule
FeatureMatrix
p3427
(dp3428
g23
(lp3429
(I01
S'rounded'
p3430
tp3431
asg25
V[ +rounded ]
p3432
sbasg33
I00
sg25
V[ +rounded ] [ -voice ]
p3433
sg35
I00
sg36
S'L'
sbsg37
(irule
FeatureMatrix
p3434
(dp3435
g23
(lp3436
(I01
g3430
tp3437
asg25
V[ +rounded ]
p3438
sbsg45
(irule
Guard
p3439
(dp3440
g18
I00
sg19
(lp3441
sg33
I00
sg25
V
sg35
I00
sg36
S'R'
sbsg49
(irule
FeatureMatrix
p3442
(dp3443
g23
(lp3444
sg25
V[  ]
p3445
sbsg25
V[  ] ---> [ +rounded ] / [ +rounded ] [ -voice ] _ 
p3446
sba(irule
Rule
p3447
(dp3448
g15
(irule
Guard
p3449
(dp3450
g18
I00
sg19
(lp3451
(irule
ConstantPhoneme
p3452
(dp3453
S'p'
Vs
sba(irule
FeatureMatrix
p3454
(dp3455
g23
(lp3456
(I01
S'rounded'
p3457
tp3458
asg25
Nsbasg33
I00
sg25
Nsg35
I00
sg36
S'L'
sbsg37
(irule
FeatureMatrix
p3459
(dp3460
g23
(lp3461
(I01
g3457
tp3462
asg25
Nsbsg45
(irule
Guard
p3463
(dp3464
g18
I00
sg19
(lp3465
sg33
I00
sg25
Nsg35
I00
sg36
S'R'
sbsg49
(irule
FeatureMatrix
p3466
(dp3467
g23
(lp3468
sg25
Nsbsg25
Nsba(irule
Rule
p3469
(dp3470
g15
(irule
Guard
p3471
(dp3472
g18
I00
sg19
(lp3473
(irule
FeatureMatrix
p3474
(dp3475
g23
(lp3476
(I01
S'sibilant'
p3477
tp3478
asg25
Nsba(irule
FeatureMatrix
p3479
(dp3480
g23
(lp3481
(I01
g3457
tp3482
asg25
Nsbasg33
I00
sg25
Nsg35
I00
sg36
S'L'
sbsg37
(irule
FeatureMatrix
p3483
(dp3484
g23
(lp3485
(I01
g3457
tp3486
asg25
Nsbsg45
(irule
Guard
p3487
(dp3488
g18
I00
sg19
(lp3489
sg33
I00
sg25
Nsg35
I00
sg36
S'R'
sbsg49
(irule
FeatureMatrix
p3490
(dp3491
g23
(lp3492
sg25
Nsbsg25
Nsba(irule
Rule
p3493
(dp3494
g15
(irule
Guard
p3495
(dp3496
g18
I00
sg19
(lp3497
(irule
FeatureMatrix
p3498
(dp3499
g23
(lp3500
sg25
Nsba(irule
FeatureMatrix
p3501
(dp3502
g23
(lp3503
(I01
g3457
tp3504
asg25
Nsbasg33
I00
sg25
Nsg35
I00
sg36
S'L'
sbsg37
(irule
FeatureMatrix
p3505
(dp3506
g23
(lp3507
(I01
g3457
tp3508
asg25
Nsbsg45
(irule
Guard
p3509
(dp3510
g18
I00
sg19
(lp3511
sg33
I00
sg25
Nsg35
I00
sg36
S'R'
sbsg49
(irule
FeatureMatrix
p3512
(dp3513
g23
(lp3514
(I01
S'high'
p3515
tp3516
asg25
Nsbsg25
Nsba(irule
Rule
p3517
(dp3518
g15
(irule
Guard
p3519
(dp3520
g18
I00
sg19
(lp3521
(irule
FeatureMatrix
p3522
(dp3523
g23
(lp3524
sg25
Nsba(irule
FeatureMatrix
p3525
(dp3526
g23
(lp3527
(I01
g3457
tp3528
asg25
Nsbasg33
I00
sg25
Nsg35
I00
sg36
S'L'
sbsg37
(irule
FeatureMatrix
p3529
(dp3530
g23
(lp3531
(I01
g3457
tp3532
a(I01
S'voice'
p3533
tp3534
asg25
Nsbsg45
(irule
Guard
p3535
(dp3536
g18
I00
sg19
(lp3537
sg33
I00
sg25
Nsg35
I00
sg36
S'R'
sbsg49
(irule
FeatureMatrix
p3538
(dp3539
g23
(lp3540
(I01
g3515
tp3541
asg25
Nsbsg25
Nsba(irule
Rule
p3542
(dp3543
g15
(irule
Guard
p3544
(dp3545
g18
I00
sg19
(lp3546
(irule
FeatureMatrix
p3547
(dp3548
g23
(lp3549
(I01
g3477
tp3550
asg25
Nsba(irule
FeatureMatrix
p3551
(dp3552
g23
(lp3553
(I01
g3457
tp3554
a(I00
S'lateral'
tp3555
asg25
Nsbasg33
I00
sg25
Nsg35
I00
sg36
S'L'
sbsg37
(irule
FeatureMatrix
p3556
(dp3557
g23
(lp3558
(I01
g3457
tp3559
asg25
Nsbsg45
(irule
Guard
p3560
(dp3561
g18
I00
sg19
(lp3562
sg33
I00
sg25
Nsg35
I00
sg36
S'R'
sbsg49
(irule
FeatureMatrix
p3563
(dp3564
g23
(lp3565
sg25
Nsbsg25
Nsba(irule
Rule
p3566
(dp3567
g15
(irule
Guard
p3568
(dp3569
g18
I00
sg19
(lp3570
(irule
FeatureMatrix
p3571
(dp3572
g23
(lp3573
(I01
g3477
tp3574
asg25
Nsba(irule
FeatureMatrix
p3575
(dp3576
g23
(lp3577
(I01
g3457
tp3578
asg25
Nsbasg33
I00
sg25
Nsg35
I00
sg36
S'L'
sbsg37
(irule
FeatureMatrix
p3579
(dp3580
g23
(lp3581
(I01
g3457
tp3582
asg25
Nsbsg45
(irule
Guard
p3583
(dp3584
g18
I01
sg19
(lp3585
sg33
I00
sg25
Nsg35
I00
sg36
S'R'
sbsg49
(irule
FeatureMatrix
p3586
(dp3587
g23
(lp3588
sg25
Nsbsg25
Nsba(irule
Rule
p3589
(dp3590
g15
(irule
Guard
p3591
(dp3592
g18
I00
sg19
(lp3593
(irule
FeatureMatrix
p3594
(dp3595
g23
(lp3596
(I00
S'low'
p3597
tp3598
a(I00
g3533
tp3599
asg25
Nsba(irule
FeatureMatrix
p3600
(dp3601
g23
(lp3602
(I01
g3457
tp3603
asg25
Nsbasg33
I00
sg25
Nsg35
I00
sg36
S'L'
sbsg37
(irule
FeatureMatrix
p3604
(dp3605
g23
(lp3606
(I01
g3457
tp3607
asg25
Nsbsg45
(irule
Guard
p3608
(dp3609
g18
I00
sg19
(lp3610
sg33
I00
sg25
Nsg35
I00
sg36
S'R'
sbsg49
(irule
FeatureMatrix
p3611
(dp3612
g23
(lp3613
sg25
Nsbsg25
Nsba(irule
Rule
p3614
(dp3615
g15
(irule
Guard
p3616
(dp3617
g18
I00
sg19
(lp3618
(irule
FeatureMatrix
p3619
(dp3620
g23
(lp3621
(I00
g3533
tp3622
asg25
Nsba(irule
FeatureMatrix
p3623
(dp3624
g23
(lp3625
(I00
S'anterior'
p3626
tp3627
a(I01
g3457
tp3628
asg25
Nsbasg33
I00
sg25
Nsg35
I00
sg36
S'L'
sbsg37
(irule
FeatureMatrix
p3629
(dp3630
g23
(lp3631
(I01
g3457
tp3632
asg25
Nsbsg45
(irule
Guard
p3633
(dp3634
g18
I00
sg19
(lp3635
sg33
I00
sg25
Nsg35
I00
sg36
S'R'
sbsg49
(irule
FeatureMatrix
p3636
(dp3637
g23
(lp3638
sg25
Nsbsg25
Nsba(irule
Rule
p3639
(dp3640
g15
(irule
Guard
p3641
(dp3642
g18
I00
sg19
(lp3643
(irule
FeatureMatrix
p3644
(dp3645
g23
(lp3646
(I01
g3626
tp3647
a(I01
S'continuant'
p3648
tp3649
asg25
Nsba(irule
FeatureMatrix
p3650
(dp3651
g23
(lp3652
(I01
g3457
tp3653
asg25
Nsbasg33
I00
sg25
Nsg35
I00
sg36
S'L'
sbsg37
(irule
FeatureMatrix
p3654
(dp3655
g23
(lp3656
(I01
g3457
tp3657
asg25
Nsbsg45
(irule
Guard
p3658
(dp3659
g18
I00
sg19
(lp3660
sg33
I00
sg25
Nsg35
I00
sg36
S'R'
sbsg49
(irule
FeatureMatrix
p3661
(dp3662
g23
(lp3663
sg25
Nsbsg25
Nsba(irule
Rule
p3664
(dp3665
g15
(irule
Guard
p3666
(dp3667
g18
I00
sg19
(lp3668
(irule
FeatureMatrix
p3669
(dp3670
g23
(lp3671
sg25
Nsba(irule
FeatureMatrix
p3672
(dp3673
g23
(lp3674
(I00
g3626
tp3675
a(I01
g3457
tp3676
asg25
Nsbasg33
I00
sg25
Nsg35
I00
sg36
S'L'
sbsg37
(irule
FeatureMatrix
p3677
(dp3678
g23
(lp3679
(I01
g3457
tp3680
asg25
Nsbsg45
(irule
Guard
p3681
(dp3682
g18
I00
sg19
(lp3683
sg33
I00
sg25
Nsg35
I00
sg36
S'R'
sbsg49
(irule
FeatureMatrix
p3684
(dp3685
g23
(lp3686
(I01
g3515
tp3687
asg25
Nsbsg25
Nsba(irule
Rule
p3688
(dp3689
g15
(irule
Guard
p3690
(dp3691
g18
I00
sg19
(lp3692
(irule
FeatureMatrix
p3693
(dp3694
g23
(lp3695
(I00
S'palletized'
p3696
tp3697
a(I00
g3533
tp3698
asg25
Nsba(irule
FeatureMatrix
p3699
(dp3700
g23
(lp3701
(I01
g3457
tp3702
asg25
Nsbasg33
I00
sg25
Nsg35
I00
sg36
S'L'
sbsg37
(irule
FeatureMatrix
p3703
(dp3704
g23
(lp3705
(I01
g3457
tp3706
asg25
Nsbsg45
(irule
Guard
p3707
(dp3708
g18
I00
sg19
(lp3709
sg33
I00
sg25
Nsg35
I00
sg36
S'R'
sbsg49
(irule
FeatureMatrix
p3710
(dp3711
g23
(lp3712
sg25
Nsbsg25
Nsba(irule
Rule
p3713
(dp3714
g15
(irule
Guard
p3715
(dp3716
g18
I00
sg19
(lp3717
(irule
FeatureMatrix
p3718
(dp3719
g23
(lp3720
(I00
g3533
tp3721
asg25
Nsba(irule
FeatureMatrix
p3722
(dp3723
g23
(lp3724
(I01
g3457
tp3725
asg25
Nsbasg33
I00
sg25
Nsg35
I00
sg36
S'L'
sbsg37
(irule
FeatureMatrix
p3726
(dp3727
g23
(lp3728
(I01
g3457
tp3729
asg25
Nsbsg45
(irule
Guard
p3730
(dp3731
g18
I01
sg19
(lp3732
sg33
I00
sg25
Nsg35
I00
sg36
S'R'
sbsg49
(irule
FeatureMatrix
p3733
(dp3734
g23
(lp3735
sg25
Nsbsg25
Nsba(irule
Rule
p3736
(dp3737
g15
(irule
Guard
p3738
(dp3739
g18
I00
sg19
(lp3740
(irule
ConstantPhoneme
p3741
(dp3742
S'p'
Vs
sba(irule
FeatureMatrix
p3743
(dp3744
g23
(lp3745
(I01
g3457
tp3746
asg25
Nsbasg33
I00
sg25
Nsg35
I00
sg36
S'L'
sbsg37
(irule
FeatureMatrix
p3747
(dp3748
g23
(lp3749
(I01
g3457
tp3750
asg25
Nsbsg45
(irule
Guard
p3751
(dp3752
g18
I01
sg19
(lp3753
sg33
I00
sg25
Nsg35
I00
sg36
S'R'
sbsg49
(irule
FeatureMatrix
p3754
(dp3755
g23
(lp3756
sg25
Nsbsg25
Nsba(irule
Rule
p3757
(dp3758
g15
(irule
Guard
p3759
(dp3760
g18
I00
sg19
(lp3761
(irule
FeatureMatrix
p3762
(dp3763
g23
(lp3764
sg25
Nsba(irule
FeatureMatrix
p3765
(dp3766
g23
(lp3767
(I01
g3457
tp3768
asg25
Nsbasg33
I00
sg25
Nsg35
I00
sg36
S'L'
sbsg37
(irule
FeatureMatrix
p3769
(dp3770
g23
(lp3771
(I01
g3457
tp3772
asg25
Nsbsg45
(irule
Guard
p3773
(dp3774
g18
I01
sg19
(lp3775
sg33
I00
sg25
Nsg35
I00
sg36
S'R'
sbsg49
(irule
FeatureMatrix
p3776
(dp3777
g23
(lp3778
(I01
g3515
tp3779
asg25
Nsbsg25
Nsba(irule
Rule
p3780
(dp3781
g15
(irule
Guard
p3782
(dp3783
g18
I00
sg19
(lp3784
(irule
FeatureMatrix
p3785
(dp3786
g23
(lp3787
sg25
Nsba(irule
FeatureMatrix
p3788
(dp3789
g23
(lp3790
(I01
g3457
tp3791
asg25
Nsbasg33
I00
sg25
Nsg35
I00
sg36
S'L'
sbsg37
(irule
FeatureMatrix
p3792
(dp3793
g23
(lp3794
(I01
g3457
tp3795
a(I00
g3477
tp3796
asg25
Nsbsg45
(irule
Guard
p3797
(dp3798
g18
I00
sg19
(lp3799
sg33
I00
sg25
Nsg35
I00
sg36
S'R'
sbsg49
(irule
FeatureMatrix
p3800
(dp3801
g23
(lp3802
(I01
g3515
tp3803
asg25
Nsbsg25
Nsba(irule
Rule
p3804
(dp3805
g15
(irule
Guard
p3806
(dp3807
g18
I00
sg19
(lp3808
(irule
FeatureMatrix
p3809
(dp3810
g23
(lp3811
(I00
g3533
tp3812
asg25
Nsba(irule
FeatureMatrix
p3813
(dp3814
g23
(lp3815
(I01
g3457
tp3816
a(I01
S'vowel'
p3817
tp3818
asg25
Nsbasg33
I00
sg25
Nsg35
I00
sg36
S'L'
sbsg37
(irule
FeatureMatrix
p3819
(dp3820
g23
(lp3821
(I01
g3457
tp3822
asg25
Nsbsg45
(irule
Guard
p3823
(dp3824
g18
I00
sg19
(lp3825
sg33
I00
sg25
Nsg35
I00
sg36
S'R'
sbsg49
(irule
FeatureMatrix
p3826
(dp3827
g23
(lp3828
sg25
Nsbsg25
Nsba(irule
Rule
p3829
(dp3830
g15
(irule
Guard
p3831
(dp3832
g18
I00
sg19
(lp3833
(irule
FeatureMatrix
p3834
(dp3835
g23
(lp3836
(I00
g3817
tp3837
a(I01
g3477
tp3838
asg25
Nsba(irule
FeatureMatrix
p3839
(dp3840
g23
(lp3841
(I01
g3457
tp3842
asg25
Nsbasg33
I00
sg25
Nsg35
I00
sg36
S'L'
sbsg37
(irule
FeatureMatrix
p3843
(dp3844
g23
(lp3845
(I01
g3457
tp3846
asg25
Nsbsg45
(irule
Guard
p3847
(dp3848
g18
I00
sg19
(lp3849
sg33
I00
sg25
Nsg35
I00
sg36
S'R'
sbsg49
(irule
FeatureMatrix
p3850
(dp3851
g23
(lp3852
sg25
Nsbsg25
Nsba(irule
Rule
p3853
(dp3854
g15
(irule
Guard
p3855
(dp3856
g18
I00
sg19
(lp3857
(irule
FeatureMatrix
p3858
(dp3859
g23
(lp3860
(I00
g3515
tp3861
a(I01
g3477
tp3862
asg25
Nsba(irule
FeatureMatrix
p3863
(dp3864
g23
(lp3865
(I01
g3457
tp3866
asg25
Nsbasg33
I00
sg25
Nsg35
I00
sg36
S'L'
sbsg37
(irule
FeatureMatrix
p3867
(dp3868
g23
(lp3869
(I01
g3457
tp3870
asg25
Nsbsg45
(irule
Guard
p3871
(dp3872
g18
I00
sg19
(lp3873
sg33
I00
sg25
Nsg35
I00
sg36
S'R'
sbsg49
(irule
FeatureMatrix
p3874
(dp3875
g23
(lp3876
sg25
Nsbsg25
Nsba(irule
Rule
p3877
(dp3878
g15
(irule
Guard
p3879
(dp3880
g18
I00
sg19
(lp3881
(irule
FeatureMatrix
p3882
(dp3883
g23
(lp3884
(I01
g3648
tp3885
asg25
Nsba(irule
FeatureMatrix
p3886
(dp3887
g23
(lp3888
(I01
g3457
tp3889
asg25
Nsbasg33
I00
sg25
Nsg35
I00
sg36
S'L'
sbsg37
(irule
FeatureMatrix
p3890
(dp3891
g23
(lp3892
(I01
g3457
tp3893
asg25
Nsbsg45
(irule
Guard
p3894
(dp3895
g18
I00
sg19
(lp3896
sg33
I00
sg25
Nsg35
I00
sg36
S'R'
sbsg49
(irule
FeatureMatrix
p3897
(dp3898
g23
(lp3899
(I01
g3515
tp3900
asg25
Nsbsg25
Nsba(irule
Rule
p3901
(dp3902
g15
(irule
Guard
p3903
(dp3904
g18
I00
sg19
(lp3905
(irule
FeatureMatrix
p3906
(dp3907
g23
(lp3908
(I01
g3626
tp3909
a(I00
g3533
tp3910
asg25
Nsba(irule
FeatureMatrix
p3911
(dp3912
g23
(lp3913
(I01
g3457
tp3914
asg25
Nsbasg33
I00
sg25
Nsg35
I00
sg36
S'L'
sbsg37
(irule
FeatureMatrix
p3915
(dp3916
g23
(lp3917
(I01
g3457
tp3918
asg25
Nsbsg45
(irule
Guard
p3919
(dp3920
g18
I00
sg19
(lp3921
sg33
I00
sg25
Nsg35
I00
sg36
S'R'
sbsg49
(irule
FeatureMatrix
p3922
(dp3923
g23
(lp3924
sg25
Nsbsg25
Nsba(irule
Rule
p3925
(dp3926
g15
(irule
Guard
p3927
(dp3928
g18
I00
sg19
(lp3929
(irule
FeatureMatrix
p3930
(dp3931
g23
(lp3932
(I01
g3648
tp3933
a(I00
S'sonorant'
p3934
tp3935
asg25
Nsba(irule
FeatureMatrix
p3936
(dp3937
g23
(lp3938
(I01
g3457
tp3939
asg25
Nsbasg33
I00
sg25
Nsg35
I00
sg36
S'L'
sbsg37
(irule
FeatureMatrix
p3940
(dp3941
g23
(lp3942
(I01
g3457
tp3943
asg25
Nsbsg45
(irule
Guard
p3944
(dp3945
g18
I00
sg19
(lp3946
sg33
I00
sg25
Nsg35
I00
sg36
S'R'
sbsg49
(irule
FeatureMatrix
p3947
(dp3948
g23
(lp3949
sg25
Nsbsg25
Nsba(irule
Rule
p3950
(dp3951
g15
(irule
Guard
p3952
(dp3953
g18
I00
sg19
(lp3954
(irule
FeatureMatrix
p3955
(dp3956
g23
(lp3957
(I00
g3533
tp3958
asg25
Nsba(irule
FeatureMatrix
p3959
(dp3960
g23
(lp3961
(I01
g3457
tp3962
asg25
Nsbasg33
I00
sg25
Nsg35
I00
sg36
S'L'
sbsg37
(irule
FeatureMatrix
p3963
(dp3964
g23
(lp3965
(I01
g3457
tp3966
a(I01
g3533
tp3967
asg25
Nsbsg45
(irule
Guard
p3968
(dp3969
g18
I00
sg19
(lp3970
sg33
I00
sg25
Nsg35
I00
sg36
S'R'
sbsg49
(irule
FeatureMatrix
p3971
(dp3972
g23
(lp3973
sg25
Nsbsg25
Nsba(irule
Rule
p3974
(dp3975
g15
(irule
Guard
p3976
(dp3977
g18
I00
sg19
(lp3978
(irule
FeatureMatrix
p3979
(dp3980
g23
(lp3981
(I00
S'tense'
p3982
tp3983
a(I00
g3533
tp3984
asg25
Nsba(irule
FeatureMatrix
p3985
(dp3986
g23
(lp3987
(I01
g3457
tp3988
asg25
Nsbasg33
I00
sg25
Nsg35
I00
sg36
S'L'
sbsg37
(irule
FeatureMatrix
p3989
(dp3990
g23
(lp3991
(I01
g3457
tp3992
asg25
Nsbsg45
(irule
Guard
p3993
(dp3994
g18
I00
sg19
(lp3995
sg33
I00
sg25
Nsg35
I00
sg36
S'R'
sbsg49
(irule
FeatureMatrix
p3996
(dp3997
g23
(lp3998
sg25
Nsbsg25
Nsba(irule
Rule
p3999
(dp4000
g15
(irule
Guard
p4001
(dp4002
g18
I00
sg19
(lp4003
(irule
FeatureMatrix
p4004
(dp4005
g23
(lp4006
(I00
g3533
tp4007
asg25
Nsba(irule
FeatureMatrix
p4008
(dp4009
g23
(lp4010
(I01
g3457
tp4011
asg25
Nsbasg33
I00
sg25
Nsg35
I00
sg36
S'L'
sbsg37
(irule
FeatureMatrix
p4012
(dp4013
g23
(lp4014
(I01
g3457
tp4015
a(I00
g3477
tp4016
asg25
Nsbsg45
(irule
Guard
p4017
(dp4018
g18
I00
sg19
(lp4019
sg33
I00
sg25
Nsg35
I00
sg36
S'R'
sbsg49
(irule
FeatureMatrix
p4020
(dp4021
g23
(lp4022
sg25
Nsbsg25
Nsba(irule
Rule
p4023
(dp4024
g15
(irule
Guard
p4025
(dp4026
g18
I00
sg19
(lp4027
(irule
FeatureMatrix
p4028
(dp4029
g23
(lp4030
(I01
g3648
tp4031
a(I00
g3533
tp4032
asg25
Nsba(irule
FeatureMatrix
p4033
(dp4034
g23
(lp4035
(I01
g3457
tp4036
asg25
Nsbasg33
I00
sg25
Nsg35
I00
sg36
S'L'
sbsg37
(irule
FeatureMatrix
p4037
(dp4038
g23
(lp4039
(I01
g3457
tp4040
asg25
Nsbsg45
(irule
Guard
p4041
(dp4042
g18
I00
sg19
(lp4043
sg33
I00
sg25
Nsg35
I00
sg36
S'R'
sbsg49
(irule
FeatureMatrix
p4044
(dp4045
g23
(lp4046
sg25
Nsbsg25
Nsba(irule
Rule
p4047
(dp4048
g15
(irule
Guard
p4049
(dp4050
g18
I00
sg19
(lp4051
(irule
FeatureMatrix
p4052
(dp4053
g23
(lp4054
(I00
g3533
tp4055
asg25
Nsba(irule
FeatureMatrix
p4056
(dp4057
g23
(lp4058
(I01
g3457
tp4059
asg25
Nsbasg33
I00
sg25
Nsg35
I00
sg36
S'L'
sbsg37
(irule
FeatureMatrix
p4060
(dp4061
g23
(lp4062
(I01
g3457
tp4063
a(I00
g3597
tp4064
asg25
Nsbsg45
(irule
Guard
p4065
(dp4066
g18
I00
sg19
(lp4067
sg33
I00
sg25
Nsg35
I00
sg36
S'R'
sbsg49
(irule
FeatureMatrix
p4068
(dp4069
g23
(lp4070
sg25
Nsbsg25
Nsba(irule
Rule
p4071
(dp4072
g15
(irule
Guard
p4073
(dp4074
g18
I00
sg19
(lp4075
(irule
FeatureMatrix
p4076
(dp4077
g23
(lp4078
(I01
g3477
tp4079
asg25
Nsba(irule
FeatureMatrix
p4080
(dp4081
g23
(lp4082
(I00
g3626
tp4083
a(I01
g3457
tp4084
asg25
Nsbasg33
I00
sg25
Nsg35
I00
sg36
S'L'
sbsg37
(irule
FeatureMatrix
p4085
(dp4086
g23
(lp4087
(I01
g3457
tp4088
asg25
Nsbsg45
(irule
Guard
p4089
(dp4090
g18
I00
sg19
(lp4091
sg33
I00
sg25
Nsg35
I00
sg36
S'R'
sbsg49
(irule
FeatureMatrix
p4092
(dp4093
g23
(lp4094
sg25
Nsbsg25
Nsba(irule
Rule
p4095
(dp4096
g15
(irule
Guard
p4097
(dp4098
g18
I00
sg19
(lp4099
(irule
FeatureMatrix
p4100
(dp4101
g23
(lp4102
sg25
Nsba(irule
FeatureMatrix
p4103
(dp4104
g23
(lp4105
(I01
g3457
tp4106
asg25
Nsbasg33
I00
sg25
Nsg35
I00
sg36
S'L'
sbsg37
(irule
FeatureMatrix
p4107
(dp4108
g23
(lp4109
(I01
g3457
tp4110
a(I01
g3817
tp4111
asg25
Nsbsg45
(irule
Guard
p4112
(dp4113
g18
I00
sg19
(lp4114
sg33
I00
sg25
Nsg35
I00
sg36
S'R'
sbsg49
(irule
FeatureMatrix
p4115
(dp4116
g23
(lp4117
(I01
g3515
tp4118
asg25
Nsbsg25
Nsba(irule
Rule
p4119
(dp4120
g15
(irule
Guard
p4121
(dp4122
g18
I00
sg19
(lp4123
(irule
FeatureMatrix
p4124
(dp4125
g23
(lp4126
(I01
g3477
tp4127
asg25
Nsba(irule
FeatureMatrix
p4128
(dp4129
g23
(lp4130
(I01
g3457
tp4131
a(I00
S'glide'
p4132
tp4133
asg25
Nsbasg33
I00
sg25
Nsg35
I00
sg36
S'L'
sbsg37
(irule
FeatureMatrix
p4134
(dp4135
g23
(lp4136
(I01
g3457
tp4137
asg25
Nsbsg45
(irule
Guard
p4138
(dp4139
g18
I00
sg19
(lp4140
sg33
I00
sg25
Nsg35
I00
sg36
S'R'
sbsg49
(irule
FeatureMatrix
p4141
(dp4142
g23
(lp4143
sg25
Nsbsg25
Nsba(irule
Rule
p4144
(dp4145
g15
(irule
Guard
p4146
(dp4147
g18
I00
sg19
(lp4148
(irule
FeatureMatrix
p4149
(dp4150
g23
(lp4151
(I00
g3817
tp4152
a(I00
g3533
tp4153
asg25
Nsba(irule
FeatureMatrix
p4154
(dp4155
g23
(lp4156
(I01
g3457
tp4157
asg25
Nsbasg33
I00
sg25
Nsg35
I00
sg36
S'L'
sbsg37
(irule
FeatureMatrix
p4158
(dp4159
g23
(lp4160
(I01
g3457
tp4161
asg25
Nsbsg45
(irule
Guard
p4162
(dp4163
g18
I00
sg19
(lp4164
sg33
I00
sg25
Nsg35
I00
sg36
S'R'
sbsg49
(irule
FeatureMatrix
p4165
(dp4166
g23
(lp4167
sg25
Nsbsg25
Nsba(irule
Rule
p4168
(dp4169
g15
(irule
Guard
p4170
(dp4171
g18
I00
sg19
(lp4172
(irule
FeatureMatrix
p4173
(dp4174
g23
(lp4175
(I01
g3626
tp4176
asg25
Nsba(irule
FeatureMatrix
p4177
(dp4178
g23
(lp4179
(I01
g3457
tp4180
asg25
Nsbasg33
I00
sg25
Nsg35
I00
sg36
S'L'
sbsg37
(irule
FeatureMatrix
p4181
(dp4182
g23
(lp4183
(I01
g3457
tp4184
asg25
Nsbsg45
(irule
Guard
p4185
(dp4186
g18
I00
sg19
(lp4187
sg33
I00
sg25
Nsg35
I00
sg36
S'R'
sbsg49
(irule
FeatureMatrix
p4188
(dp4189
g23
(lp4190
(I01
g3515
tp4191
asg25
Nsbsg25
Nsba(irule
Rule
p4192
(dp4193
g15
(irule
Guard
p4194
(dp4195
g18
I00
sg19
(lp4196
(irule
FeatureMatrix
p4197
(dp4198
g23
(lp4199
(I01
g3477
tp4200
asg25
Nsba(irule
FeatureMatrix
p4201
(dp4202
g23
(lp4203
(I01
g3457
tp4204
asg25
Nsbasg33
I00
sg25
Nsg35
I00
sg36
S'L'
sbsg37
(irule
FeatureMatrix
p4205
(dp4206
g23
(lp4207
(I01
g3457
tp4208
a(I01
g3533
tp4209
asg25
Nsbsg45
(irule
Guard
p4210
(dp4211
g18
I00
sg19
(lp4212
sg33
I00
sg25
Nsg35
I00
sg36
S'R'
sbsg49
(irule
FeatureMatrix
p4213
(dp4214
g23
(lp4215
sg25
Nsbsg25
Nsba(irule
Rule
p4216
(dp4217
g15
(irule
Guard
p4218
(dp4219
g18
I00
sg19
(lp4220
(irule
FeatureMatrix
p4221
(dp4222
g23
(lp4223
(I01
g3477
tp4224
asg25
Nsba(irule
FeatureMatrix
p4225
(dp4226
g23
(lp4227
(I00
S'long'
p4228
tp4229
a(I01
g3457
tp4230
asg25
Nsbasg33
I00
sg25
Nsg35
I00
sg36
S'L'
sbsg37
(irule
FeatureMatrix
p4231
(dp4232
g23
(lp4233
(I01
g3457
tp4234
asg25
Nsbsg45
(irule
Guard
p4235
(dp4236
g18
I00
sg19
(lp4237
sg33
I00
sg25
Nsg35
I00
sg36
S'R'
sbsg49
(irule
FeatureMatrix
p4238
(dp4239
g23
(lp4240
sg25
Nsbsg25
Nsba(irule
Rule
p4241
(dp4242
g15
(irule
Guard
p4243
(dp4244
g18
I00
sg19
(lp4245
(irule
FeatureMatrix
p4246
(dp4247
g23
(lp4248
(I00
g3533
tp4249
asg25
Nsba(irule
FeatureMatrix
p4250
(dp4251
g23
(lp4252
(I01
g3457
tp4253
asg25
Nsbasg33
I00
sg25
Nsg35
I00
sg36
S'L'
sbsg37
(irule
FeatureMatrix
p4254
(dp4255
g23
(lp4256
(I01
g3457
tp4257
asg25
Nsbsg45
(irule
Guard
p4258
(dp4259
g18
I00
sg19
(lp4260
sg33
I00
sg25
Nsg35
I00
sg36
S'R'
sbsg49
(irule
FeatureMatrix
p4261
(dp4262
g23
(lp4263
(I01
g3533
tp4264
asg25
Nsbsg25
Nsba(irule
Rule
p4265
(dp4266
g15
(irule
Guard
p4267
(dp4268
g18
I00
sg19
(lp4269
(irule
FeatureMatrix
p4270
(dp4271
g23
(lp4272
(I01
g3477
tp4273
asg25
Nsba(irule
FeatureMatrix
p4274
(dp4275
g23
(lp4276
(I01
g3457
tp4277
a(I00
S'coronal'
p4278
tp4279
asg25
Nsbasg33
I00
sg25
Nsg35
I00
sg36
S'L'
sbsg37
(irule
FeatureMatrix
p4280
(dp4281
g23
(lp4282
(I01
g3457
tp4283
asg25
Nsbsg45
(irule
Guard
p4284
(dp4285
g18
I00
sg19
(lp4286
sg33
I00
sg25
Nsg35
I00
sg36
S'R'
sbsg49
(irule
FeatureMatrix
p4287
(dp4288
g23
(lp4289
sg25
Nsbsg25
Nsba(irule
Rule
p4290
(dp4291
g15
(irule
Guard
p4292
(dp4293
g18
I00
sg19
(lp4294
(irule
FeatureMatrix
p4295
(dp4296
g23
(lp4297
(I01
g3477
tp4298
asg25
Nsba(irule
FeatureMatrix
p4299
(dp4300
g23
(lp4301
(I01
g3457
tp4302
asg25
Nsbasg33
I00
sg25
Nsg35
I00
sg36
S'L'
sbsg37
(irule
FeatureMatrix
p4303
(dp4304
g23
(lp4305
(I01
g3457
tp4306
a(I01
g3817
tp4307
asg25
Nsbsg45
(irule
Guard
p4308
(dp4309
g18
I00
sg19
(lp4310
sg33
I00
sg25
Nsg35
I00
sg36
S'R'
sbsg49
(irule
FeatureMatrix
p4311
(dp4312
g23
(lp4313
sg25
Nsbsg25
Nsba(irule
Rule
p4314
(dp4315
g15
(irule
Guard
p4316
(dp4317
g18
I00
sg19
(lp4318
(irule
FeatureMatrix
p4319
(dp4320
g23
(lp4321
(I01
g3648
tp4322
a(I01
g3477
tp4323
asg25
Nsba(irule
FeatureMatrix
p4324
(dp4325
g23
(lp4326
(I01
g3457
tp4327
asg25
Nsbasg33
I00
sg25
Nsg35
I00
sg36
S'L'
sbsg37
(irule
FeatureMatrix
p4328
(dp4329
g23
(lp4330
(I01
g3457
tp4331
asg25
Nsbsg45
(irule
Guard
p4332
(dp4333
g18
I00
sg19
(lp4334
sg33
I00
sg25
Nsg35
I00
sg36
S'R'
sbsg49
(irule
FeatureMatrix
p4335
(dp4336
g23
(lp4337
sg25
Nsbsg25
Nsba(irule
Rule
p4338
(dp4339
g15
(irule
Guard
p4340
(dp4341
g18
I00
sg19
(lp4342
(irule
ConstantPhoneme
p4343
(dp4344
S'p'
Vs
sba(irule
FeatureMatrix
p4345
(dp4346
g23
(lp4347
(I01
g3457
tp4348
a(I00
g4132
tp4349
asg25
Nsbasg33
I00
sg25
Nsg35
I00
sg36
S'L'
sbsg37
(irule
FeatureMatrix
p4350
(dp4351
g23
(lp4352
(I01
g3457
tp4353
asg25
Nsbsg45
(irule
Guard
p4354
(dp4355
g18
I00
sg19
(lp4356
sg33
I00
sg25
Nsg35
I00
sg36
S'R'
sbsg49
(irule
FeatureMatrix
p4357
(dp4358
g23
(lp4359
sg25
Nsbsg25
Nsba(irule
Rule
p4360
(dp4361
g15
(irule
Guard
p4362
(dp4363
g18
I00
sg19
(lp4364
(irule
FeatureMatrix
p4365
(dp4366
g23
(lp4367
(I00
g3533
tp4368
asg25
Nsba(irule
FeatureMatrix
p4369
(dp4370
g23
(lp4371
(I00
g4228
tp4372
a(I01
g3457
tp4373
asg25
Nsbasg33
I00
sg25
Nsg35
I00
sg36
S'L'
sbsg37
(irule
FeatureMatrix
p4374
(dp4375
g23
(lp4376
(I01
g3457
tp4377
asg25
Nsbsg45
(irule
Guard
p4378
(dp4379
g18
I00
sg19
(lp4380
sg33
I00
sg25
Nsg35
I00
sg36
S'R'
sbsg49
(irule
FeatureMatrix
p4381
(dp4382
g23
(lp4383
sg25
Nsbsg25
Nsba(irule
Rule
p4384
(dp4385
g15
(irule
Guard
p4386
(dp4387
g18
I00
sg19
(lp4388
(irule
FeatureMatrix
p4389
(dp4390
g23
(lp4391
(I00
g3533
tp4392
asg25
Nsba(irule
FeatureMatrix
p4393
(dp4394
g23
(lp4395
(I01
g3457
tp4396
asg25
Nsbasg33
I00
sg25
Nsg35
I00
sg36
S'L'
sbsg37
(irule
FeatureMatrix
p4397
(dp4398
g23
(lp4399
(I01
g3457
tp4400
asg25
Nsbsg45
(irule
Guard
p4401
(dp4402
g18
I00
sg19
(lp4403
sg33
I00
sg25
Nsg35
I00
sg36
S'R'
sbsg49
(irule
FeatureMatrix
p4404
(dp4405
g23
(lp4406
(I00
g3477
tp4407
asg25
Nsbsg25
Nsba(irule
Rule
p4408
(dp4409
g15
(irule
Guard
p4410
(dp4411
g18
I00
sg19
(lp4412
(irule
FeatureMatrix
p4413
(dp4414
g23
(lp4415
(I01
g3477
tp4416
asg25
Nsba(irule
FeatureMatrix
p4417
(dp4418
g23
(lp4419
(I01
g3457
tp4420
a(I01
g3533
tp4421
asg25
Nsbasg33
I00
sg25
Nsg35
I00
sg36
S'L'
sbsg37
(irule
FeatureMatrix
p4422
(dp4423
g23
(lp4424
(I01
g3457
tp4425
asg25
Nsbsg45
(irule
Guard
p4426
(dp4427
g18
I00
sg19
(lp4428
sg33
I00
sg25
Nsg35
I00
sg36
S'R'
sbsg49
(irule
FeatureMatrix
p4429
(dp4430
g23
(lp4431
sg25
Nsbsg25
Nsba(irule
Rule
p4432
(dp4433
g15
(irule
Guard
p4434
(dp4435
g18
I00
sg19
(lp4436
(irule
FeatureMatrix
p4437
(dp4438
g23
(lp4439
(I00
g3533
tp4440
asg25
Nsba(irule
FeatureMatrix
p4441
(dp4442
g23
(lp4443
(I01
g3457
tp4444
a(I01
g3934
tp4445
asg25
Nsbasg33
I00
sg25
Nsg35
I00
sg36
S'L'
sbsg37
(irule
FeatureMatrix
p4446
(dp4447
g23
(lp4448
(I01
g3457
tp4449
asg25
Nsbsg45
(irule
Guard
p4450
(dp4451
g18
I00
sg19
(lp4452
sg33
I00
sg25
Nsg35
I00
sg36
S'R'
sbsg49
(irule
FeatureMatrix
p4453
(dp4454
g23
(lp4455
sg25
Nsbsg25
Nsba(irule
Rule
p4456
(dp4457
g15
(irule
Guard
p4458
(dp4459
g18
I00
sg19
(lp4460
(irule
FeatureMatrix
p4461
(dp4462
g23
(lp4463
(I01
g3626
tp4464
a(I01
g3477
tp4465
asg25
Nsba(irule
FeatureMatrix
p4466
(dp4467
g23
(lp4468
(I01
g3457
tp4469
asg25
Nsbasg33
I00
sg25
Nsg35
I00
sg36
S'L'
sbsg37
(irule
FeatureMatrix
p4470
(dp4471
g23
(lp4472
(I01
g3457
tp4473
asg25
Nsbsg45
(irule
Guard
p4474
(dp4475
g18
I00
sg19
(lp4476
sg33
I00
sg25
Nsg35
I00
sg36
S'R'
sbsg49
(irule
FeatureMatrix
p4477
(dp4478
g23
(lp4479
sg25
Nsbsg25
Nsba(irule
Rule
p4480
(dp4481
g15
(irule
Guard
p4482
(dp4483
g18
I00
sg19
(lp4484
(irule
FeatureMatrix
p4485
(dp4486
g23
(lp4487
(I00
g3533
tp4488
asg25
Nsba(irule
FeatureMatrix
p4489
(dp4490
g23
(lp4491
(I01
g3457
tp4492
a(I01
g3533
tp4493
asg25
Nsbasg33
I00
sg25
Nsg35
I00
sg36
S'L'
sbsg37
(irule
FeatureMatrix
p4494
(dp4495
g23
(lp4496
(I01
g3457
tp4497
asg25
Nsbsg45
(irule
Guard
p4498
(dp4499
g18
I00
sg19
(lp4500
sg33
I00
sg25
Nsg35
I00
sg36
S'R'
sbsg49
(irule
FeatureMatrix
p4501
(dp4502
g23
(lp4503
sg25
Nsbsg25
Nsba(irule
Rule
p4504
(dp4505
g15
(irule
Guard
p4506
(dp4507
g18
I00
sg19
(lp4508
(irule
FeatureMatrix
p4509
(dp4510
g23
(lp4511
(I01
g3477
tp4512
asg25
Nsba(irule
FeatureMatrix
p4513
(dp4514
g23
(lp4515
(I01
g3457
tp4516
asg25
Nsbasg33
I00
sg25
Nsg35
I00
sg36
S'L'
sbsg37
(irule
FeatureMatrix
p4517
(dp4518
g23
(lp4519
(I01
g3457
tp4520
asg25
Nsbsg45
(irule
Guard
p4521
(dp4522
g18
I00
sg19
(lp4523
sg33
I00
sg25
Nsg35
I00
sg36
S'R'
sbsg49
(irule
FeatureMatrix
p4524
(dp4525
g23
(lp4526
(I01
g3533
tp4527
asg25
Nsbsg25
Nsba(irule
Rule
p4528
(dp4529
g15
(irule
Guard
p4530
(dp4531
g18
I00
sg19
(lp4532
(irule
FeatureMatrix
p4533
(dp4534
g23
(lp4535
sg25
Nsba(irule
FeatureMatrix
p4536
(dp4537
g23
(lp4538
(I01
g3457
tp4539
asg25
Nsbasg33
I00
sg25
Nsg35
I00
sg36
S'L'
sbsg37
(irule
FeatureMatrix
p4540
(dp4541
g23
(lp4542
(I01
g3457
tp4543
asg25
Nsbsg45
(irule
Guard
p4544
(dp4545
g18
I00
sg19
(lp4546
sg33
I00
sg25
Nsg35
I00
sg36
S'R'
sbsg49
(irule
FeatureMatrix
p4547
(dp4548
g23
(lp4549
(I01
g3515
tp4550
a(I00
g4278
tp4551
asg25
Nsbsg25
Nsba(irule
Rule
p4552
(dp4553
g15
(irule
Guard
p4554
(dp4555
g18
I00
sg19
(lp4556
(irule
FeatureMatrix
p4557
(dp4558
g23
(lp4559
(I00
g4228
tp4560
asg25
Nsba(irule
FeatureMatrix
p4561
(dp4562
g23
(lp4563
(I01
g3457
tp4564
asg25
Nsbasg33
I00
sg25
Nsg35
I00
sg36
S'L'
sbsg37
(irule
FeatureMatrix
p4565
(dp4566
g23
(lp4567
(I01
g3457
tp4568
asg25
Nsbsg45
(irule
Guard
p4569
(dp4570
g18
I00
sg19
(lp4571
sg33
I00
sg25
Nsg35
I00
sg36
S'R'
sbsg49
(irule
FeatureMatrix
p4572
(dp4573
g23
(lp4574
(I01
g3515
tp4575
asg25
Nsbsg25
Nsba(irule
Rule
p4576
(dp4577
g15
(irule
Guard
p4578
(dp4579
g18
I00
sg19
(lp4580
(irule
FeatureMatrix
p4581
(dp4582
g23
(lp4583
(I00
g3533
tp4584
asg25
Nsba(irule
FeatureMatrix
p4585
(dp4586
g23
(lp4587
(I01
g3457
tp4588
asg25
Nsbasg33
I00
sg25
Nsg35
I00
sg36
S'L'
sbsg37
(irule
FeatureMatrix
p4589
(dp4590
g23
(lp4591
(I01
g3457
tp4592
a(I01
g3817
tp4593
asg25
Nsbsg45
(irule
Guard
p4594
(dp4595
g18
I00
sg19
(lp4596
sg33
I00
sg25
Nsg35
I00
sg36
S'R'
sbsg49
(irule
FeatureMatrix
p4597
(dp4598
g23
(lp4599
sg25
Nsbsg25
Nsba(irule
Rule
p4600
(dp4601
g15
(irule
Guard
p4602
(dp4603
g18
I00
sg19
(lp4604
(irule
FeatureMatrix
p4605
(dp4606
g23
(lp4607
(I01
g3477
tp4608
asg25
Nsba(irule
FeatureMatrix
p4609
(dp4610
g23
(lp4611
(I01
g3457
tp4612
a(I01
g3982
tp4613
asg25
Nsbasg33
I00
sg25
Nsg35
I00
sg36
S'L'
sbsg37
(irule
FeatureMatrix
p4614
(dp4615
g23
(lp4616
(I01
g3457
tp4617
asg25
Nsbsg45
(irule
Guard
p4618
(dp4619
g18
I00
sg19
(lp4620
sg33
I00
sg25
Nsg35
I00
sg36
S'R'
sbsg49
(irule
FeatureMatrix
p4621
(dp4622
g23
(lp4623
sg25
Nsbsg25
Nsba(irule
Rule
p4624
(dp4625
g15
(irule
Guard
p4626
(dp4627
g18
I00
sg19
(lp4628
(irule
FeatureMatrix
p4629
(dp4630
g23
(lp4631
(I00
g3533
tp4632
asg25
Nsba(irule
FeatureMatrix
p4633
(dp4634
g23
(lp4635
(I01
g3457
tp4636
a(I00
g3477
tp4637
asg25
Nsbasg33
I00
sg25
Nsg35
I00
sg36
S'L'
sbsg37
(irule
FeatureMatrix
p4638
(dp4639
g23
(lp4640
(I01
g3457
tp4641
asg25
Nsbsg45
(irule
Guard
p4642
(dp4643
g18
I00
sg19
(lp4644
sg33
I00
sg25
Nsg35
I00
sg36
S'R'
sbsg49
(irule
FeatureMatrix
p4645
(dp4646
g23
(lp4647
sg25
Nsbsg25
Nsba(irule
Rule
p4648
(dp4649
g15
(irule
Guard
p4650
(dp4651
g18
I00
sg19
(lp4652
(irule
FeatureMatrix
p4653
(dp4654
g23
(lp4655
(I01
g3477
tp4656
asg25
Nsba(irule
FeatureMatrix
p4657
(dp4658
g23
(lp4659
(I01
g3457
tp4660
a(I00
g3477
tp4661
asg25
Nsbasg33
I00
sg25
Nsg35
I00
sg36
S'L'
sbsg37
(irule
FeatureMatrix
p4662
(dp4663
g23
(lp4664
(I01
g3457
tp4665
asg25
Nsbsg45
(irule
Guard
p4666
(dp4667
g18
I00
sg19
(lp4668
sg33
I00
sg25
Nsg35
I00
sg36
S'R'
sbsg49
(irule
FeatureMatrix
p4669
(dp4670
g23
(lp4671
sg25
Nsbsg25
Nsba(irule
Rule
p4672
(dp4673
g15
(irule
Guard
p4674
(dp4675
g18
I00
sg19
(lp4676
(irule
ConstantPhoneme
p4677
(dp4678
S'p'
Vs
sba(irule
FeatureMatrix
p4679
(dp4680
g23
(lp4681
(I01
g3457
tp4682
a(I01
g3533
tp4683
asg25
Nsbasg33
I00
sg25
Nsg35
I00
sg36
S'L'
sbsg37
(irule
FeatureMatrix
p4684
(dp4685
g23
(lp4686
(I01
g3457
tp4687
asg25
Nsbsg45
(irule
Guard
p4688
(dp4689
g18
I00
sg19
(lp4690
sg33
I00
sg25
Nsg35
I00
sg36
S'R'
sbsg49
(irule
FeatureMatrix
p4691
(dp4692
g23
(lp4693
sg25
Nsbsg25
Nsba(irule
Rule
p4694
(dp4695
g15
(irule
Guard
p4696
(dp4697
g18
I00
sg19
(lp4698
(irule
FeatureMatrix
p4699
(dp4700
g23
(lp4701
sg25
Nsba(irule
FeatureMatrix
p4702
(dp4703
g23
(lp4704
(I01
g3457
tp4705
asg25
Nsbasg33
I00
sg25
Nsg35
I00
sg36
S'L'
sbsg37
(irule
FeatureMatrix
p4706
(dp4707
g23
(lp4708
(I01
g3457
tp4709
asg25
Nsbsg45
(irule
Guard
p4710
(dp4711
g18
I00
sg19
(lp4712
sg33
I00
sg25
Nsg35
I00
sg36
S'R'
sbsg49
(irule
FeatureMatrix
p4713
(dp4714
g23
(lp4715
(I01
g3515
tp4716
a(I00
g3696
tp4717
asg25
Nsbsg25
Nsba(irule
Rule
p4718
(dp4719
g15
(irule
Guard
p4720
(dp4721
g18
I00
sg19
(lp4722
(irule
FeatureMatrix
p4723
(dp4724
g23
(lp4725
(I01
g4278
tp4726
asg25
Nsba(irule
FeatureMatrix
p4727
(dp4728
g23
(lp4729
(I01
g3457
tp4730
asg25
Nsbasg33
I00
sg25
Nsg35
I00
sg36
S'L'
sbsg37
(irule
FeatureMatrix
p4731
(dp4732
g23
(lp4733
(I01
g3457
tp4734
asg25
Nsbsg45
(irule
Guard
p4735
(dp4736
g18
I00
sg19
(lp4737
sg33
I00
sg25
Nsg35
I00
sg36
S'R'
sbsg49
(irule
FeatureMatrix
p4738
(dp4739
g23
(lp4740
(I01
g3515
tp4741
asg25
Nsbsg25
Nsba(irule
Rule
p4742
(dp4743
g15
(irule
Guard
p4744
(dp4745
g18
I00
sg19
(lp4746
(irule
FeatureMatrix
p4747
(dp4748
g23
(lp4749
sg25
Nsba(irule
FeatureMatrix
p4750
(dp4751
g23
(lp4752
(I01
g3457
tp4753
asg25
Nsbasg33
I00
sg25
Nsg35
I00
sg36
S'L'
sbsg37
(irule
FeatureMatrix
p4754
(dp4755
g23
(lp4756
(I01
g3457
tp4757
asg25
Nsbsg45
(irule
Guard
p4758
(dp4759
g18
I00
sg19
(lp4760
sg33
I00
sg25
Nsg35
I00
sg36
S'R'
sbsg49
(irule
FeatureMatrix
p4761
(dp4762
g23
(lp4763
(I01
g3515
tp4764
a(I00
g3477
tp4765
asg25
Nsbsg25
Nsba(irule
Rule
p4766
(dp4767
g15
(irule
Guard
p4768
(dp4769
g18
I00
sg19
(lp4770
(irule
FeatureMatrix
p4771
(dp4772
g23
(lp4773
(I01
g3477
tp4774
asg25
Nsba(irule
FeatureMatrix
p4775
(dp4776
g23
(lp4777
(I01
g3457
tp4778
asg25
Nsbasg33
I00
sg25
Nsg35
I00
sg36
S'L'
sbsg37
(irule
FeatureMatrix
p4779
(dp4780
g23
(lp4781
(I01
g3457
tp4782
asg25
Nsbsg45
(irule
Guard
p4783
(dp4784
g18
I00
sg19
(lp4785
sg33
I00
sg25
Nsg35
I00
sg36
S'R'
sbsg49
(irule
FeatureMatrix
p4786
(dp4787
g23
(lp4788
(I01
g3515
tp4789
asg25
Nsbsg25
Nsba(irule
Rule
p4790
(dp4791
g15
(irule
Guard
p4792
(dp4793
g18
I00
sg19
(lp4794
(irule
FeatureMatrix
p4795
(dp4796
g23
(lp4797
(I00
g3533
tp4798
asg25
Nsba(irule
FeatureMatrix
p4799
(dp4800
g23
(lp4801
(I01
g3457
tp4802
a(I00
S'liquid'
p4803
tp4804
asg25
Nsbasg33
I00
sg25
Nsg35
I00
sg36
S'L'
sbsg37
(irule
FeatureMatrix
p4805
(dp4806
g23
(lp4807
(I01
g3457
tp4808
asg25
Nsbsg45
(irule
Guard
p4809
(dp4810
g18
I00
sg19
(lp4811
sg33
I00
sg25
Nsg35
I00
sg36
S'R'
sbsg49
(irule
FeatureMatrix
p4812
(dp4813
g23
(lp4814
sg25
Nsbsg25
Nsba(irule
Rule
p4815
(dp4816
g15
(irule
Guard
p4817
(dp4818
g18
I00
sg19
(lp4819
(irule
FeatureMatrix
p4820
(dp4821
g23
(lp4822
(I00
g4803
tp4823
a(I00
g3533
tp4824
asg25
Nsba(irule
FeatureMatrix
p4825
(dp4826
g23
(lp4827
(I01
g3457
tp4828
asg25
Nsbasg33
I00
sg25
Nsg35
I00
sg36
S'L'
sbsg37
(irule
FeatureMatrix
p4829
(dp4830
g23
(lp4831
(I01
g3457
tp4832
asg25
Nsbsg45
(irule
Guard
p4833
(dp4834
g18
I00
sg19
(lp4835
sg33
I00
sg25
Nsg35
I00
sg36
S'R'
sbsg49
(irule
FeatureMatrix
p4836
(dp4837
g23
(lp4838
sg25
Nsbsg25
Nsba(irule
Rule
p4839
(dp4840
g15
(irule
Guard
p4841
(dp4842
g18
I00
sg19
(lp4843
(irule
FeatureMatrix
p4844
(dp4845
g23
(lp4846
(I00
g3597
tp4847
a(I01
g3477
tp4848
asg25
Nsba(irule
FeatureMatrix
p4849
(dp4850
g23
(lp4851
(I01
g3457
tp4852
asg25
Nsbasg33
I00
sg25
Nsg35
I00
sg36
S'L'
sbsg37
(irule
FeatureMatrix
p4853
(dp4854
g23
(lp4855
(I01
g3457
tp4856
asg25
Nsbsg45
(irule
Guard
p4857
(dp4858
g18
I00
sg19
(lp4859
sg33
I00
sg25
Nsg35
I00
sg36
S'R'
sbsg49
(irule
FeatureMatrix
p4860
(dp4861
g23
(lp4862
sg25
Nsbsg25
Nsba(irule
Rule
p4863
(dp4864
g15
(irule
Guard
p4865
(dp4866
g18
I00
sg19
(lp4867
(irule
FeatureMatrix
p4868
(dp4869
g23
(lp4870
sg25
Nsba(irule
FeatureMatrix
p4871
(dp4872
g23
(lp4873
(I01
g3457
tp4874
asg25
Nsbasg33
I00
sg25
Nsg35
I00
sg36
S'L'
sbsg37
(irule
FeatureMatrix
p4875
(dp4876
g23
(lp4877
(I01
g3457
tp4878
asg25
Nsbsg45
(irule
Guard
p4879
(dp4880
g18
I00
sg19
(lp4881
sg33
I00
sg25
Nsg35
I00
sg36
S'R'
sbsg49
(irule
FeatureMatrix
p4882
(dp4883
g23
(lp4884
(I01
g3515
tp4885
a(I00
g3597
tp4886
asg25
Nsbsg25
Nsba(irule
Rule
p4887
(dp4888
g15
(irule
Guard
p4889
(dp4890
g18
I00
sg19
(lp4891
(irule
FeatureMatrix
p4892
(dp4893
g23
(lp4894
(I00
g4803
tp4895
a(I01
g3477
tp4896
asg25
Nsba(irule
FeatureMatrix
p4897
(dp4898
g23
(lp4899
(I01
g3457
tp4900
asg25
Nsbasg33
I00
sg25
Nsg35
I00
sg36
S'L'
sbsg37
(irule
FeatureMatrix
p4901
(dp4902
g23
(lp4903
(I01
g3457
tp4904
asg25
Nsbsg45
(irule
Guard
p4905
(dp4906
g18
I00
sg19
(lp4907
sg33
I00
sg25
Nsg35
I00
sg36
S'R'
sbsg49
(irule
FeatureMatrix
p4908
(dp4909
g23
(lp4910
sg25
Nsbsg25
Nsba(irule
Rule
p4911
(dp4912
g15
(irule
Guard
p4913
(dp4914
g18
I00
sg19
(lp4915
(irule
FeatureMatrix
p4916
(dp4917
g23
(lp4918
(I01
g4278
tp4919
a(I00
g3533
tp4920
asg25
Nsba(irule
FeatureMatrix
p4921
(dp4922
g23
(lp4923
(I01
g3457
tp4924
asg25
Nsbasg33
I00
sg25
Nsg35
I00
sg36
S'L'
sbsg37
(irule
FeatureMatrix
p4925
(dp4926
g23
(lp4927
(I01
g3457
tp4928
asg25
Nsbsg45
(irule
Guard
p4929
(dp4930
g18
I00
sg19
(lp4931
sg33
I00
sg25
Nsg35
I00
sg36
S'R'
sbsg49
(irule
FeatureMatrix
p4932
(dp4933
g23
(lp4934
sg25
Nsbsg25
Nsba(irule
Rule
p4935
(dp4936
g15
(irule
Guard
p4937
(dp4938
g18
I00
sg19
(lp4939
(irule
FeatureMatrix
p4940
(dp4941
g23
(lp4942
(I00
g3515
tp4943
asg25
Nsba(irule
FeatureMatrix
p4944
(dp4945
g23
(lp4946
(I01
g3457
tp4947
asg25
Nsbasg33
I00
sg25
Nsg35
I00
sg36
S'L'
sbsg37
(irule
FeatureMatrix
p4948
(dp4949
g23
(lp4950
(I01
g3457
tp4951
asg25
Nsbsg45
(irule
Guard
p4952
(dp4953
g18
I00
sg19
(lp4954
sg33
I00
sg25
Nsg35
I00
sg36
S'R'
sbsg49
(irule
FeatureMatrix
p4955
(dp4956
g23
(lp4957
(I01
g3515
tp4958
asg25
Nsbsg25
Nsba(irule
Rule
p4959
(dp4960
g15
(irule
Guard
p4961
(dp4962
g18
I00
sg19
(lp4963
(irule
FeatureMatrix
p4964
(dp4965
g23
(lp4966
(I00
g3457
tp4967
asg25
Nsba(irule
FeatureMatrix
p4968
(dp4969
g23
(lp4970
(I01
g3457
tp4971
asg25
Nsbasg33
I00
sg25
Nsg35
I00
sg36
S'L'
sbsg37
(irule
FeatureMatrix
p4972
(dp4973
g23
(lp4974
(I01
g3457
tp4975
asg25
Nsbsg45
(irule
Guard
p4976
(dp4977
g18
I00
sg19
(lp4978
sg33
I00
sg25
Nsg35
I00
sg36
S'R'
sbsg49
(irule
FeatureMatrix
p4979
(dp4980
g23
(lp4981
(I01
g3515
tp4982
asg25
Nsbsg25
Nsba(irule
Rule
p4983
(dp4984
g15
(irule
Guard
p4985
(dp4986
g18
I00
sg19
(lp4987
(irule
FeatureMatrix
p4988
(dp4989
g23
(lp4990
(I00
g4228
tp4991
a(I01
g3477
tp4992
asg25
Nsba(irule
FeatureMatrix
p4993
(dp4994
g23
(lp4995
(I01
g3457
tp4996
asg25
Nsbasg33
I00
sg25
Nsg35
I00
sg36
S'L'
sbsg37
(irule
FeatureMatrix
p4997
(dp4998
g23
(lp4999
(I01
g3457
tp5000
asg25
Nsbsg45
(irule
Guard
p5001
(dp5002
g18
I00
sg19
(lp5003
sg33
I00
sg25
Nsg35
I00
sg36
S'R'
sbsg49
(irule
FeatureMatrix
p5004
(dp5005
g23
(lp5006
sg25
Nsbsg25
Nsba(irule
Rule
p5007
(dp5008
g15
(irule
Guard
p5009
(dp5010
g18
I00
sg19
(lp5011
(irule
FeatureMatrix
p5012
(dp5013
g23
(lp5014
(I00
g3533
tp5015
asg25
Nsba(irule
FeatureMatrix
p5016
(dp5017
g23
(lp5018
(I01
g3457
tp5019
a(I00
g3696
tp5020
asg25
Nsbasg33
I00
sg25
Nsg35
I00
sg36
S'L'
sbsg37
(irule
FeatureMatrix
p5021
(dp5022
g23
(lp5023
(I01
g3457
tp5024
asg25
Nsbsg45
(irule
Guard
p5025
(dp5026
g18
I00
sg19
(lp5027
sg33
I00
sg25
Nsg35
I00
sg36
S'R'
sbsg49
(irule
FeatureMatrix
p5028
(dp5029
g23
(lp5030
sg25
Nsbsg25
Nsba(irule
Rule
p5031
(dp5032
g15
(irule
Guard
p5033
(dp5034
g18
I00
sg19
(lp5035
(irule
FeatureMatrix
p5036
(dp5037
g23
(lp5038
(I01
g3477
tp5039
asg25
Nsba(irule
FeatureMatrix
p5040
(dp5041
g23
(lp5042
(I01
g3457
tp5043
asg25
Nsbasg33
I00
sg25
Nsg35
I00
sg36
S'L'
sbsg37
(irule
FeatureMatrix
p5044
(dp5045
g23
(lp5046
(I01
g3457
tp5047
asg25
Nsbsg45
(irule
Guard
p5048
(dp5049
g18
I00
sg19
(lp5050
sg33
I00
sg25
Nsg35
I00
sg36
S'R'
sbsg49
(irule
FeatureMatrix
p5051
(dp5052
g23
(lp5053
(I00
g3477
tp5054
asg25
Nsbsg25
Nsba(irule
Rule
p5055
(dp5056
g15
(irule
Guard
p5057
(dp5058
g18
I00
sg19
(lp5059
(irule
FeatureMatrix
p5060
(dp5061
g23
(lp5062
sg25
Nsba(irule
FeatureMatrix
p5063
(dp5064
g23
(lp5065
(I01
g3457
tp5066
asg25
Nsbasg33
I00
sg25
Nsg35
I00
sg36
S'L'
sbsg37
(irule
FeatureMatrix
p5067
(dp5068
g23
(lp5069
(I01
g3457
tp5070
a(I00
g3597
tp5071
asg25
Nsbsg45
(irule
Guard
p5072
(dp5073
g18
I00
sg19
(lp5074
sg33
I00
sg25
Nsg35
I00
sg36
S'R'
sbsg49
(irule
FeatureMatrix
p5075
(dp5076
g23
(lp5077
(I01
g3515
tp5078
asg25
Nsbsg25
Nsba(irule
Rule
p5079
(dp5080
g15
(irule
Guard
p5081
(dp5082
g18
I00
sg19
(lp5083
(irule
FeatureMatrix
p5084
(dp5085
g23
(lp5086
sg25
Nsba(irule
FeatureMatrix
p5087
(dp5088
g23
(lp5089
(I01
g3457
tp5090
asg25
Nsbasg33
I00
sg25
Nsg35
I00
sg36
S'L'
sbsg37
(irule
FeatureMatrix
p5091
(dp5092
g23
(lp5093
(I01
g3457
tp5094
a(I01
g3982
tp5095
asg25
Nsbsg45
(irule
Guard
p5096
(dp5097
g18
I00
sg19
(lp5098
sg33
I00
sg25
Nsg35
I00
sg36
S'R'
sbsg49
(irule
FeatureMatrix
p5099
(dp5100
g23
(lp5101
(I01
g3515
tp5102
asg25
Nsbsg25
Nsba(irule
Rule
p5103
(dp5104
g15
(irule
Guard
p5105
(dp5106
g18
I00
sg19
(lp5107
(irule
FeatureMatrix
p5108
(dp5109
g23
(lp5110
(I00
g3817
tp5111
asg25
Nsba(irule
FeatureMatrix
p5112
(dp5113
g23
(lp5114
(I01
g3457
tp5115
asg25
Nsbasg33
I00
sg25
Nsg35
I00
sg36
S'L'
sbsg37
(irule
FeatureMatrix
p5116
(dp5117
g23
(lp5118
(I01
g3457
tp5119
asg25
Nsbsg45
(irule
Guard
p5120
(dp5121
g18
I00
sg19
(lp5122
sg33
I00
sg25
Nsg35
I00
sg36
S'R'
sbsg49
(irule
FeatureMatrix
p5123
(dp5124
g23
(lp5125
(I01
g3515
tp5126
asg25
Nsbsg25
Nsba(irule
Rule
p5127
(dp5128
g15
(irule
Guard
p5129
(dp5130
g18
I00
sg19
(lp5131
(irule
FeatureMatrix
p5132
(dp5133
g23
(lp5134
(I00
g3533
tp5135
asg25
Nsba(irule
FeatureMatrix
p5136
(dp5137
g23
(lp5138
(I01
g3457
tp5139
a(I01
g3982
tp5140
asg25
Nsbasg33
I00
sg25
Nsg35
I00
sg36
S'L'
sbsg37
(irule
FeatureMatrix
p5141
(dp5142
g23
(lp5143
(I01
g3457
tp5144
asg25
Nsbsg45
(irule
Guard
p5145
(dp5146
g18
I00
sg19
(lp5147
sg33
I00
sg25
Nsg35
I00
sg36
S'R'
sbsg49
(irule
FeatureMatrix
p5148
(dp5149
g23
(lp5150
sg25
Nsbsg25
Nsba(irule
Rule
p5151
(dp5152
g15
(irule
Guard
p5153
(dp5154
g18
I00
sg19
(lp5155
(irule
FeatureMatrix
p5156
(dp5157
g23
(lp5158
(I01
g3477
tp5159
asg25
Nsba(irule
FeatureMatrix
p5160
(dp5161
g23
(lp5162
(I01
g3457
tp5163
asg25
Nsbasg33
I00
sg25
Nsg35
I00
sg36
S'L'
sbsg37
(irule
FeatureMatrix
p5164
(dp5165
g23
(lp5166
(I01
g3457
tp5167
asg25
Nsbsg45
(irule
Guard
p5168
(dp5169
g18
I00
sg19
(lp5170
sg33
I00
sg25
Nsg35
I00
sg36
S'R'
sbsg49
(irule
FeatureMatrix
p5171
(dp5172
g23
(lp5173
(I01
g3817
tp5174
asg25
Nsbsg25
Nsba(irule
Rule
p5175
(dp5176
g15
(irule
Guard
p5177
(dp5178
g18
I00
sg19
(lp5179
(irule
FeatureMatrix
p5180
(dp5181
g23
(lp5182
(I00
g3533
tp5183
asg25
Nsba(irule
FeatureMatrix
p5184
(dp5185
g23
(lp5186
(I01
g3457
tp5187
asg25
Nsbasg33
I00
sg25
Nsg35
I00
sg36
S'L'
sbsg37
(irule
FeatureMatrix
p5188
(dp5189
g23
(lp5190
(I01
g3457
tp5191
asg25
Nsbsg45
(irule
Guard
p5192
(dp5193
g18
I00
sg19
(lp5194
sg33
I00
sg25
Nsg35
I00
sg36
S'R'
sbsg49
(irule
FeatureMatrix
p5195
(dp5196
g23
(lp5197
(I01
g3817
tp5198
asg25
Nsbsg25
Nsba(irule
Rule
p5199
(dp5200
g15
(irule
Guard
p5201
(dp5202
g18
I00
sg19
(lp5203
(irule
ConstantPhoneme
p5204
(dp5205
S'p'
Vs
sba(irule
FeatureMatrix
p5206
(dp5207
g23
(lp5208
(I01
g3457
tp5209
asg25
Nsbasg33
I00
sg25
Nsg35
I00
sg36
S'L'
sbsg37
(irule
FeatureMatrix
p5210
(dp5211
g23
(lp5212
(I00
g3626
tp5213
a(I01
g3457
tp5214
asg25
Nsbsg45
(irule
Guard
p5215
(dp5216
g18
I00
sg19
(lp5217
sg33
I00
sg25
Nsg35
I00
sg36
S'R'
sbsg49
(irule
FeatureMatrix
p5218
(dp5219
g23
(lp5220
sg25
Nsbsg25
Nsba(irule
Rule
p5221
(dp5222
g15
(irule
Guard
p5223
(dp5224
g18
I00
sg19
(lp5225
(irule
FeatureMatrix
p5226
(dp5227
g23
(lp5228
sg25
Nsba(irule
FeatureMatrix
p5229
(dp5230
g23
(lp5231
(I01
g3457
tp5232
asg25
Nsbasg33
I00
sg25
Nsg35
I00
sg36
S'L'
sbsg37
(irule
FeatureMatrix
p5233
(dp5234
g23
(lp5235
(I01
g3457
tp5236
asg25
Nsbsg45
(irule
Guard
p5237
(dp5238
g18
I00
sg19
(lp5239
sg33
I00
sg25
Nsg35
I00
sg36
S'R'
sbsg49
(irule
FeatureMatrix
p5240
(dp5241
g23
(lp5242
(I01
g3515
tp5243
a(I01
g3533
tp5244
asg25
Nsbsg25
Nsba(irule
Rule
p5245
(dp5246
g15
(irule
Guard
p5247
(dp5248
g18
I00
sg19
(lp5249
(irule
FeatureMatrix
p5250
(dp5251
g23
(lp5252
sg25
Nsba(irule
FeatureMatrix
p5253
(dp5254
g23
(lp5255
(I01
g3457
tp5256
asg25
Nsbasg33
I00
sg25
Nsg35
I00
sg36
S'L'
sbsg37
(irule
FeatureMatrix
p5257
(dp5258
g23
(lp5259
(I01
g3457
tp5260
a(I00
g4278
tp5261
asg25
Nsbsg45
(irule
Guard
p5262
(dp5263
g18
I00
sg19
(lp5264
sg33
I00
sg25
Nsg35
I00
sg36
S'R'
sbsg49
(irule
FeatureMatrix
p5265
(dp5266
g23
(lp5267
(I01
g3515
tp5268
asg25
Nsbsg25
Nsba(irule
Rule
p5269
(dp5270
g15
(irule
Guard
p5271
(dp5272
g18
I00
sg19
(lp5273
(irule
FeatureMatrix
p5274
(dp5275
g23
(lp5276
(I00
g3533
tp5277
asg25
Nsba(irule
FeatureMatrix
p5278
(dp5279
g23
(lp5280
(I01
g3457
tp5281
asg25
Nsbasg33
I00
sg25
Nsg35
I00
sg36
S'L'
sbsg37
(irule
FeatureMatrix
p5282
(dp5283
g23
(lp5284
(I01
g3457
tp5285
a(I00
g4278
tp5286
asg25
Nsbsg45
(irule
Guard
p5287
(dp5288
g18
I00
sg19
(lp5289
sg33
I00
sg25
Nsg35
I00
sg36
S'R'
sbsg49
(irule
FeatureMatrix
p5290
(dp5291
g23
(lp5292
sg25
Nsbsg25
Nsba(irule
Rule
p5293
(dp5294
g15
(irule
Guard
p5295
(dp5296
g18
I00
sg19
(lp5297
(irule
FeatureMatrix
p5298
(dp5299
g23
(lp5300
(I00
g4228
tp5301
a(I00
g3533
tp5302
asg25
Nsba(irule
FeatureMatrix
p5303
(dp5304
g23
(lp5305
(I01
g3457
tp5306
asg25
Nsbasg33
I00
sg25
Nsg35
I00
sg36
S'L'
sbsg37
(irule
FeatureMatrix
p5307
(dp5308
g23
(lp5309
(I01
g3457
tp5310
asg25
Nsbsg45
(irule
Guard
p5311
(dp5312
g18
I00
sg19
(lp5313
sg33
I00
sg25
Nsg35
I00
sg36
S'R'
sbsg49
(irule
FeatureMatrix
p5314
(dp5315
g23
(lp5316
sg25
Nsbsg25
Nsba(irule
Rule
p5317
(dp5318
g15
(irule
Guard
p5319
(dp5320
g18
I00
sg19
(lp5321
(irule
FeatureMatrix
p5322
(dp5323
g23
(lp5324
(I00
g3533
tp5325
asg25
Nsba(irule
FeatureMatrix
p5326
(dp5327
g23
(lp5328
(I01
g3457
tp5329
a(I00
g4278
tp5330
asg25
Nsbasg33
I00
sg25
Nsg35
I00
sg36
S'L'
sbsg37
(irule
FeatureMatrix
p5331
(dp5332
g23
(lp5333
(I01
g3457
tp5334
asg25
Nsbsg45
(irule
Guard
p5335
(dp5336
g18
I00
sg19
(lp5337
sg33
I00
sg25
Nsg35
I00
sg36
S'R'
sbsg49
(irule
FeatureMatrix
p5338
(dp5339
g23
(lp5340
sg25
Nsbsg25
Nsba(irule
Rule
p5341
(dp5342
g15
(irule
Guard
p5343
(dp5344
g18
I00
sg19
(lp5345
(irule
FeatureMatrix
p5346
(dp5347
g23
(lp5348
(I01
g3477
tp5349
asg25
Nsba(irule
FeatureMatrix
p5350
(dp5351
g23
(lp5352
(I01
g3457
tp5353
asg25
Nsbasg33
I00
sg25
Nsg35
I00
sg36
S'L'
sbsg37
(irule
FeatureMatrix
p5354
(dp5355
g23
(lp5356
(I01
g3457
tp5357
a(I00
g3477
tp5358
asg25
Nsbsg45
(irule
Guard
p5359
(dp5360
g18
I00
sg19
(lp5361
sg33
I00
sg25
Nsg35
I00
sg36
S'R'
sbsg49
(irule
FeatureMatrix
p5362
(dp5363
g23
(lp5364
sg25
Nsbsg25
Nsba(irule
Rule
p5365
(dp5366
g15
(irule
Guard
p5367
(dp5368
g18
I00
sg19
(lp5369
(irule
FeatureMatrix
p5370
(dp5371
g23
(lp5372
(I00
g3982
tp5373
a(I01
g3477
tp5374
asg25
Nsba(irule
FeatureMatrix
p5375
(dp5376
g23
(lp5377
(I01
g3457
tp5378
asg25
Nsbasg33
I00
sg25
Nsg35
I00
sg36
S'L'
sbsg37
(irule
FeatureMatrix
p5379
(dp5380
g23
(lp5381
(I01
g3457
tp5382
asg25
Nsbsg45
(irule
Guard
p5383
(dp5384
g18
I00
sg19
(lp5385
sg33
I00
sg25
Nsg35
I00
sg36
S'R'
sbsg49
(irule
FeatureMatrix
p5386
(dp5387
g23
(lp5388
sg25
Nsbsg25
Nsba(irule
Rule
p5389
(dp5390
g15
(irule
Guard
p5391
(dp5392
g18
I00
sg19
(lp5393
(irule
FeatureMatrix
p5394
(dp5395
g23
(lp5396
(I00
g3934
tp5397
asg25
Nsba(irule
FeatureMatrix
p5398
(dp5399
g23
(lp5400
(I01
g3457
tp5401
asg25
Nsbasg33
I00
sg25
Nsg35
I00
sg36
S'L'
sbsg37
(irule
FeatureMatrix
p5402
(dp5403
g23
(lp5404
(I01
g3457
tp5405
asg25
Nsbsg45
(irule
Guard
p5406
(dp5407
g18
I00
sg19
(lp5408
sg33
I00
sg25
Nsg35
I00
sg36
S'R'
sbsg49
(irule
FeatureMatrix
p5409
(dp5410
g23
(lp5411
(I01
g3515
tp5412
asg25
Nsbsg25
Nsba(irule
Rule
p5413
(dp5414
g15
(irule
Guard
p5415
(dp5416
g18
I00
sg19
(lp5417
(irule
FeatureMatrix
p5418
(dp5419
g23
(lp5420
sg25
Nsba(irule
FeatureMatrix
p5421
(dp5422
g23
(lp5423
(I01
g3457
tp5424
asg25
Nsbasg33
I00
sg25
Nsg35
I00
sg36
S'L'
sbsg37
(irule
FeatureMatrix
p5425
(dp5426
g23
(lp5427
(I01
g3457
tp5428
a(I00
g3696
tp5429
asg25
Nsbsg45
(irule
Guard
p5430
(dp5431
g18
I00
sg19
(lp5432
sg33
I00
sg25
Nsg35
I00
sg36
S'R'
sbsg49
(irule
FeatureMatrix
p5433
(dp5434
g23
(lp5435
(I01
g3515
tp5436
asg25
Nsbsg25
Nsba(irule
Rule
p5437
(dp5438
g15
(irule
Guard
p5439
(dp5440
g18
I00
sg19
(lp5441
(irule
FeatureMatrix
p5442
(dp5443
g23
(lp5444
(I01
g3477
tp5445
a(I00
g3533
tp5446
asg25
Nsba(irule
FeatureMatrix
p5447
(dp5448
g23
(lp5449
(I01
g3457
tp5450
asg25
Nsbasg33
I00
sg25
Nsg35
I00
sg36
S'L'
sbsg37
(irule
FeatureMatrix
p5451
(dp5452
g23
(lp5453
(I01
g3457
tp5454
asg25
Nsbsg45
(irule
Guard
p5455
(dp5456
g18
I00
sg19
(lp5457
sg33
I00
sg25
Nsg35
I00
sg36
S'R'
sbsg49
(irule
FeatureMatrix
p5458
(dp5459
g23
(lp5460
sg25
Nsbsg25
Nsba(irule
Rule
p5461
(dp5462
g15
(irule
Guard
p5463
(dp5464
g18
I00
sg19
(lp5465
(irule
FeatureMatrix
p5466
(dp5467
g23
(lp5468
(I00
g3533
tp5469
asg25
Nsba(irule
FeatureMatrix
p5470
(dp5471
g23
(lp5472
(I01
g3457
tp5473
asg25
Nsbasg33
I00
sg25
Nsg35
I00
sg36
S'L'
sbsg37
(irule
FeatureMatrix
p5474
(dp5475
g23
(lp5476
(I01
g3457
tp5477
asg25
Nsbsg45
(irule
Guard
p5478
(dp5479
g18
I00
sg19
(lp5480
sg33
I00
sg25
Nsg35
I00
sg36
S'R'
sbsg49
(irule
FeatureMatrix
p5481
(dp5482
g23
(lp5483
(I01
g3982
tp5484
asg25
Nsbsg25
Nsba(irule
Rule
p5485
(dp5486
g15
(irule
Guard
p5487
(dp5488
g18
I00
sg19
(lp5489
(irule
FeatureMatrix
p5490
(dp5491
g23
(lp5492
(I00
g3533
tp5493
asg25
Nsba(irule
FeatureMatrix
p5494
(dp5495
g23
(lp5496
(I01
g3457
tp5497
asg25
Nsbasg33
I00
sg25
Nsg35
I00
sg36
S'L'
sbsg37
(irule
FeatureMatrix
p5498
(dp5499
g23
(lp5500
(I01
g3457
tp5501
a(I00
g3696
tp5502
asg25
Nsbsg45
(irule
Guard
p5503
(dp5504
g18
I00
sg19
(lp5505
sg33
I00
sg25
Nsg35
I00
sg36
S'R'
sbsg49
(irule
FeatureMatrix
p5506
(dp5507
g23
(lp5508
sg25
Nsbsg25
Nsba(irule
Rule
p5509
(dp5510
g15
(irule
Guard
p5511
(dp5512
g18
I00
sg19
(lp5513
(irule
FeatureMatrix
p5514
(dp5515
g23
(lp5516
(I01
g3477
tp5517
asg25
Nsba(irule
FeatureMatrix
p5518
(dp5519
g23
(lp5520
(I01
g3457
tp5521
asg25
Nsbasg33
I00
sg25
Nsg35
I00
sg36
S'L'
sbsg37
(irule
FeatureMatrix
p5522
(dp5523
g23
(lp5524
(I01
g3457
tp5525
asg25
Nsbsg45
(irule
Guard
p5526
(dp5527
g18
I00
sg19
(lp5528
sg33
I00
sg25
Nsg35
I00
sg36
S'R'
sbsg49
(irule
FeatureMatrix
p5529
(dp5530
g23
(lp5531
(I01
g3982
tp5532
asg25
Nsbsg25
Nsba(irule
Rule
p5533
(dp5534
g15
(irule
Guard
p5535
(dp5536
g18
I00
sg19
(lp5537
(irule
FeatureMatrix
p5538
(dp5539
g23
(lp5540
sg25
Nsba(irule
FeatureMatrix
p5541
(dp5542
g23
(lp5543
(I01
g3457
tp5544
asg25
Nsbasg33
I00
sg25
Nsg35
I00
sg36
S'L'
sbsg37
(irule
FeatureMatrix
p5545
(dp5546
g23
(lp5547
(I01
g3457
tp5548
a(I01
g3515
tp5549
asg25
Nsbsg45
(irule
Guard
p5550
(dp5551
g18
I00
sg19
(lp5552
sg33
I00
sg25
Nsg35
I00
sg36
S'R'
sbsg49
(irule
FeatureMatrix
p5553
(dp5554
g23
(lp5555
(I01
g3515
tp5556
asg25
Nsbsg25
Nsba(irule
Rule
p5557
(dp5558
g15
(irule
Guard
p5559
(dp5560
g18
I00
sg19
(lp5561
(irule
ConstantPhoneme
p5562
(dp5563
S'p'
Vs
sba(irule
FeatureMatrix
p5564
(dp5565
g23
(lp5566
(I01
g3457
tp5567
a(I00
g3477
tp5568
asg25
Nsbasg33
I00
sg25
Nsg35
I00
sg36
S'L'
sbsg37
(irule
FeatureMatrix
p5569
(dp5570
g23
(lp5571
(I01
g3457
tp5572
asg25
Nsbsg45
(irule
Guard
p5573
(dp5574
g18
I00
sg19
(lp5575
sg33
I00
sg25
Nsg35
I00
sg36
S'R'
sbsg49
(irule
FeatureMatrix
p5576
(dp5577
g23
(lp5578
sg25
Nsbsg25
Nsba(irule
Rule
p5579
(dp5580
g15
(irule
Guard
p5581
(dp5582
g18
I00
sg19
(lp5583
(irule
FeatureMatrix
p5584
(dp5585
g23
(lp5586
(I00
g3533
tp5587
asg25
Nsba(irule
FeatureMatrix
p5588
(dp5589
g23
(lp5590
(I01
g3457
tp5591
asg25
Nsbasg33
I00
sg25
Nsg35
I00
sg36
S'L'
sbsg37
(irule
FeatureMatrix
p5592
(dp5593
g23
(lp5594
(I01
g3457
tp5595
asg25
Nsbsg45
(irule
Guard
p5596
(dp5597
g18
I00
sg19
(lp5598
sg33
I00
sg25
Nsg35
I00
sg36
S'R'
sbsg49
(irule
FeatureMatrix
p5599
(dp5600
g23
(lp5601
(I01
g3515
tp5602
asg25
Nsbsg25
Nsba(irule
Rule
p5603
(dp5604
g15
(irule
Guard
p5605
(dp5606
g18
I00
sg19
(lp5607
(irule
FeatureMatrix
p5608
(dp5609
g23
(lp5610
sg25
Nsba(irule
FeatureMatrix
p5611
(dp5612
g23
(lp5613
(I01
g3457
tp5614
asg25
Nsbasg33
I00
sg25
Nsg35
I00
sg36
S'L'
sbsg37
(irule
FeatureMatrix
p5615
(dp5616
g23
(lp5617
(I01
g3457
tp5618
a(I00
S'nasal'
p5619
tp5620
asg25
Nsbsg45
(irule
Guard
p5621
(dp5622
g18
I00
sg19
(lp5623
sg33
I00
sg25
Nsg35
I00
sg36
S'R'
sbsg49
(irule
FeatureMatrix
p5624
(dp5625
g23
(lp5626
(I01
g3515
tp5627
asg25
Nsbsg25
Nsba(irule
Rule
p5628
(dp5629
g15
(irule
Guard
p5630
(dp5631
g18
I00
sg19
(lp5632
(irule
FeatureMatrix
p5633
(dp5634
g23
(lp5635
(I01
g3477
tp5636
asg25
Nsba(irule
FeatureMatrix
p5637
(dp5638
g23
(lp5639
(I01
g3457
tp5640
a(I01
g3934
tp5641
asg25
Nsbasg33
I00
sg25
Nsg35
I00
sg36
S'L'
sbsg37
(irule
FeatureMatrix
p5642
(dp5643
g23
(lp5644
(I01
g3457
tp5645
asg25
Nsbsg45
(irule
Guard
p5646
(dp5647
g18
I00
sg19
(lp5648
sg33
I00
sg25
Nsg35
I00
sg36
S'R'
sbsg49
(irule
FeatureMatrix
p5649
(dp5650
g23
(lp5651
sg25
Nsbsg25
Nsba(irule
Rule
p5652
(dp5653
g15
(irule
Guard
p5654
(dp5655
g18
I00
sg19
(lp5656
(irule
FeatureMatrix
p5657
(dp5658
g23
(lp5659
(I00
g4803
tp5660
asg25
Nsba(irule
FeatureMatrix
p5661
(dp5662
g23
(lp5663
(I01
g3457
tp5664
asg25
Nsbasg33
I00
sg25
Nsg35
I00
sg36
S'L'
sbsg37
(irule
FeatureMatrix
p5665
(dp5666
g23
(lp5667
(I01
g3457
tp5668
asg25
Nsbsg45
(irule
Guard
p5669
(dp5670
g18
I00
sg19
(lp5671
sg33
I00
sg25
Nsg35
I00
sg36
S'R'
sbsg49
(irule
FeatureMatrix
p5672
(dp5673
g23
(lp5674
(I01
g3515
tp5675
asg25
Nsbsg25
Nsba(irule
Rule
p5676
(dp5677
g15
(irule
Guard
p5678
(dp5679
g18
I00
sg19
(lp5680
(irule
FeatureMatrix
p5681
(dp5682
g23
(lp5683
(I01
g3477
tp5684
asg25
Nsba(irule
FeatureMatrix
p5685
(dp5686
g23
(lp5687
(I01
g3457
tp5688
asg25
Nsbasg33
I00
sg25
Nsg35
I00
sg36
S'L'
sbsg37
(irule
FeatureMatrix
p5689
(dp5690
g23
(lp5691
(I01
g3457
tp5692
a(I00
g4278
tp5693
asg25
Nsbsg45
(irule
Guard
p5694
(dp5695
g18
I00
sg19
(lp5696
sg33
I00
sg25
Nsg35
I00
sg36
S'R'
sbsg49
(irule
FeatureMatrix
p5697
(dp5698
g23
(lp5699
sg25
Nsbsg25
Nsba(irule
Rule
p5700
(dp5701
g15
(irule
Guard
p5702
(dp5703
g18
I00
sg19
(lp5704
(irule
FeatureMatrix
p5705
(dp5706
g23
(lp5707
(I00
g3533
tp5708
asg25
Nsba(irule
FeatureMatrix
p5709
(dp5710
g23
(lp5711
(I01
g3457
tp5712
asg25
Nsbasg33
I00
sg25
Nsg35
I00
sg36
S'L'
sbsg37
(irule
FeatureMatrix
p5713
(dp5714
g23
(lp5715
(I01
g3457
tp5716
a(I01
g3982
tp5717
asg25
Nsbsg45
(irule
Guard
p5718
(dp5719
g18
I00
sg19
(lp5720
sg33
I00
sg25
Nsg35
I00
sg36
S'R'
sbsg49
(irule
FeatureMatrix
p5721
(dp5722
g23
(lp5723
sg25
Nsbsg25
Nsba(irule
Rule
p5724
(dp5725
g15
(irule
Guard
p5726
(dp5727
g18
I00
sg19
(lp5728
(irule
FeatureMatrix
p5729
(dp5730
g23
(lp5731
(I00
g3533
tp5732
asg25
Nsba(irule
FeatureMatrix
p5733
(dp5734
g23
(lp5735
(I01
g3457
tp5736
a(I00
g5619
tp5737
asg25
Nsbasg33
I00
sg25
Nsg35
I00
sg36
S'L'
sbsg37
(irule
FeatureMatrix
p5738
(dp5739
g23
(lp5740
(I01
g3457
tp5741
asg25
Nsbsg45
(irule
Guard
p5742
(dp5743
g18
I00
sg19
(lp5744
sg33
I00
sg25
Nsg35
I00
sg36
S'R'
sbsg49
(irule
FeatureMatrix
p5745
(dp5746
g23
(lp5747
sg25
Nsbsg25
Nsba(irule
Rule
p5748
(dp5749
g15
(irule
Guard
p5750
(dp5751
g18
I00
sg19
(lp5752
(irule
FeatureMatrix
p5753
(dp5754
g23
(lp5755
(I00
g3533
tp5756
asg25
Nsba(irule
FeatureMatrix
p5757
(dp5758
g23
(lp5759
(I01
g3457
tp5760
a(I00
g4132
tp5761
asg25
Nsbasg33
I00
sg25
Nsg35
I00
sg36
S'L'
sbsg37
(irule
FeatureMatrix
p5762
(dp5763
g23
(lp5764
(I01
g3457
tp5765
asg25
Nsbsg45
(irule
Guard
p5766
(dp5767
g18
I00
sg19
(lp5768
sg33
I00
sg25
Nsg35
I00
sg36
S'R'
sbsg49
(irule
FeatureMatrix
p5769
(dp5770
g23
(lp5771
sg25
Nsbsg25
Nsba(irule
Rule
p5772
(dp5773
g15
(irule
Guard
p5774
(dp5775
g18
I00
sg19
(lp5776
(irule
FeatureMatrix
p5777
(dp5778
g23
(lp5779
(I01
g4278
tp5780
a(I01
g3477
tp5781
asg25
Nsba(irule
FeatureMatrix
p5782
(dp5783
g23
(lp5784
(I01
g3457
tp5785
asg25
Nsbasg33
I00
sg25
Nsg35
I00
sg36
S'L'
sbsg37
(irule
FeatureMatrix
p5786
(dp5787
g23
(lp5788
(I01
g3457
tp5789
asg25
Nsbsg45
(irule
Guard
p5790
(dp5791
g18
I00
sg19
(lp5792
sg33
I00
sg25
Nsg35
I00
sg36
S'R'
sbsg49
(irule
FeatureMatrix
p5793
(dp5794
g23
(lp5795
sg25
Nsbsg25
Nsba(irule
Rule
p5796
(dp5797
g15
(irule
Guard
p5798
(dp5799
g18
I00
sg19
(lp5800
(irule
FeatureMatrix
p5801
(dp5802
g23
(lp5803
(I00
g3533
tp5804
asg25
Nsba(irule
FeatureMatrix
p5805
(dp5806
g23
(lp5807
(I01
g3457
tp5808
asg25
Nsbasg33
I00
sg25
Nsg35
I00
sg36
S'L'
sbsg37
(irule
FeatureMatrix
p5809
(dp5810
g23
(lp5811
(I01
g3457
tp5812
asg25
Nsbsg45
(irule
Guard
p5813
(dp5814
g18
I00
sg19
(lp5815
sg33
I00
sg25
Nsg35
I00
sg36
S'R'
sbsg49
(irule
FeatureMatrix
p5816
(dp5817
g23
(lp5818
(I00
g3597
tp5819
asg25
Nsbsg25
NsbaasbsS'parameters'
p5820
g6
(cargparse
Namespace
p5821
g8
NtRp5822
(dp5823
S'dummy'
p5824
I00
sS'task'
p5825
S'CEGIS'
p5826
sS'features'
p5827
S'sophisticated'
p5828
sS'resume'
p5829
I00
sS'geometry'
p5830
I01
sS'top'
p5831
I100
sS'disableClean'
p5832
I00
sS'universal'
p5833
NsS'restrict'
p5834
NsS'window'
p5835
NsS'seed'
p5836
S'0'
sS'restore'
p5837
NsS'verbosity'
p5838
I0
sS'timeout'
p5839
F24
sS'debug'
p5840
NsS'cores'
p5841
I40
sg828
S'Odden_4.5_Turkish'
p5842
sS'save'
p5843
NsS'serial'
p5844
I00
sS'alignment'
p5845
I00
sS'samples'
p5846
I30
sbsb.