(iresult
Result
p1
(dp2
S'startTime'
p3
F1549639740.9669399
sS'problem'
p4
S'Odden_1.3_Korean'
p5
sS'solutionSequence'
p6
(lp7
(ccopy_reg
_reconstructor
p8
(csolution
Solution
p9
c__builtin__
object
p10
NtRp11
(dp12
S'rules'
p13
(lp14
(irule
Rule
p15
(dp16
S'leftTriggers'
p17
(irule
Guard
p18
(dp19
S'endOfString'
p20
I00
sS'specifications'
p21
(lp22
(irule
FeatureMatrix
p23
(dp24
S'featuresAndPolarities'
p25
(lp26
(I01
S'anterior'
tp27
asS'representation'
p28
V[ +anterior ]
p29
sba(irule
FeatureMatrix
p30
(dp31
g25
(lp32
(I01
S'continuant'
tp33
a(I01
S'high'
tp34
asg28
V[ +continuant +high ]
p35
sbasS'optionalEnding'
p36
I00
sg28
V[ +continuant +high ] [ +anterior ]*
p37
sS'starred'
p38
I01
sS'side'
p39
S'L'
sbsS'structuralChange'
p40
(irule
FeatureMatrix
p41
(dp42
g25
(lp43
(I00
S'aspirated'
tp44
a(I00
S'tense'
tp45
a(I00
S'low'
tp46
asg28
V[ -aspirated -low -tense ]
p47
sbsS'rightTriggers'
p48
(irule
Guard
p49
(dp50
g20
I00
sg21
(lp51
sg36
I00
sg28
V
sg38
I00
sg39
S'R'
sbsS'focus'
p52
(irule
FeatureMatrix
p53
(dp54
g25
(lp55
sg28
V[  ]
p56
sbsg28
V[  ] ---> [ -aspirated -low -tense ] / [ +continuant +high ] [ +anterior ]* _ 
p57
sbasS'prefixes'
p58
(lp59
(imorph
Morph
p60
(dp61
S'phonemes'
p62
(lp63
sba(imorph
Morph
p64
(dp65
g62
(lp66
sbasS'underlyingForms'
p67
(dp68
((imorph
Morph
(dp69
g62
(lp70
Vk
aVu
aVp
aV\u0259
asb(imorph
Morph
(dp71
g62
(lp72
Vk
aVu
aVp
aVk
aVo
asbtp73
(imorph
Morph
p74
(dp75
g62
(lp76
Vk
aVu
asbs((imorph
Morph
(dp77
g62
(lp78
Vk
aVa
aVp^h
p79
aVa
asb(imorph
Morph
(dp80
g62
(lp81
Vk
aVa
aVp
aVk
aVo
asbtp82
(imorph
Morph
p83
(dp84
g62
(lp85
Vk
aVa
asbs((imorph
Morph
(dp86
g62
(lp87
Vi
aVp
aV\u0259
asb(imorph
Morph
(dp88
g62
(lp89
Vi
aVp
aVk
aVo
asbtp90
(imorph
Morph
p91
(dp92
g62
(lp93
Vi
asbssS'suffixes'
p94
(lp95
(imorph
Morph
p96
(dp97
g62
(lp98
Vp^h
p99
aVa
asba(imorph
Morph
p100
(dp101
g62
(lp102
Vp
aVk
aVo
asbasbF17.141474962234497
tp103
a(g8
(g9
g10
NtRp104
(dp105
g13
(lp106
(irule
Rule
p107
(dp108
g17
(irule
Guard
p109
(dp110
g20
I00
sg21
(lp111
sg36
I00
sg28
V
sg38
I00
sg39
S'L'
sbsg40
(irule
FeatureMatrix
p112
(dp113
g25
(lp114
(I00
S'aspirated'
tp115
asg28
V[ -aspirated ]
p116
sbsg48
(irule
Guard
p117
(dp118
g20
I00
sg21
(lp119
(irule
FeatureMatrix
p120
(dp121
g25
(lp122
(I00
S'voice'
tp123
asg28
V[ -voice ]
p124
sbasg36
I00
sg28
g124
sg38
I00
sg39
S'R'
sbsg52
(irule
FeatureMatrix
p125
(dp126
g25
(lp127
sg28
V[  ]
p128
sbsg28
V[  ] ---> [ -aspirated ] /  _ [ -voice ]
p129
sba(irule
Rule
p130
(dp131
g17
(irule
Guard
p132
(dp133
g20
I00
sg21
(lp134
(irule
FeatureMatrix
p135
(dp136
g25
(lp137
sg28
V[  ]
p138
sba(irule
FeatureMatrix
p139
(dp140
g25
(lp141
(I01
S'low'
tp142
asg28
V[ +low ]
p143
sbasg36
I00
sg28
V[ +low ] [  ]
p144
sg38
I00
sg39
S'L'
sbsg40
(irule
OffsetSpecification
p145
(dp146
S'offset'
p147
I-2
sbsg48
(irule
Guard
p148
(dp149
g20
I00
sg21
(lp150
sg36
I00
sg28
V
sg38
I00
sg39
S'R'
sbsg52
(irule
FeatureMatrix
p151
(dp152
g25
(lp153
(I00
S'high'
tp154
asg28
V[ -high ]
p155
sbsg28
V[ -high ] ---> -2 / [ +low ] [  ] _ 
p156
sbasg58
(lp157
(imorph
Morph
p158
(dp159
g62
(lp160
sba(imorph
Morph
p161
(dp162
g62
(lp163
sbasg67
(dp164
((imorph
Morph
(dp165
g62
(lp166
Vk
aVu
aVp
aV\u0259
asb(imorph
Morph
(dp167
g62
(lp168
Vk
aVu
aVp
aVk
aVo
asbtp169
(imorph
Morph
p170
(dp171
g62
(lp172
Vk
aVu
aVp
asbs((imorph
Morph
(dp173
g62
(lp174
Vp
aVu
aVt^h
p175
aV\u0259
asb(imorph
Morph
(dp176
g62
(lp177
Vp
aVu
aVt
aVk
aVo
asbtp178
(imorph
Morph
p179
(dp180
g62
(lp181
Vp
aVu
aVt^h
p182
asbs((imorph
Morph
(dp183
g62
(lp184
Vt
aVa
aVt
aVa
asb(imorph
Morph
(dp185
g62
(lp186
Vt
aVa
aVt
aVk
aVo
asbtp187
(imorph
Morph
p188
(dp189
g62
(lp190
Vt
aVa
aVt
asbs((imorph
Morph
(dp191
g62
(lp192
Vk
aVa
aVp^h
p193
aVa
asb(imorph
Morph
(dp194
g62
(lp195
Vk
aVa
aVp
aVk
aVo
asbtp196
(imorph
Morph
p197
(dp198
g62
(lp199
Vk
aVa
aVp^h
p200
asbs((imorph
Morph
(dp201
g62
(lp202
Vc
aVi
aVp^h
p203
aV\u0259
asb(imorph
Morph
(dp204
g62
(lp205
Vc
aVi
aVp
aVk
aVo
asbtp206
(imorph
Morph
p207
(dp208
g62
(lp209
Vc
aVi
ag200
asbs((imorph
Morph
(dp210
g62
(lp211
Vi
aVp
aV\u0259
asb(imorph
Morph
(dp212
g62
(lp213
Vi
aVp
aVk
aVo
asbtp214
(imorph
Morph
p215
(dp216
g62
(lp217
Vi
aVp
asbssg94
(lp218
(imorph
Morph
p219
(dp220
g62
(lp221
V\u0259
asba(imorph
Morph
p222
(dp223
g62
(lp224
Vk
aVo
asbasbF654.62110304832458
tp225
asS'finalFrontier'
p226
g8
(csolution
Frontier
p227
g10
NtRp228
(dp229
g58
g157
sg94
g218
sg67
(dp230
((imorph
Morph
(dp231
g62
(lp232
Vi
aVk
aV\u0259
asb(imorph
Morph
(dp233
g62
(lp234
Vi
aVk
aVk
aVo
asbtp235
(imorph
Morph
p236
(dp237
g62
(lp238
Vi
aVk
asbs((imorph
Morph
(dp239
g62
(lp240
Vk
aVu
aVp
aV\u0259
asb(imorph
Morph
(dp241
g62
(lp242
Vk
aVu
aVp
aVk
aVo
asbtp243
(imorph
Morph
p244
(dp245
g62
(lp246
Vk
aVu
aVp
asbs((imorph
Morph
(dp247
g62
(lp248
Vt
aVa
aVk
aVa
asb(imorph
Morph
(dp249
g62
(lp250
Vt
aVa
aVk
aVk
aVo
asbtp251
(imorph
Morph
p252
(dp253
g62
(lp254
Vt
aVa
aVk
asbs((imorph
Morph
(dp255
g62
(lp256
Vs
aV\u0259
aVk
aV\u0259
asb(imorph
Morph
(dp257
g62
(lp258
Vs
aV\u0259
aVk
aVk
aVo
asbtp259
(imorph
Morph
p260
(dp261
g62
(lp262
Vs
aV\u0259
aVk
asbs((imorph
Morph
(dp263
g62
(lp264
Vp
aVu
aVt^h
p265
aV\u0259
asb(imorph
Morph
(dp266
g62
(lp267
Vp
aVu
aVt
aVk
aVo
asbtp268
(imorph
Morph
p269
(dp270
g62
(lp271
Vp
aVu
aVt^h
p272
asbs((imorph
Morph
(dp273
g62
(lp274
Vk
aVa
aVp^h
p275
aVa
asb(imorph
Morph
(dp276
g62
(lp277
Vk
aVa
aVp
aVk
aVo
asbtp278
(imorph
Morph
p279
(dp280
g62
(lp281
Vk
aVa
aVp^h
p282
asbs((imorph
Morph
(dp283
g62
(lp284
Vc
aVi
aVp^h
p285
aV\u0259
asb(imorph
Morph
(dp286
g62
(lp287
Vc
aVi
aVp
aVk
aVo
asbtp288
(imorph
Morph
p289
(dp290
g62
(lp291
Vc
aVi
ag282
asbs((imorph
Morph
(dp292
g62
(lp293
Vm
aV\u0259
aVk
aV\u0259
asb(imorph
Morph
(dp294
g62
(lp295
Vm
aV\u0259
aVk
aVk
aVo
asbtp296
(imorph
Morph
p297
(dp298
g62
(lp299
Vm
aV\u0259
aVk
asbs((imorph
Morph
(dp300
g62
(lp301
Vc\u030c
p302
aVu
aVk
aV\u0259
asb(imorph
Morph
(dp303
g62
(lp304
Vc\u030c
p305
aVu
aVk
aVk
aVo
asbtp306
(imorph
Morph
p307
(dp308
g62
(lp309
Vc\u030c
p310
aVu
aVk
asbs((imorph
Morph
(dp311
g62
(lp312
Vt
aVa
aVt
aVa
asb(imorph
Morph
(dp313
g62
(lp314
Vt
aVa
aVt
aVk
aVo
asbtp315
(imorph
Morph
p316
(dp317
g62
(lp318
Vt
aVa
aVt
asbs((imorph
Morph
(dp319
g62
(lp320
Vk
aVa
aVk
aVa
asb(imorph
Morph
(dp321
g62
(lp322
Vk
aVa
aVk
aVk
aVo
asbtp323
(imorph
Morph
p324
(dp325
g62
(lp326
Vk
aVa
aVk
asbs((imorph
Morph
(dp327
g62
(lp328
Vi
aVp
aV\u0259
asb(imorph
Morph
(dp329
g62
(lp330
Vi
aVp
aVk
aVo
asbtp331
(imorph
Morph
p332
(dp333
g62
(lp334
Vi
aVp
asbssS'frontiers'
p335
(lp336
(lp337
(irule
Rule
p338
(dp339
g17
(irule
Guard
p340
(dp341
g20
I00
sg21
(lp342
sg36
I00
sg28
V
sg38
I00
sg39
S'L'
sbsg40
(irule
FeatureMatrix
p343
(dp344
g25
(lp345
(I00
S'aspirated'
tp346
asg28
V[ -aspirated ]
p347
sbsg48
(irule
Guard
p348
(dp349
g20
I00
sg21
(lp350
(irule
FeatureMatrix
p351
(dp352
g25
(lp353
(I00
S'voice'
tp354
asg28
V[ -voice ]
p355
sbasg36
I00
sg28
g355
sg38
I00
sg39
S'R'
sbsg52
(irule
FeatureMatrix
p356
(dp357
g25
(lp358
sg28
V[  ]
p359
sbsg28
V[  ] ---> [ -aspirated ] /  _ [ -voice ]
p360
sba(irule
Rule
p361
(dp362
g17
(irule
Guard
p363
(dp364
g20
I00
sg21
(lp365
sg36
I00
sg28
V
sg38
I00
sg39
S'L'
sbsg40
(irule
FeatureMatrix
p366
(dp367
g25
(lp368
(I00
S'aspirated'
p369
tp370
asg28
V[ -aspirated ]
p371
sbsg48
(irule
Guard
p372
(dp373
g20
I00
sg21
(lp374
(irule
FeatureMatrix
p375
(dp376
g25
(lp377
sg28
V[  ]
p378
sba(irule
FeatureMatrix
p379
(dp380
g25
(lp381
sg28
V[  ]
p382
sbasg36
I00
sg28
V[  ] [  ]
p383
sg38
I00
sg39
S'R'
sbsg52
(irule
FeatureMatrix
p384
(dp385
g25
(lp386
sg28
V[  ]
p387
sbsg28
V[  ] ---> [ -aspirated ] /  _ [  ] [  ]
p388
sba(irule
Rule
p389
(dp390
g17
(irule
Guard
p391
(dp392
g20
I00
sg21
(lp393
sg36
I00
sg28
V
sg38
I00
sg39
S'L'
sbsg40
(irule
FeatureMatrix
p394
(dp395
g25
(lp396
(I00
g369
tp397
asg28
V[ -aspirated ]
p398
sbsg48
(irule
Guard
p399
(dp400
g20
I00
sg21
(lp401
(irule
FeatureMatrix
p402
(dp403
g25
(lp404
(I01
S'high'
p405
tp406
asg28
V[ +high ]
p407
sbasg36
I00
sg28
g407
sg38
I00
sg39
S'R'
sbsg52
(irule
FeatureMatrix
p408
(dp409
g25
(lp410
sg28
V[  ]
p411
sbsg28
V[  ] ---> [ -aspirated ] /  _ [ +high ]
p412
sba(irule
Rule
p413
(dp414
g17
(irule
Guard
p415
(dp416
g20
I00
sg21
(lp417
sg36
I00
sg28
V
sg38
I00
sg39
S'L'
sbsg40
(irule
FeatureMatrix
p418
(dp419
g25
(lp420
(I00
g369
tp421
asg28
V[ -aspirated ]
p422
sbsg48
(irule
Guard
p423
(dp424
g20
I00
sg21
(lp425
(irule
FeatureMatrix
p426
(dp427
g25
(lp428
(I00
S'vowel'
p429
tp430
asg28
V[ -vowel ]
p431
sbasg36
I00
sg28
g431
sg38
I00
sg39
S'R'
sbsg52
(irule
FeatureMatrix
p432
(dp433
g25
(lp434
sg28
V[  ]
p435
sbsg28
V[  ] ---> [ -aspirated ] /  _ [ -vowel ]
p436
sba(irule
Rule
p437
(dp438
g17
(irule
Guard
p439
(dp440
g20
I00
sg21
(lp441
sg36
I00
sg28
V
sg38
I00
sg39
S'L'
sbsg40
(irule
FeatureMatrix
p442
(dp443
g25
(lp444
(I00
g369
tp445
asg28
V[ -aspirated ]
p446
sbsg48
(irule
Guard
p447
(dp448
g20
I00
sg21
(lp449
(irule
FeatureMatrix
p450
(dp451
g25
(lp452
(I00
S'continuant'
p453
tp454
asg28
V[ -continuant ]
p455
sbasg36
I00
sg28
g455
sg38
I00
sg39
S'R'
sbsg52
(irule
FeatureMatrix
p456
(dp457
g25
(lp458
sg28
V[  ]
p459
sbsg28
V[  ] ---> [ -aspirated ] /  _ [ -continuant ]
p460
sba(irule
Rule
p461
(dp462
g17
(irule
Guard
p463
(dp464
g20
I00
sg21
(lp465
sg36
I00
sg28
V
sg38
I00
sg39
S'L'
sbsg40
(irule
FeatureMatrix
p466
(dp467
g25
(lp468
(I00
g369
tp469
asg28
V[ -aspirated ]
p470
sbsg48
(irule
Guard
p471
(dp472
g20
I00
sg21
(lp473
(irule
FeatureMatrix
p474
(dp475
g25
(lp476
(I00
S'sonorant'
p477
tp478
asg28
V[ -sonorant ]
p479
sbasg36
I00
sg28
g479
sg38
I00
sg39
S'R'
sbsg52
(irule
FeatureMatrix
p480
(dp481
g25
(lp482
sg28
V[  ]
p483
sbsg28
V[  ] ---> [ -aspirated ] /  _ [ -sonorant ]
p484
sba(irule
Rule
p485
(dp486
g17
(irule
Guard
p487
(dp488
g20
I00
sg21
(lp489
sg36
I00
sg28
V
sg38
I00
sg39
S'L'
sbsg40
(irule
FeatureMatrix
p490
(dp491
g25
(lp492
(I00
g369
tp493
asg28
V[ -aspirated ]
p494
sbsg48
(irule
Guard
p495
(dp496
g20
I00
sg21
(lp497
(irule
ConstantPhoneme
p498
(dp499
S'p'
Vk
sbasg36
I00
sg28
Vk
sg38
I00
sg39
S'R'
sbsg52
(irule
FeatureMatrix
p500
(dp501
g25
(lp502
sg28
V[  ]
p503
sbsg28
V[  ] ---> [ -aspirated ] /  _ k
p504
sba(irule
Rule
p505
(dp506
g17
(irule
Guard
p507
(dp508
g20
I00
sg21
(lp509
sg36
I00
sg28
V
sg38
I00
sg39
S'L'
sbsg40
(irule
FeatureMatrix
p510
(dp511
g25
(lp512
(I00
S'nasal'
p513
tp514
a(I00
g369
tp515
asg28
V[ -aspirated -nasal ]
p516
sbsg48
(irule
Guard
p517
(dp518
g20
I00
sg21
(lp519
(irule
FeatureMatrix
p520
(dp521
g25
(lp522
(I00
g453
tp523
asg28
V[ -continuant ]
p524
sbasg36
I00
sg28
g524
sg38
I00
sg39
S'R'
sbsg52
(irule
FeatureMatrix
p525
(dp526
g25
(lp527
sg28
V[  ]
p528
sbsg28
V[  ] ---> [ -aspirated -nasal ] /  _ [ -continuant ]
p529
sba(irule
Rule
p530
(dp531
g17
(irule
Guard
p532
(dp533
g20
I00
sg21
(lp534
sg36
I00
sg28
V
sg38
I00
sg39
S'L'
sbsg40
(irule
FeatureMatrix
p535
(dp536
g25
(lp537
(I00
g369
tp538
a(I00
S'sibilant'
p539
tp540
asg28
V[ -aspirated -sibilant ]
p541
sbsg48
(irule
Guard
p542
(dp543
g20
I00
sg21
(lp544
(irule
FeatureMatrix
p545
(dp546
g25
(lp547
(I00
g453
tp548
asg28
V[ -continuant ]
p549
sbasg36
I00
sg28
g549
sg38
I00
sg39
S'R'
sbsg52
(irule
FeatureMatrix
p550
(dp551
g25
(lp552
sg28
V[  ]
p553
sbsg28
V[  ] ---> [ -aspirated -sibilant ] /  _ [ -continuant ]
p554
sba(irule
Rule
p555
(dp556
g17
(irule
Guard
p557
(dp558
g20
I00
sg21
(lp559
sg36
I00
sg28
V
sg38
I00
sg39
S'L'
sbsg40
(irule
FeatureMatrix
p560
(dp561
g25
(lp562
(I00
g369
tp563
asg28
V[ -aspirated ]
p564
sbsg48
(irule
Guard
p565
(dp566
g20
I00
sg21
(lp567
(irule
FeatureMatrix
p568
(dp569
g25
(lp570
sg28
V[  ]
p571
sba(irule
FeatureMatrix
p572
(dp573
g25
(lp574
(I00
S'low'
p575
tp576
asg28
V[ -low ]
p577
sbasg36
I00
sg28
V[  ] [ -low ]
p578
sg38
I00
sg39
S'R'
sbsg52
(irule
FeatureMatrix
p579
(dp580
g25
(lp581
sg28
V[  ]
p582
sbsg28
V[  ] ---> [ -aspirated ] /  _ [  ] [ -low ]
p583
sba(irule
Rule
p584
(dp585
g17
(irule
Guard
p586
(dp587
g20
I00
sg21
(lp588
(irule
FeatureMatrix
p589
(dp590
g25
(lp591
sg28
V[  ]
p592
sbasg36
I00
sg28
g592
sg38
I00
sg39
S'L'
sbsg40
(irule
FeatureMatrix
p593
(dp594
g25
(lp595
(I00
g369
tp596
asg28
V[ -aspirated ]
p597
sbsg48
(irule
Guard
p598
(dp599
g20
I00
sg21
(lp600
(irule
FeatureMatrix
p601
(dp602
g25
(lp603
sg28
V[  ]
p604
sba(irule
FeatureMatrix
p605
(dp606
g25
(lp607
sg28
V[  ]
p608
sbasg36
I00
sg28
V[  ] [  ]
p609
sg38
I00
sg39
S'R'
sbsg52
(irule
FeatureMatrix
p610
(dp611
g25
(lp612
sg28
V[  ]
p613
sbsg28
V[  ] ---> [ -aspirated ] / [  ] _ [  ] [  ]
p614
sba(irule
Rule
p615
(dp616
g17
(irule
Guard
p617
(dp618
g20
I00
sg21
(lp619
(irule
FeatureMatrix
p620
(dp621
g25
(lp622
sg28
V[  ]
p623
sbasg36
I00
sg28
g623
sg38
I00
sg39
S'L'
sbsg40
(irule
FeatureMatrix
p624
(dp625
g25
(lp626
(I00
g369
tp627
asg28
V[ -aspirated ]
p628
sbsg48
(irule
Guard
p629
(dp630
g20
I00
sg21
(lp631
(irule
FeatureMatrix
p632
(dp633
g25
(lp634
(I00
g429
tp635
asg28
V[ -vowel ]
p636
sbasg36
I00
sg28
g636
sg38
I00
sg39
S'R'
sbsg52
(irule
FeatureMatrix
p637
(dp638
g25
(lp639
sg28
V[  ]
p640
sbsg28
V[  ] ---> [ -aspirated ] / [  ] _ [ -vowel ]
p641
sba(irule
Rule
p642
(dp643
g17
(irule
Guard
p644
(dp645
g20
I00
sg21
(lp646
(irule
FeatureMatrix
p647
(dp648
g25
(lp649
sg28
V[  ]
p650
sbasg36
I00
sg28
g650
sg38
I00
sg39
S'L'
sbsg40
(irule
FeatureMatrix
p651
(dp652
g25
(lp653
(I00
g369
tp654
asg28
V[ -aspirated ]
p655
sbsg48
(irule
Guard
p656
(dp657
g20
I00
sg21
(lp658
(irule
FeatureMatrix
p659
(dp660
g25
(lp661
(I00
g477
tp662
asg28
V[ -sonorant ]
p663
sbasg36
I00
sg28
g663
sg38
I00
sg39
S'R'
sbsg52
(irule
FeatureMatrix
p664
(dp665
g25
(lp666
sg28
V[  ]
p667
sbsg28
V[  ] ---> [ -aspirated ] / [  ] _ [ -sonorant ]
p668
sba(irule
Rule
p669
(dp670
g17
(irule
Guard
p671
(dp672
g20
I00
sg21
(lp673
sg36
I00
sg28
V
sg38
I00
sg39
S'L'
sbsg40
(irule
FeatureMatrix
p674
(dp675
g25
(lp676
(I00
g369
tp677
asg28
V[ -aspirated ]
p678
sbsg48
(irule
Guard
p679
(dp680
g20
I00
sg21
(lp681
(irule
FeatureMatrix
p682
(dp683
g25
(lp684
sg28
V[  ]
p685
sba(irule
FeatureMatrix
p686
(dp687
g25
(lp688
sg28
V[  ]
p689
sbasg36
I00
sg28
V[  ] [  ]
p690
sg38
I00
sg39
S'R'
sbsg52
(irule
FeatureMatrix
p691
(dp692
g25
(lp693
(I00
g429
tp694
asg28
V[ -vowel ]
p695
sbsg28
V[ -vowel ] ---> [ -aspirated ] /  _ [  ] [  ]
p696
sba(irule
Rule
p697
(dp698
g17
(irule
Guard
p699
(dp700
g20
I00
sg21
(lp701
(irule
FeatureMatrix
p702
(dp703
g25
(lp704
sg28
V[  ]
p705
sbasg36
I00
sg28
g705
sg38
I00
sg39
S'L'
sbsg40
(irule
FeatureMatrix
p706
(dp707
g25
(lp708
(I00
g369
tp709
asg28
V[ -aspirated ]
p710
sbsg48
(irule
Guard
p711
(dp712
g20
I00
sg21
(lp713
(irule
FeatureMatrix
p714
(dp715
g25
(lp716
(I00
g453
tp717
asg28
V[ -continuant ]
p718
sbasg36
I00
sg28
g718
sg38
I00
sg39
S'R'
sbsg52
(irule
FeatureMatrix
p719
(dp720
g25
(lp721
sg28
V[  ]
p722
sbsg28
V[  ] ---> [ -aspirated ] / [  ] _ [ -continuant ]
p723
sba(irule
Rule
p724
(dp725
g17
(irule
Guard
p726
(dp727
g20
I00
sg21
(lp728
(irule
FeatureMatrix
p729
(dp730
g25
(lp731
sg28
V[  ]
p732
sbasg36
I00
sg28
g732
sg38
I00
sg39
S'L'
sbsg40
(irule
FeatureMatrix
p733
(dp734
g25
(lp735
(I00
g369
tp736
asg28
V[ -aspirated ]
p737
sbsg48
(irule
Guard
p738
(dp739
g20
I00
sg21
(lp740
(irule
FeatureMatrix
p741
(dp742
g25
(lp743
(I01
g405
tp744
asg28
V[ +high ]
p745
sbasg36
I00
sg28
g745
sg38
I00
sg39
S'R'
sbsg52
(irule
FeatureMatrix
p746
(dp747
g25
(lp748
sg28
V[  ]
p749
sbsg28
V[  ] ---> [ -aspirated ] / [  ] _ [ +high ]
p750
sba(irule
Rule
p751
(dp752
g17
(irule
Guard
p753
(dp754
g20
I00
sg21
(lp755
sg36
I00
sg28
V
sg38
I00
sg39
S'L'
sbsg40
(irule
FeatureMatrix
p756
(dp757
g25
(lp758
(I00
g369
tp759
asg28
V[ -aspirated ]
p760
sbsg48
(irule
Guard
p761
(dp762
g20
I00
sg21
(lp763
(irule
FeatureMatrix
p764
(dp765
g25
(lp766
sg28
V[  ]
p767
sba(irule
FeatureMatrix
p768
(dp769
g25
(lp770
sg28
V[  ]
p771
sbasg36
I00
sg28
V[  ] [  ]
p772
sg38
I00
sg39
S'R'
sbsg52
(irule
FeatureMatrix
p773
(dp774
g25
(lp775
(I00
S'tense'
p776
tp777
asg28
V[ -tense ]
p778
sbsg28
V[ -tense ] ---> [ -aspirated ] /  _ [  ] [  ]
p779
sba(irule
Rule
p780
(dp781
g17
(irule
Guard
p782
(dp783
g20
I00
sg21
(lp784
sg36
I00
sg28
V
sg38
I00
sg39
S'L'
sbsg40
(irule
FeatureMatrix
p785
(dp786
g25
(lp787
(I00
g369
tp788
asg28
V[ -aspirated ]
p789
sbsg48
(irule
Guard
p790
(dp791
g20
I00
sg21
(lp792
(irule
FeatureMatrix
p793
(dp794
g25
(lp795
(I00
g429
tp796
a(I00
g539
tp797
asg28
V[ -sibilant -vowel ]
p798
sbasg36
I00
sg28
g798
sg38
I00
sg39
S'R'
sbsg52
(irule
FeatureMatrix
p799
(dp800
g25
(lp801
sg28
V[  ]
p802
sbsg28
V[  ] ---> [ -aspirated ] /  _ [ -sibilant -vowel ]
p803
sba(irule
Rule
p804
(dp805
g17
(irule
Guard
p806
(dp807
g20
I00
sg21
(lp808
sg36
I00
sg28
V
sg38
I00
sg39
S'L'
sbsg40
(irule
FeatureMatrix
p809
(dp810
g25
(lp811
(I00
g369
tp812
asg28
V[ -aspirated ]
p813
sbsg48
(irule
Guard
p814
(dp815
g20
I00
sg21
(lp816
(irule
FeatureMatrix
p817
(dp818
g25
(lp819
sg28
V[  ]
p820
sba(irule
FeatureMatrix
p821
(dp822
g25
(lp823
sg28
V[  ]
p824
sbasg36
I00
sg28
V[  ] [  ]
p825
sg38
I00
sg39
S'R'
sbsg52
(irule
FeatureMatrix
p826
(dp827
g25
(lp828
(I00
g477
tp829
asg28
V[ -sonorant ]
p830
sbsg28
V[ -sonorant ] ---> [ -aspirated ] /  _ [  ] [  ]
p831
sba(irule
Rule
p832
(dp833
g17
(irule
Guard
p834
(dp835
g20
I00
sg21
(lp836
(irule
FeatureMatrix
p837
(dp838
g25
(lp839
sg28
V[  ]
p840
sbasg36
I00
sg28
g840
sg38
I00
sg39
S'L'
sbsg40
(irule
FeatureMatrix
p841
(dp842
g25
(lp843
(I00
g369
tp844
asg28
V[ -aspirated ]
p845
sbsg48
(irule
Guard
p846
(dp847
g20
I00
sg21
(lp848
(irule
FeatureMatrix
p849
(dp850
g25
(lp851
(I00
S'voice'
p852
tp853
asg28
V[ -voice ]
p854
sbasg36
I00
sg28
g854
sg38
I00
sg39
S'R'
sbsg52
(irule
FeatureMatrix
p855
(dp856
g25
(lp857
sg28
V[  ]
p858
sbsg28
V[  ] ---> [ -aspirated ] / [  ] _ [ -voice ]
p859
sba(irule
Rule
p860
(dp861
g17
(irule
Guard
p862
(dp863
g20
I00
sg21
(lp864
sg36
I00
sg28
V
sg38
I00
sg39
S'L'
sbsg40
(irule
FeatureMatrix
p865
(dp866
g25
(lp867
(I00
g369
tp868
asg28
V[ -aspirated ]
p869
sbsg48
(irule
Guard
p870
(dp871
g20
I00
sg21
(lp872
(irule
FeatureMatrix
p873
(dp874
g25
(lp875
sg28
V[  ]
p876
sba(irule
FeatureMatrix
p877
(dp878
g25
(lp879
(I01
g852
tp880
asg28
V[ +voice ]
p881
sbasg36
I00
sg28
V[  ] [ +voice ]
p882
sg38
I00
sg39
S'R'
sbsg52
(irule
FeatureMatrix
p883
(dp884
g25
(lp885
sg28
V[  ]
p886
sbsg28
V[  ] ---> [ -aspirated ] /  _ [  ] [ +voice ]
p887
sba(irule
Rule
p888
(dp889
g17
(irule
Guard
p890
(dp891
g20
I00
sg21
(lp892
(irule
FeatureMatrix
p893
(dp894
g25
(lp895
sg28
V[  ]
p896
sbasg36
I00
sg28
g896
sg38
I00
sg39
S'L'
sbsg40
(irule
FeatureMatrix
p897
(dp898
g25
(lp899
(I00
g369
tp900
asg28
V[ -aspirated ]
p901
sbsg48
(irule
Guard
p902
(dp903
g20
I00
sg21
(lp904
(irule
ConstantPhoneme
p905
(dp906
S'p'
Vk
sbasg36
I00
sg28
Vk
sg38
I00
sg39
S'R'
sbsg52
(irule
FeatureMatrix
p907
(dp908
g25
(lp909
sg28
V[  ]
p910
sbsg28
V[  ] ---> [ -aspirated ] / [  ] _ k
p911
sba(irule
Rule
p912
(dp913
g17
(irule
Guard
p914
(dp915
g20
I00
sg21
(lp916
sg36
I00
sg28
V
sg38
I00
sg39
S'L'
sbsg40
(irule
FeatureMatrix
p917
(dp918
g25
(lp919
(I00
g369
tp920
asg28
V[ -aspirated ]
p921
sbsg48
(irule
Guard
p922
(dp923
g20
I00
sg21
(lp924
(irule
FeatureMatrix
p925
(dp926
g25
(lp927
sg28
V[  ]
p928
sba(irule
FeatureMatrix
p929
(dp930
g25
(lp931
(I00
g539
tp932
asg28
V[ -sibilant ]
p933
sbasg36
I00
sg28
V[  ] [ -sibilant ]
p934
sg38
I00
sg39
S'R'
sbsg52
(irule
FeatureMatrix
p935
(dp936
g25
(lp937
sg28
V[  ]
p938
sbsg28
V[  ] ---> [ -aspirated ] /  _ [  ] [ -sibilant ]
p939
sba(irule
Rule
p940
(dp941
g17
(irule
Guard
p942
(dp943
g20
I00
sg21
(lp944
sg36
I00
sg28
V
sg38
I00
sg39
S'L'
sbsg40
(irule
FeatureMatrix
p945
(dp946
g25
(lp947
(I00
S'palatal'
p948
tp949
a(I00
g369
tp950
asg28
V[ -aspirated -palatal ]
p951
sbsg48
(irule
Guard
p952
(dp953
g20
I00
sg21
(lp954
(irule
FeatureMatrix
p955
(dp956
g25
(lp957
(I00
g852
tp958
asg28
V[ -voice ]
p959
sbasg36
I00
sg28
g959
sg38
I00
sg39
S'R'
sbsg52
(irule
FeatureMatrix
p960
(dp961
g25
(lp962
sg28
V[  ]
p963
sbsg28
V[  ] ---> [ -aspirated -palatal ] /  _ [ -voice ]
p964
sba(irule
Rule
p965
(dp966
g17
(irule
Guard
p967
(dp968
g20
I00
sg21
(lp969
sg36
I00
sg28
V
sg38
I00
sg39
S'L'
sbsg40
(irule
FeatureMatrix
p970
(dp971
g25
(lp972
(I00
g948
tp973
a(I00
g369
tp974
asg28
V[ -aspirated -palatal ]
p975
sbsg48
(irule
Guard
p976
(dp977
g20
I00
sg21
(lp978
(irule
FeatureMatrix
p979
(dp980
g25
(lp981
(I00
g477
tp982
asg28
V[ -sonorant ]
p983
sbasg36
I00
sg28
g983
sg38
I00
sg39
S'R'
sbsg52
(irule
FeatureMatrix
p984
(dp985
g25
(lp986
sg28
V[  ]
p987
sbsg28
V[  ] ---> [ -aspirated -palatal ] /  _ [ -sonorant ]
p988
sba(irule
Rule
p989
(dp990
g17
(irule
Guard
p991
(dp992
g20
I00
sg21
(lp993
sg36
I00
sg28
V
sg38
I00
sg39
S'L'
sbsg40
(irule
FeatureMatrix
p994
(dp995
g25
(lp996
(I00
g369
tp997
asg28
V[ -aspirated ]
p998
sbsg48
(irule
Guard
p999
(dp1000
g20
I00
sg21
(lp1001
(irule
FeatureMatrix
p1002
(dp1003
g25
(lp1004
sg28
V[  ]
p1005
sba(irule
ConstantPhoneme
p1006
(dp1007
S'p'
Vo
sbasg36
I00
sg28
V[  ] o
p1008
sg38
I00
sg39
S'R'
sbsg52
(irule
FeatureMatrix
p1009
(dp1010
g25
(lp1011
sg28
V[  ]
p1012
sbsg28
V[  ] ---> [ -aspirated ] /  _ [  ] o
p1013
sba(irule
Rule
p1014
(dp1015
g17
(irule
Guard
p1016
(dp1017
g20
I00
sg21
(lp1018
sg36
I00
sg28
V
sg38
I00
sg39
S'L'
sbsg40
(irule
FeatureMatrix
p1019
(dp1020
g25
(lp1021
(I00
g369
tp1022
asg28
V[ -aspirated ]
p1023
sbsg48
(irule
Guard
p1024
(dp1025
g20
I00
sg21
(lp1026
(irule
FeatureMatrix
p1027
(dp1028
g25
(lp1029
sg28
V[  ]
p1030
sba(irule
FeatureMatrix
p1031
(dp1032
g25
(lp1033
sg28
V[  ]
p1034
sbasg36
I00
sg28
V[  ] [  ]
p1035
sg38
I00
sg39
S'R'
sbsg52
(irule
FeatureMatrix
p1036
(dp1037
g25
(lp1038
(I00
g539
tp1039
asg28
V[ -sibilant ]
p1040
sbsg28
V[ -sibilant ] ---> [ -aspirated ] /  _ [  ] [  ]
p1041
sba(irule
Rule
p1042
(dp1043
g17
(irule
Guard
p1044
(dp1045
g20
I00
sg21
(lp1046
sg36
I00
sg28
V
sg38
I00
sg39
S'L'
sbsg40
(irule
FeatureMatrix
p1047
(dp1048
g25
(lp1049
(I00
g369
tp1050
asg28
V[ -aspirated ]
p1051
sbsg48
(irule
Guard
p1052
(dp1053
g20
I00
sg21
(lp1054
(irule
FeatureMatrix
p1055
(dp1056
g25
(lp1057
sg28
V[  ]
p1058
sba(irule
FeatureMatrix
p1059
(dp1060
g25
(lp1061
(I00
S'coronal'
p1062
tp1063
asg28
V[ -coronal ]
p1064
sbasg36
I00
sg28
V[  ] [ -coronal ]
p1065
sg38
I00
sg39
S'R'
sbsg52
(irule
FeatureMatrix
p1066
(dp1067
g25
(lp1068
sg28
V[  ]
p1069
sbsg28
V[  ] ---> [ -aspirated ] /  _ [  ] [ -coronal ]
p1070
sba(irule
Rule
p1071
(dp1072
g17
(irule
Guard
p1073
(dp1074
g20
I00
sg21
(lp1075
sg36
I00
sg28
V
sg38
I00
sg39
S'L'
sbsg40
(irule
FeatureMatrix
p1076
(dp1077
g25
(lp1078
(I00
g369
tp1079
asg28
V[ -aspirated ]
p1080
sbsg48
(irule
Guard
p1081
(dp1082
g20
I00
sg21
(lp1083
(irule
FeatureMatrix
p1084
(dp1085
g25
(lp1086
sg28
V[  ]
p1087
sba(irule
FeatureMatrix
p1088
(dp1089
g25
(lp1090
sg28
V[  ]
p1091
sbasg36
I00
sg28
V[  ] [  ]
p1092
sg38
I00
sg39
S'R'
sbsg52
(irule
FeatureMatrix
p1093
(dp1094
g25
(lp1095
(I00
g852
tp1096
asg28
V[ -voice ]
p1097
sbsg28
V[ -voice ] ---> [ -aspirated ] /  _ [  ] [  ]
p1098
sba(irule
Rule
p1099
(dp1100
g17
(irule
Guard
p1101
(dp1102
g20
I00
sg21
(lp1103
sg36
I00
sg28
V
sg38
I00
sg39
S'L'
sbsg40
(irule
FeatureMatrix
p1104
(dp1105
g25
(lp1106
(I00
g369
tp1107
asg28
V[ -aspirated ]
p1108
sbsg48
(irule
Guard
p1109
(dp1110
g20
I00
sg21
(lp1111
(irule
FeatureMatrix
p1112
(dp1113
g25
(lp1114
sg28
V[  ]
p1115
sba(irule
FeatureMatrix
p1116
(dp1117
g25
(lp1118
(I01
g429
tp1119
asg28
V[ +vowel ]
p1120
sbasg36
I00
sg28
V[  ] [ +vowel ]
p1121
sg38
I00
sg39
S'R'
sbsg52
(irule
FeatureMatrix
p1122
(dp1123
g25
(lp1124
sg28
V[  ]
p1125
sbsg28
V[  ] ---> [ -aspirated ] /  _ [  ] [ +vowel ]
p1126
sba(irule
Rule
p1127
(dp1128
g17
(irule
Guard
p1129
(dp1130
g20
I00
sg21
(lp1131
sg36
I00
sg28
V
sg38
I00
sg39
S'L'
sbsg40
(irule
FeatureMatrix
p1132
(dp1133
g25
(lp1134
(I00
g369
tp1135
asg28
V[ -aspirated ]
p1136
sbsg48
(irule
Guard
p1137
(dp1138
g20
I00
sg21
(lp1139
(irule
FeatureMatrix
p1140
(dp1141
g25
(lp1142
sg28
V[  ]
p1143
sba(irule
FeatureMatrix
p1144
(dp1145
g25
(lp1146
(I01
g776
tp1147
asg28
V[ +tense ]
p1148
sbasg36
I00
sg28
V[  ] [ +tense ]
p1149
sg38
I00
sg39
S'R'
sbsg52
(irule
FeatureMatrix
p1150
(dp1151
g25
(lp1152
sg28
V[  ]
p1153
sbsg28
V[  ] ---> [ -aspirated ] /  _ [  ] [ +tense ]
p1154
sba(irule
Rule
p1155
(dp1156
g17
(irule
Guard
p1157
(dp1158
g20
I00
sg21
(lp1159
sg36
I00
sg28
V
sg38
I00
sg39
S'L'
sbsg40
(irule
FeatureMatrix
p1160
(dp1161
g25
(lp1162
(I00
g369
tp1163
asg28
V[ -aspirated ]
p1164
sbsg48
(irule
Guard
p1165
(dp1166
g20
I00
sg21
(lp1167
(irule
FeatureMatrix
p1168
(dp1169
g25
(lp1170
sg28
V[  ]
p1171
sba(irule
FeatureMatrix
p1172
(dp1173
g25
(lp1174
(I00
g369
tp1175
asg28
V[ -aspirated ]
p1176
sbasg36
I00
sg28
V[  ] [ -aspirated ]
p1177
sg38
I00
sg39
S'R'
sbsg52
(irule
FeatureMatrix
p1178
(dp1179
g25
(lp1180
sg28
V[  ]
p1181
sbsg28
V[  ] ---> [ -aspirated ] /  _ [  ] [ -aspirated ]
p1182
sba(irule
Rule
p1183
(dp1184
g17
(irule
Guard
p1185
(dp1186
g20
I00
sg21
(lp1187
sg36
I00
sg28
V
sg38
I00
sg39
S'L'
sbsg40
(irule
FeatureMatrix
p1188
(dp1189
g25
(lp1190
(I00
g369
tp1191
asg28
V[ -aspirated ]
p1192
sbsg48
(irule
Guard
p1193
(dp1194
g20
I00
sg21
(lp1195
(irule
FeatureMatrix
p1196
(dp1197
g25
(lp1198
sg28
V[  ]
p1199
sba(irule
FeatureMatrix
p1200
(dp1201
g25
(lp1202
sg28
V[  ]
p1203
sbasg36
I00
sg28
V[  ] [  ]
p1204
sg38
I00
sg39
S'R'
sbsg52
(irule
FeatureMatrix
p1205
(dp1206
g25
(lp1207
(I00
g405
tp1208
asg28
V[ -high ]
p1209
sbsg28
V[ -high ] ---> [ -aspirated ] /  _ [  ] [  ]
p1210
sba(irule
Rule
p1211
(dp1212
g17
(irule
Guard
p1213
(dp1214
g20
I00
sg21
(lp1215
sg36
I00
sg28
V
sg38
I00
sg39
S'L'
sbsg40
(irule
FeatureMatrix
p1216
(dp1217
g25
(lp1218
(I00
g369
tp1219
asg28
V[ -aspirated ]
p1220
sbsg48
(irule
Guard
p1221
(dp1222
g20
I00
sg21
(lp1223
(irule
FeatureMatrix
p1224
(dp1225
g25
(lp1226
(I01
g405
tp1227
asg28
V[ +high ]
p1228
sbasg36
I00
sg28
g1228
sg38
I00
sg39
S'R'
sbsg52
(irule
FeatureMatrix
p1229
(dp1230
g25
(lp1231
(I01
g369
tp1232
asg28
V[ +aspirated ]
p1233
sbsg28
V[ +aspirated ] ---> [ -aspirated ] /  _ [ +high ]
p1234
sba(irule
Rule
p1235
(dp1236
g17
(irule
Guard
p1237
(dp1238
g20
I00
sg21
(lp1239
sg36
I00
sg28
V
sg38
I00
sg39
S'L'
sbsg40
(irule
FeatureMatrix
p1240
(dp1241
g25
(lp1242
(I00
g369
tp1243
asg28
V[ -aspirated ]
p1244
sbsg48
(irule
Guard
p1245
(dp1246
g20
I00
sg21
(lp1247
(irule
FeatureMatrix
p1248
(dp1249
g25
(lp1250
sg28
V[  ]
p1251
sba(irule
FeatureMatrix
p1252
(dp1253
g25
(lp1254
sg28
V[  ]
p1255
sbasg36
I00
sg28
V[  ] [  ]
p1256
sg38
I00
sg39
S'R'
sbsg52
(irule
FeatureMatrix
p1257
(dp1258
g25
(lp1259
(I01
g369
tp1260
asg28
V[ +aspirated ]
p1261
sbsg28
V[ +aspirated ] ---> [ -aspirated ] /  _ [  ] [  ]
p1262
sba(irule
Rule
p1263
(dp1264
g17
(irule
Guard
p1265
(dp1266
g20
I00
sg21
(lp1267
sg36
I00
sg28
V
sg38
I00
sg39
S'L'
sbsg40
(irule
FeatureMatrix
p1268
(dp1269
g25
(lp1270
(I00
g369
tp1271
asg28
V[ -aspirated ]
p1272
sbsg48
(irule
Guard
p1273
(dp1274
g20
I00
sg21
(lp1275
(irule
FeatureMatrix
p1276
(dp1277
g25
(lp1278
sg28
V[  ]
p1279
sba(irule
FeatureMatrix
p1280
(dp1281
g25
(lp1282
sg28
V[  ]
p1283
sbasg36
I00
sg28
V[  ] [  ]
p1284
sg38
I00
sg39
S'R'
sbsg52
(irule
FeatureMatrix
p1285
(dp1286
g25
(lp1287
(I00
g575
tp1288
asg28
V[ -low ]
p1289
sbsg28
V[ -low ] ---> [ -aspirated ] /  _ [  ] [  ]
p1290
sba(irule
Rule
p1291
(dp1292
g17
(irule
Guard
p1293
(dp1294
g20
I00
sg21
(lp1295
sg36
I00
sg28
V
sg38
I00
sg39
S'L'
sbsg40
(irule
FeatureMatrix
p1296
(dp1297
g25
(lp1298
(I00
g369
tp1299
asg28
V[ -aspirated ]
p1300
sbsg48
(irule
Guard
p1301
(dp1302
g20
I00
sg21
(lp1303
(irule
ConstantPhoneme
p1304
(dp1305
S'p'
Vk
sbasg36
I00
sg28
Vk
sg38
I00
sg39
S'R'
sbsg52
(irule
FeatureMatrix
p1306
(dp1307
g25
(lp1308
(I00
g948
tp1309
asg28
V[ -palatal ]
p1310
sbsg28
V[ -palatal ] ---> [ -aspirated ] /  _ k
p1311
sba(irule
Rule
p1312
(dp1313
g17
(irule
Guard
p1314
(dp1315
g20
I00
sg21
(lp1316
sg36
I00
sg28
V
sg38
I00
sg39
S'L'
sbsg40
(irule
FeatureMatrix
p1317
(dp1318
g25
(lp1319
(I00
g369
tp1320
asg28
V[ -aspirated ]
p1321
sbsg48
(irule
Guard
p1322
(dp1323
g20
I00
sg21
(lp1324
(irule
FeatureMatrix
p1325
(dp1326
g25
(lp1327
sg28
V[  ]
p1328
sba(irule
FeatureMatrix
p1329
(dp1330
g25
(lp1331
(I00
g513
tp1332
asg28
V[ -nasal ]
p1333
sbasg36
I00
sg28
V[  ] [ -nasal ]
p1334
sg38
I00
sg39
S'R'
sbsg52
(irule
FeatureMatrix
p1335
(dp1336
g25
(lp1337
sg28
V[  ]
p1338
sbsg28
V[  ] ---> [ -aspirated ] /  _ [  ] [ -nasal ]
p1339
sba(irule
Rule
p1340
(dp1341
g17
(irule
Guard
p1342
(dp1343
g20
I00
sg21
(lp1344
sg36
I00
sg28
V
sg38
I00
sg39
S'L'
sbsg40
(irule
FeatureMatrix
p1345
(dp1346
g25
(lp1347
(I00
g369
tp1348
asg28
V[ -aspirated ]
p1349
sbsg48
(irule
Guard
p1350
(dp1351
g20
I00
sg21
(lp1352
(irule
FeatureMatrix
p1353
(dp1354
g25
(lp1355
(I00
g453
tp1356
a(I00
g539
tp1357
asg28
V[ -continuant -sibilant ]
p1358
sbasg36
I00
sg28
g1358
sg38
I00
sg39
S'R'
sbsg52
(irule
FeatureMatrix
p1359
(dp1360
g25
(lp1361
sg28
V[  ]
p1362
sbsg28
V[  ] ---> [ -aspirated ] /  _ [ -continuant -sibilant ]
p1363
sba(irule
Rule
p1364
(dp1365
g17
(irule
Guard
p1366
(dp1367
g20
I00
sg21
(lp1368
sg36
I00
sg28
V
sg38
I00
sg39
S'L'
sbsg40
(irule
FeatureMatrix
p1369
(dp1370
g25
(lp1371
(I00
g513
tp1372
a(I00
g369
tp1373
asg28
V[ -aspirated -nasal ]
p1374
sbsg48
(irule
Guard
p1375
(dp1376
g20
I00
sg21
(lp1377
(irule
FeatureMatrix
p1378
(dp1379
g25
(lp1380
(I01
g405
tp1381
asg28
V[ +high ]
p1382
sbasg36
I00
sg28
g1382
sg38
I00
sg39
S'R'
sbsg52
(irule
FeatureMatrix
p1383
(dp1384
g25
(lp1385
sg28
V[  ]
p1386
sbsg28
V[  ] ---> [ -aspirated -nasal ] /  _ [ +high ]
p1387
sba(irule
Rule
p1388
(dp1389
g17
(irule
Guard
p1390
(dp1391
g20
I00
sg21
(lp1392
sg36
I00
sg28
V
sg38
I00
sg39
S'L'
sbsg40
(irule
FeatureMatrix
p1393
(dp1394
g25
(lp1395
(I00
g369
tp1396
asg28
V[ -aspirated ]
p1397
sbsg48
(irule
Guard
p1398
(dp1399
g20
I01
sg21
(lp1400
(irule
FeatureMatrix
p1401
(dp1402
g25
(lp1403
sg28
V[  ]
p1404
sba(irule
FeatureMatrix
p1405
(dp1406
g25
(lp1407
sg28
V[  ]
p1408
sbasg36
I00
sg28
V[  ] [  ] #
p1409
sg38
I00
sg39
S'R'
sbsg52
(irule
FeatureMatrix
p1410
(dp1411
g25
(lp1412
sg28
V[  ]
p1413
sbsg28
V[  ] ---> [ -aspirated ] /  _ [  ] [  ] #
p1414
sba(irule
Rule
p1415
(dp1416
g17
(irule
Guard
p1417
(dp1418
g20
I00
sg21
(lp1419
sg36
I00
sg28
V
sg38
I00
sg39
S'L'
sbsg40
(irule
FeatureMatrix
p1420
(dp1421
g25
(lp1422
(I00
g369
tp1423
asg28
V[ -aspirated ]
p1424
sbsg48
(irule
Guard
p1425
(dp1426
g20
I00
sg21
(lp1427
(irule
FeatureMatrix
p1428
(dp1429
g25
(lp1430
sg28
V[  ]
p1431
sba(irule
FeatureMatrix
p1432
(dp1433
g25
(lp1434
sg28
V[  ]
p1435
sbasg36
I00
sg28
V[  ] [  ]
p1436
sg38
I00
sg39
S'R'
sbsg52
(irule
FeatureMatrix
p1437
(dp1438
g25
(lp1439
(I00
g453
tp1440
asg28
V[ -continuant ]
p1441
sbsg28
V[ -continuant ] ---> [ -aspirated ] /  _ [  ] [  ]
p1442
sba(irule
Rule
p1443
(dp1444
g17
(irule
Guard
p1445
(dp1446
g20
I00
sg21
(lp1447
sg36
I00
sg28
V
sg38
I00
sg39
S'L'
sbsg40
(irule
FeatureMatrix
p1448
(dp1449
g25
(lp1450
(I00
g369
tp1451
asg28
V[ -aspirated ]
p1452
sbsg48
(irule
Guard
p1453
(dp1454
g20
I00
sg21
(lp1455
(irule
FeatureMatrix
p1456
(dp1457
g25
(lp1458
sg28
V[  ]
p1459
sba(irule
FeatureMatrix
p1460
(dp1461
g25
(lp1462
(I00
g948
tp1463
asg28
V[ -palatal ]
p1464
sbasg36
I00
sg28
V[  ] [ -palatal ]
p1465
sg38
I00
sg39
S'R'
sbsg52
(irule
FeatureMatrix
p1466
(dp1467
g25
(lp1468
sg28
V[  ]
p1469
sbsg28
V[  ] ---> [ -aspirated ] /  _ [  ] [ -palatal ]
p1470
sba(irule
Rule
p1471
(dp1472
g17
(irule
Guard
p1473
(dp1474
g20
I00
sg21
(lp1475
sg36
I00
sg28
V
sg38
I00
sg39
S'L'
sbsg40
(irule
FeatureMatrix
p1476
(dp1477
g25
(lp1478
(I00
g369
tp1479
asg28
V[ -aspirated ]
p1480
sbsg48
(irule
Guard
p1481
(dp1482
g20
I00
sg21
(lp1483
(irule
FeatureMatrix
p1484
(dp1485
g25
(lp1486
sg28
V[  ]
p1487
sba(irule
FeatureMatrix
p1488
(dp1489
g25
(lp1490
(I00
g405
tp1491
asg28
V[ -high ]
p1492
sbasg36
I00
sg28
V[  ] [ -high ]
p1493
sg38
I00
sg39
S'R'
sbsg52
(irule
FeatureMatrix
p1494
(dp1495
g25
(lp1496
sg28
V[  ]
p1497
sbsg28
V[  ] ---> [ -aspirated ] /  _ [  ] [ -high ]
p1498
sba(irule
Rule
p1499
(dp1500
g17
(irule
Guard
p1501
(dp1502
g20
I00
sg21
(lp1503
sg36
I00
sg28
V
sg38
I00
sg39
S'L'
sbsg40
(irule
FeatureMatrix
p1504
(dp1505
g25
(lp1506
(I00
g369
tp1507
asg28
V[ -aspirated ]
p1508
sbsg48
(irule
Guard
p1509
(dp1510
g20
I00
sg21
(lp1511
(irule
FeatureMatrix
p1512
(dp1513
g25
(lp1514
sg28
V[  ]
p1515
sba(irule
FeatureMatrix
p1516
(dp1517
g25
(lp1518
(I01
S'back'
p1519
tp1520
asg28
V[ +back ]
p1521
sbasg36
I00
sg28
V[  ] [ +back ]
p1522
sg38
I00
sg39
S'R'
sbsg52
(irule
FeatureMatrix
p1523
(dp1524
g25
(lp1525
sg28
V[  ]
p1526
sbsg28
V[  ] ---> [ -aspirated ] /  _ [  ] [ +back ]
p1527
sba(irule
Rule
p1528
(dp1529
g17
(irule
Guard
p1530
(dp1531
g20
I00
sg21
(lp1532
sg36
I00
sg28
V
sg38
I00
sg39
S'L'
sbsg40
(irule
FeatureMatrix
p1533
(dp1534
g25
(lp1535
(I00
g369
tp1536
asg28
V[ -aspirated ]
p1537
sbsg48
(irule
Guard
p1538
(dp1539
g20
I00
sg21
(lp1540
(irule
FeatureMatrix
p1541
(dp1542
g25
(lp1543
sg28
V[  ]
p1544
sba(irule
FeatureMatrix
p1545
(dp1546
g25
(lp1547
sg28
V[  ]
p1548
sbasg36
I00
sg28
V[  ] [  ]
p1549
sg38
I00
sg39
S'R'
sbsg52
(irule
FeatureMatrix
p1550
(dp1551
g25
(lp1552
(I00
g513
tp1553
asg28
V[ -nasal ]
p1554
sbsg28
V[ -nasal ] ---> [ -aspirated ] /  _ [  ] [  ]
p1555
sba(irule
Rule
p1556
(dp1557
g17
(irule
Guard
p1558
(dp1559
g20
I00
sg21
(lp1560
sg36
I00
sg28
V
sg38
I00
sg39
S'L'
sbsg40
(irule
FeatureMatrix
p1561
(dp1562
g25
(lp1563
(I00
g369
tp1564
asg28
V[ -aspirated ]
p1565
sbsg48
(irule
Guard
p1566
(dp1567
g20
I00
sg21
(lp1568
(irule
FeatureMatrix
p1569
(dp1570
g25
(lp1571
(I00
g429
tp1572
asg28
V[ -vowel ]
p1573
sbasg36
I00
sg28
g1573
sg38
I00
sg39
S'R'
sbsg52
(irule
FeatureMatrix
p1574
(dp1575
g25
(lp1576
(I00
g852
tp1577
asg28
V[ -voice ]
p1578
sbsg28
V[ -voice ] ---> [ -aspirated ] /  _ [ -vowel ]
p1579
sba(irule
Rule
p1580
(dp1581
g17
(irule
Guard
p1582
(dp1583
g20
I00
sg21
(lp1584
sg36
I00
sg28
V
sg38
I00
sg39
S'L'
sbsg40
(irule
FeatureMatrix
p1585
(dp1586
g25
(lp1587
(I00
g369
tp1588
asg28
V[ -aspirated ]
p1589
sbsg48
(irule
Guard
p1590
(dp1591
g20
I00
sg21
(lp1592
(irule
FeatureMatrix
p1593
(dp1594
g25
(lp1595
sg28
V[  ]
p1596
sba(irule
FeatureMatrix
p1597
(dp1598
g25
(lp1599
(I01
g477
tp1600
asg28
V[ +sonorant ]
p1601
sbasg36
I00
sg28
V[  ] [ +sonorant ]
p1602
sg38
I00
sg39
S'R'
sbsg52
(irule
FeatureMatrix
p1603
(dp1604
g25
(lp1605
sg28
V[  ]
p1606
sbsg28
V[  ] ---> [ -aspirated ] /  _ [  ] [ +sonorant ]
p1607
sba(irule
Rule
p1608
(dp1609
g17
(irule
Guard
p1610
(dp1611
g20
I00
sg21
(lp1612
sg36
I00
sg28
V
sg38
I00
sg39
S'L'
sbsg40
(irule
FeatureMatrix
p1613
(dp1614
g25
(lp1615
(I00
g369
tp1616
asg28
V[ -aspirated ]
p1617
sbsg48
(irule
Guard
p1618
(dp1619
g20
I00
sg21
(lp1620
(irule
FeatureMatrix
p1621
(dp1622
g25
(lp1623
(I01
g405
tp1624
asg28
V[ +high ]
p1625
sbasg36
I00
sg28
g1625
sg38
I00
sg39
S'R'
sbsg52
(irule
FeatureMatrix
p1626
(dp1627
g25
(lp1628
(I00
g852
tp1629
asg28
V[ -voice ]
p1630
sbsg28
V[ -voice ] ---> [ -aspirated ] /  _ [ +high ]
p1631
sba(irule
Rule
p1632
(dp1633
g17
(irule
Guard
p1634
(dp1635
g20
I00
sg21
(lp1636
sg36
I00
sg28
V
sg38
I00
sg39
S'L'
sbsg40
(irule
FeatureMatrix
p1637
(dp1638
g25
(lp1639
(I00
g369
tp1640
asg28
V[ -aspirated ]
p1641
sbsg48
(irule
Guard
p1642
(dp1643
g20
I00
sg21
(lp1644
(irule
FeatureMatrix
p1645
(dp1646
g25
(lp1647
(I00
g1062
tp1648
asg28
V[ -coronal ]
p1649
sba(irule
FeatureMatrix
p1650
(dp1651
g25
(lp1652
sg28
V[  ]
p1653
sbasg36
I00
sg28
V[ -coronal ] [  ]
p1654
sg38
I00
sg39
S'R'
sbsg52
(irule
FeatureMatrix
p1655
(dp1656
g25
(lp1657
sg28
V[  ]
p1658
sbsg28
V[  ] ---> [ -aspirated ] /  _ [ -coronal ] [  ]
p1659
sba(irule
Rule
p1660
(dp1661
g17
(irule
Guard
p1662
(dp1663
g20
I00
sg21
(lp1664
sg36
I00
sg28
V
sg38
I00
sg39
S'L'
sbsg40
(irule
FeatureMatrix
p1665
(dp1666
g25
(lp1667
(I00
g369
tp1668
asg28
V[ -aspirated ]
p1669
sbsg48
(irule
Guard
p1670
(dp1671
g20
I00
sg21
(lp1672
(irule
FeatureMatrix
p1673
(dp1674
g25
(lp1675
sg28
V[  ]
p1676
sba(irule
FeatureMatrix
p1677
(dp1678
g25
(lp1679
sg28
V[  ]
p1680
sbasg36
I00
sg28
V[  ] [  ]
p1681
sg38
I00
sg39
S'R'
sbsg52
(irule
FeatureMatrix
p1682
(dp1683
g25
(lp1684
(I00
g1519
tp1685
asg28
V[ -back ]
p1686
sbsg28
V[ -back ] ---> [ -aspirated ] /  _ [  ] [  ]
p1687
sba(irule
Rule
p1688
(dp1689
g17
(irule
Guard
p1690
(dp1691
g20
I00
sg21
(lp1692
sg36
I00
sg28
V
sg38
I00
sg39
S'L'
sbsg40
(irule
FeatureMatrix
p1693
(dp1694
g25
(lp1695
(I00
g369
tp1696
asg28
V[ -aspirated ]
p1697
sbsg48
(irule
Guard
p1698
(dp1699
g20
I00
sg21
(lp1700
(irule
FeatureMatrix
p1701
(dp1702
g25
(lp1703
(I00
g453
tp1704
asg28
V[ -continuant ]
p1705
sbasg36
I00
sg28
g1705
sg38
I00
sg39
S'R'
sbsg52
(irule
FeatureMatrix
p1706
(dp1707
g25
(lp1708
(I00
S'rounded'
p1709
tp1710
asg28
V[ -rounded ]
p1711
sbsg28
V[ -rounded ] ---> [ -aspirated ] /  _ [ -continuant ]
p1712
sba(irule
Rule
p1713
(dp1714
g17
(irule
Guard
p1715
(dp1716
g20
I00
sg21
(lp1717
sg36
I00
sg28
V
sg38
I00
sg39
S'L'
sbsg40
(irule
FeatureMatrix
p1718
(dp1719
g25
(lp1720
(I00
g369
tp1721
asg28
V[ -aspirated ]
p1722
sbsg48
(irule
Guard
p1723
(dp1724
g20
I00
sg21
(lp1725
(irule
FeatureMatrix
p1726
(dp1727
g25
(lp1728
(I00
g776
tp1729
asg28
V[ -tense ]
p1730
sba(irule
FeatureMatrix
p1731
(dp1732
g25
(lp1733
sg28
V[  ]
p1734
sbasg36
I00
sg28
V[ -tense ] [  ]
p1735
sg38
I00
sg39
S'R'
sbsg52
(irule
FeatureMatrix
p1736
(dp1737
g25
(lp1738
sg28
V[  ]
p1739
sbsg28
V[  ] ---> [ -aspirated ] /  _ [ -tense ] [  ]
p1740
sba(irule
Rule
p1741
(dp1742
g17
(irule
Guard
p1743
(dp1744
g20
I00
sg21
(lp1745
sg36
I00
sg28
V
sg38
I00
sg39
S'L'
sbsg40
(irule
FeatureMatrix
p1746
(dp1747
g25
(lp1748
(I00
g369
tp1749
asg28
V[ -aspirated ]
p1750
sbsg48
(irule
Guard
p1751
(dp1752
g20
I00
sg21
(lp1753
(irule
FeatureMatrix
p1754
(dp1755
g25
(lp1756
sg28
V[  ]
p1757
sba(irule
FeatureMatrix
p1758
(dp1759
g25
(lp1760
sg28
V[  ]
p1761
sbasg36
I00
sg28
V[  ] [  ]
p1762
sg38
I00
sg39
S'R'
sbsg52
(irule
FeatureMatrix
p1763
(dp1764
g25
(lp1765
(I01
S'anterior'
p1766
tp1767
asg28
V[ +anterior ]
p1768
sbsg28
V[ +anterior ] ---> [ -aspirated ] /  _ [  ] [  ]
p1769
sba(irule
Rule
p1770
(dp1771
g17
(irule
Guard
p1772
(dp1773
g20
I00
sg21
(lp1774
sg36
I00
sg28
V
sg38
I00
sg39
S'L'
sbsg40
(irule
FeatureMatrix
p1775
(dp1776
g25
(lp1777
(I00
g369
tp1778
asg28
V[ -aspirated ]
p1779
sbsg48
(irule
Guard
p1780
(dp1781
g20
I00
sg21
(lp1782
(irule
FeatureMatrix
p1783
(dp1784
g25
(lp1785
sg28
V[  ]
p1786
sba(irule
FeatureMatrix
p1787
(dp1788
g25
(lp1789
sg28
V[  ]
p1790
sbasg36
I00
sg28
V[  ] [  ]
p1791
sg38
I00
sg39
S'R'
sbsg52
(irule
FeatureMatrix
p1792
(dp1793
g25
(lp1794
(I00
g948
tp1795
asg28
V[ -palatal ]
p1796
sbsg28
V[ -palatal ] ---> [ -aspirated ] /  _ [  ] [  ]
p1797
sba(irule
Rule
p1798
(dp1799
g17
(irule
Guard
p1800
(dp1801
g20
I00
sg21
(lp1802
sg36
I00
sg28
V
sg38
I00
sg39
S'L'
sbsg40
(irule
FeatureMatrix
p1803
(dp1804
g25
(lp1805
(I00
g369
tp1806
asg28
V[ -aspirated ]
p1807
sbsg48
(irule
Guard
p1808
(dp1809
g20
I00
sg21
(lp1810
(irule
FeatureMatrix
p1811
(dp1812
g25
(lp1813
sg28
V[  ]
p1814
sba(irule
FeatureMatrix
p1815
(dp1816
g25
(lp1817
(I01
g1709
tp1818
asg28
V[ +rounded ]
p1819
sbasg36
I00
sg28
V[  ] [ +rounded ]
p1820
sg38
I00
sg39
S'R'
sbsg52
(irule
FeatureMatrix
p1821
(dp1822
g25
(lp1823
sg28
V[  ]
p1824
sbsg28
V[  ] ---> [ -aspirated ] /  _ [  ] [ +rounded ]
p1825
sba(irule
Rule
p1826
(dp1827
g17
(irule
Guard
p1828
(dp1829
g20
I00
sg21
(lp1830
sg36
I00
sg28
V
sg38
I00
sg39
S'L'
sbsg40
(irule
FeatureMatrix
p1831
(dp1832
g25
(lp1833
(I00
g369
tp1834
asg28
V[ -aspirated ]
p1835
sbsg48
(irule
Guard
p1836
(dp1837
g20
I00
sg21
(lp1838
(irule
FeatureMatrix
p1839
(dp1840
g25
(lp1841
sg28
V[  ]
p1842
sba(irule
FeatureMatrix
p1843
(dp1844
g25
(lp1845
(I00
g1766
tp1846
asg28
V[ -anterior ]
p1847
sbasg36
I00
sg28
V[  ] [ -anterior ]
p1848
sg38
I00
sg39
S'R'
sbsg52
(irule
FeatureMatrix
p1849
(dp1850
g25
(lp1851
sg28
V[  ]
p1852
sbsg28
V[  ] ---> [ -aspirated ] /  _ [  ] [ -anterior ]
p1853
sba(irule
Rule
p1854
(dp1855
g17
(irule
Guard
p1856
(dp1857
g20
I00
sg21
(lp1858
sg36
I00
sg28
V
sg38
I00
sg39
S'L'
sbsg40
(irule
FeatureMatrix
p1859
(dp1860
g25
(lp1861
(I00
g369
tp1862
asg28
V[ -aspirated ]
p1863
sbsg48
(irule
Guard
p1864
(dp1865
g20
I00
sg21
(lp1866
(irule
FeatureMatrix
p1867
(dp1868
g25
(lp1869
sg28
V[  ]
p1870
sba(irule
FeatureMatrix
p1871
(dp1872
g25
(lp1873
sg28
V[  ]
p1874
sbasg36
I00
sg28
V[  ] [  ]
p1875
sg38
I00
sg39
S'R'
sbsg52
(irule
FeatureMatrix
p1876
(dp1877
g25
(lp1878
(I00
g1709
tp1879
asg28
V[ -rounded ]
p1880
sbsg28
V[ -rounded ] ---> [ -aspirated ] /  _ [  ] [  ]
p1881
sba(irule
Rule
p1882
(dp1883
g17
(irule
Guard
p1884
(dp1885
g20
I00
sg21
(lp1886
sg36
I00
sg28
V
sg38
I00
sg39
S'L'
sbsg40
(irule
FeatureMatrix
p1887
(dp1888
g25
(lp1889
(I00
g948
tp1890
a(I00
g369
tp1891
asg28
V[ -aspirated -palatal ]
p1892
sbsg48
(irule
Guard
p1893
(dp1894
g20
I00
sg21
(lp1895
(irule
FeatureMatrix
p1896
(dp1897
g25
(lp1898
(I00
g429
tp1899
asg28
V[ -vowel ]
p1900
sbasg36
I00
sg28
g1900
sg38
I00
sg39
S'R'
sbsg52
(irule
FeatureMatrix
p1901
(dp1902
g25
(lp1903
sg28
V[  ]
p1904
sbsg28
V[  ] ---> [ -aspirated -palatal ] /  _ [ -vowel ]
p1905
sba(irule
Rule
p1906
(dp1907
g17
(irule
Guard
p1908
(dp1909
g20
I00
sg21
(lp1910
sg36
I00
sg28
V
sg38
I00
sg39
S'L'
sbsg40
(irule
FeatureMatrix
p1911
(dp1912
g25
(lp1913
(I00
g369
tp1914
asg28
V[ -aspirated ]
p1915
sbsg48
(irule
Guard
p1916
(dp1917
g20
I00
sg21
(lp1918
(irule
FeatureMatrix
p1919
(dp1920
g25
(lp1921
(I00
g477
tp1922
asg28
V[ -sonorant ]
p1923
sbasg36
I00
sg28
g1923
sg38
I00
sg39
S'R'
sbsg52
(irule
FeatureMatrix
p1924
(dp1925
g25
(lp1926
(I00
g477
tp1927
asg28
V[ -sonorant ]
p1928
sbsg28
V[ -sonorant ] ---> [ -aspirated ] /  _ [ -sonorant ]
p1929
sba(irule
Rule
p1930
(dp1931
g17
(irule
Guard
p1932
(dp1933
g20
I00
sg21
(lp1934
sg36
I00
sg28
V
sg38
I00
sg39
S'L'
sbsg40
(irule
FeatureMatrix
p1935
(dp1936
g25
(lp1937
(I00
g369
tp1938
asg28
V[ -aspirated ]
p1939
sbsg48
(irule
Guard
p1940
(dp1941
g20
I00
sg21
(lp1942
(irule
FeatureMatrix
p1943
(dp1944
g25
(lp1945
(I01
g405
tp1946
asg28
V[ +high ]
p1947
sbasg36
I00
sg28
g1947
sg38
I00
sg39
S'R'
sbsg52
(irule
FeatureMatrix
p1948
(dp1949
g25
(lp1950
(I00
g776
tp1951
asg28
V[ -tense ]
p1952
sbsg28
V[ -tense ] ---> [ -aspirated ] /  _ [ +high ]
p1953
sba(irule
Rule
p1954
(dp1955
g17
(irule
Guard
p1956
(dp1957
g20
I00
sg21
(lp1958
sg36
I00
sg28
V
sg38
I00
sg39
S'L'
sbsg40
(irule
FeatureMatrix
p1959
(dp1960
g25
(lp1961
(I00
g369
tp1962
asg28
V[ -aspirated ]
p1963
sbsg48
(irule
Guard
p1964
(dp1965
g20
I00
sg21
(lp1966
(irule
FeatureMatrix
p1967
(dp1968
g25
(lp1969
(I00
g539
tp1970
asg28
V[ -sibilant ]
p1971
sba(irule
FeatureMatrix
p1972
(dp1973
g25
(lp1974
sg28
V[  ]
p1975
sbasg36
I00
sg28
V[ -sibilant ] [  ]
p1976
sg38
I00
sg39
S'R'
sbsg52
(irule
FeatureMatrix
p1977
(dp1978
g25
(lp1979
sg28
V[  ]
p1980
sbsg28
V[  ] ---> [ -aspirated ] /  _ [ -sibilant ] [  ]
p1981
sba(irule
Rule
p1982
(dp1983
g17
(irule
Guard
p1984
(dp1985
g20
I00
sg21
(lp1986
sg36
I00
sg28
V
sg38
I00
sg39
S'L'
sbsg40
(irule
FeatureMatrix
p1987
(dp1988
g25
(lp1989
(I00
g369
tp1990
asg28
V[ -aspirated ]
p1991
sbsg48
(irule
Guard
p1992
(dp1993
g20
I00
sg21
(lp1994
(irule
ConstantPhoneme
p1995
(dp1996
S'p'
Vk
sba(irule
FeatureMatrix
p1997
(dp1998
g25
(lp1999
sg28
V[  ]
p2000
sbasg36
I00
sg28
Vk [  ]
p2001
sg38
I00
sg39
S'R'
sbsg52
(irule
FeatureMatrix
p2002
(dp2003
g25
(lp2004
sg28
V[  ]
p2005
sbsg28
V[  ] ---> [ -aspirated ] /  _ k [  ]
p2006
sba(irule
Rule
p2007
(dp2008
g17
(irule
Guard
p2009
(dp2010
g20
I00
sg21
(lp2011
sg36
I00
sg28
V
sg38
I00
sg39
S'L'
sbsg40
(irule
FeatureMatrix
p2012
(dp2013
g25
(lp2014
(I00
g369
tp2015
asg28
V[ -aspirated ]
p2016
sbsg48
(irule
Guard
p2017
(dp2018
g20
I00
sg21
(lp2019
(irule
FeatureMatrix
p2020
(dp2021
g25
(lp2022
sg28
V[  ]
p2023
sba(irule
FeatureMatrix
p2024
(dp2025
g25
(lp2026
(I01
g453
tp2027
asg28
V[ +continuant ]
p2028
sbasg36
I00
sg28
V[  ] [ +continuant ]
p2029
sg38
I00
sg39
S'R'
sbsg52
(irule
FeatureMatrix
p2030
(dp2031
g25
(lp2032
sg28
V[  ]
p2033
sbsg28
V[  ] ---> [ -aspirated ] /  _ [  ] [ +continuant ]
p2034
sba(irule
Rule
p2035
(dp2036
g17
(irule
Guard
p2037
(dp2038
g20
I00
sg21
(lp2039
sg36
I00
sg28
V
sg38
I00
sg39
S'L'
sbsg40
(irule
FeatureMatrix
p2040
(dp2041
g25
(lp2042
(I00
g369
tp2043
asg28
V[ -aspirated ]
p2044
sbsg48
(irule
Guard
p2045
(dp2046
g20
I00
sg21
(lp2047
(irule
FeatureMatrix
p2048
(dp2049
g25
(lp2050
(I00
g575
tp2051
asg28
V[ -low ]
p2052
sba(irule
FeatureMatrix
p2053
(dp2054
g25
(lp2055
sg28
V[  ]
p2056
sbasg36
I00
sg28
V[ -low ] [  ]
p2057
sg38
I00
sg39
S'R'
sbsg52
(irule
FeatureMatrix
p2058
(dp2059
g25
(lp2060
sg28
V[  ]
p2061
sbsg28
V[  ] ---> [ -aspirated ] /  _ [ -low ] [  ]
p2062
sba(irule
Rule
p2063
(dp2064
g17
(irule
Guard
p2065
(dp2066
g20
I00
sg21
(lp2067
sg36
I00
sg28
V
sg38
I00
sg39
S'L'
sbsg40
(irule
FeatureMatrix
p2068
(dp2069
g25
(lp2070
(I00
g369
tp2071
asg28
V[ -aspirated ]
p2072
sbsg48
(irule
Guard
p2073
(dp2074
g20
I00
sg21
(lp2075
(irule
FeatureMatrix
p2076
(dp2077
g25
(lp2078
(I00
g852
tp2079
asg28
V[ -voice ]
p2080
sba(irule
FeatureMatrix
p2081
(dp2082
g25
(lp2083
sg28
V[  ]
p2084
sbasg36
I00
sg28
V[ -voice ] [  ]
p2085
sg38
I00
sg39
S'R'
sbsg52
(irule
FeatureMatrix
p2086
(dp2087
g25
(lp2088
sg28
V[  ]
p2089
sbsg28
V[  ] ---> [ -aspirated ] /  _ [ -voice ] [  ]
p2090
sba(irule
Rule
p2091
(dp2092
g17
(irule
Guard
p2093
(dp2094
g20
I00
sg21
(lp2095
sg36
I00
sg28
V
sg38
I00
sg39
S'L'
sbsg40
(irule
FeatureMatrix
p2096
(dp2097
g25
(lp2098
(I00
g369
tp2099
asg28
V[ -aspirated ]
p2100
sbsg48
(irule
Guard
p2101
(dp2102
g20
I00
sg21
(lp2103
(irule
FeatureMatrix
p2104
(dp2105
g25
(lp2106
(I00
g369
tp2107
asg28
V[ -aspirated ]
p2108
sba(irule
FeatureMatrix
p2109
(dp2110
g25
(lp2111
sg28
V[  ]
p2112
sbasg36
I00
sg28
V[ -aspirated ] [  ]
p2113
sg38
I00
sg39
S'R'
sbsg52
(irule
FeatureMatrix
p2114
(dp2115
g25
(lp2116
sg28
V[  ]
p2117
sbsg28
V[  ] ---> [ -aspirated ] /  _ [ -aspirated ] [  ]
p2118
sba(irule
Rule
p2119
(dp2120
g17
(irule
Guard
p2121
(dp2122
g20
I00
sg21
(lp2123
sg36
I00
sg28
V
sg38
I00
sg39
S'L'
sbsg40
(irule
FeatureMatrix
p2124
(dp2125
g25
(lp2126
(I00
g369
tp2127
asg28
V[ -aspirated ]
p2128
sbsg48
(irule
Guard
p2129
(dp2130
g20
I00
sg21
(lp2131
(irule
FeatureMatrix
p2132
(dp2133
g25
(lp2134
(I00
g513
tp2135
asg28
V[ -nasal ]
p2136
sba(irule
FeatureMatrix
p2137
(dp2138
g25
(lp2139
sg28
V[  ]
p2140
sbasg36
I00
sg28
V[ -nasal ] [  ]
p2141
sg38
I00
sg39
S'R'
sbsg52
(irule
FeatureMatrix
p2142
(dp2143
g25
(lp2144
sg28
V[  ]
p2145
sbsg28
V[  ] ---> [ -aspirated ] /  _ [ -nasal ] [  ]
p2146
sba(irule
Rule
p2147
(dp2148
g17
(irule
Guard
p2149
(dp2150
g20
I00
sg21
(lp2151
sg36
I00
sg28
V
sg38
I00
sg39
S'L'
sbsg40
(irule
FeatureMatrix
p2152
(dp2153
g25
(lp2154
(I00
g369
tp2155
a(I00
g539
tp2156
asg28
V[ -aspirated -sibilant ]
p2157
sbsg48
(irule
Guard
p2158
(dp2159
g20
I00
sg21
(lp2160
(irule
FeatureMatrix
p2161
(dp2162
g25
(lp2163
(I00
g852
tp2164
asg28
V[ -voice ]
p2165
sbasg36
I00
sg28
g2165
sg38
I00
sg39
S'R'
sbsg52
(irule
FeatureMatrix
p2166
(dp2167
g25
(lp2168
sg28
V[  ]
p2169
sbsg28
V[  ] ---> [ -aspirated -sibilant ] /  _ [ -voice ]
p2170
sba(irule
Rule
p2171
(dp2172
g17
(irule
Guard
p2173
(dp2174
g20
I00
sg21
(lp2175
sg36
I00
sg28
V
sg38
I00
sg39
S'L'
sbsg40
(irule
FeatureMatrix
p2176
(dp2177
g25
(lp2178
(I00
g369
tp2179
asg28
V[ -aspirated ]
p2180
sbsg48
(irule
Guard
p2181
(dp2182
g20
I00
sg21
(lp2183
(irule
FeatureMatrix
p2184
(dp2185
g25
(lp2186
(I00
g1766
tp2187
asg28
V[ -anterior ]
p2188
sba(irule
FeatureMatrix
p2189
(dp2190
g25
(lp2191
sg28
V[  ]
p2192
sbasg36
I00
sg28
V[ -anterior ] [  ]
p2193
sg38
I00
sg39
S'R'
sbsg52
(irule
FeatureMatrix
p2194
(dp2195
g25
(lp2196
sg28
V[  ]
p2197
sbsg28
V[  ] ---> [ -aspirated ] /  _ [ -anterior ] [  ]
p2198
sba(irule
Rule
p2199
(dp2200
g17
(irule
Guard
p2201
(dp2202
g20
I00
sg21
(lp2203
sg36
I00
sg28
V
sg38
I00
sg39
S'L'
sbsg40
(irule
FeatureMatrix
p2204
(dp2205
g25
(lp2206
(I00
g369
tp2207
asg28
V[ -aspirated ]
p2208
sbsg48
(irule
Guard
p2209
(dp2210
g20
I00
sg21
(lp2211
(irule
FeatureMatrix
p2212
(dp2213
g25
(lp2214
(I00
g1766
tp2215
a(I01
g405
tp2216
asg28
V[ +high -anterior ]
p2217
sbasg36
I00
sg28
g2217
sg38
I00
sg39
S'R'
sbsg52
(irule
FeatureMatrix
p2218
(dp2219
g25
(lp2220
sg28
V[  ]
p2221
sbsg28
V[  ] ---> [ -aspirated ] /  _ [ +high -anterior ]
p2222
sba(irule
Rule
p2223
(dp2224
g17
(irule
Guard
p2225
(dp2226
g20
I00
sg21
(lp2227
sg36
I00
sg28
V
sg38
I00
sg39
S'L'
sbsg40
(irule
FeatureMatrix
p2228
(dp2229
g25
(lp2230
(I00
g369
tp2231
asg28
V[ -aspirated ]
p2232
sbsg48
(irule
Guard
p2233
(dp2234
g20
I00
sg21
(lp2235
(irule
FeatureMatrix
p2236
(dp2237
g25
(lp2238
(I00
g429
tp2239
asg28
V[ -vowel ]
p2240
sba(irule
FeatureMatrix
p2241
(dp2242
g25
(lp2243
sg28
V[  ]
p2244
sbasg36
I00
sg28
V[ -vowel ] [  ]
p2245
sg38
I00
sg39
S'R'
sbsg52
(irule
FeatureMatrix
p2246
(dp2247
g25
(lp2248
sg28
V[  ]
p2249
sbsg28
V[  ] ---> [ -aspirated ] /  _ [ -vowel ] [  ]
p2250
sba(irule
Rule
p2251
(dp2252
g17
(irule
Guard
p2253
(dp2254
g20
I00
sg21
(lp2255
sg36
I00
sg28
V
sg38
I00
sg39
S'L'
sbsg40
(irule
FeatureMatrix
p2256
(dp2257
g25
(lp2258
(I00
g369
tp2259
asg28
V[ -aspirated ]
p2260
sbsg48
(irule
Guard
p2261
(dp2262
g20
I00
sg21
(lp2263
(irule
FeatureMatrix
p2264
(dp2265
g25
(lp2266
(I00
g477
tp2267
asg28
V[ -sonorant ]
p2268
sba(irule
FeatureMatrix
p2269
(dp2270
g25
(lp2271
sg28
V[  ]
p2272
sbasg36
I00
sg28
V[ -sonorant ] [  ]
p2273
sg38
I00
sg39
S'R'
sbsg52
(irule
FeatureMatrix
p2274
(dp2275
g25
(lp2276
sg28
V[  ]
p2277
sbsg28
V[  ] ---> [ -aspirated ] /  _ [ -sonorant ] [  ]
p2278
sba(irule
Rule
p2279
(dp2280
g17
(irule
Guard
p2281
(dp2282
g20
I00
sg21
(lp2283
sg36
I00
sg28
V
sg38
I00
sg39
S'L'
sbsg40
(irule
FeatureMatrix
p2284
(dp2285
g25
(lp2286
(I00
g369
tp2287
asg28
V[ -aspirated ]
p2288
sbsg48
(irule
Guard
p2289
(dp2290
g20
I00
sg21
(lp2291
(irule
FeatureMatrix
p2292
(dp2293
g25
(lp2294
(I01
g1519
tp2295
asg28
V[ +back ]
p2296
sba(irule
FeatureMatrix
p2297
(dp2298
g25
(lp2299
sg28
V[  ]
p2300
sbasg36
I00
sg28
V[ +back ] [  ]
p2301
sg38
I00
sg39
S'R'
sbsg52
(irule
FeatureMatrix
p2302
(dp2303
g25
(lp2304
sg28
V[  ]
p2305
sbsg28
V[  ] ---> [ -aspirated ] /  _ [ +back ] [  ]
p2306
sba(irule
Rule
p2307
(dp2308
g17
(irule
Guard
p2309
(dp2310
g20
I00
sg21
(lp2311
sg36
I00
sg28
V
sg38
I00
sg39
S'L'
sbsg40
(irule
FeatureMatrix
p2312
(dp2313
g25
(lp2314
(I00
g369
tp2315
asg28
V[ -aspirated ]
p2316
sbsg48
(irule
Guard
p2317
(dp2318
g20
I00
sg21
(lp2319
(irule
FeatureMatrix
p2320
(dp2321
g25
(lp2322
(I00
g948
tp2323
asg28
V[ -palatal ]
p2324
sba(irule
FeatureMatrix
p2325
(dp2326
g25
(lp2327
sg28
V[  ]
p2328
sbasg36
I00
sg28
V[ -palatal ] [  ]
p2329
sg38
I00
sg39
S'R'
sbsg52
(irule
FeatureMatrix
p2330
(dp2331
g25
(lp2332
sg28
V[  ]
p2333
sbsg28
V[  ] ---> [ -aspirated ] /  _ [ -palatal ] [  ]
p2334
sba(irule
Rule
p2335
(dp2336
g17
(irule
Guard
p2337
(dp2338
g20
I00
sg21
(lp2339
sg36
I00
sg28
V
sg38
I00
sg39
S'L'
sbsg40
(irule
FeatureMatrix
p2340
(dp2341
g25
(lp2342
(I00
g369
tp2343
asg28
V[ -aspirated ]
p2344
sbsg48
(irule
Guard
p2345
(dp2346
g20
I00
sg21
(lp2347
(irule
FeatureMatrix
p2348
(dp2349
g25
(lp2350
(I01
g405
tp2351
asg28
V[ +high ]
p2352
sbasg36
I00
sg28
g2352
sg38
I00
sg39
S'R'
sbsg52
(irule
FeatureMatrix
p2353
(dp2354
g25
(lp2355
(I00
g1709
tp2356
asg28
V[ -rounded ]
p2357
sbsg28
V[ -rounded ] ---> [ -aspirated ] /  _ [ +high ]
p2358
sba(irule
Rule
p2359
(dp2360
g17
(irule
Guard
p2361
(dp2362
g20
I00
sg21
(lp2363
sg36
I00
sg28
V
sg38
I00
sg39
S'L'
sbsg40
(irule
FeatureMatrix
p2364
(dp2365
g25
(lp2366
(I00
g948
tp2367
a(I00
g369
tp2368
asg28
V[ -aspirated -palatal ]
p2369
sbsg48
(irule
Guard
p2370
(dp2371
g20
I00
sg21
(lp2372
(irule
FeatureMatrix
p2373
(dp2374
g25
(lp2375
(I00
g453
tp2376
asg28
V[ -continuant ]
p2377
sbasg36
I00
sg28
g2377
sg38
I00
sg39
S'R'
sbsg52
(irule
FeatureMatrix
p2378
(dp2379
g25
(lp2380
sg28
V[  ]
p2381
sbsg28
V[  ] ---> [ -aspirated -palatal ] /  _ [ -continuant ]
p2382
sba(irule
Rule
p2383
(dp2384
g17
(irule
Guard
p2385
(dp2386
g20
I00
sg21
(lp2387
sg36
I00
sg28
V
sg38
I00
sg39
S'L'
sbsg40
(irule
FeatureMatrix
p2388
(dp2389
g25
(lp2390
(I00
g369
tp2391
asg28
V[ -aspirated ]
p2392
sbsg48
(irule
Guard
p2393
(dp2394
g20
I00
sg21
(lp2395
(irule
FeatureMatrix
p2396
(dp2397
g25
(lp2398
(I00
g453
tp2399
asg28
V[ -continuant ]
p2400
sba(irule
FeatureMatrix
p2401
(dp2402
g25
(lp2403
sg28
V[  ]
p2404
sbasg36
I00
sg28
V[ -continuant ] [  ]
p2405
sg38
I00
sg39
S'R'
sbsg52
(irule
FeatureMatrix
p2406
(dp2407
g25
(lp2408
sg28
V[  ]
p2409
sbsg28
V[  ] ---> [ -aspirated ] /  _ [ -continuant ] [  ]
p2410
sba(irule
Rule
p2411
(dp2412
g17
(irule
Guard
p2413
(dp2414
g20
I00
sg21
(lp2415
sg36
I00
sg28
V
sg38
I00
sg39
S'L'
sbsg40
(irule
FeatureMatrix
p2416
(dp2417
g25
(lp2418
(I00
g369
tp2419
asg28
V[ -aspirated ]
p2420
sbsg48
(irule
Guard
p2421
(dp2422
g20
I00
sg21
(lp2423
(irule
FeatureMatrix
p2424
(dp2425
g25
(lp2426
(I00
g1709
tp2427
asg28
V[ -rounded ]
p2428
sba(irule
FeatureMatrix
p2429
(dp2430
g25
(lp2431
sg28
V[  ]
p2432
sbasg36
I00
sg28
V[ -rounded ] [  ]
p2433
sg38
I00
sg39
S'R'
sbsg52
(irule
FeatureMatrix
p2434
(dp2435
g25
(lp2436
sg28
V[  ]
p2437
sbsg28
V[  ] ---> [ -aspirated ] /  _ [ -rounded ] [  ]
p2438
sba(irule
Rule
p2439
(dp2440
g17
(irule
Guard
p2441
(dp2442
g20
I00
sg21
(lp2443
sg36
I00
sg28
V
sg38
I00
sg39
S'L'
sbsg40
(irule
FeatureMatrix
p2444
(dp2445
g25
(lp2446
(I00
g369
tp2447
asg28
V[ -aspirated ]
p2448
sbsg48
(irule
Guard
p2449
(dp2450
g20
I00
sg21
(lp2451
(irule
FeatureMatrix
p2452
(dp2453
g25
(lp2454
(I01
g405
tp2455
asg28
V[ +high ]
p2456
sba(irule
FeatureMatrix
p2457
(dp2458
g25
(lp2459
sg28
V[  ]
p2460
sbasg36
I00
sg28
V[ +high ] [  ]
p2461
sg38
I00
sg39
S'R'
sbsg52
(irule
FeatureMatrix
p2462
(dp2463
g25
(lp2464
sg28
V[  ]
p2465
sbsg28
V[  ] ---> [ -aspirated ] /  _ [ +high ] [  ]
p2466
sba(irule
Rule
p2467
(dp2468
g17
(irule
Guard
p2469
(dp2470
g20
I00
sg21
(lp2471
sg36
I00
sg28
V
sg38
I00
sg39
S'L'
sbsg40
(irule
FeatureMatrix
p2472
(dp2473
g25
(lp2474
(I00
g513
tp2475
a(I00
g369
tp2476
asg28
V[ -aspirated -nasal ]
p2477
sbsg48
(irule
Guard
p2478
(dp2479
g20
I00
sg21
(lp2480
(irule
ConstantPhoneme
p2481
(dp2482
S'p'
Vk
sbasg36
I00
sg28
Vk
sg38
I00
sg39
S'R'
sbsg52
(irule
FeatureMatrix
p2483
(dp2484
g25
(lp2485
sg28
V[  ]
p2486
sbsg28
V[  ] ---> [ -aspirated -nasal ] /  _ k
p2487
sba(irule
Rule
p2488
(dp2489
g17
(irule
Guard
p2490
(dp2491
g20
I00
sg21
(lp2492
sg36
I00
sg28
V
sg38
I00
sg39
S'L'
sbsg40
(irule
FeatureMatrix
p2493
(dp2494
g25
(lp2495
(I00
g369
tp2496
asg28
V[ -aspirated ]
p2497
sbsg48
(irule
Guard
p2498
(dp2499
g20
I00
sg21
(lp2500
(irule
FeatureMatrix
p2501
(dp2502
g25
(lp2503
(I00
g453
tp2504
asg28
V[ -continuant ]
p2505
sbasg36
I00
sg28
g2505
sg38
I00
sg39
S'R'
sbsg52
(irule
FeatureMatrix
p2506
(dp2507
g25
(lp2508
(I01
g369
tp2509
asg28
V[ +aspirated ]
p2510
sbsg28
V[ +aspirated ] ---> [ -aspirated ] /  _ [ -continuant ]
p2511
sba(irule
Rule
p2512
(dp2513
g17
(irule
Guard
p2514
(dp2515
g20
I00
sg21
(lp2516
sg36
I00
sg28
V
sg38
I00
sg39
S'L'
sbsg40
(irule
FeatureMatrix
p2517
(dp2518
g25
(lp2519
(I00
g369
tp2520
a(I00
g539
tp2521
asg28
V[ -aspirated -sibilant ]
p2522
sbsg48
(irule
Guard
p2523
(dp2524
g20
I00
sg21
(lp2525
(irule
FeatureMatrix
p2526
(dp2527
g25
(lp2528
(I00
g429
tp2529
asg28
V[ -vowel ]
p2530
sbasg36
I00
sg28
g2530
sg38
I00
sg39
S'R'
sbsg52
(irule
FeatureMatrix
p2531
(dp2532
g25
(lp2533
sg28
V[  ]
p2534
sbsg28
V[  ] ---> [ -aspirated -sibilant ] /  _ [ -vowel ]
p2535
sba(irule
Rule
p2536
(dp2537
g17
(irule
Guard
p2538
(dp2539
g20
I00
sg21
(lp2540
sg36
I00
sg28
V
sg38
I00
sg39
S'L'
sbsg40
(irule
FeatureMatrix
p2541
(dp2542
g25
(lp2543
(I00
g369
tp2544
a(I00
g539
tp2545
asg28
V[ -aspirated -sibilant ]
p2546
sbsg48
(irule
Guard
p2547
(dp2548
g20
I00
sg21
(lp2549
(irule
ConstantPhoneme
p2550
(dp2551
S'p'
Vk
sbasg36
I00
sg28
Vk
sg38
I00
sg39
S'R'
sbsg52
(irule
FeatureMatrix
p2552
(dp2553
g25
(lp2554
sg28
V[  ]
p2555
sbsg28
V[  ] ---> [ -aspirated -sibilant ] /  _ k
p2556
sba(irule
Rule
p2557
(dp2558
g17
(irule
Guard
p2559
(dp2560
g20
I00
sg21
(lp2561
sg36
I00
sg28
V
sg38
I00
sg39
S'L'
sbsg40
(irule
FeatureMatrix
p2562
(dp2563
g25
(lp2564
(I00
g369
tp2565
asg28
V[ -aspirated ]
p2566
sbsg48
(irule
Guard
p2567
(dp2568
g20
I00
sg21
(lp2569
(irule
FeatureMatrix
p2570
(dp2571
g25
(lp2572
(I01
g1519
tp2573
a(I01
g405
tp2574
asg28
V[ +back +high ]
p2575
sbasg36
I00
sg28
g2575
sg38
I00
sg39
S'R'
sbsg52
(irule
FeatureMatrix
p2576
(dp2577
g25
(lp2578
sg28
V[  ]
p2579
sbsg28
V[  ] ---> [ -aspirated ] /  _ [ +back +high ]
p2580
sba(irule
Rule
p2581
(dp2582
g17
(irule
Guard
p2583
(dp2584
g20
I00
sg21
(lp2585
sg36
I00
sg28
V
sg38
I00
sg39
S'L'
sbsg40
(irule
FeatureMatrix
p2586
(dp2587
g25
(lp2588
(I00
g369
tp2589
asg28
V[ -aspirated ]
p2590
sbsg48
(irule
Guard
p2591
(dp2592
g20
I00
sg21
(lp2593
(irule
FeatureMatrix
p2594
(dp2595
g25
(lp2596
(I00
g539
tp2597
a(I00
g852
tp2598
asg28
V[ -sibilant -voice ]
p2599
sbasg36
I00
sg28
g2599
sg38
I00
sg39
S'R'
sbsg52
(irule
FeatureMatrix
p2600
(dp2601
g25
(lp2602
sg28
V[  ]
p2603
sbsg28
V[  ] ---> [ -aspirated ] /  _ [ -sibilant -voice ]
p2604
sba(irule
Rule
p2605
(dp2606
g17
(irule
Guard
p2607
(dp2608
g20
I00
sg21
(lp2609
sg36
I00
sg28
V
sg38
I00
sg39
S'L'
sbsg40
(irule
FeatureMatrix
p2610
(dp2611
g25
(lp2612
(I00
g369
tp2613
asg28
V[ -aspirated ]
p2614
sbsg48
(irule
Guard
p2615
(dp2616
g20
I00
sg21
(lp2617
(irule
ConstantPhoneme
p2618
(dp2619
S'p'
Vk
sbasg36
I00
sg28
Vk
sg38
I00
sg39
S'R'
sbsg52
(irule
FeatureMatrix
p2620
(dp2621
g25
(lp2622
(I00
g1709
tp2623
asg28
V[ -rounded ]
p2624
sbsg28
V[ -rounded ] ---> [ -aspirated ] /  _ k
p2625
sba(irule
Rule
p2626
(dp2627
g17
(irule
Guard
p2628
(dp2629
g20
I00
sg21
(lp2630
sg36
I00
sg28
V
sg38
I00
sg39
S'L'
sbsg40
(irule
FeatureMatrix
p2631
(dp2632
g25
(lp2633
(I00
g369
tp2634
asg28
V[ -aspirated ]
p2635
sbsg48
(irule
Guard
p2636
(dp2637
g20
I00
sg21
(lp2638
(irule
FeatureMatrix
p2639
(dp2640
g25
(lp2641
(I00
g1062
tp2642
a(I00
g852
tp2643
asg28
V[ -coronal -voice ]
p2644
sbasg36
I00
sg28
g2644
sg38
I00
sg39
S'R'
sbsg52
(irule
FeatureMatrix
p2645
(dp2646
g25
(lp2647
sg28
V[  ]
p2648
sbsg28
V[  ] ---> [ -aspirated ] /  _ [ -coronal -voice ]
p2649
sba(irule
Rule
p2650
(dp2651
g17
(irule
Guard
p2652
(dp2653
g20
I00
sg21
(lp2654
sg36
I00
sg28
V
sg38
I00
sg39
S'L'
sbsg40
(irule
FeatureMatrix
p2655
(dp2656
g25
(lp2657
(I00
g513
tp2658
a(I00
g369
tp2659
asg28
V[ -aspirated -nasal ]
p2660
sbsg48
(irule
Guard
p2661
(dp2662
g20
I00
sg21
(lp2663
(irule
FeatureMatrix
p2664
(dp2665
g25
(lp2666
(I00
g477
tp2667
asg28
V[ -sonorant ]
p2668
sbasg36
I00
sg28
g2668
sg38
I00
sg39
S'R'
sbsg52
(irule
FeatureMatrix
p2669
(dp2670
g25
(lp2671
sg28
V[  ]
p2672
sbsg28
V[  ] ---> [ -aspirated -nasal ] /  _ [ -sonorant ]
p2673
sba(irule
Rule
p2674
(dp2675
g17
(irule
Guard
p2676
(dp2677
g20
I00
sg21
(lp2678
sg36
I00
sg28
V
sg38
I00
sg39
S'L'
sbsg40
(irule
FeatureMatrix
p2679
(dp2680
g25
(lp2681
(I00
g369
tp2682
asg28
V[ -aspirated ]
p2683
sbsg48
(irule
Guard
p2684
(dp2685
g20
I00
sg21
(lp2686
(irule
FeatureMatrix
p2687
(dp2688
g25
(lp2689
(I00
g453
tp2690
asg28
V[ -continuant ]
p2691
sbasg36
I00
sg28
g2691
sg38
I00
sg39
S'R'
sbsg52
(irule
FeatureMatrix
p2692
(dp2693
g25
(lp2694
(I00
g852
tp2695
asg28
V[ -voice ]
p2696
sbsg28
V[ -voice ] ---> [ -aspirated ] /  _ [ -continuant ]
p2697
sba(irule
Rule
p2698
(dp2699
g17
(irule
Guard
p2700
(dp2701
g20
I00
sg21
(lp2702
sg36
I00
sg28
V
sg38
I00
sg39
S'L'
sbsg40
(irule
FeatureMatrix
p2703
(dp2704
g25
(lp2705
(I00
g369
tp2706
a(I00
g539
tp2707
asg28
V[ -aspirated -sibilant ]
p2708
sbsg48
(irule
Guard
p2709
(dp2710
g20
I00
sg21
(lp2711
(irule
FeatureMatrix
p2712
(dp2713
g25
(lp2714
(I00
g477
tp2715
asg28
V[ -sonorant ]
p2716
sbasg36
I00
sg28
g2716
sg38
I00
sg39
S'R'
sbsg52
(irule
FeatureMatrix
p2717
(dp2718
g25
(lp2719
sg28
V[  ]
p2720
sbsg28
V[  ] ---> [ -aspirated -sibilant ] /  _ [ -sonorant ]
p2721
sba(irule
Rule
p2722
(dp2723
g17
(irule
Guard
p2724
(dp2725
g20
I00
sg21
(lp2726
sg36
I00
sg28
V
sg38
I00
sg39
S'L'
sbsg40
(irule
FeatureMatrix
p2727
(dp2728
g25
(lp2729
(I00
g369
tp2730
asg28
V[ -aspirated ]
p2731
sbsg48
(irule
Guard
p2732
(dp2733
g20
I00
sg21
(lp2734
(irule
FeatureMatrix
p2735
(dp2736
g25
(lp2737
(I00
g429
tp2738
asg28
V[ -vowel ]
p2739
sbasg36
I00
sg28
g2739
sg38
I00
sg39
S'R'
sbsg52
(irule
FeatureMatrix
p2740
(dp2741
g25
(lp2742
(I00
g405
tp2743
asg28
V[ -high ]
p2744
sbsg28
V[ -high ] ---> [ -aspirated ] /  _ [ -vowel ]
p2745
sba(irule
Rule
p2746
(dp2747
g17
(irule
Guard
p2748
(dp2749
g20
I00
sg21
(lp2750
sg36
I00
sg28
V
sg38
I00
sg39
S'L'
sbsg40
(irule
FeatureMatrix
p2751
(dp2752
g25
(lp2753
(I00
g369
tp2754
asg28
V[ -aspirated ]
p2755
sbsg48
(irule
Guard
p2756
(dp2757
g20
I00
sg21
(lp2758
(irule
ConstantPhoneme
p2759
(dp2760
S'p'
Vk
sbasg36
I00
sg28
Vk
sg38
I00
sg39
S'R'
sbsg52
(irule
FeatureMatrix
p2761
(dp2762
g25
(lp2763
(I00
g776
tp2764
asg28
V[ -tense ]
p2765
sbsg28
V[ -tense ] ---> [ -aspirated ] /  _ k
p2766
sba(irule
Rule
p2767
(dp2768
g17
(irule
Guard
p2769
(dp2770
g20
I00
sg21
(lp2771
sg36
I00
sg28
V
sg38
I00
sg39
S'L'
sbsg40
(irule
FeatureMatrix
p2772
(dp2773
g25
(lp2774
(I00
g369
tp2775
asg28
V[ -aspirated ]
p2776
sbsg48
(irule
Guard
p2777
(dp2778
g20
I00
sg21
(lp2779
(irule
FeatureMatrix
p2780
(dp2781
g25
(lp2782
(I01
g405
tp2783
asg28
V[ +high ]
p2784
sbasg36
I00
sg28
g2784
sg38
I00
sg39
S'R'
sbsg52
(irule
FeatureMatrix
p2785
(dp2786
g25
(lp2787
(I00
g575
tp2788
asg28
V[ -low ]
p2789
sbsg28
V[ -low ] ---> [ -aspirated ] /  _ [ +high ]
p2790
sba(irule
Rule
p2791
(dp2792
g17
(irule
Guard
p2793
(dp2794
g20
I00
sg21
(lp2795
sg36
I00
sg28
V
sg38
I00
sg39
S'L'
sbsg40
(irule
FeatureMatrix
p2796
(dp2797
g25
(lp2798
(I00
g369
tp2799
asg28
V[ -aspirated ]
p2800
sbsg48
(irule
Guard
p2801
(dp2802
g20
I00
sg21
(lp2803
(irule
FeatureMatrix
p2804
(dp2805
g25
(lp2806
(I01
g405
tp2807
asg28
V[ +high ]
p2808
sbasg36
I00
sg28
g2808
sg38
I00
sg39
S'R'
sbsg52
(irule
FeatureMatrix
p2809
(dp2810
g25
(lp2811
(I00
g948
tp2812
asg28
V[ -palatal ]
p2813
sbsg28
V[ -palatal ] ---> [ -aspirated ] /  _ [ +high ]
p2814
sba(irule
Rule
p2815
(dp2816
g17
(irule
Guard
p2817
(dp2818
g20
I00
sg21
(lp2819
sg36
I00
sg28
V
sg38
I00
sg39
S'L'
sbsg40
(irule
FeatureMatrix
p2820
(dp2821
g25
(lp2822
(I00
g369
tp2823
asg28
V[ -aspirated ]
p2824
sbsg48
(irule
Guard
p2825
(dp2826
g20
I00
sg21
(lp2827
(irule
FeatureMatrix
p2828
(dp2829
g25
(lp2830
(I00
g477
tp2831
asg28
V[ -sonorant ]
p2832
sbasg36
I00
sg28
g2832
sg38
I00
sg39
S'R'
sbsg52
(irule
FeatureMatrix
p2833
(dp2834
g25
(lp2835
(I00
g852
tp2836
asg28
V[ -voice ]
p2837
sbsg28
V[ -voice ] ---> [ -aspirated ] /  _ [ -sonorant ]
p2838
sba(irule
Rule
p2839
(dp2840
g17
(irule
Guard
p2841
(dp2842
g20
I00
sg21
(lp2843
sg36
I00
sg28
V
sg38
I00
sg39
S'L'
sbsg40
(irule
FeatureMatrix
p2844
(dp2845
g25
(lp2846
(I00
g369
tp2847
asg28
V[ -aspirated ]
p2848
sbsg48
(irule
Guard
p2849
(dp2850
g20
I00
sg21
(lp2851
(irule
FeatureMatrix
p2852
(dp2853
g25
(lp2854
(I00
g477
tp2855
a(I00
g575
tp2856
asg28
V[ -low -sonorant ]
p2857
sbasg36
I00
sg28
g2857
sg38
I00
sg39
S'R'
sbsg52
(irule
FeatureMatrix
p2858
(dp2859
g25
(lp2860
sg28
V[  ]
p2861
sbsg28
V[  ] ---> [ -aspirated ] /  _ [ -low -sonorant ]
p2862
sba(irule
Rule
p2863
(dp2864
g17
(irule
Guard
p2865
(dp2866
g20
I00
sg21
(lp2867
sg36
I00
sg28
V
sg38
I00
sg39
S'L'
sbsg40
(irule
FeatureMatrix
p2868
(dp2869
g25
(lp2870
(I00
g369
tp2871
asg28
V[ -aspirated ]
p2872
sbsg48
(irule
Guard
p2873
(dp2874
g20
I00
sg21
(lp2875
(irule
FeatureMatrix
p2876
(dp2877
g25
(lp2878
(I00
g852
tp2879
asg28
V[ -voice ]
p2880
sbasg36
I00
sg28
g2880
sg38
I00
sg39
S'R'
sbsg52
(irule
FeatureMatrix
p2881
(dp2882
g25
(lp2883
(I00
g513
tp2884
asg28
V[ -nasal ]
p2885
sbsg28
V[ -nasal ] ---> [ -aspirated ] /  _ [ -voice ]
p2886
sba(irule
Rule
p2887
(dp2888
g17
(irule
Guard
p2889
(dp2890
g20
I00
sg21
(lp2891
sg36
I00
sg28
V
sg38
I00
sg39
S'L'
sbsg40
(irule
FeatureMatrix
p2892
(dp2893
g25
(lp2894
(I00
g369
tp2895
asg28
V[ -aspirated ]
p2896
sbsg48
(irule
Guard
p2897
(dp2898
g20
I00
sg21
(lp2899
(irule
FeatureMatrix
p2900
(dp2901
g25
(lp2902
(I00
g477
tp2903
asg28
V[ -sonorant ]
p2904
sbasg36
I00
sg28
g2904
sg38
I00
sg39
S'R'
sbsg52
(irule
FeatureMatrix
p2905
(dp2906
g25
(lp2907
(I00
g776
tp2908
asg28
V[ -tense ]
p2909
sbsg28
V[ -tense ] ---> [ -aspirated ] /  _ [ -sonorant ]
p2910
sba(irule
Rule
p2911
(dp2912
g17
(irule
Guard
p2913
(dp2914
g20
I00
sg21
(lp2915
sg36
I00
sg28
V
sg38
I00
sg39
S'L'
sbsg40
(irule
FeatureMatrix
p2916
(dp2917
g25
(lp2918
(I00
g948
tp2919
a(I00
g369
tp2920
asg28
V[ -aspirated -palatal ]
p2921
sbsg48
(irule
Guard
p2922
(dp2923
g20
I00
sg21
(lp2924
(irule
ConstantPhoneme
p2925
(dp2926
S'p'
Vk
sbasg36
I00
sg28
Vk
sg38
I00
sg39
S'R'
sbsg52
(irule
FeatureMatrix
p2927
(dp2928
g25
(lp2929
sg28
V[  ]
p2930
sbsg28
V[  ] ---> [ -aspirated -palatal ] /  _ k
p2931
sbaa(lp2932
(irule
Rule
p2933
(dp2934
g17
(irule
Guard
p2935
(dp2936
g20
I00
sg21
(lp2937
(irule
FeatureMatrix
p2938
(dp2939
g25
(lp2940
sg28
V[  ]
p2941
sba(irule
FeatureMatrix
p2942
(dp2943
g25
(lp2944
(I01
S'low'
tp2945
asg28
V[ +low ]
p2946
sbasg36
I00
sg28
V[ +low ] [  ]
p2947
sg38
I00
sg39
S'L'
sbsg40
(irule
OffsetSpecification
p2948
(dp2949
g147
I-2
sbsg48
(irule
Guard
p2950
(dp2951
g20
I00
sg21
(lp2952
sg36
I00
sg28
V
sg38
I00
sg39
S'R'
sbsg52
(irule
FeatureMatrix
p2953
(dp2954
g25
(lp2955
(I00
S'high'
tp2956
asg28
V[ -high ]
p2957
sbsg28
V[ -high ] ---> -2 / [ +low ] [  ] _ 
p2958
sba(irule
Rule
p2959
(dp2960
g17
(irule
Guard
p2961
(dp2962
g20
I00
sg21
(lp2963
(irule
FeatureMatrix
p2964
(dp2965
g25
(lp2966
sg28
V[  ]
p2967
sba(irule
FeatureMatrix
p2968
(dp2969
g25
(lp2970
(I00
S'high'
p2971
tp2972
asg28
V[ -high ]
p2973
sbasg36
I00
sg28
V[ -high ] [  ]
p2974
sg38
I00
sg39
S'L'
sbsg40
(irule
OffsetSpecification
p2975
(dp2976
g147
I-2
sbsg48
(irule
Guard
p2977
(dp2978
g20
I00
sg21
(lp2979
sg36
I00
sg28
V
sg38
I00
sg39
S'R'
sbsg52
(irule
ConstantPhoneme
p2980
(dp2981
S'p'
V\u0259
sbsg28
V\u0259 ---> -2 / [ -high ] [  ] _ 
p2982
sba(irule
Rule
p2983
(dp2984
g17
(irule
Guard
p2985
(dp2986
g20
I00
sg21
(lp2987
(irule
FeatureMatrix
p2988
(dp2989
g25
(lp2990
sg28
V[  ]
p2991
sba(irule
FeatureMatrix
p2992
(dp2993
g25
(lp2994
(I01
S'low'
p2995
tp2996
asg28
V[ +low ]
p2997
sbasg36
I00
sg28
V[ +low ] [  ]
p2998
sg38
I00
sg39
S'L'
sbsg40
(irule
OffsetSpecification
p2999
(dp3000
g147
I-2
sbsg48
(irule
Guard
p3001
(dp3002
g20
I00
sg21
(lp3003
sg36
I00
sg28
V
sg38
I00
sg39
S'R'
sbsg52
(irule
FeatureMatrix
p3004
(dp3005
g25
(lp3006
(I01
S'vowel'
p3007
tp3008
asg28
V[ +vowel ]
p3009
sbsg28
V[ +vowel ] ---> -2 / [ +low ] [  ] _ 
p3010
sba(irule
Rule
p3011
(dp3012
g17
(irule
Guard
p3013
(dp3014
g20
I00
sg21
(lp3015
(irule
FeatureMatrix
p3016
(dp3017
g25
(lp3018
sg28
V[  ]
p3019
sba(irule
FeatureMatrix
p3020
(dp3021
g25
(lp3022
(I01
g2995
tp3023
asg28
V[ +low ]
p3024
sbasg36
I00
sg28
V[ +low ] [  ]
p3025
sg38
I00
sg39
S'L'
sbsg40
(irule
OffsetSpecification
p3026
(dp3027
g147
I-2
sbsg48
(irule
Guard
p3028
(dp3029
g20
I00
sg21
(lp3030
sg36
I00
sg28
V
sg38
I00
sg39
S'R'
sbsg52
(irule
FeatureMatrix
p3031
(dp3032
g25
(lp3033
(I01
S'sonorant'
p3034
tp3035
asg28
V[ +sonorant ]
p3036
sbsg28
V[ +sonorant ] ---> -2 / [ +low ] [  ] _ 
p3037
sba(irule
Rule
p3038
(dp3039
g17
(irule
Guard
p3040
(dp3041
g20
I00
sg21
(lp3042
(irule
FeatureMatrix
p3043
(dp3044
g25
(lp3045
sg28
V[  ]
p3046
sba(irule
FeatureMatrix
p3047
(dp3048
g25
(lp3049
(I01
g2995
tp3050
asg28
V[ +low ]
p3051
sbasg36
I00
sg28
V[ +low ] [  ]
p3052
sg38
I00
sg39
S'L'
sbsg40
(irule
OffsetSpecification
p3053
(dp3054
g147
I-2
sbsg48
(irule
Guard
p3055
(dp3056
g20
I00
sg21
(lp3057
sg36
I00
sg28
V
sg38
I00
sg39
S'R'
sbsg52
(irule
FeatureMatrix
p3058
(dp3059
g25
(lp3060
(I01
S'voice'
p3061
tp3062
asg28
V[ +voice ]
p3063
sbsg28
V[ +voice ] ---> -2 / [ +low ] [  ] _ 
p3064
sba(irule
Rule
p3065
(dp3066
g17
(irule
Guard
p3067
(dp3068
g20
I00
sg21
(lp3069
(irule
FeatureMatrix
p3070
(dp3071
g25
(lp3072
sg28
V[  ]
p3073
sba(irule
ConstantPhoneme
p3074
(dp3075
S'p'
Va
sbasg36
I00
sg28
Va [  ]
p3076
sg38
I00
sg39
S'L'
sbsg40
(irule
OffsetSpecification
p3077
(dp3078
g147
I-2
sbsg48
(irule
Guard
p3079
(dp3080
g20
I01
sg21
(lp3081
sg36
I00
sg28
V#
sg38
I00
sg39
S'R'
sbsg52
(irule
FeatureMatrix
p3082
(dp3083
g25
(lp3084
sg28
V[  ]
p3085
sbsg28
V[  ] ---> -2 / a [  ] _ #
p3086
sba(irule
Rule
p3087
(dp3088
g17
(irule
Guard
p3089
(dp3090
g20
I00
sg21
(lp3091
(irule
FeatureMatrix
p3092
(dp3093
g25
(lp3094
sg28
V[  ]
p3095
sba(irule
FeatureMatrix
p3096
(dp3097
g25
(lp3098
(I01
g2995
tp3099
asg28
V[ +low ]
p3100
sbasg36
I00
sg28
V[ +low ] [  ]
p3101
sg38
I00
sg39
S'L'
sbsg40
(irule
OffsetSpecification
p3102
(dp3103
g147
I-2
sbsg48
(irule
Guard
p3104
(dp3105
g20
I01
sg21
(lp3106
sg36
I00
sg28
V#
sg38
I00
sg39
S'R'
sbsg52
(irule
FeatureMatrix
p3107
(dp3108
g25
(lp3109
sg28
V[  ]
p3110
sbsg28
V[  ] ---> -2 / [ +low ] [  ] _ #
p3111
sba(irule
Rule
p3112
(dp3113
g17
(irule
Guard
p3114
(dp3115
g20
I00
sg21
(lp3116
(irule
FeatureMatrix
p3117
(dp3118
g25
(lp3119
sg28
V[  ]
p3120
sba(irule
FeatureMatrix
p3121
(dp3122
g25
(lp3123
(I01
g2995
tp3124
asg28
V[ +low ]
p3125
sbasg36
I00
sg28
V[ +low ] [  ]
p3126
sg38
I00
sg39
S'L'
sbsg40
(irule
OffsetSpecification
p3127
(dp3128
g147
I-2
sbsg48
(irule
Guard
p3129
(dp3130
g20
I00
sg21
(lp3131
sg36
I00
sg28
V
sg38
I00
sg39
S'R'
sbsg52
(irule
FeatureMatrix
p3132
(dp3133
g25
(lp3134
(I01
S'continuant'
p3135
tp3136
asg28
V[ +continuant ]
p3137
sbsg28
V[ +continuant ] ---> -2 / [ +low ] [  ] _ 
p3138
sba(irule
Rule
p3139
(dp3140
g17
(irule
Guard
p3141
(dp3142
g20
I00
sg21
(lp3143
(irule
FeatureMatrix
p3144
(dp3145
g25
(lp3146
sg28
V[  ]
p3147
sba(irule
FeatureMatrix
p3148
(dp3149
g25
(lp3150
(I01
g2995
tp3151
asg28
V[ +low ]
p3152
sbasg36
I00
sg28
V[ +low ] [  ]
p3153
sg38
I00
sg39
S'L'
sbsg40
(irule
OffsetSpecification
p3154
(dp3155
g147
I-2
sbsg48
(irule
Guard
p3156
(dp3157
g20
I00
sg21
(lp3158
sg36
I00
sg28
V
sg38
I00
sg39
S'R'
sbsg52
(irule
ConstantPhoneme
p3159
(dp3160
S'p'
V\u0259
sbsg28
V\u0259 ---> -2 / [ +low ] [  ] _ 
p3161
sba(irule
Rule
p3162
(dp3163
g17
(irule
Guard
p3164
(dp3165
g20
I00
sg21
(lp3166
(irule
FeatureMatrix
p3167
(dp3168
g25
(lp3169
sg28
V[  ]
p3170
sba(irule
ConstantPhoneme
p3171
(dp3172
S'p'
Va
sbasg36
I00
sg28
Va [  ]
p3173
sg38
I00
sg39
S'L'
sbsg40
(irule
OffsetSpecification
p3174
(dp3175
g147
I-2
sbsg48
(irule
Guard
p3176
(dp3177
g20
I00
sg21
(lp3178
sg36
I00
sg28
V
sg38
I00
sg39
S'R'
sbsg52
(irule
FeatureMatrix
p3179
(dp3180
g25
(lp3181
(I01
g3007
tp3182
asg28
V[ +vowel ]
p3183
sbsg28
V[ +vowel ] ---> -2 / a [  ] _ 
p3184
sba(irule
Rule
p3185
(dp3186
g17
(irule
Guard
p3187
(dp3188
g20
I00
sg21
(lp3189
(irule
FeatureMatrix
p3190
(dp3191
g25
(lp3192
sg28
V[  ]
p3193
sba(irule
ConstantPhoneme
p3194
(dp3195
S'p'
Va
sbasg36
I00
sg28
Va [  ]
p3196
sg38
I00
sg39
S'L'
sbsg40
(irule
OffsetSpecification
p3197
(dp3198
g147
I-2
sbsg48
(irule
Guard
p3199
(dp3200
g20
I00
sg21
(lp3201
sg36
I00
sg28
V
sg38
I00
sg39
S'R'
sbsg52
(irule
ConstantPhoneme
p3202
(dp3203
S'p'
V\u0259
sbsg28
V\u0259 ---> -2 / a [  ] _ 
p3204
sba(irule
Rule
p3205
(dp3206
g17
(irule
Guard
p3207
(dp3208
g20
I00
sg21
(lp3209
(irule
FeatureMatrix
p3210
(dp3211
g25
(lp3212
sg28
V[  ]
p3213
sba(irule
ConstantPhoneme
p3214
(dp3215
S'p'
Va
sbasg36
I00
sg28
Va [  ]
p3216
sg38
I00
sg39
S'L'
sbsg40
(irule
OffsetSpecification
p3217
(dp3218
g147
I-2
sbsg48
(irule
Guard
p3219
(dp3220
g20
I00
sg21
(lp3221
sg36
I00
sg28
V
sg38
I00
sg39
S'R'
sbsg52
(irule
FeatureMatrix
p3222
(dp3223
g25
(lp3224
(I01
g3135
tp3225
asg28
V[ +continuant ]
p3226
sbsg28
V[ +continuant ] ---> -2 / a [  ] _ 
p3227
sba(irule
Rule
p3228
(dp3229
g17
(irule
Guard
p3230
(dp3231
g20
I00
sg21
(lp3232
(irule
FeatureMatrix
p3233
(dp3234
g25
(lp3235
sg28
V[  ]
p3236
sba(irule
ConstantPhoneme
p3237
(dp3238
S'p'
Va
sbasg36
I00
sg28
Va [  ]
p3239
sg38
I00
sg39
S'L'
sbsg40
(irule
OffsetSpecification
p3240
(dp3241
g147
I-2
sbsg48
(irule
Guard
p3242
(dp3243
g20
I00
sg21
(lp3244
sg36
I00
sg28
V
sg38
I00
sg39
S'R'
sbsg52
(irule
FeatureMatrix
p3245
(dp3246
g25
(lp3247
(I01
g3061
tp3248
asg28
V[ +voice ]
p3249
sbsg28
V[ +voice ] ---> -2 / a [  ] _ 
p3250
sba(irule
Rule
p3251
(dp3252
g17
(irule
Guard
p3253
(dp3254
g20
I00
sg21
(lp3255
(irule
FeatureMatrix
p3256
(dp3257
g25
(lp3258
sg28
V[  ]
p3259
sba(irule
ConstantPhoneme
p3260
(dp3261
S'p'
Va
sbasg36
I00
sg28
Va [  ]
p3262
sg38
I00
sg39
S'L'
sbsg40
(irule
OffsetSpecification
p3263
(dp3264
g147
I-2
sbsg48
(irule
Guard
p3265
(dp3266
g20
I00
sg21
(lp3267
sg36
I00
sg28
V
sg38
I00
sg39
S'R'
sbsg52
(irule
FeatureMatrix
p3268
(dp3269
g25
(lp3270
(I00
g2971
tp3271
asg28
V[ -high ]
p3272
sbsg28
V[ -high ] ---> -2 / a [  ] _ 
p3273
sba(irule
Rule
p3274
(dp3275
g17
(irule
Guard
p3276
(dp3277
g20
I00
sg21
(lp3278
(irule
FeatureMatrix
p3279
(dp3280
g25
(lp3281
sg28
V[  ]
p3282
sba(irule
ConstantPhoneme
p3283
(dp3284
S'p'
Va
sbasg36
I00
sg28
Va [  ]
p3285
sg38
I00
sg39
S'L'
sbsg40
(irule
OffsetSpecification
p3286
(dp3287
g147
I-2
sbsg48
(irule
Guard
p3288
(dp3289
g20
I00
sg21
(lp3290
sg36
I00
sg28
V
sg38
I00
sg39
S'R'
sbsg52
(irule
FeatureMatrix
p3291
(dp3292
g25
(lp3293
(I01
g3034
tp3294
asg28
V[ +sonorant ]
p3295
sbsg28
V[ +sonorant ] ---> -2 / a [  ] _ 
p3296
sba(irule
Rule
p3297
(dp3298
g17
(irule
Guard
p3299
(dp3300
g20
I00
sg21
(lp3301
(irule
FeatureMatrix
p3302
(dp3303
g25
(lp3304
sg28
V[  ]
p3305
sba(irule
FeatureMatrix
p3306
(dp3307
g25
(lp3308
(I01
S'back'
p3309
tp3310
a(I00
g2971
tp3311
asg28
V[ +back -high ]
p3312
sbasg36
I00
sg28
V[ +back -high ] [  ]
p3313
sg38
I00
sg39
S'L'
sbsg40
(irule
OffsetSpecification
p3314
(dp3315
g147
I-2
sbsg48
(irule
Guard
p3316
(dp3317
g20
I00
sg21
(lp3318
sg36
I00
sg28
V
sg38
I00
sg39
S'R'
sbsg52
(irule
FeatureMatrix
p3319
(dp3320
g25
(lp3321
(I01
g3135
tp3322
asg28
V[ +continuant ]
p3323
sbsg28
V[ +continuant ] ---> -2 / [ +back -high ] [  ] _ 
p3324
sba(irule
Rule
p3325
(dp3326
g17
(irule
Guard
p3327
(dp3328
g20
I00
sg21
(lp3329
(irule
FeatureMatrix
p3330
(dp3331
g25
(lp3332
sg28
V[  ]
p3333
sba(irule
FeatureMatrix
p3334
(dp3335
g25
(lp3336
(I01
g2995
tp3337
asg28
V[ +low ]
p3338
sbasg36
I00
sg28
V[ +low ] [  ]
p3339
sg38
I00
sg39
S'L'
sbsg40
(irule
OffsetSpecification
p3340
(dp3341
g147
I-2
sbsg48
(irule
Guard
p3342
(dp3343
g20
I01
sg21
(lp3344
sg36
I00
sg28
V#
sg38
I00
sg39
S'R'
sbsg52
(irule
FeatureMatrix
p3345
(dp3346
g25
(lp3347
(I01
g3061
tp3348
asg28
V[ +voice ]
p3349
sbsg28
V[ +voice ] ---> -2 / [ +low ] [  ] _ #
p3350
sba(irule
Rule
p3351
(dp3352
g17
(irule
Guard
p3353
(dp3354
g20
I00
sg21
(lp3355
(irule
FeatureMatrix
p3356
(dp3357
g25
(lp3358
sg28
V[  ]
p3359
sba(irule
FeatureMatrix
p3360
(dp3361
g25
(lp3362
(I00
g2971
tp3363
asg28
V[ -high ]
p3364
sbasg36
I00
sg28
V[ -high ] [  ]
p3365
sg38
I00
sg39
S'L'
sbsg40
(irule
OffsetSpecification
p3366
(dp3367
g147
I-2
sbsg48
(irule
Guard
p3368
(dp3369
g20
I00
sg21
(lp3370
sg36
I00
sg28
V
sg38
I00
sg39
S'R'
sbsg52
(irule
FeatureMatrix
p3371
(dp3372
g25
(lp3373
(I01
g3135
tp3374
a(I00
S'tense'
p3375
tp3376
asg28
V[ +continuant -tense ]
p3377
sbsg28
V[ +continuant -tense ] ---> -2 / [ -high ] [  ] _ 
p3378
sba(irule
Rule
p3379
(dp3380
g17
(irule
Guard
p3381
(dp3382
g20
I00
sg21
(lp3383
(irule
FeatureMatrix
p3384
(dp3385
g25
(lp3386
sg28
V[  ]
p3387
sba(irule
FeatureMatrix
p3388
(dp3389
g25
(lp3390
(I01
g3309
tp3391
a(I00
g2971
tp3392
asg28
V[ +back -high ]
p3393
sbasg36
I00
sg28
V[ +back -high ] [  ]
p3394
sg38
I00
sg39
S'L'
sbsg40
(irule
OffsetSpecification
p3395
(dp3396
g147
I-2
sbsg48
(irule
Guard
p3397
(dp3398
g20
I01
sg21
(lp3399
sg36
I00
sg28
V#
sg38
I00
sg39
S'R'
sbsg52
(irule
FeatureMatrix
p3400
(dp3401
g25
(lp3402
sg28
V[  ]
p3403
sbsg28
V[  ] ---> -2 / [ +back -high ] [  ] _ #
p3404
sba(irule
Rule
p3405
(dp3406
g17
(irule
Guard
p3407
(dp3408
g20
I00
sg21
(lp3409
(irule
FeatureMatrix
p3410
(dp3411
g25
(lp3412
sg28
V[  ]
p3413
sba(irule
FeatureMatrix
p3414
(dp3415
g25
(lp3416
(I01
g2995
tp3417
asg28
V[ +low ]
p3418
sbasg36
I00
sg28
V[ +low ] [  ]
p3419
sg38
I00
sg39
S'L'
sbsg40
(irule
ConstantPhoneme
p3420
(dp3421
S'p'
Va
sbsg48
(irule
Guard
p3422
(dp3423
g20
I00
sg21
(lp3424
sg36
I00
sg28
V
sg38
I00
sg39
S'R'
sbsg52
(irule
FeatureMatrix
p3425
(dp3426
g25
(lp3427
(I01
g3135
tp3428
asg28
V[ +continuant ]
p3429
sbsg28
V[ +continuant ] ---> a / [ +low ] [  ] _ 
p3430
sba(irule
Rule
p3431
(dp3432
g17
(irule
Guard
p3433
(dp3434
g20
I00
sg21
(lp3435
(irule
FeatureMatrix
p3436
(dp3437
g25
(lp3438
(I00
S'sibilant'
p3439
tp3440
asg28
V[ -sibilant ]
p3441
sba(irule
FeatureMatrix
p3442
(dp3443
g25
(lp3444
(I01
g2995
tp3445
asg28
V[ +low ]
p3446
sbasg36
I00
sg28
V[ +low ] [ -sibilant ]
p3447
sg38
I00
sg39
S'L'
sbsg40
(irule
OffsetSpecification
p3448
(dp3449
g147
I-2
sbsg48
(irule
Guard
p3450
(dp3451
g20
I00
sg21
(lp3452
sg36
I00
sg28
V
sg38
I00
sg39
S'R'
sbsg52
(irule
ConstantPhoneme
p3453
(dp3454
S'p'
V\u0259
sbsg28
V\u0259 ---> -2 / [ +low ] [ -sibilant ] _ 
p3455
sba(irule
Rule
p3456
(dp3457
g17
(irule
Guard
p3458
(dp3459
g20
I00
sg21
(lp3460
(irule
FeatureMatrix
p3461
(dp3462
g25
(lp3463
sg28
V[  ]
p3464
sba(irule
FeatureMatrix
p3465
(dp3466
g25
(lp3467
(I01
g2995
tp3468
asg28
V[ +low ]
p3469
sbasg36
I00
sg28
V[ +low ] [  ]
p3470
sg38
I00
sg39
S'L'
sbsg40
(irule
OffsetSpecification
p3471
(dp3472
g147
I-2
sbsg48
(irule
Guard
p3473
(dp3474
g20
I01
sg21
(lp3475
sg36
I00
sg28
V#
sg38
I00
sg39
S'R'
sbsg52
(irule
FeatureMatrix
p3476
(dp3477
g25
(lp3478
(I00
g3439
tp3479
asg28
V[ -sibilant ]
p3480
sbsg28
V[ -sibilant ] ---> -2 / [ +low ] [  ] _ #
p3481
sba(irule
Rule
p3482
(dp3483
g17
(irule
Guard
p3484
(dp3485
g20
I00
sg21
(lp3486
(irule
FeatureMatrix
p3487
(dp3488
g25
(lp3489
sg28
V[  ]
p3490
sba(irule
FeatureMatrix
p3491
(dp3492
g25
(lp3493
(I01
g3309
tp3494
a(I01
g2995
tp3495
asg28
V[ +back +low ]
p3496
sbasg36
I00
sg28
V[ +back +low ] [  ]
p3497
sg38
I00
sg39
S'L'
sbsg40
(irule
OffsetSpecification
p3498
(dp3499
g147
I-2
sbsg48
(irule
Guard
p3500
(dp3501
g20
I00
sg21
(lp3502
sg36
I00
sg28
V
sg38
I00
sg39
S'R'
sbsg52
(irule
FeatureMatrix
p3503
(dp3504
g25
(lp3505
(I01
g3135
tp3506
asg28
V[ +continuant ]
p3507
sbsg28
V[ +continuant ] ---> -2 / [ +back +low ] [  ] _ 
p3508
sba(irule
Rule
p3509
(dp3510
g17
(irule
Guard
p3511
(dp3512
g20
I00
sg21
(lp3513
(irule
FeatureMatrix
p3514
(dp3515
g25
(lp3516
sg28
V[  ]
p3517
sba(irule
FeatureMatrix
p3518
(dp3519
g25
(lp3520
(I01
g2995
tp3521
asg28
V[ +low ]
p3522
sbasg36
I00
sg28
V[ +low ] [  ]
p3523
sg38
I00
sg39
S'L'
sbsg40
(irule
OffsetSpecification
p3524
(dp3525
g147
I-2
sbsg48
(irule
Guard
p3526
(dp3527
g20
I01
sg21
(lp3528
sg36
I00
sg28
V#
sg38
I00
sg39
S'R'
sbsg52
(irule
FeatureMatrix
p3529
(dp3530
g25
(lp3531
(I01
g3007
tp3532
asg28
V[ +vowel ]
p3533
sbsg28
V[ +vowel ] ---> -2 / [ +low ] [  ] _ #
p3534
sba(irule
Rule
p3535
(dp3536
g17
(irule
Guard
p3537
(dp3538
g20
I00
sg21
(lp3539
(irule
FeatureMatrix
p3540
(dp3541
g25
(lp3542
sg28
V[  ]
p3543
sba(irule
FeatureMatrix
p3544
(dp3545
g25
(lp3546
(I00
g2971
tp3547
asg28
V[ -high ]
p3548
sbasg36
I00
sg28
V[ -high ] [  ]
p3549
sg38
I00
sg39
S'L'
sbsg40
(irule
OffsetSpecification
p3550
(dp3551
g147
I-2
sbsg48
(irule
Guard
p3552
(dp3553
g20
I01
sg21
(lp3554
sg36
I00
sg28
V#
sg38
I00
sg39
S'R'
sbsg52
(irule
FeatureMatrix
p3555
(dp3556
g25
(lp3557
(I00
S'rounded'
p3558
tp3559
asg28
V[ -rounded ]
p3560
sbsg28
V[ -rounded ] ---> -2 / [ -high ] [  ] _ #
p3561
sba(irule
Rule
p3562
(dp3563
g17
(irule
Guard
p3564
(dp3565
g20
I00
sg21
(lp3566
(irule
FeatureMatrix
p3567
(dp3568
g25
(lp3569
sg28
V[  ]
p3570
sba(irule
FeatureMatrix
p3571
(dp3572
g25
(lp3573
(I00
g2971
tp3574
a(I01
g3375
tp3575
asg28
V[ +tense -high ]
p3576
sbasg36
I00
sg28
V[ +tense -high ] [  ]
p3577
sg38
I00
sg39
S'L'
sbsg40
(irule
OffsetSpecification
p3578
(dp3579
g147
I-2
sbsg48
(irule
Guard
p3580
(dp3581
g20
I00
sg21
(lp3582
sg36
I00
sg28
V
sg38
I00
sg39
S'R'
sbsg52
(irule
FeatureMatrix
p3583
(dp3584
g25
(lp3585
(I01
g3135
tp3586
asg28
V[ +continuant ]
p3587
sbsg28
V[ +continuant ] ---> -2 / [ +tense -high ] [  ] _ 
p3588
sba(irule
Rule
p3589
(dp3590
g17
(irule
Guard
p3591
(dp3592
g20
I00
sg21
(lp3593
(irule
FeatureMatrix
p3594
(dp3595
g25
(lp3596
sg28
V[  ]
p3597
sba(irule
FeatureMatrix
p3598
(dp3599
g25
(lp3600
(I01
g2995
tp3601
asg28
V[ +low ]
p3602
sbasg36
I00
sg28
V[ +low ] [  ]
p3603
sg38
I00
sg39
S'L'
sbsg40
(irule
OffsetSpecification
p3604
(dp3605
g147
I-2
sbsg48
(irule
Guard
p3606
(dp3607
g20
I01
sg21
(lp3608
sg36
I00
sg28
V#
sg38
I00
sg39
S'R'
sbsg52
(irule
FeatureMatrix
p3609
(dp3610
g25
(lp3611
(I01
g3135
tp3612
asg28
V[ +continuant ]
p3613
sbsg28
V[ +continuant ] ---> -2 / [ +low ] [  ] _ #
p3614
sba(irule
Rule
p3615
(dp3616
g17
(irule
Guard
p3617
(dp3618
g20
I00
sg21
(lp3619
(irule
FeatureMatrix
p3620
(dp3621
g25
(lp3622
(I00
g3061
tp3623
asg28
V[ -voice ]
p3624
sba(irule
ConstantPhoneme
p3625
(dp3626
S'p'
Va
sbasg36
I00
sg28
Va [ -voice ]
p3627
sg38
I00
sg39
S'L'
sbsg40
(irule
OffsetSpecification
p3628
(dp3629
g147
I-2
sbsg48
(irule
Guard
p3630
(dp3631
g20
I00
sg21
(lp3632
sg36
I00
sg28
V
sg38
I00
sg39
S'R'
sbsg52
(irule
FeatureMatrix
p3633
(dp3634
g25
(lp3635
(I01
g3061
tp3636
asg28
V[ +voice ]
p3637
sbsg28
V[ +voice ] ---> -2 / a [ -voice ] _ 
p3638
sba(irule
Rule
p3639
(dp3640
g17
(irule
Guard
p3641
(dp3642
g20
I00
sg21
(lp3643
(irule
FeatureMatrix
p3644
(dp3645
g25
(lp3646
sg28
V[  ]
p3647
sba(irule
FeatureMatrix
p3648
(dp3649
g25
(lp3650
(I00
g2971
tp3651
asg28
V[ -high ]
p3652
sbasg36
I00
sg28
V[ -high ] [  ]
p3653
sg38
I00
sg39
S'L'
sbsg40
(irule
OffsetSpecification
p3654
(dp3655
g147
I-2
sbsg48
(irule
Guard
p3656
(dp3657
g20
I00
sg21
(lp3658
sg36
I00
sg28
V
sg38
I00
sg39
S'R'
sbsg52
(irule
FeatureMatrix
p3659
(dp3660
g25
(lp3661
(I00
g3375
tp3662
a(I01
g3007
tp3663
asg28
V[ +vowel -tense ]
p3664
sbsg28
V[ +vowel -tense ] ---> -2 / [ -high ] [  ] _ 
p3665
sba(irule
Rule
p3666
(dp3667
g17
(irule
Guard
p3668
(dp3669
g20
I00
sg21
(lp3670
(irule
FeatureMatrix
p3671
(dp3672
g25
(lp3673
sg28
V[  ]
p3674
sba(irule
FeatureMatrix
p3675
(dp3676
g25
(lp3677
(I00
g2971
tp3678
asg28
V[ -high ]
p3679
sbasg36
I00
sg28
V[ -high ] [  ]
p3680
sg38
I00
sg39
S'L'
sbsg40
(irule
OffsetSpecification
p3681
(dp3682
g147
I-2
sbsg48
(irule
Guard
p3683
(dp3684
g20
I01
sg21
(lp3685
sg36
I00
sg28
V#
sg38
I00
sg39
S'R'
sbsg52
(irule
FeatureMatrix
p3686
(dp3687
g25
(lp3688
(I00
g3375
tp3689
asg28
V[ -tense ]
p3690
sbsg28
V[ -tense ] ---> -2 / [ -high ] [  ] _ #
p3691
sba(irule
Rule
p3692
(dp3693
g17
(irule
Guard
p3694
(dp3695
g20
I00
sg21
(lp3696
(irule
FeatureMatrix
p3697
(dp3698
g25
(lp3699
sg28
V[  ]
p3700
sba(irule
FeatureMatrix
p3701
(dp3702
g25
(lp3703
(I01
g2995
tp3704
asg28
V[ +low ]
p3705
sbasg36
I00
sg28
V[ +low ] [  ]
p3706
sg38
I00
sg39
S'L'
sbsg40
(irule
ConstantPhoneme
p3707
(dp3708
S'p'
Va
sbsg48
(irule
Guard
p3709
(dp3710
g20
I00
sg21
(lp3711
sg36
I00
sg28
V
sg38
I00
sg39
S'R'
sbsg52
(irule
ConstantPhoneme
p3712
(dp3713
S'p'
V\u0259
sbsg28
V\u0259 ---> a / [ +low ] [  ] _ 
p3714
sba(irule
Rule
p3715
(dp3716
g17
(irule
Guard
p3717
(dp3718
g20
I00
sg21
(lp3719
(irule
FeatureMatrix
p3720
(dp3721
g25
(lp3722
sg28
V[  ]
p3723
sba(irule
FeatureMatrix
p3724
(dp3725
g25
(lp3726
(I01
g2995
tp3727
asg28
V[ +low ]
p3728
sbasg36
I00
sg28
V[ +low ] [  ]
p3729
sg38
I00
sg39
S'L'
sbsg40
(irule
OffsetSpecification
p3730
(dp3731
g147
I-2
sbsg48
(irule
Guard
p3732
(dp3733
g20
I01
sg21
(lp3734
sg36
I00
sg28
V#
sg38
I00
sg39
S'R'
sbsg52
(irule
ConstantPhoneme
p3735
(dp3736
S'p'
V\u0259
sbsg28
V\u0259 ---> -2 / [ +low ] [  ] _ #
p3737
sba(irule
Rule
p3738
(dp3739
g17
(irule
Guard
p3740
(dp3741
g20
I00
sg21
(lp3742
(irule
FeatureMatrix
p3743
(dp3744
g25
(lp3745
sg28
V[  ]
p3746
sba(irule
FeatureMatrix
p3747
(dp3748
g25
(lp3749
(I00
g2971
tp3750
a(I01
g3375
tp3751
asg28
V[ +tense -high ]
p3752
sbasg36
I00
sg28
V[ +tense -high ] [  ]
p3753
sg38
I00
sg39
S'L'
sbsg40
(irule
OffsetSpecification
p3754
(dp3755
g147
I-2
sbsg48
(irule
Guard
p3756
(dp3757
g20
I01
sg21
(lp3758
sg36
I00
sg28
V#
sg38
I00
sg39
S'R'
sbsg52
(irule
FeatureMatrix
p3759
(dp3760
g25
(lp3761
sg28
V[  ]
p3762
sbsg28
V[  ] ---> -2 / [ +tense -high ] [  ] _ #
p3763
sba(irule
Rule
p3764
(dp3765
g17
(irule
Guard
p3766
(dp3767
g20
I00
sg21
(lp3768
(irule
FeatureMatrix
p3769
(dp3770
g25
(lp3771
sg28
V[  ]
p3772
sba(irule
FeatureMatrix
p3773
(dp3774
g25
(lp3775
(I00
g2971
tp3776
asg28
V[ -high ]
p3777
sbasg36
I00
sg28
V[ -high ] [  ]
p3778
sg38
I00
sg39
S'L'
sbsg40
(irule
OffsetSpecification
p3779
(dp3780
g147
I-2
sbsg48
(irule
Guard
p3781
(dp3782
g20
I00
sg21
(lp3783
sg36
I00
sg28
V
sg38
I00
sg39
S'R'
sbsg52
(irule
FeatureMatrix
p3784
(dp3785
g25
(lp3786
(I00
g3558
tp3787
a(I01
g3007
tp3788
asg28
V[ +vowel -rounded ]
p3789
sbsg28
V[ +vowel -rounded ] ---> -2 / [ -high ] [  ] _ 
p3790
sba(irule
Rule
p3791
(dp3792
g17
(irule
Guard
p3793
(dp3794
g20
I00
sg21
(lp3795
(irule
FeatureMatrix
p3796
(dp3797
g25
(lp3798
sg28
V[  ]
p3799
sba(irule
FeatureMatrix
p3800
(dp3801
g25
(lp3802
(I01
g3135
tp3803
a(I00
g2971
tp3804
asg28
V[ +continuant -high ]
p3805
sbasg36
I00
sg28
V[ +continuant -high ] [  ]
p3806
sg38
I00
sg39
S'L'
sbsg40
(irule
OffsetSpecification
p3807
(dp3808
g147
I-2
sbsg48
(irule
Guard
p3809
(dp3810
g20
I01
sg21
(lp3811
sg36
I00
sg28
V#
sg38
I00
sg39
S'R'
sbsg52
(irule
FeatureMatrix
p3812
(dp3813
g25
(lp3814
sg28
V[  ]
p3815
sbsg28
V[  ] ---> -2 / [ +continuant -high ] [  ] _ #
p3816
sba(irule
Rule
p3817
(dp3818
g17
(irule
Guard
p3819
(dp3820
g20
I00
sg21
(lp3821
(irule
FeatureMatrix
p3822
(dp3823
g25
(lp3824
(I00
S'palatal'
tp3825
asg28
V[ -palatal ]
p3826
sba(irule
FeatureMatrix
p3827
(dp3828
g25
(lp3829
(I01
g2995
tp3830
asg28
V[ +low ]
p3831
sbasg36
I00
sg28
V[ +low ] [ -palatal ]
p3832
sg38
I00
sg39
S'L'
sbsg40
(irule
OffsetSpecification
p3833
(dp3834
g147
I-2
sbsg48
(irule
Guard
p3835
(dp3836
g20
I01
sg21
(lp3837
sg36
I00
sg28
V#
sg38
I00
sg39
S'R'
sbsg52
(irule
FeatureMatrix
p3838
(dp3839
g25
(lp3840
sg28
V[  ]
p3841
sbsg28
V[  ] ---> -2 / [ +low ] [ -palatal ] _ #
p3842
sba(irule
Rule
p3843
(dp3844
g17
(irule
Guard
p3845
(dp3846
g20
I00
sg21
(lp3847
(irule
FeatureMatrix
p3848
(dp3849
g25
(lp3850
sg28
V[  ]
p3851
sba(irule
FeatureMatrix
p3852
(dp3853
g25
(lp3854
(I00
g2971
tp3855
asg28
V[ -high ]
p3856
sbasg36
I00
sg28
V[ -high ] [  ]
p3857
sg38
I00
sg39
S'L'
sbsg40
(irule
OffsetSpecification
p3858
(dp3859
g147
I-2
sbsg48
(irule
Guard
p3860
(dp3861
g20
I00
sg21
(lp3862
sg36
I00
sg28
V
sg38
I00
sg39
S'R'
sbsg52
(irule
FeatureMatrix
p3863
(dp3864
g25
(lp3865
(I00
g3375
tp3866
a(I01
g3061
tp3867
asg28
V[ +voice -tense ]
p3868
sbsg28
V[ +voice -tense ] ---> -2 / [ -high ] [  ] _ 
p3869
sba(irule
Rule
p3870
(dp3871
g17
(irule
Guard
p3872
(dp3873
g20
I00
sg21
(lp3874
(irule
FeatureMatrix
p3875
(dp3876
g25
(lp3877
sg28
V[  ]
p3878
sba(irule
FeatureMatrix
p3879
(dp3880
g25
(lp3881
(I00
g2971
tp3882
asg28
V[ -high ]
p3883
sbasg36
I00
sg28
V[ -high ] [  ]
p3884
sg38
I00
sg39
S'L'
sbsg40
(irule
OffsetSpecification
p3885
(dp3886
g147
I-2
sbsg48
(irule
Guard
p3887
(dp3888
g20
I01
sg21
(lp3889
sg36
I00
sg28
V#
sg38
I00
sg39
S'R'
sbsg52
(irule
ConstantPhoneme
p3890
(dp3891
S'p'
V\u0259
sbsg28
V\u0259 ---> -2 / [ -high ] [  ] _ #
p3892
sba(irule
Rule
p3893
(dp3894
g17
(irule
Guard
p3895
(dp3896
g20
I00
sg21
(lp3897
(irule
FeatureMatrix
p3898
(dp3899
g25
(lp3900
sg28
V[  ]
p3901
sba(irule
FeatureMatrix
p3902
(dp3903
g25
(lp3904
(I01
g3309
tp3905
a(I00
g2971
tp3906
asg28
V[ +back -high ]
p3907
sbasg36
I00
sg28
V[ +back -high ] [  ]
p3908
sg38
I00
sg39
S'L'
sbsg40
(irule
OffsetSpecification
p3909
(dp3910
g147
I-2
sbsg48
(irule
Guard
p3911
(dp3912
g20
I00
sg21
(lp3913
sg36
I00
sg28
V
sg38
I00
sg39
S'R'
sbsg52
(irule
FeatureMatrix
p3914
(dp3915
g25
(lp3916
(I01
g3007
tp3917
asg28
V[ +vowel ]
p3918
sbsg28
V[ +vowel ] ---> -2 / [ +back -high ] [  ] _ 
p3919
sba(irule
Rule
p3920
(dp3921
g17
(irule
Guard
p3922
(dp3923
g20
I00
sg21
(lp3924
(irule
FeatureMatrix
p3925
(dp3926
g25
(lp3927
sg28
V[  ]
p3928
sba(irule
FeatureMatrix
p3929
(dp3930
g25
(lp3931
(I01
g2995
tp3932
asg28
V[ +low ]
p3933
sbasg36
I00
sg28
V[ +low ] [  ]
p3934
sg38
I00
sg39
S'L'
sbsg40
(irule
ConstantPhoneme
p3935
(dp3936
S'p'
Va
sbsg48
(irule
Guard
p3937
(dp3938
g20
I00
sg21
(lp3939
sg36
I00
sg28
V
sg38
I00
sg39
S'R'
sbsg52
(irule
FeatureMatrix
p3940
(dp3941
g25
(lp3942
(I01
g3034
tp3943
asg28
V[ +sonorant ]
p3944
sbsg28
V[ +sonorant ] ---> a / [ +low ] [  ] _ 
p3945
sba(irule
Rule
p3946
(dp3947
g17
(irule
Guard
p3948
(dp3949
g20
I00
sg21
(lp3950
(irule
FeatureMatrix
p3951
(dp3952
g25
(lp3953
sg28
V[  ]
p3954
sba(irule
FeatureMatrix
p3955
(dp3956
g25
(lp3957
(I00
g2971
tp3958
a(I01
g3061
tp3959
asg28
V[ +voice -high ]
p3960
sbasg36
I00
sg28
V[ +voice -high ] [  ]
p3961
sg38
I00
sg39
S'L'
sbsg40
(irule
OffsetSpecification
p3962
(dp3963
g147
I-2
sbsg48
(irule
Guard
p3964
(dp3965
g20
I01
sg21
(lp3966
sg36
I00
sg28
V#
sg38
I00
sg39
S'R'
sbsg52
(irule
FeatureMatrix
p3967
(dp3968
g25
(lp3969
sg28
V[  ]
p3970
sbsg28
V[  ] ---> -2 / [ +voice -high ] [  ] _ #
p3971
sba(irule
Rule
p3972
(dp3973
g17
(irule
Guard
p3974
(dp3975
g20
I00
sg21
(lp3976
(irule
FeatureMatrix
p3977
(dp3978
g25
(lp3979
sg28
V[  ]
p3980
sba(irule
FeatureMatrix
p3981
(dp3982
g25
(lp3983
(I01
g3135
tp3984
a(I00
g2971
tp3985
asg28
V[ +continuant -high ]
p3986
sbasg36
I00
sg28
V[ +continuant -high ] [  ]
p3987
sg38
I00
sg39
S'L'
sbsg40
(irule
OffsetSpecification
p3988
(dp3989
g147
I-2
sbsg48
(irule
Guard
p3990
(dp3991
g20
I00
sg21
(lp3992
sg36
I00
sg28
V
sg38
I00
sg39
S'R'
sbsg52
(irule
FeatureMatrix
p3993
(dp3994
g25
(lp3995
(I01
g3135
tp3996
asg28
V[ +continuant ]
p3997
sbsg28
V[ +continuant ] ---> -2 / [ +continuant -high ] [  ] _ 
p3998
sba(irule
Rule
p3999
(dp4000
g17
(irule
Guard
p4001
(dp4002
g20
I00
sg21
(lp4003
(irule
FeatureMatrix
p4004
(dp4005
g25
(lp4006
sg28
V[  ]
p4007
sba(irule
ConstantPhoneme
p4008
(dp4009
S'p'
Va
sbasg36
I00
sg28
Va [  ]
p4010
sg38
I00
sg39
S'L'
sbsg40
(irule
OffsetSpecification
p4011
(dp4012
g147
I-2
sbsg48
(irule
Guard
p4013
(dp4014
g20
I01
sg21
(lp4015
sg36
I00
sg28
V#
sg38
I00
sg39
S'R'
sbsg52
(irule
ConstantPhoneme
p4016
(dp4017
S'p'
V\u0259
sbsg28
V\u0259 ---> -2 / a [  ] _ #
p4018
sba(irule
Rule
p4019
(dp4020
g17
(irule
Guard
p4021
(dp4022
g20
I00
sg21
(lp4023
(irule
FeatureMatrix
p4024
(dp4025
g25
(lp4026
sg28
V[  ]
p4027
sba(irule
FeatureMatrix
p4028
(dp4029
g25
(lp4030
(I00
g2971
tp4031
a(I00
g3439
tp4032
asg28
V[ -high -sibilant ]
p4033
sbasg36
I00
sg28
V[ -high -sibilant ] [  ]
p4034
sg38
I00
sg39
S'L'
sbsg40
(irule
OffsetSpecification
p4035
(dp4036
g147
I-2
sbsg48
(irule
Guard
p4037
(dp4038
g20
I00
sg21
(lp4039
sg36
I00
sg28
V
sg38
I00
sg39
S'R'
sbsg52
(irule
ConstantPhoneme
p4040
(dp4041
S'p'
V\u0259
sbsg28
V\u0259 ---> -2 / [ -high -sibilant ] [  ] _ 
p4042
sba(irule
Rule
p4043
(dp4044
g17
(irule
Guard
p4045
(dp4046
g20
I00
sg21
(lp4047
(irule
FeatureMatrix
p4048
(dp4049
g25
(lp4050
sg28
V[  ]
p4051
sba(irule
FeatureMatrix
p4052
(dp4053
g25
(lp4054
(I00
g2971
tp4055
asg28
V[ -high ]
p4056
sbasg36
I00
sg28
V[ -high ] [  ]
p4057
sg38
I00
sg39
S'L'
sbsg40
(irule
OffsetSpecification
p4058
(dp4059
g147
I-2
sbsg48
(irule
Guard
p4060
(dp4061
g20
I00
sg21
(lp4062
sg36
I00
sg28
V
sg38
I00
sg39
S'R'
sbsg52
(irule
FeatureMatrix
p4063
(dp4064
g25
(lp4065
(I00
g3558
tp4066
a(I01
g3135
tp4067
asg28
V[ +continuant -rounded ]
p4068
sbsg28
V[ +continuant -rounded ] ---> -2 / [ -high ] [  ] _ 
p4069
sba(irule
Rule
p4070
(dp4071
g17
(irule
Guard
p4072
(dp4073
g20
I00
sg21
(lp4074
(irule
FeatureMatrix
p4075
(dp4076
g25
(lp4077
sg28
V[  ]
p4078
sba(irule
FeatureMatrix
p4079
(dp4080
g25
(lp4081
(I00
g2971
tp4082
asg28
V[ -high ]
p4083
sbasg36
I00
sg28
V[ -high ] [  ]
p4084
sg38
I00
sg39
S'L'
sbsg40
(irule
OffsetSpecification
p4085
(dp4086
g147
I-2
sbsg48
(irule
Guard
p4087
(dp4088
g20
I00
sg21
(lp4089
sg36
I00
sg28
V
sg38
I00
sg39
S'R'
sbsg52
(irule
FeatureMatrix
p4090
(dp4091
g25
(lp4092
(I00
g3558
tp4093
a(I01
g3061
tp4094
asg28
V[ +voice -rounded ]
p4095
sbsg28
V[ +voice -rounded ] ---> -2 / [ -high ] [  ] _ 
p4096
sba(irule
Rule
p4097
(dp4098
g17
(irule
Guard
p4099
(dp4100
g20
I00
sg21
(lp4101
(irule
FeatureMatrix
p4102
(dp4103
g25
(lp4104
sg28
V[  ]
p4105
sba(irule
FeatureMatrix
p4106
(dp4107
g25
(lp4108
(I01
g3309
tp4109
a(I00
g2971
tp4110
asg28
V[ +back -high ]
p4111
sbasg36
I00
sg28
V[ +back -high ] [  ]
p4112
sg38
I00
sg39
S'L'
sbsg40
(irule
OffsetSpecification
p4113
(dp4114
g147
I-2
sbsg48
(irule
Guard
p4115
(dp4116
g20
I00
sg21
(lp4117
sg36
I00
sg28
V
sg38
I00
sg39
S'R'
sbsg52
(irule
FeatureMatrix
p4118
(dp4119
g25
(lp4120
(I01
g3034
tp4121
asg28
V[ +sonorant ]
p4122
sbsg28
V[ +sonorant ] ---> -2 / [ +back -high ] [  ] _ 
p4123
sba(irule
Rule
p4124
(dp4125
g17
(irule
Guard
p4126
(dp4127
g20
I00
sg21
(lp4128
(irule
FeatureMatrix
p4129
(dp4130
g25
(lp4131
sg28
V[  ]
p4132
sba(irule
ConstantPhoneme
p4133
(dp4134
S'p'
Va
sbasg36
I00
sg28
Va [  ]
p4135
sg38
I00
sg39
S'L'
sbsg40
(irule
OffsetSpecification
p4136
(dp4137
g147
I-2
sbsg48
(irule
Guard
p4138
(dp4139
g20
I00
sg21
(lp4140
sg36
I00
sg28
V
sg38
I00
sg39
S'R'
sbsg52
(irule
FeatureMatrix
p4141
(dp4142
g25
(lp4143
(I01
g3007
tp4144
a(I00
g3439
tp4145
asg28
V[ +vowel -sibilant ]
p4146
sbsg28
V[ +vowel -sibilant ] ---> -2 / a [  ] _ 
p4147
sba(irule
Rule
p4148
(dp4149
g17
(irule
Guard
p4150
(dp4151
g20
I00
sg21
(lp4152
(irule
FeatureMatrix
p4153
(dp4154
g25
(lp4155
sg28
V[  ]
p4156
sba(irule
FeatureMatrix
p4157
(dp4158
g25
(lp4159
(I01
g3309
tp4160
a(I00
g2971
tp4161
asg28
V[ +back -high ]
p4162
sbasg36
I00
sg28
V[ +back -high ] [  ]
p4163
sg38
I00
sg39
S'L'
sbsg40
(irule
OffsetSpecification
p4164
(dp4165
g147
I-2
sbsg48
(irule
Guard
p4166
(dp4167
g20
I00
sg21
(lp4168
sg36
I00
sg28
V
sg38
I00
sg39
S'R'
sbsg52
(irule
FeatureMatrix
p4169
(dp4170
g25
(lp4171
(I00
g2971
tp4172
asg28
V[ -high ]
p4173
sbsg28
V[ -high ] ---> -2 / [ +back -high ] [  ] _ 
p4174
sba(irule
Rule
p4175
(dp4176
g17
(irule
Guard
p4177
(dp4178
g20
I00
sg21
(lp4179
(irule
FeatureMatrix
p4180
(dp4181
g25
(lp4182
sg28
V[  ]
p4183
sba(irule
FeatureMatrix
p4184
(dp4185
g25
(lp4186
(I01
g3309
tp4187
a(I01
g2995
tp4188
asg28
V[ +back +low ]
p4189
sbasg36
I00
sg28
V[ +back +low ] [  ]
p4190
sg38
I00
sg39
S'L'
sbsg40
(irule
OffsetSpecification
p4191
(dp4192
g147
I-2
sbsg48
(irule
Guard
p4193
(dp4194
g20
I01
sg21
(lp4195
sg36
I00
sg28
V#
sg38
I00
sg39
S'R'
sbsg52
(irule
FeatureMatrix
p4196
(dp4197
g25
(lp4198
sg28
V[  ]
p4199
sbsg28
V[  ] ---> -2 / [ +back +low ] [  ] _ #
p4200
sba(irule
Rule
p4201
(dp4202
g17
(irule
Guard
p4203
(dp4204
g20
I00
sg21
(lp4205
(irule
FeatureMatrix
p4206
(dp4207
g25
(lp4208
sg28
V[  ]
p4209
sba(irule
FeatureMatrix
p4210
(dp4211
g25
(lp4212
(I00
g2971
tp4213
asg28
V[ -high ]
p4214
sbasg36
I00
sg28
V[ -high ] [  ]
p4215
sg38
I00
sg39
S'L'
sbsg40
(irule
OffsetSpecification
p4216
(dp4217
g147
I-2
sbsg48
(irule
Guard
p4218
(dp4219
g20
I00
sg21
(lp4220
sg36
I00
sg28
V
sg38
I00
sg39
S'R'
sbsg52
(irule
FeatureMatrix
p4221
(dp4222
g25
(lp4223
(I00
g3558
tp4224
a(I01
g3034
tp4225
asg28
V[ +sonorant -rounded ]
p4226
sbsg28
V[ +sonorant -rounded ] ---> -2 / [ -high ] [  ] _ 
p4227
sba(irule
Rule
p4228
(dp4229
g17
(irule
Guard
p4230
(dp4231
g20
I00
sg21
(lp4232
(irule
FeatureMatrix
p4233
(dp4234
g25
(lp4235
(I00
g3439
tp4236
asg28
V[ -sibilant ]
p4237
sba(irule
FeatureMatrix
p4238
(dp4239
g25
(lp4240
(I01
g2995
tp4241
asg28
V[ +low ]
p4242
sbasg36
I00
sg28
V[ +low ] [ -sibilant ]
p4243
sg38
I00
sg39
S'L'
sbsg40
(irule
OffsetSpecification
p4244
(dp4245
g147
I-2
sbsg48
(irule
Guard
p4246
(dp4247
g20
I01
sg21
(lp4248
sg36
I00
sg28
V#
sg38
I00
sg39
S'R'
sbsg52
(irule
FeatureMatrix
p4249
(dp4250
g25
(lp4251
sg28
V[  ]
p4252
sbsg28
V[  ] ---> -2 / [ +low ] [ -sibilant ] _ #
p4253
sba(irule
Rule
p4254
(dp4255
g17
(irule
Guard
p4256
(dp4257
g20
I00
sg21
(lp4258
(irule
FeatureMatrix
p4259
(dp4260
g25
(lp4261
sg28
V[  ]
p4262
sba(irule
FeatureMatrix
p4263
(dp4264
g25
(lp4265
(I01
g2995
tp4266
asg28
V[ +low ]
p4267
sbasg36
I00
sg28
V[ +low ] [  ]
p4268
sg38
I00
sg39
S'L'
sbsg40
(irule
OffsetSpecification
p4269
(dp4270
g147
I-2
sbsg48
(irule
Guard
p4271
(dp4272
g20
I00
sg21
(lp4273
sg36
I00
sg28
V
sg38
I00
sg39
S'R'
sbsg52
(irule
FeatureMatrix
p4274
(dp4275
g25
(lp4276
(I00
g3439
tp4277
a(I01
g3061
tp4278
asg28
V[ +voice -sibilant ]
p4279
sbsg28
V[ +voice -sibilant ] ---> -2 / [ +low ] [  ] _ 
p4280
sba(irule
Rule
p4281
(dp4282
g17
(irule
Guard
p4283
(dp4284
g20
I00
sg21
(lp4285
(irule
FeatureMatrix
p4286
(dp4287
g25
(lp4288
sg28
V[  ]
p4289
sba(irule
FeatureMatrix
p4290
(dp4291
g25
(lp4292
(I01
g3135
tp4293
a(I00
g2971
tp4294
asg28
V[ +continuant -high ]
p4295
sbasg36
I00
sg28
V[ +continuant -high ] [  ]
p4296
sg38
I00
sg39
S'L'
sbsg40
(irule
OffsetSpecification
p4297
(dp4298
g147
I-2
sbsg48
(irule
Guard
p4299
(dp4300
g20
I00
sg21
(lp4301
sg36
I00
sg28
V
sg38
I00
sg39
S'R'
sbsg52
(irule
ConstantPhoneme
p4302
(dp4303
S'p'
V\u0259
sbsg28
V\u0259 ---> -2 / [ +continuant -high ] [  ] _ 
p4304
sba(irule
Rule
p4305
(dp4306
g17
(irule
Guard
p4307
(dp4308
g20
I00
sg21
(lp4309
(irule
FeatureMatrix
p4310
(dp4311
g25
(lp4312
sg28
V[  ]
p4313
sba(irule
FeatureMatrix
p4314
(dp4315
g25
(lp4316
(I00
S'anterior'
p4317
tp4318
a(I00
g2971
tp4319
asg28
V[ -anterior -high ]
p4320
sbasg36
I00
sg28
V[ -anterior -high ] [  ]
p4321
sg38
I00
sg39
S'L'
sbsg40
(irule
OffsetSpecification
p4322
(dp4323
g147
I-2
sbsg48
(irule
Guard
p4324
(dp4325
g20
I01
sg21
(lp4326
sg36
I00
sg28
V#
sg38
I00
sg39
S'R'
sbsg52
(irule
FeatureMatrix
p4327
(dp4328
g25
(lp4329
sg28
V[  ]
p4330
sbsg28
V[  ] ---> -2 / [ -anterior -high ] [  ] _ #
p4331
sba(irule
Rule
p4332
(dp4333
g17
(irule
Guard
p4334
(dp4335
g20
I00
sg21
(lp4336
(irule
FeatureMatrix
p4337
(dp4338
g25
(lp4339
sg28
V[  ]
p4340
sba(irule
FeatureMatrix
p4341
(dp4342
g25
(lp4343
(I01
g3309
tp4344
a(I00
g2971
tp4345
asg28
V[ +back -high ]
p4346
sbasg36
I00
sg28
V[ +back -high ] [  ]
p4347
sg38
I00
sg39
S'L'
sbsg40
(irule
OffsetSpecification
p4348
(dp4349
g147
I-2
sbsg48
(irule
Guard
p4350
(dp4351
g20
I00
sg21
(lp4352
sg36
I00
sg28
V
sg38
I00
sg39
S'R'
sbsg52
(irule
FeatureMatrix
p4353
(dp4354
g25
(lp4355
(I01
g3061
tp4356
asg28
V[ +voice ]
p4357
sbsg28
V[ +voice ] ---> -2 / [ +back -high ] [  ] _ 
p4358
sba(irule
Rule
p4359
(dp4360
g17
(irule
Guard
p4361
(dp4362
g20
I00
sg21
(lp4363
(irule
FeatureMatrix
p4364
(dp4365
g25
(lp4366
sg28
V[  ]
p4367
sba(irule
FeatureMatrix
p4368
(dp4369
g25
(lp4370
(I01
g3309
tp4371
a(I01
g2995
tp4372
asg28
V[ +back +low ]
p4373
sbasg36
I00
sg28
V[ +back +low ] [  ]
p4374
sg38
I00
sg39
S'L'
sbsg40
(irule
OffsetSpecification
p4375
(dp4376
g147
I-2
sbsg48
(irule
Guard
p4377
(dp4378
g20
I00
sg21
(lp4379
sg36
I00
sg28
V
sg38
I00
sg39
S'R'
sbsg52
(irule
FeatureMatrix
p4380
(dp4381
g25
(lp4382
(I00
g2971
tp4383
asg28
V[ -high ]
p4384
sbsg28
V[ -high ] ---> -2 / [ +back +low ] [  ] _ 
p4385
sba(irule
Rule
p4386
(dp4387
g17
(irule
Guard
p4388
(dp4389
g20
I00
sg21
(lp4390
(irule
FeatureMatrix
p4391
(dp4392
g25
(lp4393
sg28
V[  ]
p4394
sba(irule
FeatureMatrix
p4395
(dp4396
g25
(lp4397
(I01
g2995
tp4398
asg28
V[ +low ]
p4399
sbasg36
I00
sg28
V[ +low ] [  ]
p4400
sg38
I00
sg39
S'L'
sbsg40
(irule
OffsetSpecification
p4401
(dp4402
g147
I-2
sbsg48
(irule
Guard
p4403
(dp4404
g20
I00
sg21
(lp4405
sg36
I00
sg28
V
sg38
I00
sg39
S'R'
sbsg52
(irule
FeatureMatrix
p4406
(dp4407
g25
(lp4408
(I00
g3558
tp4409
a(I01
g3135
tp4410
asg28
V[ +continuant -rounded ]
p4411
sbsg28
V[ +continuant -rounded ] ---> -2 / [ +low ] [  ] _ 
p4412
sba(irule
Rule
p4413
(dp4414
g17
(irule
Guard
p4415
(dp4416
g20
I00
sg21
(lp4417
(irule
FeatureMatrix
p4418
(dp4419
g25
(lp4420
sg28
V[  ]
p4421
sba(irule
FeatureMatrix
p4422
(dp4423
g25
(lp4424
(I01
g2995
tp4425
asg28
V[ +low ]
p4426
sbasg36
I00
sg28
V[ +low ] [  ]
p4427
sg38
I00
sg39
S'L'
sbsg40
(irule
OffsetSpecification
p4428
(dp4429
g147
I-2
sbsg48
(irule
Guard
p4430
(dp4431
g20
I00
sg21
(lp4432
sg36
I00
sg28
V
sg38
I00
sg39
S'R'
sbsg52
(irule
FeatureMatrix
p4433
(dp4434
g25
(lp4435
(I01
g3135
tp4436
a(I00
g3375
tp4437
asg28
V[ +continuant -tense ]
p4438
sbsg28
V[ +continuant -tense ] ---> -2 / [ +low ] [  ] _ 
p4439
sba(irule
Rule
p4440
(dp4441
g17
(irule
Guard
p4442
(dp4443
g20
I00
sg21
(lp4444
(irule
FeatureMatrix
p4445
(dp4446
g25
(lp4447
sg28
V[  ]
p4448
sba(irule
FeatureMatrix
p4449
(dp4450
g25
(lp4451
(I00
g2971
tp4452
asg28
V[ -high ]
p4453
sbasg36
I00
sg28
V[ -high ] [  ]
p4454
sg38
I00
sg39
S'L'
sbsg40
(irule
OffsetSpecification
p4455
(dp4456
g147
I-2
sbsg48
(irule
Guard
p4457
(dp4458
g20
I00
sg21
(lp4459
sg36
I00
sg28
V
sg38
I00
sg39
S'R'
sbsg52
(irule
FeatureMatrix
p4460
(dp4461
g25
(lp4462
(I01
g3034
tp4463
a(I00
g3375
tp4464
asg28
V[ +sonorant -tense ]
p4465
sbsg28
V[ +sonorant -tense ] ---> -2 / [ -high ] [  ] _ 
p4466
sba(irule
Rule
p4467
(dp4468
g17
(irule
Guard
p4469
(dp4470
g20
I00
sg21
(lp4471
(irule
FeatureMatrix
p4472
(dp4473
g25
(lp4474
sg28
V[  ]
p4475
sba(irule
FeatureMatrix
p4476
(dp4477
g25
(lp4478
(I01
g3034
tp4479
a(I00
g2971
tp4480
asg28
V[ +sonorant -high ]
p4481
sbasg36
I00
sg28
V[ +sonorant -high ] [  ]
p4482
sg38
I00
sg39
S'L'
sbsg40
(irule
OffsetSpecification
p4483
(dp4484
g147
I-2
sbsg48
(irule
Guard
p4485
(dp4486
g20
I01
sg21
(lp4487
sg36
I00
sg28
V#
sg38
I00
sg39
S'R'
sbsg52
(irule
FeatureMatrix
p4488
(dp4489
g25
(lp4490
sg28
V[  ]
p4491
sbsg28
V[  ] ---> -2 / [ +sonorant -high ] [  ] _ #
p4492
sba(irule
Rule
p4493
(dp4494
g17
(irule
Guard
p4495
(dp4496
g20
I00
sg21
(lp4497
(irule
FeatureMatrix
p4498
(dp4499
g25
(lp4500
(I00
g3439
tp4501
asg28
V[ -sibilant ]
p4502
sba(irule
FeatureMatrix
p4503
(dp4504
g25
(lp4505
(I00
g2971
tp4506
asg28
V[ -high ]
p4507
sbasg36
I00
sg28
V[ -high ] [ -sibilant ]
p4508
sg38
I00
sg39
S'L'
sbsg40
(irule
OffsetSpecification
p4509
(dp4510
g147
I-2
sbsg48
(irule
Guard
p4511
(dp4512
g20
I00
sg21
(lp4513
sg36
I00
sg28
V
sg38
I00
sg39
S'R'
sbsg52
(irule
ConstantPhoneme
p4514
(dp4515
S'p'
V\u0259
sbsg28
V\u0259 ---> -2 / [ -high ] [ -sibilant ] _ 
p4516
sba(irule
Rule
p4517
(dp4518
g17
(irule
Guard
p4519
(dp4520
g20
I00
sg21
(lp4521
(irule
FeatureMatrix
p4522
(dp4523
g25
(lp4524
(I00
g3439
tp4525
asg28
V[ -sibilant ]
p4526
sba(irule
FeatureMatrix
p4527
(dp4528
g25
(lp4529
(I01
g2995
tp4530
asg28
V[ +low ]
p4531
sbasg36
I00
sg28
V[ +low ] [ -sibilant ]
p4532
sg38
I00
sg39
S'L'
sbsg40
(irule
OffsetSpecification
p4533
(dp4534
g147
I-2
sbsg48
(irule
Guard
p4535
(dp4536
g20
I00
sg21
(lp4537
sg36
I00
sg28
V
sg38
I00
sg39
S'R'
sbsg52
(irule
FeatureMatrix
p4538
(dp4539
g25
(lp4540
(I01
g3061
tp4541
asg28
V[ +voice ]
p4542
sbsg28
V[ +voice ] ---> -2 / [ +low ] [ -sibilant ] _ 
p4543
sba(irule
Rule
p4544
(dp4545
g17
(irule
Guard
p4546
(dp4547
g20
I00
sg21
(lp4548
(irule
FeatureMatrix
p4549
(dp4550
g25
(lp4551
sg28
V[  ]
p4552
sba(irule
FeatureMatrix
p4553
(dp4554
g25
(lp4555
(I01
g2995
tp4556
asg28
V[ +low ]
p4557
sbasg36
I00
sg28
V[ +low ] [  ]
p4558
sg38
I00
sg39
S'L'
sbsg40
(irule
OffsetSpecification
p4559
(dp4560
g147
I-2
sbsg48
(irule
Guard
p4561
(dp4562
g20
I00
sg21
(lp4563
sg36
I00
sg28
V
sg38
I00
sg39
S'R'
sbsg52
(irule
FeatureMatrix
p4564
(dp4565
g25
(lp4566
(I00
g2995
tp4567
a(I01
g3007
tp4568
asg28
V[ +vowel -low ]
p4569
sbsg28
V[ +vowel -low ] ---> -2 / [ +low ] [  ] _ 
p4570
sba(irule
Rule
p4571
(dp4572
g17
(irule
Guard
p4573
(dp4574
g20
I00
sg21
(lp4575
(irule
FeatureMatrix
p4576
(dp4577
g25
(lp4578
sg28
V[  ]
p4579
sba(irule
FeatureMatrix
p4580
(dp4581
g25
(lp4582
(I01
g2995
tp4583
a(I01
g3061
tp4584
asg28
V[ +low +voice ]
p4585
sbasg36
I00
sg28
V[ +low +voice ] [  ]
p4586
sg38
I00
sg39
S'L'
sbsg40
(irule
OffsetSpecification
p4587
(dp4588
g147
I-2
sbsg48
(irule
Guard
p4589
(dp4590
g20
I00
sg21
(lp4591
sg36
I00
sg28
V
sg38
I00
sg39
S'R'
sbsg52
(irule
ConstantPhoneme
p4592
(dp4593
S'p'
V\u0259
sbsg28
V\u0259 ---> -2 / [ +low +voice ] [  ] _ 
p4594
sba(irule
Rule
p4595
(dp4596
g17
(irule
Guard
p4597
(dp4598
g20
I00
sg21
(lp4599
(irule
FeatureMatrix
p4600
(dp4601
g25
(lp4602
sg28
V[  ]
p4603
sba(irule
FeatureMatrix
p4604
(dp4605
g25
(lp4606
(I01
g2995
tp4607
asg28
V[ +low ]
p4608
sbasg36
I00
sg28
V[ +low ] [  ]
p4609
sg38
I00
sg39
S'L'
sbsg40
(irule
OffsetSpecification
p4610
(dp4611
g147
I-2
sbsg48
(irule
Guard
p4612
(dp4613
g20
I00
sg21
(lp4614
sg36
I00
sg28
V
sg38
I00
sg39
S'R'
sbsg52
(irule
FeatureMatrix
p4615
(dp4616
g25
(lp4617
(I00
g2995
tp4618
a(I01
g3061
tp4619
asg28
V[ +voice -low ]
p4620
sbsg28
V[ +voice -low ] ---> -2 / [ +low ] [  ] _ 
p4621
sba(irule
Rule
p4622
(dp4623
g17
(irule
Guard
p4624
(dp4625
g20
I00
sg21
(lp4626
(irule
FeatureMatrix
p4627
(dp4628
g25
(lp4629
sg28
V[  ]
p4630
sba(irule
FeatureMatrix
p4631
(dp4632
g25
(lp4633
(I00
g2971
tp4634
a(I01
g3375
tp4635
asg28
V[ +tense -high ]
p4636
sbasg36
I00
sg28
V[ +tense -high ] [  ]
p4637
sg38
I00
sg39
S'L'
sbsg40
(irule
OffsetSpecification
p4638
(dp4639
g147
I-2
sbsg48
(irule
Guard
p4640
(dp4641
g20
I00
sg21
(lp4642
sg36
I00
sg28
V
sg38
I00
sg39
S'R'
sbsg52
(irule
FeatureMatrix
p4643
(dp4644
g25
(lp4645
(I01
g3007
tp4646
asg28
V[ +vowel ]
p4647
sbsg28
V[ +vowel ] ---> -2 / [ +tense -high ] [  ] _ 
p4648
sba(irule
Rule
p4649
(dp4650
g17
(irule
Guard
p4651
(dp4652
g20
I00
sg21
(lp4653
(irule
FeatureMatrix
p4654
(dp4655
g25
(lp4656
sg28
V[  ]
p4657
sba(irule
FeatureMatrix
p4658
(dp4659
g25
(lp4660
(I01
g2995
tp4661
asg28
V[ +low ]
p4662
sbasg36
I00
sg28
V[ +low ] [  ]
p4663
sg38
I00
sg39
S'L'
sbsg40
(irule
OffsetSpecification
p4664
(dp4665
g147
I-2
sbsg48
(irule
Guard
p4666
(dp4667
g20
I01
sg21
(lp4668
sg36
I00
sg28
V#
sg38
I00
sg39
S'R'
sbsg52
(irule
FeatureMatrix
p4669
(dp4670
g25
(lp4671
(I00
g3558
tp4672
asg28
V[ -rounded ]
p4673
sbsg28
V[ -rounded ] ---> -2 / [ +low ] [  ] _ #
p4674
sba(irule
Rule
p4675
(dp4676
g17
(irule
Guard
p4677
(dp4678
g20
I00
sg21
(lp4679
(irule
FeatureMatrix
p4680
(dp4681
g25
(lp4682
(I00
g3061
tp4683
asg28
V[ -voice ]
p4684
sba(irule
FeatureMatrix
p4685
(dp4686
g25
(lp4687
(I01
g2995
tp4688
asg28
V[ +low ]
p4689
sbasg36
I00
sg28
V[ +low ] [ -voice ]
p4690
sg38
I00
sg39
S'L'
sbsg40
(irule
OffsetSpecification
p4691
(dp4692
g147
I-2
sbsg48
(irule
Guard
p4693
(dp4694
g20
I01
sg21
(lp4695
sg36
I00
sg28
V#
sg38
I00
sg39
S'R'
sbsg52
(irule
FeatureMatrix
p4696
(dp4697
g25
(lp4698
sg28
V[  ]
p4699
sbsg28
V[  ] ---> -2 / [ +low ] [ -voice ] _ #
p4700
sba(irule
Rule
p4701
(dp4702
g17
(irule
Guard
p4703
(dp4704
g20
I00
sg21
(lp4705
(irule
FeatureMatrix
p4706
(dp4707
g25
(lp4708
(I00
S'nasal'
p4709
tp4710
asg28
V[ -nasal ]
p4711
sba(irule
FeatureMatrix
p4712
(dp4713
g25
(lp4714
(I01
g2995
tp4715
asg28
V[ +low ]
p4716
sbasg36
I00
sg28
V[ +low ] [ -nasal ]
p4717
sg38
I00
sg39
S'L'
sbsg40
(irule
OffsetSpecification
p4718
(dp4719
g147
I-2
sbsg48
(irule
Guard
p4720
(dp4721
g20
I00
sg21
(lp4722
sg36
I00
sg28
V
sg38
I00
sg39
S'R'
sbsg52
(irule
ConstantPhoneme
p4723
(dp4724
S'p'
V\u0259
sbsg28
V\u0259 ---> -2 / [ +low ] [ -nasal ] _ 
p4725
sba(irule
Rule
p4726
(dp4727
g17
(irule
Guard
p4728
(dp4729
g20
I00
sg21
(lp4730
(irule
FeatureMatrix
p4731
(dp4732
g25
(lp4733
sg28
V[  ]
p4734
sba(irule
FeatureMatrix
p4735
(dp4736
g25
(lp4737
(I00
g2971
tp4738
a(I01
g3061
tp4739
asg28
V[ +voice -high ]
p4740
sbasg36
I00
sg28
V[ +voice -high ] [  ]
p4741
sg38
I00
sg39
S'L'
sbsg40
(irule
OffsetSpecification
p4742
(dp4743
g147
I-2
sbsg48
(irule
Guard
p4744
(dp4745
g20
I00
sg21
(lp4746
sg36
I00
sg28
V
sg38
I00
sg39
S'R'
sbsg52
(irule
FeatureMatrix
p4747
(dp4748
g25
(lp4749
(I01
g3135
tp4750
asg28
V[ +continuant ]
p4751
sbsg28
V[ +continuant ] ---> -2 / [ +voice -high ] [  ] _ 
p4752
sba(irule
Rule
p4753
(dp4754
g17
(irule
Guard
p4755
(dp4756
g20
I00
sg21
(lp4757
(irule
FeatureMatrix
p4758
(dp4759
g25
(lp4760
sg28
V[  ]
p4761
sba(irule
FeatureMatrix
p4762
(dp4763
g25
(lp4764
(I00
S'aspirated'
tp4765
a(I01
g2995
tp4766
asg28
V[ +low -aspirated ]
p4767
sbasg36
I00
sg28
V[ +low -aspirated ] [  ]
p4768
sg38
I00
sg39
S'L'
sbsg40
(irule
OffsetSpecification
p4769
(dp4770
g147
I-2
sbsg48
(irule
Guard
p4771
(dp4772
g20
I00
sg21
(lp4773
sg36
I00
sg28
V
sg38
I00
sg39
S'R'
sbsg52
(irule
FeatureMatrix
p4774
(dp4775
g25
(lp4776
(I01
g3135
tp4777
asg28
V[ +continuant ]
p4778
sbsg28
V[ +continuant ] ---> -2 / [ +low -aspirated ] [  ] _ 
p4779
sba(irule
Rule
p4780
(dp4781
g17
(irule
Guard
p4782
(dp4783
g20
I00
sg21
(lp4784
(irule
FeatureMatrix
p4785
(dp4786
g25
(lp4787
sg28
V[  ]
p4788
sba(irule
FeatureMatrix
p4789
(dp4790
g25
(lp4791
(I01
g2995
tp4792
asg28
V[ +low ]
p4793
sbasg36
I00
sg28
V[ +low ] [  ]
p4794
sg38
I00
sg39
S'L'
sbsg40
(irule
OffsetSpecification
p4795
(dp4796
g147
I-2
sbsg48
(irule
Guard
p4797
(dp4798
g20
I00
sg21
(lp4799
sg36
I00
sg28
V
sg38
I00
sg39
S'R'
sbsg52
(irule
FeatureMatrix
p4800
(dp4801
g25
(lp4802
(I01
g3034
tp4803
a(I00
g3375
tp4804
asg28
V[ +sonorant -tense ]
p4805
sbsg28
V[ +sonorant -tense ] ---> -2 / [ +low ] [  ] _ 
p4806
sba(irule
Rule
p4807
(dp4808
g17
(irule
Guard
p4809
(dp4810
g20
I00
sg21
(lp4811
(irule
FeatureMatrix
p4812
(dp4813
g25
(lp4814
sg28
V[  ]
p4815
sba(irule
FeatureMatrix
p4816
(dp4817
g25
(lp4818
(I01
g3309
tp4819
a(I00
g2971
tp4820
asg28
V[ +back -high ]
p4821
sbasg36
I00
sg28
V[ +back -high ] [  ]
p4822
sg38
I00
sg39
S'L'
sbsg40
(irule
OffsetSpecification
p4823
(dp4824
g147
I-2
sbsg48
(irule
Guard
p4825
(dp4826
g20
I00
sg21
(lp4827
sg36
I00
sg28
V
sg38
I00
sg39
S'R'
sbsg52
(irule
ConstantPhoneme
p4828
(dp4829
S'p'
V\u0259
sbsg28
V\u0259 ---> -2 / [ +back -high ] [  ] _ 
p4830
sba(irule
Rule
p4831
(dp4832
g17
(irule
Guard
p4833
(dp4834
g20
I00
sg21
(lp4835
(irule
FeatureMatrix
p4836
(dp4837
g25
(lp4838
sg28
V[  ]
p4839
sba(irule
ConstantPhoneme
p4840
(dp4841
S'p'
Va
sbasg36
I00
sg28
Va [  ]
p4842
sg38
I00
sg39
S'L'
sbsg40
(irule
ConstantPhoneme
p4843
(dp4844
S'p'
Va
sbsg48
(irule
Guard
p4845
(dp4846
g20
I00
sg21
(lp4847
sg36
I00
sg28
V
sg38
I00
sg39
S'R'
sbsg52
(irule
ConstantPhoneme
p4848
(dp4849
S'p'
V\u0259
sbsg28
V\u0259 ---> a / a [  ] _ 
p4850
sba(irule
Rule
p4851
(dp4852
g17
(irule
Guard
p4853
(dp4854
g20
I00
sg21
(lp4855
(irule
FeatureMatrix
p4856
(dp4857
g25
(lp4858
sg28
V[  ]
p4859
sba(irule
FeatureMatrix
p4860
(dp4861
g25
(lp4862
(I01
g2995
tp4863
asg28
V[ +low ]
p4864
sbasg36
I00
sg28
V[ +low ] [  ]
p4865
sg38
I00
sg39
S'L'
sbsg40
(irule
OffsetSpecification
p4866
(dp4867
g147
I-2
sbsg48
(irule
Guard
p4868
(dp4869
g20
I00
sg21
(lp4870
sg36
I00
sg28
V
sg38
I00
sg39
S'R'
sbsg52
(irule
FeatureMatrix
p4871
(dp4872
g25
(lp4873
(I01
g3007
tp4874
a(I00
g3439
tp4875
asg28
V[ +vowel -sibilant ]
p4876
sbsg28
V[ +vowel -sibilant ] ---> -2 / [ +low ] [  ] _ 
p4877
sba(irule
Rule
p4878
(dp4879
g17
(irule
Guard
p4880
(dp4881
g20
I00
sg21
(lp4882
(irule
FeatureMatrix
p4883
(dp4884
g25
(lp4885
sg28
V[  ]
p4886
sba(irule
FeatureMatrix
p4887
(dp4888
g25
(lp4889
(I01
g2995
tp4890
asg28
V[ +low ]
p4891
sbasg36
I00
sg28
V[ +low ] [  ]
p4892
sg38
I00
sg39
S'L'
sbsg40
(irule
OffsetSpecification
p4893
(dp4894
g147
I-2
sbsg48
(irule
Guard
p4895
(dp4896
g20
I01
sg21
(lp4897
sg36
I00
sg28
V#
sg38
I00
sg39
S'R'
sbsg52
(irule
FeatureMatrix
p4898
(dp4899
g25
(lp4900
(I00
g3375
tp4901
asg28
V[ -tense ]
p4902
sbsg28
V[ -tense ] ---> -2 / [ +low ] [  ] _ #
p4903
sba(irule
Rule
p4904
(dp4905
g17
(irule
Guard
p4906
(dp4907
g20
I00
sg21
(lp4908
(irule
FeatureMatrix
p4909
(dp4910
g25
(lp4911
(I00
g3061
tp4912
asg28
V[ -voice ]
p4913
sba(irule
FeatureMatrix
p4914
(dp4915
g25
(lp4916
(I00
g2971
tp4917
asg28
V[ -high ]
p4918
sbasg36
I00
sg28
V[ -high ] [ -voice ]
p4919
sg38
I00
sg39
S'L'
sbsg40
(irule
OffsetSpecification
p4920
(dp4921
g147
I-2
sbsg48
(irule
Guard
p4922
(dp4923
g20
I00
sg21
(lp4924
sg36
I00
sg28
V
sg38
I00
sg39
S'R'
sbsg52
(irule
ConstantPhoneme
p4925
(dp4926
S'p'
V\u0259
sbsg28
V\u0259 ---> -2 / [ -high ] [ -voice ] _ 
p4927
sba(irule
Rule
p4928
(dp4929
g17
(irule
Guard
p4930
(dp4931
g20
I00
sg21
(lp4932
(irule
FeatureMatrix
p4933
(dp4934
g25
(lp4935
sg28
V[  ]
p4936
sba(irule
FeatureMatrix
p4937
(dp4938
g25
(lp4939
(I01
g2995
tp4940
asg28
V[ +low ]
p4941
sbasg36
I00
sg28
V[ +low ] [  ]
p4942
sg38
I00
sg39
S'L'
sbsg40
(irule
OffsetSpecification
p4943
(dp4944
g147
I-2
sbsg48
(irule
Guard
p4945
(dp4946
g20
I00
sg21
(lp4947
sg36
I00
sg28
V
sg38
I00
sg39
S'R'
sbsg52
(irule
FeatureMatrix
p4948
(dp4949
g25
(lp4950
(I00
g3558
tp4951
a(I01
g3007
tp4952
asg28
V[ +vowel -rounded ]
p4953
sbsg28
V[ +vowel -rounded ] ---> -2 / [ +low ] [  ] _ 
p4954
sba(irule
Rule
p4955
(dp4956
g17
(irule
Guard
p4957
(dp4958
g20
I00
sg21
(lp4959
(irule
FeatureMatrix
p4960
(dp4961
g25
(lp4962
sg28
V[  ]
p4963
sba(irule
FeatureMatrix
p4964
(dp4965
g25
(lp4966
(I01
g2995
tp4967
asg28
V[ +low ]
p4968
sbasg36
I00
sg28
V[ +low ] [  ]
p4969
sg38
I00
sg39
S'L'
sbsg40
(irule
ConstantPhoneme
p4970
(dp4971
S'p'
Va
sbsg48
(irule
Guard
p4972
(dp4973
g20
I00
sg21
(lp4974
sg36
I00
sg28
V
sg38
I00
sg39
S'R'
sbsg52
(irule
FeatureMatrix
p4975
(dp4976
g25
(lp4977
(I01
g3007
tp4978
asg28
V[ +vowel ]
p4979
sbsg28
V[ +vowel ] ---> a / [ +low ] [  ] _ 
p4980
sba(irule
Rule
p4981
(dp4982
g17
(irule
Guard
p4983
(dp4984
g20
I00
sg21
(lp4985
(irule
FeatureMatrix
p4986
(dp4987
g25
(lp4988
sg28
V[  ]
p4989
sba(irule
ConstantPhoneme
p4990
(dp4991
S'p'
Va
sbasg36
I00
sg28
Va [  ]
p4992
sg38
I00
sg39
S'L'
sbsg40
(irule
OffsetSpecification
p4993
(dp4994
g147
I-2
sbsg48
(irule
Guard
p4995
(dp4996
g20
I01
sg21
(lp4997
sg36
I00
sg28
V#
sg38
I00
sg39
S'R'
sbsg52
(irule
FeatureMatrix
p4998
(dp4999
g25
(lp5000
(I00
g3558
tp5001
asg28
V[ -rounded ]
p5002
sbsg28
V[ -rounded ] ---> -2 / a [  ] _ #
p5003
sba(irule
Rule
p5004
(dp5005
g17
(irule
Guard
p5006
(dp5007
g20
I00
sg21
(lp5008
(irule
FeatureMatrix
p5009
(dp5010
g25
(lp5011
sg28
V[  ]
p5012
sba(irule
FeatureMatrix
p5013
(dp5014
g25
(lp5015
(I01
g2995
tp5016
asg28
V[ +low ]
p5017
sbasg36
I00
sg28
V[ +low ] [  ]
p5018
sg38
I00
sg39
S'L'
sbsg40
(irule
ConstantPhoneme
p5019
(dp5020
S'p'
Va
sbsg48
(irule
Guard
p5021
(dp5022
g20
I00
sg21
(lp5023
sg36
I00
sg28
V
sg38
I00
sg39
S'R'
sbsg52
(irule
FeatureMatrix
p5024
(dp5025
g25
(lp5026
(I01
g3061
tp5027
asg28
V[ +voice ]
p5028
sbsg28
V[ +voice ] ---> a / [ +low ] [  ] _ 
p5029
sba(irule
Rule
p5030
(dp5031
g17
(irule
Guard
p5032
(dp5033
g20
I00
sg21
(lp5034
(irule
FeatureMatrix
p5035
(dp5036
g25
(lp5037
sg28
V[  ]
p5038
sba(irule
ConstantPhoneme
p5039
(dp5040
S'p'
Va
sbasg36
I00
sg28
Va [  ]
p5041
sg38
I00
sg39
S'L'
sbsg40
(irule
OffsetSpecification
p5042
(dp5043
g147
I-2
sbsg48
(irule
Guard
p5044
(dp5045
g20
I00
sg21
(lp5046
sg36
I00
sg28
V
sg38
I00
sg39
S'R'
sbsg52
(irule
FeatureMatrix
p5047
(dp5048
g25
(lp5049
(I01
g3007
tp5050
a(I01
g3061
tp5051
asg28
V[ +voice +vowel ]
p5052
sbsg28
V[ +voice +vowel ] ---> -2 / a [  ] _ 
p5053
sba(irule
Rule
p5054
(dp5055
g17
(irule
Guard
p5056
(dp5057
g20
I00
sg21
(lp5058
(irule
FeatureMatrix
p5059
(dp5060
g25
(lp5061
sg28
V[  ]
p5062
sba(irule
ConstantPhoneme
p5063
(dp5064
S'p'
Va
sbasg36
I00
sg28
Va [  ]
p5065
sg38
I00
sg39
S'L'
sbsg40
(irule
OffsetSpecification
p5066
(dp5067
g147
I-2
sbsg48
(irule
Guard
p5068
(dp5069
g20
I01
sg21
(lp5070
sg36
I00
sg28
V#
sg38
I00
sg39
S'R'
sbsg52
(irule
FeatureMatrix
p5071
(dp5072
g25
(lp5073
(I00
g3375
tp5074
asg28
V[ -tense ]
p5075
sbsg28
V[ -tense ] ---> -2 / a [  ] _ #
p5076
sba(irule
Rule
p5077
(dp5078
g17
(irule
Guard
p5079
(dp5080
g20
I00
sg21
(lp5081
(irule
FeatureMatrix
p5082
(dp5083
g25
(lp5084
sg28
V[  ]
p5085
sba(irule
FeatureMatrix
p5086
(dp5087
g25
(lp5088
(I00
g2971
tp5089
a(I01
g3007
tp5090
asg28
V[ +vowel -high ]
p5091
sbasg36
I00
sg28
V[ +vowel -high ] [  ]
p5092
sg38
I00
sg39
S'L'
sbsg40
(irule
OffsetSpecification
p5093
(dp5094
g147
I-2
sbsg48
(irule
Guard
p5095
(dp5096
g20
I01
sg21
(lp5097
sg36
I00
sg28
V#
sg38
I00
sg39
S'R'
sbsg52
(irule
FeatureMatrix
p5098
(dp5099
g25
(lp5100
sg28
V[  ]
p5101
sbsg28
V[  ] ---> -2 / [ +vowel -high ] [  ] _ #
p5102
sba(irule
Rule
p5103
(dp5104
g17
(irule
Guard
p5105
(dp5106
g20
I00
sg21
(lp5107
(irule
FeatureMatrix
p5108
(dp5109
g25
(lp5110
sg28
V[  ]
p5111
sba(irule
FeatureMatrix
p5112
(dp5113
g25
(lp5114
(I00
g2971
tp5115
a(I01
g3061
tp5116
asg28
V[ +voice -high ]
p5117
sbasg36
I00
sg28
V[ +voice -high ] [  ]
p5118
sg38
I00
sg39
S'L'
sbsg40
(irule
OffsetSpecification
p5119
(dp5120
g147
I-2
sbsg48
(irule
Guard
p5121
(dp5122
g20
I00
sg21
(lp5123
sg36
I00
sg28
V
sg38
I00
sg39
S'R'
sbsg52
(irule
FeatureMatrix
p5124
(dp5125
g25
(lp5126
(I01
g3007
tp5127
asg28
V[ +vowel ]
p5128
sbsg28
V[ +vowel ] ---> -2 / [ +voice -high ] [  ] _ 
p5129
sba(irule
Rule
p5130
(dp5131
g17
(irule
Guard
p5132
(dp5133
g20
I00
sg21
(lp5134
(irule
FeatureMatrix
p5135
(dp5136
g25
(lp5137
sg28
V[  ]
p5138
sba(irule
FeatureMatrix
p5139
(dp5140
g25
(lp5141
(I01
g3135
tp5142
a(I00
g2971
tp5143
asg28
V[ +continuant -high ]
p5144
sbasg36
I00
sg28
V[ +continuant -high ] [  ]
p5145
sg38
I00
sg39
S'L'
sbsg40
(irule
OffsetSpecification
p5146
(dp5147
g147
I-2
sbsg48
(irule
Guard
p5148
(dp5149
g20
I00
sg21
(lp5150
sg36
I00
sg28
V
sg38
I00
sg39
S'R'
sbsg52
(irule
FeatureMatrix
p5151
(dp5152
g25
(lp5153
(I01
g3061
tp5154
asg28
V[ +voice ]
p5155
sbsg28
V[ +voice ] ---> -2 / [ +continuant -high ] [  ] _ 
p5156
sba(irule
Rule
p5157
(dp5158
g17
(irule
Guard
p5159
(dp5160
g20
I00
sg21
(lp5161
(irule
FeatureMatrix
p5162
(dp5163
g25
(lp5164
sg28
V[  ]
p5165
sba(irule
FeatureMatrix
p5166
(dp5167
g25
(lp5168
(I00
g3558
tp5169
a(I01
g3309
tp5170
asg28
V[ +back -rounded ]
p5171
sbasg36
I00
sg28
V[ +back -rounded ] [  ]
p5172
sg38
I00
sg39
S'L'
sbsg40
(irule
OffsetSpecification
p5173
(dp5174
g147
I-2
sbsg48
(irule
Guard
p5175
(dp5176
g20
I00
sg21
(lp5177
sg36
I00
sg28
V
sg38
I00
sg39
S'R'
sbsg52
(irule
ConstantPhoneme
p5178
(dp5179
S'p'
V\u0259
sbsg28
V\u0259 ---> -2 / [ +back -rounded ] [  ] _ 
p5180
sba(irule
Rule
p5181
(dp5182
g17
(irule
Guard
p5183
(dp5184
g20
I00
sg21
(lp5185
(irule
FeatureMatrix
p5186
(dp5187
g25
(lp5188
(I00
g4709
tp5189
asg28
V[ -nasal ]
p5190
sba(irule
FeatureMatrix
p5191
(dp5192
g25
(lp5193
(I00
g2971
tp5194
asg28
V[ -high ]
p5195
sbasg36
I00
sg28
V[ -high ] [ -nasal ]
p5196
sg38
I00
sg39
S'L'
sbsg40
(irule
OffsetSpecification
p5197
(dp5198
g147
I-2
sbsg48
(irule
Guard
p5199
(dp5200
g20
I00
sg21
(lp5201
sg36
I00
sg28
V
sg38
I00
sg39
S'R'
sbsg52
(irule
ConstantPhoneme
p5202
(dp5203
S'p'
V\u0259
sbsg28
V\u0259 ---> -2 / [ -high ] [ -nasal ] _ 
p5204
sba(irule
Rule
p5205
(dp5206
g17
(irule
Guard
p5207
(dp5208
g20
I00
sg21
(lp5209
(irule
FeatureMatrix
p5210
(dp5211
g25
(lp5212
sg28
V[  ]
p5213
sba(irule
FeatureMatrix
p5214
(dp5215
g25
(lp5216
(I00
g2971
tp5217
a(I00
S'coronal'
p5218
tp5219
asg28
V[ -coronal -high ]
p5220
sbasg36
I00
sg28
V[ -coronal -high ] [  ]
p5221
sg38
I00
sg39
S'L'
sbsg40
(irule
OffsetSpecification
p5222
(dp5223
g147
I-2
sbsg48
(irule
Guard
p5224
(dp5225
g20
I00
sg21
(lp5226
sg36
I00
sg28
V
sg38
I00
sg39
S'R'
sbsg52
(irule
ConstantPhoneme
p5227
(dp5228
S'p'
V\u0259
sbsg28
V\u0259 ---> -2 / [ -coronal -high ] [  ] _ 
p5229
sba(irule
Rule
p5230
(dp5231
g17
(irule
Guard
p5232
(dp5233
g20
I00
sg21
(lp5234
(irule
FeatureMatrix
p5235
(dp5236
g25
(lp5237
sg28
V[  ]
p5238
sba(irule
FeatureMatrix
p5239
(dp5240
g25
(lp5241
(I01
g2995
tp5242
a(I00
g3439
tp5243
asg28
V[ +low -sibilant ]
p5244
sbasg36
I00
sg28
V[ +low -sibilant ] [  ]
p5245
sg38
I00
sg39
S'L'
sbsg40
(irule
OffsetSpecification
p5246
(dp5247
g147
I-2
sbsg48
(irule
Guard
p5248
(dp5249
g20
I01
sg21
(lp5250
sg36
I00
sg28
V#
sg38
I00
sg39
S'R'
sbsg52
(irule
FeatureMatrix
p5251
(dp5252
g25
(lp5253
sg28
V[  ]
p5254
sbsg28
V[  ] ---> -2 / [ +low -sibilant ] [  ] _ #
p5255
sba(irule
Rule
p5256
(dp5257
g17
(irule
Guard
p5258
(dp5259
g20
I00
sg21
(lp5260
(irule
FeatureMatrix
p5261
(dp5262
g25
(lp5263
sg28
V[  ]
p5264
sba(irule
ConstantPhoneme
p5265
(dp5266
S'p'
Va
sbasg36
I00
sg28
Va [  ]
p5267
sg38
I00
sg39
S'L'
sbsg40
(irule
OffsetSpecification
p5268
(dp5269
g147
I-2
sbsg48
(irule
Guard
p5270
(dp5271
g20
I00
sg21
(lp5272
sg36
I00
sg28
V
sg38
I00
sg39
S'R'
sbsg52
(irule
FeatureMatrix
p5273
(dp5274
g25
(lp5275
(I00
g3439
tp5276
a(I01
g3061
tp5277
asg28
V[ +voice -sibilant ]
p5278
sbsg28
V[ +voice -sibilant ] ---> -2 / a [  ] _ 
p5279
sba(irule
Rule
p5280
(dp5281
g17
(irule
Guard
p5282
(dp5283
g20
I00
sg21
(lp5284
(irule
FeatureMatrix
p5285
(dp5286
g25
(lp5287
(I00
g3375
tp5288
asg28
V[ -tense ]
p5289
sba(irule
FeatureMatrix
p5290
(dp5291
g25
(lp5292
(I01
g2995
tp5293
asg28
V[ +low ]
p5294
sbasg36
I00
sg28
V[ +low ] [ -tense ]
p5295
sg38
I00
sg39
S'L'
sbsg40
(irule
OffsetSpecification
p5296
(dp5297
g147
I-2
sbsg48
(irule
Guard
p5298
(dp5299
g20
I01
sg21
(lp5300
sg36
I00
sg28
V#
sg38
I00
sg39
S'R'
sbsg52
(irule
FeatureMatrix
p5301
(dp5302
g25
(lp5303
sg28
V[  ]
p5304
sbsg28
V[  ] ---> -2 / [ +low ] [ -tense ] _ #
p5305
sba(irule
Rule
p5306
(dp5307
g17
(irule
Guard
p5308
(dp5309
g20
I00
sg21
(lp5310
(irule
FeatureMatrix
p5311
(dp5312
g25
(lp5313
sg28
V[  ]
p5314
sba(irule
FeatureMatrix
p5315
(dp5316
g25
(lp5317
(I00
g4317
tp5318
a(I00
g2971
tp5319
asg28
V[ -anterior -high ]
p5320
sbasg36
I00
sg28
V[ -anterior -high ] [  ]
p5321
sg38
I00
sg39
S'L'
sbsg40
(irule
OffsetSpecification
p5322
(dp5323
g147
I-2
sbsg48
(irule
Guard
p5324
(dp5325
g20
I00
sg21
(lp5326
sg36
I00
sg28
V
sg38
I00
sg39
S'R'
sbsg52
(irule
FeatureMatrix
p5327
(dp5328
g25
(lp5329
(I01
g3135
tp5330
asg28
V[ +continuant ]
p5331
sbsg28
V[ +continuant ] ---> -2 / [ -anterior -high ] [  ] _ 
p5332
sba(irule
Rule
p5333
(dp5334
g17
(irule
Guard
p5335
(dp5336
g20
I00
sg21
(lp5337
(irule
FeatureMatrix
p5338
(dp5339
g25
(lp5340
sg28
V[  ]
p5341
sba(irule
FeatureMatrix
p5342
(dp5343
g25
(lp5344
(I01
g2995
tp5345
asg28
V[ +low ]
p5346
sbasg36
I00
sg28
V[ +low ] [  ]
p5347
sg38
I00
sg39
S'L'
sbsg40
(irule
OffsetSpecification
p5348
(dp5349
g147
I-2
sbsg48
(irule
Guard
p5350
(dp5351
g20
I00
sg21
(lp5352
sg36
I00
sg28
V
sg38
I00
sg39
S'R'
sbsg52
(irule
FeatureMatrix
p5353
(dp5354
g25
(lp5355
(I01
g3135
tp5356
a(I00
g2971
tp5357
asg28
V[ +continuant -high ]
p5358
sbsg28
V[ +continuant -high ] ---> -2 / [ +low ] [  ] _ 
p5359
sba(irule
Rule
p5360
(dp5361
g17
(irule
Guard
p5362
(dp5363
g20
I00
sg21
(lp5364
(irule
FeatureMatrix
p5365
(dp5366
g25
(lp5367
sg28
V[  ]
p5368
sba(irule
FeatureMatrix
p5369
(dp5370
g25
(lp5371
(I00
g2971
tp5372
a(I01
g3007
tp5373
asg28
V[ +vowel -high ]
p5374
sbasg36
I00
sg28
V[ +vowel -high ] [  ]
p5375
sg38
I00
sg39
S'L'
sbsg40
(irule
OffsetSpecification
p5376
(dp5377
g147
I-2
sbsg48
(irule
Guard
p5378
(dp5379
g20
I00
sg21
(lp5380
sg36
I00
sg28
V
sg38
I00
sg39
S'R'
sbsg52
(irule
FeatureMatrix
p5381
(dp5382
g25
(lp5383
(I01
g3135
tp5384
asg28
V[ +continuant ]
p5385
sbsg28
V[ +continuant ] ---> -2 / [ +vowel -high ] [  ] _ 
p5386
sba(irule
Rule
p5387
(dp5388
g17
(irule
Guard
p5389
(dp5390
g20
I00
sg21
(lp5391
(irule
FeatureMatrix
p5392
(dp5393
g25
(lp5394
sg28
V[  ]
p5395
sba(irule
FeatureMatrix
p5396
(dp5397
g25
(lp5398
(I00
g4317
tp5399
a(I00
g2971
tp5400
asg28
V[ -anterior -high ]
p5401
sbasg36
I00
sg28
V[ -anterior -high ] [  ]
p5402
sg38
I00
sg39
S'L'
sbsg40
(irule
OffsetSpecification
p5403
(dp5404
g147
I-2
sbsg48
(irule
Guard
p5405
(dp5406
g20
I00
sg21
(lp5407
sg36
I00
sg28
V
sg38
I00
sg39
S'R'
sbsg52
(irule
FeatureMatrix
p5408
(dp5409
g25
(lp5410
(I01
g3061
tp5411
asg28
V[ +voice ]
p5412
sbsg28
V[ +voice ] ---> -2 / [ -anterior -high ] [  ] _ 
p5413
sba(irule
Rule
p5414
(dp5415
g17
(irule
Guard
p5416
(dp5417
g20
I00
sg21
(lp5418
(irule
FeatureMatrix
p5419
(dp5420
g25
(lp5421
sg28
V[  ]
p5422
sba(irule
ConstantPhoneme
p5423
(dp5424
S'p'
Va
sbasg36
I00
sg28
Va [  ]
p5425
sg38
I00
sg39
S'L'
sbsg40
(irule
OffsetSpecification
p5426
(dp5427
g147
I-2
sbsg48
(irule
Guard
p5428
(dp5429
g20
I01
sg21
(lp5430
sg36
I00
sg28
V#
sg38
I00
sg39
S'R'
sbsg52
(irule
FeatureMatrix
p5431
(dp5432
g25
(lp5433
(I00
g5218
tp5434
asg28
V[ -coronal ]
p5435
sbsg28
V[ -coronal ] ---> -2 / a [  ] _ #
p5436
sba(irule
Rule
p5437
(dp5438
g17
(irule
Guard
p5439
(dp5440
g20
I00
sg21
(lp5441
(irule
FeatureMatrix
p5442
(dp5443
g25
(lp5444
sg28
V[  ]
p5445
sba(irule
FeatureMatrix
p5446
(dp5447
g25
(lp5448
(I01
g2995
tp5449
asg28
V[ +low ]
p5450
sbasg36
I00
sg28
V[ +low ] [  ]
p5451
sg38
I00
sg39
S'L'
sbsg40
(irule
OffsetSpecification
p5452
(dp5453
g147
I-2
sbsg48
(irule
Guard
p5454
(dp5455
g20
I01
sg21
(lp5456
sg36
I00
sg28
V#
sg38
I00
sg39
S'R'
sbsg52
(irule
FeatureMatrix
p5457
(dp5458
g25
(lp5459
(I00
g2971
tp5460
asg28
V[ -high ]
p5461
sbsg28
V[ -high ] ---> -2 / [ +low ] [  ] _ #
p5462
sba(irule
Rule
p5463
(dp5464
g17
(irule
Guard
p5465
(dp5466
g20
I00
sg21
(lp5467
(irule
FeatureMatrix
p5468
(dp5469
g25
(lp5470
(I00
g3558
tp5471
asg28
V[ -rounded ]
p5472
sba(irule
FeatureMatrix
p5473
(dp5474
g25
(lp5475
(I01
g2995
tp5476
asg28
V[ +low ]
p5477
sbasg36
I00
sg28
V[ +low ] [ -rounded ]
p5478
sg38
I00
sg39
S'L'
sbsg40
(irule
OffsetSpecification
p5479
(dp5480
g147
I-2
sbsg48
(irule
Guard
p5481
(dp5482
g20
I00
sg21
(lp5483
sg36
I00
sg28
V
sg38
I00
sg39
S'R'
sbsg52
(irule
ConstantPhoneme
p5484
(dp5485
S'p'
V\u0259
sbsg28
V\u0259 ---> -2 / [ +low ] [ -rounded ] _ 
p5486
sbaasbsS'parameters'
p5487
g8
(cargparse
Namespace
p5488
g10
NtRp5489
(dp5490
S'dummy'
p5491
I00
sS'task'
p5492
S'incremental'
p5493
sS'features'
p5494
S'sophisticated'
p5495
sS'resume'
p5496
I00
sS'geometry'
p5497
I01
sS'top'
p5498
I1
sS'disableClean'
p5499
I00
sS'universal'
p5500
NsS'restrict'
p5501
NsS'window'
p5502
NsS'seed'
p5503
S'0'
sS'restore'
p5504
NsS'serial'
p5505
I00
sS'timeout'
p5506
F24
sS'debug'
p5507
NsS'cores'
p5508
I40
sg4
S'Odden_1.3_Korean'
p5509
sS'save'
p5510
NsS'verbosity'
p5511
I0
sS'alignment'
p5512
I00
sS'samples'
p5513
I30
sbsb.