(iresult
Result
p1
(dp2
S'startTime'
p3
F1633392443.8754671
sS'solutionSequence'
p4
(lp5
(ccopy_reg
_reconstructor
p6
(csolution
Solution
p7
c__builtin__
object
p8
NtRp9
(dp10
S'rules'
p11
(lp12
(irule
Rule
p13
(dp14
S'leftTriggers'
p15
(irule
Guard
p16
(dp17
S'endOfString'
p18
I00
sS'specifications'
p19
(lp20
sS'optionalEnding'
p21
I00
sS'representation'
p22
V
sS'starred'
p23
I00
sS'side'
p24
S'L'
sbsS'structuralChange'
p25
(irule
FeatureMatrix
p26
(dp27
S'featuresAndPolarities'
p28
(lp29
sg22
V[  ]
p30
sbsS'rightTriggers'
p31
(irule
Guard
p32
(dp33
g18
I00
sg19
(lp34
sg21
I00
sg22
V
sg23
I00
sg24
S'R'
sbsS'focus'
p35
(irule
FeatureMatrix
p36
(dp37
g28
(lp38
sg22
V[  ]
p39
sbsg22
V[  ] ---> [  ] /  _ 
p40
sbasS'prefixes'
p41
(lp42
(imorph
Morph
p43
(dp44
S'phonemes'
p45
(lp46
sbasS'underlyingForms'
p47
(dp48
((imorph
Morph
(dp49
g45
(lp50
Vz
aVu
aVn
aVd
aV\u0259
asbtp51
(imorph
Morph
p52
(dp53
g45
(lp54
Vz
aVu
aVn
aVd
asbs((imorph
Morph
p55
(dp56
g45
(lp57
Vz
aV\u025b
aVt
aV\u0259
asbtp58
(imorph
Morph
p59
(dp60
g45
(lp61
Vz
aV\u025b
aVt
asbs((imorph
Morph
p62
(dp63
g45
(lp64
Vk
aVl
aVo
aVv
aVd
aV\u0259
asbtp65
(imorph
Morph
p66
(dp67
g45
(lp68
Vk
aVl
aVo
aVv
aVd
asbs((imorph
Morph
(dp69
g45
(lp70
Vr
aVu
aVr
aVd
aV\u0259
asbtp71
(imorph
Morph
p72
(dp73
g45
(lp74
Vr
aVu
aVr
aVd
asbs((imorph
Morph
p75
(dp76
g45
(lp77
Vr
aVa
aVz
aVd
aV\u0259
asbtp78
(imorph
Morph
p79
(dp80
g45
(lp81
Vr
aVa
aVz
aVd
asbs((imorph
Morph
p82
(dp83
g45
(lp84
Vm
aVa
aVf
aVt
aV\u0259
asbtp85
(imorph
Morph
p86
(dp87
g45
(lp88
Vm
aVa
aVf
aVt
asbs((imorph
Morph
(dp89
g45
(lp90
Vl
aVa
aVx
aVt
aV\u0259
asbtp91
(imorph
Morph
p92
(dp93
g45
(lp94
Vl
aVa
aVx
aVt
asbs((imorph
Morph
(dp95
g45
(lp96
Vr
aV\u0254
aVl
aVd
aV\u0259
asbtp97
(imorph
Morph
p98
(dp99
g45
(lp100
Vr
aV\u0254
aVl
aVd
asbs((imorph
Morph
(dp101
g45
(lp102
Va
aVj
aVd
aV\u0259
asbtp103
(imorph
Morph
p104
(dp105
g45
(lp106
Va
aVj
aVd
asbs((imorph
Morph
(dp107
g45
(lp108
Vr
aVu
aVm
aVd
aV\u0259
asbtp109
(imorph
Morph
p110
(dp111
g45
(lp112
Vr
aVu
aVm
aVd
asbs((imorph
Morph
(dp113
g45
(lp114
Vm
aVe
aV\u014b
aVd
aV\u0259
asbtp115
(imorph
Morph
p116
(dp117
g45
(lp118
Vm
aVe
aV\u014b
aVd
asbs((imorph
Morph
p119
(dp120
g45
(lp121
Vv
aV\u0269
aVs
aVt
aV\u0259
asbtp122
(imorph
Morph
p123
(dp124
g45
(lp125
Vv
aV\u0269
aVs
aVt
asbs((imorph
Morph
p126
(dp127
g45
(lp128
Vk
aVr
aVa
aVb
aVd
aV\u0259
asbtp129
(imorph
Morph
p130
(dp131
g45
(lp132
Vk
aVr
aVa
aVb
aVd
asbs((imorph
Morph
(dp133
g45
(lp134
Vl
aV\u025b
aV\u0263
aVd
aV\u0259
asbtp135
(imorph
Morph
p136
(dp137
g45
(lp138
Vl
aV\u025b
aV\u0263
aVd
asbs((imorph
Morph
p139
(dp140
g45
(lp141
Vr
aV\u025b
aVd
aV\u0259
asbtp142
(imorph
Morph
p143
(dp144
g45
(lp145
Vr
aV\u025b
aVd
asbs((imorph
Morph
p146
(dp147
g45
(lp148
Vk
aVl
aVa
aVp
aVt
aV\u0259
asbtp149
(imorph
Morph
p150
(dp151
g45
(lp152
Vk
aVl
aVa
aVp
aVt
asbs((imorph
Morph
(dp153
g45
(lp154
Vs
aVk
aVi
aVd
aV\u0259
asbtp155
(imorph
Morph
p156
(dp157
g45
(lp158
Vs
aVk
aVi
aVd
asbssS'suffixes'
p159
(lp160
(imorph
Morph
p161
(dp162
g45
(lp163
V\u0259
asbasbF29.196534872055054
tp164
asS'problem'
p165
S'Roca_17_Dutch'
p166
sS'finalFrontier'
p167
g6
(csolution
Frontier
p168
g8
NtRp169
(dp170
g41
g42
sg159
g160
sg47
g48
sS'frontiers'
p171
(lp172
(lp173
g13
aasbsS'parameters'
p174
g6
(cargparse
Namespace
p175
g8
NtRp176
(dp177
S'restore'
p178
NsS'features'
p179
S'sophisticated'
p180
sS'universal'
p181
NsS'restrict'
p182
NsS'seed'
p183
NsS'serial'
p184
I00
sS'cv'
p185
I00
sS'alignment'
p186
I00
sS'top'
p187
I1
sS'maximumDepth'
p188
I3
sS'window'
p189
I8
sS'minimizeBits'
p190
I5
sS'samples'
p191
I30
sS'save'
p192
NsS'resume'
p193
I00
sS'disableClean'
p194
I00
sS'stemBaseline'
p195
I30
sS'dummy'
p196
I00
sS'task'
p197
S'incremental'
p198
sS'geometry'
p199
I01
sS'verbosity'
p200
I0
sS'noConstant'
p201
I00
sS'timeout'
p202
F24
sS'debug'
p203
NsS'cores'
p204
I12
sg165
S'Roca_17_Dutch'
p205
sS'mergeFrontiers'
p206
I00
sbsb.