(iresult
Result
p1
(dp2
S'startTime'
p3
F1565820474.1384709
sS'solutionSequence'
p4
(lp5
(ccopy_reg
_reconstructor
p6
(csolution
Solution
p7
c__builtin__
object
p8
NtRp9
(dp10
S'rules'
p11
(lp12
(irule
Rule
p13
(dp14
S'leftTriggers'
p15
(irule
Guard
p16
(dp17
S'endOfString'
p18
I00
sS'specifications'
p19
(lp20
sS'optionalEnding'
p21
I00
sS'representation'
p22
V
sS'starred'
p23
I00
sS'side'
p24
S'L'
sbsS'structuralChange'
p25
(irule
FeatureMatrix
p26
(dp27
S'featuresAndPolarities'
p28
(lp29
(I00
S'voice'
p30
tp31
asg22
V[ -voice ]
p32
sbsS'rightTriggers'
p33
(irule
Guard
p34
(dp35
g18
I01
sg19
(lp36
sg21
I00
sg22
V#
sg23
I00
sg24
S'R'
sbsS'focus'
p37
(irule
FeatureMatrix
p38
(dp39
g28
(lp40
(I01
S'velar'
p41
tp42
asg22
V[ +velar ]
p43
sbsg22
V[ +velar ] ---> [ -voice ] /  _ #
p44
sbasS'prefixes'
p45
(lp46
(imorph
Morph
p47
(dp48
S'phonemes'
p49
(lp50
sba(imorph
Morph
p51
(dp52
g49
(lp53
sba(imorph
Morph
p54
(dp55
g49
(lp56
sba(imorph
Morph
p57
(dp58
g49
(lp59
sbasS'underlyingForms'
p60
(dp61
((imorph
Morph
p62
(dp63
g49
(lp64
Vp
aV\u0259
aVr
aVi
aVs
aVk
aVo
aVp
asb(imorph
Morph
p65
(dp66
g49
(lp67
Vp
aV\u0259
aVr
aVi
aVs
aVk
aVo
aVp
aV\u0259
asbNNtp68
(imorph
Morph
p69
(dp70
g49
(lp71
Vp
aV\u0259
aVr
aVi
aVs
aVk
aVo
aVp
asbs((imorph
Morph
p72
(dp73
g49
(lp74
Vv
aVo
aVl
aVk
asb(imorph
Morph
p75
(dp76
g49
(lp77
Vv
aVo
aVl
aVk
aV\u0259
asbNNtp78
(imorph
Morph
p79
(dp80
g49
(lp81
Vv
aVo
aVl
aVk
asbs((imorph
Morph
p82
(dp83
g49
(lp84
Vt
aVa
aVk
asb(imorph
Morph
p85
(dp86
g49
(lp87
Vt
aVa
aVg
aV\u0259
asbNNtp88
(imorph
Morph
p89
(dp90
g49
(lp91
Vt
aVa
aVg
asbssS'suffixes'
p92
(lp93
(imorph
Morph
p94
(dp95
g49
(lp96
sba(imorph
Morph
p97
(dp98
g49
(lp99
V\u0259
asba(imorph
Morph
p100
(dp101
g49
(lp102
sba(imorph
Morph
p103
(dp104
g49
(lp105
sbasbF106.65298509597778
tp106
a(g6
(g7
g8
NtRp107
(dp108
g11
(lp109
(irule
Rule
p110
(dp111
g15
(irule
Guard
p112
(dp113
g18
I00
sg19
(lp114
sg21
I00
sg22
V
sg23
I00
sg24
S'L'
sbsg25
(irule
ConstantPhoneme
p115
(dp116
S'p'
Vk
sbsg33
(irule
Guard
p117
(dp118
g18
I01
sg19
(lp119
sg21
I00
sg22
V#
sg23
I00
sg24
S'R'
sbsg37
(irule
FeatureMatrix
p120
(dp121
g28
(lp122
(I01
g41
tp123
asg22
V[ +velar ]
p124
sbsg22
V[ +velar ] ---> k /  _ #
p125
sba(irule
Rule
p126
(dp127
g15
(irule
Guard
p128
(dp129
g18
I00
sg19
(lp130
sg21
I00
sg22
V
sg23
I00
sg24
S'L'
sbsg25
(irule
ConstantPhoneme
p131
(dp132
S'p'
Vo\u0308
p133
sbsg33
(irule
Guard
p134
(dp135
g18
I00
sg19
(lp136
(irule
FeatureMatrix
p137
(dp138
g28
(lp139
(I01
S'labiodental'
p140
tp141
asg22
V[ +labiodental ]
p142
sba(irule
FeatureMatrix
p143
(dp144
g28
(lp145
sg22
V[  ]
p146
sbasg21
I00
sg22
V[ +labiodental ] [  ]
p147
sg23
I00
sg24
S'R'
sbsg37
(irule
FeatureMatrix
p148
(dp149
g28
(lp150
sg22
V[  ]
p151
sbsg22
V[  ] ---> o\u0308 /  _ [ +labiodental ] [  ]
p152
sbasg45
(lp153
(imorph
Morph
p154
(dp155
g49
(lp156
sba(imorph
Morph
p157
(dp158
g49
(lp159
sba(imorph
Morph
p160
(dp161
g49
(lp162
sba(imorph
Morph
p163
(dp164
g49
(lp165
sbasg60
(dp166
(g62
g65
NNtp167
(imorph
Morph
p168
(dp169
g49
(lp170
Vp
aV\u0259
aVr
aVi
aVs
aVk
aVo
aVp
asbs(g72
g75
NNtp171
(imorph
Morph
p172
(dp173
g49
(lp174
Vv
aVo
aVl
aVk
asbs((imorph
Morph
p175
(dp176
g49
(lp177
Vh
aVo
aVf
asb(imorph
Morph
p178
(dp179
g49
(lp180
Vh
aVo\u0308
p181
aVf
aV\u0259
asbNNtp182
(imorph
Morph
p183
(dp184
g49
(lp185
Vh
aVo
aVf
asbs(g82
g85
NNtp186
(imorph
Morph
p187
(dp188
g49
(lp189
Vt
aVa
aVg
asbssg92
(lp190
(imorph
Morph
p191
(dp192
g49
(lp193
sba(imorph
Morph
p194
(dp195
g49
(lp196
V\u0259
asba(imorph
Morph
p197
(dp198
g49
(lp199
sba(imorph
Morph
p200
(dp201
g49
(lp202
sbasbF1710.4232671260834
tp203
a(g6
(g7
g8
NtRp204
(dp205
g11
(lp206
(irule
Rule
p207
(dp208
g15
(irule
Guard
p209
(dp210
g18
I00
sg19
(lp211
sg21
I00
sg22
V
sg23
I00
sg24
S'L'
sbsg25
(irule
ConstantPhoneme
p212
(dp213
S'p'
Vo
sbsg33
(irule
Guard
p214
(dp215
g18
I01
sg19
(lp216
(irule
FeatureMatrix
p217
(dp218
g28
(lp219
sg22
V[  ]
p220
sbasg21
I00
sg22
V[  ] #
p221
sg23
I00
sg24
S'R'
sbsg37
(irule
FeatureMatrix
p222
(dp223
g28
(lp224
(I01
S'front'
p225
tp226
asg22
V[ +front ]
p227
sbsg22
V[ +front ] ---> o /  _ [  ] #
p228
sba(irule
Rule
p229
(dp230
g15
(irule
Guard
p231
(dp232
g18
I00
sg19
(lp233
sg21
I00
sg22
V
sg23
I00
sg24
S'L'
sbsg25
(irule
FeatureMatrix
p234
(dp235
g28
(lp236
(I00
g30
tp237
asg22
V[ -voice ]
p238
sbsg33
(irule
Guard
p239
(dp240
g18
I01
sg19
(lp241
sg21
I00
sg22
V#
sg23
I00
sg24
S'R'
sbsg37
(irule
FeatureMatrix
p242
(dp243
g28
(lp244
(I00
S'sonorant'
p245
tp246
asg22
V[ -sonorant ]
p247
sbsg22
V[ -sonorant ] ---> [ -voice ] /  _ #
p248
sbasg45
(lp249
(imorph
Morph
p250
(dp251
g49
(lp252
sba(imorph
Morph
p253
(dp254
g49
(lp255
sba(imorph
Morph
p256
(dp257
g49
(lp258
sba(imorph
Morph
p259
(dp260
g49
(lp261
sbasg60
(dp262
(g62
g65
NNtp263
(imorph
Morph
p264
(dp265
g49
(lp266
Vp
aV\u0259
aVr
aVi
aVs
aVk
aVo
aVp
asbs((imorph
Morph
p267
(dp268
g49
(lp269
Vr
aVa
aVu
aVp
asbN(imorph
Morph
p270
(dp271
g49
(lp272
Vr
aVa
aVu
aVb
aV\u0259
aVn
asbNtp273
(imorph
Morph
p274
(dp275
g49
(lp276
Vr
aVa
aVu
aVb
asbs(g72
g75
NNtp277
(imorph
Morph
p278
(dp279
g49
(lp280
Vv
aVo
aVl
aVk
asbs(g175
g178
NNtp281
(imorph
Morph
p282
(dp283
g49
(lp284
Vh
ag133
aVf
asbs(g82
g85
NNtp285
(imorph
Morph
p286
(dp287
g49
(lp288
Vt
aVa
aVg
asbssg92
(lp289
(imorph
Morph
p290
(dp291
g49
(lp292
sba(imorph
Morph
p293
(dp294
g49
(lp295
V\u0259
asba(imorph
Morph
p296
(dp297
g49
(lp298
V\u0259
aVn
asba(imorph
Morph
p299
(dp300
g49
(lp301
sbasbF4860.1911370754242
tp302
a(g6
(g7
g8
NtRp303
(dp304
g11
(lp305
(irule
Rule
p306
(dp307
g15
(irule
Guard
p308
(dp309
g18
I00
sg19
(lp310
sg21
I00
sg22
V
sg23
I00
sg24
S'L'
sbsg25
(irule
FeatureMatrix
p311
(dp312
g28
(lp313
(I00
g30
tp314
asg22
V[ -voice ]
p315
sbsg33
(irule
Guard
p316
(dp317
g18
I01
sg19
(lp318
sg21
I00
sg22
V#
sg23
I00
sg24
S'R'
sbsg37
(irule
FeatureMatrix
p319
(dp320
g28
(lp321
(I01
S'stop'
p322
tp323
asg22
V[ +stop ]
p324
sbsg22
V[ +stop ] ---> [ -voice ] /  _ #
p325
sba(irule
Rule
p326
(dp327
g15
(irule
Guard
p328
(dp329
g18
I00
sg19
(lp330
sg21
I00
sg22
V
sg23
I00
sg24
S'L'
sbsg25
(irule
ConstantPhoneme
p331
(dp332
S'p'
Vo
sbsg33
(irule
Guard
p333
(dp334
g18
I01
sg19
(lp335
(irule
ConstantPhoneme
p336
(dp337
S'p'
Vf
sbasg21
I00
sg22
Vf #
p338
sg23
I00
sg24
S'R'
sbsg37
(irule
FeatureMatrix
p339
(dp340
g28
(lp341
sg22
V[  ]
p342
sbsg22
V[  ] ---> o /  _ f #
p343
sbasg45
(lp344
(imorph
Morph
p345
(dp346
g49
(lp347
sba(imorph
Morph
p348
(dp349
g49
(lp350
sba(imorph
Morph
p351
(dp352
g49
(lp353
sba(imorph
Morph
p354
(dp355
g49
(lp356
sbasg60
(dp357
((imorph
Morph
(dp358
g49
(lp359
Vl
aVa
aVn
aVt
asbN(imorph
Morph
(dp360
g49
(lp361
Vl
aVa
aVn
aVd
aV\u0259
aVn
asbNtp362
(imorph
Morph
p363
(dp364
g49
(lp365
Vl
aVa
aVn
aVd
asbs(g72
g75
NNtp366
(imorph
Morph
p367
(dp368
g49
(lp369
Vv
aVo
aVl
aVk
asbs((imorph
Morph
(dp370
g49
(lp371
Vl
aVo
aVp
asbN(imorph
Morph
(dp372
g49
(lp373
Vl
aVo
aVb
aV\u0259
aVn
asbNtp374
(imorph
Morph
p375
(dp376
g49
(lp377
Vl
aVo
aVb
asbs((imorph
Morph
(dp378
g49
(lp379
Vw
aV\u0259
aVk
asb(imorph
Morph
(dp380
g49
(lp381
Vw
aV\u0259
aVg
aV\u0259
asbNNtp382
(imorph
Morph
p383
(dp384
g49
(lp385
Vw
aV\u0259
aVg
asbs(g267
Ng270
Ntp386
(imorph
Morph
p387
(dp388
g49
(lp389
Vr
aVa
aVu
aVb
asbs(g175
g178
NNtp390
(imorph
Morph
p391
(dp392
g49
(lp393
Vh
ag133
aVf
asbs((imorph
Morph
p394
(dp395
g49
(lp396
Vl
aV\u0259
aVi
aVt
asbN(imorph
Morph
p397
(dp398
g49
(lp399
Vl
aV\u0259
aVi
aVd
aV\u0259
aVn
asbNtp400
(imorph
Morph
p401
(dp402
g49
(lp403
Vl
aV\u0259
aVi
aVd
asbs((imorph
Morph
(dp404
g49
(lp405
Vr
aVa
aVt
asbN(imorph
Morph
(dp406
g49
(lp407
Vr
aVa
aVt
aV\u0259
aVn
asbNtp408
(imorph
Morph
p409
(dp410
g49
(lp411
Vr
aVa
aVt
asbs((imorph
Morph
(dp412
g49
(lp413
Vr
aVo
aVs
asb(imorph
Morph
(dp414
g49
(lp415
Vr
aVo
aVs
aV\u0259
asbNNtp416
(imorph
Morph
p417
(dp418
g49
(lp419
Vr
aVo
aVs
asbs(g82
g85
NNtp420
(imorph
Morph
p421
(dp422
g49
(lp423
Vt
aVa
aVg
asbs(g62
g65
NNtp424
(imorph
Morph
p425
(dp426
g49
(lp427
Vp
aV\u0259
aVr
aVi
aVs
aVk
aVo
aVp
asbssg92
(lp428
(imorph
Morph
p429
(dp430
g49
(lp431
sba(imorph
Morph
p432
(dp433
g49
(lp434
V\u0259
asba(imorph
Morph
p435
(dp436
g49
(lp437
V\u0259
aVn
asba(imorph
Morph
p438
(dp439
g49
(lp440
sbasbF9840.3964040279388
tp441
asS'problem'
p442
S'Roca_16_German'
p443
sS'finalFrontier'
p444
g6
(csolution
Frontier
p445
g8
NtRp446
(dp447
g45
g344
sg92
g428
sg60
g357
sS'frontiers'
p448
(lp449
(lp450
g306
aa(lp451
g326
aasbsS'parameters'
p452
g6
(cargparse
Namespace
p453
g8
NtRp454
(dp455
S'restore'
p456
NsS'features'
p457
S'simple'
p458
sS'universal'
p459
NsS'restrict'
p460
NsS'seed'
p461
S'0'
sS'serial'
p462
I00
sS'alignment'
p463
I00
sS'top'
p464
I1
sS'maximumDepth'
p465
I3
sS'window'
p466
NsS'minimizeBits'
p467
I5
sS'samples'
p468
I30
sS'save'
p469
NsS'resume'
p470
I00
sS'disableClean'
p471
I00
sS'stemBaseline'
p472
I30
sS'dummy'
p473
I00
sS'task'
p474
S'CEGIS'
p475
sS'geometry'
p476
NsS'verbosity'
p477
I0
sS'timeout'
p478
F24
sS'debug'
p479
NsS'cores'
p480
I40
sg442
S'Roca_16_German'
p481
sS'mergeFrontiers'
p482
I00
sbsb.