(iresult
Result
p1
(dp2
S'startTime'
p3
F1559660869.170233
sS'solutionSequence'
p4
(lp5
(ccopy_reg
_reconstructor
p6
(csolution
Solution
p7
c__builtin__
object
p8
NtRp9
(dp10
S'rules'
p11
(lp12
(irule
Rule
p13
(dp14
S'leftTriggers'
p15
(irule
Guard
p16
(dp17
S'endOfString'
p18
I00
sS'specifications'
p19
(lp20
sS'optionalEnding'
p21
I00
sS'representation'
p22
V
sS'starred'
p23
I00
sS'side'
p24
S'L'
sbsS'structuralChange'
p25
(irule
OffsetSpecification
p26
(dp27
S'offset'
p28
I2
sbsS'rightTriggers'
p29
(irule
Guard
p30
(dp31
g18
I00
sg19
(lp32
(irule
FeatureMatrix
p33
(dp34
S'featuresAndPolarities'
p35
(lp36
sg22
V[  ]
p37
sba(irule
FeatureMatrix
p38
(dp39
g35
(lp40
sg22
V[  ]
p41
sbasg21
I00
sg22
V[  ] [  ]
p42
sg23
I00
sg24
S'R'
sbsS'focus'
p43
(irule
FeatureMatrix
p44
(dp45
g35
(lp46
sg22
V[  ]
p47
sbsg22
V[  ] ---> 2 /  _ [  ] [  ]
p48
sba(irule
Rule
p49
(dp50
g15
(irule
Guard
p51
(dp52
g18
I00
sg19
(lp53
sg21
I00
sg22
V
sg23
I00
sg24
S'L'
sbsg25
(irule
ConstantPhoneme
p54
(dp55
S'p'
Va
sbsg29
(irule
Guard
p56
(dp57
g18
I01
sg19
(lp58
sg21
I00
sg22
V#
sg23
I00
sg24
S'R'
sbsg43
(irule
FeatureMatrix
p59
(dp60
g35
(lp61
sg22
V[  ]
p62
sbsg22
V[  ] ---> a /  _ #
p63
sba(irule
Rule
p64
(dp65
g15
(irule
Guard
p66
(dp67
g18
I00
sg19
(lp68
sg21
I00
sg22
V
sg23
I00
sg24
S'L'
sbsg25
(irule
ConstantPhoneme
p69
(dp70
S'p'
Vg
sbsg29
(irule
Guard
p71
(dp72
g18
I01
sg19
(lp73
(irule
FeatureMatrix
p74
(dp75
g35
(lp76
sg22
V[  ]
p77
sbasg21
I00
sg22
V[  ] #
p78
sg23
I00
sg24
S'R'
sbsg43
(irule
FeatureMatrix
p79
(dp80
g35
(lp81
sg22
V[  ]
p82
sbsg22
V[  ] ---> g /  _ [  ] #
p83
sbasS'prefixes'
p84
(lp85
(imorph
Morph
p86
(dp87
S'phonemes'
p88
(lp89
sbasS'underlyingForms'
p90
(dp91
((imorph
Morph
p92
(dp93
g88
(lp94
Vm
aVi
aVn
aVg
aVa
asbtp95
(imorph
Morph
p96
(dp97
g88
(lp98
Vg
aVa
aVm
aVi
aVn
asbs((imorph
Morph
p99
(dp100
g88
(lp101
Vm
aV\u025b\u0303
p102
aVg
aVa
asbtp103
(imorph
Morph
p104
(dp105
g88
(lp106
Vg
aVa
aVm
aV\u025b\u0303
p107
asbssS'suffixes'
p108
(lp109
(imorph
Morph
p110
(dp111
g88
(lp112
sbasbF38.682650089263916
tp113
asS'problem'
p114
S'Roca_31_Verlan'
p115
sS'finalFrontier'
p116
g6
(csolution
Frontier
p117
g8
NtRp118
(dp119
g84
g85
sg108
g109
sg90
g91
sS'frontiers'
p120
(lp121
(lp122
g13
aa(lp123
g49
aa(lp124
g64
aasbsS'parameters'
p125
g6
(cargparse
Namespace
p126
g8
NtRp127
(dp128
S'restore'
p129
NsS'features'
p130
S'none'
p131
sS'universal'
p132
NsS'restrict'
p133
NsS'seed'
p134
S'0'
sS'serial'
p135
I00
sS'alignment'
p136
I00
sS'top'
p137
I1
sS'maximumDepth'
p138
I3
sS'window'
p139
NsS'minimizeBits'
p140
I5
sS'samples'
p141
I30
sS'save'
p142
NsS'resume'
p143
I00
sS'disableClean'
p144
I01
sS'stemBaseline'
p145
I30
sS'dummy'
p146
I00
sS'task'
p147
S'incremental'
p148
sS'geometry'
p149
NsS'verbosity'
p150
I0
sS'timeout'
p151
F24
sS'debug'
p152
NsS'cores'
p153
I64
sg114
S'Roca_31_Verlan'
p154
sS'mergeFrontiers'
p155
I00
sbsb.