(iresult
Result
p1
(dp2
S'startTime'
p3
F1559660884.311075
sS'solutionSequence'
p4
(lp5
(ccopy_reg
_reconstructor
p6
(csolution
Solution
p7
c__builtin__
object
p8
NtRp9
(dp10
S'rules'
p11
(lp12
(irule
Rule
p13
(dp14
S'leftTriggers'
p15
(irule
Guard
p16
(dp17
S'endOfString'
p18
I00
sS'specifications'
p19
(lp20
(irule
FeatureMatrix
p21
(dp22
S'featuresAndPolarities'
p23
(lp24
sS'representation'
p25
V[  ]
p26
sba(irule
ConstantPhoneme
p27
(dp28
S'p'
Vo\u0301
p29
sbasS'optionalEnding'
p30
I00
sg25
Vo\u0301 [  ]
p31
sS'starred'
p32
I00
sS'side'
p33
S'L'
sbsS'structuralChange'
p34
(irule
ConstantPhoneme
p35
(dp36
S'p'
V\u0254
sbsS'rightTriggers'
p37
(irule
Guard
p38
(dp39
g18
I00
sg19
(lp40
sg30
I00
sg25
V
sg32
I00
sg33
S'R'
sbsS'focus'
p41
(irule
ConstantPhoneme
p42
(dp43
S'p'
V\u025b
sbsg25
V\u025b ---> \u0254 / o\u0301 [  ] _ 
p44
sbasS'prefixes'
p45
(lp46
(imorph
Morph
p47
(dp48
S'phonemes'
p49
(lp50
sba(imorph
Morph
p51
(dp52
g49
(lp53
sba(imorph
Morph
p54
(dp55
g49
(lp56
sba(imorph
Morph
p57
(dp58
g49
(lp59
sbasS'underlyingForms'
p60
(dp61
((imorph
Morph
p62
(dp63
g49
(lp64
Vp
aVi\u0301
p65
asb(imorph
Morph
p66
(dp67
g49
(lp68
Vp
aVi\u0301
p69
aV\u0294
aVu
aVh
aVk
aVi
asb(imorph
Morph
p70
(dp71
g49
(lp72
Vp
aVi\u0301
p73
aV\u0294
aV\u025b
aVk
aVi
asb(imorph
Morph
p74
(dp75
g49
(lp76
Vp
aVi\u0301
p77
aVh
aVk
aV\u0294
aVa
aVk
aVi
asbtp78
(imorph
Morph
p79
(dp80
g49
(lp81
Vp
aVi\u0301
p82
asbs((imorph
Morph
p83
(dp84
g49
(lp85
Vp
aVo\u0301
p86
asb(imorph
Morph
p87
(dp88
g49
(lp89
Vp
aVo\u0301
p90
aV\u0294
aVu
aVh
aVk
aVi
asb(imorph
Morph
p91
(dp92
g49
(lp93
Vp
aVo\u0301
p94
aV\u0294
aV\u0254
aVk
aVi
asb(imorph
Morph
p95
(dp96
g49
(lp97
Vp
aVo\u0301
p98
aVh
aVk
aV\u0294
aVa
aVk
aVi
asbtp99
(imorph
Morph
p100
(dp101
g49
(lp102
Vp
ag29
asbssS'suffixes'
p103
(lp104
(imorph
Morph
p105
(dp106
g49
(lp107
sba(imorph
Morph
p108
(dp109
g49
(lp110
V\u0294
aVu
aVh
aVk
aVi
asba(imorph
Morph
p111
(dp112
g49
(lp113
V\u0294
aV\u025b
aVk
aVi
asba(imorph
Morph
p114
(dp115
g49
(lp116
Vh
aVk
aV\u0294
aVa
aVk
aVi
asbasbF65.21635913848877
tp117
asS'problem'
p118
S'Roca_104_Tunica'
p119
sS'finalFrontier'
p120
g6
(csolution
Frontier
p121
g8
NtRp122
(dp123
g45
g46
sg103
g104
sg60
g61
sS'frontiers'
p124
(lp125
(lp126
g13
aasbsS'parameters'
p127
g6
(cargparse
Namespace
p128
g8
NtRp129
(dp130
S'restore'
p131
NsS'features'
p132
S'none'
p133
sS'universal'
p134
NsS'restrict'
p135
NsS'seed'
p136
S'0'
sS'serial'
p137
I00
sS'alignment'
p138
I00
sS'top'
p139
I1
sS'maximumDepth'
p140
I3
sS'window'
p141
NsS'minimizeBits'
p142
I5
sS'samples'
p143
I30
sS'save'
p144
NsS'resume'
p145
I00
sS'disableClean'
p146
I01
sS'stemBaseline'
p147
I30
sS'dummy'
p148
I00
sS'task'
p149
S'CEGIS'
p150
sS'geometry'
p151
NsS'verbosity'
p152
I0
sS'timeout'
p153
F24
sS'debug'
p154
NsS'cores'
p155
I64
sg118
S'Roca_104_Tunica'
p156
sS'mergeFrontiers'
p157
I00
sbsb.