(iresult
Result
p1
(dp2
S'startTime'
p3
F1565820479.198168
sS'solutionSequence'
p4
(lp5
(ccopy_reg
_reconstructor
p6
(csolution
Solution
p7
c__builtin__
object
p8
NtRp9
(dp10
S'rules'
p11
(lp12
(irule
Rule
p13
(dp14
S'leftTriggers'
p15
(irule
Guard
p16
(dp17
S'endOfString'
p18
I00
sS'specifications'
p19
(lp20
sS'optionalEnding'
p21
I00
sS'representation'
p22
V
sS'starred'
p23
I00
sS'side'
p24
S'L'
sbsS'structuralChange'
p25
(irule
FeatureMatrix
p26
(dp27
S'featuresAndPolarities'
p28
(lp29
sg22
V[  ]
p30
sbsS'rightTriggers'
p31
(irule
Guard
p32
(dp33
g18
I00
sg19
(lp34
sg21
I00
sg22
V
sg23
I00
sg24
S'R'
sbsS'focus'
p35
(irule
FeatureMatrix
p36
(dp37
g28
(lp38
sg22
V[  ]
p39
sbsg22
V[  ] ---> [  ] /  _ 
p40
sbasS'prefixes'
p41
(lp42
(imorph
Morph
p43
(dp44
S'phonemes'
p45
(lp46
sbasS'underlyingForms'
p47
(dp48
((imorph
Morph
(dp49
g45
(lp50
Vz
aVu
aVn
aVd
aV\u0259
asbtp51
(imorph
Morph
p52
(dp53
g45
(lp54
Vz
aVu
aVn
aVd
asbs((imorph
Morph
(dp55
g45
(lp56
Vz
aV\u025b
aVt
aV\u0259
asbtp57
(imorph
Morph
p58
(dp59
g45
(lp60
Vz
aV\u025b
aVt
asbs((imorph
Morph
(dp61
g45
(lp62
Vk
aVl
aVo
aVv
aVd
aV\u0259
asbtp63
(imorph
Morph
p64
(dp65
g45
(lp66
Vk
aVl
aVo
aVv
aVd
asbs((imorph
Morph
(dp67
g45
(lp68
Vr
aVu
aVr
aVd
aV\u0259
asbtp69
(imorph
Morph
p70
(dp71
g45
(lp72
Vr
aVu
aVr
aVd
asbs((imorph
Morph
p73
(dp74
g45
(lp75
Vr
aVa
aVz
aVd
aV\u0259
asbtp76
(imorph
Morph
p77
(dp78
g45
(lp79
Vr
aVa
aVz
aVd
asbs((imorph
Morph
(dp80
g45
(lp81
Vm
aVa
aVf
aVt
aV\u0259
asbtp82
(imorph
Morph
p83
(dp84
g45
(lp85
Vm
aVa
aVf
aVt
asbs((imorph
Morph
(dp86
g45
(lp87
Vl
aVa
aVx
aVt
aV\u0259
asbtp88
(imorph
Morph
p89
(dp90
g45
(lp91
Vl
aVa
aVx
aVt
asbs((imorph
Morph
(dp92
g45
(lp93
Vr
aV\u0254
aVl
aVd
aV\u0259
asbtp94
(imorph
Morph
p95
(dp96
g45
(lp97
Vr
aV\u0254
aVl
aVd
asbs((imorph
Morph
(dp98
g45
(lp99
Va
aVj
aVd
aV\u0259
asbtp100
(imorph
Morph
p101
(dp102
g45
(lp103
Va
aVj
aVd
asbs((imorph
Morph
(dp104
g45
(lp105
Vr
aVu
aVm
aVd
aV\u0259
asbtp106
(imorph
Morph
p107
(dp108
g45
(lp109
Vr
aVu
aVm
aVd
asbs((imorph
Morph
(dp110
g45
(lp111
Vm
aVe
aV\u014b
aVd
aV\u0259
asbtp112
(imorph
Morph
p113
(dp114
g45
(lp115
Vm
aVe
aV\u014b
aVd
asbs((imorph
Morph
p116
(dp117
g45
(lp118
Vv
aV\u0269
aVs
aVt
aV\u0259
asbtp119
(imorph
Morph
p120
(dp121
g45
(lp122
Vv
aV\u0269
aVs
aVt
asbs((imorph
Morph
p123
(dp124
g45
(lp125
Vk
aVr
aVa
aVb
aVd
aV\u0259
asbtp126
(imorph
Morph
p127
(dp128
g45
(lp129
Vk
aVr
aVa
aVb
aVd
asbs((imorph
Morph
(dp130
g45
(lp131
Vl
aV\u025b
aV\u0263
aVd
aV\u0259
asbtp132
(imorph
Morph
p133
(dp134
g45
(lp135
Vl
aV\u025b
aV\u0263
aVd
asbs((imorph
Morph
p136
(dp137
g45
(lp138
Vr
aV\u025b
aVd
aV\u0259
asbtp139
(imorph
Morph
p140
(dp141
g45
(lp142
Vr
aV\u025b
aVd
asbs((imorph
Morph
p143
(dp144
g45
(lp145
Vk
aVl
aVa
aVp
aVt
aV\u0259
asbtp146
(imorph
Morph
p147
(dp148
g45
(lp149
Vk
aVl
aVa
aVp
aVt
asbs((imorph
Morph
(dp150
g45
(lp151
Vs
aVk
aVi
aVd
aV\u0259
asbtp152
(imorph
Morph
p153
(dp154
g45
(lp155
Vs
aVk
aVi
aVd
asbssS'suffixes'
p156
(lp157
(imorph
Morph
p158
(dp159
g45
(lp160
V\u0259
asbasbF68.987094879150391
tp161
asS'problem'
p162
S'Roca_17_Dutch'
p163
sS'finalFrontier'
p164
g6
(csolution
Frontier
p165
g8
NtRp166
(dp167
g41
g42
sg156
g157
sg47
g48
sS'frontiers'
p168
(lp169
(lp170
g13
aasbsS'parameters'
p171
g6
(cargparse
Namespace
p172
g8
NtRp173
(dp174
S'restore'
p175
NsS'features'
p176
S'simple'
p177
sS'universal'
p178
NsS'restrict'
p179
NsS'seed'
p180
S'0'
sS'serial'
p181
I00
sS'alignment'
p182
I00
sS'top'
p183
I1
sS'maximumDepth'
p184
I3
sS'window'
p185
NsS'minimizeBits'
p186
I5
sS'samples'
p187
I30
sS'save'
p188
NsS'resume'
p189
I00
sS'disableClean'
p190
I00
sS'stemBaseline'
p191
I30
sS'dummy'
p192
I00
sS'task'
p193
S'CEGIS'
p194
sS'geometry'
p195
NsS'verbosity'
p196
I0
sS'timeout'
p197
F24
sS'debug'
p198
NsS'cores'
p199
I40
sg162
S'Roca_17_Dutch'
p200
sS'mergeFrontiers'
p201
I00
sbsb.