(iresult
Result
p1
(dp2
S'startTime'
p3
F1553727422.1459961
sS'solutionSequence'
p4
(lp5
(ccopy_reg
_reconstructor
p6
(csolution
Solution
p7
c__builtin__
object
p8
NtRp9
(dp10
S'rules'
p11
(lp12
(irule
Rule
p13
(dp14
S'leftTriggers'
p15
(irule
Guard
p16
(dp17
S'endOfString'
p18
I00
sS'specifications'
p19
(lp20
sS'optionalEnding'
p21
I00
sS'representation'
p22
V
sS'starred'
p23
I00
sS'side'
p24
S'L'
sbsS'structuralChange'
p25
(irule
OffsetSpecification
p26
(dp27
S'offset'
p28
I2
sbsS'rightTriggers'
p29
(irule
Guard
p30
(dp31
g18
I00
sg19
(lp32
(irule
FeatureMatrix
p33
(dp34
S'featuresAndPolarities'
p35
(lp36
sg22
V[  ]
p37
sba(irule
FeatureMatrix
p38
(dp39
g35
(lp40
sg22
V[  ]
p41
sbasg21
I00
sg22
V[  ] [  ]
p42
sg23
I00
sg24
S'R'
sbsS'focus'
p43
(irule
FeatureMatrix
p44
(dp45
g35
(lp46
sg22
V[  ]
p47
sbsg22
V[  ] ---> 2 /  _ [  ] [  ]
p48
sba(irule
Rule
p49
(dp50
g15
(irule
Guard
p51
(dp52
g18
I00
sg19
(lp53
sg21
I00
sg22
V
sg23
I00
sg24
S'L'
sbsg25
(irule
ConstantPhoneme
p54
(dp55
S'p'
Vg
sbsg29
(irule
Guard
p56
(dp57
g18
I01
sg19
(lp58
(irule
FeatureMatrix
p59
(dp60
g35
(lp61
sg22
V[  ]
p62
sbasg21
I00
sg22
V[  ] #
p63
sg23
I00
sg24
S'R'
sbsg43
(irule
FeatureMatrix
p64
(dp65
g35
(lp66
sg22
V[  ]
p67
sbsg22
V[  ] ---> g /  _ [  ] #
p68
sba(irule
Rule
p69
(dp70
g15
(irule
Guard
p71
(dp72
g18
I00
sg19
(lp73
sg21
I00
sg22
V
sg23
I00
sg24
S'L'
sbsg25
(irule
ConstantPhoneme
p74
(dp75
S'p'
Va
sbsg29
(irule
Guard
p76
(dp77
g18
I01
sg19
(lp78
sg21
I00
sg22
V#
sg23
I00
sg24
S'R'
sbsg43
(irule
FeatureMatrix
p79
(dp80
g35
(lp81
sg22
V[  ]
p82
sbsg22
V[  ] ---> a /  _ #
p83
sbasS'prefixes'
p84
(lp85
(imorph
Morph
p86
(dp87
S'phonemes'
p88
(lp89
sbasS'underlyingForms'
p90
(dp91
((imorph
Morph
p92
(dp93
g88
(lp94
Vm
aVi
aVn
aVg
aVa
asbtp95
(imorph
Morph
p96
(dp97
g88
(lp98
Vg
aVa
aVm
aVi
aVn
asbs((imorph
Morph
p99
(dp100
g88
(lp101
Vm
aV\u025b\u0303
p102
aVg
aVa
asbtp103
(imorph
Morph
p104
(dp105
g88
(lp106
Vg
aVa
aVm
aV\u025b\u0303
p107
asbssS'suffixes'
p108
(lp109
(imorph
Morph
p110
(dp111
g88
(lp112
sbasbF23.459481954574585
tp113
a(g6
(g7
g8
NtRp114
(dp115
g11
(lp116
(irule
Rule
p117
(dp118
g15
(irule
Guard
p119
(dp120
g18
I00
sg19
(lp121
sg21
I00
sg22
V
sg23
I00
sg24
S'L'
sbsg25
(irule
OffsetSpecification
p122
(dp123
g28
I2
sbsg29
(irule
Guard
p124
(dp125
g18
I00
sg19
(lp126
(irule
FeatureMatrix
p127
(dp128
g35
(lp129
sg22
V[  ]
p130
sba(irule
FeatureMatrix
p131
(dp132
g35
(lp133
sg22
V[  ]
p134
sbasg21
I00
sg22
V[  ] [  ]
p135
sg23
I00
sg24
S'R'
sbsg43
(irule
FeatureMatrix
p136
(dp137
g35
(lp138
sg22
V[  ]
p139
sbsg22
V[  ] ---> 2 /  _ [  ] [  ]
p140
sba(irule
Rule
p141
(dp142
g15
(irule
Guard
p143
(dp144
g18
I00
sg19
(lp145
sg21
I00
sg22
V
sg23
I00
sg24
S'L'
sbsg25
(irule
ConstantPhoneme
p146
(dp147
S'p'
Vk
sbsg29
(irule
Guard
p148
(dp149
g18
I01
sg19
(lp150
(irule
FeatureMatrix
p151
(dp152
g35
(lp153
sg22
V[  ]
p154
sbasg21
I00
sg22
V[  ] #
p155
sg23
I00
sg24
S'R'
sbsg43
(irule
FeatureMatrix
p156
(dp157
g35
(lp158
sg22
V[  ]
p159
sbsg22
V[  ] ---> k /  _ [  ] #
p160
sba(irule
Rule
p161
(dp162
g15
(irule
Guard
p163
(dp164
g18
I00
sg19
(lp165
sg21
I00
sg22
V
sg23
I00
sg24
S'L'
sbsg25
(irule
ConstantPhoneme
p166
(dp167
S'p'
Vo
sbsg29
(irule
Guard
p168
(dp169
g18
I01
sg19
(lp170
sg21
I00
sg22
V#
sg23
I00
sg24
S'R'
sbsg43
(irule
FeatureMatrix
p171
(dp172
g35
(lp173
sg22
V[  ]
p174
sbsg22
V[  ] ---> o /  _ #
p175
sba(irule
Rule
p176
(dp177
g15
(irule
Guard
p178
(dp179
g18
I00
sg19
(lp180
(irule
FeatureMatrix
p181
(dp182
g35
(lp183
sg22
V[  ]
p184
sba(irule
ConstantPhoneme
p185
(dp186
S'p'
Vm
sbasg21
I00
sg22
Vm [  ]*
p187
sg23
I01
sg24
S'L'
sbsg25
(irule
FeatureMatrix
p188
(dp189
g35
(lp190
(I00
S'rounded'
tp191
a(I01
S'voice'
tp192
asg22
V[ +voice -rounded ]
p193
sbsg29
(irule
Guard
p194
(dp195
g18
I00
sg19
(lp196
sg21
I00
sg22
V
sg23
I00
sg24
S'R'
sbsg43
(irule
FeatureMatrix
p197
(dp198
g35
(lp199
sg22
V[  ]
p200
sbsg22
V[  ] ---> [ +voice -rounded ] / m [  ]* _ 
p201
sbasg84
(lp202
(imorph
Morph
p203
(dp204
g88
(lp205
sbasg90
(dp206
((imorph
Morph
(dp207
g88
(lp208
Vm
aVi
aVn
aVg
aVa
asbtp209
(imorph
Morph
p210
(dp211
g88
(lp212
Vg
aVa
aVm
aVi
aVn
asbs((imorph
Morph
(dp213
g88
(lp214
Vp
aV\u025b\u0303
p215
aVk
aVo
asbtp216
(imorph
Morph
p217
(dp218
g88
(lp219
Vk
aVo
aVp
aV\u025b\u0303
p220
asbs((imorph
Morph
(dp221
g88
(lp222
Vm
aV\u025b\u0303
p223
aVg
aVa
asbtp224
(imorph
Morph
p225
(dp226
g88
(lp227
Vg
aVa
aVm
aV\u025b\u0303
p228
asbs((imorph
Morph
(dp229
g88
(lp230
Vp
aVi
aVn
aVk
aVo
asbtp231
(imorph
Morph
p232
(dp233
g88
(lp234
Vk
aVo
aVp
aVi
aVn
asbssg108
(lp235
(imorph
Morph
p236
(dp237
g88
(lp238
sbasbF106.79302597045898
tp239
asS'problem'
p240
S'Roca_31_Verlan'
p241
sS'finalFrontier'
p242
g6
(csolution
Frontier
p243
g8
NtRp244
(dp245
g84
g202
sg108
g235
sg90
g206
sS'frontiers'
p246
(lp247
(lp248
g117
aa(lp249
g141
aa(lp250
g161
aa(lp251
g176
aasbsS'parameters'
p252
g6
(cargparse
Namespace
p253
g8
NtRp254
(dp255
S'dummy'
p256
I00
sS'task'
p257
S'incremental'
p258
sS'features'
p259
S'sophisticated'
p260
sS'resume'
p261
I00
sS'geometry'
p262
I01
sS'top'
p263
I100
sS'disableClean'
p264
I00
sS'universal'
p265
NsS'restrict'
p266
NsS'window'
p267
NsS'seed'
p268
S'0'
sS'restore'
p269
NsS'verbosity'
p270
I0
sS'timeout'
p271
F24
sS'debug'
p272
NsS'cores'
p273
I40
sg240
S'Roca_31_Verlan'
p274
sS'save'
p275
NsS'serial'
p276
I00
sS'alignment'
p277
I00
sS'samples'
p278
I30
sbsb.