(iresult
Result
p1
(dp2
S'startTime'
p3
F1565820508.9565921
sS'solutionSequence'
p4
(lp5
(ccopy_reg
_reconstructor
p6
(csolution
Solution
p7
c__builtin__
object
p8
NtRp9
(dp10
S'rules'
p11
(lp12
(irule
Rule
p13
(dp14
S'leftTriggers'
p15
(irule
Guard
p16
(dp17
S'endOfString'
p18
I00
sS'specifications'
p19
(lp20
(irule
FeatureMatrix
p21
(dp22
S'featuresAndPolarities'
p23
(lp24
sS'representation'
p25
V[  ]
p26
sba(irule
ConstantPhoneme
p27
(dp28
S'p'
Vo\u0301
p29
sbasS'optionalEnding'
p30
I00
sg25
Vo\u0301 [  ]
p31
sS'starred'
p32
I00
sS'side'
p33
S'L'
sbsS'structuralChange'
p34
(irule
ConstantPhoneme
p35
(dp36
S'p'
V\u0254
sbsS'rightTriggers'
p37
(irule
Guard
p38
(dp39
g18
I00
sg19
(lp40
sg30
I00
sg25
V
sg32
I00
sg33
S'R'
sbsS'focus'
p41
(irule
FeatureMatrix
p42
(dp43
g23
(lp44
(I01
S'middle'
p45
tp46
asg25
V[ +middle ]
p47
sbsg25
V[ +middle ] ---> \u0254 / o\u0301 [  ] _ 
p48
sbasS'prefixes'
p49
(lp50
(imorph
Morph
p51
(dp52
S'phonemes'
p53
(lp54
sba(imorph
Morph
p55
(dp56
g53
(lp57
sba(imorph
Morph
p58
(dp59
g53
(lp60
sba(imorph
Morph
p61
(dp62
g53
(lp63
sbasS'underlyingForms'
p64
(dp65
((imorph
Morph
p66
(dp67
g53
(lp68
Vp
aVi\u0301
p69
asb(imorph
Morph
p70
(dp71
g53
(lp72
Vp
aVi\u0301
p73
aV\u0294
aVu
aVh
aVk
aVi
asb(imorph
Morph
p74
(dp75
g53
(lp76
Vp
aVi\u0301
p77
aV\u0294
aV\u025b
aVk
aVi
asb(imorph
Morph
p78
(dp79
g53
(lp80
Vp
aVi\u0301
p81
aVh
aVk
aV\u0294
aVa
aVk
aVi
asbtp82
(imorph
Morph
p83
(dp84
g53
(lp85
Vp
aVi\u0301
p86
asbs((imorph
Morph
p87
(dp88
g53
(lp89
Vp
aVo\u0301
p90
asb(imorph
Morph
p91
(dp92
g53
(lp93
Vp
aVo\u0301
p94
aV\u0294
aVu
aVh
aVk
aVi
asb(imorph
Morph
p95
(dp96
g53
(lp97
Vp
aVo\u0301
p98
aV\u0294
aV\u0254
aVk
aVi
asb(imorph
Morph
p99
(dp100
g53
(lp101
Vp
aVo\u0301
p102
aVh
aVk
aV\u0294
aVa
aVk
aVi
asbtp103
(imorph
Morph
p104
(dp105
g53
(lp106
Vp
ag29
asbssS'suffixes'
p107
(lp108
(imorph
Morph
p109
(dp110
g53
(lp111
sba(imorph
Morph
p112
(dp113
g53
(lp114
V\u0294
aVu
aVh
aVk
aVi
asba(imorph
Morph
p115
(dp116
g53
(lp117
V\u0294
aV\u025b
aVk
aVi
asba(imorph
Morph
p118
(dp119
g53
(lp120
Vh
aVk
aV\u0294
aVa
aVk
aVi
asbasbF176.22152996063232
tp121
a(g6
(g7
g8
NtRp122
(dp123
g11
(lp124
(irule
Rule
p125
(dp126
g15
(irule
Guard
p127
(dp128
g18
I00
sg19
(lp129
(irule
FeatureMatrix
p130
(dp131
g23
(lp132
sg25
V[  ]
p133
sba(irule
FeatureMatrix
p134
(dp135
g23
(lp136
(I00
S'front'
p137
tp138
asg25
V[ -front ]
p139
sbasg30
I00
sg25
V[ -front ] [  ]
p140
sg32
I00
sg33
S'L'
sbsg34
(irule
OffsetSpecification
p141
(dp142
S'offset'
p143
I-2
sbsg37
(irule
Guard
p144
(dp145
g18
I00
sg19
(lp146
sg30
I00
sg25
V
sg32
I00
sg33
S'R'
sbsg41
(irule
FeatureMatrix
p147
(dp148
g23
(lp149
(I01
g45
tp150
asg25
V[ +middle ]
p151
sbsg25
V[ +middle ] ---> -2 / [ -front ] [  ] _ 
p152
sba(irule
Rule
p153
(dp154
g15
(irule
Guard
p155
(dp156
g18
I01
sg19
(lp157
(irule
FeatureMatrix
p158
(dp159
g23
(lp160
sg25
V[  ]
p161
sbasg30
I00
sg25
V# [  ]
p162
sg32
I00
sg33
S'L'
sbsg34
(irule
FeatureMatrix
p163
(dp164
g23
(lp165
(I01
S'highTone'
p166
tp167
a(I01
S'tense'
p168
tp169
asg25
V[ +highTone +tense ]
p170
sbsg37
(irule
Guard
p171
(dp172
g18
I00
sg19
(lp173
sg30
I00
sg25
V
sg32
I00
sg33
S'R'
sbsg41
(irule
FeatureMatrix
p174
(dp175
g23
(lp176
sg25
V[  ]
p177
sbsg25
V[  ] ---> [ +highTone +tense ] / # [  ] _ 
p178
sbasg49
(lp179
(imorph
Morph
p180
(dp181
g53
(lp182
sba(imorph
Morph
p183
(dp184
g53
(lp185
sba(imorph
Morph
p186
(dp187
g53
(lp188
sba(imorph
Morph
p189
(dp190
g53
(lp191
sbasg64
(dp192
(g66
g70
g74
g78
tp193
(imorph
Morph
p194
(dp195
g53
(lp196
Vp
ag86
asbs(g87
g91
g95
g99
tp197
(imorph
Morph
p198
(dp199
g53
(lp200
Vp
aV\u0254
asbs((imorph
Morph
p201
(dp202
g53
(lp203
Vj
aVa\u0301
p204
asb(imorph
Morph
p205
(dp206
g53
(lp207
Vj
aVa\u0301
p208
aV\u0294
aVu
aVh
aVk
aVi
asb(imorph
Morph
p209
(dp210
g53
(lp211
Vj
aVa\u0301
p212
aV\u0294
aVa
aVk
aVi
asb(imorph
Morph
p213
(dp214
g53
(lp215
Vj
aVa\u0301
p216
aVh
aVk
aV\u0294
aVa
aVk
aVi
asbtp217
(imorph
Morph
p218
(dp219
g53
(lp220
Vj
aVa
asbssg107
(lp221
(imorph
Morph
p222
(dp223
g53
(lp224
sba(imorph
Morph
p225
(dp226
g53
(lp227
V\u0294
aVu
aVh
aVk
aVi
asba(imorph
Morph
p228
(dp229
g53
(lp230
V\u0294
aV\u025b
aVk
aVi
asba(imorph
Morph
p231
(dp232
g53
(lp233
Vh
aVk
aV\u0294
aVa
aVk
aVi
asbasbF2051.3849999904633
tp234
asS'problem'
p235
S'Roca_104_Tunica'
p236
sS'finalFrontier'
p237
g6
(csolution
Frontier
p238
g8
NtRp239
(dp240
g49
g179
sg107
g221
sg64
g192
sS'frontiers'
p241
(lp242
(lp243
g125
aa(lp244
g153
aasbsS'parameters'
p245
g6
(cargparse
Namespace
p246
g8
NtRp247
(dp248
S'restore'
p249
NsS'features'
p250
S'simple'
p251
sS'universal'
p252
NsS'restrict'
p253
NsS'seed'
p254
S'0'
sS'serial'
p255
I00
sS'alignment'
p256
I00
sS'top'
p257
I1
sS'maximumDepth'
p258
I3
sS'window'
p259
NsS'minimizeBits'
p260
I5
sS'samples'
p261
I30
sS'save'
p262
NsS'resume'
p263
I00
sS'disableClean'
p264
I00
sS'stemBaseline'
p265
I30
sS'dummy'
p266
I00
sS'task'
p267
S'CEGIS'
p268
sS'geometry'
p269
NsS'verbosity'
p270
I0
sS'timeout'
p271
F24
sS'debug'
p272
NsS'cores'
p273
I40
sg235
S'Roca_104_Tunica'
p274
sS'mergeFrontiers'
p275
I00
sbsb.