(iresult
Result
p1
(dp2
S'startTime'
p3
F1633392443.888335
sS'solutionSequence'
p4
(lp5
(ccopy_reg
_reconstructor
p6
(csolution
Solution
p7
c__builtin__
object
p8
NtRp9
(dp10
S'rules'
p11
(lp12
(irule
Rule
p13
(dp14
S'leftTriggers'
p15
(irule
Guard
p16
(dp17
S'endOfString'
p18
I00
sS'specifications'
p19
(lp20
(irule
FeatureMatrix
p21
(dp22
S'featuresAndPolarities'
p23
(lp24
(I01
S'voice'
p25
tp26
asS'representation'
p27
V[ +voice ]
p28
sba(irule
FeatureMatrix
p29
(dp30
g23
(lp31
(I00
S'sibilant'
p32
tp33
asg27
V[ -sibilant ]
p34
sbasS'optionalEnding'
p35
I00
sg27
V[ -sibilant ] [ +voice ]
p36
sS'starred'
p37
I00
sS'side'
p38
S'L'
sbsS'structuralChange'
p39
(irule
FeatureMatrix
p40
(dp41
g23
(lp42
(I01
g25
tp43
asg27
V[ +voice ]
p44
sbsS'rightTriggers'
p45
(irule
Guard
p46
(dp47
g18
I00
sg19
(lp48
sg35
I00
sg27
V
sg37
I00
sg38
S'R'
sbsS'focus'
p49
(irule
ConstantPhoneme
p50
(dp51
S'p'
Vt
sbsg27
Vt ---> [ +voice ] / [ -sibilant ] [ +voice ] _ 
p52
sbasS'prefixes'
p53
(lp54
(imorph
Morph
p55
(dp56
S'phonemes'
p57
(lp58
sbasS'underlyingForms'
p59
(dp60
((imorph
Morph
(dp61
g57
(lp62
Vz
aVu
aVn
aVd
aV\u0259
asbtp63
(imorph
Morph
p64
(dp65
g57
(lp66
Vz
aVu
aVn
asbs((imorph
Morph
p67
(dp68
g57
(lp69
Vz
aV\u025b
aVt
aV\u0259
asbtp70
(imorph
Morph
p71
(dp72
g57
(lp73
Vz
aV\u025b
asbs((imorph
Morph
p74
(dp75
g57
(lp76
Vk
aVl
aVo
aVv
aVd
aV\u0259
asbtp77
(imorph
Morph
p78
(dp79
g57
(lp80
Vk
aVl
aVo
aVv
asbs((imorph
Morph
(dp81
g57
(lp82
Vr
aVu
aVr
aVd
aV\u0259
asbtp83
(imorph
Morph
p84
(dp85
g57
(lp86
Vr
aVu
aVr
asbs((imorph
Morph
p87
(dp88
g57
(lp89
Vr
aVa
aVz
aVd
aV\u0259
asbtp90
(imorph
Morph
p91
(dp92
g57
(lp93
Vr
aVa
aVz
asbs((imorph
Morph
p94
(dp95
g57
(lp96
Vm
aVa
aVf
aVt
aV\u0259
asbtp97
(imorph
Morph
p98
(dp99
g57
(lp100
Vm
aVa
aVf
asbs((imorph
Morph
(dp101
g57
(lp102
Vl
aVa
aVx
aVt
aV\u0259
asbtp103
(imorph
Morph
p104
(dp105
g57
(lp106
Vl
aVa
aVx
asbs((imorph
Morph
(dp107
g57
(lp108
Vr
aV\u0254
aVl
aVd
aV\u0259
asbtp109
(imorph
Morph
p110
(dp111
g57
(lp112
Vr
aV\u0254
aVl
asbs((imorph
Morph
(dp113
g57
(lp114
Va
aVj
aVd
aV\u0259
asbtp115
(imorph
Morph
p116
(dp117
g57
(lp118
Va
aVj
asbs((imorph
Morph
(dp119
g57
(lp120
Vr
aVu
aVm
aVd
aV\u0259
asbtp121
(imorph
Morph
p122
(dp123
g57
(lp124
Vr
aVu
aVm
asbs((imorph
Morph
(dp125
g57
(lp126
Vm
aVe
aV\u014b
aVd
aV\u0259
asbtp127
(imorph
Morph
p128
(dp129
g57
(lp130
Vm
aVe
aV\u014b
asbs((imorph
Morph
p131
(dp132
g57
(lp133
Vv
aV\u0269
aVs
aVt
aV\u0259
asbtp134
(imorph
Morph
p135
(dp136
g57
(lp137
Vv
aV\u0269
aVs
asbs((imorph
Morph
p138
(dp139
g57
(lp140
Vk
aVr
aVa
aVb
aVd
aV\u0259
asbtp141
(imorph
Morph
p142
(dp143
g57
(lp144
Vk
aVr
aVa
aVb
asbs((imorph
Morph
(dp145
g57
(lp146
Vl
aV\u025b
aV\u0263
aVd
aV\u0259
asbtp147
(imorph
Morph
p148
(dp149
g57
(lp150
Vl
aV\u025b
aV\u0263
asbs((imorph
Morph
p151
(dp152
g57
(lp153
Vr
aV\u025b
aVd
aV\u0259
asbtp154
(imorph
Morph
p155
(dp156
g57
(lp157
Vr
aV\u025b
asbs((imorph
Morph
p158
(dp159
g57
(lp160
Vk
aVl
aVa
aVp
aVt
aV\u0259
asbtp161
(imorph
Morph
p162
(dp163
g57
(lp164
Vk
aVl
aVa
aVp
asbs((imorph
Morph
(dp165
g57
(lp166
Vs
aVk
aVi
aVd
aV\u0259
asbtp167
(imorph
Morph
p168
(dp169
g57
(lp170
Vs
aVk
aVi
asbssS'suffixes'
p171
(lp172
(imorph
Morph
p173
(dp174
g57
(lp175
Vt
aV\u0259
asbasbF24.544097900390625
tp176
asS'problem'
p177
S'Roca_17_Dutch'
p178
sS'finalFrontier'
p179
g6
(csolution
Frontier
p180
g8
NtRp181
(dp182
g53
g54
sg171
g172
sg59
g60
sS'frontiers'
p183
(lp184
(lp185
g13
aasbsS'parameters'
p186
g6
(cargparse
Namespace
p187
g8
NtRp188
(dp189
S'restore'
p190
NsS'features'
p191
S'sophisticated'
p192
sS'universal'
p193
S'experimentOutputs/ug1.p'
p194
sS'restrict'
p195
NsS'seed'
p196
NsS'serial'
p197
I00
sS'cv'
p198
I00
sS'alignment'
p199
I00
sS'top'
p200
I1
sS'maximumDepth'
p201
I3
sS'window'
p202
I8
sS'minimizeBits'
p203
I5
sS'samples'
p204
I30
sS'save'
p205
NsS'resume'
p206
I00
sS'disableClean'
p207
I00
sS'stemBaseline'
p208
I30
sS'dummy'
p209
I00
sS'task'
p210
S'incremental'
p211
sS'geometry'
p212
I01
sS'verbosity'
p213
I0
sS'noConstant'
p214
I00
sS'timeout'
p215
F24
sS'debug'
p216
NsS'cores'
p217
I12
sg177
S'Roca_17_Dutch'
p218
sS'mergeFrontiers'
p219
I00
sbsb.