(ifragmentGrammar
FragmentGrammar
p1
(dp3
S'fragments'
p4
(lp5
(crule
Rule
p6
F-0.5108863990805417
(ifragmentGrammar
RuleFragment
p7
(dp8
S'focus'
p9
(ifragmentGrammar
VariableFragment
p10
(dp11
S'ty'
p12
crule
FC
p13
sS'logPrior'
p14
F-1.6
sbsS'change'
p15
(ifragmentGrammar
VariableFragment
p16
(dp17
g12
g13
sg14
F-1.6
sbsS'left'
p18
(ifragmentGrammar
VariableFragment
p19
(dp20
g12
crule
Guard
p21
sg14
F-1.6
sbsS'right'
p22
(ifragmentGrammar
VariableFragment
p23
(dp24
g12
g21
sg14
F-1.6
sbsg14
F-6.4
sbtp25
a(g6
F-0.9161995758273406
(ifragmentGrammar
RuleFragment
p26
(dp27
g9
(ifragmentGrammar
MatrixFragment
p28
(dp29
S'child'
p30
(irule
FeatureMatrix
p31
(dp32
S'featuresAndPolarities'
p33
(lp34
(I01
S'vowel'
p35
tp36
asS'representation'
p37
V[ +vowel ]
p38
sbsg14
F-5.075173815233827
sS'childUnicode'
p39
V[ +vowel ]
p40
sbsg15
(ifragmentGrammar
VariableFragment
p41
(dp42
g12
crule
FeatureMatrix
p43
sg14
F-1.6
sbsg18
(ifragmentGrammar
GuardFragment
p44
(dp45
g14
F-10.364053269347762
sS'specifications'
p46
(lp47
(ifragmentGrammar
VariableFragment
p48
(dp49
g12
g43
sg14
F-1.6
sba(ifragmentGrammar
MatrixFragment
p50
(dp51
g30
(irule
FeatureMatrix
p52
(dp53
g33
(lp54
(I01
g35
tp55
a(I01
S'highTone'
p56
tp57
asg37
V[ +highTone +vowel ]
p58
sbsg14
F-8.764053269347762
sg39
V[ +highTone +vowel ]
p59
sbasS'starred'
p60
I00
sS'endOfString'
p61
I00
sS'optionalEnding'
p62
I00
sbsg22
(ifragmentGrammar
VariableFragment
p63
(dp64
g12
g21
sg14
F-1.6
sbsg14
F-18.63922708458159
sbtp65
a(g21
F-5.895629695758361
(ifragmentGrammar
GuardFragment
p66
(dp67
g14
F-1.0
sg46
(lp68
sg60
I00
sg61
I01
sg62
I00
sbtp69
a(g21
F-6.854063956383477
(ifragmentGrammar
GuardFragment
p70
(dp71
g14
F-2.6
sg46
(lp72
(ifragmentGrammar
VariableFragment
p73
(dp74
g12
crule
Specification
p75
sg14
F-1.6
sbasg60
I00
sg61
I01
sg62
I00
sbtp76
a(g21
F-9.473631346915282
(ifragmentGrammar
GuardFragment
p77
(dp78
g14
F-5.2
sg46
(lp79
(ifragmentGrammar
VariableFragment
p80
(dp81
g12
g75
sg14
F-1.6
sbag80
asg60
I01
sg61
I01
sg62
I00
sbtp82
a(g21
F-9.473631346915282
(ifragmentGrammar
GuardFragment
p83
(dp84
g14
F-4.2
sg46
(lp85
(ifragmentGrammar
VariableFragment
p86
(dp87
g12
g75
sg14
F-1.6
sbag86
asg60
I00
sg61
I01
sg62
I00
sbtp88
a(g21
F-9.473631346915282
(ifragmentGrammar
GuardFragment
p89
(dp90
g14
F-3.6
sg46
(lp91
(ifragmentGrammar
VariableFragment
p92
(dp93
g12
g75
sg14
F-1.6
sbasg60
I00
sg61
I00
sg62
I01
sbtp94
a(g21
F-9.473631346915282
(ifragmentGrammar
GuardFragment
p95
(dp96
g14
F-6.2
sg46
(lp97
(ifragmentGrammar
VariableFragment
p98
(dp99
g12
g75
sg14
F-1.6
sbag98
asg60
I01
sg61
I00
sg62
I01
sbtp100
a(g21
F-9.473631346915282
(ifragmentGrammar
GuardFragment
p101
(dp102
g14
F-5.2
sg46
(lp103
(ifragmentGrammar
VariableFragment
p104
(dp105
g12
g75
sg14
F-1.6
sbag104
asg60
I00
sg61
I00
sg62
I01
sbtp106
a(g21
F-1.2588269056254089
(ifragmentGrammar
GuardFragment
p107
(dp108
g14
I0
sg46
(lp109
sg60
I00
sg61
I00
sg62
I00
sbtp110
a(g21
F-0.45655836500914615
(ifragmentGrammar
GuardFragment
p111
(dp112
g14
F-1.6
sg46
(lp113
(ifragmentGrammar
VariableFragment
p114
(dp115
g12
g75
sg14
F-1.6
sbasg60
I00
sg61
I00
sg62
I00
sbtp116
a(g21
F-2.5498370738834426
(ifragmentGrammar
GuardFragment
p117
(dp118
g14
F-4.2
sg46
(lp119
(ifragmentGrammar
VariableFragment
p120
(dp121
g12
g75
sg14
F-1.6
sbag120
asg60
I01
sg61
I00
sg62
I00
sbtp122
a(g21
F-8.570581804624862
(ifragmentGrammar
GuardFragment
p123
(dp124
g14
F-3.2
sg46
(lp125
(ifragmentGrammar
VariableFragment
p126
(dp127
g12
g75
sg14
F-1.6
sbag126
asg60
I00
sg61
I00
sg62
I00
sbtp128
a(g21
F-9.457049299639822
(ifragmentGrammar
GuardFragment
p129
(dp130
g14
F-10.364053269347762
sg46
(lp131
(ifragmentGrammar
VariableFragment
p132
(dp133
g12
g43
sg14
F-1.6
sba(ifragmentGrammar
MatrixFragment
p134
(dp135
g30
(irule
FeatureMatrix
p136
(dp137
g33
(lp138
(I01
S'vowel'
p139
tp140
a(I01
S'highTone'
p141
tp142
asg37
V[ +highTone +vowel ]
p143
sbsg14
F-8.764053269347762
sg39
V[ +highTone +vowel ]
p144
sbasg60
I00
sg61
I00
sg62
I00
sbtp145
a(g75
F-0.5611940740656101
(ifragmentGrammar
SpecificationFragment
p146
(dp147
g30
(ifragmentGrammar
VariableFragment
p148
(dp149
g12
g43
sg14
F-1.6
sbsg14
F-1.6
sbtp150
a(g75
F-9.239084870392764
(ifragmentGrammar
SpecificationFragment
p151
(dp152
g30
(ifragmentGrammar
VariableFragment
p153
(dp154
g12
crule
BoundarySpecification
p155
sg14
F-1.6
sbsg14
F-1.6
sbtp156
a(g75
F-2.3156721917170366
(ifragmentGrammar
SpecificationFragment
p157
(dp158
g30
(ifragmentGrammar
VariableFragment
p159
(dp160
g12
crule
ConstantPhoneme
p161
sg14
F-1.6
sbsg14
F-1.6
sbtp162
a(g75
F-1.106617408146635
(ifragmentGrammar
MatrixFragment
p163
(dp164
g30
(irule
FeatureMatrix
p165
(dp166
g33
(lp167
(I00
S'continuant'
p168
tp169
asg37
V[ -continuant ]
p170
sbsg14
F-5.075173815233827
sg39
V[ -continuant ]
p171
sbtp172
a(g13
F-9.131904713068767
(ifragmentGrammar
FCFragment
p173
(dp174
g30
(irule
EmptySpecification
p175
(dp176
bsg14
I-1
sbtp177
a(g13
F-9.131904713068767
(ifragmentGrammar
FCFragment
p178
(dp179
g30
(ifragmentGrammar
VariableFragment
p180
(dp181
g12
crule
OffsetSpecification
p182
sg14
F-1.6
sbsg14
F-1.6
sbtp183
a(g13
F-2.223149933753547
(ifragmentGrammar
FCFragment
p184
(dp185
g30
(ifragmentGrammar
VariableFragment
p186
(dp187
g12
crule
PlaceSpecification
p188
sg14
F-1.6
sbsg14
F-1.6
sbtp189
a(g13
F-0.11483173116263191
(ifragmentGrammar
FCFragment
p190
(dp191
g30
(ifragmentGrammar
VariableFragment
p192
(dp193
g12
g75
sg14
F-1.6
sbsg14
F-1.6
sbtp194
asS'prior'
p195
F-31.005695184589975
sb.