(ifragmentGrammar
FragmentGrammar
p1
(dp3
S'fragments'
p4
(lp5
(crule
Rule
p6
F-0.5775352543166696
(ifragmentGrammar
RuleFragment
p7
(dp8
S'logPrior'
p9
F-6.4
sS'right'
p10
(ifragmentGrammar
VariableFragment
p11
(dp12
g9
F-1.6
sS'ty'
p13
crule
Guard
p14
sbsS'left'
p15
(ifragmentGrammar
VariableFragment
p16
(dp17
g9
F-1.6
sg13
g14
sbsS'change'
p18
(ifragmentGrammar
VariableFragment
p19
(dp20
g9
F-1.6
sg13
crule
FC
p21
sbsS'focus'
p22
(ifragmentGrammar
VariableFragment
p23
(dp24
g9
F-1.6
sg13
g21
sbsbtp25
a(g6
F-2.970308147710215
(ifragmentGrammar
RuleFragment
p26
(dp27
g9
F-34.989574715049244
sg10
(ifragmentGrammar
GuardFragment
p28
(dp29
S'optionalEnding'
p30
I00
sS'endOfString'
p31
I00
sS'starred'
p32
I01
sS'specifications'
p33
(lp34
(ifragmentGrammar
MatrixFragment
p35
(dp36
S'childUnicode'
p37
V[ -vowel ]
p38
sg9
F-5.075173815233827
sS'child'
p39
(irule
FeatureMatrix
p40
(dp41
S'representation'
p42
V[ -vowel ]
p43
sS'featuresAndPolarities'
p44
(lp45
(I00
S'vowel'
p46
tp47
asbsba(ifragmentGrammar
MatrixFragment
p48
(dp49
g37
V[ +highTone +vowel ]
p50
sg9
F-8.764053269347762
sg39
(irule
FeatureMatrix
p51
(dp52
g42
V[ +highTone +vowel ]
p53
sg44
(lp54
(I01
S'highTone'
p55
tp56
a(I01
g46
tp57
asbsbasg9
F-14.839227084581589
sbsg15
(ifragmentGrammar
GuardFragment
p58
(dp59
g30
I00
sg31
I00
sg32
I00
sg33
(lp60
sg9
I0
sbsg18
(ifragmentGrammar
MatrixFragment
p61
(dp62
g37
V[ -highTone ]
p63
sg9
F-15.075173815233827
sg39
(irule
FeatureMatrix
p64
(dp65
g42
V[ -highTone ]
p66
sg44
(lp67
(I00
g55
tp68
asbsbsg22
(ifragmentGrammar
MatrixFragment
p69
(dp70
g37
V[ +vowel ]
p71
sg9
F-5.075173815233827
sg39
(irule
FeatureMatrix
p72
(dp73
g42
V[ +vowel ]
p74
sg44
(lp75
(I01
g46
tp76
asbsbsbtp77
a(g6
F-2.388204947428661
(ifragmentGrammar
RuleFragment
p78
(dp79
g9
F-11.750347630467653
sg10
(ifragmentGrammar
VariableFragment
p80
(dp81
g9
F-1.6
sg13
g14
sbsg15
(ifragmentGrammar
GuardFragment
p82
(dp83
g30
I00
sg31
I00
sg32
I00
sg33
(lp84
sg9
I0
sbsg18
(ifragmentGrammar
MatrixFragment
p85
(dp86
g37
V[ -voice ]
p87
sg9
F-5.075173815233827
sg39
(irule
FeatureMatrix
p88
(dp89
g42
V[ -voice ]
p90
sg44
(lp91
(I00
S'voice'
p92
tp93
asbsbsg22
(ifragmentGrammar
MatrixFragment
p94
(dp95
g37
V[ -sonorant ]
p96
sg9
F-5.075173815233827
sg39
(irule
FeatureMatrix
p97
(dp98
g42
V[ -sonorant ]
p99
sg44
(lp100
(I00
S'sonorant'
p101
tp102
asbsbsbtp103
a(g6
F-2.9703097048418474
(ifragmentGrammar
RuleFragment
p104
(dp105
g9
F-13.350347630467652
sg10
(ifragmentGrammar
GuardFragment
p106
(dp107
g30
I00
sg31
I00
sg32
I00
sg33
(lp108
(ifragmentGrammar
MatrixFragment
p109
(dp110
g37
V[ -vowel ]
p111
sg9
F-5.075173815233827
sg39
(irule
FeatureMatrix
p112
(dp113
g42
V[ -vowel ]
p114
sg44
(lp115
(I00
S'vowel'
p116
tp117
asbsbasg9
F-5.075173815233827
sbsg15
(ifragmentGrammar
VariableFragment
p118
(dp119
g9
F-1.6
sg13
g14
sbsg18
(ifragmentGrammar
VariableFragment
p120
(dp121
g9
F-1.6
sg13
crule
PlaceSpecification
p122
sbsg22
(ifragmentGrammar
MatrixFragment
p123
(dp124
g37
V[ +nasal ]
p125
sg9
F-5.075173815233827
sg39
(irule
FeatureMatrix
p126
(dp127
g42
V[ +nasal ]
p128
sg44
(lp129
(I01
S'nasal'
p130
tp131
asbsbsbtp132
a(g6
F-3.2579101780333826
(ifragmentGrammar
RuleFragment
p133
(dp134
g9
F-36.589574715049245
sg10
(ifragmentGrammar
VariableFragment
p135
(dp136
g9
F-1.6
sg13
g14
sbsg15
(ifragmentGrammar
GuardFragment
p137
(dp138
g30
I00
sg31
I00
sg32
I01
sg33
(lp139
(ifragmentGrammar
MatrixFragment
p140
(dp141
g37
V[ -vowel ]
p142
sg9
F-5.075173815233827
sg39
(irule
FeatureMatrix
p143
(dp144
g42
V[ -vowel ]
p145
sg44
(lp146
(I00
S'vowel'
p147
tp148
asbsba(ifragmentGrammar
MatrixFragment
p149
(dp150
g37
V[ +highTone +vowel ]
p151
sg9
F-8.764053269347762
sg39
(irule
FeatureMatrix
p152
(dp153
g42
V[ +highTone +vowel ]
p154
sg44
(lp155
(I01
S'highTone'
p156
tp157
a(I01
g147
tp158
asbsbasg9
F-14.839227084581589
sbsg18
(ifragmentGrammar
MatrixFragment
p159
(dp160
g37
V[ +highTone ]
p161
sg9
F-15.075173815233827
sg39
(irule
FeatureMatrix
p162
(dp163
g42
V[ +highTone ]
p164
sg44
(lp165
(I01
g156
tp166
asbsbsg22
(ifragmentGrammar
MatrixFragment
p167
(dp168
g37
V[ +vowel ]
p169
sg9
F-5.075173815233827
sg39
(irule
FeatureMatrix
p170
(dp171
g42
V[ +vowel ]
p172
sg44
(lp173
(I01
S'vowel'
p174
tp175
asbsbsbtp176
a(g6
F-3.661032666727971
(ifragmentGrammar
RuleFragment
p177
(dp178
g9
F-35.20328035392935
sg10
(ifragmentGrammar
GuardFragment
p179
(dp180
g30
I00
sg31
I00
sg32
I00
sg33
(lp181
sg9
I0
sbsg15
(ifragmentGrammar
GuardFragment
p182
(dp183
g30
I00
sg31
I00
sg32
I01
sg33
(lp184
(ifragmentGrammar
VariableFragment
p185
(dp186
g9
F-1.6
sg13
crule
FeatureMatrix
p187
sba(ifragmentGrammar
MatrixFragment
p188
(dp189
g37
V[ +vowel -back ]
p190
sg9
F-8.764053269347762
sg39
(irule
FeatureMatrix
p191
(dp192
g42
V[ +vowel -back ]
p193
sg44
(lp194
(I00
S'back'
p195
tp196
a(I01
S'vowel'
p197
tp198
asbsbasg9
F-11.364053269347762
sbsg18
(ifragmentGrammar
MatrixFragment
p199
(dp200
g37
V[ -back -low ]
p201
sg9
F-18.764053269347762
sg39
(irule
FeatureMatrix
p202
(dp203
g42
V[ -back -low ]
p204
sg44
(lp205
(I00
g195
tp206
a(I00
S'low'
p207
tp208
asbsbsg22
(ifragmentGrammar
MatrixFragment
p209
(dp210
g37
V[ +vowel ]
p211
sg9
F-5.075173815233827
sg39
(irule
FeatureMatrix
p212
(dp213
g42
V[ +vowel ]
p214
sg44
(lp215
(I01
g197
tp216
asbsbsbtp217
a(g6
F-3.065829332535101
(ifragmentGrammar
RuleFragment
p218
(dp219
g9
F-18.914400899815416
sg10
(ifragmentGrammar
GuardFragment
p220
(dp221
g30
I00
sg31
I00
sg32
I00
sg33
(lp222
(ifragmentGrammar
MatrixFragment
p223
(dp224
g37
V[ +voice -sonorant ]
p225
sg9
F-8.764053269347762
sg39
(irule
FeatureMatrix
p226
(dp227
g42
V[ +voice -sonorant ]
p228
sg44
(lp229
(I00
S'sonorant'
p230
tp231
a(I01
S'voice'
p232
tp233
asbsbasg9
F-8.764053269347762
sbsg15
(ifragmentGrammar
GuardFragment
p234
(dp235
g30
I00
sg31
I00
sg32
I00
sg33
(lp236
sg9
I0
sbsg18
(ifragmentGrammar
MatrixFragment
p237
(dp238
g37
V[ +voice ]
p239
sg9
F-5.075173815233827
sg39
(irule
FeatureMatrix
p240
(dp241
g42
V[ +voice ]
p242
sg44
(lp243
(I01
g232
tp244
asbsbsg22
(ifragmentGrammar
MatrixFragment
p245
(dp246
g37
V[ -vowel ]
p247
sg9
F-5.075173815233827
sg39
(irule
FeatureMatrix
p248
(dp249
g42
V[ -vowel ]
p250
sg44
(lp251
(I00
S'vowel'
p252
tp253
asbsbsbtp254
a(g6
F-3.665093838346517
(ifragmentGrammar
RuleFragment
p255
(dp256
g9
F-13.350347630467652
sg10
(ifragmentGrammar
GuardFragment
p257
(dp258
g30
I00
sg31
I00
sg32
I00
sg33
(lp259
(ifragmentGrammar
MatrixFragment
p260
(dp261
g37
V[ +vowel ]
p262
sg9
F-5.075173815233827
sg39
(irule
FeatureMatrix
p263
(dp264
g42
V[ +vowel ]
p265
sg44
(lp266
(I01
S'vowel'
p267
tp268
asbsbasg9
F-5.075173815233827
sbsg15
(ifragmentGrammar
GuardFragment
p269
(dp270
g30
I00
sg31
I00
sg32
I00
sg33
(lp271
(ifragmentGrammar
VariableFragment
p272
(dp273
g9
F-1.6
sg13
g187
sbasg9
F-1.6
sbsg18
(ifragmentGrammar
MatrixFragment
p274
(dp275
g37
V[ +continuant ]
p276
sg9
F-5.075173815233827
sg39
(irule
FeatureMatrix
p277
(dp278
g42
V[ +continuant ]
p279
sg44
(lp280
(I01
S'continuant'
p281
tp282
asbsbsg22
(ifragmentGrammar
VariableFragment
p283
(dp284
g9
F-1.6
sg13
g21
sbsbtp285
a(g6
F-3.6173943783476616
(ifragmentGrammar
RuleFragment
p286
(dp287
g9
F-11.750347630467653
sg10
(ifragmentGrammar
GuardFragment
p288
(dp289
g30
I00
sg31
I00
sg32
I00
sg33
(lp290
(ifragmentGrammar
MatrixFragment
p291
(dp292
g37
V[ -sonorant ]
p293
sg9
F-5.075173815233827
sg39
(irule
FeatureMatrix
p294
(dp295
g42
V[ -sonorant ]
p296
sg44
(lp297
(I00
S'sonorant'
p298
tp299
asbsbasg9
F-5.075173815233827
sbsg15
(ifragmentGrammar
GuardFragment
p300
(dp301
g30
I00
sg31
I00
sg32
I00
sg33
(lp302
sg9
I0
sbsg18
(ifragmentGrammar
VariableFragment
p303
(dp304
g9
F-1.6
sg13
g187
sbsg22
(ifragmentGrammar
MatrixFragment
p305
(dp306
g37
V[ -sonorant ]
p307
sg9
F-5.075173815233827
sg39
(irule
FeatureMatrix
p308
(dp309
g42
V[ -sonorant ]
p310
sg44
(lp311
(I00
g298
tp312
asbsbsbtp313
a(g6
F-2.8904415796562035
(ifragmentGrammar
RuleFragment
p314
(dp315
g9
F-14.950347630467652
sg10
(ifragmentGrammar
VariableFragment
p316
(dp317
g9
F-1.6
sg13
g14
sbsg15
(ifragmentGrammar
GuardFragment
p318
(dp319
g30
I00
sg31
I00
sg32
I00
sg33
(lp320
(ifragmentGrammar
MatrixFragment
p321
(dp322
g37
V[ -vowel ]
p323
sg9
F-5.075173815233827
sg39
(irule
FeatureMatrix
p324
(dp325
g42
V[ -vowel ]
p326
sg44
(lp327
(I00
S'vowel'
p328
tp329
asbsba(ifragmentGrammar
VariableFragment
p330
(dp331
g9
F-1.6
sg13
g187
sbasg9
F-6.675173815233826
sbsg18
(ifragmentGrammar
VariableFragment
p332
(dp333
g9
F-1.6
sg13
g21
sbsg22
(ifragmentGrammar
MatrixFragment
p334
(dp335
g37
V[ +voice ]
p336
sg9
F-5.075173815233827
sg39
(irule
FeatureMatrix
p337
(dp338
g42
V[ +voice ]
p339
sg44
(lp340
(I01
S'voice'
p341
tp342
asbsbsbtp343
a(g6
F-3.666927767712303
(ifragmentGrammar
RuleFragment
p344
(dp345
g9
F-21.300695260935306
sg10
(ifragmentGrammar
GuardFragment
p346
(dp347
g30
I00
sg31
I00
sg32
I00
sg33
(lp348
sg9
I0
sbsg15
(ifragmentGrammar
GuardFragment
p349
(dp350
g30
I00
sg31
I00
sg32
I01
sg33
(lp351
(ifragmentGrammar
MatrixFragment
p352
(dp353
g37
V[ -vowel ]
p354
sg9
F-5.075173815233827
sg39
(irule
FeatureMatrix
p355
(dp356
g42
V[ -vowel ]
p357
sg44
(lp358
(I00
S'vowel'
p359
tp360
asbsba(ifragmentGrammar
MatrixFragment
p361
(dp362
g37
V[ +nasal ]
p363
sg9
F-5.075173815233827
sg39
(irule
FeatureMatrix
p364
(dp365
g42
V[ +nasal ]
p366
sg44
(lp367
(I01
S'nasal'
p368
tp369
asbsbasg9
F-11.150347630467653
sbsg18
(ifragmentGrammar
MatrixFragment
p370
(dp371
g37
V[ +voice ]
p372
sg9
F-5.075173815233827
sg39
(irule
FeatureMatrix
p373
(dp374
g42
V[ +voice ]
p375
sg44
(lp376
(I01
S'voice'
p377
tp378
asbsbsg22
(ifragmentGrammar
MatrixFragment
p379
(dp380
g37
V[ -voice ]
p381
sg9
F-5.075173815233827
sg39
(irule
FeatureMatrix
p382
(dp383
g42
V[ -voice ]
p384
sg44
(lp385
(I00
g377
tp386
asbsbsbtp387
a(g14
F-2.3438906879125843
(ifragmentGrammar
GuardFragment
p388
(dp389
g30
I00
sg31
I01
sg32
I00
sg33
(lp390
sg9
F-1.0
sbtp391
a(g14
F-3.6539397251227337
(ifragmentGrammar
GuardFragment
p392
(dp393
g30
I00
sg31
I01
sg32
I00
sg33
(lp394
(ifragmentGrammar
VariableFragment
p395
(dp396
g9
F-1.6
sg13
crule
Specification
p397
sbasg9
F-2.6
sbtp398
a(g14
F-7.160059407805948
(ifragmentGrammar
GuardFragment
p399
(dp400
g30
I00
sg31
I01
sg32
I01
sg33
(lp401
(ifragmentGrammar
VariableFragment
p402
(dp403
g9
F-1.6
sg13
g397
sbag402
asg9
F-5.2
sbtp404
a(g14
F-11.836777269491677
(ifragmentGrammar
GuardFragment
p405
(dp406
g30
I00
sg31
I01
sg32
I00
sg33
(lp407
(ifragmentGrammar
VariableFragment
p408
(dp409
g9
F-1.6
sg13
g397
sbag408
asg9
F-4.2
sbtp410
a(g14
F-5.03905374027684
(ifragmentGrammar
GuardFragment
p411
(dp412
g30
I01
sg31
I00
sg32
I00
sg33
(lp413
(ifragmentGrammar
VariableFragment
p414
(dp415
g9
F-1.6
sg13
g397
sbasg9
F-3.6
sbtp416
a(g14
F-12.05332657073654
(ifragmentGrammar
GuardFragment
p417
(dp418
g30
I01
sg31
I00
sg32
I01
sg33
(lp419
(ifragmentGrammar
VariableFragment
p420
(dp421
g9
F-1.6
sg13
g397
sbag420
asg9
F-6.2
sbtp422
a(g14
F-5.133844063040391
(ifragmentGrammar
GuardFragment
p423
(dp424
g30
I01
sg31
I00
sg32
I00
sg33
(lp425
(ifragmentGrammar
VariableFragment
p426
(dp427
g9
F-1.6
sg13
g397
sbag426
asg9
F-5.2
sbtp428
a(g14
F-1.8919635401612511
(ifragmentGrammar
GuardFragment
p429
(dp430
g30
I00
sg31
I00
sg32
I00
sg33
(lp431
sg9
I0
sbtp432
a(g14
F-0.41754952912363824
(ifragmentGrammar
GuardFragment
p433
(dp434
g30
I00
sg31
I00
sg32
I00
sg33
(lp435
(ifragmentGrammar
VariableFragment
p436
(dp437
g9
F-1.6
sg13
g397
sbasg9
F-1.6
sbtp438
a(g14
F-4.0617295459571
(ifragmentGrammar
GuardFragment
p439
(dp440
g30
I00
sg31
I00
sg32
I01
sg33
(lp441
(ifragmentGrammar
VariableFragment
p442
(dp443
g9
F-1.6
sg13
g397
sbag442
asg9
F-4.2
sbtp444
a(g14
F-3.444037885239128
(ifragmentGrammar
GuardFragment
p445
(dp446
g30
I00
sg31
I00
sg32
I00
sg33
(lp447
(ifragmentGrammar
VariableFragment
p448
(dp449
g9
F-1.6
sg13
g397
sbag448
asg9
F-3.2
sbtp450
a(g14
F-5.050729416217792
(ifragmentGrammar
GuardFragment
p451
(dp452
g30
I00
sg31
I00
sg32
I01
sg33
(lp453
(ifragmentGrammar
MatrixFragment
p454
(dp455
g37
V[ -vowel ]
p456
sg9
F-5.075173815233827
sg39
(irule
FeatureMatrix
p457
(dp458
g42
V[ -vowel ]
p459
sg44
(lp460
(I00
S'vowel'
p461
tp462
asbsba(ifragmentGrammar
MatrixFragment
p463
(dp464
g37
V[ +highTone +vowel ]
p465
sg9
F-8.764053269347762
sg39
(irule
FeatureMatrix
p466
(dp467
g42
V[ +highTone +vowel ]
p468
sg44
(lp469
(I01
S'highTone'
p470
tp471
a(I01
g461
tp472
asbsbasg9
F-14.839227084581589
sbtp473
a(g397
F-1.4929183469343064
(ifragmentGrammar
SpecificationFragment
p474
(dp475
g9
F-1.6
sg39
(ifragmentGrammar
VariableFragment
p476
(dp477
g9
F-1.6
sg13
g187
sbsbtp478
a(g397
F-7.698689952412312
(ifragmentGrammar
SpecificationFragment
p479
(dp480
g9
F-1.6
sg39
(ifragmentGrammar
VariableFragment
p481
(dp482
g9
F-1.6
sg13
crule
BoundarySpecification
p483
sbsbtp484
a(g397
F-1.424764730477045
(ifragmentGrammar
SpecificationFragment
p485
(dp486
g9
F-1.6
sg39
(ifragmentGrammar
VariableFragment
p487
(dp488
g9
F-1.6
sg13
crule
ConstantPhoneme
p489
sbsbtp490
a(g397
F-2.744857103835998
(ifragmentGrammar
MatrixFragment
p491
(dp492
g37
V[ -sonorant ]
p493
sg9
F-5.075173815233827
sg39
(irule
FeatureMatrix
p494
(dp495
g42
V[ -sonorant ]
p496
sg44
(lp497
(I00
S'sonorant'
p498
tp499
asbsbtp500
a(g397
F-4.980157351089126
(ifragmentGrammar
MatrixFragment
p501
(dp502
g37
V[ +highTone +vowel ]
p503
sg9
F-8.764053269347762
sg39
(irule
FeatureMatrix
p504
(dp505
g42
V[ +highTone +vowel ]
p506
sg44
(lp507
(I01
S'vowel'
p508
tp509
a(I01
S'highTone'
p510
tp511
asbsbtp512
a(g397
F-1.753893967350457
(ifragmentGrammar
MatrixFragment
p513
(dp514
g37
V[ -vowel ]
p515
sg9
F-5.075173815233827
sg39
(irule
FeatureMatrix
p516
(dp517
g42
V[ -vowel ]
p518
sg44
(lp519
(I00
S'vowel'
p520
tp521
asbsbtp522
a(g397
F-2.734291101062828
(ifragmentGrammar
MatrixFragment
p523
(dp524
g37
V[ -voice ]
p525
sg9
F-5.075173815233827
sg39
(irule
FeatureMatrix
p526
(dp527
g42
V[ -voice ]
p528
sg44
(lp529
(I00
S'voice'
p530
tp531
asbsbtp532
a(g397
F-2.940601787184843
(ifragmentGrammar
MatrixFragment
p533
(dp534
g37
V[ +vowel ]
p535
sg9
F-5.075173815233827
sg39
(irule
FeatureMatrix
p536
(dp537
g42
V[ +vowel ]
p538
sg44
(lp539
(I01
S'vowel'
p540
tp541
asbsbtp542
a(g397
F-3.369783145891888
(ifragmentGrammar
MatrixFragment
p543
(dp544
g37
V[ +vowel -back ]
p545
sg9
F-8.764053269347762
sg39
(irule
FeatureMatrix
p546
(dp547
g42
V[ +vowel -back ]
p548
sg44
(lp549
(I00
S'back'
p550
tp551
a(I01
S'vowel'
p552
tp553
asbsbtp554
a(g397
F-3.9645359859355427
(ifragmentGrammar
MatrixFragment
p555
(dp556
g37
V[ +voice -sonorant ]
p557
sg9
F-8.764053269347762
sg39
(irule
FeatureMatrix
p558
(dp559
g42
V[ +voice -sonorant ]
p560
sg44
(lp561
(I00
S'sonorant'
p562
tp563
a(I01
S'voice'
p564
tp565
asbsbtp566
a(g397
F-3.142916506569149
(ifragmentGrammar
MatrixFragment
p567
(dp568
g37
V[ +nasal ]
p569
sg9
F-5.075173815233827
sg39
(irule
FeatureMatrix
p570
(dp571
g42
V[ +nasal ]
p572
sg44
(lp573
(I01
S'nasal'
p574
tp575
asbsbtp576
a(g397
F-3.0169155311782783
(ifragmentGrammar
MatrixFragment
p577
(dp578
g37
V[ +voice ]
p579
sg9
F-5.075173815233827
sg39
(irule
FeatureMatrix
p580
(dp581
g42
V[ +voice ]
p582
sg44
(lp583
(I01
S'voice'
p584
tp585
asbsbtp586
a(g397
F-3.6201013197454195
(ifragmentGrammar
MatrixFragment
p587
(dp588
g37
V[ +continuant -high ]
p589
sg9
F-8.764053269347762
sg39
(irule
FeatureMatrix
p590
(dp591
g42
V[ +continuant -high ]
p592
sg44
(lp593
(I01
S'continuant'
p594
tp595
a(I00
S'high'
p596
tp597
asbsbtp598
a(g21
F-2.048004366524534
(ifragmentGrammar
FCFragment
p599
(dp600
g9
I-1
sg39
(irule
EmptySpecification
p601
(dp602
bsbtp603
a(g21
F-3.3387811388520605
(ifragmentGrammar
FCFragment
p604
(dp605
g9
F-1.6
sg39
(ifragmentGrammar
VariableFragment
p606
(dp607
g9
F-1.6
sg13
crule
OffsetSpecification
p608
sbsbtp609
a(g21
F-11.829552176592182
(ifragmentGrammar
FCFragment
p610
(dp611
g9
F-1.6
sg39
(ifragmentGrammar
VariableFragment
p612
(dp613
g9
F-1.6
sg13
g122
sbsbtp614
a(g21
F-0.17970043166730032
(ifragmentGrammar
FCFragment
p615
(dp616
g9
F-1.6
sg39
(ifragmentGrammar
VariableFragment
p617
(dp618
g9
F-1.6
sg13
g397
sbsbtp619
asS'prior'
p620
F-215.16711514888664
sb.